ARM GAS  C:\Users\AFDHAL~1\AppData\Local\Temp\cc3oooGx.s 			page 1


   1              		.syntax unified
   2              		.cpu cortex-m0
   3              		.fpu softvfp
   4              		.eabi_attribute 20, 1
   5              		.eabi_attribute 21, 1
   6              		.eabi_attribute 23, 3
   7              		.eabi_attribute 24, 1
   8              		.eabi_attribute 25, 1
   9              		.eabi_attribute 26, 1
  10              		.eabi_attribute 30, 1
  11              		.eabi_attribute 34, 0
  12              		.eabi_attribute 18, 4
  13              		.thumb
  14              		.syntax unified
  15              		.file	"main.c"
  16              		.text
  17              	.Ltext0:
  18              		.cfi_sections	.debug_frame
  19              		.global	__aeabi_i2f
  20              		.global	__aeabi_f2iz
  21              		.section	.text.main,"ax",%progbits
  22              		.align	2
  23              		.global	main
  24              		.code	16
  25              		.thumb_func
  26              		.type	main, %function
  27              	main:
  28              	.LFB34:
  29              		.file 1 "main.c"
   1:main.c        **** /* ========================================
   2:main.c        ****  *
   3:main.c        ****  * Copyright YOUR COMPANY, THE YEAR
   4:main.c        ****  * All Rights Reserved
   5:main.c        ****  * UNPUBLISHED, LICENSED SOFTWARE.
   6:main.c        ****  *
   7:main.c        ****  * CONFIDENTIAL AND PROPRIETARY INFORMATION
   8:main.c        ****  * WHICH IS THE PROPERTY OF your company.
   9:main.c        ****  *
  10:main.c        ****  * ========================================
  11:main.c        **** */
  12:main.c        **** #include "project.h"
  13:main.c        **** #include "pid.h"
  14:main.c        **** #include "motor.h"
  15:main.c        **** #include "modbusRTU.h"
  16:main.c        **** #include "modbus_regs.h"
  17:main.c        **** #include "millis.h"
  18:main.c        **** 
  19:main.c        **** 
  20:main.c        **** float motor_pwm, setpoint, pid_fb;
  21:main.c        **** 
  22:main.c        **** int main(void)
  23:main.c        **** {
  30              		.loc 1 23 0
  31              		.cfi_startproc
  32              		@ args = 0, pretend = 0, frame = 8
  33              		@ frame_needed = 0, uses_anonymous_args = 0
  34 0000 F0B5     		push	{r4, r5, r6, r7, lr}
ARM GAS  C:\Users\AFDHAL~1\AppData\Local\Temp\cc3oooGx.s 			page 2


  35              		.cfi_def_cfa_offset 20
  36              		.cfi_offset 4, -20
  37              		.cfi_offset 5, -16
  38              		.cfi_offset 6, -12
  39              		.cfi_offset 7, -8
  40              		.cfi_offset 14, -4
  41 0002 83B0     		sub	sp, sp, #12
  42              		.cfi_def_cfa_offset 32
  24:main.c        ****     CyGlobalIntEnable; /* Enable global interrupts. */
  43              		.loc 1 24 0
  44              		.syntax divided
  45              	@ 24 "main.c" 1
  46 0004 62B6     		CPSIE   i
  47              	@ 0 "" 2
  25:main.c        **** 
  26:main.c        ****     /* Place your initialization/startup code here (e.g. MyInst_Start()) */
  27:main.c        ****     LED_Write(0); //on board led off
  48              		.loc 1 27 0
  49              		.thumb
  50              		.syntax unified
  51 0006 0020     		movs	r0, #0
  52 0008 FFF7FEFF 		bl	LED_Write
  53              	.LVL0:
  28:main.c        ****     
  29:main.c        ****     //used mainly for modbus
  30:main.c        ****     USB_UART_Start();
  54              		.loc 1 30 0
  55 000c FFF7FEFF 		bl	USB_UART_Start
  56              	.LVL1:
  31:main.c        ****     
  32:main.c        ****     //arduino-like millis
  33:main.c        ****     Millis_Start();
  57              		.loc 1 33 0
  58 0010 FFF7FEFF 		bl	Millis_Start
  59              	.LVL2:
  34:main.c        ****            
  35:main.c        ****     QuadDec_Start(); //quadrature decoder module (to sense cable distance)
  60              		.loc 1 35 0
  61 0014 FFF7FEFF 		bl	QuadDec_Start
  62              	.LVL3:
  36:main.c        ****     QuadDec_WriteCounter(0); //reset measure cable distance (it resets to 32768)
  63              		.loc 1 36 0
  64 0018 0020     		movs	r0, #0
  65 001a FFF7FEFF 		bl	QuadDec_WriteCounter
  66              	.LVL4:
  37:main.c        ****         
  38:main.c        ****     Motor_Start();            
  67              		.loc 1 38 0
  68 001e FFF7FEFF 		bl	Motor_Start
  69              	.LVL5:
  39:main.c        ****     
  40:main.c        ****     PID_Init();
  70              		.loc 1 40 0
  71 0022 FFF7FEFF 		bl	PID_Init
  72              	.LVL6:
  41:main.c        ****     PID_Set_Setpoint(&setpoint); //set the address of setpoint variable
  73              		.loc 1 41 0
ARM GAS  C:\Users\AFDHAL~1\AppData\Local\Temp\cc3oooGx.s 			page 3


  74 0026 2248     		ldr	r0, .L3
  75 0028 FFF7FEFF 		bl	PID_Set_Setpoint
  76              	.LVL7:
  42:main.c        ****     PID_Set_Input(&pid_fb); //set the address of feedback variable
  77              		.loc 1 42 0
  78 002c 2148     		ldr	r0, .L3+4
  79 002e FFF7FEFF 		bl	PID_Set_Input
  80              	.LVL8:
  43:main.c        ****     PID_Set_Output(&motor_pwm); //set the address of output variable
  81              		.loc 1 43 0
  82 0032 2148     		ldr	r0, .L3+8
  83 0034 FFF7FEFF 		bl	PID_Set_Output
  84              	.LVL9:
  44:main.c        ****     
  45:main.c        ****     PID_ISR_StartEx(PID_Tick); //pid ticker routine is defined in pid.c
  85              		.loc 1 45 0
  86 0038 2048     		ldr	r0, .L3+12
  87 003a FFF7FEFF 		bl	PID_ISR_StartEx
  88              	.LVL10:
  46:main.c        ****     PID_Tick_Timer_Start(); //start 12.5Hz PID timer 
  89              		.loc 1 46 0
  90 003e FFF7FEFF 		bl	PID_Tick_Timer_Start
  91              	.LVL11:
  47:main.c        ****       
  48:main.c        ****     //reset setpoint on startup
  49:main.c        ****     modbus_holding_regs[PID_Setpoint] = 0;
  92              		.loc 1 49 0
  93 0042 0022     		movs	r2, #0
  94 0044 1E4B     		ldr	r3, .L3+16
  95 0046 DA60     		str	r2, [r3, #12]
  96              	.L2:
  97              	.LBB2:
  50:main.c        **** 
  51:main.c        ****     for(;;)
  52:main.c        ****     {
  53:main.c        ****         /* Place your application code here. */
  54:main.c        ****         
  55:main.c        ****         //service modbus request if available
  56:main.c        ****         modbusRTU_Update(1, modbus_holding_regs, MB_HREGS);
  98              		.loc 1 56 0 discriminator 1
  99 0048 1D4C     		ldr	r4, .L3+16
 100 004a 0522     		movs	r2, #5
 101 004c 2100     		movs	r1, r4
 102 004e 0120     		movs	r0, #1
 103 0050 FFF7FEFF 		bl	modbusRTU_Update
 104              	.LVL12:
  57:main.c        ****         
  58:main.c        ****         //read current position
  59:main.c        ****         pid_fb = (int)QuadDec_ReadCounter() - 32768;
 105              		.loc 1 59 0 discriminator 1
 106 0054 FFF7FEFF 		bl	QuadDec_ReadCounter
 107              	.LVL13:
 108 0058 1A4B     		ldr	r3, .L3+20
 109 005a 9C46     		mov	ip, r3
 110 005c 6044     		add	r0, r0, ip
 111 005e 154D     		ldr	r5, .L3+4
 112 0060 FFF7FEFF 		bl	__aeabi_i2f
ARM GAS  C:\Users\AFDHAL~1\AppData\Local\Temp\cc3oooGx.s 			page 4


 113              	.LVL14:
 114 0064 2860     		str	r0, [r5]
  60:main.c        ****         
  61:main.c        ****         //send pid output to motor
  62:main.c        ****         Motor_Bidirectional((int)motor_pwm);        
 115              		.loc 1 62 0 discriminator 1
 116 0066 144B     		ldr	r3, .L3+8
 117 0068 1868     		ldr	r0, [r3]
 118 006a FFF7FEFF 		bl	__aeabi_f2iz
 119              	.LVL15:
 120 006e FFF7FEFF 		bl	Motor_Bidirectional
 121              	.LVL16:
  63:main.c        ****            
  64:main.c        ****         //send the current reading to holding register so that it can be monitored via modbus link
  65:main.c        ****         modbus_holding_regs[Current_Encoder_Position] = (int)pid_fb;
 122              		.loc 1 65 0 discriminator 1
 123 0072 2868     		ldr	r0, [r5]
 124 0074 FFF7FEFF 		bl	__aeabi_f2iz
 125              	.LVL17:
 126 0078 2061     		str	r0, [r4, #16]
  66:main.c        ****         
  67:main.c        ****         //fetch the latest settings from hregs
  68:main.c        ****         setpoint = (float)modbus_holding_regs[PID_Setpoint];
 127              		.loc 1 68 0 discriminator 1
 128 007a E568     		ldr	r5, [r4, #12]
 129 007c 2800     		movs	r0, r5
 130 007e FFF7FEFF 		bl	__aeabi_i2f
 131              	.LVL18:
 132 0082 0B4B     		ldr	r3, .L3
 133 0084 1860     		str	r0, [r3]
  69:main.c        ****         volatile int temp = 0;
 134              		.loc 1 69 0 discriminator 1
 135 0086 0023     		movs	r3, #0
 136 0088 0193     		str	r3, [sp, #4]
  70:main.c        ****         temp = modbus_holding_regs[PID_Setpoint];
 137              		.loc 1 70 0 discriminator 1
 138 008a 0195     		str	r5, [sp, #4]
  71:main.c        ****         
  72:main.c        ****         //define pid gains (take from hregs)
  73:main.c        ****         PID_Set_Gains((float)modbus_holding_regs[Kp], (float)modbus_holding_regs[Ki], (float)modbus
 139              		.loc 1 73 0 discriminator 1
 140 008c 2668     		ldr	r6, [r4]
 141 008e 6768     		ldr	r7, [r4, #4]
 142 0090 A068     		ldr	r0, [r4, #8]
 143 0092 FFF7FEFF 		bl	__aeabi_i2f
 144              	.LVL19:
 145 0096 051C     		adds	r5, r0, #0
 146 0098 3800     		movs	r0, r7
 147 009a FFF7FEFF 		bl	__aeabi_i2f
 148              	.LVL20:
 149 009e 041C     		adds	r4, r0, #0
 150 00a0 3000     		movs	r0, r6
 151 00a2 FFF7FEFF 		bl	__aeabi_i2f
 152              	.LVL21:
 153 00a6 2A1C     		adds	r2, r5, #0
 154 00a8 211C     		adds	r1, r4, #0
 155 00aa FFF7FEFF 		bl	PID_Set_Gains
ARM GAS  C:\Users\AFDHAL~1\AppData\Local\Temp\cc3oooGx.s 			page 5


 156              	.LVL22:
 157 00ae CBE7     		b	.L2
 158              	.L4:
 159              		.align	2
 160              	.L3:
 161 00b0 00000000 		.word	setpoint
 162 00b4 00000000 		.word	pid_fb
 163 00b8 00000000 		.word	motor_pwm
 164 00bc 00000000 		.word	PID_Tick
 165 00c0 00000000 		.word	modbus_holding_regs
 166 00c4 0080FFFF 		.word	-32768
 167              	.LBE2:
 168              		.cfi_endproc
 169              	.LFE34:
 170              		.size	main, .-main
 171              		.comm	pid_fb,4,4
 172              		.comm	setpoint,4,4
 173              		.comm	motor_pwm,4,4
 174              		.comm	modbus_holding_regs,20,4
 175              		.text
 176              	.Letext0:
 177              		.file 2 "modbus_regs.h"
 178              		.file 3 "modbusRTU.h"
 179              		.file 4 "Generated_Source\\PSoC4/QuadDec.h"
 180              		.file 5 "motor.h"
 181              		.file 6 "pid.h"
 182              		.file 7 "Generated_Source\\PSoC4/LED.h"
 183              		.file 8 "Generated_Source\\PSoC4/USB_UART.h"
 184              		.file 9 "millis.h"
 185              		.file 10 "Generated_Source\\PSoC4/PID_ISR.h"
 186              		.file 11 "Generated_Source\\PSoC4/PID_Tick_Timer.h"