ARM GAS  C:\Users\AFDHAL~1\AppData\Local\Temp\ccZ8HjUr.s 			page 1


   1              		.syntax unified
   2              		.cpu cortex-m0
   3              		.fpu softvfp
   4              		.eabi_attribute 20, 1
   5              		.eabi_attribute 21, 1
   6              		.eabi_attribute 23, 3
   7              		.eabi_attribute 24, 1
   8              		.eabi_attribute 25, 1
   9              		.eabi_attribute 26, 1
  10              		.eabi_attribute 30, 1
  11              		.eabi_attribute 34, 0
  12              		.eabi_attribute 18, 4
  13              		.thumb
  14              		.syntax unified
  15              		.file	"millis.c"
  16              		.text
  17              	.Ltext0:
  18              		.cfi_sections	.debug_frame
  19              		.section	.text.Millis_Tick,"ax",%progbits
  20              		.align	2
  21              		.global	Millis_Tick
  22              		.code	16
  23              		.thumb_func
  24              		.type	Millis_Tick, %function
  25              	Millis_Tick:
  26              	.LFB34:
  27              		.file 1 "millis.c"
   1:millis.c      **** /*
   2:millis.c      ****  * File:   millis.c
   3:millis.c      ****  * Author: Afdhal Tan
   4:millis.c      ****  *
   5:millis.c      ****  * Created on 21 October 2016, 13:32
   6:millis.c      ****  */
   7:millis.c      **** 
   8:millis.c      **** #include "millis.h"
   9:millis.c      **** volatile unsigned long long long_millis=0;
  10:millis.c      **** 
  11:millis.c      **** CY_ISR(Millis_Tick)
  12:millis.c      **** {
  28              		.loc 1 12 0
  29              		.cfi_startproc
  30              		@ args = 0, pretend = 0, frame = 0
  31              		@ frame_needed = 0, uses_anonymous_args = 0
  32 0000 70B5     		push	{r4, r5, r6, lr}
  33              		.cfi_def_cfa_offset 16
  34              		.cfi_offset 4, -16
  35              		.cfi_offset 5, -12
  36              		.cfi_offset 6, -8
  37              		.cfi_offset 14, -4
  13:millis.c      ****     long_millis+=1;
  38              		.loc 1 13 0
  39 0002 0749     		ldr	r1, .L2
  40 0004 0C68     		ldr	r4, [r1]
  41 0006 4D68     		ldr	r5, [r1, #4]
  42 0008 0122     		movs	r2, #1
  43 000a 0023     		movs	r3, #0
  44 000c 1219     		adds	r2, r2, r4
ARM GAS  C:\Users\AFDHAL~1\AppData\Local\Temp\ccZ8HjUr.s 			page 2


  45 000e 6B41     		adcs	r3, r3, r5
  46 0010 0A60     		str	r2, [r1]
  47 0012 4B60     		str	r3, [r1, #4]
  14:millis.c      **** 
  15:millis.c      **** //    for debug use    
  16:millis.c      **** //    static int cnt=0;
  17:millis.c      **** //     
  18:millis.c      **** //    //heartbeat on led
  19:millis.c      **** //    if(cnt++>100)
  20:millis.c      **** //    {
  21:millis.c      **** //        cnt=0;
  22:millis.c      **** //        LED_Write(~LED_Read());
  23:millis.c      **** //    } 
  24:millis.c      ****     
  25:millis.c      ****     //clear flags before exiting isr
  26:millis.c      ****     Millis_TMR_ClearInterrupt(Millis_TMR_INTR_MASK_TC);
  48              		.loc 1 26 0
  49 0014 0120     		movs	r0, #1
  50 0016 FFF7FEFF 		bl	Millis_TMR_ClearInterrupt
  51              	.LVL0:
  27:millis.c      ****     Millis_ISR_ClearPending();
  52              		.loc 1 27 0
  53 001a FFF7FEFF 		bl	Millis_ISR_ClearPending
  54              	.LVL1:
  28:millis.c      **** }
  55              		.loc 1 28 0
  56              		@ sp needed
  57 001e 70BD     		pop	{r4, r5, r6, pc}
  58              	.L3:
  59              		.align	2
  60              	.L2:
  61 0020 00000000 		.word	.LANCHOR0
  62              		.cfi_endproc
  63              	.LFE34:
  64              		.size	Millis_Tick, .-Millis_Tick
  65              		.section	.text.Millis_Start,"ax",%progbits
  66              		.align	2
  67              		.global	Millis_Start
  68              		.code	16
  69              		.thumb_func
  70              		.type	Millis_Start, %function
  71              	Millis_Start:
  72              	.LFB35:
  29:millis.c      **** 
  30:millis.c      **** void Millis_Start()
  31:millis.c      **** {
  73              		.loc 1 31 0
  74              		.cfi_startproc
  75              		@ args = 0, pretend = 0, frame = 0
  76              		@ frame_needed = 0, uses_anonymous_args = 0
  77 0000 10B5     		push	{r4, lr}
  78              		.cfi_def_cfa_offset 8
  79              		.cfi_offset 4, -8
  80              		.cfi_offset 14, -4
  32:millis.c      ****     Millis_ISR_StartEx(Millis_Tick);
  81              		.loc 1 32 0
  82 0002 0348     		ldr	r0, .L5
ARM GAS  C:\Users\AFDHAL~1\AppData\Local\Temp\ccZ8HjUr.s 			page 3


  83 0004 FFF7FEFF 		bl	Millis_ISR_StartEx
  84              	.LVL2:
  33:millis.c      ****     Millis_TMR_Start();
  85              		.loc 1 33 0
  86 0008 FFF7FEFF 		bl	Millis_TMR_Start
  87              	.LVL3:
  34:millis.c      **** }
  88              		.loc 1 34 0
  89              		@ sp needed
  90 000c 10BD     		pop	{r4, pc}
  91              	.L6:
  92 000e C046     		.align	2
  93              	.L5:
  94 0010 00000000 		.word	Millis_Tick
  95              		.cfi_endproc
  96              	.LFE35:
  97              		.size	Millis_Start, .-Millis_Start
  98              		.global	long_millis
  99              		.bss
 100              		.align	3
 101              		.set	.LANCHOR0,. + 0
 102              		.type	long_millis, %object
 103              		.size	long_millis, 8
 104              	long_millis:
 105 0000 00000000 		.space	8
 105      00000000 
 106              		.text
 107              	.Letext0:
 108              		.file 2 "Generated_Source\\PSoC4/Millis_TMR.h"
 109              		.file 3 "Generated_Source\\PSoC4/Millis_ISR.h"
 110              		.file 4 "Generated_Source\\PSoC4/cytypes.h"