ARM GAS  C:\Users\AFDHAL~1\AppData\Local\Temp\ccMgNf8d.s 			page 1


   1              		.syntax unified
   2              		.cpu cortex-m0
   3              		.fpu softvfp
   4              		.eabi_attribute 20, 1
   5              		.eabi_attribute 21, 1
   6              		.eabi_attribute 23, 3
   7              		.eabi_attribute 24, 1
   8              		.eabi_attribute 25, 1
   9              		.eabi_attribute 26, 1
  10              		.eabi_attribute 30, 1
  11              		.eabi_attribute 34, 0
  12              		.eabi_attribute 18, 4
  13              		.thumb
  14              		.syntax unified
  15              		.file	"motor.c"
  16              		.text
  17              	.Ltext0:
  18              		.cfi_sections	.debug_frame
  19              		.section	.text.Motor_Bidirectional,"ax",%progbits
  20              		.align	2
  21              		.global	Motor_Bidirectional
  22              		.code	16
  23              		.thumb_func
  24              		.type	Motor_Bidirectional, %function
  25              	Motor_Bidirectional:
  26              	.LFB34:
  27              		.file 1 "motor.c"
   1:motor.c       **** /*******************************************************************************
   2:motor.c       **** * File Name: motor.c  
   3:motor.c       **** * Version 0.1
   4:motor.c       **** * 6th November 2017
   5:motor.c       **** *
   6:motor.c       **** *  Description:
   7:motor.c       **** *   APIs for motor controller.
   8:motor.c       **** ********************************************************************************
   9:motor.c       ****  * Copyright AfdhalAtiffTan, 2017
  10:motor.c       ****  * All Rights Reserved
  11:motor.c       ****  * UNPUBLISHED, LICENSED SOFTWARE.
  12:motor.c       **** *******************************************************************************/
  13:motor.c       **** 
  14:motor.c       **** #include "motor.h"
  15:motor.c       **** 
  16:motor.c       **** /*******************************************************************************
  17:motor.c       **** * Function Name: Motor_Bidirectional
  18:motor.c       **** ********************************************************************************
  19:motor.c       **** *
  20:motor.c       **** * Summary:
  21:motor.c       **** *  -Control the speed and the direction of the motor.
  22:motor.c       **** *  -It accepts 0 to 65535 as the duty cycle.
  23:motor.c       **** *  -Positive and negative value correspond to forward and backward respectively.
  24:motor.c       **** *
  25:motor.c       **** * Parameters:  
  26:motor.c       **** *   *pwm: Set the speed and the direction of the motor by giving it +/- 0 to 65535 
  27:motor.c       **** *
  28:motor.c       **** * Return:
  29:motor.c       **** *   None
  30:motor.c       **** *
ARM GAS  C:\Users\AFDHAL~1\AppData\Local\Temp\ccMgNf8d.s 			page 2


  31:motor.c       **** *******************************************************************************/
  32:motor.c       **** void Motor_Bidirectional(int pwm)
  33:motor.c       **** {
  28              		.loc 1 33 0
  29              		.cfi_startproc
  30              		@ args = 0, pretend = 0, frame = 0
  31              		@ frame_needed = 0, uses_anonymous_args = 0
  32              	.LVL0:
  33 0000 10B5     		push	{r4, lr}
  34              		.cfi_def_cfa_offset 8
  35              		.cfi_offset 4, -8
  36              		.cfi_offset 14, -4
  37 0002 0400     		movs	r4, r0
  34:motor.c       ****     //boundaries check
  35:motor.c       ****     if (pwm>65535)
  38              		.loc 1 35 0
  39 0004 0B4B     		ldr	r3, .L7
  40 0006 9842     		cmp	r0, r3
  41 0008 03DC     		bgt	.L5
  36:motor.c       ****         pwm = 65535;
  37:motor.c       ****     else if (pwm<-65535)
  42              		.loc 1 37 0
  43 000a 0B4B     		ldr	r3, .L7+4
  44 000c 9842     		cmp	r0, r3
  45 000e 02DB     		blt	.L6
  46 0010 02E0     		b	.L2
  47              	.L5:
  36:motor.c       ****         pwm = 65535;
  48              		.loc 1 36 0
  49 0012 084C     		ldr	r4, .L7
  50 0014 00E0     		b	.L2
  51              	.L6:
  38:motor.c       ****         pwm = -65535;
  52              		.loc 1 38 0
  53 0016 084C     		ldr	r4, .L7+4
  54              	.L2:
  55              	.LVL1:
  39:motor.c       ****     
  40:motor.c       ****     //set direction first
  41:motor.c       ****     if (pwm<0) //reverse
  56              		.loc 1 41 0
  57 0018 002C     		cmp	r4, #0
  58 001a 04DA     		bge	.L3
  42:motor.c       ****     {    
  43:motor.c       ****         Motor_Dir_Write(1);
  59              		.loc 1 43 0
  60 001c 0120     		movs	r0, #1
  61 001e FFF7FEFF 		bl	Motor_Dir_Write
  62              	.LVL2:
  44:motor.c       ****         pwm *= -1; //take only the magnitude
  63              		.loc 1 44 0
  64 0022 6442     		rsbs	r4, r4, #0
  65              	.LVL3:
  66 0024 02E0     		b	.L4
  67              	.L3:
  45:motor.c       ****     }
  46:motor.c       ****     else //forward
ARM GAS  C:\Users\AFDHAL~1\AppData\Local\Temp\ccMgNf8d.s 			page 3


  47:motor.c       ****     {
  48:motor.c       ****         Motor_Dir_Write(0);
  68              		.loc 1 48 0
  69 0026 0020     		movs	r0, #0
  70 0028 FFF7FEFF 		bl	Motor_Dir_Write
  71              	.LVL4:
  72              	.L4:
  49:motor.c       ****     }
  50:motor.c       ****             
  51:motor.c       ****     //then, set duty cycle
  52:motor.c       ****     PWM_WriteCompare(pwm);    
  73              		.loc 1 52 0
  74 002c 2000     		movs	r0, r4
  75 002e FFF7FEFF 		bl	PWM_WriteCompare
  76              	.LVL5:
  53:motor.c       **** }
  77              		.loc 1 53 0
  78              		@ sp needed
  79              	.LVL6:
  80 0032 10BD     		pop	{r4, pc}
  81              	.L8:
  82              		.align	2
  83              	.L7:
  84 0034 FFFF0000 		.word	65535
  85 0038 0100FFFF 		.word	-65535
  86              		.cfi_endproc
  87              	.LFE34:
  88              		.size	Motor_Bidirectional, .-Motor_Bidirectional
  89              		.section	.text.Motor_Start,"ax",%progbits
  90              		.align	2
  91              		.global	Motor_Start
  92              		.code	16
  93              		.thumb_func
  94              		.type	Motor_Start, %function
  95              	Motor_Start:
  96              	.LFB35:
  54:motor.c       **** 
  55:motor.c       **** 
  56:motor.c       **** /*******************************************************************************
  57:motor.c       **** * Function Name: Motor_Start
  58:motor.c       **** ********************************************************************************
  59:motor.c       **** *
  60:motor.c       **** * Summary:
  61:motor.c       **** *  Initiates the required module for motor control
  62:motor.c       **** *
  63:motor.c       **** * Parameters:  
  64:motor.c       **** *   None
  65:motor.c       **** *
  66:motor.c       **** * Return:
  67:motor.c       **** *   None
  68:motor.c       **** *
  69:motor.c       **** *******************************************************************************/
  70:motor.c       **** void Motor_Start()
  71:motor.c       **** {
  97              		.loc 1 71 0
  98              		.cfi_startproc
  99              		@ args = 0, pretend = 0, frame = 0
ARM GAS  C:\Users\AFDHAL~1\AppData\Local\Temp\ccMgNf8d.s 			page 4


 100              		@ frame_needed = 0, uses_anonymous_args = 0
 101 0000 10B5     		push	{r4, lr}
 102              		.cfi_def_cfa_offset 8
 103              		.cfi_offset 4, -8
 104              		.cfi_offset 14, -4
  72:motor.c       ****     Motor_Dir_Write(0); //default to forward
 105              		.loc 1 72 0
 106 0002 0020     		movs	r0, #0
 107 0004 FFF7FEFF 		bl	Motor_Dir_Write
 108              	.LVL7:
  73:motor.c       ****     PWM_WriteCompare(0); //0% duty cycle (maximum is 65535)
 109              		.loc 1 73 0
 110 0008 0020     		movs	r0, #0
 111 000a FFF7FEFF 		bl	PWM_WriteCompare
 112              	.LVL8:
  74:motor.c       ****     PWM_Start(); //pwm for winch motor 
 113              		.loc 1 74 0
 114 000e FFF7FEFF 		bl	PWM_Start
 115              	.LVL9:
  75:motor.c       **** }
 116              		.loc 1 75 0
 117              		@ sp needed
 118 0012 10BD     		pop	{r4, pc}
 119              		.cfi_endproc
 120              	.LFE35:
 121              		.size	Motor_Start, .-Motor_Start
 122              		.text
 123              	.Letext0:
 124              		.file 2 "Generated_Source\\PSoC4/Motor_Dir.h"
 125              		.file 3 "Generated_Source\\PSoC4/PWM.h"