ARM GAS  C:\Users\AFDHAL~1\AppData\Local\Temp\cck0kMy6.s 			page 1


   1              		.syntax unified
   2              		.cpu cortex-m0
   3              		.fpu softvfp
   4              		.eabi_attribute 20, 1
   5              		.eabi_attribute 21, 1
   6              		.eabi_attribute 23, 3
   7              		.eabi_attribute 24, 1
   8              		.eabi_attribute 25, 1
   9              		.eabi_attribute 26, 1
  10              		.eabi_attribute 30, 1
  11              		.eabi_attribute 34, 0
  12              		.eabi_attribute 18, 4
  13              		.thumb
  14              		.syntax unified
  15              		.file	"pid.c"
  16              		.text
  17              	.Ltext0:
  18              		.cfi_sections	.debug_frame
  19              		.section	.text.PID_Set_Gains,"ax",%progbits
  20              		.align	2
  21              		.global	PID_Set_Gains
  22              		.code	16
  23              		.thumb_func
  24              		.type	PID_Set_Gains, %function
  25              	PID_Set_Gains:
  26              	.LFB34:
  27              		.file 1 "pid.c"
   1:pid.c         **** /*******************************************************************************
   2:pid.c         **** * File Name: pid.c  
   3:pid.c         **** * Version 0.1
   4:pid.c         **** * 16th October 2017
   5:pid.c         **** *
   6:pid.c         **** *  Description:
   7:pid.c         **** *   APIs for PID controller.
   8:pid.c         **** *
   9:pid.c         **** *
  10:pid.c         **** *  Note:  
  11:pid.c         **** *   Future: 
  12:pid.c         **** *       -Implement decay variable for integral.
  13:pid.c         **** *       -Implement filter for PD.
  14:pid.c         **** ********************************************************************************
  15:pid.c         ****  * Copyright AfdhalAtiffTan, 2017
  16:pid.c         ****  * All Rights Reserved
  17:pid.c         ****  * UNPUBLISHED, LICENSED SOFTWARE.
  18:pid.c         **** *******************************************************************************/
  19:pid.c         **** 
  20:pid.c         **** #include "pid.h"
  21:pid.c         **** 
  22:pid.c         **** //gain for p, i, and d.
  23:pid.c         **** static float kp,ki,kd;
  24:pid.c         **** 
  25:pid.c         **** //setpoint is the desired target, input is the feedback (e.g. rotary encoder), and output is the fi
  26:pid.c         **** static float *setpoint, *input, *output;
  27:pid.c         **** 
  28:pid.c         **** //errors
  29:pid.c         **** static float error, input_previous, error_integrated, input_differentiated;
  30:pid.c         **** 
ARM GAS  C:\Users\AFDHAL~1\AppData\Local\Temp\cck0kMy6.s 			page 2


  31:pid.c         **** //limits
  32:pid.c         **** static float out_min, out_max;
  33:pid.c         **** 
  34:pid.c         **** 
  35:pid.c         **** /*******************************************************************************
  36:pid.c         **** * Function Name: PID_Set_Gains
  37:pid.c         **** ********************************************************************************
  38:pid.c         **** *
  39:pid.c         **** * Summary:
  40:pid.c         **** *  Set the gain for all components (Propotional, Integral, Derivative)
  41:pid.c         **** *
  42:pid.c         **** * Parameters:  
  43:pid.c         **** *   *_kp: Gain for proportional.
  44:pid.c         **** *   *_ki: Gain for integral.
  45:pid.c         **** *   *_kd: Gain for derivative.
  46:pid.c         **** *
  47:pid.c         **** * Return:
  48:pid.c         **** *   None
  49:pid.c         **** *
  50:pid.c         **** *******************************************************************************/
  51:pid.c         **** void PID_Set_Gains(float _kp, float _ki, float _kd)
  52:pid.c         **** {
  28              		.loc 1 52 0
  29              		.cfi_startproc
  30              		@ args = 0, pretend = 0, frame = 0
  31              		@ frame_needed = 0, uses_anonymous_args = 0
  32              		@ link register save eliminated.
  33              	.LVL0:
  53:pid.c         ****     kp = _kp;
  34              		.loc 1 53 0
  35 0000 024B     		ldr	r3, .L2
  36 0002 1860     		str	r0, [r3]
  54:pid.c         ****     ki = _ki;
  37              		.loc 1 54 0
  38 0004 5960     		str	r1, [r3, #4]
  55:pid.c         ****     kd = _kd;
  39              		.loc 1 55 0
  40 0006 9A60     		str	r2, [r3, #8]
  56:pid.c         **** }
  41              		.loc 1 56 0
  42              		@ sp needed
  43 0008 7047     		bx	lr
  44              	.L3:
  45 000a C046     		.align	2
  46              	.L2:
  47 000c 00000000 		.word	.LANCHOR0
  48              		.cfi_endproc
  49              	.LFE34:
  50              		.size	PID_Set_Gains, .-PID_Set_Gains
  51              		.section	.text.PID_Init,"ax",%progbits
  52              		.align	2
  53              		.global	PID_Init
  54              		.code	16
  55              		.thumb_func
  56              		.type	PID_Init, %function
  57              	PID_Init:
  58              	.LFB35:
ARM GAS  C:\Users\AFDHAL~1\AppData\Local\Temp\cck0kMy6.s 			page 3


  57:pid.c         **** 
  58:pid.c         **** 
  59:pid.c         **** /*******************************************************************************
  60:pid.c         **** * Function Name: PID_Init
  61:pid.c         **** ********************************************************************************
  62:pid.c         **** *
  63:pid.c         **** * Summary:
  64:pid.c         **** *  Initialised all cumulated variables to zero and initialise variables.
  65:pid.c         **** *
  66:pid.c         **** * Parameters:  
  67:pid.c         **** *   None.
  68:pid.c         **** *
  69:pid.c         **** * Return:
  70:pid.c         **** *   None
  71:pid.c         **** *
  72:pid.c         **** *******************************************************************************/
  73:pid.c         **** void PID_Init()
  74:pid.c         **** {
  59              		.loc 1 74 0
  60              		.cfi_startproc
  61              		@ args = 0, pretend = 0, frame = 0
  62              		@ frame_needed = 0, uses_anonymous_args = 0
  63              		@ link register save eliminated.
  75:pid.c         ****     kp = 1.0;
  64              		.loc 1 75 0
  65 0000 064B     		ldr	r3, .L5
  66 0002 FE22     		movs	r2, #254
  67 0004 9205     		lsls	r2, r2, #22
  68 0006 1A60     		str	r2, [r3]
  76:pid.c         ****     ki = 0.0;
  69              		.loc 1 76 0
  70 0008 0022     		movs	r2, #0
  71 000a 5A60     		str	r2, [r3, #4]
  77:pid.c         ****     kd = 0.0;
  72              		.loc 1 77 0
  73 000c 9A60     		str	r2, [r3, #8]
  78:pid.c         ****     
  79:pid.c         ****     input_previous = 0.0;
  74              		.loc 1 79 0
  75 000e DA60     		str	r2, [r3, #12]
  80:pid.c         ****     error_integrated = 0.0;
  76              		.loc 1 80 0
  77 0010 1A61     		str	r2, [r3, #16]
  81:pid.c         ****     
  82:pid.c         ****     out_min = -65535.0;
  78              		.loc 1 82 0
  79 0012 034A     		ldr	r2, .L5+4
  80 0014 5A61     		str	r2, [r3, #20]
  83:pid.c         ****     out_max = 65535.0;
  81              		.loc 1 83 0
  82 0016 034A     		ldr	r2, .L5+8
  83 0018 9A61     		str	r2, [r3, #24]
  84:pid.c         **** }
  84              		.loc 1 84 0
  85              		@ sp needed
  86 001a 7047     		bx	lr
  87              	.L6:
ARM GAS  C:\Users\AFDHAL~1\AppData\Local\Temp\cck0kMy6.s 			page 4


  88              		.align	2
  89              	.L5:
  90 001c 00000000 		.word	.LANCHOR0
  91 0020 00FF7FC7 		.word	-947912960
  92 0024 00FF7F47 		.word	1199570688
  93              		.cfi_endproc
  94              	.LFE35:
  95              		.size	PID_Init, .-PID_Init
  96              		.section	.text.PID_Set_Setpoint,"ax",%progbits
  97              		.align	2
  98              		.global	PID_Set_Setpoint
  99              		.code	16
 100              		.thumb_func
 101              		.type	PID_Set_Setpoint, %function
 102              	PID_Set_Setpoint:
 103              	.LFB36:
  85:pid.c         **** 
  86:pid.c         **** 
  87:pid.c         **** /*******************************************************************************
  88:pid.c         **** * Function Name: PID_Set_Setpoint
  89:pid.c         **** ********************************************************************************
  90:pid.c         **** *
  91:pid.c         **** * Summary:
  92:pid.c         **** *  Set the location of "setpoint" variable (e.g. desired position)
  93:pid.c         **** *
  94:pid.c         **** * Parameters:  
  95:pid.c         **** *   *_setpoint: The address of an "setpoint" variable (must use & operator)
  96:pid.c         **** *
  97:pid.c         **** * Return:
  98:pid.c         **** *   None
  99:pid.c         **** *
 100:pid.c         **** *******************************************************************************/
 101:pid.c         **** void PID_Set_Setpoint(float *_setpoint)
 102:pid.c         **** {
 104              		.loc 1 102 0
 105              		.cfi_startproc
 106              		@ args = 0, pretend = 0, frame = 0
 107              		@ frame_needed = 0, uses_anonymous_args = 0
 108              		@ link register save eliminated.
 109              	.LVL1:
 103:pid.c         ****     setpoint = _setpoint;
 110              		.loc 1 103 0
 111 0000 014B     		ldr	r3, .L8
 112 0002 D861     		str	r0, [r3, #28]
 104:pid.c         **** }
 113              		.loc 1 104 0
 114              		@ sp needed
 115 0004 7047     		bx	lr
 116              	.L9:
 117 0006 C046     		.align	2
 118              	.L8:
 119 0008 00000000 		.word	.LANCHOR0
 120              		.cfi_endproc
 121              	.LFE36:
 122              		.size	PID_Set_Setpoint, .-PID_Set_Setpoint
 123              		.section	.text.PID_Set_Input,"ax",%progbits
 124              		.align	2
ARM GAS  C:\Users\AFDHAL~1\AppData\Local\Temp\cck0kMy6.s 			page 5


 125              		.global	PID_Set_Input
 126              		.code	16
 127              		.thumb_func
 128              		.type	PID_Set_Input, %function
 129              	PID_Set_Input:
 130              	.LFB37:
 105:pid.c         **** 
 106:pid.c         **** 
 107:pid.c         **** /*******************************************************************************
 108:pid.c         **** * Function Name: PID_Set_Input
 109:pid.c         **** ********************************************************************************
 110:pid.c         **** *
 111:pid.c         **** * Summary:
 112:pid.c         **** *  Set the location of "feedback" variable (e.g. reading from rotary decoder)
 113:pid.c         **** *
 114:pid.c         **** * Parameters:  
 115:pid.c         **** *   *_input: The address of a "feedback" variable (must use & operator)
 116:pid.c         **** *
 117:pid.c         **** * Return:
 118:pid.c         **** *   None
 119:pid.c         **** *
 120:pid.c         **** *******************************************************************************/
 121:pid.c         **** void PID_Set_Input(float *_input)
 122:pid.c         **** {
 131              		.loc 1 122 0
 132              		.cfi_startproc
 133              		@ args = 0, pretend = 0, frame = 0
 134              		@ frame_needed = 0, uses_anonymous_args = 0
 135              		@ link register save eliminated.
 136              	.LVL2:
 123:pid.c         ****     input = _input;
 137              		.loc 1 123 0
 138 0000 014B     		ldr	r3, .L11
 139 0002 1862     		str	r0, [r3, #32]
 124:pid.c         **** }
 140              		.loc 1 124 0
 141              		@ sp needed
 142 0004 7047     		bx	lr
 143              	.L12:
 144 0006 C046     		.align	2
 145              	.L11:
 146 0008 00000000 		.word	.LANCHOR0
 147              		.cfi_endproc
 148              	.LFE37:
 149              		.size	PID_Set_Input, .-PID_Set_Input
 150              		.section	.text.PID_Set_Output,"ax",%progbits
 151              		.align	2
 152              		.global	PID_Set_Output
 153              		.code	16
 154              		.thumb_func
 155              		.type	PID_Set_Output, %function
 156              	PID_Set_Output:
 157              	.LFB38:
 125:pid.c         **** 
 126:pid.c         **** 
 127:pid.c         **** /*******************************************************************************
 128:pid.c         **** * Function Name: PID_Set_Output
ARM GAS  C:\Users\AFDHAL~1\AppData\Local\Temp\cck0kMy6.s 			page 6


 129:pid.c         **** ********************************************************************************
 130:pid.c         **** *
 131:pid.c         **** * Summary:
 132:pid.c         **** *  Set the location of "output" variable (e.g. output to pwm)
 133:pid.c         **** *
 134:pid.c         **** * Parameters:  
 135:pid.c         **** *   *_output: The address of an "output" variable (must use & operator)
 136:pid.c         **** *
 137:pid.c         **** * Return:
 138:pid.c         **** *   None
 139:pid.c         **** *
 140:pid.c         **** *******************************************************************************/
 141:pid.c         **** void PID_Set_Output(float *_output)
 142:pid.c         **** {
 158              		.loc 1 142 0
 159              		.cfi_startproc
 160              		@ args = 0, pretend = 0, frame = 0
 161              		@ frame_needed = 0, uses_anonymous_args = 0
 162              		@ link register save eliminated.
 163              	.LVL3:
 143:pid.c         ****     output = _output;
 164              		.loc 1 143 0
 165 0000 014B     		ldr	r3, .L14
 166 0002 5862     		str	r0, [r3, #36]
 144:pid.c         **** }
 167              		.loc 1 144 0
 168              		@ sp needed
 169 0004 7047     		bx	lr
 170              	.L15:
 171 0006 C046     		.align	2
 172              	.L14:
 173 0008 00000000 		.word	.LANCHOR0
 174              		.cfi_endproc
 175              	.LFE38:
 176              		.size	PID_Set_Output, .-PID_Set_Output
 177              		.section	.text.PID_Set_Output_Limits,"ax",%progbits
 178              		.align	2
 179              		.global	PID_Set_Output_Limits
 180              		.code	16
 181              		.thumb_func
 182              		.type	PID_Set_Output_Limits, %function
 183              	PID_Set_Output_Limits:
 184              	.LFB39:
 145:pid.c         **** 
 146:pid.c         **** 
 147:pid.c         **** /*******************************************************************************
 148:pid.c         **** * Function Name: PID_Set_Output_Limits
 149:pid.c         **** ********************************************************************************
 150:pid.c         **** *
 151:pid.c         **** * Summary:
 152:pid.c         **** *  Set the upper and lower limit for the output so that windup can be avoided.
 153:pid.c         **** *
 154:pid.c         **** * Parameters:  
 155:pid.c         **** *   _out_min: The lowest number that the output is allowed.
 156:pid.c         **** *   _out_max: The highest number that the output is allowed.
 157:pid.c         **** *
 158:pid.c         **** * Return:
ARM GAS  C:\Users\AFDHAL~1\AppData\Local\Temp\cck0kMy6.s 			page 7


 159:pid.c         **** *   None
 160:pid.c         **** *
 161:pid.c         **** *******************************************************************************/
 162:pid.c         **** void PID_Set_Output_Limits(float _out_min, float _out_max)
 163:pid.c         **** {
 185              		.loc 1 163 0
 186              		.cfi_startproc
 187              		@ args = 0, pretend = 0, frame = 0
 188              		@ frame_needed = 0, uses_anonymous_args = 0
 189              		@ link register save eliminated.
 190              	.LVL4:
 164:pid.c         ****     out_min = _out_min;
 191              		.loc 1 164 0
 192 0000 014B     		ldr	r3, .L17
 193 0002 5861     		str	r0, [r3, #20]
 165:pid.c         ****     out_max = _out_max;
 194              		.loc 1 165 0
 195 0004 9961     		str	r1, [r3, #24]
 166:pid.c         **** }
 196              		.loc 1 166 0
 197              		@ sp needed
 198 0006 7047     		bx	lr
 199              	.L18:
 200              		.align	2
 201              	.L17:
 202 0008 00000000 		.word	.LANCHOR0
 203              		.cfi_endproc
 204              	.LFE39:
 205              		.size	PID_Set_Output_Limits, .-PID_Set_Output_Limits
 206              		.global	__aeabi_fsub
 207              		.global	__aeabi_fmul
 208              		.global	__aeabi_fadd
 209              		.global	__aeabi_fcmpgt
 210              		.global	__aeabi_fcmplt
 211              		.section	.text.PID_Tick,"ax",%progbits
 212              		.align	2
 213              		.global	PID_Tick
 214              		.code	16
 215              		.thumb_func
 216              		.type	PID_Tick, %function
 217              	PID_Tick:
 218              	.LFB40:
 167:pid.c         **** 
 168:pid.c         **** 
 169:pid.c         **** /*******************************************************************************
 170:pid.c         **** * Function Name: PID_Tick
 171:pid.c         **** ********************************************************************************
 172:pid.c         **** *
 173:pid.c         **** * Summary:
 174:pid.c         **** *   This function should be called periodically (e.g. 100Hz) during runtime.
 175:pid.c         **** *   It handles PID maths and its output.
 176:pid.c         **** *
 177:pid.c         **** * Parameters:  
 178:pid.c         **** *   None
 179:pid.c         **** *
 180:pid.c         **** * Return:
 181:pid.c         **** *   None
ARM GAS  C:\Users\AFDHAL~1\AppData\Local\Temp\cck0kMy6.s 			page 8


 182:pid.c         **** *
 183:pid.c         **** *******************************************************************************/
 184:pid.c         **** CY_ISR(PID_Tick)
 185:pid.c         **** {
 219              		.loc 1 185 0
 220              		.cfi_startproc
 221              		@ args = 0, pretend = 0, frame = 16
 222              		@ frame_needed = 0, uses_anonymous_args = 0
 223 0000 F0B5     		push	{r4, r5, r6, r7, lr}
 224              		.cfi_def_cfa_offset 20
 225              		.cfi_offset 4, -20
 226              		.cfi_offset 5, -16
 227              		.cfi_offset 6, -12
 228              		.cfi_offset 7, -8
 229              		.cfi_offset 14, -4
 230 0002 85B0     		sub	sp, sp, #20
 231              		.cfi_def_cfa_offset 40
 186:pid.c         ****     static int cnt=0;
 187:pid.c         ****      
 188:pid.c         ****     //heartbeat on led
 189:pid.c         ****     if(cnt++>15)
 232              		.loc 1 189 0
 233 0004 334A     		ldr	r2, .L33
 234 0006 936A     		ldr	r3, [r2, #40]
 235 0008 591C     		adds	r1, r3, #1
 236 000a 9162     		str	r1, [r2, #40]
 237 000c 0F2B     		cmp	r3, #15
 238 000e 08DD     		ble	.L20
 190:pid.c         ****     {
 191:pid.c         ****         cnt=0;
 239              		.loc 1 191 0
 240 0010 0022     		movs	r2, #0
 241 0012 304B     		ldr	r3, .L33
 242 0014 9A62     		str	r2, [r3, #40]
 192:pid.c         ****         LED_Write(~LED_Read());
 243              		.loc 1 192 0
 244 0016 FFF7FEFF 		bl	LED_Read
 245              	.LVL5:
 246 001a C043     		mvns	r0, r0
 247 001c C0B2     		uxtb	r0, r0
 248 001e FFF7FEFF 		bl	LED_Write
 249              	.LVL6:
 250              	.L20:
 193:pid.c         ****     }        
 194:pid.c         ****      
 195:pid.c         ****     //<Proportional>
 196:pid.c         ****     error = *setpoint - *input;    
 251              		.loc 1 196 0
 252 0022 2C4C     		ldr	r4, .L33
 253 0024 E369     		ldr	r3, [r4, #28]
 254 0026 1868     		ldr	r0, [r3]
 255 0028 266A     		ldr	r6, [r4, #32]
 256 002a 3168     		ldr	r1, [r6]
 257 002c FFF7FEFF 		bl	__aeabi_fsub
 258              	.LVL7:
 259 0030 051C     		adds	r5, r0, #0
 197:pid.c         ****     *output = kp*error;
ARM GAS  C:\Users\AFDHAL~1\AppData\Local\Temp\cck0kMy6.s 			page 9


 260              		.loc 1 197 0
 261 0032 676A     		ldr	r7, [r4, #36]
 262 0034 2168     		ldr	r1, [r4]
 263 0036 FFF7FEFF 		bl	__aeabi_fmul
 264              	.LVL8:
 265 003a 0290     		str	r0, [sp, #8]
 266 003c 3860     		str	r0, [r7]
 198:pid.c         ****     //</Proportional>
 199:pid.c         ****     
 200:pid.c         ****     //<Integration>
 201:pid.c         ****     error_integrated += ki*error;
 267              		.loc 1 201 0
 268 003e 6168     		ldr	r1, [r4, #4]
 269 0040 281C     		adds	r0, r5, #0
 270 0042 FFF7FEFF 		bl	__aeabi_fmul
 271              	.LVL9:
 272 0046 2169     		ldr	r1, [r4, #16]
 273 0048 FFF7FEFF 		bl	__aeabi_fadd
 274              	.LVL10:
 275 004c 051C     		adds	r5, r0, #0
 202:pid.c         ****         
 203:pid.c         ****     //preventing integrator windup   
 204:pid.c         ****     error_integrated = error_integrated > out_max ? out_max : error_integrated;
 276              		.loc 1 204 0
 277 004e A369     		ldr	r3, [r4, #24]
 278 0050 1C1C     		adds	r4, r3, #0
 279 0052 0393     		str	r3, [sp, #12]
 280 0054 191C     		adds	r1, r3, #0
 281 0056 FFF7FEFF 		bl	__aeabi_fcmpgt
 282              	.LVL11:
 283 005a 0028     		cmp	r0, #0
 284 005c 00D0     		beq	.L21
 285 005e 251C     		adds	r5, r4, #0
 286              	.L21:
 287              		.loc 1 204 0 is_stmt 0 discriminator 4
 288 0060 1C4B     		ldr	r3, .L33
 205:pid.c         ****     error_integrated = error_integrated < out_min ? out_min : error_integrated;
 289              		.loc 1 205 0 is_stmt 1 discriminator 4
 290 0062 5B69     		ldr	r3, [r3, #20]
 291 0064 1C1C     		adds	r4, r3, #0
 292 0066 0193     		str	r3, [sp, #4]
 293 0068 191C     		adds	r1, r3, #0
 294 006a 281C     		adds	r0, r5, #0
 295 006c FFF7FEFF 		bl	__aeabi_fcmplt
 296              	.LVL12:
 297 0070 0028     		cmp	r0, #0
 298 0072 00D0     		beq	.L23
 299              		.loc 1 205 0 is_stmt 0
 300 0074 251C     		adds	r5, r4, #0
 301              	.L23:
 302              		.loc 1 205 0 discriminator 4
 303 0076 174C     		ldr	r4, .L33
 304 0078 2561     		str	r5, [r4, #16]
 206:pid.c         ****     
 207:pid.c         ****     *output += error_integrated;
 305              		.loc 1 207 0 is_stmt 1 discriminator 4
 306 007a 0299     		ldr	r1, [sp, #8]
ARM GAS  C:\Users\AFDHAL~1\AppData\Local\Temp\cck0kMy6.s 			page 10


 307 007c 281C     		adds	r0, r5, #0
 308 007e FFF7FEFF 		bl	__aeabi_fadd
 309              	.LVL13:
 310 0082 051C     		adds	r5, r0, #0
 311 0084 3860     		str	r0, [r7]
 208:pid.c         ****     //</Integration>
 209:pid.c         ****     
 210:pid.c         ****     //<Differentiation> (“Derivative on Measurement”)
 211:pid.c         ****     input_differentiated = *input - input_previous;    
 312              		.loc 1 211 0 discriminator 4
 313 0086 3668     		ldr	r6, [r6]
 314 0088 E168     		ldr	r1, [r4, #12]
 315 008a 301C     		adds	r0, r6, #0
 316 008c FFF7FEFF 		bl	__aeabi_fsub
 317              	.LVL14:
 212:pid.c         ****     input_previous = *input;
 318              		.loc 1 212 0 discriminator 4
 319 0090 E660     		str	r6, [r4, #12]
 213:pid.c         ****     
 214:pid.c         ****     *output -= kd * input_differentiated;
 320              		.loc 1 214 0 discriminator 4
 321 0092 A168     		ldr	r1, [r4, #8]
 322 0094 FFF7FEFF 		bl	__aeabi_fmul
 323              	.LVL15:
 324 0098 011C     		adds	r1, r0, #0
 325 009a 281C     		adds	r0, r5, #0
 326 009c FFF7FEFF 		bl	__aeabi_fsub
 327              	.LVL16:
 328 00a0 051C     		adds	r5, r0, #0
 329 00a2 3860     		str	r0, [r7]
 215:pid.c         ****     //</Differentiation>
 216:pid.c         ****     
 217:pid.c         ****     //output clamp
 218:pid.c         ****     *output = *output > out_max ? out_max : *output;
 330              		.loc 1 218 0 discriminator 4
 331 00a4 011C     		adds	r1, r0, #0
 332 00a6 039C     		ldr	r4, [sp, #12]
 333 00a8 201C     		adds	r0, r4, #0
 334 00aa FFF7FEFF 		bl	__aeabi_fcmplt
 335              	.LVL17:
 336 00ae 0028     		cmp	r0, #0
 337 00b0 00D0     		beq	.L25
 338              		.loc 1 218 0 is_stmt 0
 339 00b2 251C     		adds	r5, r4, #0
 340              	.L25:
 341              		.loc 1 218 0 discriminator 4
 342 00b4 3D60     		str	r5, [r7]
 219:pid.c         ****     *output = *output < out_min ? out_min : *output;
 343              		.loc 1 219 0 is_stmt 1 discriminator 4
 344 00b6 0199     		ldr	r1, [sp, #4]
 345 00b8 281C     		adds	r0, r5, #0
 346 00ba FFF7FEFF 		bl	__aeabi_fcmplt
 347              	.LVL18:
 348 00be 0028     		cmp	r0, #0
 349 00c0 00D0     		beq	.L27
 350              		.loc 1 219 0 is_stmt 0
 351 00c2 019D     		ldr	r5, [sp, #4]
ARM GAS  C:\Users\AFDHAL~1\AppData\Local\Temp\cck0kMy6.s 			page 11


 352              	.L27:
 353              		.loc 1 219 0 discriminator 4
 354 00c4 3D60     		str	r5, [r7]
 220:pid.c         ****             
 221:pid.c         ****     PID_Tick_Timer_ClearInterrupt(PID_Tick_Timer_INTR_MASK_TC);
 355              		.loc 1 221 0 is_stmt 1 discriminator 4
 356 00c6 0120     		movs	r0, #1
 357 00c8 FFF7FEFF 		bl	PID_Tick_Timer_ClearInterrupt
 358              	.LVL19:
 222:pid.c         ****     PID_ISR_ClearPending();
 359              		.loc 1 222 0 discriminator 4
 360 00cc FFF7FEFF 		bl	PID_ISR_ClearPending
 361              	.LVL20:
 223:pid.c         **** }
 362              		.loc 1 223 0 discriminator 4
 363 00d0 05B0     		add	sp, sp, #20
 364              		@ sp needed
 365 00d2 F0BD     		pop	{r4, r5, r6, r7, pc}
 366              	.L34:
 367              		.align	2
 368              	.L33:
 369 00d4 00000000 		.word	.LANCHOR0
 370              		.cfi_endproc
 371              	.LFE40:
 372              		.size	PID_Tick, .-PID_Tick
 373              		.bss
 374              		.align	2
 375              		.set	.LANCHOR0,. + 0
 376              		.type	kp, %object
 377              		.size	kp, 4
 378              	kp:
 379 0000 00000000 		.space	4
 380              		.type	ki, %object
 381              		.size	ki, 4
 382              	ki:
 383 0004 00000000 		.space	4
 384              		.type	kd, %object
 385              		.size	kd, 4
 386              	kd:
 387 0008 00000000 		.space	4
 388              		.type	input_previous, %object
 389              		.size	input_previous, 4
 390              	input_previous:
 391 000c 00000000 		.space	4
 392              		.type	error_integrated, %object
 393              		.size	error_integrated, 4
 394              	error_integrated:
 395 0010 00000000 		.space	4
 396              		.type	out_min, %object
 397              		.size	out_min, 4
 398              	out_min:
 399 0014 00000000 		.space	4
 400              		.type	out_max, %object
 401              		.size	out_max, 4
 402              	out_max:
 403 0018 00000000 		.space	4
 404              		.type	setpoint, %object
ARM GAS  C:\Users\AFDHAL~1\AppData\Local\Temp\cck0kMy6.s 			page 12


 405              		.size	setpoint, 4
 406              	setpoint:
 407 001c 00000000 		.space	4
 408              		.type	input, %object
 409              		.size	input, 4
 410              	input:
 411 0020 00000000 		.space	4
 412              		.type	output, %object
 413              		.size	output, 4
 414              	output:
 415 0024 00000000 		.space	4
 416              		.type	cnt.6070, %object
 417              		.size	cnt.6070, 4
 418              	cnt.6070:
 419 0028 00000000 		.space	4
 420              		.text
 421              	.Letext0:
 422              		.file 2 "Generated_Source\\PSoC4/LED.h"
 423              		.file 3 "Generated_Source\\PSoC4/PID_Tick_Timer.h"
 424              		.file 4 "Generated_Source\\PSoC4/PID_ISR.h"
 425              		.file 5 "Generated_Source\\PSoC4/cytypes.h"