ARM GAS  C:\Users\AFDHAL~1\AppData\Local\Temp\cc1PgMpc.s 			page 1


   1              		.syntax unified
   2              		.cpu cortex-m0
   3              		.fpu softvfp
   4              		.eabi_attribute 20, 1
   5              		.eabi_attribute 21, 1
   6              		.eabi_attribute 23, 3
   7              		.eabi_attribute 24, 1
   8              		.eabi_attribute 25, 1
   9              		.eabi_attribute 26, 1
  10              		.eabi_attribute 30, 1
  11              		.eabi_attribute 34, 0
  12              		.eabi_attribute 18, 4
  13              		.thumb
  14              		.syntax unified
  15              		.file	"USB_UART_UART.c"
  16              		.text
  17              	.Ltext0:
  18              		.cfi_sections	.debug_frame
  19              		.section	.text.USB_UART_UartInit,"ax",%progbits
  20              		.align	2
  21              		.global	USB_UART_UartInit
  22              		.code	16
  23              		.thumb_func
  24              		.type	USB_UART_UartInit, %function
  25              	USB_UART_UartInit:
  26              	.LFB1:
  27              		.file 1 "Generated_Source\\PSoC4\\USB_UART_UART.c"
   1:Generated_Source\PSoC4/USB_UART_UART.c **** /***************************************************************************//**
   2:Generated_Source\PSoC4/USB_UART_UART.c **** * \file USB_UART_UART.c
   3:Generated_Source\PSoC4/USB_UART_UART.c **** * \version 3.20
   4:Generated_Source\PSoC4/USB_UART_UART.c **** *
   5:Generated_Source\PSoC4/USB_UART_UART.c **** * \brief
   6:Generated_Source\PSoC4/USB_UART_UART.c **** *  This file provides the source code to the API for the SCB Component in
   7:Generated_Source\PSoC4/USB_UART_UART.c **** *  UART mode.
   8:Generated_Source\PSoC4/USB_UART_UART.c **** *
   9:Generated_Source\PSoC4/USB_UART_UART.c **** * Note:
  10:Generated_Source\PSoC4/USB_UART_UART.c **** *
  11:Generated_Source\PSoC4/USB_UART_UART.c **** *******************************************************************************
  12:Generated_Source\PSoC4/USB_UART_UART.c **** * \copyright
  13:Generated_Source\PSoC4/USB_UART_UART.c **** * Copyright 2013-2016, Cypress Semiconductor Corporation.  All rights reserved.
  14:Generated_Source\PSoC4/USB_UART_UART.c **** * You may use this file only in accordance with the license, terms, conditions,
  15:Generated_Source\PSoC4/USB_UART_UART.c **** * disclaimers, and limitations in the end user license agreement accompanying
  16:Generated_Source\PSoC4/USB_UART_UART.c **** * the software package with which this file was provided.
  17:Generated_Source\PSoC4/USB_UART_UART.c **** *******************************************************************************/
  18:Generated_Source\PSoC4/USB_UART_UART.c **** 
  19:Generated_Source\PSoC4/USB_UART_UART.c **** #include "USB_UART_PVT.h"
  20:Generated_Source\PSoC4/USB_UART_UART.c **** #include "USB_UART_SPI_UART_PVT.h"
  21:Generated_Source\PSoC4/USB_UART_UART.c **** #include "cyapicallbacks.h"
  22:Generated_Source\PSoC4/USB_UART_UART.c **** 
  23:Generated_Source\PSoC4/USB_UART_UART.c **** #if (USB_UART_UART_WAKE_ENABLE_CONST && USB_UART_UART_RX_WAKEUP_IRQ)
  24:Generated_Source\PSoC4/USB_UART_UART.c ****     /**
  25:Generated_Source\PSoC4/USB_UART_UART.c ****     * \addtogroup group_globals
  26:Generated_Source\PSoC4/USB_UART_UART.c ****     * \{
  27:Generated_Source\PSoC4/USB_UART_UART.c ****     */
  28:Generated_Source\PSoC4/USB_UART_UART.c ****     /** This global variable determines whether to enable Skip Start
  29:Generated_Source\PSoC4/USB_UART_UART.c ****     * functionality when USB_UART_Sleep() function is called:
  30:Generated_Source\PSoC4/USB_UART_UART.c ****     * 0 – disable, other values – enable. Default value is 1.
ARM GAS  C:\Users\AFDHAL~1\AppData\Local\Temp\cc1PgMpc.s 			page 2


  31:Generated_Source\PSoC4/USB_UART_UART.c ****     * It is only available when Enable wakeup from Deep Sleep Mode is enabled.
  32:Generated_Source\PSoC4/USB_UART_UART.c ****     */
  33:Generated_Source\PSoC4/USB_UART_UART.c ****     uint8 USB_UART_skipStart = 1u;
  34:Generated_Source\PSoC4/USB_UART_UART.c ****     /** \} globals */
  35:Generated_Source\PSoC4/USB_UART_UART.c **** #endif /* (USB_UART_UART_WAKE_ENABLE_CONST && USB_UART_UART_RX_WAKEUP_IRQ) */
  36:Generated_Source\PSoC4/USB_UART_UART.c **** 
  37:Generated_Source\PSoC4/USB_UART_UART.c **** #if(USB_UART_SCB_MODE_UNCONFIG_CONST_CFG)
  38:Generated_Source\PSoC4/USB_UART_UART.c **** 
  39:Generated_Source\PSoC4/USB_UART_UART.c ****     /***************************************
  40:Generated_Source\PSoC4/USB_UART_UART.c ****     *  Configuration Structure Initialization
  41:Generated_Source\PSoC4/USB_UART_UART.c ****     ***************************************/
  42:Generated_Source\PSoC4/USB_UART_UART.c **** 
  43:Generated_Source\PSoC4/USB_UART_UART.c ****     const USB_UART_UART_INIT_STRUCT USB_UART_configUart =
  44:Generated_Source\PSoC4/USB_UART_UART.c ****     {
  45:Generated_Source\PSoC4/USB_UART_UART.c ****         USB_UART_UART_SUB_MODE,
  46:Generated_Source\PSoC4/USB_UART_UART.c ****         USB_UART_UART_DIRECTION,
  47:Generated_Source\PSoC4/USB_UART_UART.c ****         USB_UART_UART_DATA_BITS_NUM,
  48:Generated_Source\PSoC4/USB_UART_UART.c ****         USB_UART_UART_PARITY_TYPE,
  49:Generated_Source\PSoC4/USB_UART_UART.c ****         USB_UART_UART_STOP_BITS_NUM,
  50:Generated_Source\PSoC4/USB_UART_UART.c ****         USB_UART_UART_OVS_FACTOR,
  51:Generated_Source\PSoC4/USB_UART_UART.c ****         USB_UART_UART_IRDA_LOW_POWER,
  52:Generated_Source\PSoC4/USB_UART_UART.c ****         USB_UART_UART_MEDIAN_FILTER_ENABLE,
  53:Generated_Source\PSoC4/USB_UART_UART.c ****         USB_UART_UART_RETRY_ON_NACK,
  54:Generated_Source\PSoC4/USB_UART_UART.c ****         USB_UART_UART_IRDA_POLARITY,
  55:Generated_Source\PSoC4/USB_UART_UART.c ****         USB_UART_UART_DROP_ON_PARITY_ERR,
  56:Generated_Source\PSoC4/USB_UART_UART.c ****         USB_UART_UART_DROP_ON_FRAME_ERR,
  57:Generated_Source\PSoC4/USB_UART_UART.c ****         USB_UART_UART_WAKE_ENABLE,
  58:Generated_Source\PSoC4/USB_UART_UART.c ****         0u,
  59:Generated_Source\PSoC4/USB_UART_UART.c ****         NULL,
  60:Generated_Source\PSoC4/USB_UART_UART.c ****         0u,
  61:Generated_Source\PSoC4/USB_UART_UART.c ****         NULL,
  62:Generated_Source\PSoC4/USB_UART_UART.c ****         USB_UART_UART_MP_MODE_ENABLE,
  63:Generated_Source\PSoC4/USB_UART_UART.c ****         USB_UART_UART_MP_ACCEPT_ADDRESS,
  64:Generated_Source\PSoC4/USB_UART_UART.c ****         USB_UART_UART_MP_RX_ADDRESS,
  65:Generated_Source\PSoC4/USB_UART_UART.c ****         USB_UART_UART_MP_RX_ADDRESS_MASK,
  66:Generated_Source\PSoC4/USB_UART_UART.c ****         (uint32) USB_UART_SCB_IRQ_INTERNAL,
  67:Generated_Source\PSoC4/USB_UART_UART.c ****         USB_UART_UART_INTR_RX_MASK,
  68:Generated_Source\PSoC4/USB_UART_UART.c ****         USB_UART_UART_RX_TRIGGER_LEVEL,
  69:Generated_Source\PSoC4/USB_UART_UART.c ****         USB_UART_UART_INTR_TX_MASK,
  70:Generated_Source\PSoC4/USB_UART_UART.c ****         USB_UART_UART_TX_TRIGGER_LEVEL,
  71:Generated_Source\PSoC4/USB_UART_UART.c ****         (uint8) USB_UART_UART_BYTE_MODE_ENABLE,
  72:Generated_Source\PSoC4/USB_UART_UART.c ****         (uint8) USB_UART_UART_CTS_ENABLE,
  73:Generated_Source\PSoC4/USB_UART_UART.c ****         (uint8) USB_UART_UART_CTS_POLARITY,
  74:Generated_Source\PSoC4/USB_UART_UART.c ****         (uint8) USB_UART_UART_RTS_POLARITY,
  75:Generated_Source\PSoC4/USB_UART_UART.c ****         (uint8) USB_UART_UART_RTS_FIFO_LEVEL
  76:Generated_Source\PSoC4/USB_UART_UART.c ****     };
  77:Generated_Source\PSoC4/USB_UART_UART.c **** 
  78:Generated_Source\PSoC4/USB_UART_UART.c **** 
  79:Generated_Source\PSoC4/USB_UART_UART.c ****     /*******************************************************************************
  80:Generated_Source\PSoC4/USB_UART_UART.c ****     * Function Name: USB_UART_UartInit
  81:Generated_Source\PSoC4/USB_UART_UART.c ****     ****************************************************************************//**
  82:Generated_Source\PSoC4/USB_UART_UART.c ****     *
  83:Generated_Source\PSoC4/USB_UART_UART.c ****     *  Configures the USB_UART for UART operation.
  84:Generated_Source\PSoC4/USB_UART_UART.c ****     *
  85:Generated_Source\PSoC4/USB_UART_UART.c ****     *  This function is intended specifically to be used when the USB_UART
  86:Generated_Source\PSoC4/USB_UART_UART.c ****     *  configuration is set to “Unconfigured USB_UART” in the customizer.
  87:Generated_Source\PSoC4/USB_UART_UART.c ****     *  After initializing the USB_UART in UART mode using this function,
ARM GAS  C:\Users\AFDHAL~1\AppData\Local\Temp\cc1PgMpc.s 			page 3


  88:Generated_Source\PSoC4/USB_UART_UART.c ****     *  the component can be enabled using the USB_UART_Start() or
  89:Generated_Source\PSoC4/USB_UART_UART.c ****     * USB_UART_Enable() function.
  90:Generated_Source\PSoC4/USB_UART_UART.c ****     *  This function uses a pointer to a structure that provides the configuration
  91:Generated_Source\PSoC4/USB_UART_UART.c ****     *  settings. This structure contains the same information that would otherwise
  92:Generated_Source\PSoC4/USB_UART_UART.c ****     *  be provided by the customizer settings.
  93:Generated_Source\PSoC4/USB_UART_UART.c ****     *
  94:Generated_Source\PSoC4/USB_UART_UART.c ****     *  \param config: pointer to a structure that contains the following list of
  95:Generated_Source\PSoC4/USB_UART_UART.c ****     *   fields. These fields match the selections available in the customizer.
  96:Generated_Source\PSoC4/USB_UART_UART.c ****     *   Refer to the customizer for further description of the settings.
  97:Generated_Source\PSoC4/USB_UART_UART.c ****     *
  98:Generated_Source\PSoC4/USB_UART_UART.c ****     *******************************************************************************/
  99:Generated_Source\PSoC4/USB_UART_UART.c ****     void USB_UART_UartInit(const USB_UART_UART_INIT_STRUCT *config)
 100:Generated_Source\PSoC4/USB_UART_UART.c ****     {
 101:Generated_Source\PSoC4/USB_UART_UART.c ****         uint32 pinsConfig;
 102:Generated_Source\PSoC4/USB_UART_UART.c **** 
 103:Generated_Source\PSoC4/USB_UART_UART.c ****         if (NULL == config)
 104:Generated_Source\PSoC4/USB_UART_UART.c ****         {
 105:Generated_Source\PSoC4/USB_UART_UART.c ****             CYASSERT(0u != 0u); /* Halt execution due to bad function parameter */
 106:Generated_Source\PSoC4/USB_UART_UART.c ****         }
 107:Generated_Source\PSoC4/USB_UART_UART.c ****         else
 108:Generated_Source\PSoC4/USB_UART_UART.c ****         {
 109:Generated_Source\PSoC4/USB_UART_UART.c ****             /* Get direction to configure UART pins: TX, RX or TX+RX */
 110:Generated_Source\PSoC4/USB_UART_UART.c ****             pinsConfig  = config->direction;
 111:Generated_Source\PSoC4/USB_UART_UART.c **** 
 112:Generated_Source\PSoC4/USB_UART_UART.c ****         #if !(USB_UART_CY_SCBIP_V0 || USB_UART_CY_SCBIP_V1)
 113:Generated_Source\PSoC4/USB_UART_UART.c ****             /* Add RTS and CTS pins to configure */
 114:Generated_Source\PSoC4/USB_UART_UART.c ****             pinsConfig |= (0u != config->rtsRxFifoLevel) ? (USB_UART_UART_RTS_PIN_ENABLE) : (0u);
 115:Generated_Source\PSoC4/USB_UART_UART.c ****             pinsConfig |= (0u != config->enableCts)      ? (USB_UART_UART_CTS_PIN_ENABLE) : (0u);
 116:Generated_Source\PSoC4/USB_UART_UART.c ****         #endif /* !(USB_UART_CY_SCBIP_V0 || USB_UART_CY_SCBIP_V1) */
 117:Generated_Source\PSoC4/USB_UART_UART.c **** 
 118:Generated_Source\PSoC4/USB_UART_UART.c ****             /* Configure pins */
 119:Generated_Source\PSoC4/USB_UART_UART.c ****             USB_UART_SetPins(USB_UART_SCB_MODE_UART, config->mode, pinsConfig);
 120:Generated_Source\PSoC4/USB_UART_UART.c **** 
 121:Generated_Source\PSoC4/USB_UART_UART.c ****             /* Store internal configuration */
 122:Generated_Source\PSoC4/USB_UART_UART.c ****             USB_UART_scbMode       = (uint8) USB_UART_SCB_MODE_UART;
 123:Generated_Source\PSoC4/USB_UART_UART.c ****             USB_UART_scbEnableWake = (uint8) config->enableWake;
 124:Generated_Source\PSoC4/USB_UART_UART.c ****             USB_UART_scbEnableIntr = (uint8) config->enableInterrupt;
 125:Generated_Source\PSoC4/USB_UART_UART.c **** 
 126:Generated_Source\PSoC4/USB_UART_UART.c ****             /* Set RX direction internal variables */
 127:Generated_Source\PSoC4/USB_UART_UART.c ****             USB_UART_rxBuffer      =         config->rxBuffer;
 128:Generated_Source\PSoC4/USB_UART_UART.c ****             USB_UART_rxDataBits    = (uint8) config->dataBits;
 129:Generated_Source\PSoC4/USB_UART_UART.c ****             USB_UART_rxBufferSize  = (uint8) config->rxBufferSize;
 130:Generated_Source\PSoC4/USB_UART_UART.c **** 
 131:Generated_Source\PSoC4/USB_UART_UART.c ****             /* Set TX direction internal variables */
 132:Generated_Source\PSoC4/USB_UART_UART.c ****             USB_UART_txBuffer      =         config->txBuffer;
 133:Generated_Source\PSoC4/USB_UART_UART.c ****             USB_UART_txDataBits    = (uint8) config->dataBits;
 134:Generated_Source\PSoC4/USB_UART_UART.c ****             USB_UART_txBufferSize  = (uint8) config->txBufferSize;
 135:Generated_Source\PSoC4/USB_UART_UART.c **** 
 136:Generated_Source\PSoC4/USB_UART_UART.c ****             /* Configure UART interface */
 137:Generated_Source\PSoC4/USB_UART_UART.c ****             if(USB_UART_UART_MODE_IRDA == config->mode)
 138:Generated_Source\PSoC4/USB_UART_UART.c ****             {
 139:Generated_Source\PSoC4/USB_UART_UART.c ****                 /* OVS settings: IrDA */
 140:Generated_Source\PSoC4/USB_UART_UART.c ****                 USB_UART_CTRL_REG  = ((0u != config->enableIrdaLowPower) ?
 141:Generated_Source\PSoC4/USB_UART_UART.c ****                                                 (USB_UART_UART_GET_CTRL_OVS_IRDA_LP(config->oversam
 142:Generated_Source\PSoC4/USB_UART_UART.c ****                                                 (USB_UART_CTRL_OVS_IRDA_OVS16));
 143:Generated_Source\PSoC4/USB_UART_UART.c ****             }
 144:Generated_Source\PSoC4/USB_UART_UART.c ****             else
ARM GAS  C:\Users\AFDHAL~1\AppData\Local\Temp\cc1PgMpc.s 			page 4


 145:Generated_Source\PSoC4/USB_UART_UART.c ****             {
 146:Generated_Source\PSoC4/USB_UART_UART.c ****                 /* OVS settings: UART and SmartCard */
 147:Generated_Source\PSoC4/USB_UART_UART.c ****                 USB_UART_CTRL_REG  = USB_UART_GET_CTRL_OVS(config->oversample);
 148:Generated_Source\PSoC4/USB_UART_UART.c ****             }
 149:Generated_Source\PSoC4/USB_UART_UART.c **** 
 150:Generated_Source\PSoC4/USB_UART_UART.c ****             USB_UART_CTRL_REG     |= USB_UART_GET_CTRL_BYTE_MODE  (config->enableByteMode)      |
 151:Generated_Source\PSoC4/USB_UART_UART.c ****                                              USB_UART_GET_CTRL_ADDR_ACCEPT(config->multiprocAcceptA
 152:Generated_Source\PSoC4/USB_UART_UART.c ****                                              USB_UART_CTRL_UART;
 153:Generated_Source\PSoC4/USB_UART_UART.c **** 
 154:Generated_Source\PSoC4/USB_UART_UART.c ****             /* Configure sub-mode: UART, SmartCard or IrDA */
 155:Generated_Source\PSoC4/USB_UART_UART.c ****             USB_UART_UART_CTRL_REG = USB_UART_GET_UART_CTRL_MODE(config->mode);
 156:Generated_Source\PSoC4/USB_UART_UART.c **** 
 157:Generated_Source\PSoC4/USB_UART_UART.c ****             /* Configure RX direction */
 158:Generated_Source\PSoC4/USB_UART_UART.c ****             USB_UART_UART_RX_CTRL_REG = USB_UART_GET_UART_RX_CTRL_MODE(config->stopBits)           
 159:Generated_Source\PSoC4/USB_UART_UART.c ****                                         USB_UART_GET_UART_RX_CTRL_POLARITY(config->enableInvertedRx
 160:Generated_Source\PSoC4/USB_UART_UART.c ****                                         USB_UART_GET_UART_RX_CTRL_MP_MODE(config->enableMultiproc) 
 161:Generated_Source\PSoC4/USB_UART_UART.c ****                                         USB_UART_GET_UART_RX_CTRL_DROP_ON_PARITY_ERR(config->dropOn
 162:Generated_Source\PSoC4/USB_UART_UART.c ****                                         USB_UART_GET_UART_RX_CTRL_DROP_ON_FRAME_ERR(config->dropOnF
 163:Generated_Source\PSoC4/USB_UART_UART.c **** 
 164:Generated_Source\PSoC4/USB_UART_UART.c ****             if(USB_UART_UART_PARITY_NONE != config->parity)
 165:Generated_Source\PSoC4/USB_UART_UART.c ****             {
 166:Generated_Source\PSoC4/USB_UART_UART.c ****                USB_UART_UART_RX_CTRL_REG |= USB_UART_GET_UART_RX_CTRL_PARITY(config->parity) |
 167:Generated_Source\PSoC4/USB_UART_UART.c ****                                                     USB_UART_UART_RX_CTRL_PARITY_ENABLED;
 168:Generated_Source\PSoC4/USB_UART_UART.c ****             }
 169:Generated_Source\PSoC4/USB_UART_UART.c **** 
 170:Generated_Source\PSoC4/USB_UART_UART.c ****             USB_UART_RX_CTRL_REG      = USB_UART_GET_RX_CTRL_DATA_WIDTH(config->dataBits)       |
 171:Generated_Source\PSoC4/USB_UART_UART.c ****                                                 USB_UART_GET_RX_CTRL_MEDIAN(config->enableMedianFil
 172:Generated_Source\PSoC4/USB_UART_UART.c ****                                                 USB_UART_GET_UART_RX_CTRL_ENABLED(config->direction
 173:Generated_Source\PSoC4/USB_UART_UART.c **** 
 174:Generated_Source\PSoC4/USB_UART_UART.c ****             USB_UART_RX_FIFO_CTRL_REG = USB_UART_GET_RX_FIFO_CTRL_TRIGGER_LEVEL(config->rxTriggerLe
 175:Generated_Source\PSoC4/USB_UART_UART.c **** 
 176:Generated_Source\PSoC4/USB_UART_UART.c ****             /* Configure MP address */
 177:Generated_Source\PSoC4/USB_UART_UART.c ****             USB_UART_RX_MATCH_REG     = USB_UART_GET_RX_MATCH_ADDR(config->multiprocAddr) |
 178:Generated_Source\PSoC4/USB_UART_UART.c ****                                                 USB_UART_GET_RX_MATCH_MASK(config->multiprocAddrMas
 179:Generated_Source\PSoC4/USB_UART_UART.c **** 
 180:Generated_Source\PSoC4/USB_UART_UART.c ****             /* Configure RX direction */
 181:Generated_Source\PSoC4/USB_UART_UART.c ****             USB_UART_UART_TX_CTRL_REG = USB_UART_GET_UART_TX_CTRL_MODE(config->stopBits) |
 182:Generated_Source\PSoC4/USB_UART_UART.c ****                                                 USB_UART_GET_UART_TX_CTRL_RETRY_NACK(config->enable
 183:Generated_Source\PSoC4/USB_UART_UART.c **** 
 184:Generated_Source\PSoC4/USB_UART_UART.c ****             if(USB_UART_UART_PARITY_NONE != config->parity)
 185:Generated_Source\PSoC4/USB_UART_UART.c ****             {
 186:Generated_Source\PSoC4/USB_UART_UART.c ****                USB_UART_UART_TX_CTRL_REG |= USB_UART_GET_UART_TX_CTRL_PARITY(config->parity) |
 187:Generated_Source\PSoC4/USB_UART_UART.c ****                                                     USB_UART_UART_TX_CTRL_PARITY_ENABLED;
 188:Generated_Source\PSoC4/USB_UART_UART.c ****             }
 189:Generated_Source\PSoC4/USB_UART_UART.c **** 
 190:Generated_Source\PSoC4/USB_UART_UART.c ****             USB_UART_TX_CTRL_REG      = USB_UART_GET_TX_CTRL_DATA_WIDTH(config->dataBits)    |
 191:Generated_Source\PSoC4/USB_UART_UART.c ****                                                 USB_UART_GET_UART_TX_CTRL_ENABLED(config->direction
 192:Generated_Source\PSoC4/USB_UART_UART.c **** 
 193:Generated_Source\PSoC4/USB_UART_UART.c ****             USB_UART_TX_FIFO_CTRL_REG = USB_UART_GET_TX_FIFO_CTRL_TRIGGER_LEVEL(config->txTriggerLe
 194:Generated_Source\PSoC4/USB_UART_UART.c **** 
 195:Generated_Source\PSoC4/USB_UART_UART.c ****         #if !(USB_UART_CY_SCBIP_V0 || USB_UART_CY_SCBIP_V1)
 196:Generated_Source\PSoC4/USB_UART_UART.c ****             USB_UART_UART_FLOW_CTRL_REG = USB_UART_GET_UART_FLOW_CTRL_CTS_ENABLE(config->enableCts)
 197:Generated_Source\PSoC4/USB_UART_UART.c ****                                             USB_UART_GET_UART_FLOW_CTRL_CTS_POLARITY (config->ctsPo
 198:Generated_Source\PSoC4/USB_UART_UART.c ****                                             USB_UART_GET_UART_FLOW_CTRL_RTS_POLARITY (config->rtsPo
 199:Generated_Source\PSoC4/USB_UART_UART.c ****                                             USB_UART_GET_UART_FLOW_CTRL_TRIGGER_LEVEL(config->rtsRx
 200:Generated_Source\PSoC4/USB_UART_UART.c ****         #endif /* !(USB_UART_CY_SCBIP_V0 || USB_UART_CY_SCBIP_V1) */
 201:Generated_Source\PSoC4/USB_UART_UART.c **** 
ARM GAS  C:\Users\AFDHAL~1\AppData\Local\Temp\cc1PgMpc.s 			page 5


 202:Generated_Source\PSoC4/USB_UART_UART.c ****             /* Configure interrupt with UART handler but do not enable it */
 203:Generated_Source\PSoC4/USB_UART_UART.c ****             CyIntDisable    (USB_UART_ISR_NUMBER);
 204:Generated_Source\PSoC4/USB_UART_UART.c ****             CyIntSetPriority(USB_UART_ISR_NUMBER, USB_UART_ISR_PRIORITY);
 205:Generated_Source\PSoC4/USB_UART_UART.c ****             (void) CyIntSetVector(USB_UART_ISR_NUMBER, &USB_UART_SPI_UART_ISR);
 206:Generated_Source\PSoC4/USB_UART_UART.c **** 
 207:Generated_Source\PSoC4/USB_UART_UART.c ****             /* Configure WAKE interrupt */
 208:Generated_Source\PSoC4/USB_UART_UART.c ****         #if(USB_UART_UART_RX_WAKEUP_IRQ)
 209:Generated_Source\PSoC4/USB_UART_UART.c ****             CyIntDisable    (USB_UART_RX_WAKE_ISR_NUMBER);
 210:Generated_Source\PSoC4/USB_UART_UART.c ****             CyIntSetPriority(USB_UART_RX_WAKE_ISR_NUMBER, USB_UART_RX_WAKE_ISR_PRIORITY);
 211:Generated_Source\PSoC4/USB_UART_UART.c ****             (void) CyIntSetVector(USB_UART_RX_WAKE_ISR_NUMBER, &USB_UART_UART_WAKEUP_ISR);
 212:Generated_Source\PSoC4/USB_UART_UART.c ****         #endif /* (USB_UART_UART_RX_WAKEUP_IRQ) */
 213:Generated_Source\PSoC4/USB_UART_UART.c **** 
 214:Generated_Source\PSoC4/USB_UART_UART.c ****             /* Configure interrupt sources */
 215:Generated_Source\PSoC4/USB_UART_UART.c ****             USB_UART_INTR_I2C_EC_MASK_REG = USB_UART_NO_INTR_SOURCES;
 216:Generated_Source\PSoC4/USB_UART_UART.c ****             USB_UART_INTR_SPI_EC_MASK_REG = USB_UART_NO_INTR_SOURCES;
 217:Generated_Source\PSoC4/USB_UART_UART.c ****             USB_UART_INTR_SLAVE_MASK_REG  = USB_UART_NO_INTR_SOURCES;
 218:Generated_Source\PSoC4/USB_UART_UART.c ****             USB_UART_INTR_MASTER_MASK_REG = USB_UART_NO_INTR_SOURCES;
 219:Generated_Source\PSoC4/USB_UART_UART.c ****             USB_UART_INTR_RX_MASK_REG     = config->rxInterruptMask;
 220:Generated_Source\PSoC4/USB_UART_UART.c ****             USB_UART_INTR_TX_MASK_REG     = config->txInterruptMask;
 221:Generated_Source\PSoC4/USB_UART_UART.c ****         
 222:Generated_Source\PSoC4/USB_UART_UART.c ****             /* Configure TX interrupt sources to restore. */
 223:Generated_Source\PSoC4/USB_UART_UART.c ****             USB_UART_IntrTxMask = LO16(USB_UART_INTR_TX_MASK_REG);
 224:Generated_Source\PSoC4/USB_UART_UART.c **** 
 225:Generated_Source\PSoC4/USB_UART_UART.c ****             /* Clear RX buffer indexes */
 226:Generated_Source\PSoC4/USB_UART_UART.c ****             USB_UART_rxBufferHead     = 0u;
 227:Generated_Source\PSoC4/USB_UART_UART.c ****             USB_UART_rxBufferTail     = 0u;
 228:Generated_Source\PSoC4/USB_UART_UART.c ****             USB_UART_rxBufferOverflow = 0u;
 229:Generated_Source\PSoC4/USB_UART_UART.c **** 
 230:Generated_Source\PSoC4/USB_UART_UART.c ****             /* Clear TX buffer indexes */
 231:Generated_Source\PSoC4/USB_UART_UART.c ****             USB_UART_txBufferHead = 0u;
 232:Generated_Source\PSoC4/USB_UART_UART.c ****             USB_UART_txBufferTail = 0u;
 233:Generated_Source\PSoC4/USB_UART_UART.c ****         }
 234:Generated_Source\PSoC4/USB_UART_UART.c ****     }
 235:Generated_Source\PSoC4/USB_UART_UART.c **** 
 236:Generated_Source\PSoC4/USB_UART_UART.c **** #else
 237:Generated_Source\PSoC4/USB_UART_UART.c **** 
 238:Generated_Source\PSoC4/USB_UART_UART.c ****     /*******************************************************************************
 239:Generated_Source\PSoC4/USB_UART_UART.c ****     * Function Name: USB_UART_UartInit
 240:Generated_Source\PSoC4/USB_UART_UART.c ****     ****************************************************************************//**
 241:Generated_Source\PSoC4/USB_UART_UART.c ****     *
 242:Generated_Source\PSoC4/USB_UART_UART.c ****     *  Configures the SCB for the UART operation.
 243:Generated_Source\PSoC4/USB_UART_UART.c ****     *
 244:Generated_Source\PSoC4/USB_UART_UART.c ****     *******************************************************************************/
 245:Generated_Source\PSoC4/USB_UART_UART.c ****     void USB_UART_UartInit(void)
 246:Generated_Source\PSoC4/USB_UART_UART.c ****     {
  28              		.loc 1 246 0
  29              		.cfi_startproc
  30              		@ args = 0, pretend = 0, frame = 0
  31              		@ frame_needed = 0, uses_anonymous_args = 0
  32 0000 70B5     		push	{r4, r5, r6, lr}
  33              		.cfi_def_cfa_offset 16
  34              		.cfi_offset 4, -16
  35              		.cfi_offset 5, -12
  36              		.cfi_offset 6, -8
  37              		.cfi_offset 14, -4
 247:Generated_Source\PSoC4/USB_UART_UART.c ****         /* Configure UART interface */
 248:Generated_Source\PSoC4/USB_UART_UART.c ****         USB_UART_CTRL_REG = USB_UART_UART_DEFAULT_CTRL;
ARM GAS  C:\Users\AFDHAL~1\AppData\Local\Temp\cc1PgMpc.s 			page 6


  38              		.loc 1 248 0
  39 0002 204A     		ldr	r2, .L2
  40 0004 204B     		ldr	r3, .L2+4
  41 0006 1A60     		str	r2, [r3]
 249:Generated_Source\PSoC4/USB_UART_UART.c **** 
 250:Generated_Source\PSoC4/USB_UART_UART.c ****         /* Configure sub-mode: UART, SmartCard or IrDA */
 251:Generated_Source\PSoC4/USB_UART_UART.c ****         USB_UART_UART_CTRL_REG = USB_UART_UART_DEFAULT_UART_CTRL;
  42              		.loc 1 251 0
  43 0008 0024     		movs	r4, #0
  44 000a 204B     		ldr	r3, .L2+8
  45 000c 1C60     		str	r4, [r3]
 252:Generated_Source\PSoC4/USB_UART_UART.c **** 
 253:Generated_Source\PSoC4/USB_UART_UART.c ****         /* Configure RX direction */
 254:Generated_Source\PSoC4/USB_UART_UART.c ****         USB_UART_UART_RX_CTRL_REG = USB_UART_UART_DEFAULT_UART_RX_CTRL;
  46              		.loc 1 254 0
  47 000e 0123     		movs	r3, #1
  48 0010 1F4A     		ldr	r2, .L2+12
  49 0012 1360     		str	r3, [r2]
 255:Generated_Source\PSoC4/USB_UART_UART.c ****         USB_UART_RX_CTRL_REG      = USB_UART_UART_DEFAULT_RX_CTRL;
  50              		.loc 1 255 0
  51 0014 1F49     		ldr	r1, .L2+16
  52 0016 204A     		ldr	r2, .L2+20
  53 0018 1160     		str	r1, [r2]
 256:Generated_Source\PSoC4/USB_UART_UART.c ****         USB_UART_RX_FIFO_CTRL_REG = USB_UART_UART_DEFAULT_RX_FIFO_CTRL;
  54              		.loc 1 256 0
  55 001a 0721     		movs	r1, #7
  56 001c 1F4A     		ldr	r2, .L2+24
  57 001e 1160     		str	r1, [r2]
 257:Generated_Source\PSoC4/USB_UART_UART.c ****         USB_UART_RX_MATCH_REG     = USB_UART_UART_DEFAULT_RX_MATCH_REG;
  58              		.loc 1 257 0
  59 0020 1F4A     		ldr	r2, .L2+28
  60 0022 1460     		str	r4, [r2]
 258:Generated_Source\PSoC4/USB_UART_UART.c **** 
 259:Generated_Source\PSoC4/USB_UART_UART.c ****         /* Configure TX direction */
 260:Generated_Source\PSoC4/USB_UART_UART.c ****         USB_UART_UART_TX_CTRL_REG = USB_UART_UART_DEFAULT_UART_TX_CTRL;
  61              		.loc 1 260 0
  62 0024 1F4A     		ldr	r2, .L2+32
  63 0026 1360     		str	r3, [r2]
 261:Generated_Source\PSoC4/USB_UART_UART.c ****         USB_UART_TX_CTRL_REG      = USB_UART_UART_DEFAULT_TX_CTRL;
  64              		.loc 1 261 0
  65 0028 1F4A     		ldr	r2, .L2+36
  66 002a 204B     		ldr	r3, .L2+40
  67 002c 1A60     		str	r2, [r3]
 262:Generated_Source\PSoC4/USB_UART_UART.c ****         USB_UART_TX_FIFO_CTRL_REG = USB_UART_UART_DEFAULT_TX_FIFO_CTRL;
  68              		.loc 1 262 0
  69 002e 204B     		ldr	r3, .L2+44
  70 0030 1C60     		str	r4, [r3]
 263:Generated_Source\PSoC4/USB_UART_UART.c **** 
 264:Generated_Source\PSoC4/USB_UART_UART.c ****     #if !(USB_UART_CY_SCBIP_V0 || USB_UART_CY_SCBIP_V1)
 265:Generated_Source\PSoC4/USB_UART_UART.c ****         USB_UART_UART_FLOW_CTRL_REG = USB_UART_UART_DEFAULT_FLOW_CTRL;
  71              		.loc 1 265 0
  72 0032 0425     		movs	r5, #4
  73 0034 1F4B     		ldr	r3, .L2+48
  74 0036 1D60     		str	r5, [r3]
 266:Generated_Source\PSoC4/USB_UART_UART.c ****     #endif /* !(USB_UART_CY_SCBIP_V0 || USB_UART_CY_SCBIP_V1) */
 267:Generated_Source\PSoC4/USB_UART_UART.c **** 
 268:Generated_Source\PSoC4/USB_UART_UART.c ****         /* Configure interrupt with UART handler but do not enable it */
ARM GAS  C:\Users\AFDHAL~1\AppData\Local\Temp\cc1PgMpc.s 			page 7


 269:Generated_Source\PSoC4/USB_UART_UART.c ****     #if(USB_UART_SCB_IRQ_INTERNAL)
 270:Generated_Source\PSoC4/USB_UART_UART.c ****         CyIntDisable    (USB_UART_ISR_NUMBER);
  75              		.loc 1 270 0
  76 0038 0B20     		movs	r0, #11
  77 003a FFF7FEFF 		bl	CyIntDisable
  78              	.LVL0:
 271:Generated_Source\PSoC4/USB_UART_UART.c ****         CyIntSetPriority(USB_UART_ISR_NUMBER, USB_UART_ISR_PRIORITY);
  79              		.loc 1 271 0
  80 003e 0321     		movs	r1, #3
  81 0040 0B20     		movs	r0, #11
  82 0042 FFF7FEFF 		bl	CyIntSetPriority
  83              	.LVL1:
 272:Generated_Source\PSoC4/USB_UART_UART.c ****         (void) CyIntSetVector(USB_UART_ISR_NUMBER, &USB_UART_SPI_UART_ISR);
  84              		.loc 1 272 0
  85 0046 1C49     		ldr	r1, .L2+52
  86 0048 0B20     		movs	r0, #11
  87 004a FFF7FEFF 		bl	CyIntSetVector
  88              	.LVL2:
 273:Generated_Source\PSoC4/USB_UART_UART.c ****     #endif /* (USB_UART_SCB_IRQ_INTERNAL) */
 274:Generated_Source\PSoC4/USB_UART_UART.c **** 
 275:Generated_Source\PSoC4/USB_UART_UART.c ****         /* Configure WAKE interrupt */
 276:Generated_Source\PSoC4/USB_UART_UART.c ****     #if(USB_UART_UART_RX_WAKEUP_IRQ)
 277:Generated_Source\PSoC4/USB_UART_UART.c ****         CyIntDisable    (USB_UART_RX_WAKE_ISR_NUMBER);
 278:Generated_Source\PSoC4/USB_UART_UART.c ****         CyIntSetPriority(USB_UART_RX_WAKE_ISR_NUMBER, USB_UART_RX_WAKE_ISR_PRIORITY);
 279:Generated_Source\PSoC4/USB_UART_UART.c ****         (void) CyIntSetVector(USB_UART_RX_WAKE_ISR_NUMBER, &USB_UART_UART_WAKEUP_ISR);
 280:Generated_Source\PSoC4/USB_UART_UART.c ****     #endif /* (USB_UART_UART_RX_WAKEUP_IRQ) */
 281:Generated_Source\PSoC4/USB_UART_UART.c **** 
 282:Generated_Source\PSoC4/USB_UART_UART.c ****         /* Configure interrupt sources */
 283:Generated_Source\PSoC4/USB_UART_UART.c ****         USB_UART_INTR_I2C_EC_MASK_REG = USB_UART_UART_DEFAULT_INTR_I2C_EC_MASK;
  89              		.loc 1 283 0
  90 004e 1B4B     		ldr	r3, .L2+56
  91 0050 1C60     		str	r4, [r3]
 284:Generated_Source\PSoC4/USB_UART_UART.c ****         USB_UART_INTR_SPI_EC_MASK_REG = USB_UART_UART_DEFAULT_INTR_SPI_EC_MASK;
  92              		.loc 1 284 0
  93 0052 1B4B     		ldr	r3, .L2+60
  94 0054 1C60     		str	r4, [r3]
 285:Generated_Source\PSoC4/USB_UART_UART.c ****         USB_UART_INTR_SLAVE_MASK_REG  = USB_UART_UART_DEFAULT_INTR_SLAVE_MASK;
  95              		.loc 1 285 0
  96 0056 1B4B     		ldr	r3, .L2+64
  97 0058 1C60     		str	r4, [r3]
 286:Generated_Source\PSoC4/USB_UART_UART.c ****         USB_UART_INTR_MASTER_MASK_REG = USB_UART_UART_DEFAULT_INTR_MASTER_MASK;
  98              		.loc 1 286 0
  99 005a 1B4B     		ldr	r3, .L2+68
 100 005c 1C60     		str	r4, [r3]
 287:Generated_Source\PSoC4/USB_UART_UART.c ****         USB_UART_INTR_RX_MASK_REG     = USB_UART_UART_DEFAULT_INTR_RX_MASK;
 101              		.loc 1 287 0
 102 005e 1B4B     		ldr	r3, .L2+72
 103 0060 1D60     		str	r5, [r3]
 288:Generated_Source\PSoC4/USB_UART_UART.c ****         USB_UART_INTR_TX_MASK_REG     = USB_UART_UART_DEFAULT_INTR_TX_MASK;
 104              		.loc 1 288 0
 105 0062 1B4B     		ldr	r3, .L2+76
 106 0064 1C60     		str	r4, [r3]
 289:Generated_Source\PSoC4/USB_UART_UART.c ****     
 290:Generated_Source\PSoC4/USB_UART_UART.c ****         /* Configure TX interrupt sources to restore. */
 291:Generated_Source\PSoC4/USB_UART_UART.c ****         USB_UART_IntrTxMask = LO16(USB_UART_INTR_TX_MASK_REG);
 107              		.loc 1 291 0
 108 0066 1A68     		ldr	r2, [r3]
ARM GAS  C:\Users\AFDHAL~1\AppData\Local\Temp\cc1PgMpc.s 			page 8


 109 0068 1A4B     		ldr	r3, .L2+80
 110 006a 1A80     		strh	r2, [r3]
 292:Generated_Source\PSoC4/USB_UART_UART.c **** 
 293:Generated_Source\PSoC4/USB_UART_UART.c ****     #if(USB_UART_INTERNAL_RX_SW_BUFFER_CONST)
 294:Generated_Source\PSoC4/USB_UART_UART.c ****         USB_UART_rxBufferHead     = 0u;
 111              		.loc 1 294 0
 112 006c 1A4B     		ldr	r3, .L2+84
 113 006e 1C60     		str	r4, [r3]
 295:Generated_Source\PSoC4/USB_UART_UART.c ****         USB_UART_rxBufferTail     = 0u;
 114              		.loc 1 295 0
 115 0070 1A4B     		ldr	r3, .L2+88
 116 0072 1C60     		str	r4, [r3]
 296:Generated_Source\PSoC4/USB_UART_UART.c ****         USB_UART_rxBufferOverflow = 0u;
 117              		.loc 1 296 0
 118 0074 1A4B     		ldr	r3, .L2+92
 119 0076 1C70     		strb	r4, [r3]
 297:Generated_Source\PSoC4/USB_UART_UART.c ****     #endif /* (USB_UART_INTERNAL_RX_SW_BUFFER_CONST) */
 298:Generated_Source\PSoC4/USB_UART_UART.c **** 
 299:Generated_Source\PSoC4/USB_UART_UART.c ****     #if(USB_UART_INTERNAL_TX_SW_BUFFER_CONST)
 300:Generated_Source\PSoC4/USB_UART_UART.c ****         USB_UART_txBufferHead = 0u;
 120              		.loc 1 300 0
 121 0078 1A4B     		ldr	r3, .L2+96
 122 007a 1C60     		str	r4, [r3]
 301:Generated_Source\PSoC4/USB_UART_UART.c ****         USB_UART_txBufferTail = 0u;
 123              		.loc 1 301 0
 124 007c 1A4B     		ldr	r3, .L2+100
 125 007e 1C60     		str	r4, [r3]
 302:Generated_Source\PSoC4/USB_UART_UART.c ****     #endif /* (USB_UART_INTERNAL_TX_SW_BUFFER_CONST) */
 303:Generated_Source\PSoC4/USB_UART_UART.c ****     }
 126              		.loc 1 303 0
 127              		@ sp needed
 128 0080 70BD     		pop	{r4, r5, r6, pc}
 129              	.L3:
 130 0082 C046     		.align	2
 131              	.L2:
 132 0084 0F000002 		.word	33554447
 133 0088 00002740 		.word	1076297728
 134 008c 40002740 		.word	1076297792
 135 0090 48002740 		.word	1076297800
 136 0094 07020080 		.word	-2147483129
 137 0098 00032740 		.word	1076298496
 138 009c 04032740 		.word	1076298500
 139 00a0 10032740 		.word	1076298512
 140 00a4 44002740 		.word	1076297796
 141 00a8 07000080 		.word	-2147483641
 142 00ac 00022740 		.word	1076298240
 143 00b0 04022740 		.word	1076298244
 144 00b4 50002740 		.word	1076297808
 145 00b8 00000000 		.word	USB_UART_SPI_UART_ISR
 146 00bc 880E2740 		.word	1076301448
 147 00c0 C80E2740 		.word	1076301512
 148 00c4 480F2740 		.word	1076301640
 149 00c8 080F2740 		.word	1076301576
 150 00cc C80F2740 		.word	1076301768
 151 00d0 880F2740 		.word	1076301704
 152 00d4 00000000 		.word	USB_UART_IntrTxMask
 153 00d8 00000000 		.word	USB_UART_rxBufferHead
ARM GAS  C:\Users\AFDHAL~1\AppData\Local\Temp\cc1PgMpc.s 			page 9


 154 00dc 00000000 		.word	USB_UART_rxBufferTail
 155 00e0 00000000 		.word	USB_UART_rxBufferOverflow
 156 00e4 00000000 		.word	USB_UART_txBufferHead
 157 00e8 00000000 		.word	USB_UART_txBufferTail
 158              		.cfi_endproc
 159              	.LFE1:
 160              		.size	USB_UART_UartInit, .-USB_UART_UartInit
 161              		.section	.text.USB_UART_UartPostEnable,"ax",%progbits
 162              		.align	2
 163              		.global	USB_UART_UartPostEnable
 164              		.code	16
 165              		.thumb_func
 166              		.type	USB_UART_UartPostEnable, %function
 167              	USB_UART_UartPostEnable:
 168              	.LFB2:
 304:Generated_Source\PSoC4/USB_UART_UART.c **** #endif /* (USB_UART_SCB_MODE_UNCONFIG_CONST_CFG) */
 305:Generated_Source\PSoC4/USB_UART_UART.c **** 
 306:Generated_Source\PSoC4/USB_UART_UART.c **** 
 307:Generated_Source\PSoC4/USB_UART_UART.c **** /*******************************************************************************
 308:Generated_Source\PSoC4/USB_UART_UART.c **** * Function Name: USB_UART_UartPostEnable
 309:Generated_Source\PSoC4/USB_UART_UART.c **** ****************************************************************************//**
 310:Generated_Source\PSoC4/USB_UART_UART.c **** *
 311:Generated_Source\PSoC4/USB_UART_UART.c **** *  Restores HSIOM settings for the UART output pins (TX and/or RTS) to be
 312:Generated_Source\PSoC4/USB_UART_UART.c **** *  controlled by the SCB UART.
 313:Generated_Source\PSoC4/USB_UART_UART.c **** *
 314:Generated_Source\PSoC4/USB_UART_UART.c **** *******************************************************************************/
 315:Generated_Source\PSoC4/USB_UART_UART.c **** void USB_UART_UartPostEnable(void)
 316:Generated_Source\PSoC4/USB_UART_UART.c **** {
 169              		.loc 1 316 0
 170              		.cfi_startproc
 171              		@ args = 0, pretend = 0, frame = 0
 172              		@ frame_needed = 0, uses_anonymous_args = 0
 173              		@ link register save eliminated.
 317:Generated_Source\PSoC4/USB_UART_UART.c **** #if (USB_UART_SCB_MODE_UNCONFIG_CONST_CFG)
 318:Generated_Source\PSoC4/USB_UART_UART.c ****     #if (USB_UART_TX_SDA_MISO_PIN)
 319:Generated_Source\PSoC4/USB_UART_UART.c ****         if (USB_UART_CHECK_TX_SDA_MISO_PIN_USED)
 320:Generated_Source\PSoC4/USB_UART_UART.c ****         {
 321:Generated_Source\PSoC4/USB_UART_UART.c ****             /* Set SCB UART to drive the output pin */
 322:Generated_Source\PSoC4/USB_UART_UART.c ****             USB_UART_SET_HSIOM_SEL(USB_UART_TX_SDA_MISO_HSIOM_REG, USB_UART_TX_SDA_MISO_HSIOM_MASK,
 323:Generated_Source\PSoC4/USB_UART_UART.c ****                                            USB_UART_TX_SDA_MISO_HSIOM_POS, USB_UART_TX_SDA_MISO_HSI
 324:Generated_Source\PSoC4/USB_UART_UART.c ****         }
 325:Generated_Source\PSoC4/USB_UART_UART.c ****     #endif /* (USB_UART_TX_SDA_MISO_PIN_PIN) */
 326:Generated_Source\PSoC4/USB_UART_UART.c **** 
 327:Generated_Source\PSoC4/USB_UART_UART.c ****     #if !(USB_UART_CY_SCBIP_V0 || USB_UART_CY_SCBIP_V1)
 328:Generated_Source\PSoC4/USB_UART_UART.c ****         #if (USB_UART_RTS_SS0_PIN)
 329:Generated_Source\PSoC4/USB_UART_UART.c ****             if (USB_UART_CHECK_RTS_SS0_PIN_USED)
 330:Generated_Source\PSoC4/USB_UART_UART.c ****             {
 331:Generated_Source\PSoC4/USB_UART_UART.c ****                 /* Set SCB UART to drive the output pin */
 332:Generated_Source\PSoC4/USB_UART_UART.c ****                 USB_UART_SET_HSIOM_SEL(USB_UART_RTS_SS0_HSIOM_REG, USB_UART_RTS_SS0_HSIOM_MASK,
 333:Generated_Source\PSoC4/USB_UART_UART.c ****                                                USB_UART_RTS_SS0_HSIOM_POS, USB_UART_RTS_SS0_HSIOM_S
 334:Generated_Source\PSoC4/USB_UART_UART.c ****             }
 335:Generated_Source\PSoC4/USB_UART_UART.c ****         #endif /* (USB_UART_RTS_SS0_PIN) */
 336:Generated_Source\PSoC4/USB_UART_UART.c ****     #endif /* !(USB_UART_CY_SCBIP_V0 || USB_UART_CY_SCBIP_V1) */
 337:Generated_Source\PSoC4/USB_UART_UART.c **** 
 338:Generated_Source\PSoC4/USB_UART_UART.c **** #else
 339:Generated_Source\PSoC4/USB_UART_UART.c ****     #if (USB_UART_UART_TX_PIN)
 340:Generated_Source\PSoC4/USB_UART_UART.c ****          /* Set SCB UART to drive the output pin */
ARM GAS  C:\Users\AFDHAL~1\AppData\Local\Temp\cc1PgMpc.s 			page 10


 341:Generated_Source\PSoC4/USB_UART_UART.c ****         USB_UART_SET_HSIOM_SEL(USB_UART_TX_HSIOM_REG, USB_UART_TX_HSIOM_MASK,
 174              		.loc 1 341 0
 175 0000 0549     		ldr	r1, .L5
 176 0002 0B68     		ldr	r3, [r1]
 177 0004 F022     		movs	r2, #240
 178 0006 9343     		bics	r3, r2
 179 0008 603A     		subs	r2, r2, #96
 180 000a 1343     		orrs	r3, r2
 181 000c 0B60     		str	r3, [r1]
 342:Generated_Source\PSoC4/USB_UART_UART.c ****                                        USB_UART_TX_HSIOM_POS, USB_UART_TX_HSIOM_SEL_UART);
 343:Generated_Source\PSoC4/USB_UART_UART.c ****     #endif /* (USB_UART_UART_TX_PIN) */
 344:Generated_Source\PSoC4/USB_UART_UART.c **** 
 345:Generated_Source\PSoC4/USB_UART_UART.c ****     #if (USB_UART_UART_RTS_PIN)
 346:Generated_Source\PSoC4/USB_UART_UART.c ****         /* Set SCB UART to drive the output pin */
 347:Generated_Source\PSoC4/USB_UART_UART.c ****         USB_UART_SET_HSIOM_SEL(USB_UART_RTS_HSIOM_REG, USB_UART_RTS_HSIOM_MASK,
 348:Generated_Source\PSoC4/USB_UART_UART.c ****                                        USB_UART_RTS_HSIOM_POS, USB_UART_RTS_HSIOM_SEL_UART);
 349:Generated_Source\PSoC4/USB_UART_UART.c ****     #endif /* (USB_UART_UART_RTS_PIN) */
 350:Generated_Source\PSoC4/USB_UART_UART.c **** #endif /* (USB_UART_SCB_MODE_UNCONFIG_CONST_CFG) */
 351:Generated_Source\PSoC4/USB_UART_UART.c **** 
 352:Generated_Source\PSoC4/USB_UART_UART.c ****     /* Restore TX interrupt sources. */
 353:Generated_Source\PSoC4/USB_UART_UART.c ****     USB_UART_SetTxInterruptMode(USB_UART_IntrTxMask);
 182              		.loc 1 353 0
 183 000e 034B     		ldr	r3, .L5+4
 184 0010 1A88     		ldrh	r2, [r3]
 185 0012 034B     		ldr	r3, .L5+8
 186 0014 1A60     		str	r2, [r3]
 354:Generated_Source\PSoC4/USB_UART_UART.c **** }
 187              		.loc 1 354 0
 188              		@ sp needed
 189 0016 7047     		bx	lr
 190              	.L6:
 191              		.align	2
 192              	.L5:
 193 0018 00070240 		.word	1073874688
 194 001c 00000000 		.word	USB_UART_IntrTxMask
 195 0020 880F2740 		.word	1076301704
 196              		.cfi_endproc
 197              	.LFE2:
 198              		.size	USB_UART_UartPostEnable, .-USB_UART_UartPostEnable
 199              		.section	.text.USB_UART_UartStop,"ax",%progbits
 200              		.align	2
 201              		.global	USB_UART_UartStop
 202              		.code	16
 203              		.thumb_func
 204              		.type	USB_UART_UartStop, %function
 205              	USB_UART_UartStop:
 206              	.LFB3:
 355:Generated_Source\PSoC4/USB_UART_UART.c **** 
 356:Generated_Source\PSoC4/USB_UART_UART.c **** 
 357:Generated_Source\PSoC4/USB_UART_UART.c **** /*******************************************************************************
 358:Generated_Source\PSoC4/USB_UART_UART.c **** * Function Name: USB_UART_UartStop
 359:Generated_Source\PSoC4/USB_UART_UART.c **** ****************************************************************************//**
 360:Generated_Source\PSoC4/USB_UART_UART.c **** *
 361:Generated_Source\PSoC4/USB_UART_UART.c **** *  Changes the HSIOM settings for the UART output pins (TX and/or RTS) to keep
 362:Generated_Source\PSoC4/USB_UART_UART.c **** *  them inactive after the block is disabled. The output pins are controlled by
 363:Generated_Source\PSoC4/USB_UART_UART.c **** *  the GPIO data register. Also, the function disables the skip start feature
 364:Generated_Source\PSoC4/USB_UART_UART.c **** *  to not cause it to trigger after the component is enabled.
ARM GAS  C:\Users\AFDHAL~1\AppData\Local\Temp\cc1PgMpc.s 			page 11


 365:Generated_Source\PSoC4/USB_UART_UART.c **** *
 366:Generated_Source\PSoC4/USB_UART_UART.c **** *******************************************************************************/
 367:Generated_Source\PSoC4/USB_UART_UART.c **** void USB_UART_UartStop(void)
 368:Generated_Source\PSoC4/USB_UART_UART.c **** {
 207              		.loc 1 368 0
 208              		.cfi_startproc
 209              		@ args = 0, pretend = 0, frame = 0
 210              		@ frame_needed = 0, uses_anonymous_args = 0
 211              		@ link register save eliminated.
 369:Generated_Source\PSoC4/USB_UART_UART.c **** #if(USB_UART_SCB_MODE_UNCONFIG_CONST_CFG)
 370:Generated_Source\PSoC4/USB_UART_UART.c ****     #if (USB_UART_TX_SDA_MISO_PIN)
 371:Generated_Source\PSoC4/USB_UART_UART.c ****         if (USB_UART_CHECK_TX_SDA_MISO_PIN_USED)
 372:Generated_Source\PSoC4/USB_UART_UART.c ****         {
 373:Generated_Source\PSoC4/USB_UART_UART.c ****             /* Set GPIO to drive output pin */
 374:Generated_Source\PSoC4/USB_UART_UART.c ****             USB_UART_SET_HSIOM_SEL(USB_UART_TX_SDA_MISO_HSIOM_REG, USB_UART_TX_SDA_MISO_HSIOM_MASK,
 375:Generated_Source\PSoC4/USB_UART_UART.c ****                                            USB_UART_TX_SDA_MISO_HSIOM_POS, USB_UART_TX_SDA_MISO_HSI
 376:Generated_Source\PSoC4/USB_UART_UART.c ****         }
 377:Generated_Source\PSoC4/USB_UART_UART.c ****     #endif /* (USB_UART_TX_SDA_MISO_PIN_PIN) */
 378:Generated_Source\PSoC4/USB_UART_UART.c **** 
 379:Generated_Source\PSoC4/USB_UART_UART.c ****     #if !(USB_UART_CY_SCBIP_V0 || USB_UART_CY_SCBIP_V1)
 380:Generated_Source\PSoC4/USB_UART_UART.c ****         #if (USB_UART_RTS_SS0_PIN)
 381:Generated_Source\PSoC4/USB_UART_UART.c ****             if (USB_UART_CHECK_RTS_SS0_PIN_USED)
 382:Generated_Source\PSoC4/USB_UART_UART.c ****             {
 383:Generated_Source\PSoC4/USB_UART_UART.c ****                 /* Set output pin state after block is disabled */
 384:Generated_Source\PSoC4/USB_UART_UART.c ****                 USB_UART_uart_rts_spi_ss0_Write(USB_UART_GET_UART_RTS_INACTIVE);
 385:Generated_Source\PSoC4/USB_UART_UART.c **** 
 386:Generated_Source\PSoC4/USB_UART_UART.c ****                 /* Set GPIO to drive output pin */
 387:Generated_Source\PSoC4/USB_UART_UART.c ****                 USB_UART_SET_HSIOM_SEL(USB_UART_RTS_SS0_HSIOM_REG, USB_UART_RTS_SS0_HSIOM_MASK,
 388:Generated_Source\PSoC4/USB_UART_UART.c ****                                                USB_UART_RTS_SS0_HSIOM_POS, USB_UART_RTS_SS0_HSIOM_S
 389:Generated_Source\PSoC4/USB_UART_UART.c ****             }
 390:Generated_Source\PSoC4/USB_UART_UART.c ****         #endif /* (USB_UART_RTS_SS0_PIN) */
 391:Generated_Source\PSoC4/USB_UART_UART.c ****     #endif /* !(USB_UART_CY_SCBIP_V0 || USB_UART_CY_SCBIP_V1) */
 392:Generated_Source\PSoC4/USB_UART_UART.c **** 
 393:Generated_Source\PSoC4/USB_UART_UART.c **** #else
 394:Generated_Source\PSoC4/USB_UART_UART.c ****     #if (USB_UART_UART_TX_PIN)
 395:Generated_Source\PSoC4/USB_UART_UART.c ****         /* Set GPIO to drive output pin */
 396:Generated_Source\PSoC4/USB_UART_UART.c ****         USB_UART_SET_HSIOM_SEL(USB_UART_TX_HSIOM_REG, USB_UART_TX_HSIOM_MASK,
 212              		.loc 1 396 0
 213 0000 064A     		ldr	r2, .L8
 214 0002 1368     		ldr	r3, [r2]
 215 0004 F021     		movs	r1, #240
 216 0006 8B43     		bics	r3, r1
 217 0008 1360     		str	r3, [r2]
 397:Generated_Source\PSoC4/USB_UART_UART.c ****                                        USB_UART_TX_HSIOM_POS, USB_UART_TX_HSIOM_SEL_GPIO);
 398:Generated_Source\PSoC4/USB_UART_UART.c ****     #endif /* (USB_UART_UART_TX_PIN) */
 399:Generated_Source\PSoC4/USB_UART_UART.c **** 
 400:Generated_Source\PSoC4/USB_UART_UART.c ****     #if (USB_UART_UART_RTS_PIN)
 401:Generated_Source\PSoC4/USB_UART_UART.c ****         /* Set output pin state after block is disabled */
 402:Generated_Source\PSoC4/USB_UART_UART.c ****         USB_UART_rts_Write(USB_UART_GET_UART_RTS_INACTIVE);
 403:Generated_Source\PSoC4/USB_UART_UART.c **** 
 404:Generated_Source\PSoC4/USB_UART_UART.c ****         /* Set GPIO to drive output pin */
 405:Generated_Source\PSoC4/USB_UART_UART.c ****         USB_UART_SET_HSIOM_SEL(USB_UART_RTS_HSIOM_REG, USB_UART_RTS_HSIOM_MASK,
 406:Generated_Source\PSoC4/USB_UART_UART.c ****                                        USB_UART_RTS_HSIOM_POS, USB_UART_RTS_HSIOM_SEL_GPIO);
 407:Generated_Source\PSoC4/USB_UART_UART.c ****     #endif /* (USB_UART_UART_RTS_PIN) */
 408:Generated_Source\PSoC4/USB_UART_UART.c **** 
 409:Generated_Source\PSoC4/USB_UART_UART.c **** #endif /* (USB_UART_SCB_MODE_UNCONFIG_CONST_CFG) */
 410:Generated_Source\PSoC4/USB_UART_UART.c **** 
ARM GAS  C:\Users\AFDHAL~1\AppData\Local\Temp\cc1PgMpc.s 			page 12


 411:Generated_Source\PSoC4/USB_UART_UART.c **** #if (USB_UART_UART_WAKE_ENABLE_CONST)
 412:Generated_Source\PSoC4/USB_UART_UART.c ****     /* Disable skip start feature used for wakeup */
 413:Generated_Source\PSoC4/USB_UART_UART.c ****     USB_UART_UART_RX_CTRL_REG &= (uint32) ~USB_UART_UART_RX_CTRL_SKIP_START;
 414:Generated_Source\PSoC4/USB_UART_UART.c **** #endif /* (USB_UART_UART_WAKE_ENABLE_CONST) */
 415:Generated_Source\PSoC4/USB_UART_UART.c **** 
 416:Generated_Source\PSoC4/USB_UART_UART.c ****     /* Store TX interrupt sources (exclude level triggered). */
 417:Generated_Source\PSoC4/USB_UART_UART.c ****     USB_UART_IntrTxMask = LO16(USB_UART_GetTxInterruptMode() & USB_UART_INTR_UART_TX_RESTORE);
 218              		.loc 1 417 0
 219 000a 054B     		ldr	r3, .L8+4
 220 000c 1A68     		ldr	r2, [r3]
 221 000e E423     		movs	r3, #228
 222 0010 DB00     		lsls	r3, r3, #3
 223 0012 1340     		ands	r3, r2
 224 0014 034A     		ldr	r2, .L8+8
 225 0016 1380     		strh	r3, [r2]
 418:Generated_Source\PSoC4/USB_UART_UART.c **** }
 226              		.loc 1 418 0
 227              		@ sp needed
 228 0018 7047     		bx	lr
 229              	.L9:
 230 001a C046     		.align	2
 231              	.L8:
 232 001c 00070240 		.word	1073874688
 233 0020 880F2740 		.word	1076301704
 234 0024 00000000 		.word	USB_UART_IntrTxMask
 235              		.cfi_endproc
 236              	.LFE3:
 237              		.size	USB_UART_UartStop, .-USB_UART_UartStop
 238              		.section	.text.USB_UART_UartSetRxAddress,"ax",%progbits
 239              		.align	2
 240              		.global	USB_UART_UartSetRxAddress
 241              		.code	16
 242              		.thumb_func
 243              		.type	USB_UART_UartSetRxAddress, %function
 244              	USB_UART_UartSetRxAddress:
 245              	.LFB4:
 419:Generated_Source\PSoC4/USB_UART_UART.c **** 
 420:Generated_Source\PSoC4/USB_UART_UART.c **** 
 421:Generated_Source\PSoC4/USB_UART_UART.c **** /*******************************************************************************
 422:Generated_Source\PSoC4/USB_UART_UART.c **** * Function Name: USB_UART_UartSetRxAddress
 423:Generated_Source\PSoC4/USB_UART_UART.c **** ****************************************************************************//**
 424:Generated_Source\PSoC4/USB_UART_UART.c **** *
 425:Generated_Source\PSoC4/USB_UART_UART.c **** *  Sets the hardware detectable receiver address for the UART in the
 426:Generated_Source\PSoC4/USB_UART_UART.c **** *  Multiprocessor mode.
 427:Generated_Source\PSoC4/USB_UART_UART.c **** *
 428:Generated_Source\PSoC4/USB_UART_UART.c **** *  \param address: Address for hardware address detection.
 429:Generated_Source\PSoC4/USB_UART_UART.c **** *
 430:Generated_Source\PSoC4/USB_UART_UART.c **** *******************************************************************************/
 431:Generated_Source\PSoC4/USB_UART_UART.c **** void USB_UART_UartSetRxAddress(uint32 address)
 432:Generated_Source\PSoC4/USB_UART_UART.c **** {
 246              		.loc 1 432 0
 247              		.cfi_startproc
 248              		@ args = 0, pretend = 0, frame = 0
 249              		@ frame_needed = 0, uses_anonymous_args = 0
 250              		@ link register save eliminated.
 251              	.LVL3:
 433:Generated_Source\PSoC4/USB_UART_UART.c ****      uint32 matchReg;
ARM GAS  C:\Users\AFDHAL~1\AppData\Local\Temp\cc1PgMpc.s 			page 13


 434:Generated_Source\PSoC4/USB_UART_UART.c **** 
 435:Generated_Source\PSoC4/USB_UART_UART.c ****     matchReg = USB_UART_RX_MATCH_REG;
 252              		.loc 1 435 0
 253 0000 034A     		ldr	r2, .L11
 254 0002 1368     		ldr	r3, [r2]
 255              	.LVL4:
 436:Generated_Source\PSoC4/USB_UART_UART.c **** 
 437:Generated_Source\PSoC4/USB_UART_UART.c ****     matchReg &= ((uint32) ~USB_UART_RX_MATCH_ADDR_MASK); /* Clear address bits */
 256              		.loc 1 437 0
 257 0004 FF21     		movs	r1, #255
 258 0006 8B43     		bics	r3, r1
 259              	.LVL5:
 438:Generated_Source\PSoC4/USB_UART_UART.c ****     matchReg |= ((uint32)  (address & USB_UART_RX_MATCH_ADDR_MASK)); /* Set address  */
 260              		.loc 1 438 0
 261 0008 0840     		ands	r0, r1
 262              	.LVL6:
 263 000a 1843     		orrs	r0, r3
 264              	.LVL7:
 439:Generated_Source\PSoC4/USB_UART_UART.c **** 
 440:Generated_Source\PSoC4/USB_UART_UART.c ****     USB_UART_RX_MATCH_REG = matchReg;
 265              		.loc 1 440 0
 266 000c 1060     		str	r0, [r2]
 441:Generated_Source\PSoC4/USB_UART_UART.c **** }
 267              		.loc 1 441 0
 268              		@ sp needed
 269 000e 7047     		bx	lr
 270              	.L12:
 271              		.align	2
 272              	.L11:
 273 0010 10032740 		.word	1076298512
 274              		.cfi_endproc
 275              	.LFE4:
 276              		.size	USB_UART_UartSetRxAddress, .-USB_UART_UartSetRxAddress
 277              		.section	.text.USB_UART_UartSetRxAddressMask,"ax",%progbits
 278              		.align	2
 279              		.global	USB_UART_UartSetRxAddressMask
 280              		.code	16
 281              		.thumb_func
 282              		.type	USB_UART_UartSetRxAddressMask, %function
 283              	USB_UART_UartSetRxAddressMask:
 284              	.LFB5:
 442:Generated_Source\PSoC4/USB_UART_UART.c **** 
 443:Generated_Source\PSoC4/USB_UART_UART.c **** 
 444:Generated_Source\PSoC4/USB_UART_UART.c **** /*******************************************************************************
 445:Generated_Source\PSoC4/USB_UART_UART.c **** * Function Name: USB_UART_UartSetRxAddressMask
 446:Generated_Source\PSoC4/USB_UART_UART.c **** ****************************************************************************//**
 447:Generated_Source\PSoC4/USB_UART_UART.c **** *
 448:Generated_Source\PSoC4/USB_UART_UART.c **** *  Sets the hardware address mask for the UART in the Multiprocessor mode.
 449:Generated_Source\PSoC4/USB_UART_UART.c **** *
 450:Generated_Source\PSoC4/USB_UART_UART.c **** *  \param addressMask: Address mask.
 451:Generated_Source\PSoC4/USB_UART_UART.c **** *   - Bit value 0 – excludes bit from address comparison.
 452:Generated_Source\PSoC4/USB_UART_UART.c **** *   - Bit value 1 – the bit needs to match with the corresponding bit
 453:Generated_Source\PSoC4/USB_UART_UART.c **** *     of the address.
 454:Generated_Source\PSoC4/USB_UART_UART.c **** *
 455:Generated_Source\PSoC4/USB_UART_UART.c **** *******************************************************************************/
 456:Generated_Source\PSoC4/USB_UART_UART.c **** void USB_UART_UartSetRxAddressMask(uint32 addressMask)
 457:Generated_Source\PSoC4/USB_UART_UART.c **** {
ARM GAS  C:\Users\AFDHAL~1\AppData\Local\Temp\cc1PgMpc.s 			page 14


 285              		.loc 1 457 0
 286              		.cfi_startproc
 287              		@ args = 0, pretend = 0, frame = 0
 288              		@ frame_needed = 0, uses_anonymous_args = 0
 289              		@ link register save eliminated.
 290              	.LVL8:
 458:Generated_Source\PSoC4/USB_UART_UART.c ****     uint32 matchReg;
 459:Generated_Source\PSoC4/USB_UART_UART.c **** 
 460:Generated_Source\PSoC4/USB_UART_UART.c ****     matchReg = USB_UART_RX_MATCH_REG;
 291              		.loc 1 460 0
 292 0000 034A     		ldr	r2, .L14
 293 0002 1168     		ldr	r1, [r2]
 294              	.LVL9:
 461:Generated_Source\PSoC4/USB_UART_UART.c **** 
 462:Generated_Source\PSoC4/USB_UART_UART.c ****     matchReg &= ((uint32) ~USB_UART_RX_MATCH_MASK_MASK); /* Clear address mask bits */
 295              		.loc 1 462 0
 296 0004 034B     		ldr	r3, .L14+4
 297 0006 0B40     		ands	r3, r1
 298              	.LVL10:
 463:Generated_Source\PSoC4/USB_UART_UART.c ****     matchReg |= ((uint32) (addressMask << USB_UART_RX_MATCH_MASK_POS));
 299              		.loc 1 463 0
 300 0008 0004     		lsls	r0, r0, #16
 301              	.LVL11:
 302 000a 1843     		orrs	r0, r3
 303              	.LVL12:
 464:Generated_Source\PSoC4/USB_UART_UART.c **** 
 465:Generated_Source\PSoC4/USB_UART_UART.c ****     USB_UART_RX_MATCH_REG = matchReg;
 304              		.loc 1 465 0
 305 000c 1060     		str	r0, [r2]
 466:Generated_Source\PSoC4/USB_UART_UART.c **** }
 306              		.loc 1 466 0
 307              		@ sp needed
 308 000e 7047     		bx	lr
 309              	.L15:
 310              		.align	2
 311              	.L14:
 312 0010 10032740 		.word	1076298512
 313 0014 FFFF00FF 		.word	-16711681
 314              		.cfi_endproc
 315              	.LFE5:
 316              		.size	USB_UART_UartSetRxAddressMask, .-USB_UART_UartSetRxAddressMask
 317              		.section	.text.USB_UART_UartGetChar,"ax",%progbits
 318              		.align	2
 319              		.global	USB_UART_UartGetChar
 320              		.code	16
 321              		.thumb_func
 322              		.type	USB_UART_UartGetChar, %function
 323              	USB_UART_UartGetChar:
 324              	.LFB6:
 467:Generated_Source\PSoC4/USB_UART_UART.c **** 
 468:Generated_Source\PSoC4/USB_UART_UART.c **** 
 469:Generated_Source\PSoC4/USB_UART_UART.c **** #if(USB_UART_UART_RX_DIRECTION)
 470:Generated_Source\PSoC4/USB_UART_UART.c ****     /*******************************************************************************
 471:Generated_Source\PSoC4/USB_UART_UART.c ****     * Function Name: USB_UART_UartGetChar
 472:Generated_Source\PSoC4/USB_UART_UART.c ****     ****************************************************************************//**
 473:Generated_Source\PSoC4/USB_UART_UART.c ****     *
 474:Generated_Source\PSoC4/USB_UART_UART.c ****     *  Retrieves next data element from receive buffer.
ARM GAS  C:\Users\AFDHAL~1\AppData\Local\Temp\cc1PgMpc.s 			page 15


 475:Generated_Source\PSoC4/USB_UART_UART.c ****     *  This function is designed for ASCII characters and returns a char where
 476:Generated_Source\PSoC4/USB_UART_UART.c ****     *  1 to 255 are valid characters and 0 indicates an error occurred or no data
 477:Generated_Source\PSoC4/USB_UART_UART.c ****     *  is present.
 478:Generated_Source\PSoC4/USB_UART_UART.c ****     *  - RX software buffer is disabled: Returns data element retrieved from RX
 479:Generated_Source\PSoC4/USB_UART_UART.c ****     *    FIFO.
 480:Generated_Source\PSoC4/USB_UART_UART.c ****     *  - RX software buffer is enabled: Returns data element from the software
 481:Generated_Source\PSoC4/USB_UART_UART.c ****     *    receive buffer.
 482:Generated_Source\PSoC4/USB_UART_UART.c ****     *
 483:Generated_Source\PSoC4/USB_UART_UART.c ****     *  \return
 484:Generated_Source\PSoC4/USB_UART_UART.c ****     *   Next data element from the receive buffer. ASCII character values from
 485:Generated_Source\PSoC4/USB_UART_UART.c ****     *   1 to 255 are valid. A returned zero signifies an error condition or no
 486:Generated_Source\PSoC4/USB_UART_UART.c ****     *   data available.
 487:Generated_Source\PSoC4/USB_UART_UART.c ****     *
 488:Generated_Source\PSoC4/USB_UART_UART.c ****     *  \sideeffect
 489:Generated_Source\PSoC4/USB_UART_UART.c ****     *   The errors bits may not correspond with reading characters due to
 490:Generated_Source\PSoC4/USB_UART_UART.c ****     *   RX FIFO and software buffer usage.
 491:Generated_Source\PSoC4/USB_UART_UART.c ****     *   RX software buffer is enabled: The internal software buffer overflow
 492:Generated_Source\PSoC4/USB_UART_UART.c ****     *   is not treated as an error condition.
 493:Generated_Source\PSoC4/USB_UART_UART.c ****     *   Check USB_UART_rxBufferOverflow to capture that error condition.
 494:Generated_Source\PSoC4/USB_UART_UART.c ****     *
 495:Generated_Source\PSoC4/USB_UART_UART.c ****     *******************************************************************************/
 496:Generated_Source\PSoC4/USB_UART_UART.c ****     uint32 USB_UART_UartGetChar(void)
 497:Generated_Source\PSoC4/USB_UART_UART.c ****     {
 325              		.loc 1 497 0
 326              		.cfi_startproc
 327              		@ args = 0, pretend = 0, frame = 0
 328              		@ frame_needed = 0, uses_anonymous_args = 0
 329 0000 10B5     		push	{r4, lr}
 330              		.cfi_def_cfa_offset 8
 331              		.cfi_offset 4, -8
 332              		.cfi_offset 14, -4
 333              	.LVL13:
 498:Generated_Source\PSoC4/USB_UART_UART.c ****         uint32 rxData = 0u;
 499:Generated_Source\PSoC4/USB_UART_UART.c **** 
 500:Generated_Source\PSoC4/USB_UART_UART.c ****         /* Reads data only if there is data to read */
 501:Generated_Source\PSoC4/USB_UART_UART.c ****         if (0u != USB_UART_SpiUartGetRxBufferSize())
 334              		.loc 1 501 0
 335 0002 FFF7FEFF 		bl	USB_UART_SpiUartGetRxBufferSize
 336              	.LVL14:
 337 0006 0028     		cmp	r0, #0
 338 0008 02D0     		beq	.L19
 502:Generated_Source\PSoC4/USB_UART_UART.c ****         {
 503:Generated_Source\PSoC4/USB_UART_UART.c ****             rxData = USB_UART_SpiUartReadRxData();
 339              		.loc 1 503 0
 340 000a FFF7FEFF 		bl	USB_UART_SpiUartReadRxData
 341              	.LVL15:
 342 000e 00E0     		b	.L17
 343              	.LVL16:
 344              	.L19:
 498:Generated_Source\PSoC4/USB_UART_UART.c ****         uint32 rxData = 0u;
 345              		.loc 1 498 0
 346 0010 0020     		movs	r0, #0
 347              	.LVL17:
 348              	.L17:
 504:Generated_Source\PSoC4/USB_UART_UART.c ****         }
 505:Generated_Source\PSoC4/USB_UART_UART.c **** 
 506:Generated_Source\PSoC4/USB_UART_UART.c ****         if (USB_UART_CHECK_INTR_RX(USB_UART_INTR_RX_ERR))
ARM GAS  C:\Users\AFDHAL~1\AppData\Local\Temp\cc1PgMpc.s 			page 16


 349              		.loc 1 506 0
 350 0012 054B     		ldr	r3, .L20
 351 0014 1A68     		ldr	r2, [r3]
 352 0016 D823     		movs	r3, #216
 353 0018 9B00     		lsls	r3, r3, #2
 354 001a 1A42     		tst	r2, r3
 355 001c 03D0     		beq	.L18
 356              	.LVL18:
 507:Generated_Source\PSoC4/USB_UART_UART.c ****         {
 508:Generated_Source\PSoC4/USB_UART_UART.c ****             rxData = 0u; /* Error occurred: returns zero */
 509:Generated_Source\PSoC4/USB_UART_UART.c ****             USB_UART_ClearRxInterruptSource(USB_UART_INTR_RX_ERR);
 357              		.loc 1 509 0
 358 001e 1A00     		movs	r2, r3
 359 0020 014B     		ldr	r3, .L20
 360 0022 1A60     		str	r2, [r3]
 508:Generated_Source\PSoC4/USB_UART_UART.c ****             USB_UART_ClearRxInterruptSource(USB_UART_INTR_RX_ERR);
 361              		.loc 1 508 0
 362 0024 0020     		movs	r0, #0
 363              	.LVL19:
 364              	.L18:
 510:Generated_Source\PSoC4/USB_UART_UART.c ****         }
 511:Generated_Source\PSoC4/USB_UART_UART.c **** 
 512:Generated_Source\PSoC4/USB_UART_UART.c ****         return (rxData);
 513:Generated_Source\PSoC4/USB_UART_UART.c ****     }
 365              		.loc 1 513 0
 366              		@ sp needed
 367 0026 10BD     		pop	{r4, pc}
 368              	.L21:
 369              		.align	2
 370              	.L20:
 371 0028 C00F2740 		.word	1076301760
 372              		.cfi_endproc
 373              	.LFE6:
 374              		.size	USB_UART_UartGetChar, .-USB_UART_UartGetChar
 375              		.section	.text.USB_UART_UartGetByte,"ax",%progbits
 376              		.align	2
 377              		.global	USB_UART_UartGetByte
 378              		.code	16
 379              		.thumb_func
 380              		.type	USB_UART_UartGetByte, %function
 381              	USB_UART_UartGetByte:
 382              	.LFB7:
 514:Generated_Source\PSoC4/USB_UART_UART.c **** 
 515:Generated_Source\PSoC4/USB_UART_UART.c **** 
 516:Generated_Source\PSoC4/USB_UART_UART.c ****     /*******************************************************************************
 517:Generated_Source\PSoC4/USB_UART_UART.c ****     * Function Name: USB_UART_UartGetByte
 518:Generated_Source\PSoC4/USB_UART_UART.c ****     ****************************************************************************//**
 519:Generated_Source\PSoC4/USB_UART_UART.c ****     *
 520:Generated_Source\PSoC4/USB_UART_UART.c ****     *  Retrieves the next data element from the receive buffer, returns the
 521:Generated_Source\PSoC4/USB_UART_UART.c ****     *  received byte and error condition.
 522:Generated_Source\PSoC4/USB_UART_UART.c ****     *   - The RX software buffer is disabled: returns the data element retrieved
 523:Generated_Source\PSoC4/USB_UART_UART.c ****     *     from the RX FIFO. Undefined data will be returned if the RX FIFO is
 524:Generated_Source\PSoC4/USB_UART_UART.c ****     *     empty.
 525:Generated_Source\PSoC4/USB_UART_UART.c ****     *   - The RX software buffer is enabled: returns data element from the
 526:Generated_Source\PSoC4/USB_UART_UART.c ****     *     software receive buffer.
 527:Generated_Source\PSoC4/USB_UART_UART.c ****     *
 528:Generated_Source\PSoC4/USB_UART_UART.c ****     *  \return
ARM GAS  C:\Users\AFDHAL~1\AppData\Local\Temp\cc1PgMpc.s 			page 17


 529:Generated_Source\PSoC4/USB_UART_UART.c ****     *   Bits 7-0 contain the next data element from the receive buffer and
 530:Generated_Source\PSoC4/USB_UART_UART.c ****     *   other bits contain the error condition.
 531:Generated_Source\PSoC4/USB_UART_UART.c ****     *   - USB_UART_UART_RX_OVERFLOW - Attempt to write to a full
 532:Generated_Source\PSoC4/USB_UART_UART.c ****     *     receiver FIFO.
 533:Generated_Source\PSoC4/USB_UART_UART.c ****     *   - USB_UART_UART_RX_UNDERFLOW	Attempt to read from an empty
 534:Generated_Source\PSoC4/USB_UART_UART.c ****     *     receiver FIFO.
 535:Generated_Source\PSoC4/USB_UART_UART.c ****     *   - USB_UART_UART_RX_FRAME_ERROR - UART framing error detected.
 536:Generated_Source\PSoC4/USB_UART_UART.c ****     *   - USB_UART_UART_RX_PARITY_ERROR - UART parity error detected.
 537:Generated_Source\PSoC4/USB_UART_UART.c ****     *
 538:Generated_Source\PSoC4/USB_UART_UART.c ****     *  \sideeffect
 539:Generated_Source\PSoC4/USB_UART_UART.c ****     *   The errors bits may not correspond with reading characters due to
 540:Generated_Source\PSoC4/USB_UART_UART.c ****     *   RX FIFO and software buffer usage.
 541:Generated_Source\PSoC4/USB_UART_UART.c ****     *   RX software buffer is enabled: The internal software buffer overflow
 542:Generated_Source\PSoC4/USB_UART_UART.c ****     *   is not treated as an error condition.
 543:Generated_Source\PSoC4/USB_UART_UART.c ****     *   Check USB_UART_rxBufferOverflow to capture that error condition.
 544:Generated_Source\PSoC4/USB_UART_UART.c ****     *
 545:Generated_Source\PSoC4/USB_UART_UART.c ****     *******************************************************************************/
 546:Generated_Source\PSoC4/USB_UART_UART.c ****     uint32 USB_UART_UartGetByte(void)
 547:Generated_Source\PSoC4/USB_UART_UART.c ****     {
 383              		.loc 1 547 0
 384              		.cfi_startproc
 385              		@ args = 0, pretend = 0, frame = 0
 386              		@ frame_needed = 0, uses_anonymous_args = 0
 387 0000 10B5     		push	{r4, lr}
 388              		.cfi_def_cfa_offset 8
 389              		.cfi_offset 4, -8
 390              		.cfi_offset 14, -4
 548:Generated_Source\PSoC4/USB_UART_UART.c ****         uint32 rxData;
 549:Generated_Source\PSoC4/USB_UART_UART.c ****         uint32 tmpStatus;
 550:Generated_Source\PSoC4/USB_UART_UART.c **** 
 551:Generated_Source\PSoC4/USB_UART_UART.c ****         #if (USB_UART_CHECK_RX_SW_BUFFER)
 552:Generated_Source\PSoC4/USB_UART_UART.c ****         {
 553:Generated_Source\PSoC4/USB_UART_UART.c ****             USB_UART_DisableInt();
 391              		.loc 1 553 0
 392 0002 0B20     		movs	r0, #11
 393 0004 FFF7FEFF 		bl	CyIntDisable
 394              	.LVL20:
 554:Generated_Source\PSoC4/USB_UART_UART.c ****         }
 555:Generated_Source\PSoC4/USB_UART_UART.c ****         #endif
 556:Generated_Source\PSoC4/USB_UART_UART.c **** 
 557:Generated_Source\PSoC4/USB_UART_UART.c ****         if (0u != USB_UART_SpiUartGetRxBufferSize())
 395              		.loc 1 557 0
 396 0008 FFF7FEFF 		bl	USB_UART_SpiUartGetRxBufferSize
 397              	.LVL21:
 398 000c 0028     		cmp	r0, #0
 399 000e 06D0     		beq	.L23
 558:Generated_Source\PSoC4/USB_UART_UART.c ****         {
 559:Generated_Source\PSoC4/USB_UART_UART.c ****             /* Enables interrupt to receive more bytes: at least one byte is in
 560:Generated_Source\PSoC4/USB_UART_UART.c ****             * buffer.
 561:Generated_Source\PSoC4/USB_UART_UART.c ****             */
 562:Generated_Source\PSoC4/USB_UART_UART.c ****             #if (USB_UART_CHECK_RX_SW_BUFFER)
 563:Generated_Source\PSoC4/USB_UART_UART.c ****             {
 564:Generated_Source\PSoC4/USB_UART_UART.c ****                 USB_UART_EnableInt();
 400              		.loc 1 564 0
 401 0010 0B20     		movs	r0, #11
 402 0012 FFF7FEFF 		bl	CyIntEnable
 403              	.LVL22:
ARM GAS  C:\Users\AFDHAL~1\AppData\Local\Temp\cc1PgMpc.s 			page 18


 565:Generated_Source\PSoC4/USB_UART_UART.c ****             }
 566:Generated_Source\PSoC4/USB_UART_UART.c ****             #endif
 567:Generated_Source\PSoC4/USB_UART_UART.c **** 
 568:Generated_Source\PSoC4/USB_UART_UART.c ****             /* Get received byte */
 569:Generated_Source\PSoC4/USB_UART_UART.c ****             rxData = USB_UART_SpiUartReadRxData();
 404              		.loc 1 569 0
 405 0016 FFF7FEFF 		bl	USB_UART_SpiUartReadRxData
 406              	.LVL23:
 407 001a 0400     		movs	r4, r0
 408              	.LVL24:
 409 001c 07E0     		b	.L24
 410              	.LVL25:
 411              	.L23:
 570:Generated_Source\PSoC4/USB_UART_UART.c ****         }
 571:Generated_Source\PSoC4/USB_UART_UART.c ****         else
 572:Generated_Source\PSoC4/USB_UART_UART.c ****         {
 573:Generated_Source\PSoC4/USB_UART_UART.c ****             /* Reads a byte directly from RX FIFO: underflow is raised in the
 574:Generated_Source\PSoC4/USB_UART_UART.c ****             * case of empty. Otherwise the first received byte will be read.
 575:Generated_Source\PSoC4/USB_UART_UART.c ****             */
 576:Generated_Source\PSoC4/USB_UART_UART.c ****             rxData = USB_UART_RX_FIFO_RD_REG;
 412              		.loc 1 576 0
 413 001e 094B     		ldr	r3, .L25
 414 0020 1C68     		ldr	r4, [r3]
 415              	.LVL26:
 577:Generated_Source\PSoC4/USB_UART_UART.c **** 
 578:Generated_Source\PSoC4/USB_UART_UART.c **** 
 579:Generated_Source\PSoC4/USB_UART_UART.c ****             /* Enables interrupt to receive more bytes. */
 580:Generated_Source\PSoC4/USB_UART_UART.c ****             #if (USB_UART_CHECK_RX_SW_BUFFER)
 581:Generated_Source\PSoC4/USB_UART_UART.c ****             {
 582:Generated_Source\PSoC4/USB_UART_UART.c **** 
 583:Generated_Source\PSoC4/USB_UART_UART.c ****                 /* The byte has been read from RX FIFO. Clear RX interrupt to
 584:Generated_Source\PSoC4/USB_UART_UART.c ****                 * not involve interrupt handler when RX FIFO is empty.
 585:Generated_Source\PSoC4/USB_UART_UART.c ****                 */
 586:Generated_Source\PSoC4/USB_UART_UART.c ****                 USB_UART_ClearRxInterruptSource(USB_UART_INTR_RX_NOT_EMPTY);
 416              		.loc 1 586 0
 417 0022 0422     		movs	r2, #4
 418 0024 084B     		ldr	r3, .L25+4
 419 0026 1A60     		str	r2, [r3]
 587:Generated_Source\PSoC4/USB_UART_UART.c **** 
 588:Generated_Source\PSoC4/USB_UART_UART.c ****                 USB_UART_EnableInt();
 420              		.loc 1 588 0
 421 0028 0B20     		movs	r0, #11
 422 002a FFF7FEFF 		bl	CyIntEnable
 423              	.LVL27:
 424              	.L24:
 589:Generated_Source\PSoC4/USB_UART_UART.c ****             }
 590:Generated_Source\PSoC4/USB_UART_UART.c ****             #endif
 591:Generated_Source\PSoC4/USB_UART_UART.c ****         }
 592:Generated_Source\PSoC4/USB_UART_UART.c **** 
 593:Generated_Source\PSoC4/USB_UART_UART.c ****         /* Get and clear RX error mask */
 594:Generated_Source\PSoC4/USB_UART_UART.c ****         tmpStatus = (USB_UART_GetRxInterruptSource() & USB_UART_INTR_RX_ERR);
 425              		.loc 1 594 0
 426 002e 064B     		ldr	r3, .L25+4
 427 0030 1868     		ldr	r0, [r3]
 428              	.LVL28:
 595:Generated_Source\PSoC4/USB_UART_UART.c ****         USB_UART_ClearRxInterruptSource(USB_UART_INTR_RX_ERR);
 429              		.loc 1 595 0
ARM GAS  C:\Users\AFDHAL~1\AppData\Local\Temp\cc1PgMpc.s 			page 19


 430 0032 D822     		movs	r2, #216
 431 0034 9200     		lsls	r2, r2, #2
 432 0036 1A60     		str	r2, [r3]
 596:Generated_Source\PSoC4/USB_UART_UART.c **** 
 597:Generated_Source\PSoC4/USB_UART_UART.c ****         /* Puts together data and error status:
 598:Generated_Source\PSoC4/USB_UART_UART.c ****         * MP mode and accept address: 9th bit is set to notify mark.
 599:Generated_Source\PSoC4/USB_UART_UART.c ****         */
 600:Generated_Source\PSoC4/USB_UART_UART.c ****         rxData |= ((uint32) (tmpStatus << 8u));
 433              		.loc 1 600 0
 434 0038 0002     		lsls	r0, r0, #8
 435              	.LVL29:
 436 003a D823     		movs	r3, #216
 437 003c 9B02     		lsls	r3, r3, #10
 438 003e 1840     		ands	r0, r3
 439 0040 2043     		orrs	r0, r4
 440              	.LVL30:
 601:Generated_Source\PSoC4/USB_UART_UART.c **** 
 602:Generated_Source\PSoC4/USB_UART_UART.c ****         return (rxData);
 603:Generated_Source\PSoC4/USB_UART_UART.c ****     }
 441              		.loc 1 603 0
 442              		@ sp needed
 443 0042 10BD     		pop	{r4, pc}
 444              	.L26:
 445              		.align	2
 446              	.L25:
 447 0044 40032740 		.word	1076298560
 448 0048 C00F2740 		.word	1076301760
 449              		.cfi_endproc
 450              	.LFE7:
 451              		.size	USB_UART_UartGetByte, .-USB_UART_UartGetByte
 452              		.section	.text.USB_UART_UartSetRtsPolarity,"ax",%progbits
 453              		.align	2
 454              		.global	USB_UART_UartSetRtsPolarity
 455              		.code	16
 456              		.thumb_func
 457              		.type	USB_UART_UartSetRtsPolarity, %function
 458              	USB_UART_UartSetRtsPolarity:
 459              	.LFB8:
 604:Generated_Source\PSoC4/USB_UART_UART.c **** 
 605:Generated_Source\PSoC4/USB_UART_UART.c **** 
 606:Generated_Source\PSoC4/USB_UART_UART.c ****     #if !(USB_UART_CY_SCBIP_V0 || USB_UART_CY_SCBIP_V1)
 607:Generated_Source\PSoC4/USB_UART_UART.c ****         /*******************************************************************************
 608:Generated_Source\PSoC4/USB_UART_UART.c ****         * Function Name: USB_UART_UartSetRtsPolarity
 609:Generated_Source\PSoC4/USB_UART_UART.c ****         ****************************************************************************//**
 610:Generated_Source\PSoC4/USB_UART_UART.c ****         *
 611:Generated_Source\PSoC4/USB_UART_UART.c ****         *  Sets active polarity of RTS output signal.
 612:Generated_Source\PSoC4/USB_UART_UART.c ****         *  Only available for PSoC 4100 BLE / PSoC 4200 BLE / PSoC 4100M / PSoC 4200M /
 613:Generated_Source\PSoC4/USB_UART_UART.c ****         *  PSoC 4200L / PSoC 4000S / PSoC 4100S / PSoC Analog Coprocessor devices.
 614:Generated_Source\PSoC4/USB_UART_UART.c ****         *
 615:Generated_Source\PSoC4/USB_UART_UART.c ****         *  \param polarity: Active polarity of RTS output signal.
 616:Generated_Source\PSoC4/USB_UART_UART.c ****         *   - USB_UART_UART_RTS_ACTIVE_LOW  - RTS signal is active low.
 617:Generated_Source\PSoC4/USB_UART_UART.c ****         *   - USB_UART_UART_RTS_ACTIVE_HIGH - RTS signal is active high.
 618:Generated_Source\PSoC4/USB_UART_UART.c ****         *
 619:Generated_Source\PSoC4/USB_UART_UART.c ****         *******************************************************************************/
 620:Generated_Source\PSoC4/USB_UART_UART.c ****         void USB_UART_UartSetRtsPolarity(uint32 polarity)
 621:Generated_Source\PSoC4/USB_UART_UART.c ****         {
 460              		.loc 1 621 0
ARM GAS  C:\Users\AFDHAL~1\AppData\Local\Temp\cc1PgMpc.s 			page 20


 461              		.cfi_startproc
 462              		@ args = 0, pretend = 0, frame = 0
 463              		@ frame_needed = 0, uses_anonymous_args = 0
 464              		@ link register save eliminated.
 465              	.LVL31:
 622:Generated_Source\PSoC4/USB_UART_UART.c ****             if(0u != polarity)
 466              		.loc 1 622 0
 467 0000 0028     		cmp	r0, #0
 468 0002 06D0     		beq	.L28
 623:Generated_Source\PSoC4/USB_UART_UART.c ****             {
 624:Generated_Source\PSoC4/USB_UART_UART.c ****                 USB_UART_UART_FLOW_CTRL_REG |= (uint32)  USB_UART_UART_FLOW_CTRL_RTS_POLARITY;
 469              		.loc 1 624 0
 470 0004 064A     		ldr	r2, .L30
 471 0006 1368     		ldr	r3, [r2]
 472 0008 8021     		movs	r1, #128
 473 000a 4902     		lsls	r1, r1, #9
 474 000c 0B43     		orrs	r3, r1
 475 000e 1360     		str	r3, [r2]
 476 0010 04E0     		b	.L27
 477              	.L28:
 625:Generated_Source\PSoC4/USB_UART_UART.c ****             }
 626:Generated_Source\PSoC4/USB_UART_UART.c ****             else
 627:Generated_Source\PSoC4/USB_UART_UART.c ****             {
 628:Generated_Source\PSoC4/USB_UART_UART.c ****                 USB_UART_UART_FLOW_CTRL_REG &= (uint32) ~USB_UART_UART_FLOW_CTRL_RTS_POLARITY;
 478              		.loc 1 628 0
 479 0012 034A     		ldr	r2, .L30
 480 0014 1168     		ldr	r1, [r2]
 481 0016 034B     		ldr	r3, .L30+4
 482 0018 0B40     		ands	r3, r1
 483 001a 1360     		str	r3, [r2]
 484              	.L27:
 629:Generated_Source\PSoC4/USB_UART_UART.c ****             }
 630:Generated_Source\PSoC4/USB_UART_UART.c ****         }
 485              		.loc 1 630 0
 486              		@ sp needed
 487 001c 7047     		bx	lr
 488              	.L31:
 489 001e C046     		.align	2
 490              	.L30:
 491 0020 50002740 		.word	1076297808
 492 0024 FFFFFEFF 		.word	-65537
 493              		.cfi_endproc
 494              	.LFE8:
 495              		.size	USB_UART_UartSetRtsPolarity, .-USB_UART_UartSetRtsPolarity
 496              		.section	.text.USB_UART_UartSetRtsFifoLevel,"ax",%progbits
 497              		.align	2
 498              		.global	USB_UART_UartSetRtsFifoLevel
 499              		.code	16
 500              		.thumb_func
 501              		.type	USB_UART_UartSetRtsFifoLevel, %function
 502              	USB_UART_UartSetRtsFifoLevel:
 503              	.LFB9:
 631:Generated_Source\PSoC4/USB_UART_UART.c **** 
 632:Generated_Source\PSoC4/USB_UART_UART.c **** 
 633:Generated_Source\PSoC4/USB_UART_UART.c ****         /*******************************************************************************
 634:Generated_Source\PSoC4/USB_UART_UART.c ****         * Function Name: USB_UART_UartSetRtsFifoLevel
 635:Generated_Source\PSoC4/USB_UART_UART.c ****         ****************************************************************************//**
ARM GAS  C:\Users\AFDHAL~1\AppData\Local\Temp\cc1PgMpc.s 			page 21


 636:Generated_Source\PSoC4/USB_UART_UART.c ****         *
 637:Generated_Source\PSoC4/USB_UART_UART.c ****         *  Sets level in the RX FIFO for RTS signal activation.
 638:Generated_Source\PSoC4/USB_UART_UART.c ****         *  While the RX FIFO has fewer entries than the RX FIFO level the RTS signal
 639:Generated_Source\PSoC4/USB_UART_UART.c ****         *  remains active, otherwise the RTS signal becomes inactive.
 640:Generated_Source\PSoC4/USB_UART_UART.c ****         *  Only available for PSoC 4100 BLE / PSoC 4200 BLE / PSoC 4100M / PSoC 4200M /
 641:Generated_Source\PSoC4/USB_UART_UART.c ****         *  PSoC 4200L / PSoC 4000S / PSoC 4100S / PSoC Analog Coprocessor devices.
 642:Generated_Source\PSoC4/USB_UART_UART.c ****         *
 643:Generated_Source\PSoC4/USB_UART_UART.c ****         *  \param level: Level in the RX FIFO for RTS signal activation.
 644:Generated_Source\PSoC4/USB_UART_UART.c ****         *   The range of valid level values is between 0 and RX FIFO depth - 1.
 645:Generated_Source\PSoC4/USB_UART_UART.c ****         *   Setting level value to 0 disables RTS signal activation.
 646:Generated_Source\PSoC4/USB_UART_UART.c ****         *
 647:Generated_Source\PSoC4/USB_UART_UART.c ****         *******************************************************************************/
 648:Generated_Source\PSoC4/USB_UART_UART.c ****         void USB_UART_UartSetRtsFifoLevel(uint32 level)
 649:Generated_Source\PSoC4/USB_UART_UART.c ****         {
 504              		.loc 1 649 0
 505              		.cfi_startproc
 506              		@ args = 0, pretend = 0, frame = 0
 507              		@ frame_needed = 0, uses_anonymous_args = 0
 508              		@ link register save eliminated.
 509              	.LVL32:
 650:Generated_Source\PSoC4/USB_UART_UART.c ****             uint32 uartFlowCtrl;
 651:Generated_Source\PSoC4/USB_UART_UART.c **** 
 652:Generated_Source\PSoC4/USB_UART_UART.c ****             uartFlowCtrl = USB_UART_UART_FLOW_CTRL_REG;
 510              		.loc 1 652 0
 511 0000 034A     		ldr	r2, .L33
 512 0002 1368     		ldr	r3, [r2]
 513              	.LVL33:
 653:Generated_Source\PSoC4/USB_UART_UART.c **** 
 654:Generated_Source\PSoC4/USB_UART_UART.c ****             uartFlowCtrl &= ((uint32) ~USB_UART_UART_FLOW_CTRL_TRIGGER_LEVEL_MASK); /* Clear level 
 514              		.loc 1 654 0
 515 0004 0F21     		movs	r1, #15
 516 0006 8B43     		bics	r3, r1
 517              	.LVL34:
 655:Generated_Source\PSoC4/USB_UART_UART.c ****             uartFlowCtrl |= ((uint32) (USB_UART_UART_FLOW_CTRL_TRIGGER_LEVEL_MASK & level));
 518              		.loc 1 655 0
 519 0008 0840     		ands	r0, r1
 520              	.LVL35:
 521 000a 1843     		orrs	r0, r3
 522              	.LVL36:
 656:Generated_Source\PSoC4/USB_UART_UART.c **** 
 657:Generated_Source\PSoC4/USB_UART_UART.c ****             USB_UART_UART_FLOW_CTRL_REG = uartFlowCtrl;
 523              		.loc 1 657 0
 524 000c 1060     		str	r0, [r2]
 658:Generated_Source\PSoC4/USB_UART_UART.c ****         }
 525              		.loc 1 658 0
 526              		@ sp needed
 527 000e 7047     		bx	lr
 528              	.L34:
 529              		.align	2
 530              	.L33:
 531 0010 50002740 		.word	1076297808
 532              		.cfi_endproc
 533              	.LFE9:
 534              		.size	USB_UART_UartSetRtsFifoLevel, .-USB_UART_UartSetRtsFifoLevel
 535              		.section	.text.USB_UART_UartPutString,"ax",%progbits
 536              		.align	2
 537              		.global	USB_UART_UartPutString
ARM GAS  C:\Users\AFDHAL~1\AppData\Local\Temp\cc1PgMpc.s 			page 22


 538              		.code	16
 539              		.thumb_func
 540              		.type	USB_UART_UartPutString, %function
 541              	USB_UART_UartPutString:
 542              	.LFB10:
 659:Generated_Source\PSoC4/USB_UART_UART.c ****     #endif /* !(USB_UART_CY_SCBIP_V0 || USB_UART_CY_SCBIP_V1) */
 660:Generated_Source\PSoC4/USB_UART_UART.c **** 
 661:Generated_Source\PSoC4/USB_UART_UART.c **** #endif /* (USB_UART_UART_RX_DIRECTION) */
 662:Generated_Source\PSoC4/USB_UART_UART.c **** 
 663:Generated_Source\PSoC4/USB_UART_UART.c **** 
 664:Generated_Source\PSoC4/USB_UART_UART.c **** #if(USB_UART_UART_TX_DIRECTION)
 665:Generated_Source\PSoC4/USB_UART_UART.c ****     /*******************************************************************************
 666:Generated_Source\PSoC4/USB_UART_UART.c ****     * Function Name: USB_UART_UartPutString
 667:Generated_Source\PSoC4/USB_UART_UART.c ****     ****************************************************************************//**
 668:Generated_Source\PSoC4/USB_UART_UART.c ****     *
 669:Generated_Source\PSoC4/USB_UART_UART.c ****     *  Places a NULL terminated string in the transmit buffer to be sent at the
 670:Generated_Source\PSoC4/USB_UART_UART.c ****     *  next available bus time.
 671:Generated_Source\PSoC4/USB_UART_UART.c ****     *  This function is blocking and waits until there is a space available to put
 672:Generated_Source\PSoC4/USB_UART_UART.c ****     *  requested data in transmit buffer.
 673:Generated_Source\PSoC4/USB_UART_UART.c ****     *
 674:Generated_Source\PSoC4/USB_UART_UART.c ****     *  \param string: pointer to the null terminated string array to be placed in the
 675:Generated_Source\PSoC4/USB_UART_UART.c ****     *   transmit buffer.
 676:Generated_Source\PSoC4/USB_UART_UART.c ****     *
 677:Generated_Source\PSoC4/USB_UART_UART.c ****     *******************************************************************************/
 678:Generated_Source\PSoC4/USB_UART_UART.c ****     void USB_UART_UartPutString(const char8 string[])
 679:Generated_Source\PSoC4/USB_UART_UART.c ****     {
 543              		.loc 1 679 0
 544              		.cfi_startproc
 545              		@ args = 0, pretend = 0, frame = 0
 546              		@ frame_needed = 0, uses_anonymous_args = 0
 547              	.LVL37:
 548 0000 70B5     		push	{r4, r5, r6, lr}
 549              		.cfi_def_cfa_offset 16
 550              		.cfi_offset 4, -16
 551              		.cfi_offset 5, -12
 552              		.cfi_offset 6, -8
 553              		.cfi_offset 14, -4
 554 0002 0500     		movs	r5, r0
 555              	.LVL38:
 680:Generated_Source\PSoC4/USB_UART_UART.c ****         uint32 bufIndex;
 681:Generated_Source\PSoC4/USB_UART_UART.c **** 
 682:Generated_Source\PSoC4/USB_UART_UART.c ****         bufIndex = 0u;
 556              		.loc 1 682 0
 557 0004 0024     		movs	r4, #0
 683:Generated_Source\PSoC4/USB_UART_UART.c **** 
 684:Generated_Source\PSoC4/USB_UART_UART.c ****         /* Blocks the control flow until all data has been sent */
 685:Generated_Source\PSoC4/USB_UART_UART.c ****         while(string[bufIndex] != ((char8) 0))
 558              		.loc 1 685 0
 559 0006 02E0     		b	.L36
 560              	.LVL39:
 561              	.L37:
 686:Generated_Source\PSoC4/USB_UART_UART.c ****         {
 687:Generated_Source\PSoC4/USB_UART_UART.c ****             USB_UART_UartPutChar((uint32) string[bufIndex]);
 562              		.loc 1 687 0
 563 0008 FFF7FEFF 		bl	USB_UART_SpiUartWriteTxData
 564              	.LVL40:
 688:Generated_Source\PSoC4/USB_UART_UART.c ****             bufIndex++;
ARM GAS  C:\Users\AFDHAL~1\AppData\Local\Temp\cc1PgMpc.s 			page 23


 565              		.loc 1 688 0
 566 000c 0134     		adds	r4, r4, #1
 567              	.LVL41:
 568              	.L36:
 685:Generated_Source\PSoC4/USB_UART_UART.c ****         {
 569              		.loc 1 685 0
 570 000e 285D     		ldrb	r0, [r5, r4]
 571 0010 0028     		cmp	r0, #0
 572 0012 F9D1     		bne	.L37
 689:Generated_Source\PSoC4/USB_UART_UART.c ****         }
 690:Generated_Source\PSoC4/USB_UART_UART.c ****     }
 573              		.loc 1 690 0
 574              		@ sp needed
 575              	.LVL42:
 576              	.LVL43:
 577 0014 70BD     		pop	{r4, r5, r6, pc}
 578              		.cfi_endproc
 579              	.LFE10:
 580              		.size	USB_UART_UartPutString, .-USB_UART_UartPutString
 581 0016 C046     		.section	.text.USB_UART_UartPutCRLF,"ax",%progbits
 582              		.align	2
 583              		.global	USB_UART_UartPutCRLF
 584              		.code	16
 585              		.thumb_func
 586              		.type	USB_UART_UartPutCRLF, %function
 587              	USB_UART_UartPutCRLF:
 588              	.LFB11:
 691:Generated_Source\PSoC4/USB_UART_UART.c **** 
 692:Generated_Source\PSoC4/USB_UART_UART.c **** 
 693:Generated_Source\PSoC4/USB_UART_UART.c ****     /*******************************************************************************
 694:Generated_Source\PSoC4/USB_UART_UART.c ****     * Function Name: USB_UART_UartPutCRLF
 695:Generated_Source\PSoC4/USB_UART_UART.c ****     ****************************************************************************//**
 696:Generated_Source\PSoC4/USB_UART_UART.c ****     *
 697:Generated_Source\PSoC4/USB_UART_UART.c ****     *  Places byte of data followed by a carriage return (0x0D) and line feed
 698:Generated_Source\PSoC4/USB_UART_UART.c ****     *  (0x0A) in the transmit buffer.
 699:Generated_Source\PSoC4/USB_UART_UART.c ****     *  This function is blocking and waits until there is a space available to put
 700:Generated_Source\PSoC4/USB_UART_UART.c ****     *  all requested data in transmit buffer.
 701:Generated_Source\PSoC4/USB_UART_UART.c ****     *
 702:Generated_Source\PSoC4/USB_UART_UART.c ****     *  \param txDataByte: the data to be transmitted.
 703:Generated_Source\PSoC4/USB_UART_UART.c ****     *
 704:Generated_Source\PSoC4/USB_UART_UART.c ****     *******************************************************************************/
 705:Generated_Source\PSoC4/USB_UART_UART.c ****     void USB_UART_UartPutCRLF(uint32 txDataByte)
 706:Generated_Source\PSoC4/USB_UART_UART.c ****     {
 589              		.loc 1 706 0
 590              		.cfi_startproc
 591              		@ args = 0, pretend = 0, frame = 0
 592              		@ frame_needed = 0, uses_anonymous_args = 0
 593              	.LVL44:
 594 0000 10B5     		push	{r4, lr}
 595              		.cfi_def_cfa_offset 8
 596              		.cfi_offset 4, -8
 597              		.cfi_offset 14, -4
 707:Generated_Source\PSoC4/USB_UART_UART.c ****         USB_UART_UartPutChar(txDataByte);  /* Blocks control flow until all data has been sent */
 598              		.loc 1 707 0
 599 0002 FFF7FEFF 		bl	USB_UART_SpiUartWriteTxData
 600              	.LVL45:
 708:Generated_Source\PSoC4/USB_UART_UART.c ****         USB_UART_UartPutChar(0x0Du);       /* Blocks control flow until all data has been sent */
ARM GAS  C:\Users\AFDHAL~1\AppData\Local\Temp\cc1PgMpc.s 			page 24


 601              		.loc 1 708 0
 602 0006 0D20     		movs	r0, #13
 603 0008 FFF7FEFF 		bl	USB_UART_SpiUartWriteTxData
 604              	.LVL46:
 709:Generated_Source\PSoC4/USB_UART_UART.c ****         USB_UART_UartPutChar(0x0Au);       /* Blocks control flow until all data has been sent */
 605              		.loc 1 709 0
 606 000c 0A20     		movs	r0, #10
 607 000e FFF7FEFF 		bl	USB_UART_SpiUartWriteTxData
 608              	.LVL47:
 710:Generated_Source\PSoC4/USB_UART_UART.c ****     }
 609              		.loc 1 710 0
 610              		@ sp needed
 611 0012 10BD     		pop	{r4, pc}
 612              		.cfi_endproc
 613              	.LFE11:
 614              		.size	USB_UART_UartPutCRLF, .-USB_UART_UartPutCRLF
 615              		.section	.text.USB_UART_UartEnableCts,"ax",%progbits
 616              		.align	2
 617              		.global	USB_UART_UartEnableCts
 618              		.code	16
 619              		.thumb_func
 620              		.type	USB_UART_UartEnableCts, %function
 621              	USB_UART_UartEnableCts:
 622              	.LFB12:
 711:Generated_Source\PSoC4/USB_UART_UART.c **** 
 712:Generated_Source\PSoC4/USB_UART_UART.c **** 
 713:Generated_Source\PSoC4/USB_UART_UART.c ****     #if !(USB_UART_CY_SCBIP_V0 || USB_UART_CY_SCBIP_V1)
 714:Generated_Source\PSoC4/USB_UART_UART.c ****         /*******************************************************************************
 715:Generated_Source\PSoC4/USB_UART_UART.c ****         * Function Name: USB_UARTSCB_UartEnableCts
 716:Generated_Source\PSoC4/USB_UART_UART.c ****         ****************************************************************************//**
 717:Generated_Source\PSoC4/USB_UART_UART.c ****         *
 718:Generated_Source\PSoC4/USB_UART_UART.c ****         *  Enables usage of CTS input signal by the UART transmitter.
 719:Generated_Source\PSoC4/USB_UART_UART.c ****         *  Only available for PSoC 4100 BLE / PSoC 4200 BLE / PSoC 4100M / PSoC 4200M /
 720:Generated_Source\PSoC4/USB_UART_UART.c ****         *  PSoC 4200L / PSoC 4000S / PSoC 4100S / PSoC Analog Coprocessor devices.
 721:Generated_Source\PSoC4/USB_UART_UART.c ****         *
 722:Generated_Source\PSoC4/USB_UART_UART.c ****         *******************************************************************************/
 723:Generated_Source\PSoC4/USB_UART_UART.c ****         void USB_UART_UartEnableCts(void)
 724:Generated_Source\PSoC4/USB_UART_UART.c ****         {
 623              		.loc 1 724 0
 624              		.cfi_startproc
 625              		@ args = 0, pretend = 0, frame = 0
 626              		@ frame_needed = 0, uses_anonymous_args = 0
 627              		@ link register save eliminated.
 725:Generated_Source\PSoC4/USB_UART_UART.c ****             USB_UART_UART_FLOW_CTRL_REG |= (uint32)  USB_UART_UART_FLOW_CTRL_CTS_ENABLE;
 628              		.loc 1 725 0
 629 0000 034A     		ldr	r2, .L40
 630 0002 1368     		ldr	r3, [r2]
 631 0004 8021     		movs	r1, #128
 632 0006 8904     		lsls	r1, r1, #18
 633 0008 0B43     		orrs	r3, r1
 634 000a 1360     		str	r3, [r2]
 726:Generated_Source\PSoC4/USB_UART_UART.c ****         }
 635              		.loc 1 726 0
 636              		@ sp needed
 637 000c 7047     		bx	lr
 638              	.L41:
 639 000e C046     		.align	2
ARM GAS  C:\Users\AFDHAL~1\AppData\Local\Temp\cc1PgMpc.s 			page 25


 640              	.L40:
 641 0010 50002740 		.word	1076297808
 642              		.cfi_endproc
 643              	.LFE12:
 644              		.size	USB_UART_UartEnableCts, .-USB_UART_UartEnableCts
 645              		.section	.text.USB_UART_UartDisableCts,"ax",%progbits
 646              		.align	2
 647              		.global	USB_UART_UartDisableCts
 648              		.code	16
 649              		.thumb_func
 650              		.type	USB_UART_UartDisableCts, %function
 651              	USB_UART_UartDisableCts:
 652              	.LFB13:
 727:Generated_Source\PSoC4/USB_UART_UART.c **** 
 728:Generated_Source\PSoC4/USB_UART_UART.c **** 
 729:Generated_Source\PSoC4/USB_UART_UART.c ****         /*******************************************************************************
 730:Generated_Source\PSoC4/USB_UART_UART.c ****         * Function Name: USB_UART_UartDisableCts
 731:Generated_Source\PSoC4/USB_UART_UART.c ****         ****************************************************************************//**
 732:Generated_Source\PSoC4/USB_UART_UART.c ****         *
 733:Generated_Source\PSoC4/USB_UART_UART.c ****         *  Disables usage of CTS input signal by the UART transmitter.
 734:Generated_Source\PSoC4/USB_UART_UART.c ****         *  Only available for PSoC 4100 BLE / PSoC 4200 BLE / PSoC 4100M / PSoC 4200M /
 735:Generated_Source\PSoC4/USB_UART_UART.c ****         *  PSoC 4200L / PSoC 4000S / PSoC 4100S / PSoC Analog Coprocessor devices.
 736:Generated_Source\PSoC4/USB_UART_UART.c ****         *
 737:Generated_Source\PSoC4/USB_UART_UART.c ****         *******************************************************************************/
 738:Generated_Source\PSoC4/USB_UART_UART.c ****         void USB_UART_UartDisableCts(void)
 739:Generated_Source\PSoC4/USB_UART_UART.c ****         {
 653              		.loc 1 739 0
 654              		.cfi_startproc
 655              		@ args = 0, pretend = 0, frame = 0
 656              		@ frame_needed = 0, uses_anonymous_args = 0
 657              		@ link register save eliminated.
 740:Generated_Source\PSoC4/USB_UART_UART.c ****             USB_UART_UART_FLOW_CTRL_REG &= (uint32) ~USB_UART_UART_FLOW_CTRL_CTS_ENABLE;
 658              		.loc 1 740 0
 659 0000 024A     		ldr	r2, .L43
 660 0002 1168     		ldr	r1, [r2]
 661 0004 024B     		ldr	r3, .L43+4
 662 0006 0B40     		ands	r3, r1
 663 0008 1360     		str	r3, [r2]
 741:Generated_Source\PSoC4/USB_UART_UART.c ****         }
 664              		.loc 1 741 0
 665              		@ sp needed
 666 000a 7047     		bx	lr
 667              	.L44:
 668              		.align	2
 669              	.L43:
 670 000c 50002740 		.word	1076297808
 671 0010 FFFFFFFD 		.word	-33554433
 672              		.cfi_endproc
 673              	.LFE13:
 674              		.size	USB_UART_UartDisableCts, .-USB_UART_UartDisableCts
 675              		.section	.text.USB_UART_UartSetCtsPolarity,"ax",%progbits
 676              		.align	2
 677              		.global	USB_UART_UartSetCtsPolarity
 678              		.code	16
 679              		.thumb_func
 680              		.type	USB_UART_UartSetCtsPolarity, %function
 681              	USB_UART_UartSetCtsPolarity:
ARM GAS  C:\Users\AFDHAL~1\AppData\Local\Temp\cc1PgMpc.s 			page 26


 682              	.LFB14:
 742:Generated_Source\PSoC4/USB_UART_UART.c **** 
 743:Generated_Source\PSoC4/USB_UART_UART.c **** 
 744:Generated_Source\PSoC4/USB_UART_UART.c ****         /*******************************************************************************
 745:Generated_Source\PSoC4/USB_UART_UART.c ****         * Function Name: USB_UART_UartSetCtsPolarity
 746:Generated_Source\PSoC4/USB_UART_UART.c ****         ****************************************************************************//**
 747:Generated_Source\PSoC4/USB_UART_UART.c ****         *
 748:Generated_Source\PSoC4/USB_UART_UART.c ****         *  Sets active polarity of CTS input signal.
 749:Generated_Source\PSoC4/USB_UART_UART.c ****         *  Only available for PSoC 4100 BLE / PSoC 4200 BLE / PSoC 4100M / PSoC 4200M /
 750:Generated_Source\PSoC4/USB_UART_UART.c ****         *  PSoC 4200L / PSoC 4000S / PSoC 4100S / PSoC Analog Coprocessor devices.
 751:Generated_Source\PSoC4/USB_UART_UART.c ****         *
 752:Generated_Source\PSoC4/USB_UART_UART.c ****         *  \param polarity: Active polarity of CTS output signal.
 753:Generated_Source\PSoC4/USB_UART_UART.c ****         *   - USB_UART_UART_CTS_ACTIVE_LOW  - CTS signal is active low.
 754:Generated_Source\PSoC4/USB_UART_UART.c ****         *   - USB_UART_UART_CTS_ACTIVE_HIGH - CTS signal is active high.
 755:Generated_Source\PSoC4/USB_UART_UART.c ****         *
 756:Generated_Source\PSoC4/USB_UART_UART.c ****         *******************************************************************************/
 757:Generated_Source\PSoC4/USB_UART_UART.c ****         void USB_UART_UartSetCtsPolarity(uint32 polarity)
 758:Generated_Source\PSoC4/USB_UART_UART.c ****         {
 683              		.loc 1 758 0
 684              		.cfi_startproc
 685              		@ args = 0, pretend = 0, frame = 0
 686              		@ frame_needed = 0, uses_anonymous_args = 0
 687              		@ link register save eliminated.
 688              	.LVL48:
 759:Generated_Source\PSoC4/USB_UART_UART.c ****             if (0u != polarity)
 689              		.loc 1 759 0
 690 0000 0028     		cmp	r0, #0
 691 0002 06D0     		beq	.L46
 760:Generated_Source\PSoC4/USB_UART_UART.c ****             {
 761:Generated_Source\PSoC4/USB_UART_UART.c ****                 USB_UART_UART_FLOW_CTRL_REG |= (uint32)  USB_UART_UART_FLOW_CTRL_CTS_POLARITY;
 692              		.loc 1 761 0
 693 0004 064A     		ldr	r2, .L48
 694 0006 1368     		ldr	r3, [r2]
 695 0008 8021     		movs	r1, #128
 696 000a 4904     		lsls	r1, r1, #17
 697 000c 0B43     		orrs	r3, r1
 698 000e 1360     		str	r3, [r2]
 699 0010 04E0     		b	.L45
 700              	.L46:
 762:Generated_Source\PSoC4/USB_UART_UART.c ****             }
 763:Generated_Source\PSoC4/USB_UART_UART.c ****             else
 764:Generated_Source\PSoC4/USB_UART_UART.c ****             {
 765:Generated_Source\PSoC4/USB_UART_UART.c ****                 USB_UART_UART_FLOW_CTRL_REG &= (uint32) ~USB_UART_UART_FLOW_CTRL_CTS_POLARITY;
 701              		.loc 1 765 0
 702 0012 034A     		ldr	r2, .L48
 703 0014 1168     		ldr	r1, [r2]
 704 0016 034B     		ldr	r3, .L48+4
 705 0018 0B40     		ands	r3, r1
 706 001a 1360     		str	r3, [r2]
 707              	.L45:
 766:Generated_Source\PSoC4/USB_UART_UART.c ****             }
 767:Generated_Source\PSoC4/USB_UART_UART.c ****         }
 708              		.loc 1 767 0
 709              		@ sp needed
 710 001c 7047     		bx	lr
 711              	.L49:
 712 001e C046     		.align	2
ARM GAS  C:\Users\AFDHAL~1\AppData\Local\Temp\cc1PgMpc.s 			page 27


 713              	.L48:
 714 0020 50002740 		.word	1076297808
 715 0024 FFFFFFFE 		.word	-16777217
 716              		.cfi_endproc
 717              	.LFE14:
 718              		.size	USB_UART_UartSetCtsPolarity, .-USB_UART_UartSetCtsPolarity
 719              		.text
 720              	.Letext0:
 721              		.file 2 "Generated_Source\\PSoC4/cytypes.h"
 722              		.file 3 "Generated_Source\\PSoC4\\USB_UART_PVT.h"
 723              		.file 4 "Generated_Source\\PSoC4\\USB_UART_SPI_UART_PVT.h"
 724              		.file 5 "Generated_Source\\PSoC4/CyLib.h"
 725              		.file 6 "Generated_Source\\PSoC4\\USB_UART_SPI_UART.h"