ARM GAS  C:\Users\AFDHAL~1\AppData\Local\Temp\cczjM8xh.s 			page 1


   1              		.syntax unified
   2              		.cpu cortex-m0
   3              		.fpu softvfp
   4              		.eabi_attribute 20, 1
   5              		.eabi_attribute 21, 1
   6              		.eabi_attribute 23, 3
   7              		.eabi_attribute 24, 1
   8              		.eabi_attribute 25, 1
   9              		.eabi_attribute 26, 1
  10              		.eabi_attribute 30, 4
  11              		.eabi_attribute 34, 0
  12              		.eabi_attribute 18, 4
  13              		.thumb
  14              		.syntax unified
  15              		.file	"nRF24_COMMANDS.c"
  16              		.text
  17              	.Ltext0:
  18              		.cfi_sections	.debug_frame
  19              		.section	.text.nRF24_send_command,"ax",%progbits
  20              		.align	1
  21              		.global	nRF24_send_command
  22              		.code	16
  23              		.thumb_func
  24              		.type	nRF24_send_command, %function
  25              	nRF24_send_command:
  26              	.LFB1:
  27              		.file 1 "Generated_Source\\PSoC4\\nRF24_COMMANDS.c"
   1:Generated_Source\PSoC4/nRF24_COMMANDS.c **** /****************************************************************************
   2:Generated_Source\PSoC4/nRF24_COMMANDS.c **** * This file is part of the nRF24 Custom Component for PSoC Devices.
   3:Generated_Source\PSoC4/nRF24_COMMANDS.c **** *
   4:Generated_Source\PSoC4/nRF24_COMMANDS.c **** * Copyright (C) 2017 Carlos Diaz <carlos.santiago.diaz@gmail.com>
   5:Generated_Source\PSoC4/nRF24_COMMANDS.c **** *
   6:Generated_Source\PSoC4/nRF24_COMMANDS.c **** * Permission to use, copy, modify, and/or distribute this software for any
   7:Generated_Source\PSoC4/nRF24_COMMANDS.c **** * purpose with or without fee is hereby granted, provided that the above
   8:Generated_Source\PSoC4/nRF24_COMMANDS.c **** * copyright notice and this permission notice appear in all copies.
   9:Generated_Source\PSoC4/nRF24_COMMANDS.c **** *
  10:Generated_Source\PSoC4/nRF24_COMMANDS.c **** * THE SOFTWARE IS PROVIDED "AS IS" AND THE AUTHOR DISCLAIMS ALL WARRANTIES
  11:Generated_Source\PSoC4/nRF24_COMMANDS.c **** * WITH REGARD TO THIS SOFTWARE INCLUDING ALL IMPLIED WARRANTIES OF
  12:Generated_Source\PSoC4/nRF24_COMMANDS.c **** * MERCHANTABILITY AND FITNESS. IN NO EVENT SHALL THE AUTHOR BE LIABLE FOR
  13:Generated_Source\PSoC4/nRF24_COMMANDS.c **** * ANY SPECIAL, DIRECT, INDIRECT, OR CONSEQUENTIAL DAMAGES OR ANY DAMAGES
  14:Generated_Source\PSoC4/nRF24_COMMANDS.c **** * WHATSOEVER RESULTING FROM LOSS OF USE, DATA OR PROFITS, WHETHER IN AN
  15:Generated_Source\PSoC4/nRF24_COMMANDS.c **** * ACTION OF CONTRACT, NEGLIGENCE OR OTHER TORTIOUS ACTION, ARISING OUT OF
  16:Generated_Source\PSoC4/nRF24_COMMANDS.c **** * OR IN CONNECTION WITH THE USE OR PERFORMANCE OF THIS SOFTWARE.
  17:Generated_Source\PSoC4/nRF24_COMMANDS.c **** ****************************************************************************/
  18:Generated_Source\PSoC4/nRF24_COMMANDS.c **** 
  19:Generated_Source\PSoC4/nRF24_COMMANDS.c **** /**
  20:Generated_Source\PSoC4/nRF24_COMMANDS.c **** * @file nRF24_COMMANDS.c
  21:Generated_Source\PSoC4/nRF24_COMMANDS.c **** *
  22:Generated_Source\PSoC4/nRF24_COMMANDS.c **** * @brief The nRF24 radio is controlled via commands, this file implement all
  23:Generated_Source\PSoC4/nRF24_COMMANDS.c **** * the available commands.
  24:Generated_Source\PSoC4/nRF24_COMMANDS.c **** */
  25:Generated_Source\PSoC4/nRF24_COMMANDS.c **** 
  26:Generated_Source\PSoC4/nRF24_COMMANDS.c **** #include "nRF24_CONFIG.h"
  27:Generated_Source\PSoC4/nRF24_COMMANDS.c **** #include "nRF24_COMMANDS.h"
  28:Generated_Source\PSoC4/nRF24_COMMANDS.c **** #include "nRF24_DEFS.h"
  29:Generated_Source\PSoC4/nRF24_COMMANDS.c **** 
  30:Generated_Source\PSoC4/nRF24_COMMANDS.c **** /**
ARM GAS  C:\Users\AFDHAL~1\AppData\Local\Temp\cczjM8xh.s 			page 2


  31:Generated_Source\PSoC4/nRF24_COMMANDS.c ****  * Send the specified command to the nRF24 radio.
  32:Generated_Source\PSoC4/nRF24_COMMANDS.c ****  *
  33:Generated_Source\PSoC4/nRF24_COMMANDS.c ****  * @param const nrf_cmd cmd: Command to send to the nRF24 radio.
  34:Generated_Source\PSoC4/nRF24_COMMANDS.c ****  */
  35:Generated_Source\PSoC4/nRF24_COMMANDS.c **** void nRF24_send_command(const nrf_cmd cmd)
  36:Generated_Source\PSoC4/nRF24_COMMANDS.c **** {
  28              		.loc 1 36 0
  29              		.cfi_startproc
  30              		@ args = 0, pretend = 0, frame = 0
  31              		@ frame_needed = 0, uses_anonymous_args = 0
  32              	.LVL0:
  33 0000 10B5     		push	{r4, lr}
  34              		.cfi_def_cfa_offset 8
  35              		.cfi_offset 4, -8
  36              		.cfi_offset 14, -4
  37              		.loc 1 36 0
  38 0002 0400     		movs	r4, r0
  37:Generated_Source\PSoC4/nRF24_COMMANDS.c **** #if defined (_PSOC6)
  38:Generated_Source\PSoC4/nRF24_COMMANDS.c ****     Cy_SCB_ClearRxFifo(SPI_HW);
  39:Generated_Source\PSoC4/nRF24_COMMANDS.c ****     Cy_SCB_ClearTxFifo(SPI_HW);
  40:Generated_Source\PSoC4/nRF24_COMMANDS.c **** 
  41:Generated_Source\PSoC4/nRF24_COMMANDS.c ****     Cy_GPIO_Clr(SS_PORT, SS_NUM);
  42:Generated_Source\PSoC4/nRF24_COMMANDS.c **** 
  43:Generated_Source\PSoC4/nRF24_COMMANDS.c ****     Cy_SCB_WriteArrayBlocking(SPI_HW, (void *) &cmd, 1);
  44:Generated_Source\PSoC4/nRF24_COMMANDS.c **** 
  45:Generated_Source\PSoC4/nRF24_COMMANDS.c ****     while (Cy_SCB_IsTxComplete(SPI_HW) == false) {
  46:Generated_Source\PSoC4/nRF24_COMMANDS.c ****     }
  47:Generated_Source\PSoC4/nRF24_COMMANDS.c ****     CyDelayUs(1);
  48:Generated_Source\PSoC4/nRF24_COMMANDS.c **** 
  49:Generated_Source\PSoC4/nRF24_COMMANDS.c ****     Cy_GPIO_Set(SS_PORT, SS_NUM);
  50:Generated_Source\PSoC4/nRF24_COMMANDS.c **** #elif defined (_PSOC4_SCB)
  51:Generated_Source\PSoC4/nRF24_COMMANDS.c ****     SPI_SpiUartClearRxBuffer();
  39              		.loc 1 51 0
  40 0004 FFF7FEFF 		bl	SPI_SpiUartClearRxBuffer
  41              	.LVL1:
  52:Generated_Source\PSoC4/nRF24_COMMANDS.c ****     SPI_SpiUartClearTxBuffer();
  42              		.loc 1 52 0
  43 0008 FFF7FEFF 		bl	SPI_SpiUartClearTxBuffer
  44              	.LVL2:
  53:Generated_Source\PSoC4/nRF24_COMMANDS.c **** 
  54:Generated_Source\PSoC4/nRF24_COMMANDS.c ****     SS_Write(0);
  45              		.loc 1 54 0
  46 000c 0020     		movs	r0, #0
  47 000e FFF7FEFF 		bl	SS_Write
  48              	.LVL3:
  55:Generated_Source\PSoC4/nRF24_COMMANDS.c ****     SPI_SpiUartWriteTxData(cmd);
  49              		.loc 1 55 0
  50 0012 2000     		movs	r0, r4
  51 0014 FFF7FEFF 		bl	SPI_SpiUartWriteTxData
  52              	.LVL4:
  53              	.L2:
  56:Generated_Source\PSoC4/nRF24_COMMANDS.c **** 
  57:Generated_Source\PSoC4/nRF24_COMMANDS.c ****     while (SPI_SpiUartGetRxBufferSize() != 1) {
  54              		.loc 1 57 0 discriminator 1
  55 0018 FFF7FEFF 		bl	SPI_SpiUartGetRxBufferSize
  56              	.LVL5:
  57 001c 0128     		cmp	r0, #1
ARM GAS  C:\Users\AFDHAL~1\AppData\Local\Temp\cczjM8xh.s 			page 3


  58 001e FBD1     		bne	.L2
  58:Generated_Source\PSoC4/nRF24_COMMANDS.c ****     }
  59:Generated_Source\PSoC4/nRF24_COMMANDS.c ****     SS_Write(1);
  59              		.loc 1 59 0
  60 0020 FFF7FEFF 		bl	SS_Write
  61              	.LVL6:
  60:Generated_Source\PSoC4/nRF24_COMMANDS.c **** #else // _PSOC_UDB
  61:Generated_Source\PSoC4/nRF24_COMMANDS.c ****     SPI_ClearFIFO();
  62:Generated_Source\PSoC4/nRF24_COMMANDS.c **** 
  63:Generated_Source\PSoC4/nRF24_COMMANDS.c ****     SS_Write(0);
  64:Generated_Source\PSoC4/nRF24_COMMANDS.c ****     SPI_WriteTxData(cmd);
  65:Generated_Source\PSoC4/nRF24_COMMANDS.c **** 
  66:Generated_Source\PSoC4/nRF24_COMMANDS.c ****     while (!(SPI_ReadTxStatus() & SPI_STS_BYTE_COMPLETE)) {
  67:Generated_Source\PSoC4/nRF24_COMMANDS.c ****     }
  68:Generated_Source\PSoC4/nRF24_COMMANDS.c ****     SS_Write(1);
  69:Generated_Source\PSoC4/nRF24_COMMANDS.c **** #endif
  70:Generated_Source\PSoC4/nRF24_COMMANDS.c **** }
  62              		.loc 1 70 0
  63              		@ sp needed
  64 0024 10BD     		pop	{r4, pc}
  65              		.cfi_endproc
  66              	.LFE1:
  67              		.size	nRF24_send_command, .-nRF24_send_command
  68              		.section	.text.nRF24_reuse_tx_payload_cmd,"ax",%progbits
  69              		.align	1
  70              		.global	nRF24_reuse_tx_payload_cmd
  71              		.code	16
  72              		.thumb_func
  73              		.type	nRF24_reuse_tx_payload_cmd, %function
  74              	nRF24_reuse_tx_payload_cmd:
  75              	.LFB2:
  71:Generated_Source\PSoC4/nRF24_COMMANDS.c **** 
  72:Generated_Source\PSoC4/nRF24_COMMANDS.c **** /**
  73:Generated_Source\PSoC4/nRF24_COMMANDS.c ****  * @brief Reuse last transmitted payload.
  74:Generated_Source\PSoC4/nRF24_COMMANDS.c ****  *
  75:Generated_Source\PSoC4/nRF24_COMMANDS.c ****  * Used for a PTX device.
  76:Generated_Source\PSoC4/nRF24_COMMANDS.c ****  * Reuse last transmitted payload. TX payload reuse is active until
  77:Generated_Source\PSoC4/nRF24_COMMANDS.c ****  * W_TX_PAYLOAD or FLUSH_TX is executed, TX payload reuse must not be
  78:Generated_Source\PSoC4/nRF24_COMMANDS.c ****  * activated or deactivated during package transmission.
  79:Generated_Source\PSoC4/nRF24_COMMANDS.c ****  */
  80:Generated_Source\PSoC4/nRF24_COMMANDS.c **** void nRF24_reuse_tx_payload_cmd(void)
  81:Generated_Source\PSoC4/nRF24_COMMANDS.c **** {
  76              		.loc 1 81 0
  77              		.cfi_startproc
  78              		@ args = 0, pretend = 0, frame = 0
  79              		@ frame_needed = 0, uses_anonymous_args = 0
  80 0000 10B5     		push	{r4, lr}
  81              		.cfi_def_cfa_offset 8
  82              		.cfi_offset 4, -8
  83              		.cfi_offset 14, -4
  82:Generated_Source\PSoC4/nRF24_COMMANDS.c ****     nRF24_send_command(NRF_CMD_REUSE_TX_PL);
  84              		.loc 1 82 0
  85 0002 E320     		movs	r0, #227
  86 0004 FFF7FEFF 		bl	nRF24_send_command
  87              	.LVL7:
  83:Generated_Source\PSoC4/nRF24_COMMANDS.c **** }
  88              		.loc 1 83 0
ARM GAS  C:\Users\AFDHAL~1\AppData\Local\Temp\cczjM8xh.s 			page 4


  89              		@ sp needed
  90 0008 10BD     		pop	{r4, pc}
  91              		.cfi_endproc
  92              	.LFE2:
  93              		.size	nRF24_reuse_tx_payload_cmd, .-nRF24_reuse_tx_payload_cmd
  94              		.section	.text.nRF24_flush_rx_cmd,"ax",%progbits
  95              		.align	1
  96              		.global	nRF24_flush_rx_cmd
  97              		.code	16
  98              		.thumb_func
  99              		.type	nRF24_flush_rx_cmd, %function
 100              	nRF24_flush_rx_cmd:
 101              	.LFB3:
  84:Generated_Source\PSoC4/nRF24_COMMANDS.c **** 
  85:Generated_Source\PSoC4/nRF24_COMMANDS.c **** /**
  86:Generated_Source\PSoC4/nRF24_COMMANDS.c ****  * @brief Flush RX FIFO.
  87:Generated_Source\PSoC4/nRF24_COMMANDS.c ****  *
  88:Generated_Source\PSoC4/nRF24_COMMANDS.c ****  * Used in RX mode.
  89:Generated_Source\PSoC4/nRF24_COMMANDS.c ****  * Flush RX FIFO. Should be not executed during transmission of acknowledge,
  90:Generated_Source\PSoC4/nRF24_COMMANDS.c ****  * that is, acknowledge package will not be completed.
  91:Generated_Source\PSoC4/nRF24_COMMANDS.c ****  */
  92:Generated_Source\PSoC4/nRF24_COMMANDS.c **** void nRF24_flush_rx_cmd(void)
  93:Generated_Source\PSoC4/nRF24_COMMANDS.c **** {
 102              		.loc 1 93 0
 103              		.cfi_startproc
 104              		@ args = 0, pretend = 0, frame = 0
 105              		@ frame_needed = 0, uses_anonymous_args = 0
 106 0000 10B5     		push	{r4, lr}
 107              		.cfi_def_cfa_offset 8
 108              		.cfi_offset 4, -8
 109              		.cfi_offset 14, -4
  94:Generated_Source\PSoC4/nRF24_COMMANDS.c ****     nRF24_send_command(NRF_CMD_FLUSH_RX);
 110              		.loc 1 94 0
 111 0002 E220     		movs	r0, #226
 112 0004 FFF7FEFF 		bl	nRF24_send_command
 113              	.LVL8:
  95:Generated_Source\PSoC4/nRF24_COMMANDS.c **** }
 114              		.loc 1 95 0
 115              		@ sp needed
 116 0008 10BD     		pop	{r4, pc}
 117              		.cfi_endproc
 118              	.LFE3:
 119              		.size	nRF24_flush_rx_cmd, .-nRF24_flush_rx_cmd
 120              		.section	.text.nRF24_flush_tx_cmd,"ax",%progbits
 121              		.align	1
 122              		.global	nRF24_flush_tx_cmd
 123              		.code	16
 124              		.thumb_func
 125              		.type	nRF24_flush_tx_cmd, %function
 126              	nRF24_flush_tx_cmd:
 127              	.LFB4:
  96:Generated_Source\PSoC4/nRF24_COMMANDS.c **** 
  97:Generated_Source\PSoC4/nRF24_COMMANDS.c **** /**
  98:Generated_Source\PSoC4/nRF24_COMMANDS.c ****  * Used in TX mode.
  99:Generated_Source\PSoC4/nRF24_COMMANDS.c ****  * Flush TX FIFO.
 100:Generated_Source\PSoC4/nRF24_COMMANDS.c ****  */
 101:Generated_Source\PSoC4/nRF24_COMMANDS.c **** void nRF24_flush_tx_cmd(void)
ARM GAS  C:\Users\AFDHAL~1\AppData\Local\Temp\cczjM8xh.s 			page 5


 102:Generated_Source\PSoC4/nRF24_COMMANDS.c **** {
 128              		.loc 1 102 0
 129              		.cfi_startproc
 130              		@ args = 0, pretend = 0, frame = 0
 131              		@ frame_needed = 0, uses_anonymous_args = 0
 132 0000 10B5     		push	{r4, lr}
 133              		.cfi_def_cfa_offset 8
 134              		.cfi_offset 4, -8
 135              		.cfi_offset 14, -4
 103:Generated_Source\PSoC4/nRF24_COMMANDS.c ****     nRF24_send_command(NRF_CMD_FLUSH_TX);
 136              		.loc 1 103 0
 137 0002 E120     		movs	r0, #225
 138 0004 FFF7FEFF 		bl	nRF24_send_command
 139              	.LVL9:
 104:Generated_Source\PSoC4/nRF24_COMMANDS.c **** }
 140              		.loc 1 104 0
 141              		@ sp needed
 142 0008 10BD     		pop	{r4, pc}
 143              		.cfi_endproc
 144              	.LFE4:
 145              		.size	nRF24_flush_tx_cmd, .-nRF24_flush_tx_cmd
 146              		.section	.text.nRF24_read_rx_payload_cmd,"ax",%progbits
 147              		.align	1
 148              		.global	nRF24_read_rx_payload_cmd
 149              		.code	16
 150              		.thumb_func
 151              		.type	nRF24_read_rx_payload_cmd, %function
 152              	nRF24_read_rx_payload_cmd:
 153              	.LFB5:
 105:Generated_Source\PSoC4/nRF24_COMMANDS.c **** 
 106:Generated_Source\PSoC4/nRF24_COMMANDS.c **** /**
 107:Generated_Source\PSoC4/nRF24_COMMANDS.c ****  * Used in RX mode.
 108:Generated_Source\PSoC4/nRF24_COMMANDS.c ****  * Read RX payload: 1 - 32 bytes. A read operation always starts at byte 0.
 109:Generated_Source\PSoC4/nRF24_COMMANDS.c ****  * Payload is deleted from FIFO after it is read.
 110:Generated_Source\PSoC4/nRF24_COMMANDS.c ****  *
 111:Generated_Source\PSoC4/nRF24_COMMANDS.c ****  * @param uint8_t* data: Data to be read.
 112:Generated_Source\PSoC4/nRF24_COMMANDS.c ****  * @param const size_t size: Bytes of data to be read (max 32).
 113:Generated_Source\PSoC4/nRF24_COMMANDS.c ****  */
 114:Generated_Source\PSoC4/nRF24_COMMANDS.c **** void nRF24_read_rx_payload_cmd(uint8_t* data, const size_t size)
 115:Generated_Source\PSoC4/nRF24_COMMANDS.c **** {
 154              		.loc 1 115 0
 155              		.cfi_startproc
 156              		@ args = 0, pretend = 0, frame = 0
 157              		@ frame_needed = 0, uses_anonymous_args = 0
 158              	.LVL10:
 159 0000 70B5     		push	{r4, r5, r6, lr}
 160              		.cfi_def_cfa_offset 16
 161              		.cfi_offset 4, -16
 162              		.cfi_offset 5, -12
 163              		.cfi_offset 6, -8
 164              		.cfi_offset 14, -4
 165              		.loc 1 115 0
 166 0002 0400     		movs	r4, r0
 167 0004 0D00     		movs	r5, r1
 116:Generated_Source\PSoC4/nRF24_COMMANDS.c **** #if defined (_PSOC6)
 117:Generated_Source\PSoC4/nRF24_COMMANDS.c ****     Cy_SCB_ClearRxFifo(SPI_HW);
 118:Generated_Source\PSoC4/nRF24_COMMANDS.c ****     Cy_SCB_ClearTxFifo(SPI_HW);
ARM GAS  C:\Users\AFDHAL~1\AppData\Local\Temp\cczjM8xh.s 			page 6


 119:Generated_Source\PSoC4/nRF24_COMMANDS.c **** 
 120:Generated_Source\PSoC4/nRF24_COMMANDS.c ****     Cy_GPIO_Clr(SS_PORT, SS_NUM);
 121:Generated_Source\PSoC4/nRF24_COMMANDS.c **** 
 122:Generated_Source\PSoC4/nRF24_COMMANDS.c ****     Cy_SCB_Write(SPI_HW, NRF_CMD_R_RX_PAYLOAD);
 123:Generated_Source\PSoC4/nRF24_COMMANDS.c ****     while (Cy_SCB_GetNumInRxFifo(SPI_HW) != 0) {
 124:Generated_Source\PSoC4/nRF24_COMMANDS.c ****     }
 125:Generated_Source\PSoC4/nRF24_COMMANDS.c **** 
 126:Generated_Source\PSoC4/nRF24_COMMANDS.c ****     (void)Cy_SCB_ReadRxFifo(SPI_HW);
 127:Generated_Source\PSoC4/nRF24_COMMANDS.c **** 
 128:Generated_Source\PSoC4/nRF24_COMMANDS.c ****     for (size_t i = 0; i < size; i++) {
 129:Generated_Source\PSoC4/nRF24_COMMANDS.c ****         Cy_SCB_Write(SPI_HW, NRF_CMD_NOP);
 130:Generated_Source\PSoC4/nRF24_COMMANDS.c ****         while (Cy_SCB_GetNumInRxFifo(SPI_HW) != 0) {
 131:Generated_Source\PSoC4/nRF24_COMMANDS.c ****         }
 132:Generated_Source\PSoC4/nRF24_COMMANDS.c ****         data[i] = Cy_SCB_ReadRxFifo(SPI_HW);
 133:Generated_Source\PSoC4/nRF24_COMMANDS.c ****     }
 134:Generated_Source\PSoC4/nRF24_COMMANDS.c ****     Cy_GPIO_Set(SS_PORT, SS_NUM);
 135:Generated_Source\PSoC4/nRF24_COMMANDS.c **** #elif defined (_PSOC4_SCB)
 136:Generated_Source\PSoC4/nRF24_COMMANDS.c ****     SPI_SpiUartClearRxBuffer();
 168              		.loc 1 136 0
 169 0006 FFF7FEFF 		bl	SPI_SpiUartClearRxBuffer
 170              	.LVL11:
 137:Generated_Source\PSoC4/nRF24_COMMANDS.c ****     SPI_SpiUartClearTxBuffer();
 171              		.loc 1 137 0
 172 000a FFF7FEFF 		bl	SPI_SpiUartClearTxBuffer
 173              	.LVL12:
 138:Generated_Source\PSoC4/nRF24_COMMANDS.c **** 
 139:Generated_Source\PSoC4/nRF24_COMMANDS.c ****     SS_Write(0);
 174              		.loc 1 139 0
 175 000e 0020     		movs	r0, #0
 176 0010 FFF7FEFF 		bl	SS_Write
 177              	.LVL13:
 140:Generated_Source\PSoC4/nRF24_COMMANDS.c ****     SPI_SpiUartWriteTxData(NRF_CMD_R_RX_PAYLOAD);
 178              		.loc 1 140 0
 179 0014 6120     		movs	r0, #97
 180 0016 FFF7FEFF 		bl	SPI_SpiUartWriteTxData
 181              	.LVL14:
 182              	.L9:
 141:Generated_Source\PSoC4/nRF24_COMMANDS.c ****     while (SPI_SpiUartGetRxBufferSize() == 0){
 183              		.loc 1 141 0 discriminator 1
 184 001a FFF7FEFF 		bl	SPI_SpiUartGetRxBufferSize
 185              	.LVL15:
 186 001e 0028     		cmp	r0, #0
 187 0020 FBD0     		beq	.L9
 142:Generated_Source\PSoC4/nRF24_COMMANDS.c ****     }
 143:Generated_Source\PSoC4/nRF24_COMMANDS.c ****     // Read the status register, just to clear the rx fifo
 144:Generated_Source\PSoC4/nRF24_COMMANDS.c ****     SPI_SpiUartReadRxData();
 188              		.loc 1 144 0
 189 0022 FFF7FEFF 		bl	SPI_SpiUartReadRxData
 190              	.LVL16:
 191 0026 6519     		adds	r5, r4, r5
 192              	.LVL17:
 193              	.L10:
 194              	.LBB2:
 145:Generated_Source\PSoC4/nRF24_COMMANDS.c **** 
 146:Generated_Source\PSoC4/nRF24_COMMANDS.c ****     for (size_t i = 0; i < size; i++) {
 195              		.loc 1 146 0 discriminator 1
 196 0028 AC42     		cmp	r4, r5
ARM GAS  C:\Users\AFDHAL~1\AppData\Local\Temp\cczjM8xh.s 			page 7


 197 002a 0BD0     		beq	.L17
 147:Generated_Source\PSoC4/nRF24_COMMANDS.c ****         SPI_SpiUartWriteTxData(NRF_CMD_NOP);
 198              		.loc 1 147 0
 199 002c FF20     		movs	r0, #255
 200 002e FFF7FEFF 		bl	SPI_SpiUartWriteTxData
 201              	.LVL18:
 202              	.L11:
 148:Generated_Source\PSoC4/nRF24_COMMANDS.c ****         while (SPI_SpiUartGetRxBufferSize() == 0){
 203              		.loc 1 148 0 discriminator 1
 204 0032 FFF7FEFF 		bl	SPI_SpiUartGetRxBufferSize
 205              	.LVL19:
 206 0036 0028     		cmp	r0, #0
 207 0038 FBD0     		beq	.L11
 149:Generated_Source\PSoC4/nRF24_COMMANDS.c ****         }
 150:Generated_Source\PSoC4/nRF24_COMMANDS.c ****         data[i] = SPI_SpiUartReadRxData();
 208              		.loc 1 150 0 discriminator 2
 209 003a FFF7FEFF 		bl	SPI_SpiUartReadRxData
 210              	.LVL20:
 211 003e 2070     		strb	r0, [r4]
 212              	.LVL21:
 213 0040 0134     		adds	r4, r4, #1
 214              	.LVL22:
 215 0042 F1E7     		b	.L10
 216              	.L17:
 217              	.LBE2:
 151:Generated_Source\PSoC4/nRF24_COMMANDS.c ****     }
 152:Generated_Source\PSoC4/nRF24_COMMANDS.c ****     SS_Write(1);
 218              		.loc 1 152 0
 219 0044 0120     		movs	r0, #1
 220 0046 FFF7FEFF 		bl	SS_Write
 221              	.LVL23:
 153:Generated_Source\PSoC4/nRF24_COMMANDS.c **** #else // _PSOC_UDB
 154:Generated_Source\PSoC4/nRF24_COMMANDS.c ****     SPI_ClearFIFO();
 155:Generated_Source\PSoC4/nRF24_COMMANDS.c **** 
 156:Generated_Source\PSoC4/nRF24_COMMANDS.c ****     SS_Write(0);
 157:Generated_Source\PSoC4/nRF24_COMMANDS.c ****     SPI_WriteTxData(NRF_CMD_R_RX_PAYLOAD);
 158:Generated_Source\PSoC4/nRF24_COMMANDS.c **** 
 159:Generated_Source\PSoC4/nRF24_COMMANDS.c ****     // Wait for the byte to be sent
 160:Generated_Source\PSoC4/nRF24_COMMANDS.c ****     while (!(SPI_ReadTxStatus() & SPI_STS_BYTE_COMPLETE)) {
 161:Generated_Source\PSoC4/nRF24_COMMANDS.c ****     }
 162:Generated_Source\PSoC4/nRF24_COMMANDS.c **** 
 163:Generated_Source\PSoC4/nRF24_COMMANDS.c ****     // Read the status register, just to clear the rx fifo
 164:Generated_Source\PSoC4/nRF24_COMMANDS.c ****     SPI_ReadRxData();
 165:Generated_Source\PSoC4/nRF24_COMMANDS.c **** 
 166:Generated_Source\PSoC4/nRF24_COMMANDS.c ****     for (size_t i = 0; i < size; i++) {
 167:Generated_Source\PSoC4/nRF24_COMMANDS.c ****         SPI_WriteTxData(NRF_CMD_NOP);
 168:Generated_Source\PSoC4/nRF24_COMMANDS.c ****         while (!(SPI_ReadTxStatus() & SPI_STS_BYTE_COMPLETE)) {
 169:Generated_Source\PSoC4/nRF24_COMMANDS.c ****         }
 170:Generated_Source\PSoC4/nRF24_COMMANDS.c ****         data[i] = SPI_ReadRxData();
 171:Generated_Source\PSoC4/nRF24_COMMANDS.c ****     }
 172:Generated_Source\PSoC4/nRF24_COMMANDS.c ****     SS_Write(1);
 173:Generated_Source\PSoC4/nRF24_COMMANDS.c **** #endif
 174:Generated_Source\PSoC4/nRF24_COMMANDS.c **** }
 222              		.loc 1 174 0
 223              		@ sp needed
 224              	.LVL24:
 225 004a 70BD     		pop	{r4, r5, r6, pc}
ARM GAS  C:\Users\AFDHAL~1\AppData\Local\Temp\cczjM8xh.s 			page 8


 226              		.cfi_endproc
 227              	.LFE5:
 228              		.size	nRF24_read_rx_payload_cmd, .-nRF24_read_rx_payload_cmd
 229              		.section	.text.nRF24_write_tx_payload_cmd,"ax",%progbits
 230              		.align	1
 231              		.global	nRF24_write_tx_payload_cmd
 232              		.code	16
 233              		.thumb_func
 234              		.type	nRF24_write_tx_payload_cmd, %function
 235              	nRF24_write_tx_payload_cmd:
 236              	.LFB6:
 175:Generated_Source\PSoC4/nRF24_COMMANDS.c **** 
 176:Generated_Source\PSoC4/nRF24_COMMANDS.c **** /**
 177:Generated_Source\PSoC4/nRF24_COMMANDS.c ****  * Write TX payload: 1 - 32 bytes.
 178:Generated_Source\PSoC4/nRF24_COMMANDS.c ****  * A write operation always starts at byte 0 used in TX payload.
 179:Generated_Source\PSoC4/nRF24_COMMANDS.c ****  *
 180:Generated_Source\PSoC4/nRF24_COMMANDS.c ****  * @param const uint8_t* data: Data to be sent.
 181:Generated_Source\PSoC4/nRF24_COMMANDS.c ****  * @param const size_t size: Bytes of data to be sent (max 32).
 182:Generated_Source\PSoC4/nRF24_COMMANDS.c ****  */
 183:Generated_Source\PSoC4/nRF24_COMMANDS.c **** void nRF24_write_tx_payload_cmd(const uint8_t* data, const size_t size)
 184:Generated_Source\PSoC4/nRF24_COMMANDS.c **** {
 237              		.loc 1 184 0
 238              		.cfi_startproc
 239              		@ args = 0, pretend = 0, frame = 0
 240              		@ frame_needed = 0, uses_anonymous_args = 0
 241              	.LVL25:
 242 0000 70B5     		push	{r4, r5, r6, lr}
 243              		.cfi_def_cfa_offset 16
 244              		.cfi_offset 4, -16
 245              		.cfi_offset 5, -12
 246              		.cfi_offset 6, -8
 247              		.cfi_offset 14, -4
 248              		.loc 1 184 0
 249 0002 0C00     		movs	r4, r1
 250 0004 0500     		movs	r5, r0
 185:Generated_Source\PSoC4/nRF24_COMMANDS.c **** #if defined (_PSOC6)
 186:Generated_Source\PSoC4/nRF24_COMMANDS.c ****     Cy_SCB_ClearRxFifo(SPI_HW);
 187:Generated_Source\PSoC4/nRF24_COMMANDS.c ****     Cy_SCB_ClearTxFifo(SPI_HW);
 188:Generated_Source\PSoC4/nRF24_COMMANDS.c **** 
 189:Generated_Source\PSoC4/nRF24_COMMANDS.c ****     Cy_GPIO_Clr(SS_PORT, SS_NUM);
 190:Generated_Source\PSoC4/nRF24_COMMANDS.c **** 
 191:Generated_Source\PSoC4/nRF24_COMMANDS.c ****     Cy_SCB_Write(SPI_HW, NRF_CMD_W_TX_PAYLOAD);
 192:Generated_Source\PSoC4/nRF24_COMMANDS.c ****     Cy_SCB_WriteArrayBlocking(SPI_HW, (void *) data, size);
 193:Generated_Source\PSoC4/nRF24_COMMANDS.c **** 
 194:Generated_Source\PSoC4/nRF24_COMMANDS.c ****     while (Cy_SCB_IsTxComplete(SPI_HW) == false) {
 195:Generated_Source\PSoC4/nRF24_COMMANDS.c ****     }
 196:Generated_Source\PSoC4/nRF24_COMMANDS.c ****     CyDelayUs(1);
 197:Generated_Source\PSoC4/nRF24_COMMANDS.c **** 
 198:Generated_Source\PSoC4/nRF24_COMMANDS.c ****     Cy_GPIO_Set(SS_PORT, SS_NUM);
 199:Generated_Source\PSoC4/nRF24_COMMANDS.c **** #elif defined (_PSOC4_SCB)
 200:Generated_Source\PSoC4/nRF24_COMMANDS.c ****     SPI_SpiUartClearRxBuffer();
 251              		.loc 1 200 0
 252 0006 FFF7FEFF 		bl	SPI_SpiUartClearRxBuffer
 253              	.LVL26:
 201:Generated_Source\PSoC4/nRF24_COMMANDS.c ****     SPI_SpiUartClearTxBuffer();
 254              		.loc 1 201 0
 255 000a FFF7FEFF 		bl	SPI_SpiUartClearTxBuffer
ARM GAS  C:\Users\AFDHAL~1\AppData\Local\Temp\cczjM8xh.s 			page 9


 256              	.LVL27:
 202:Generated_Source\PSoC4/nRF24_COMMANDS.c **** 
 203:Generated_Source\PSoC4/nRF24_COMMANDS.c ****     SS_Write(0);
 257              		.loc 1 203 0
 258 000e 0020     		movs	r0, #0
 259 0010 FFF7FEFF 		bl	SS_Write
 260              	.LVL28:
 204:Generated_Source\PSoC4/nRF24_COMMANDS.c ****     SPI_SpiUartWriteTxData(NRF_CMD_W_TX_PAYLOAD);
 261              		.loc 1 204 0
 262 0014 A020     		movs	r0, #160
 263 0016 FFF7FEFF 		bl	SPI_SpiUartWriteTxData
 264              	.LVL29:
 205:Generated_Source\PSoC4/nRF24_COMMANDS.c ****     SPI_SpiUartPutArray(data, size);
 265              		.loc 1 205 0
 266 001a 2100     		movs	r1, r4
 267 001c 2800     		movs	r0, r5
 268 001e FFF7FEFF 		bl	SPI_SpiUartPutArray
 269              	.LVL30:
 270              	.L19:
 206:Generated_Source\PSoC4/nRF24_COMMANDS.c **** 
 207:Generated_Source\PSoC4/nRF24_COMMANDS.c ****     while (SPI_SpiUartGetRxBufferSize() != (1 + size)) {
 271              		.loc 1 207 0 discriminator 1
 272 0022 FFF7FEFF 		bl	SPI_SpiUartGetRxBufferSize
 273              	.LVL31:
 274 0026 631C     		adds	r3, r4, #1
 275 0028 9842     		cmp	r0, r3
 276 002a FAD1     		bne	.L19
 208:Generated_Source\PSoC4/nRF24_COMMANDS.c ****     }
 209:Generated_Source\PSoC4/nRF24_COMMANDS.c ****     SS_Write(1);
 277              		.loc 1 209 0
 278 002c 0120     		movs	r0, #1
 279 002e FFF7FEFF 		bl	SS_Write
 280              	.LVL32:
 210:Generated_Source\PSoC4/nRF24_COMMANDS.c **** #else // _PSOC_UDB
 211:Generated_Source\PSoC4/nRF24_COMMANDS.c ****     SPI_ClearFIFO();
 212:Generated_Source\PSoC4/nRF24_COMMANDS.c **** 
 213:Generated_Source\PSoC4/nRF24_COMMANDS.c ****     SS_Write(0);
 214:Generated_Source\PSoC4/nRF24_COMMANDS.c ****     SPI_WriteTxData(NRF_CMD_W_TX_PAYLOAD);
 215:Generated_Source\PSoC4/nRF24_COMMANDS.c ****     for (size_t i = 0; i < size; i++) {
 216:Generated_Source\PSoC4/nRF24_COMMANDS.c ****         SPI_WriteTxData(data[i]);
 217:Generated_Source\PSoC4/nRF24_COMMANDS.c ****         while (!(SPI_ReadTxStatus() & SPI_STS_BYTE_COMPLETE)) {
 218:Generated_Source\PSoC4/nRF24_COMMANDS.c ****         }
 219:Generated_Source\PSoC4/nRF24_COMMANDS.c ****     }
 220:Generated_Source\PSoC4/nRF24_COMMANDS.c **** 
 221:Generated_Source\PSoC4/nRF24_COMMANDS.c ****     while (!(SPI_ReadTxStatus() & SPI_STS_SPI_IDLE)) {
 222:Generated_Source\PSoC4/nRF24_COMMANDS.c ****     }
 223:Generated_Source\PSoC4/nRF24_COMMANDS.c ****     SS_Write(1);
 224:Generated_Source\PSoC4/nRF24_COMMANDS.c **** #endif
 225:Generated_Source\PSoC4/nRF24_COMMANDS.c **** }
 281              		.loc 1 225 0
 282              		@ sp needed
 283              	.LVL33:
 284              	.LVL34:
 285 0032 70BD     		pop	{r4, r5, r6, pc}
 286              		.cfi_endproc
 287              	.LFE6:
 288              		.size	nRF24_write_tx_payload_cmd, .-nRF24_write_tx_payload_cmd
ARM GAS  C:\Users\AFDHAL~1\AppData\Local\Temp\cczjM8xh.s 			page 10


 289              		.section	.text.nRF24_read_payload_width_cmd,"ax",%progbits
 290              		.align	1
 291              		.global	nRF24_read_payload_width_cmd
 292              		.code	16
 293              		.thumb_func
 294              		.type	nRF24_read_payload_width_cmd, %function
 295              	nRF24_read_payload_width_cmd:
 296              	.LFB7:
 226:Generated_Source\PSoC4/nRF24_COMMANDS.c **** 
 227:Generated_Source\PSoC4/nRF24_COMMANDS.c **** /**
 228:Generated_Source\PSoC4/nRF24_COMMANDS.c ****  * Read RX payload width for the top R_RX_PAYLOAD in the RX FIFO.
 229:Generated_Source\PSoC4/nRF24_COMMANDS.c ****  * Note: Flush RX FIFO if the read value is larger than 32 bytes.
 230:Generated_Source\PSoC4/nRF24_COMMANDS.c ****  *
 231:Generated_Source\PSoC4/nRF24_COMMANDS.c ****  * @return uint8_t: width of the payload on the top of the RX FIFO.
 232:Generated_Source\PSoC4/nRF24_COMMANDS.c ****  */
 233:Generated_Source\PSoC4/nRF24_COMMANDS.c **** uint8_t nRF24_read_payload_width_cmd(void)
 234:Generated_Source\PSoC4/nRF24_COMMANDS.c **** {
 297              		.loc 1 234 0
 298              		.cfi_startproc
 299              		@ args = 0, pretend = 0, frame = 0
 300              		@ frame_needed = 0, uses_anonymous_args = 0
 301              	.LVL35:
 302 0000 10B5     		push	{r4, lr}
 303              		.cfi_def_cfa_offset 8
 304              		.cfi_offset 4, -8
 305              		.cfi_offset 14, -4
 235:Generated_Source\PSoC4/nRF24_COMMANDS.c ****     uint8_t width = 0;
 236:Generated_Source\PSoC4/nRF24_COMMANDS.c **** #if defined (_PSOC6)
 237:Generated_Source\PSoC4/nRF24_COMMANDS.c ****     Cy_SCB_ClearRxFifo(SPI_HW);
 238:Generated_Source\PSoC4/nRF24_COMMANDS.c ****     Cy_SCB_ClearTxFifo(SPI_HW);
 239:Generated_Source\PSoC4/nRF24_COMMANDS.c **** 
 240:Generated_Source\PSoC4/nRF24_COMMANDS.c ****     Cy_GPIO_Clr(SS_PORT, SS_NUM);
 241:Generated_Source\PSoC4/nRF24_COMMANDS.c **** #if 0
 242:Generated_Source\PSoC4/nRF24_COMMANDS.c ****     Cy_SCB_Write(SPI_HW, NRF_CMD_R_RX_PL_WID);
 243:Generated_Source\PSoC4/nRF24_COMMANDS.c ****     Cy_SCB_Write(SPI_HW, NRF_CMD_NOP);
 244:Generated_Source\PSoC4/nRF24_COMMANDS.c **** #else
 245:Generated_Source\PSoC4/nRF24_COMMANDS.c ****     Cy_SCB_WriteArrayBlocking(SPI_HW,
 246:Generated_Source\PSoC4/nRF24_COMMANDS.c ****         (void *)(uint8_t []){NRF_CMD_R_RX_PL_WID, NRF_CMD_NOP}, 2);
 247:Generated_Source\PSoC4/nRF24_COMMANDS.c **** #endif
 248:Generated_Source\PSoC4/nRF24_COMMANDS.c ****     while (Cy_SCB_GetNumInRxFifo(SPI_HW) != 2) {
 249:Generated_Source\PSoC4/nRF24_COMMANDS.c ****     }
 250:Generated_Source\PSoC4/nRF24_COMMANDS.c ****     Cy_GPIO_Set(SS_PORT, SS_NUM);
 251:Generated_Source\PSoC4/nRF24_COMMANDS.c **** 
 252:Generated_Source\PSoC4/nRF24_COMMANDS.c ****     (void)Cy_SCB_ReadRxFifo(SPI_HW);
 253:Generated_Source\PSoC4/nRF24_COMMANDS.c ****     width = Cy_SCB_ReadRxFifo(SPI_HW);
 254:Generated_Source\PSoC4/nRF24_COMMANDS.c **** #elif defined (_PSOC4_SCB)
 255:Generated_Source\PSoC4/nRF24_COMMANDS.c ****     SPI_SpiUartClearRxBuffer();
 306              		.loc 1 255 0
 307 0002 FFF7FEFF 		bl	SPI_SpiUartClearRxBuffer
 308              	.LVL36:
 256:Generated_Source\PSoC4/nRF24_COMMANDS.c ****     SPI_SpiUartClearTxBuffer();
 309              		.loc 1 256 0
 310 0006 FFF7FEFF 		bl	SPI_SpiUartClearTxBuffer
 311              	.LVL37:
 257:Generated_Source\PSoC4/nRF24_COMMANDS.c **** 
 258:Generated_Source\PSoC4/nRF24_COMMANDS.c ****     SS_Write(0);
 312              		.loc 1 258 0
ARM GAS  C:\Users\AFDHAL~1\AppData\Local\Temp\cczjM8xh.s 			page 11


 313 000a 0020     		movs	r0, #0
 314 000c FFF7FEFF 		bl	SS_Write
 315              	.LVL38:
 259:Generated_Source\PSoC4/nRF24_COMMANDS.c ****     SPI_SpiUartWriteTxData(NRF_CMD_R_RX_PL_WID);
 316              		.loc 1 259 0
 317 0010 6020     		movs	r0, #96
 318 0012 FFF7FEFF 		bl	SPI_SpiUartWriteTxData
 319              	.LVL39:
 260:Generated_Source\PSoC4/nRF24_COMMANDS.c ****     SPI_SpiUartWriteTxData(NRF_CMD_NOP);
 320              		.loc 1 260 0
 321 0016 FF20     		movs	r0, #255
 322 0018 FFF7FEFF 		bl	SPI_SpiUartWriteTxData
 323              	.LVL40:
 324              	.L22:
 261:Generated_Source\PSoC4/nRF24_COMMANDS.c **** 
 262:Generated_Source\PSoC4/nRF24_COMMANDS.c ****     while (SPI_SpiUartGetRxBufferSize() != 2) {
 325              		.loc 1 262 0 discriminator 1
 326 001c FFF7FEFF 		bl	SPI_SpiUartGetRxBufferSize
 327              	.LVL41:
 328 0020 0228     		cmp	r0, #2
 329 0022 FBD1     		bne	.L22
 263:Generated_Source\PSoC4/nRF24_COMMANDS.c ****     }
 264:Generated_Source\PSoC4/nRF24_COMMANDS.c ****     SS_Write(1);
 330              		.loc 1 264 0
 331 0024 0138     		subs	r0, r0, #1
 332 0026 FFF7FEFF 		bl	SS_Write
 333              	.LVL42:
 265:Generated_Source\PSoC4/nRF24_COMMANDS.c **** 
 266:Generated_Source\PSoC4/nRF24_COMMANDS.c ****     // This is the STATUS Register
 267:Generated_Source\PSoC4/nRF24_COMMANDS.c ****     (void)SPI_SpiUartReadRxData();
 334              		.loc 1 267 0
 335 002a FFF7FEFF 		bl	SPI_SpiUartReadRxData
 336              	.LVL43:
 268:Generated_Source\PSoC4/nRF24_COMMANDS.c ****     // This is the data we want
 269:Generated_Source\PSoC4/nRF24_COMMANDS.c ****     width = SPI_SpiUartReadRxData();
 337              		.loc 1 269 0
 338 002e FFF7FEFF 		bl	SPI_SpiUartReadRxData
 339              	.LVL44:
 340 0032 C4B2     		uxtb	r4, r0
 341              	.LVL45:
 270:Generated_Source\PSoC4/nRF24_COMMANDS.c **** #else // _PSOC_UDB
 271:Generated_Source\PSoC4/nRF24_COMMANDS.c ****     SPI_ClearFIFO();
 272:Generated_Source\PSoC4/nRF24_COMMANDS.c **** 
 273:Generated_Source\PSoC4/nRF24_COMMANDS.c ****     SS_Write(0);
 274:Generated_Source\PSoC4/nRF24_COMMANDS.c ****     SPI_WriteTxData(NRF_CMD_R_RX_PL_WID);
 275:Generated_Source\PSoC4/nRF24_COMMANDS.c ****     SPI_WriteTxData(NRF_CMD_NOP);
 276:Generated_Source\PSoC4/nRF24_COMMANDS.c **** 
 277:Generated_Source\PSoC4/nRF24_COMMANDS.c ****     while (!(SPI_ReadTxStatus() & SPI_STS_BYTE_COMPLETE)) {
 278:Generated_Source\PSoC4/nRF24_COMMANDS.c ****     }
 279:Generated_Source\PSoC4/nRF24_COMMANDS.c ****     SS_Write(1);
 280:Generated_Source\PSoC4/nRF24_COMMANDS.c **** 
 281:Generated_Source\PSoC4/nRF24_COMMANDS.c ****     (void)SPI_ReadRxData();
 282:Generated_Source\PSoC4/nRF24_COMMANDS.c ****     width = SPI_ReadRxData();
 283:Generated_Source\PSoC4/nRF24_COMMANDS.c **** #endif
 284:Generated_Source\PSoC4/nRF24_COMMANDS.c **** 
 285:Generated_Source\PSoC4/nRF24_COMMANDS.c ****     // If width is greater than 32 then is garbage, we must flush the RX FIFO
 286:Generated_Source\PSoC4/nRF24_COMMANDS.c ****     if (32 < width) {
ARM GAS  C:\Users\AFDHAL~1\AppData\Local\Temp\cczjM8xh.s 			page 12


 342              		.loc 1 286 0
 343 0034 202C     		cmp	r4, #32
 344 0036 01D9     		bls	.L23
 287:Generated_Source\PSoC4/nRF24_COMMANDS.c ****         nRF24_flush_rx_cmd();
 345              		.loc 1 287 0
 346 0038 FFF7FEFF 		bl	nRF24_flush_rx_cmd
 347              	.LVL46:
 348              	.L23:
 288:Generated_Source\PSoC4/nRF24_COMMANDS.c ****     }
 289:Generated_Source\PSoC4/nRF24_COMMANDS.c **** 
 290:Generated_Source\PSoC4/nRF24_COMMANDS.c ****     return width;
 291:Generated_Source\PSoC4/nRF24_COMMANDS.c **** }
 349              		.loc 1 291 0
 350 003c 2000     		movs	r0, r4
 351              		@ sp needed
 352              	.LVL47:
 353 003e 10BD     		pop	{r4, pc}
 354              		.cfi_endproc
 355              	.LFE7:
 356              		.size	nRF24_read_payload_width_cmd, .-nRF24_read_payload_width_cmd
 357              		.section	.text.nRF24_write_ack_payload_cmd,"ax",%progbits
 358              		.align	1
 359              		.global	nRF24_write_ack_payload_cmd
 360              		.code	16
 361              		.thumb_func
 362              		.type	nRF24_write_ack_payload_cmd, %function
 363              	nRF24_write_ack_payload_cmd:
 364              	.LFB8:
 292:Generated_Source\PSoC4/nRF24_COMMANDS.c **** 
 293:Generated_Source\PSoC4/nRF24_COMMANDS.c **** /**
 294:Generated_Source\PSoC4/nRF24_COMMANDS.c ****  * @brief Write Payload to be transmitted together with ACK packet.
 295:Generated_Source\PSoC4/nRF24_COMMANDS.c ****  *
 296:Generated_Source\PSoC4/nRF24_COMMANDS.c ****  * Used in RX mode.
 297:Generated_Source\PSoC4/nRF24_COMMANDS.c ****  * Write Payload to be transmitted together with ACK packet on PIPE PPP
 298:Generated_Source\PSoC4/nRF24_COMMANDS.c ****  * (PPP valid in the range from 000 to 101). Maximum three ACK packet
 299:Generated_Source\PSoC4/nRF24_COMMANDS.c ****  * payloads can be pending. Payloads with same PPP are handled using
 300:Generated_Source\PSoC4/nRF24_COMMANDS.c ****  * first in - first out principle.
 301:Generated_Source\PSoC4/nRF24_COMMANDS.c ****  * Write payload: 1 - 32 bytes.
 302:Generated_Source\PSoC4/nRF24_COMMANDS.c ****  * A write operation always starts at byte 0.
 303:Generated_Source\PSoC4/nRF24_COMMANDS.c ****  *
 304:Generated_Source\PSoC4/nRF24_COMMANDS.c ****  * @param const nrf_pipe pipe: Pipe to use.
 305:Generated_Source\PSoC4/nRF24_COMMANDS.c ****  * @param const uint8_t* data: Data to be sent.
 306:Generated_Source\PSoC4/nRF24_COMMANDS.c ****  * @param const size_t size: Bytes of data to be sent (max 32)
 307:Generated_Source\PSoC4/nRF24_COMMANDS.c ****  */
 308:Generated_Source\PSoC4/nRF24_COMMANDS.c **** void nRF24_write_ack_payload_cmd(const nrf_pipe pipe, const uint8_t* data,
 309:Generated_Source\PSoC4/nRF24_COMMANDS.c ****                                         const size_t size)
 310:Generated_Source\PSoC4/nRF24_COMMANDS.c **** {
 365              		.loc 1 310 0
 366              		.cfi_startproc
 367              		@ args = 0, pretend = 0, frame = 0
 368              		@ frame_needed = 0, uses_anonymous_args = 0
 369              	.LVL48:
 370 0000 70B5     		push	{r4, r5, r6, lr}
 371              		.cfi_def_cfa_offset 16
 372              		.cfi_offset 4, -16
 373              		.cfi_offset 5, -12
 374              		.cfi_offset 6, -8
ARM GAS  C:\Users\AFDHAL~1\AppData\Local\Temp\cczjM8xh.s 			page 13


 375              		.cfi_offset 14, -4
 376              		.loc 1 310 0
 377 0002 0D00     		movs	r5, r1
 378 0004 1400     		movs	r4, r2
 379 0006 0600     		movs	r6, r0
 311:Generated_Source\PSoC4/nRF24_COMMANDS.c **** #if defined (_PSOC6)
 312:Generated_Source\PSoC4/nRF24_COMMANDS.c ****     Cy_SCB_ClearRxFifo(SPI_HW);
 313:Generated_Source\PSoC4/nRF24_COMMANDS.c ****     Cy_SCB_ClearTxFifo(SPI_HW);
 314:Generated_Source\PSoC4/nRF24_COMMANDS.c **** 
 315:Generated_Source\PSoC4/nRF24_COMMANDS.c ****     Cy_GPIO_Clr(SS_PORT, SS_NUM);
 316:Generated_Source\PSoC4/nRF24_COMMANDS.c **** 
 317:Generated_Source\PSoC4/nRF24_COMMANDS.c ****     Cy_SCB_Write(SPI_HW, NRF_CMD_W_ACK_PAYLOAD | pipe);
 318:Generated_Source\PSoC4/nRF24_COMMANDS.c ****     Cy_SCB_WriteArrayBlocking(SPI_HW, (void *) data, size);
 319:Generated_Source\PSoC4/nRF24_COMMANDS.c **** 
 320:Generated_Source\PSoC4/nRF24_COMMANDS.c ****     while (Cy_SCB_GetNumInRxFifo(SPI_HW) != (1 + size)) {
 321:Generated_Source\PSoC4/nRF24_COMMANDS.c ****     }
 322:Generated_Source\PSoC4/nRF24_COMMANDS.c ****     Cy_GPIO_Set(SS_PORT, SS_NUM);
 323:Generated_Source\PSoC4/nRF24_COMMANDS.c **** #elif defined (_PSOC4_SCB)
 324:Generated_Source\PSoC4/nRF24_COMMANDS.c ****     SPI_SpiUartClearRxBuffer();
 380              		.loc 1 324 0
 381 0008 FFF7FEFF 		bl	SPI_SpiUartClearRxBuffer
 382              	.LVL49:
 325:Generated_Source\PSoC4/nRF24_COMMANDS.c ****     SPI_SpiUartClearTxBuffer();
 383              		.loc 1 325 0
 384 000c FFF7FEFF 		bl	SPI_SpiUartClearTxBuffer
 385              	.LVL50:
 326:Generated_Source\PSoC4/nRF24_COMMANDS.c **** 
 327:Generated_Source\PSoC4/nRF24_COMMANDS.c ****     SS_Write(0);
 386              		.loc 1 327 0
 387 0010 0020     		movs	r0, #0
 388 0012 FFF7FEFF 		bl	SS_Write
 389              	.LVL51:
 328:Generated_Source\PSoC4/nRF24_COMMANDS.c **** 
 329:Generated_Source\PSoC4/nRF24_COMMANDS.c ****     SPI_SpiUartWriteTxData(NRF_CMD_W_ACK_PAYLOAD | pipe);
 390              		.loc 1 329 0
 391 0016 A820     		movs	r0, #168
 392 0018 3043     		orrs	r0, r6
 393 001a FFF7FEFF 		bl	SPI_SpiUartWriteTxData
 394              	.LVL52:
 330:Generated_Source\PSoC4/nRF24_COMMANDS.c ****     SPI_SpiUartPutArray(data, size);
 395              		.loc 1 330 0
 396 001e 2100     		movs	r1, r4
 397 0020 2800     		movs	r0, r5
 398 0022 FFF7FEFF 		bl	SPI_SpiUartPutArray
 399              	.LVL53:
 400              	.L26:
 331:Generated_Source\PSoC4/nRF24_COMMANDS.c **** 
 332:Generated_Source\PSoC4/nRF24_COMMANDS.c ****     while (SPI_SpiUartGetRxBufferSize() != (1 + size)) {
 401              		.loc 1 332 0 discriminator 1
 402 0026 FFF7FEFF 		bl	SPI_SpiUartGetRxBufferSize
 403              	.LVL54:
 404 002a 631C     		adds	r3, r4, #1
 405 002c 9842     		cmp	r0, r3
 406 002e FAD1     		bne	.L26
 333:Generated_Source\PSoC4/nRF24_COMMANDS.c ****     }
 334:Generated_Source\PSoC4/nRF24_COMMANDS.c ****     SS_Write(1);
 407              		.loc 1 334 0
ARM GAS  C:\Users\AFDHAL~1\AppData\Local\Temp\cczjM8xh.s 			page 14


 408 0030 0120     		movs	r0, #1
 409 0032 FFF7FEFF 		bl	SS_Write
 410              	.LVL55:
 335:Generated_Source\PSoC4/nRF24_COMMANDS.c **** #else // _PSOC_UDB
 336:Generated_Source\PSoC4/nRF24_COMMANDS.c ****     SPI_ClearFIFO();
 337:Generated_Source\PSoC4/nRF24_COMMANDS.c **** 
 338:Generated_Source\PSoC4/nRF24_COMMANDS.c ****     SS_Write(0);
 339:Generated_Source\PSoC4/nRF24_COMMANDS.c **** 
 340:Generated_Source\PSoC4/nRF24_COMMANDS.c ****     SPI_WriteTxData(NRF_CMD_W_ACK_PAYLOAD | pipe);
 341:Generated_Source\PSoC4/nRF24_COMMANDS.c ****     for (size_t i = 0; i < size; i++) {
 342:Generated_Source\PSoC4/nRF24_COMMANDS.c ****         SPI_WriteTxData(data[i]);
 343:Generated_Source\PSoC4/nRF24_COMMANDS.c ****         while (!(SPI_ReadTxStatus() & SPI_STS_BYTE_COMPLETE)){
 344:Generated_Source\PSoC4/nRF24_COMMANDS.c ****         }
 345:Generated_Source\PSoC4/nRF24_COMMANDS.c ****     }
 346:Generated_Source\PSoC4/nRF24_COMMANDS.c **** 
 347:Generated_Source\PSoC4/nRF24_COMMANDS.c ****     while (!(SPI_ReadTxStatus() & SPI_STS_SPI_IDLE)) {
 348:Generated_Source\PSoC4/nRF24_COMMANDS.c ****     }
 349:Generated_Source\PSoC4/nRF24_COMMANDS.c ****     SS_Write(1);
 350:Generated_Source\PSoC4/nRF24_COMMANDS.c **** #endif
 351:Generated_Source\PSoC4/nRF24_COMMANDS.c **** }
 411              		.loc 1 351 0
 412              		@ sp needed
 413              	.LVL56:
 414              	.LVL57:
 415 0036 70BD     		pop	{r4, r5, r6, pc}
 416              		.cfi_endproc
 417              	.LFE8:
 418              		.size	nRF24_write_ack_payload_cmd, .-nRF24_write_ack_payload_cmd
 419              		.section	.text.nRF24_no_ack_payload_cmd,"ax",%progbits
 420              		.align	1
 421              		.global	nRF24_no_ack_payload_cmd
 422              		.code	16
 423              		.thumb_func
 424              		.type	nRF24_no_ack_payload_cmd, %function
 425              	nRF24_no_ack_payload_cmd:
 426              	.LFB9:
 352:Generated_Source\PSoC4/nRF24_COMMANDS.c **** 
 353:Generated_Source\PSoC4/nRF24_COMMANDS.c **** /**
 354:Generated_Source\PSoC4/nRF24_COMMANDS.c ****  * Used in TX mode.
 355:Generated_Source\PSoC4/nRF24_COMMANDS.c ****  * Disable AUTOACK on this packet.
 356:Generated_Source\PSoC4/nRF24_COMMANDS.c ****  *
 357:Generated_Source\PSoC4/nRF24_COMMANDS.c ****  * @param const uint8_t* data: Data to be sent.
 358:Generated_Source\PSoC4/nRF24_COMMANDS.c ****  * @param const size_t size: Bytes of data to be sent (max 32).
 359:Generated_Source\PSoC4/nRF24_COMMANDS.c ****  */
 360:Generated_Source\PSoC4/nRF24_COMMANDS.c **** void nRF24_no_ack_payload_cmd(const uint8_t* data, const size_t size)
 361:Generated_Source\PSoC4/nRF24_COMMANDS.c **** {
 427              		.loc 1 361 0
 428              		.cfi_startproc
 429              		@ args = 0, pretend = 0, frame = 0
 430              		@ frame_needed = 0, uses_anonymous_args = 0
 431              	.LVL58:
 432 0000 70B5     		push	{r4, r5, r6, lr}
 433              		.cfi_def_cfa_offset 16
 434              		.cfi_offset 4, -16
 435              		.cfi_offset 5, -12
 436              		.cfi_offset 6, -8
 437              		.cfi_offset 14, -4
ARM GAS  C:\Users\AFDHAL~1\AppData\Local\Temp\cczjM8xh.s 			page 15


 438              		.loc 1 361 0
 439 0002 0C00     		movs	r4, r1
 440 0004 0500     		movs	r5, r0
 362:Generated_Source\PSoC4/nRF24_COMMANDS.c **** #if defined (_PSOC6)
 363:Generated_Source\PSoC4/nRF24_COMMANDS.c ****     Cy_SCB_ClearRxFifo(SPI_HW);
 364:Generated_Source\PSoC4/nRF24_COMMANDS.c ****     Cy_SCB_ClearTxFifo(SPI_HW);
 365:Generated_Source\PSoC4/nRF24_COMMANDS.c **** 
 366:Generated_Source\PSoC4/nRF24_COMMANDS.c ****     Cy_GPIO_Clr(SS_PORT, SS_NUM);
 367:Generated_Source\PSoC4/nRF24_COMMANDS.c **** 
 368:Generated_Source\PSoC4/nRF24_COMMANDS.c ****     Cy_SCB_Write(SPI_HW, NRF_CMD_W_TX_PAYLOAD_NOACK);
 369:Generated_Source\PSoC4/nRF24_COMMANDS.c ****     Cy_SCB_WriteArrayBlocking(SPI_HW, (void *) data, size);
 370:Generated_Source\PSoC4/nRF24_COMMANDS.c **** 
 371:Generated_Source\PSoC4/nRF24_COMMANDS.c ****     while (Cy_SCB_GetNumInRxFifo(SPI_HW) != (1 + size)) {
 372:Generated_Source\PSoC4/nRF24_COMMANDS.c ****     }
 373:Generated_Source\PSoC4/nRF24_COMMANDS.c ****     Cy_GPIO_Set(SS_PORT, SS_NUM);
 374:Generated_Source\PSoC4/nRF24_COMMANDS.c **** #elif defined (_PSOC4_SCB)
 375:Generated_Source\PSoC4/nRF24_COMMANDS.c ****     SPI_SpiUartClearRxBuffer();
 441              		.loc 1 375 0
 442 0006 FFF7FEFF 		bl	SPI_SpiUartClearRxBuffer
 443              	.LVL59:
 376:Generated_Source\PSoC4/nRF24_COMMANDS.c ****     SPI_SpiUartClearTxBuffer();
 444              		.loc 1 376 0
 445 000a FFF7FEFF 		bl	SPI_SpiUartClearTxBuffer
 446              	.LVL60:
 377:Generated_Source\PSoC4/nRF24_COMMANDS.c **** 
 378:Generated_Source\PSoC4/nRF24_COMMANDS.c ****     SS_Write(0);
 447              		.loc 1 378 0
 448 000e 0020     		movs	r0, #0
 449 0010 FFF7FEFF 		bl	SS_Write
 450              	.LVL61:
 379:Generated_Source\PSoC4/nRF24_COMMANDS.c **** 
 380:Generated_Source\PSoC4/nRF24_COMMANDS.c ****     SPI_SpiUartWriteTxData(NRF_CMD_W_TX_PAYLOAD_NOACK);
 451              		.loc 1 380 0
 452 0014 B020     		movs	r0, #176
 453 0016 FFF7FEFF 		bl	SPI_SpiUartWriteTxData
 454              	.LVL62:
 381:Generated_Source\PSoC4/nRF24_COMMANDS.c ****     SPI_SpiUartPutArray(data, size);
 455              		.loc 1 381 0
 456 001a 2100     		movs	r1, r4
 457 001c 2800     		movs	r0, r5
 458 001e FFF7FEFF 		bl	SPI_SpiUartPutArray
 459              	.LVL63:
 460              	.L29:
 382:Generated_Source\PSoC4/nRF24_COMMANDS.c **** 
 383:Generated_Source\PSoC4/nRF24_COMMANDS.c ****     while (SPI_SpiUartGetRxBufferSize() != (1 + size)) {
 461              		.loc 1 383 0 discriminator 1
 462 0022 FFF7FEFF 		bl	SPI_SpiUartGetRxBufferSize
 463              	.LVL64:
 464 0026 631C     		adds	r3, r4, #1
 465 0028 9842     		cmp	r0, r3
 466 002a FAD1     		bne	.L29
 384:Generated_Source\PSoC4/nRF24_COMMANDS.c ****     }
 385:Generated_Source\PSoC4/nRF24_COMMANDS.c ****     SS_Write(1);
 467              		.loc 1 385 0
 468 002c 0120     		movs	r0, #1
 469 002e FFF7FEFF 		bl	SS_Write
 470              	.LVL65:
ARM GAS  C:\Users\AFDHAL~1\AppData\Local\Temp\cczjM8xh.s 			page 16


 386:Generated_Source\PSoC4/nRF24_COMMANDS.c **** #else // _PSOC_UDB
 387:Generated_Source\PSoC4/nRF24_COMMANDS.c ****     SPI_ClearFIFO();
 388:Generated_Source\PSoC4/nRF24_COMMANDS.c **** 
 389:Generated_Source\PSoC4/nRF24_COMMANDS.c ****     SS_Write(0);
 390:Generated_Source\PSoC4/nRF24_COMMANDS.c **** 
 391:Generated_Source\PSoC4/nRF24_COMMANDS.c ****     SPI_WriteTxData(NRF_CMD_W_TX_PAYLOAD_NOACK);
 392:Generated_Source\PSoC4/nRF24_COMMANDS.c ****     for (size_t i = 0; i < size; i++) {
 393:Generated_Source\PSoC4/nRF24_COMMANDS.c ****         SPI_WriteTxData(data[i]);
 394:Generated_Source\PSoC4/nRF24_COMMANDS.c ****         while (!(SPI_ReadTxStatus() & SPI_STS_BYTE_COMPLETE)){
 395:Generated_Source\PSoC4/nRF24_COMMANDS.c ****         }
 396:Generated_Source\PSoC4/nRF24_COMMANDS.c ****     }
 397:Generated_Source\PSoC4/nRF24_COMMANDS.c **** 
 398:Generated_Source\PSoC4/nRF24_COMMANDS.c ****     while (!(SPI_ReadTxStatus() & SPI_STS_SPI_IDLE)) {
 399:Generated_Source\PSoC4/nRF24_COMMANDS.c ****     }
 400:Generated_Source\PSoC4/nRF24_COMMANDS.c ****     SS_Write(1);
 401:Generated_Source\PSoC4/nRF24_COMMANDS.c **** #endif
 402:Generated_Source\PSoC4/nRF24_COMMANDS.c **** }
 471              		.loc 1 402 0
 472              		@ sp needed
 473              	.LVL66:
 474              	.LVL67:
 475 0032 70BD     		pop	{r4, r5, r6, pc}
 476              		.cfi_endproc
 477              	.LFE9:
 478              		.size	nRF24_no_ack_payload_cmd, .-nRF24_no_ack_payload_cmd
 479              		.section	.text.nRF24_nop_cmd,"ax",%progbits
 480              		.align	1
 481              		.global	nRF24_nop_cmd
 482              		.code	16
 483              		.thumb_func
 484              		.type	nRF24_nop_cmd, %function
 485              	nRF24_nop_cmd:
 486              	.LFB10:
 403:Generated_Source\PSoC4/nRF24_COMMANDS.c **** 
 404:Generated_Source\PSoC4/nRF24_COMMANDS.c **** /**
 405:Generated_Source\PSoC4/nRF24_COMMANDS.c ****  * NOP (No OPeration) Command. Might be used to read the STATUS register.
 406:Generated_Source\PSoC4/nRF24_COMMANDS.c ****  *
 407:Generated_Source\PSoC4/nRF24_COMMANDS.c ****  * @return uint8_t: STATUS register.
 408:Generated_Source\PSoC4/nRF24_COMMANDS.c ****  */
 409:Generated_Source\PSoC4/nRF24_COMMANDS.c **** uint8_t nRF24_nop_cmd(void)
 410:Generated_Source\PSoC4/nRF24_COMMANDS.c **** {
 487              		.loc 1 410 0
 488              		.cfi_startproc
 489              		@ args = 0, pretend = 0, frame = 0
 490              		@ frame_needed = 0, uses_anonymous_args = 0
 491              	.LVL68:
 492 0000 10B5     		push	{r4, lr}
 493              		.cfi_def_cfa_offset 8
 494              		.cfi_offset 4, -8
 495              		.cfi_offset 14, -4
 411:Generated_Source\PSoC4/nRF24_COMMANDS.c ****     uint8_t status = 0;
 412:Generated_Source\PSoC4/nRF24_COMMANDS.c **** #if defined (_PSOC6)
 413:Generated_Source\PSoC4/nRF24_COMMANDS.c ****     Cy_SCB_ClearRxFifo(SPI_HW);
 414:Generated_Source\PSoC4/nRF24_COMMANDS.c ****     Cy_SCB_ClearTxFifo(SPI_HW);
 415:Generated_Source\PSoC4/nRF24_COMMANDS.c **** 
 416:Generated_Source\PSoC4/nRF24_COMMANDS.c ****     Cy_GPIO_Clr(SS_PORT, SS_NUM);
 417:Generated_Source\PSoC4/nRF24_COMMANDS.c **** 
ARM GAS  C:\Users\AFDHAL~1\AppData\Local\Temp\cczjM8xh.s 			page 17


 418:Generated_Source\PSoC4/nRF24_COMMANDS.c ****     Cy_SCB_Write(SPI_HW, NRF_CMD_NOP);
 419:Generated_Source\PSoC4/nRF24_COMMANDS.c **** 
 420:Generated_Source\PSoC4/nRF24_COMMANDS.c ****     while (Cy_SCB_GetNumInRxFifo(SPI_HW) != 1) {
 421:Generated_Source\PSoC4/nRF24_COMMANDS.c ****     }
 422:Generated_Source\PSoC4/nRF24_COMMANDS.c ****     Cy_GPIO_Set(SS_PORT, SS_NUM);
 423:Generated_Source\PSoC4/nRF24_COMMANDS.c **** 
 424:Generated_Source\PSoC4/nRF24_COMMANDS.c ****     status = Cy_SCB_ReadRxFifo(SPI_HW);
 425:Generated_Source\PSoC4/nRF24_COMMANDS.c **** #elif defined (_PSOC4_SCB)
 426:Generated_Source\PSoC4/nRF24_COMMANDS.c ****     SPI_SpiUartClearRxBuffer();
 496              		.loc 1 426 0
 497 0002 FFF7FEFF 		bl	SPI_SpiUartClearRxBuffer
 498              	.LVL69:
 427:Generated_Source\PSoC4/nRF24_COMMANDS.c ****     SPI_SpiUartClearTxBuffer();
 499              		.loc 1 427 0
 500 0006 FFF7FEFF 		bl	SPI_SpiUartClearTxBuffer
 501              	.LVL70:
 428:Generated_Source\PSoC4/nRF24_COMMANDS.c **** 
 429:Generated_Source\PSoC4/nRF24_COMMANDS.c ****     SS_Write(0);
 502              		.loc 1 429 0
 503 000a 0020     		movs	r0, #0
 504 000c FFF7FEFF 		bl	SS_Write
 505              	.LVL71:
 430:Generated_Source\PSoC4/nRF24_COMMANDS.c ****     SPI_SpiUartWriteTxData(NRF_CMD_NOP);
 506              		.loc 1 430 0
 507 0010 FF20     		movs	r0, #255
 508 0012 FFF7FEFF 		bl	SPI_SpiUartWriteTxData
 509              	.LVL72:
 510              	.L32:
 431:Generated_Source\PSoC4/nRF24_COMMANDS.c **** 
 432:Generated_Source\PSoC4/nRF24_COMMANDS.c ****     while (SPI_SpiUartGetRxBufferSize() != 1) {
 511              		.loc 1 432 0 discriminator 1
 512 0016 FFF7FEFF 		bl	SPI_SpiUartGetRxBufferSize
 513              	.LVL73:
 514 001a 0128     		cmp	r0, #1
 515 001c FBD1     		bne	.L32
 433:Generated_Source\PSoC4/nRF24_COMMANDS.c ****     }
 434:Generated_Source\PSoC4/nRF24_COMMANDS.c ****     SS_Write(1);
 516              		.loc 1 434 0
 517 001e FFF7FEFF 		bl	SS_Write
 518              	.LVL74:
 435:Generated_Source\PSoC4/nRF24_COMMANDS.c **** 
 436:Generated_Source\PSoC4/nRF24_COMMANDS.c ****     status = SPI_SpiUartReadRxData();
 519              		.loc 1 436 0
 520 0022 FFF7FEFF 		bl	SPI_SpiUartReadRxData
 521              	.LVL75:
 437:Generated_Source\PSoC4/nRF24_COMMANDS.c **** #else // _PSOC_UDB
 438:Generated_Source\PSoC4/nRF24_COMMANDS.c ****     SPI_ClearFIFO();
 439:Generated_Source\PSoC4/nRF24_COMMANDS.c **** 
 440:Generated_Source\PSoC4/nRF24_COMMANDS.c ****     SS_Write(0);
 441:Generated_Source\PSoC4/nRF24_COMMANDS.c ****     SPI_WriteTxData(NRF_CMD_NOP);
 442:Generated_Source\PSoC4/nRF24_COMMANDS.c **** 
 443:Generated_Source\PSoC4/nRF24_COMMANDS.c ****     while (!(SPI_ReadTxStatus() & SPI_STS_BYTE_COMPLETE)) {
 444:Generated_Source\PSoC4/nRF24_COMMANDS.c ****     }
 445:Generated_Source\PSoC4/nRF24_COMMANDS.c ****     SS_Write(1);
 446:Generated_Source\PSoC4/nRF24_COMMANDS.c **** 
 447:Generated_Source\PSoC4/nRF24_COMMANDS.c ****     status = SPI_ReadRxData();
 448:Generated_Source\PSoC4/nRF24_COMMANDS.c **** #endif
ARM GAS  C:\Users\AFDHAL~1\AppData\Local\Temp\cczjM8xh.s 			page 18


 449:Generated_Source\PSoC4/nRF24_COMMANDS.c ****     return status;
 450:Generated_Source\PSoC4/nRF24_COMMANDS.c **** }
 522              		.loc 1 450 0
 523              		@ sp needed
 449:Generated_Source\PSoC4/nRF24_COMMANDS.c **** }
 524              		.loc 1 449 0
 525 0026 C0B2     		uxtb	r0, r0
 526              		.loc 1 450 0
 527 0028 10BD     		pop	{r4, pc}
 528              		.cfi_endproc
 529              	.LFE10:
 530              		.size	nRF24_nop_cmd, .-nRF24_nop_cmd
 531              		.text
 532              	.Letext0:
 533              		.file 2 "c:\\program files (x86)\\cypress\\psoc creator\\4.1\\psoc creator\\import\\gnu\\arm\\5.4.
 534              		.file 3 "c:\\program files (x86)\\cypress\\psoc creator\\4.1\\psoc creator\\import\\gnu\\arm\\5.4.
 535              		.file 4 "c:\\program files (x86)\\cypress\\psoc creator\\4.1\\psoc creator\\import\\gnu\\arm\\5.4.
 536              		.file 5 "Generated_Source\\PSoC4\\nRF24_DEFS.h"
 537              		.file 6 "Generated_Source\\PSoC4\\SPI_SPI_UART.h"
 538              		.file 7 "Generated_Source\\PSoC4\\SS.h"