ARM GAS  C:\Users\AFDHAL~1\AppData\Local\Temp\cc9C0MvF.s 			page 1


   1              		.syntax unified
   2              		.cpu cortex-m0
   3              		.fpu softvfp
   4              		.eabi_attribute 20, 1
   5              		.eabi_attribute 21, 1
   6              		.eabi_attribute 23, 3
   7              		.eabi_attribute 24, 1
   8              		.eabi_attribute 25, 1
   9              		.eabi_attribute 26, 1
  10              		.eabi_attribute 30, 4
  11              		.eabi_attribute 34, 0
  12              		.eabi_attribute 18, 4
  13              		.thumb
  14              		.syntax unified
  15              		.file	"nRF24_FUNCS.c"
  16              		.text
  17              	.Ltext0:
  18              		.cfi_sections	.debug_frame
  19              		.section	.text.nRF24_init,"ax",%progbits
  20              		.align	1
  21              		.global	nRF24_init
  22              		.code	16
  23              		.thumb_func
  24              		.type	nRF24_init, %function
  25              	nRF24_init:
  26              	.LFB3:
  27              		.file 1 "Generated_Source\\PSoC4\\nRF24_FUNCS.c"
   1:Generated_Source\PSoC4/nRF24_FUNCS.c **** /****************************************************************************
   2:Generated_Source\PSoC4/nRF24_FUNCS.c **** * This file is part of the nRF24 Custom Component for PSoC Devices.
   3:Generated_Source\PSoC4/nRF24_FUNCS.c **** *
   4:Generated_Source\PSoC4/nRF24_FUNCS.c **** * Copyright (C) 2017 Carlos Diaz <carlos.santiago.diaz@gmail.com>
   5:Generated_Source\PSoC4/nRF24_FUNCS.c **** *
   6:Generated_Source\PSoC4/nRF24_FUNCS.c **** * Permission to use, copy, modify, and/or distribute this software for any
   7:Generated_Source\PSoC4/nRF24_FUNCS.c **** * purpose with or without fee is hereby granted, provided that the above
   8:Generated_Source\PSoC4/nRF24_FUNCS.c **** * copyright notice and this permission notice appear in all copies.
   9:Generated_Source\PSoC4/nRF24_FUNCS.c **** *
  10:Generated_Source\PSoC4/nRF24_FUNCS.c **** * THE SOFTWARE IS PROVIDED "AS IS" AND THE AUTHOR DISCLAIMS ALL WARRANTIES
  11:Generated_Source\PSoC4/nRF24_FUNCS.c **** * WITH REGARD TO THIS SOFTWARE INCLUDING ALL IMPLIED WARRANTIES OF
  12:Generated_Source\PSoC4/nRF24_FUNCS.c **** * MERCHANTABILITY AND FITNESS. IN NO EVENT SHALL THE AUTHOR BE LIABLE FOR
  13:Generated_Source\PSoC4/nRF24_FUNCS.c **** * ANY SPECIAL, DIRECT, INDIRECT, OR CONSEQUENTIAL DAMAGES OR ANY DAMAGES
  14:Generated_Source\PSoC4/nRF24_FUNCS.c **** * WHATSOEVER RESULTING FROM LOSS OF USE, DATA OR PROFITS, WHETHER IN AN
  15:Generated_Source\PSoC4/nRF24_FUNCS.c **** * ACTION OF CONTRACT, NEGLIGENCE OR OTHER TORTIOUS ACTION, ARISING OUT OF
  16:Generated_Source\PSoC4/nRF24_FUNCS.c **** * OR IN CONNECTION WITH THE USE OR PERFORMANCE OF THIS SOFTWARE.
  17:Generated_Source\PSoC4/nRF24_FUNCS.c **** ****************************************************************************/
  18:Generated_Source\PSoC4/nRF24_FUNCS.c **** 
  19:Generated_Source\PSoC4/nRF24_FUNCS.c **** /**
  20:Generated_Source\PSoC4/nRF24_FUNCS.c **** * @file nRF24_NRF_FUNCS.c
  21:Generated_Source\PSoC4/nRF24_FUNCS.c **** *
  22:Generated_Source\PSoC4/nRF24_FUNCS.c **** * @brief This file define all the functions available to the user.
  23:Generated_Source\PSoC4/nRF24_FUNCS.c **** */
  24:Generated_Source\PSoC4/nRF24_FUNCS.c **** 
  25:Generated_Source\PSoC4/nRF24_FUNCS.c **** #include "nRF24_CONFIG.h"
  26:Generated_Source\PSoC4/nRF24_FUNCS.c **** #include "nRF24_HAL.h"
  27:Generated_Source\PSoC4/nRF24_FUNCS.c **** #include "nRF24_COMMANDS.h"
  28:Generated_Source\PSoC4/nRF24_FUNCS.c **** #include "nRF24_FUNCS.h"
  29:Generated_Source\PSoC4/nRF24_FUNCS.c **** #include "nRF24_DEFS.h"
  30:Generated_Source\PSoC4/nRF24_FUNCS.c **** 
ARM GAS  C:\Users\AFDHAL~1\AppData\Local\Temp\cc9C0MvF.s 			page 2


  31:Generated_Source\PSoC4/nRF24_FUNCS.c **** /* "Helper" global variables */
  32:Generated_Source\PSoC4/nRF24_FUNCS.c **** /* _nrf_addr_width expresed in bytes, declared with the default value */
  33:Generated_Source\PSoC4/nRF24_FUNCS.c **** static nrf_pipe_addr_width _nrf_addr_width = NRF_PIPE_ADDR_WIDTH_5BYTES;
  34:Generated_Source\PSoC4/nRF24_FUNCS.c **** 
  35:Generated_Source\PSoC4/nRF24_FUNCS.c **** static void
  36:Generated_Source\PSoC4/nRF24_FUNCS.c **** _addr_width_conf_to_bytes(nrf_addr_width addr_width)
  37:Generated_Source\PSoC4/nRF24_FUNCS.c **** {
  38:Generated_Source\PSoC4/nRF24_FUNCS.c ****     switch(addr_width)
  39:Generated_Source\PSoC4/nRF24_FUNCS.c ****     {
  40:Generated_Source\PSoC4/nRF24_FUNCS.c ****     case NRF_SETUP_AW_3BYTES:
  41:Generated_Source\PSoC4/nRF24_FUNCS.c ****         _nrf_addr_width = NRF_PIPE_ADDR_WIDTH_3BYTES;
  42:Generated_Source\PSoC4/nRF24_FUNCS.c ****         break;
  43:Generated_Source\PSoC4/nRF24_FUNCS.c ****     case NRF_SETUP_AW_4BYTES:
  44:Generated_Source\PSoC4/nRF24_FUNCS.c ****         _nrf_addr_width = NRF_PIPE_ADDR_WIDTH_4BYTES;
  45:Generated_Source\PSoC4/nRF24_FUNCS.c ****         break;
  46:Generated_Source\PSoC4/nRF24_FUNCS.c ****     case NRF_SETUP_AW_5BYTES:
  47:Generated_Source\PSoC4/nRF24_FUNCS.c ****         _nrf_addr_width = NRF_PIPE_ADDR_WIDTH_5BYTES;
  48:Generated_Source\PSoC4/nRF24_FUNCS.c ****         break;
  49:Generated_Source\PSoC4/nRF24_FUNCS.c ****     }
  50:Generated_Source\PSoC4/nRF24_FUNCS.c **** }
  51:Generated_Source\PSoC4/nRF24_FUNCS.c **** 
  52:Generated_Source\PSoC4/nRF24_FUNCS.c **** /**
  53:Generated_Source\PSoC4/nRF24_FUNCS.c ****  * @brief Configure the radio and clear IRQs, TX and RX FIFOs.
  54:Generated_Source\PSoC4/nRF24_FUNCS.c ****  */
  55:Generated_Source\PSoC4/nRF24_FUNCS.c **** void nRF24_start(void)
  56:Generated_Source\PSoC4/nRF24_FUNCS.c **** {
  57:Generated_Source\PSoC4/nRF24_FUNCS.c ****     // Recommended delay before start using the nRF24
  58:Generated_Source\PSoC4/nRF24_FUNCS.c ****     CyDelay(NRF_POWER_UP_DELAY_MS);
  59:Generated_Source\PSoC4/nRF24_FUNCS.c **** 
  60:Generated_Source\PSoC4/nRF24_FUNCS.c ****     // Now the radio is in Power Down mode
  61:Generated_Source\PSoC4/nRF24_FUNCS.c **** 
  62:Generated_Source\PSoC4/nRF24_FUNCS.c ****     // Start the SPI and set CE and SS to a known value
  63:Generated_Source\PSoC4/nRF24_FUNCS.c **** #if defined (_PSOC6)
  64:Generated_Source\PSoC4/nRF24_FUNCS.c ****     /* We are using the low level driver, so pass NULL to the context */
  65:Generated_Source\PSoC4/nRF24_FUNCS.c ****     (void) Cy_SCB_SPI_Init(SPI_HW, &SPI_config, NULL);
  66:Generated_Source\PSoC4/nRF24_FUNCS.c ****     Cy_SCB_SPI_Enable(SPI_HW);
  67:Generated_Source\PSoC4/nRF24_FUNCS.c ****     Cy_GPIO_Clr(CE_PORT, CE_NUM);
  68:Generated_Source\PSoC4/nRF24_FUNCS.c ****     Cy_GPIO_Set(SS_PORT, SS_NUM);
  69:Generated_Source\PSoC4/nRF24_FUNCS.c **** #else // PSoC 4 and 5LP
  70:Generated_Source\PSoC4/nRF24_FUNCS.c ****     SPI_Start();
  71:Generated_Source\PSoC4/nRF24_FUNCS.c ****     CE_Write(0);
  72:Generated_Source\PSoC4/nRF24_FUNCS.c ****     SS_Write(1);
  73:Generated_Source\PSoC4/nRF24_FUNCS.c **** #endif
  74:Generated_Source\PSoC4/nRF24_FUNCS.c **** 
  75:Generated_Source\PSoC4/nRF24_FUNCS.c ****     // Flush both nRF24 FIFOs
  76:Generated_Source\PSoC4/nRF24_FUNCS.c ****     nRF24_flush_rx_cmd();
  77:Generated_Source\PSoC4/nRF24_FUNCS.c ****     nRF24_flush_tx_cmd();
  78:Generated_Source\PSoC4/nRF24_FUNCS.c ****     // Clear IRQ flags
  79:Generated_Source\PSoC4/nRF24_FUNCS.c ****     nRF24_clear_all_irqs();
  80:Generated_Source\PSoC4/nRF24_FUNCS.c **** 
  81:Generated_Source\PSoC4/nRF24_FUNCS.c ****     // Configure the nRF24 with the data from the customizer
  82:Generated_Source\PSoC4/nRF24_FUNCS.c ****     nRF24_init();
  83:Generated_Source\PSoC4/nRF24_FUNCS.c **** 
  84:Generated_Source\PSoC4/nRF24_FUNCS.c ****     // After PWR_UP = 1 the radio is in Standby-I mode, 130us of delay for settling
  85:Generated_Source\PSoC4/nRF24_FUNCS.c ****     CyDelayUs(150);
  86:Generated_Source\PSoC4/nRF24_FUNCS.c **** }
  87:Generated_Source\PSoC4/nRF24_FUNCS.c **** 
ARM GAS  C:\Users\AFDHAL~1\AppData\Local\Temp\cc9C0MvF.s 			page 3


  88:Generated_Source\PSoC4/nRF24_FUNCS.c **** /**
  89:Generated_Source\PSoC4/nRF24_FUNCS.c ****  * Configure the nRF radio with the data from the customizer.
  90:Generated_Source\PSoC4/nRF24_FUNCS.c ****  */
  91:Generated_Source\PSoC4/nRF24_FUNCS.c **** void nRF24_init(void)
  92:Generated_Source\PSoC4/nRF24_FUNCS.c **** {
  28              		.loc 1 92 0
  29              		.cfi_startproc
  30              		@ args = 0, pretend = 0, frame = 0
  31              		@ frame_needed = 0, uses_anonymous_args = 0
  32 0000 10B5     		push	{r4, lr}
  33              		.cfi_def_cfa_offset 8
  34              		.cfi_offset 4, -8
  35              		.cfi_offset 14, -4
  93:Generated_Source\PSoC4/nRF24_FUNCS.c ****     nRF24_write_register(NRF_REG_EN_AA, CUSTOMIZER_EN_AA);
  36              		.loc 1 93 0
  37 0002 3F21     		movs	r1, #63
  38 0004 0120     		movs	r0, #1
  39 0006 FFF7FEFF 		bl	nRF24_write_register
  40              	.LVL0:
  94:Generated_Source\PSoC4/nRF24_FUNCS.c ****     nRF24_write_register(NRF_REG_EN_RXADDR, CUSTOMIZER_EN_RXADDR);
  41              		.loc 1 94 0
  42 000a 0121     		movs	r1, #1
  43 000c 0220     		movs	r0, #2
  44 000e FFF7FEFF 		bl	nRF24_write_register
  45              	.LVL1:
  95:Generated_Source\PSoC4/nRF24_FUNCS.c ****     nRF24_write_register(NRF_REG_SETUP_AW, CUSTOMIZER_SETUP_AW);
  46              		.loc 1 95 0
  47 0012 0321     		movs	r1, #3
  48 0014 0800     		movs	r0, r1
  49 0016 FFF7FEFF 		bl	nRF24_write_register
  50              	.LVL2:
  96:Generated_Source\PSoC4/nRF24_FUNCS.c ****     nRF24_write_register(NRF_REG_SETUP_RETR, CUSTOMIZER_SETUP_RETR);
  51              		.loc 1 96 0
  52 001a 0021     		movs	r1, #0
  53 001c 0420     		movs	r0, #4
  54 001e FFF7FEFF 		bl	nRF24_write_register
  55              	.LVL3:
  97:Generated_Source\PSoC4/nRF24_FUNCS.c ****     nRF24_write_register(NRF_REG_RF_CH, CUSTOMIZER_RF_CH);
  56              		.loc 1 97 0
  57 0022 7821     		movs	r1, #120
  58 0024 0520     		movs	r0, #5
  59 0026 FFF7FEFF 		bl	nRF24_write_register
  60              	.LVL4:
  98:Generated_Source\PSoC4/nRF24_FUNCS.c ****     nRF24_write_register(NRF_REG_RF_SETUP, CUSTOMIZER_RF_SETUP);
  61              		.loc 1 98 0
  62 002a 0621     		movs	r1, #6
  63 002c 0800     		movs	r0, r1
  64 002e FFF7FEFF 		bl	nRF24_write_register
  65              	.LVL5:
  99:Generated_Source\PSoC4/nRF24_FUNCS.c ****     nRF24_write_register(NRF_REG_DYNPD, CUSTOMIZER_DYNPD);
  66              		.loc 1 99 0
  67 0032 3F21     		movs	r1, #63
  68 0034 1C20     		movs	r0, #28
  69 0036 FFF7FEFF 		bl	nRF24_write_register
  70              	.LVL6:
 100:Generated_Source\PSoC4/nRF24_FUNCS.c ****     nRF24_write_register(NRF_REG_FEATURE, CUSTOMIZER_FEATURE);
  71              		.loc 1 100 0
ARM GAS  C:\Users\AFDHAL~1\AppData\Local\Temp\cc9C0MvF.s 			page 4


  72 003a 0521     		movs	r1, #5
  73 003c 1D20     		movs	r0, #29
  74 003e FFF7FEFF 		bl	nRF24_write_register
  75              	.LVL7:
 101:Generated_Source\PSoC4/nRF24_FUNCS.c **** 
 102:Generated_Source\PSoC4/nRF24_FUNCS.c **** // Configuring data pipes
 103:Generated_Source\PSoC4/nRF24_FUNCS.c **** #if (ENABLE_PIPE0 == 1)
 104:Generated_Source\PSoC4/nRF24_FUNCS.c ****     nRF24_write_register(NRF_REG_RX_PW_P0, CUSTOMIZER_RX_PW_P0);
  76              		.loc 1 104 0
  77 0042 2021     		movs	r1, #32
  78 0044 1120     		movs	r0, #17
  79 0046 FFF7FEFF 		bl	nRF24_write_register
  80              	.LVL8:
 105:Generated_Source\PSoC4/nRF24_FUNCS.c **** #endif
 106:Generated_Source\PSoC4/nRF24_FUNCS.c **** #if (ENABLE_PIPE1 == 1)
 107:Generated_Source\PSoC4/nRF24_FUNCS.c ****     nRF24_write_register(NRF_REG_RX_PW_P1, CUSTOMIZER_RX_PW_P1);
 108:Generated_Source\PSoC4/nRF24_FUNCS.c **** #endif
 109:Generated_Source\PSoC4/nRF24_FUNCS.c **** #if (ENABLE_PIPE2 == 1)
 110:Generated_Source\PSoC4/nRF24_FUNCS.c ****     nRF24_write_register(NRF_REG_RX_ADDR_P2, CUSTOMIZER_RX_ADDR_P2);
 111:Generated_Source\PSoC4/nRF24_FUNCS.c ****     nRF24_write_register(NRF_REG_RX_PW_P2, CUSTOMIZER_RX_PW_P2);
 112:Generated_Source\PSoC4/nRF24_FUNCS.c **** #endif
 113:Generated_Source\PSoC4/nRF24_FUNCS.c **** #if (ENABLE_PIPE3 == 1)
 114:Generated_Source\PSoC4/nRF24_FUNCS.c ****     nRF24_write_register(NRF_REG_RX_ADDR_P3, CUSTOMIZER_RX_ADDR_P3);
 115:Generated_Source\PSoC4/nRF24_FUNCS.c ****     nRF24_write_register(NRF_REG_RX_PW_P3, CUSTOMIZER_RX_PW_P3);
 116:Generated_Source\PSoC4/nRF24_FUNCS.c **** #endif
 117:Generated_Source\PSoC4/nRF24_FUNCS.c **** #if (ENABLE_PIPE4 == 1)
 118:Generated_Source\PSoC4/nRF24_FUNCS.c ****     nRF24_write_register(NRF_REG_RX_ADDR_P4, CUSTOMIZER_RX_ADDR_P4);
 119:Generated_Source\PSoC4/nRF24_FUNCS.c ****     nRF24_write_register(NRF_REG_RX_PW_P4, CUSTOMIZER_RX_PW_P4);
 120:Generated_Source\PSoC4/nRF24_FUNCS.c **** #endif
 121:Generated_Source\PSoC4/nRF24_FUNCS.c **** #if (ENABLE_PIPE5 == 1)
 122:Generated_Source\PSoC4/nRF24_FUNCS.c ****     nRF24_write_register(NRF_REG_RX_ADDR_P5, CUSTOMIZER_RX_ADDR_P5);
 123:Generated_Source\PSoC4/nRF24_FUNCS.c ****     nRF24_write_register(NRF_REG_RX_PW_P5, CUSTOMIZER_RX_PW_P5);
 124:Generated_Source\PSoC4/nRF24_FUNCS.c **** #endif
 125:Generated_Source\PSoC4/nRF24_FUNCS.c **** 
 126:Generated_Source\PSoC4/nRF24_FUNCS.c ****     nRF24_write_register(NRF_REG_CONFIG, CUSTOMIZER_CONFIG);
  81              		.loc 1 126 0
  82 004a 1B21     		movs	r1, #27
  83 004c 0020     		movs	r0, #0
  84 004e FFF7FEFF 		bl	nRF24_write_register
  85              	.LVL9:
  86              	.LBB6:
  87              	.LBB7:
  47:Generated_Source\PSoC4/nRF24_FUNCS.c ****         break;
  88              		.loc 1 47 0
  89 0052 0522     		movs	r2, #5
  90 0054 014B     		ldr	r3, .L2
  91              	.LBE7:
  92              	.LBE6:
 127:Generated_Source\PSoC4/nRF24_FUNCS.c **** 
 128:Generated_Source\PSoC4/nRF24_FUNCS.c ****     // Set the _nrf_addr_width variable
 129:Generated_Source\PSoC4/nRF24_FUNCS.c ****     _addr_width_conf_to_bytes(CUSTOMIZER_SETUP_AW);
 130:Generated_Source\PSoC4/nRF24_FUNCS.c **** }
  93              		.loc 1 130 0
  94              		@ sp needed
  95              	.LBB9:
  96              	.LBB8:
  47:Generated_Source\PSoC4/nRF24_FUNCS.c ****         break;
ARM GAS  C:\Users\AFDHAL~1\AppData\Local\Temp\cc9C0MvF.s 			page 5


  97              		.loc 1 47 0
  98 0056 1A70     		strb	r2, [r3]
  99              	.LVL10:
 100              	.LBE8:
 101              	.LBE9:
 102              		.loc 1 130 0
 103 0058 10BD     		pop	{r4, pc}
 104              	.L3:
 105 005a C046     		.align	2
 106              	.L2:
 107 005c 00000000 		.word	.LANCHOR0
 108              		.cfi_endproc
 109              	.LFE3:
 110              		.size	nRF24_init, .-nRF24_init
 111              		.section	.text.nRF24_enable,"ax",%progbits
 112              		.align	1
 113              		.global	nRF24_enable
 114              		.code	16
 115              		.thumb_func
 116              		.type	nRF24_enable, %function
 117              	nRF24_enable:
 118              	.LFB71:
 119              		.cfi_startproc
 120              		@ args = 0, pretend = 0, frame = 0
 121              		@ frame_needed = 0, uses_anonymous_args = 0
 122              		@ link register save eliminated.
 123              		@ sp needed
 124 0000 7047     		bx	lr
 125              		.cfi_endproc
 126              	.LFE71:
 127              		.size	nRF24_enable, .-nRF24_enable
 128              		.section	.text.nRF24_stop,"ax",%progbits
 129              		.align	1
 130              		.global	nRF24_stop
 131              		.code	16
 132              		.thumb_func
 133              		.type	nRF24_stop, %function
 134              	nRF24_stop:
 135              	.LFB69:
 136              		.cfi_startproc
 137              		@ args = 0, pretend = 0, frame = 0
 138              		@ frame_needed = 0, uses_anonymous_args = 0
 139              		@ link register save eliminated.
 140              		@ sp needed
 141 0000 7047     		bx	lr
 142              		.cfi_endproc
 143              	.LFE69:
 144              		.size	nRF24_stop, .-nRF24_stop
 145              		.section	.text.nRF24_wakeup,"ax",%progbits
 146              		.align	1
 147              		.global	nRF24_wakeup
 148              		.code	16
 149              		.thumb_func
 150              		.type	nRF24_wakeup, %function
 151              	nRF24_wakeup:
 152              	.LFB7:
 131:Generated_Source\PSoC4/nRF24_FUNCS.c **** 
ARM GAS  C:\Users\AFDHAL~1\AppData\Local\Temp\cc9C0MvF.s 			page 6


 132:Generated_Source\PSoC4/nRF24_FUNCS.c **** /**
 133:Generated_Source\PSoC4/nRF24_FUNCS.c ****  * Enable the nRF24 radio.
 134:Generated_Source\PSoC4/nRF24_FUNCS.c ****  *
 135:Generated_Source\PSoC4/nRF24_FUNCS.c ****  * @todo Implement this function
 136:Generated_Source\PSoC4/nRF24_FUNCS.c ****  */
 137:Generated_Source\PSoC4/nRF24_FUNCS.c **** void nRF24_enable(void)
 138:Generated_Source\PSoC4/nRF24_FUNCS.c **** {
 139:Generated_Source\PSoC4/nRF24_FUNCS.c **** }
 140:Generated_Source\PSoC4/nRF24_FUNCS.c **** 
 141:Generated_Source\PSoC4/nRF24_FUNCS.c **** /**
 142:Generated_Source\PSoC4/nRF24_FUNCS.c ****  * Stop the nRF24 radio.
 143:Generated_Source\PSoC4/nRF24_FUNCS.c ****  *
 144:Generated_Source\PSoC4/nRF24_FUNCS.c ****  * @todo Implement this function
 145:Generated_Source\PSoC4/nRF24_FUNCS.c ****  */
 146:Generated_Source\PSoC4/nRF24_FUNCS.c **** void nRF24_stop(void)
 147:Generated_Source\PSoC4/nRF24_FUNCS.c **** {
 148:Generated_Source\PSoC4/nRF24_FUNCS.c **** }
 149:Generated_Source\PSoC4/nRF24_FUNCS.c **** 
 150:Generated_Source\PSoC4/nRF24_FUNCS.c **** /**
 151:Generated_Source\PSoC4/nRF24_FUNCS.c ****  * Put the nRF24 radio on Standby-I mode.
 152:Generated_Source\PSoC4/nRF24_FUNCS.c ****  * This function doesn't put the SPI, MCU nor pins to sleep
 153:Generated_Source\PSoC4/nRF24_FUNCS.c ****  */
 154:Generated_Source\PSoC4/nRF24_FUNCS.c **** void nRF24_sleep(void)
 155:Generated_Source\PSoC4/nRF24_FUNCS.c **** {
 156:Generated_Source\PSoC4/nRF24_FUNCS.c ****     // is standby.I the lowest power mode?
 157:Generated_Source\PSoC4/nRF24_FUNCS.c ****     nRF24_set_standby_i_mode();
 158:Generated_Source\PSoC4/nRF24_FUNCS.c **** }
 159:Generated_Source\PSoC4/nRF24_FUNCS.c **** 
 160:Generated_Source\PSoC4/nRF24_FUNCS.c **** /**
 161:Generated_Source\PSoC4/nRF24_FUNCS.c ****  * Wakeup the nRF24 radio, and restore the configuration.
 162:Generated_Source\PSoC4/nRF24_FUNCS.c ****  *
 163:Generated_Source\PSoC4/nRF24_FUNCS.c ****  * @todo Implement this function.
 164:Generated_Source\PSoC4/nRF24_FUNCS.c ****  */
 165:Generated_Source\PSoC4/nRF24_FUNCS.c **** void nRF24_wakeup(void)
 166:Generated_Source\PSoC4/nRF24_FUNCS.c **** {
 153              		.loc 1 166 0
 154              		.cfi_startproc
 155              		@ args = 0, pretend = 0, frame = 0
 156              		@ frame_needed = 0, uses_anonymous_args = 0
 157              		.loc 1 166 0
 158 0000 10B5     		push	{r4, lr}
 159              		.cfi_def_cfa_offset 8
 160              		.cfi_offset 4, -8
 161              		.cfi_offset 14, -4
 167:Generated_Source\PSoC4/nRF24_FUNCS.c ****     // after leaving standby-I mode the radio need a time to
 168:Generated_Source\PSoC4/nRF24_FUNCS.c ****     // return to TX or RX Mode
 169:Generated_Source\PSoC4/nRF24_FUNCS.c ****     nRF24_set_bit(NRF_REG_CONFIG, NRF_CONFIG_PWR_UP);
 162              		.loc 1 169 0
 163 0002 0221     		movs	r1, #2
 164 0004 0020     		movs	r0, #0
 165 0006 FFF7FEFF 		bl	nRF24_set_bit
 166              	.LVL11:
 170:Generated_Source\PSoC4/nRF24_FUNCS.c ****     CyDelay(5);
 167              		.loc 1 170 0
 168 000a 0520     		movs	r0, #5
 169 000c FFF7FEFF 		bl	CyDelay
 170              	.LVL12:
ARM GAS  C:\Users\AFDHAL~1\AppData\Local\Temp\cc9C0MvF.s 			page 7


 171:Generated_Source\PSoC4/nRF24_FUNCS.c **** }
 171              		.loc 1 171 0
 172              		@ sp needed
 173 0010 10BD     		pop	{r4, pc}
 174              		.cfi_endproc
 175              	.LFE7:
 176              		.size	nRF24_wakeup, .-nRF24_wakeup
 177              		.section	.text.nRF24_save_config,"ax",%progbits
 178              		.align	1
 179              		.global	nRF24_save_config
 180              		.code	16
 181              		.thumb_func
 182              		.type	nRF24_save_config, %function
 183              	nRF24_save_config:
 184              	.LFB67:
 185              		.cfi_startproc
 186              		@ args = 0, pretend = 0, frame = 0
 187              		@ frame_needed = 0, uses_anonymous_args = 0
 188              		@ link register save eliminated.
 189              		@ sp needed
 190 0000 7047     		bx	lr
 191              		.cfi_endproc
 192              	.LFE67:
 193              		.size	nRF24_save_config, .-nRF24_save_config
 194              		.section	.text.nRF24_restore_config,"ax",%progbits
 195              		.align	1
 196              		.global	nRF24_restore_config
 197              		.code	16
 198              		.thumb_func
 199              		.type	nRF24_restore_config, %function
 200              	nRF24_restore_config:
 201              	.LFB65:
 202              		.cfi_startproc
 203              		@ args = 0, pretend = 0, frame = 0
 204              		@ frame_needed = 0, uses_anonymous_args = 0
 205              		@ link register save eliminated.
 206              		@ sp needed
 207 0000 7047     		bx	lr
 208              		.cfi_endproc
 209              	.LFE65:
 210              		.size	nRF24_restore_config, .-nRF24_restore_config
 211              		.section	.text.nRF24_set_power_down_mode,"ax",%progbits
 212              		.align	1
 213              		.global	nRF24_set_power_down_mode
 214              		.code	16
 215              		.thumb_func
 216              		.type	nRF24_set_power_down_mode, %function
 217              	nRF24_set_power_down_mode:
 218              	.LFB11:
 172:Generated_Source\PSoC4/nRF24_FUNCS.c **** 
 173:Generated_Source\PSoC4/nRF24_FUNCS.c **** /**
 174:Generated_Source\PSoC4/nRF24_FUNCS.c ****  * Save the nRF24 radio configuration.
 175:Generated_Source\PSoC4/nRF24_FUNCS.c ****  *
 176:Generated_Source\PSoC4/nRF24_FUNCS.c ****  * @todo Implement this function.
 177:Generated_Source\PSoC4/nRF24_FUNCS.c ****  */
 178:Generated_Source\PSoC4/nRF24_FUNCS.c **** void nRF24_save_config(void)
 179:Generated_Source\PSoC4/nRF24_FUNCS.c **** {
ARM GAS  C:\Users\AFDHAL~1\AppData\Local\Temp\cc9C0MvF.s 			page 8


 180:Generated_Source\PSoC4/nRF24_FUNCS.c **** }
 181:Generated_Source\PSoC4/nRF24_FUNCS.c **** 
 182:Generated_Source\PSoC4/nRF24_FUNCS.c **** /**
 183:Generated_Source\PSoC4/nRF24_FUNCS.c ****  * Restore the nRF24 radio configuration.
 184:Generated_Source\PSoC4/nRF24_FUNCS.c ****  *
 185:Generated_Source\PSoC4/nRF24_FUNCS.c ****  * @todo Implement this function.
 186:Generated_Source\PSoC4/nRF24_FUNCS.c ****  */
 187:Generated_Source\PSoC4/nRF24_FUNCS.c **** void nRF24_restore_config(void)
 188:Generated_Source\PSoC4/nRF24_FUNCS.c **** {
 189:Generated_Source\PSoC4/nRF24_FUNCS.c **** }
 190:Generated_Source\PSoC4/nRF24_FUNCS.c **** 
 191:Generated_Source\PSoC4/nRF24_FUNCS.c **** /**
 192:Generated_Source\PSoC4/nRF24_FUNCS.c ****  * Configure the radio as Receiver or Transmitter.
 193:Generated_Source\PSoC4/nRF24_FUNCS.c ****  *
 194:Generated_Source\PSoC4/nRF24_FUNCS.c ****  * @param const nrf_mode mode: The radio can be configured as Receiver (PRX)
 195:Generated_Source\PSoC4/nRF24_FUNCS.c ****  * or Transmitter (PTX).
 196:Generated_Source\PSoC4/nRF24_FUNCS.c ****  */
 197:Generated_Source\PSoC4/nRF24_FUNCS.c **** void nRF24_set_mode(const nrf_mode mode)
 198:Generated_Source\PSoC4/nRF24_FUNCS.c **** {
 199:Generated_Source\PSoC4/nRF24_FUNCS.c ****     mode ? nRF24_set_rx_mode() : nRF24_set_tx_mode();
 200:Generated_Source\PSoC4/nRF24_FUNCS.c **** }
 201:Generated_Source\PSoC4/nRF24_FUNCS.c **** 
 202:Generated_Source\PSoC4/nRF24_FUNCS.c **** /**
 203:Generated_Source\PSoC4/nRF24_FUNCS.c ****  * @brief Set radio in Power Down Mode.
 204:Generated_Source\PSoC4/nRF24_FUNCS.c ****  *
 205:Generated_Source\PSoC4/nRF24_FUNCS.c ****  * In power down mode nRF24 is disabled using minimal current consumption.
 206:Generated_Source\PSoC4/nRF24_FUNCS.c ****  * All register values available are maintained and the SPI is kept active,
 207:Generated_Source\PSoC4/nRF24_FUNCS.c ****  * enabling change of configuration and the uploading/downloading of data
 208:Generated_Source\PSoC4/nRF24_FUNCS.c ****  * registers.
 209:Generated_Source\PSoC4/nRF24_FUNCS.c ****  * Power down mode is entered by setting the PWR_UP bit (CONFIG register) to 0.
 210:Generated_Source\PSoC4/nRF24_FUNCS.c ****  */
 211:Generated_Source\PSoC4/nRF24_FUNCS.c **** void nRF24_set_power_down_mode(void)
 212:Generated_Source\PSoC4/nRF24_FUNCS.c **** {
 219              		.loc 1 212 0
 220              		.cfi_startproc
 221              		@ args = 0, pretend = 0, frame = 0
 222              		@ frame_needed = 0, uses_anonymous_args = 0
 223              		.loc 1 212 0
 224 0000 10B5     		push	{r4, lr}
 225              		.cfi_def_cfa_offset 8
 226              		.cfi_offset 4, -8
 227              		.cfi_offset 14, -4
 213:Generated_Source\PSoC4/nRF24_FUNCS.c ****     nRF24_clear_bit(NRF_REG_CONFIG, NRF_CONFIG_PWR_UP);
 228              		.loc 1 213 0
 229 0002 0221     		movs	r1, #2
 230 0004 0020     		movs	r0, #0
 231 0006 FFF7FEFF 		bl	nRF24_clear_bit
 232              	.LVL13:
 214:Generated_Source\PSoC4/nRF24_FUNCS.c **** }
 233              		.loc 1 214 0
 234              		@ sp needed
 235 000a 10BD     		pop	{r4, pc}
 236              		.cfi_endproc
 237              	.LFE11:
 238              		.size	nRF24_set_power_down_mode, .-nRF24_set_power_down_mode
 239              		.section	.text.nRF24_set_rx_mode,"ax",%progbits
 240              		.align	1
ARM GAS  C:\Users\AFDHAL~1\AppData\Local\Temp\cc9C0MvF.s 			page 9


 241              		.global	nRF24_set_rx_mode
 242              		.code	16
 243              		.thumb_func
 244              		.type	nRF24_set_rx_mode, %function
 245              	nRF24_set_rx_mode:
 246              	.LFB14:
 215:Generated_Source\PSoC4/nRF24_FUNCS.c **** 
 216:Generated_Source\PSoC4/nRF24_FUNCS.c **** /**
 217:Generated_Source\PSoC4/nRF24_FUNCS.c ****  * @brief Set the radio in Standby I Mode.
 218:Generated_Source\PSoC4/nRF24_FUNCS.c ****  *
 219:Generated_Source\PSoC4/nRF24_FUNCS.c ****  * By setting the PWR_UP bit in the CONFIG register to 1, the device enters
 220:Generated_Source\PSoC4/nRF24_FUNCS.c ****  * standby-I mode. Standby-I mode is used to minimize average current
 221:Generated_Source\PSoC4/nRF24_FUNCS.c ****  * consumption while maintaining short start up times.
 222:Generated_Source\PSoC4/nRF24_FUNCS.c ****  * In this mode only part of the crystal oscillator is active. Change to
 223:Generated_Source\PSoC4/nRF24_FUNCS.c ****  * active modes only happens if CE is set high and when CE is set low,
 224:Generated_Source\PSoC4/nRF24_FUNCS.c ****  * the nRF24 returns to standby-I mode from both the TX and RX modes.
 225:Generated_Source\PSoC4/nRF24_FUNCS.c ****  */
 226:Generated_Source\PSoC4/nRF24_FUNCS.c **** void nRF24_set_standby_i_mode(void)
 227:Generated_Source\PSoC4/nRF24_FUNCS.c **** {
 228:Generated_Source\PSoC4/nRF24_FUNCS.c ****     nRF24_stop_listening();
 229:Generated_Source\PSoC4/nRF24_FUNCS.c ****     nRF24_set_bit(NRF_REG_CONFIG, NRF_CONFIG_PWR_UP);
 230:Generated_Source\PSoC4/nRF24_FUNCS.c **** }
 231:Generated_Source\PSoC4/nRF24_FUNCS.c **** 
 232:Generated_Source\PSoC4/nRF24_FUNCS.c **** /**
 233:Generated_Source\PSoC4/nRF24_FUNCS.c ****  * @brief Set the radio in Standby II Mode.
 234:Generated_Source\PSoC4/nRF24_FUNCS.c ****  *
 235:Generated_Source\PSoC4/nRF24_FUNCS.c ****  * In standby-II mode extra clock buffers are active and more current is used
 236:Generated_Source\PSoC4/nRF24_FUNCS.c ****  * compared to standby-I mode. nRF24 enters standby-II mode if CE is held high
 237:Generated_Source\PSoC4/nRF24_FUNCS.c ****  * on a TX device with an empty TX FIFO.
 238:Generated_Source\PSoC4/nRF24_FUNCS.c ****  * If a new packet is uploaded to the TX FIFO, the PLL immediately starts and
 239:Generated_Source\PSoC4/nRF24_FUNCS.c ****  * the packet is transmitted after the normal PLL settling  delay (130us).
 240:Generated_Source\PSoC4/nRF24_FUNCS.c ****  */
 241:Generated_Source\PSoC4/nRF24_FUNCS.c **** void nRF24_set_standby_ii_mode(void)
 242:Generated_Source\PSoC4/nRF24_FUNCS.c **** {
 243:Generated_Source\PSoC4/nRF24_FUNCS.c ****     nRF24_start_listening();
 244:Generated_Source\PSoC4/nRF24_FUNCS.c ****     nRF24_set_bit(NRF_REG_CONFIG, NRF_CONFIG_PWR_UP);
 245:Generated_Source\PSoC4/nRF24_FUNCS.c **** }
 246:Generated_Source\PSoC4/nRF24_FUNCS.c **** 
 247:Generated_Source\PSoC4/nRF24_FUNCS.c **** /**
 248:Generated_Source\PSoC4/nRF24_FUNCS.c ****  * @brief Set the radio in Receiver (Rx) Mode.
 249:Generated_Source\PSoC4/nRF24_FUNCS.c ****  *
 250:Generated_Source\PSoC4/nRF24_FUNCS.c ****  * RX mode is an active mode where the nRF24 radio is used as receiver. To
 251:Generated_Source\PSoC4/nRF24_FUNCS.c ****  * enter this mode, the nRF24 must have the PWR_UP bit, PRIM_RX bit and the CE
 252:Generated_Source\PSoC4/nRF24_FUNCS.c ****  * pin set high.
 253:Generated_Source\PSoC4/nRF24_FUNCS.c ****  */
 254:Generated_Source\PSoC4/nRF24_FUNCS.c **** void nRF24_set_rx_mode(void)
 255:Generated_Source\PSoC4/nRF24_FUNCS.c **** {
 247              		.loc 1 255 0
 248              		.cfi_startproc
 249              		@ args = 0, pretend = 0, frame = 0
 250              		@ frame_needed = 0, uses_anonymous_args = 0
 256:Generated_Source\PSoC4/nRF24_FUNCS.c ****     nRF24_set_bit(NRF_REG_CONFIG, NRF_CONFIG_BIT_PRIM_RX);
 251              		.loc 1 256 0
 252 0000 0021     		movs	r1, #0
 255:Generated_Source\PSoC4/nRF24_FUNCS.c ****     nRF24_set_bit(NRF_REG_CONFIG, NRF_CONFIG_BIT_PRIM_RX);
 253              		.loc 1 255 0
 254 0002 10B5     		push	{r4, lr}
ARM GAS  C:\Users\AFDHAL~1\AppData\Local\Temp\cc9C0MvF.s 			page 10


 255              		.cfi_def_cfa_offset 8
 256              		.cfi_offset 4, -8
 257              		.cfi_offset 14, -4
 258              		.loc 1 256 0
 259 0004 0800     		movs	r0, r1
 260 0006 FFF7FEFF 		bl	nRF24_set_bit
 261              	.LVL14:
 257:Generated_Source\PSoC4/nRF24_FUNCS.c **** }
 262              		.loc 1 257 0
 263              		@ sp needed
 264 000a 10BD     		pop	{r4, pc}
 265              		.cfi_endproc
 266              	.LFE14:
 267              		.size	nRF24_set_rx_mode, .-nRF24_set_rx_mode
 268              		.section	.text.nRF24_set_tx_mode,"ax",%progbits
 269              		.align	1
 270              		.global	nRF24_set_tx_mode
 271              		.code	16
 272              		.thumb_func
 273              		.type	nRF24_set_tx_mode, %function
 274              	nRF24_set_tx_mode:
 275              	.LFB15:
 258:Generated_Source\PSoC4/nRF24_FUNCS.c **** 
 259:Generated_Source\PSoC4/nRF24_FUNCS.c **** /**
 260:Generated_Source\PSoC4/nRF24_FUNCS.c ****  * @brief Set the radio in Transmitted (Tx) Mode.
 261:Generated_Source\PSoC4/nRF24_FUNCS.c ****  *
 262:Generated_Source\PSoC4/nRF24_FUNCS.c ****  * TX mode is an active mode for transmitting packets. To enter this mode,
 263:Generated_Source\PSoC4/nRF24_FUNCS.c ****  * the nRF24 must have the PWR_UP bit set high, PRIM_RX bit set low, a payload
 264:Generated_Source\PSoC4/nRF24_FUNCS.c ****  * in the TX FIFO and a high pulse on the CE for more than 10us.
 265:Generated_Source\PSoC4/nRF24_FUNCS.c ****  */
 266:Generated_Source\PSoC4/nRF24_FUNCS.c **** void nRF24_set_tx_mode(void)
 267:Generated_Source\PSoC4/nRF24_FUNCS.c **** {
 276              		.loc 1 267 0
 277              		.cfi_startproc
 278              		@ args = 0, pretend = 0, frame = 0
 279              		@ frame_needed = 0, uses_anonymous_args = 0
 268:Generated_Source\PSoC4/nRF24_FUNCS.c ****     nRF24_clear_bit(NRF_REG_CONFIG, NRF_CONFIG_BIT_PRIM_RX);
 280              		.loc 1 268 0
 281 0000 0021     		movs	r1, #0
 267:Generated_Source\PSoC4/nRF24_FUNCS.c ****     nRF24_clear_bit(NRF_REG_CONFIG, NRF_CONFIG_BIT_PRIM_RX);
 282              		.loc 1 267 0
 283 0002 10B5     		push	{r4, lr}
 284              		.cfi_def_cfa_offset 8
 285              		.cfi_offset 4, -8
 286              		.cfi_offset 14, -4
 287              		.loc 1 268 0
 288 0004 0800     		movs	r0, r1
 289 0006 FFF7FEFF 		bl	nRF24_clear_bit
 290              	.LVL15:
 269:Generated_Source\PSoC4/nRF24_FUNCS.c **** }
 291              		.loc 1 269 0
 292              		@ sp needed
 293 000a 10BD     		pop	{r4, pc}
 294              		.cfi_endproc
 295              	.LFE15:
 296              		.size	nRF24_set_tx_mode, .-nRF24_set_tx_mode
 297              		.section	.text.nRF24_set_mode,"ax",%progbits
ARM GAS  C:\Users\AFDHAL~1\AppData\Local\Temp\cc9C0MvF.s 			page 11


 298              		.align	1
 299              		.global	nRF24_set_mode
 300              		.code	16
 301              		.thumb_func
 302              		.type	nRF24_set_mode, %function
 303              	nRF24_set_mode:
 304              	.LFB10:
 198:Generated_Source\PSoC4/nRF24_FUNCS.c ****     mode ? nRF24_set_rx_mode() : nRF24_set_tx_mode();
 305              		.loc 1 198 0
 306              		.cfi_startproc
 307              		@ args = 0, pretend = 0, frame = 0
 308              		@ frame_needed = 0, uses_anonymous_args = 0
 309              	.LVL16:
 310 0000 10B5     		push	{r4, lr}
 311              		.cfi_def_cfa_offset 8
 312              		.cfi_offset 4, -8
 313              		.cfi_offset 14, -4
 199:Generated_Source\PSoC4/nRF24_FUNCS.c **** }
 314              		.loc 1 199 0
 315 0002 0028     		cmp	r0, #0
 316 0004 02D0     		beq	.L13
 199:Generated_Source\PSoC4/nRF24_FUNCS.c **** }
 317              		.loc 1 199 0 is_stmt 0 discriminator 1
 318 0006 FFF7FEFF 		bl	nRF24_set_rx_mode
 319              	.LVL17:
 320 000a 01E0     		b	.L12
 321              	.LVL18:
 322              	.L13:
 199:Generated_Source\PSoC4/nRF24_FUNCS.c **** }
 323              		.loc 1 199 0 discriminator 2
 324 000c FFF7FEFF 		bl	nRF24_set_tx_mode
 325              	.LVL19:
 326              	.L12:
 200:Generated_Source\PSoC4/nRF24_FUNCS.c **** 
 327              		.loc 1 200 0 is_stmt 1
 328              		@ sp needed
 329 0010 10BD     		pop	{r4, pc}
 330              		.cfi_endproc
 331              	.LFE10:
 332              		.size	nRF24_set_mode, .-nRF24_set_mode
 333              		.section	.text.nRF24_enable_auto_ack,"ax",%progbits
 334              		.align	1
 335              		.global	nRF24_enable_auto_ack
 336              		.code	16
 337              		.thumb_func
 338              		.type	nRF24_enable_auto_ack, %function
 339              	nRF24_enable_auto_ack:
 340              	.LFB16:
 270:Generated_Source\PSoC4/nRF24_FUNCS.c **** 
 271:Generated_Source\PSoC4/nRF24_FUNCS.c **** /**
 272:Generated_Source\PSoC4/nRF24_FUNCS.c ****  * @brief Enable AutoACK in the given pipe.
 273:Generated_Source\PSoC4/nRF24_FUNCS.c ****  *
 274:Generated_Source\PSoC4/nRF24_FUNCS.c ****  * @param pipe: Enable AutoACK in the given pipe.
 275:Generated_Source\PSoC4/nRF24_FUNCS.c ****  */
 276:Generated_Source\PSoC4/nRF24_FUNCS.c **** void nRF24_enable_auto_ack(const nrf_pipe pipe)
 277:Generated_Source\PSoC4/nRF24_FUNCS.c **** {
 341              		.loc 1 277 0
ARM GAS  C:\Users\AFDHAL~1\AppData\Local\Temp\cc9C0MvF.s 			page 12


 342              		.cfi_startproc
 343              		@ args = 0, pretend = 0, frame = 0
 344              		@ frame_needed = 0, uses_anonymous_args = 0
 345              	.LVL20:
 346 0000 10B5     		push	{r4, lr}
 347              		.cfi_def_cfa_offset 8
 348              		.cfi_offset 4, -8
 349              		.cfi_offset 14, -4
 350              		.loc 1 277 0
 351 0002 0100     		movs	r1, r0
 278:Generated_Source\PSoC4/nRF24_FUNCS.c ****     nRF24_set_bit(NRF_REG_EN_AA, pipe);
 352              		.loc 1 278 0
 353 0004 0120     		movs	r0, #1
 354              	.LVL21:
 355 0006 FFF7FEFF 		bl	nRF24_set_bit
 356              	.LVL22:
 279:Generated_Source\PSoC4/nRF24_FUNCS.c **** }
 357              		.loc 1 279 0
 358              		@ sp needed
 359 000a 10BD     		pop	{r4, pc}
 360              		.cfi_endproc
 361              	.LFE16:
 362              		.size	nRF24_enable_auto_ack, .-nRF24_enable_auto_ack
 363              		.section	.text.nRF24_disable_auto_ack,"ax",%progbits
 364              		.align	1
 365              		.global	nRF24_disable_auto_ack
 366              		.code	16
 367              		.thumb_func
 368              		.type	nRF24_disable_auto_ack, %function
 369              	nRF24_disable_auto_ack:
 370              	.LFB17:
 280:Generated_Source\PSoC4/nRF24_FUNCS.c **** 
 281:Generated_Source\PSoC4/nRF24_FUNCS.c **** /**
 282:Generated_Source\PSoC4/nRF24_FUNCS.c ****  * @brief Disable AutoACK in the given pipe.
 283:Generated_Source\PSoC4/nRF24_FUNCS.c ****  *
 284:Generated_Source\PSoC4/nRF24_FUNCS.c ****  * @param pipe: Disable AutoACK in the given pipe.
 285:Generated_Source\PSoC4/nRF24_FUNCS.c ****  */
 286:Generated_Source\PSoC4/nRF24_FUNCS.c **** void nRF24_disable_auto_ack(const nrf_pipe pipe)
 287:Generated_Source\PSoC4/nRF24_FUNCS.c **** {
 371              		.loc 1 287 0
 372              		.cfi_startproc
 373              		@ args = 0, pretend = 0, frame = 0
 374              		@ frame_needed = 0, uses_anonymous_args = 0
 375              	.LVL23:
 376 0000 10B5     		push	{r4, lr}
 377              		.cfi_def_cfa_offset 8
 378              		.cfi_offset 4, -8
 379              		.cfi_offset 14, -4
 380              		.loc 1 287 0
 381 0002 0100     		movs	r1, r0
 288:Generated_Source\PSoC4/nRF24_FUNCS.c ****     nRF24_clear_bit(NRF_REG_EN_AA, pipe);
 382              		.loc 1 288 0
 383 0004 0120     		movs	r0, #1
 384              	.LVL24:
 385 0006 FFF7FEFF 		bl	nRF24_clear_bit
 386              	.LVL25:
 289:Generated_Source\PSoC4/nRF24_FUNCS.c **** }
ARM GAS  C:\Users\AFDHAL~1\AppData\Local\Temp\cc9C0MvF.s 			page 13


 387              		.loc 1 289 0
 388              		@ sp needed
 389 000a 10BD     		pop	{r4, pc}
 390              		.cfi_endproc
 391              	.LFE17:
 392              		.size	nRF24_disable_auto_ack, .-nRF24_disable_auto_ack
 393              		.section	.text.nRF24_set_channel,"ax",%progbits
 394              		.align	1
 395              		.global	nRF24_set_channel
 396              		.code	16
 397              		.thumb_func
 398              		.type	nRF24_set_channel, %function
 399              	nRF24_set_channel:
 400              	.LFB18:
 290:Generated_Source\PSoC4/nRF24_FUNCS.c **** 
 291:Generated_Source\PSoC4/nRF24_FUNCS.c **** /**
 292:Generated_Source\PSoC4/nRF24_FUNCS.c ****  * @brief Set the channel where the radio will work.
 293:Generated_Source\PSoC4/nRF24_FUNCS.c ****  *
 294:Generated_Source\PSoC4/nRF24_FUNCS.c ****  * @param uint8_t channel: Channel where the radio will work.
 295:Generated_Source\PSoC4/nRF24_FUNCS.c ****  */
 296:Generated_Source\PSoC4/nRF24_FUNCS.c **** void nRF24_set_channel(uint8_t channel)
 297:Generated_Source\PSoC4/nRF24_FUNCS.c **** {
 401              		.loc 1 297 0
 402              		.cfi_startproc
 403              		@ args = 0, pretend = 0, frame = 0
 404              		@ frame_needed = 0, uses_anonymous_args = 0
 405              	.LVL26:
 406 0000 10B5     		push	{r4, lr}
 407              		.cfi_def_cfa_offset 8
 408              		.cfi_offset 4, -8
 409              		.cfi_offset 14, -4
 298:Generated_Source\PSoC4/nRF24_FUNCS.c ****     if (NRF_MAX_RF_CHANNEL < channel) {
 299:Generated_Source\PSoC4/nRF24_FUNCS.c ****         channel = NRF_MAX_RF_CHANNEL;
 300:Generated_Source\PSoC4/nRF24_FUNCS.c ****     }
 301:Generated_Source\PSoC4/nRF24_FUNCS.c **** 
 302:Generated_Source\PSoC4/nRF24_FUNCS.c ****     nRF24_write_register(NRF_REG_RF_CH, channel);
 410              		.loc 1 302 0
 411 0002 011C     		adds	r1, r0, #0
 412 0004 7D28     		cmp	r0, #125
 413 0006 00D9     		bls	.L19
 414 0008 7D21     		movs	r1, #125
 415              	.L19:
 416 000a C9B2     		uxtb	r1, r1
 417 000c 0520     		movs	r0, #5
 418              	.LVL27:
 419 000e FFF7FEFF 		bl	nRF24_write_register
 420              	.LVL28:
 303:Generated_Source\PSoC4/nRF24_FUNCS.c **** 
 304:Generated_Source\PSoC4/nRF24_FUNCS.c ****     // Flush both nRF24 FIFOs, from mcuoneclipse nrf24 component
 305:Generated_Source\PSoC4/nRF24_FUNCS.c ****     nRF24_flush_rx_cmd();
 306:Generated_Source\PSoC4/nRF24_FUNCS.c ****     nRF24_flush_tx_cmd();
 307:Generated_Source\PSoC4/nRF24_FUNCS.c **** }
 421              		.loc 1 307 0
 422              		@ sp needed
 305:Generated_Source\PSoC4/nRF24_FUNCS.c ****     nRF24_flush_tx_cmd();
 423              		.loc 1 305 0
 424 0012 FFF7FEFF 		bl	nRF24_flush_rx_cmd
ARM GAS  C:\Users\AFDHAL~1\AppData\Local\Temp\cc9C0MvF.s 			page 14


 425              	.LVL29:
 306:Generated_Source\PSoC4/nRF24_FUNCS.c **** }
 426              		.loc 1 306 0
 427 0016 FFF7FEFF 		bl	nRF24_flush_tx_cmd
 428              	.LVL30:
 429              		.loc 1 307 0
 430 001a 10BD     		pop	{r4, pc}
 431              		.cfi_endproc
 432              	.LFE18:
 433              		.size	nRF24_set_channel, .-nRF24_set_channel
 434              		.section	.text.nRF24_get_channel,"ax",%progbits
 435              		.align	1
 436              		.global	nRF24_get_channel
 437              		.code	16
 438              		.thumb_func
 439              		.type	nRF24_get_channel, %function
 440              	nRF24_get_channel:
 441              	.LFB19:
 308:Generated_Source\PSoC4/nRF24_FUNCS.c **** 
 309:Generated_Source\PSoC4/nRF24_FUNCS.c **** /**
 310:Generated_Source\PSoC4/nRF24_FUNCS.c ****  * @brief Set the data pipes address width.
 311:Generated_Source\PSoC4/nRF24_FUNCS.c ****  *
 312:Generated_Source\PSoC4/nRF24_FUNCS.c ****  * @param const nrf_setup_address_width addr_width:
 313:Generated_Source\PSoC4/nRF24_FUNCS.c ****  */
 314:Generated_Source\PSoC4/nRF24_FUNCS.c **** uint8_t nRF24_get_channel(void)
 315:Generated_Source\PSoC4/nRF24_FUNCS.c **** {
 442              		.loc 1 315 0
 443              		.cfi_startproc
 444              		@ args = 0, pretend = 0, frame = 0
 445              		@ frame_needed = 0, uses_anonymous_args = 0
 446 0000 10B5     		push	{r4, lr}
 447              		.cfi_def_cfa_offset 8
 448              		.cfi_offset 4, -8
 449              		.cfi_offset 14, -4
 316:Generated_Source\PSoC4/nRF24_FUNCS.c ****     return nRF24_read_register(NRF_REG_RF_CH);
 450              		.loc 1 316 0
 451 0002 0520     		movs	r0, #5
 452 0004 FFF7FEFF 		bl	nRF24_read_register
 453              	.LVL31:
 317:Generated_Source\PSoC4/nRF24_FUNCS.c **** }
 454              		.loc 1 317 0
 455              		@ sp needed
 456 0008 10BD     		pop	{r4, pc}
 457              		.cfi_endproc
 458              	.LFE19:
 459              		.size	nRF24_get_channel, .-nRF24_get_channel
 460              		.section	.text.nRF24_set_address_width,"ax",%progbits
 461              		.align	1
 462              		.global	nRF24_set_address_width
 463              		.code	16
 464              		.thumb_func
 465              		.type	nRF24_set_address_width, %function
 466              	nRF24_set_address_width:
 467              	.LFB20:
 318:Generated_Source\PSoC4/nRF24_FUNCS.c **** 
 319:Generated_Source\PSoC4/nRF24_FUNCS.c **** /**
 320:Generated_Source\PSoC4/nRF24_FUNCS.c ****  * @brief Set the data pipes address width.
ARM GAS  C:\Users\AFDHAL~1\AppData\Local\Temp\cc9C0MvF.s 			page 15


 321:Generated_Source\PSoC4/nRF24_FUNCS.c ****  *
 322:Generated_Source\PSoC4/nRF24_FUNCS.c ****  * @param const nrf_addr_width addr_width:
 323:Generated_Source\PSoC4/nRF24_FUNCS.c ****  */
 324:Generated_Source\PSoC4/nRF24_FUNCS.c **** void nRF24_set_address_width(const nrf_addr_width addr_width)
 325:Generated_Source\PSoC4/nRF24_FUNCS.c **** {
 468              		.loc 1 325 0
 469              		.cfi_startproc
 470              		@ args = 0, pretend = 0, frame = 0
 471              		@ frame_needed = 0, uses_anonymous_args = 0
 472              	.LVL32:
 473 0000 10B5     		push	{r4, lr}
 474              		.cfi_def_cfa_offset 8
 475              		.cfi_offset 4, -8
 476              		.cfi_offset 14, -4
 326:Generated_Source\PSoC4/nRF24_FUNCS.c ****     nRF24_write_register(NRF_REG_SETUP_AW, (uint8_t)addr_width);
 477              		.loc 1 326 0
 478 0002 0100     		movs	r1, r0
 325:Generated_Source\PSoC4/nRF24_FUNCS.c ****     nRF24_write_register(NRF_REG_SETUP_AW, (uint8_t)addr_width);
 479              		.loc 1 325 0
 480 0004 0400     		movs	r4, r0
 481              		.loc 1 326 0
 482 0006 0320     		movs	r0, #3
 483              	.LVL33:
 484 0008 FFF7FEFF 		bl	nRF24_write_register
 485              	.LVL34:
 486              	.LBB12:
 487              	.LBB13:
  38:Generated_Source\PSoC4/nRF24_FUNCS.c ****     {
 488              		.loc 1 38 0
 489 000c 022C     		cmp	r4, #2
 490 000e 05D0     		beq	.L23
 491 0010 032C     		cmp	r4, #3
 492 0012 05D0     		beq	.L24
  41:Generated_Source\PSoC4/nRF24_FUNCS.c ****         break;
 493              		.loc 1 41 0
 494 0014 0322     		movs	r2, #3
  38:Generated_Source\PSoC4/nRF24_FUNCS.c ****     {
 495              		.loc 1 38 0
 496 0016 012C     		cmp	r4, #1
 497 0018 05D1     		bne	.L21
 498 001a 02E0     		b	.L26
 499              	.L23:
  44:Generated_Source\PSoC4/nRF24_FUNCS.c ****         break;
 500              		.loc 1 44 0
 501 001c 0422     		movs	r2, #4
 502 001e 00E0     		b	.L26
 503              	.L24:
  47:Generated_Source\PSoC4/nRF24_FUNCS.c ****         break;
 504              		.loc 1 47 0
 505 0020 0522     		movs	r2, #5
 506              	.L26:
 507 0022 014B     		ldr	r3, .L27
 508 0024 1A70     		strb	r2, [r3]
 509              	.LVL35:
 510              	.L21:
 511              	.LBE13:
 512              	.LBE12:
ARM GAS  C:\Users\AFDHAL~1\AppData\Local\Temp\cc9C0MvF.s 			page 16


 327:Generated_Source\PSoC4/nRF24_FUNCS.c ****     // update the _nrf_addr_width variable
 328:Generated_Source\PSoC4/nRF24_FUNCS.c ****     _addr_width_conf_to_bytes(addr_width);
 329:Generated_Source\PSoC4/nRF24_FUNCS.c **** }
 513              		.loc 1 329 0
 514              		@ sp needed
 515 0026 10BD     		pop	{r4, pc}
 516              	.L28:
 517              		.align	2
 518              	.L27:
 519 0028 00000000 		.word	.LANCHOR0
 520              		.cfi_endproc
 521              	.LFE20:
 522              		.size	nRF24_set_address_width, .-nRF24_set_address_width
 523              		.section	.text.nRF24_get_address_width,"ax",%progbits
 524              		.align	1
 525              		.global	nRF24_get_address_width
 526              		.code	16
 527              		.thumb_func
 528              		.type	nRF24_get_address_width, %function
 529              	nRF24_get_address_width:
 530              	.LFB21:
 330:Generated_Source\PSoC4/nRF24_FUNCS.c **** 
 331:Generated_Source\PSoC4/nRF24_FUNCS.c **** /**
 332:Generated_Source\PSoC4/nRF24_FUNCS.c ****  * @brief Get the address width of the data pipes.
 333:Generated_Source\PSoC4/nRF24_FUNCS.c ****  *
 334:Generated_Source\PSoC4/nRF24_FUNCS.c ****  * @return uint8_t: Address width in bytes.
 335:Generated_Source\PSoC4/nRF24_FUNCS.c ****  */
 336:Generated_Source\PSoC4/nRF24_FUNCS.c **** uint8_t nRF24_get_address_width(void)
 337:Generated_Source\PSoC4/nRF24_FUNCS.c **** {
 531              		.loc 1 337 0
 532              		.cfi_startproc
 533              		@ args = 0, pretend = 0, frame = 0
 534              		@ frame_needed = 0, uses_anonymous_args = 0
 535              		@ link register save eliminated.
 338:Generated_Source\PSoC4/nRF24_FUNCS.c ****     return _nrf_addr_width;
 536              		.loc 1 338 0
 537 0000 014B     		ldr	r3, .L30
 339:Generated_Source\PSoC4/nRF24_FUNCS.c **** }
 538              		.loc 1 339 0
 539              		@ sp needed
 338:Generated_Source\PSoC4/nRF24_FUNCS.c ****     return _nrf_addr_width;
 540              		.loc 1 338 0
 541 0002 1878     		ldrb	r0, [r3]
 542              		.loc 1 339 0
 543 0004 7047     		bx	lr
 544              	.L31:
 545 0006 C046     		.align	2
 546              	.L30:
 547 0008 00000000 		.word	.LANCHOR0
 548              		.cfi_endproc
 549              	.LFE21:
 550              		.size	nRF24_get_address_width, .-nRF24_get_address_width
 551              		.section	.text.nRF24_set_rx_pipe_address,"ax",%progbits
 552              		.align	1
 553              		.global	nRF24_set_rx_pipe_address
 554              		.code	16
 555              		.thumb_func
ARM GAS  C:\Users\AFDHAL~1\AppData\Local\Temp\cc9C0MvF.s 			page 17


 556              		.type	nRF24_set_rx_pipe_address, %function
 557              	nRF24_set_rx_pipe_address:
 558              	.LFB22:
 340:Generated_Source\PSoC4/nRF24_FUNCS.c **** 
 341:Generated_Source\PSoC4/nRF24_FUNCS.c **** /**
 342:Generated_Source\PSoC4/nRF24_FUNCS.c ****  * @brief Set the address of the RX Pipe 0 in the radio.
 343:Generated_Source\PSoC4/nRF24_FUNCS.c ****  *
 344:Generated_Source\PSoC4/nRF24_FUNCS.c ****  * This function configure the address of the Rx Pipe 0 of the radio.
 345:Generated_Source\PSoC4/nRF24_FUNCS.c ****  *
 346:Generated_Source\PSoC4/nRF24_FUNCS.c ****  * @param const uint8_t* addr:
 347:Generated_Source\PSoC4/nRF24_FUNCS.c ****  * @param size_t size:
 348:Generated_Source\PSoC4/nRF24_FUNCS.c ****  */
 349:Generated_Source\PSoC4/nRF24_FUNCS.c **** void nRF24_set_rx_pipe_address(const nrf_addr_rx_pipe pipe,
 350:Generated_Source\PSoC4/nRF24_FUNCS.c ****                                             const uint8_t *addr, size_t size)
 351:Generated_Source\PSoC4/nRF24_FUNCS.c **** {
 559              		.loc 1 351 0
 560              		.cfi_startproc
 561              		@ args = 0, pretend = 0, frame = 0
 562              		@ frame_needed = 0, uses_anonymous_args = 0
 563              	.LVL36:
 564 0000 10B5     		push	{r4, lr}
 565              		.cfi_def_cfa_offset 8
 566              		.cfi_offset 4, -8
 567              		.cfi_offset 14, -4
 568              		.loc 1 351 0
 569 0002 0300     		movs	r3, r0
 570 0004 1400     		movs	r4, r2
 352:Generated_Source\PSoC4/nRF24_FUNCS.c ****     if (NULL == addr) {
 571              		.loc 1 352 0
 572 0006 0029     		cmp	r1, #0
 573 0008 11D0     		beq	.L32
 353:Generated_Source\PSoC4/nRF24_FUNCS.c ****         return;
 354:Generated_Source\PSoC4/nRF24_FUNCS.c ****     }
 355:Generated_Source\PSoC4/nRF24_FUNCS.c ****     
 356:Generated_Source\PSoC4/nRF24_FUNCS.c ****     switch(pipe) {
 574              		.loc 1 356 0
 575 000a 0A38     		subs	r0, r0, #10
 576              	.LVL37:
 577 000c 0528     		cmp	r0, #5
 578 000e 0ED8     		bhi	.L32
 579 0010 FFF7FEFF 		bl	__gnu_thumb1_case_uqi
 580              	.L35:
 581 0014 03       		.byte	(.L34-.L35)/2
 582 0015 03       		.byte	(.L34-.L35)/2
 583 0016 09       		.byte	(.L36-.L35)/2
 584 0017 09       		.byte	(.L36-.L35)/2
 585 0018 09       		.byte	(.L36-.L35)/2
 586 0019 09       		.byte	(.L36-.L35)/2
 587              		.p2align 1
 588              	.L34:
 357:Generated_Source\PSoC4/nRF24_FUNCS.c ****     // For pipes 0 and 1 we can change up to 5 bytes of it's addresses
 358:Generated_Source\PSoC4/nRF24_FUNCS.c ****     case NRF_ADDR_PIPE0:
 359:Generated_Source\PSoC4/nRF24_FUNCS.c ****     case NRF_ADDR_PIPE1:
 360:Generated_Source\PSoC4/nRF24_FUNCS.c ****         // The smaller address is 3 bytes
 361:Generated_Source\PSoC4/nRF24_FUNCS.c ****         if (NRF_PIPE_ADDR_WIDTH_3BYTES > size) {
 362:Generated_Source\PSoC4/nRF24_FUNCS.c ****             // TODO
 363:Generated_Source\PSoC4/nRF24_FUNCS.c ****         }
ARM GAS  C:\Users\AFDHAL~1\AppData\Local\Temp\cc9C0MvF.s 			page 18


 364:Generated_Source\PSoC4/nRF24_FUNCS.c ****         
 365:Generated_Source\PSoC4/nRF24_FUNCS.c ****         if (_nrf_addr_width < size) {
 589              		.loc 1 365 0
 590 001a 054A     		ldr	r2, .L42
 591              	.LVL38:
 592 001c 1278     		ldrb	r2, [r2]
 593              	.LVL39:
 366:Generated_Source\PSoC4/nRF24_FUNCS.c ****             size = _nrf_addr_width;
 367:Generated_Source\PSoC4/nRF24_FUNCS.c ****         }
 368:Generated_Source\PSoC4/nRF24_FUNCS.c ****             
 369:Generated_Source\PSoC4/nRF24_FUNCS.c ****         nRF24_write_long_register(pipe, addr, size);
 594              		.loc 1 369 0
 595 001e A242     		cmp	r2, r4
 596 0020 02D9     		bls	.L41
 597 0022 2200     		movs	r2, r4
 598 0024 00E0     		b	.L41
 599              	.LVL40:
 600              	.L36:
 370:Generated_Source\PSoC4/nRF24_FUNCS.c ****         break;
 371:Generated_Source\PSoC4/nRF24_FUNCS.c ****     // For pipes 2, 3, 4 and 5 we can change only the LSB of it's address
 372:Generated_Source\PSoC4/nRF24_FUNCS.c ****     case NRF_ADDR_PIPE2:
 373:Generated_Source\PSoC4/nRF24_FUNCS.c ****     case NRF_ADDR_PIPE3:
 374:Generated_Source\PSoC4/nRF24_FUNCS.c ****     case NRF_ADDR_PIPE4:
 375:Generated_Source\PSoC4/nRF24_FUNCS.c ****     case NRF_ADDR_PIPE5:
 376:Generated_Source\PSoC4/nRF24_FUNCS.c ****         (void)size; // so we don't get a warning on unused variable
 377:Generated_Source\PSoC4/nRF24_FUNCS.c ****         
 378:Generated_Source\PSoC4/nRF24_FUNCS.c ****         nRF24_write_long_register(pipe, addr, 1);
 601              		.loc 1 378 0
 602 0026 0122     		movs	r2, #1
 603              	.LVL41:
 604              	.L41:
 605 0028 1800     		movs	r0, r3
 606 002a FFF7FEFF 		bl	nRF24_write_long_register
 607              	.LVL42:
 608              	.L32:
 379:Generated_Source\PSoC4/nRF24_FUNCS.c ****         break;
 380:Generated_Source\PSoC4/nRF24_FUNCS.c ****     }
 381:Generated_Source\PSoC4/nRF24_FUNCS.c **** }
 609              		.loc 1 381 0
 610              		@ sp needed
 611 002e 10BD     		pop	{r4, pc}
 612              	.L43:
 613              		.align	2
 614              	.L42:
 615 0030 00000000 		.word	.LANCHOR0
 616              		.cfi_endproc
 617              	.LFE22:
 618              		.size	nRF24_set_rx_pipe_address, .-nRF24_set_rx_pipe_address
 619              		.section	.text.nRF24_get_rx_pipe_address,"ax",%progbits
 620              		.align	1
 621              		.global	nRF24_get_rx_pipe_address
 622              		.code	16
 623              		.thumb_func
 624              		.type	nRF24_get_rx_pipe_address, %function
 625              	nRF24_get_rx_pipe_address:
 626              	.LFB23:
 382:Generated_Source\PSoC4/nRF24_FUNCS.c **** 
ARM GAS  C:\Users\AFDHAL~1\AppData\Local\Temp\cc9C0MvF.s 			page 19


 383:Generated_Source\PSoC4/nRF24_FUNCS.c **** /**
 384:Generated_Source\PSoC4/nRF24_FUNCS.c ****  * @brief Get the address of the RX Pipe 0 in the radio.
 385:Generated_Source\PSoC4/nRF24_FUNCS.c ****  *
 386:Generated_Source\PSoC4/nRF24_FUNCS.c ****  * @param uint8_t* addr:
 387:Generated_Source\PSoC4/nRF24_FUNCS.c ****  * @param size_t size:
 388:Generated_Source\PSoC4/nRF24_FUNCS.c ****  */
 389:Generated_Source\PSoC4/nRF24_FUNCS.c **** void nRF24_get_rx_pipe_address(const nrf_addr_rx_pipe pipe,
 390:Generated_Source\PSoC4/nRF24_FUNCS.c ****                                             uint8_t *addr, size_t size)
 391:Generated_Source\PSoC4/nRF24_FUNCS.c **** {
 627              		.loc 1 391 0
 628              		.cfi_startproc
 629              		@ args = 0, pretend = 0, frame = 0
 630              		@ frame_needed = 0, uses_anonymous_args = 0
 631              	.LVL43:
 632 0000 70B5     		push	{r4, r5, r6, lr}
 633              		.cfi_def_cfa_offset 16
 634              		.cfi_offset 4, -16
 635              		.cfi_offset 5, -12
 636              		.cfi_offset 6, -8
 637              		.cfi_offset 14, -4
 638              		.loc 1 391 0
 639 0002 1300     		movs	r3, r2
 640 0004 0500     		movs	r5, r0
 641 0006 0E1E     		subs	r6, r1, #0
 392:Generated_Source\PSoC4/nRF24_FUNCS.c ****     if (NULL == addr) {
 642              		.loc 1 392 0
 643 0008 1DD0     		beq	.L44
 393:Generated_Source\PSoC4/nRF24_FUNCS.c ****         return;
 394:Generated_Source\PSoC4/nRF24_FUNCS.c ****     }
 395:Generated_Source\PSoC4/nRF24_FUNCS.c ****     
 396:Generated_Source\PSoC4/nRF24_FUNCS.c ****     // The smaller address is 3 bytes
 397:Generated_Source\PSoC4/nRF24_FUNCS.c ****     if (NRF_PIPE_ADDR_WIDTH_3BYTES > size) {
 398:Generated_Source\PSoC4/nRF24_FUNCS.c ****         // TODO
 399:Generated_Source\PSoC4/nRF24_FUNCS.c ****     }
 400:Generated_Source\PSoC4/nRF24_FUNCS.c ****     
 401:Generated_Source\PSoC4/nRF24_FUNCS.c ****     if (_nrf_addr_width < size) {
 644              		.loc 1 401 0
 645 000a 0F4A     		ldr	r2, .L53
 646              	.LVL44:
 647 000c 1278     		ldrb	r2, [r2]
 648 000e 9A42     		cmp	r2, r3
 649 0010 00D9     		bls	.L46
 650 0012 1A00     		movs	r2, r3
 651              	.L46:
 652              	.LVL45:
 402:Generated_Source\PSoC4/nRF24_FUNCS.c ****         size = _nrf_addr_width;
 403:Generated_Source\PSoC4/nRF24_FUNCS.c ****     }
 404:Generated_Source\PSoC4/nRF24_FUNCS.c ****     
 405:Generated_Source\PSoC4/nRF24_FUNCS.c ****     switch(pipe) {
 653              		.loc 1 405 0
 654 0014 2800     		movs	r0, r5
 655              	.LVL46:
 656 0016 0A38     		subs	r0, r0, #10
 657 0018 0528     		cmp	r0, #5
 658 001a 14D8     		bhi	.L44
 659 001c FFF7FEFF 		bl	__gnu_thumb1_case_uqi
 660              	.L48:
ARM GAS  C:\Users\AFDHAL~1\AppData\Local\Temp\cc9C0MvF.s 			page 20


 661 0020 03       		.byte	(.L47-.L48)/2
 662 0021 03       		.byte	(.L47-.L48)/2
 663 0022 08       		.byte	(.L49-.L48)/2
 664 0023 08       		.byte	(.L49-.L48)/2
 665 0024 08       		.byte	(.L49-.L48)/2
 666 0025 08       		.byte	(.L49-.L48)/2
 667              		.p2align 1
 668              	.L47:
 406:Generated_Source\PSoC4/nRF24_FUNCS.c ****     // For pipes 0 and 1 we can read up to 5 bytes of it's addresses
 407:Generated_Source\PSoC4/nRF24_FUNCS.c ****     case NRF_ADDR_PIPE0:
 408:Generated_Source\PSoC4/nRF24_FUNCS.c ****     case NRF_ADDR_PIPE1:
 409:Generated_Source\PSoC4/nRF24_FUNCS.c ****         nRF24_read_long_register(pipe, addr, size);
 669              		.loc 1 409 0
 670 0026 3100     		movs	r1, r6
 671              	.LVL47:
 672 0028 2800     		movs	r0, r5
 673 002a FFF7FEFF 		bl	nRF24_read_long_register
 674              	.LVL48:
 410:Generated_Source\PSoC4/nRF24_FUNCS.c ****         break;
 675              		.loc 1 410 0
 676 002e 0AE0     		b	.L44
 677              	.LVL49:
 678              	.L49:
 411:Generated_Source\PSoC4/nRF24_FUNCS.c ****     // For pipes 2, 3, 4 and 5 the address is the same to pipe1 except the LSB
 412:Generated_Source\PSoC4/nRF24_FUNCS.c ****     case NRF_ADDR_PIPE2:
 413:Generated_Source\PSoC4/nRF24_FUNCS.c ****     case NRF_ADDR_PIPE3:
 414:Generated_Source\PSoC4/nRF24_FUNCS.c ****     case NRF_ADDR_PIPE4:
 415:Generated_Source\PSoC4/nRF24_FUNCS.c ****     case NRF_ADDR_PIPE5:
 416:Generated_Source\PSoC4/nRF24_FUNCS.c ****         nRF24_read_long_register(NRF_REG_RX_ADDR_P1, addr, size - 1);
 679              		.loc 1 416 0
 680 0030 541E     		subs	r4, r2, #1
 681 0032 2200     		movs	r2, r4
 682              	.LVL50:
 683 0034 3100     		movs	r1, r6
 684              	.LVL51:
 685 0036 0B20     		movs	r0, #11
 686 0038 FFF7FEFF 		bl	nRF24_read_long_register
 687              	.LVL52:
 417:Generated_Source\PSoC4/nRF24_FUNCS.c ****         addr[size - 1] = nRF24_read_register(pipe);
 688              		.loc 1 417 0
 689 003c 2800     		movs	r0, r5
 690 003e FFF7FEFF 		bl	nRF24_read_register
 691              	.LVL53:
 692 0042 3419     		adds	r4, r6, r4
 693              	.LVL54:
 694 0044 2070     		strb	r0, [r4]
 695              	.L44:
 418:Generated_Source\PSoC4/nRF24_FUNCS.c ****         break;
 419:Generated_Source\PSoC4/nRF24_FUNCS.c ****     }
 420:Generated_Source\PSoC4/nRF24_FUNCS.c **** }
 696              		.loc 1 420 0
 697              		@ sp needed
 698              	.LVL55:
 699 0046 70BD     		pop	{r4, r5, r6, pc}
 700              	.L54:
 701              		.align	2
 702              	.L53:
ARM GAS  C:\Users\AFDHAL~1\AppData\Local\Temp\cc9C0MvF.s 			page 21


 703 0048 00000000 		.word	.LANCHOR0
 704              		.cfi_endproc
 705              	.LFE23:
 706              		.size	nRF24_get_rx_pipe_address, .-nRF24_get_rx_pipe_address
 707              		.section	.text.nRF24_set_tx_address,"ax",%progbits
 708              		.align	1
 709              		.global	nRF24_set_tx_address
 710              		.code	16
 711              		.thumb_func
 712              		.type	nRF24_set_tx_address, %function
 713              	nRF24_set_tx_address:
 714              	.LFB24:
 421:Generated_Source\PSoC4/nRF24_FUNCS.c **** 
 422:Generated_Source\PSoC4/nRF24_FUNCS.c **** /**
 423:Generated_Source\PSoC4/nRF24_FUNCS.c ****  * @brief Set the TX Address of the radio.
 424:Generated_Source\PSoC4/nRF24_FUNCS.c ****  *
 425:Generated_Source\PSoC4/nRF24_FUNCS.c ****  * @param const uint8_t* addr:
 426:Generated_Source\PSoC4/nRF24_FUNCS.c ****  * @param size_t size:
 427:Generated_Source\PSoC4/nRF24_FUNCS.c ****  */
 428:Generated_Source\PSoC4/nRF24_FUNCS.c **** void nRF24_set_tx_address(const uint8_t *const addr, size_t size)
 429:Generated_Source\PSoC4/nRF24_FUNCS.c **** {
 715              		.loc 1 429 0
 716              		.cfi_startproc
 717              		@ args = 0, pretend = 0, frame = 0
 718              		@ frame_needed = 0, uses_anonymous_args = 0
 719              	.LVL56:
 720 0000 10B5     		push	{r4, lr}
 721              		.cfi_def_cfa_offset 8
 722              		.cfi_offset 4, -8
 723              		.cfi_offset 14, -4
 430:Generated_Source\PSoC4/nRF24_FUNCS.c ****     if (NULL == addr) {
 724              		.loc 1 430 0
 725 0002 0028     		cmp	r0, #0
 726 0004 08D0     		beq	.L55
 431:Generated_Source\PSoC4/nRF24_FUNCS.c ****         return;
 432:Generated_Source\PSoC4/nRF24_FUNCS.c ****     }
 433:Generated_Source\PSoC4/nRF24_FUNCS.c **** 
 434:Generated_Source\PSoC4/nRF24_FUNCS.c ****     if (_nrf_addr_width < size) {
 727              		.loc 1 434 0
 728 0006 054B     		ldr	r3, .L61
 729 0008 1A78     		ldrb	r2, [r3]
 730              	.LVL57:
 435:Generated_Source\PSoC4/nRF24_FUNCS.c ****         size = _nrf_addr_width;
 436:Generated_Source\PSoC4/nRF24_FUNCS.c ****     }
 437:Generated_Source\PSoC4/nRF24_FUNCS.c **** 
 438:Generated_Source\PSoC4/nRF24_FUNCS.c ****     nRF24_write_long_register(NRF_REG_TX_ADDR, addr, size);
 731              		.loc 1 438 0
 732 000a 8A42     		cmp	r2, r1
 733 000c 00D9     		bls	.L57
 734 000e 0A00     		movs	r2, r1
 735              	.L57:
 736 0010 0100     		movs	r1, r0
 737 0012 1020     		movs	r0, #16
 738              	.LVL58:
 739 0014 FFF7FEFF 		bl	nRF24_write_long_register
 740              	.LVL59:
 741              	.L55:
ARM GAS  C:\Users\AFDHAL~1\AppData\Local\Temp\cc9C0MvF.s 			page 22


 439:Generated_Source\PSoC4/nRF24_FUNCS.c **** }
 742              		.loc 1 439 0
 743              		@ sp needed
 744 0018 10BD     		pop	{r4, pc}
 745              	.L62:
 746 001a C046     		.align	2
 747              	.L61:
 748 001c 00000000 		.word	.LANCHOR0
 749              		.cfi_endproc
 750              	.LFE24:
 751              		.size	nRF24_set_tx_address, .-nRF24_set_tx_address
 752              		.section	.text.nRF24_get_tx_address,"ax",%progbits
 753              		.align	1
 754              		.global	nRF24_get_tx_address
 755              		.code	16
 756              		.thumb_func
 757              		.type	nRF24_get_tx_address, %function
 758              	nRF24_get_tx_address:
 759              	.LFB25:
 440:Generated_Source\PSoC4/nRF24_FUNCS.c **** 
 441:Generated_Source\PSoC4/nRF24_FUNCS.c **** /**
 442:Generated_Source\PSoC4/nRF24_FUNCS.c ****  * @brief Get the TX Address of the radio.
 443:Generated_Source\PSoC4/nRF24_FUNCS.c ****  *
 444:Generated_Source\PSoC4/nRF24_FUNCS.c ****  * @param const uint8_t* addr:
 445:Generated_Source\PSoC4/nRF24_FUNCS.c ****  * @param const size_t size:
 446:Generated_Source\PSoC4/nRF24_FUNCS.c ****  */
 447:Generated_Source\PSoC4/nRF24_FUNCS.c **** void nRF24_get_tx_address(uint8_t* addr, size_t size)
 448:Generated_Source\PSoC4/nRF24_FUNCS.c **** {
 760              		.loc 1 448 0
 761              		.cfi_startproc
 762              		@ args = 0, pretend = 0, frame = 0
 763              		@ frame_needed = 0, uses_anonymous_args = 0
 764              	.LVL60:
 765 0000 10B5     		push	{r4, lr}
 766              		.cfi_def_cfa_offset 8
 767              		.cfi_offset 4, -8
 768              		.cfi_offset 14, -4
 449:Generated_Source\PSoC4/nRF24_FUNCS.c ****     if (NULL == addr) {
 769              		.loc 1 449 0
 770 0002 0028     		cmp	r0, #0
 771 0004 08D0     		beq	.L63
 450:Generated_Source\PSoC4/nRF24_FUNCS.c ****         return;
 451:Generated_Source\PSoC4/nRF24_FUNCS.c ****     }
 452:Generated_Source\PSoC4/nRF24_FUNCS.c **** 
 453:Generated_Source\PSoC4/nRF24_FUNCS.c ****     if (_nrf_addr_width < size) {
 772              		.loc 1 453 0
 773 0006 054B     		ldr	r3, .L69
 774 0008 1A78     		ldrb	r2, [r3]
 775              	.LVL61:
 454:Generated_Source\PSoC4/nRF24_FUNCS.c ****         size = _nrf_addr_width;
 455:Generated_Source\PSoC4/nRF24_FUNCS.c ****     }
 456:Generated_Source\PSoC4/nRF24_FUNCS.c **** 
 457:Generated_Source\PSoC4/nRF24_FUNCS.c ****     nRF24_read_long_register(NRF_REG_TX_ADDR, addr, size);
 776              		.loc 1 457 0
 777 000a 8A42     		cmp	r2, r1
 778 000c 00D9     		bls	.L65
 779 000e 0A00     		movs	r2, r1
ARM GAS  C:\Users\AFDHAL~1\AppData\Local\Temp\cc9C0MvF.s 			page 23


 780              	.L65:
 781 0010 0100     		movs	r1, r0
 782 0012 1020     		movs	r0, #16
 783              	.LVL62:
 784 0014 FFF7FEFF 		bl	nRF24_read_long_register
 785              	.LVL63:
 786              	.L63:
 458:Generated_Source\PSoC4/nRF24_FUNCS.c **** }
 787              		.loc 1 458 0
 788              		@ sp needed
 789 0018 10BD     		pop	{r4, pc}
 790              	.L70:
 791 001a C046     		.align	2
 792              	.L69:
 793 001c 00000000 		.word	.LANCHOR0
 794              		.cfi_endproc
 795              	.LFE25:
 796              		.size	nRF24_get_tx_address, .-nRF24_get_tx_address
 797              		.section	.text.nRF24_set_payload_size,"ax",%progbits
 798              		.align	1
 799              		.global	nRF24_set_payload_size
 800              		.code	16
 801              		.thumb_func
 802              		.type	nRF24_set_payload_size, %function
 803              	nRF24_set_payload_size:
 804              	.LFB26:
 459:Generated_Source\PSoC4/nRF24_FUNCS.c **** 
 460:Generated_Source\PSoC4/nRF24_FUNCS.c **** /**
 461:Generated_Source\PSoC4/nRF24_FUNCS.c ****  * @brief Set the payload size of the given pipe.
 462:Generated_Source\PSoC4/nRF24_FUNCS.c ****  *
 463:Generated_Source\PSoC4/nRF24_FUNCS.c ****  * Configure the payload size of the given pipe.
 464:Generated_Source\PSoC4/nRF24_FUNCS.c ****  *
 465:Generated_Source\PSoC4/nRF24_FUNCS.c ****  * @param const nrf_pipe pipe:
 466:Generated_Source\PSoC4/nRF24_FUNCS.c ****  * @param uint8_t size:
 467:Generated_Source\PSoC4/nRF24_FUNCS.c ****  */
 468:Generated_Source\PSoC4/nRF24_FUNCS.c **** void nRF24_set_payload_size(const nrf_pld_size pipe, uint8_t size)
 469:Generated_Source\PSoC4/nRF24_FUNCS.c **** {
 805              		.loc 1 469 0
 806              		.cfi_startproc
 807              		@ args = 0, pretend = 0, frame = 0
 808              		@ frame_needed = 0, uses_anonymous_args = 0
 809              	.LVL64:
 810 0000 10B5     		push	{r4, lr}
 811              		.cfi_def_cfa_offset 8
 812              		.cfi_offset 4, -8
 813              		.cfi_offset 14, -4
 470:Generated_Source\PSoC4/nRF24_FUNCS.c ****     if (NRF_PAYLOAD_SIZE_MAX < size) {
 471:Generated_Source\PSoC4/nRF24_FUNCS.c ****         size = NRF_PAYLOAD_SIZE_MAX;
 472:Generated_Source\PSoC4/nRF24_FUNCS.c ****     }
 473:Generated_Source\PSoC4/nRF24_FUNCS.c **** 
 474:Generated_Source\PSoC4/nRF24_FUNCS.c ****     nRF24_write_register(pipe, size);
 814              		.loc 1 474 0
 815 0002 0B1C     		adds	r3, r1, #0
 816 0004 2029     		cmp	r1, #32
 817 0006 00D9     		bls	.L72
 818 0008 2023     		movs	r3, #32
 819              	.L72:
ARM GAS  C:\Users\AFDHAL~1\AppData\Local\Temp\cc9C0MvF.s 			page 24


 820 000a D9B2     		uxtb	r1, r3
 821              	.LVL65:
 822 000c FFF7FEFF 		bl	nRF24_write_register
 823              	.LVL66:
 475:Generated_Source\PSoC4/nRF24_FUNCS.c **** }
 824              		.loc 1 475 0
 825              		@ sp needed
 826 0010 10BD     		pop	{r4, pc}
 827              		.cfi_endproc
 828              	.LFE26:
 829              		.size	nRF24_set_payload_size, .-nRF24_set_payload_size
 830              		.section	.text.nRF24_get_payload_size,"ax",%progbits
 831              		.align	1
 832              		.global	nRF24_get_payload_size
 833              		.code	16
 834              		.thumb_func
 835              		.type	nRF24_get_payload_size, %function
 836              	nRF24_get_payload_size:
 837              	.LFB27:
 476:Generated_Source\PSoC4/nRF24_FUNCS.c **** 
 477:Generated_Source\PSoC4/nRF24_FUNCS.c **** /**
 478:Generated_Source\PSoC4/nRF24_FUNCS.c ****  * Get the payload size of the given pipe.
 479:Generated_Source\PSoC4/nRF24_FUNCS.c ****  *
 480:Generated_Source\PSoC4/nRF24_FUNCS.c ****  * @param const nrf_pipe pipe: Pipe to be read.
 481:Generated_Source\PSoC4/nRF24_FUNCS.c ****  *
 482:Generated_Source\PSoC4/nRF24_FUNCS.c ****  * @return uint8_t: Configured payload size of the given pipe.
 483:Generated_Source\PSoC4/nRF24_FUNCS.c ****  */
 484:Generated_Source\PSoC4/nRF24_FUNCS.c **** uint8_t nRF24_get_payload_size(const nrf_pld_size pipe)
 485:Generated_Source\PSoC4/nRF24_FUNCS.c **** {
 838              		.loc 1 485 0
 839              		.cfi_startproc
 840              		@ args = 0, pretend = 0, frame = 0
 841              		@ frame_needed = 0, uses_anonymous_args = 0
 842              	.LVL67:
 843 0000 10B5     		push	{r4, lr}
 844              		.cfi_def_cfa_offset 8
 845              		.cfi_offset 4, -8
 846              		.cfi_offset 14, -4
 486:Generated_Source\PSoC4/nRF24_FUNCS.c ****     return nRF24_read_register(pipe);
 847              		.loc 1 486 0
 848 0002 FFF7FEFF 		bl	nRF24_read_register
 849              	.LVL68:
 487:Generated_Source\PSoC4/nRF24_FUNCS.c **** }
 850              		.loc 1 487 0
 851              		@ sp needed
 852 0006 10BD     		pop	{r4, pc}
 853              		.cfi_endproc
 854              	.LFE27:
 855              		.size	nRF24_get_payload_size, .-nRF24_get_payload_size
 856              		.section	.text.nRF24_enable_dynamic_payload,"ax",%progbits
 857              		.align	1
 858              		.global	nRF24_enable_dynamic_payload
 859              		.code	16
 860              		.thumb_func
 861              		.type	nRF24_enable_dynamic_payload, %function
 862              	nRF24_enable_dynamic_payload:
 863              	.LFB29:
ARM GAS  C:\Users\AFDHAL~1\AppData\Local\Temp\cc9C0MvF.s 			page 25


 488:Generated_Source\PSoC4/nRF24_FUNCS.c **** 
 489:Generated_Source\PSoC4/nRF24_FUNCS.c **** /**
 490:Generated_Source\PSoC4/nRF24_FUNCS.c ****  * @brief Reuse last transmitted payload.
 491:Generated_Source\PSoC4/nRF24_FUNCS.c ****  *
 492:Generated_Source\PSoC4/nRF24_FUNCS.c ****  * This function issue the command ReuseTxPayload and then toggle the CE pin
 493:Generated_Source\PSoC4/nRF24_FUNCS.c ****  * to transmit the last transmitted payload.
 494:Generated_Source\PSoC4/nRF24_FUNCS.c ****  */
 495:Generated_Source\PSoC4/nRF24_FUNCS.c **** void nRF24_reuse_last_transmitted_payload(void)
 496:Generated_Source\PSoC4/nRF24_FUNCS.c **** {
 497:Generated_Source\PSoC4/nRF24_FUNCS.c ****     nRF24_reuse_tx_payload_cmd();
 498:Generated_Source\PSoC4/nRF24_FUNCS.c ****     nRF24_transmit_pulse();
 499:Generated_Source\PSoC4/nRF24_FUNCS.c **** }
 500:Generated_Source\PSoC4/nRF24_FUNCS.c **** 
 501:Generated_Source\PSoC4/nRF24_FUNCS.c **** /**
 502:Generated_Source\PSoC4/nRF24_FUNCS.c ****  * @brief Enable dynamic payload on the given pipe.
 503:Generated_Source\PSoC4/nRF24_FUNCS.c ****  *
 504:Generated_Source\PSoC4/nRF24_FUNCS.c ****  * @param const nrf_pipe pipe:
 505:Generated_Source\PSoC4/nRF24_FUNCS.c ****  */
 506:Generated_Source\PSoC4/nRF24_FUNCS.c **** void nRF24_enable_dynamic_payload(void)
 507:Generated_Source\PSoC4/nRF24_FUNCS.c **** {
 864              		.loc 1 507 0
 865              		.cfi_startproc
 866              		@ args = 0, pretend = 0, frame = 0
 867              		@ frame_needed = 0, uses_anonymous_args = 0
 868 0000 10B5     		push	{r4, lr}
 869              		.cfi_def_cfa_offset 8
 870              		.cfi_offset 4, -8
 871              		.cfi_offset 14, -4
 508:Generated_Source\PSoC4/nRF24_FUNCS.c ****     // TODO: Read the FEATURE register, check the needed values and set
 509:Generated_Source\PSoC4/nRF24_FUNCS.c ****     // the bits if not set already
 510:Generated_Source\PSoC4/nRF24_FUNCS.c ****     nRF24_set_bit(NRF_REG_FEATURE, NRF_FEATURE_BIT_EN_ACK_PAY);
 872              		.loc 1 510 0
 873 0002 0121     		movs	r1, #1
 874 0004 1D20     		movs	r0, #29
 875 0006 FFF7FEFF 		bl	nRF24_set_bit
 876              	.LVL69:
 511:Generated_Source\PSoC4/nRF24_FUNCS.c ****     nRF24_set_bit(NRF_REG_FEATURE, NRF_FEATURE_BIT_EN_DPL);
 877              		.loc 1 511 0
 878 000a 0221     		movs	r1, #2
 879 000c 1D20     		movs	r0, #29
 880 000e FFF7FEFF 		bl	nRF24_set_bit
 881              	.LVL70:
 512:Generated_Source\PSoC4/nRF24_FUNCS.c **** }
 882              		.loc 1 512 0
 883              		@ sp needed
 884 0012 10BD     		pop	{r4, pc}
 885              		.cfi_endproc
 886              	.LFE29:
 887              		.size	nRF24_enable_dynamic_payload, .-nRF24_enable_dynamic_payload
 888              		.section	.text.nRF24_enable_dynamic_payload_on_pipe,"ax",%progbits
 889              		.align	1
 890              		.global	nRF24_enable_dynamic_payload_on_pipe
 891              		.code	16
 892              		.thumb_func
 893              		.type	nRF24_enable_dynamic_payload_on_pipe, %function
 894              	nRF24_enable_dynamic_payload_on_pipe:
 895              	.LFB30:
ARM GAS  C:\Users\AFDHAL~1\AppData\Local\Temp\cc9C0MvF.s 			page 26


 513:Generated_Source\PSoC4/nRF24_FUNCS.c **** 
 514:Generated_Source\PSoC4/nRF24_FUNCS.c **** /**
 515:Generated_Source\PSoC4/nRF24_FUNCS.c ****  * @brief Enable dynamic payload on the given pipe.
 516:Generated_Source\PSoC4/nRF24_FUNCS.c ****  *
 517:Generated_Source\PSoC4/nRF24_FUNCS.c ****  * @param const nrf_pipe pipe:
 518:Generated_Source\PSoC4/nRF24_FUNCS.c ****  */
 519:Generated_Source\PSoC4/nRF24_FUNCS.c **** void nRF24_enable_dynamic_payload_on_pipe(const nrf_pipe pipe)
 520:Generated_Source\PSoC4/nRF24_FUNCS.c **** {
 896              		.loc 1 520 0
 897              		.cfi_startproc
 898              		@ args = 0, pretend = 0, frame = 0
 899              		@ frame_needed = 0, uses_anonymous_args = 0
 900              	.LVL71:
 901 0000 10B5     		push	{r4, lr}
 902              		.cfi_def_cfa_offset 8
 903              		.cfi_offset 4, -8
 904              		.cfi_offset 14, -4
 905              		.loc 1 520 0
 906 0002 0400     		movs	r4, r0
 521:Generated_Source\PSoC4/nRF24_FUNCS.c ****     nRF24_set_bit(NRF_REG_EN_AA, pipe);
 907              		.loc 1 521 0
 908 0004 0100     		movs	r1, r0
 909 0006 0120     		movs	r0, #1
 910              	.LVL72:
 911 0008 FFF7FEFF 		bl	nRF24_set_bit
 912              	.LVL73:
 522:Generated_Source\PSoC4/nRF24_FUNCS.c ****     nRF24_set_bit(NRF_REG_DYNPD, pipe);
 913              		.loc 1 522 0
 914 000c 2100     		movs	r1, r4
 915 000e 1C20     		movs	r0, #28
 916 0010 FFF7FEFF 		bl	nRF24_set_bit
 917              	.LVL74:
 523:Generated_Source\PSoC4/nRF24_FUNCS.c **** }
 918              		.loc 1 523 0
 919              		@ sp needed
 920 0014 10BD     		pop	{r4, pc}
 921              		.cfi_endproc
 922              	.LFE30:
 923              		.size	nRF24_enable_dynamic_payload_on_pipe, .-nRF24_enable_dynamic_payload_on_pipe
 924              		.section	.text.nRF24_disable_dynamic_payload,"ax",%progbits
 925              		.align	1
 926              		.global	nRF24_disable_dynamic_payload
 927              		.code	16
 928              		.thumb_func
 929              		.type	nRF24_disable_dynamic_payload, %function
 930              	nRF24_disable_dynamic_payload:
 931              	.LFB31:
 524:Generated_Source\PSoC4/nRF24_FUNCS.c **** 
 525:Generated_Source\PSoC4/nRF24_FUNCS.c **** /**
 526:Generated_Source\PSoC4/nRF24_FUNCS.c ****  * @brief Disable dynamic payload on the given pipe.
 527:Generated_Source\PSoC4/nRF24_FUNCS.c ****  *
 528:Generated_Source\PSoC4/nRF24_FUNCS.c ****  * @param const nrf_pipe pipe:
 529:Generated_Source\PSoC4/nRF24_FUNCS.c ****  */
 530:Generated_Source\PSoC4/nRF24_FUNCS.c **** void nRF24_disable_dynamic_payload()
 531:Generated_Source\PSoC4/nRF24_FUNCS.c **** {
 932              		.loc 1 531 0
 933              		.cfi_startproc
ARM GAS  C:\Users\AFDHAL~1\AppData\Local\Temp\cc9C0MvF.s 			page 27


 934              		@ args = 0, pretend = 0, frame = 0
 935              		@ frame_needed = 0, uses_anonymous_args = 0
 936 0000 10B5     		push	{r4, lr}
 937              		.cfi_def_cfa_offset 8
 938              		.cfi_offset 4, -8
 939              		.cfi_offset 14, -4
 532:Generated_Source\PSoC4/nRF24_FUNCS.c ****     // TODO: Read the FEATURE register, check the needed values and clear
 533:Generated_Source\PSoC4/nRF24_FUNCS.c ****     // the bits if not clear already
 534:Generated_Source\PSoC4/nRF24_FUNCS.c ****     nRF24_clear_bit(NRF_REG_FEATURE, NRF_FEATURE_BIT_EN_ACK_PAY);
 940              		.loc 1 534 0
 941 0002 0121     		movs	r1, #1
 942 0004 1D20     		movs	r0, #29
 943 0006 FFF7FEFF 		bl	nRF24_clear_bit
 944              	.LVL75:
 535:Generated_Source\PSoC4/nRF24_FUNCS.c ****     nRF24_clear_bit(NRF_REG_FEATURE, NRF_FEATURE_BIT_EN_DPL);
 945              		.loc 1 535 0
 946 000a 0221     		movs	r1, #2
 947 000c 1D20     		movs	r0, #29
 948 000e FFF7FEFF 		bl	nRF24_clear_bit
 949              	.LVL76:
 536:Generated_Source\PSoC4/nRF24_FUNCS.c **** }
 950              		.loc 1 536 0
 951              		@ sp needed
 952 0012 10BD     		pop	{r4, pc}
 953              		.cfi_endproc
 954              	.LFE31:
 955              		.size	nRF24_disable_dynamic_payload, .-nRF24_disable_dynamic_payload
 956              		.section	.text.nRF24_disable_dynamic_payload_on_pipe,"ax",%progbits
 957              		.align	1
 958              		.global	nRF24_disable_dynamic_payload_on_pipe
 959              		.code	16
 960              		.thumb_func
 961              		.type	nRF24_disable_dynamic_payload_on_pipe, %function
 962              	nRF24_disable_dynamic_payload_on_pipe:
 963              	.LFB32:
 537:Generated_Source\PSoC4/nRF24_FUNCS.c **** 
 538:Generated_Source\PSoC4/nRF24_FUNCS.c **** /**
 539:Generated_Source\PSoC4/nRF24_FUNCS.c ****  * @brief Disable dynamic payload on the given pipe.
 540:Generated_Source\PSoC4/nRF24_FUNCS.c ****  *
 541:Generated_Source\PSoC4/nRF24_FUNCS.c ****  * @param const nrf_pipe pipe:
 542:Generated_Source\PSoC4/nRF24_FUNCS.c ****  */
 543:Generated_Source\PSoC4/nRF24_FUNCS.c **** void nRF24_disable_dynamic_payload_on_pipe(const nrf_pipe pipe)
 544:Generated_Source\PSoC4/nRF24_FUNCS.c **** {
 964              		.loc 1 544 0
 965              		.cfi_startproc
 966              		@ args = 0, pretend = 0, frame = 0
 967              		@ frame_needed = 0, uses_anonymous_args = 0
 968              	.LVL77:
 969 0000 10B5     		push	{r4, lr}
 970              		.cfi_def_cfa_offset 8
 971              		.cfi_offset 4, -8
 972              		.cfi_offset 14, -4
 973              		.loc 1 544 0
 974 0002 0400     		movs	r4, r0
 545:Generated_Source\PSoC4/nRF24_FUNCS.c ****     nRF24_clear_bit(NRF_REG_EN_AA, pipe);
 975              		.loc 1 545 0
 976 0004 0100     		movs	r1, r0
ARM GAS  C:\Users\AFDHAL~1\AppData\Local\Temp\cc9C0MvF.s 			page 28


 977 0006 0120     		movs	r0, #1
 978              	.LVL78:
 979 0008 FFF7FEFF 		bl	nRF24_clear_bit
 980              	.LVL79:
 546:Generated_Source\PSoC4/nRF24_FUNCS.c ****     nRF24_clear_bit(NRF_REG_DYNPD, pipe);
 981              		.loc 1 546 0
 982 000c 2100     		movs	r1, r4
 983 000e 1C20     		movs	r0, #28
 984 0010 FFF7FEFF 		bl	nRF24_clear_bit
 985              	.LVL80:
 547:Generated_Source\PSoC4/nRF24_FUNCS.c **** }
 986              		.loc 1 547 0
 987              		@ sp needed
 988 0014 10BD     		pop	{r4, pc}
 989              		.cfi_endproc
 990              	.LFE32:
 991              		.size	nRF24_disable_dynamic_payload_on_pipe, .-nRF24_disable_dynamic_payload_on_pipe
 992              		.section	.text.nRF24_enable_dynamic_payload_length,"ax",%progbits
 993              		.align	1
 994              		.global	nRF24_enable_dynamic_payload_length
 995              		.code	16
 996              		.thumb_func
 997              		.type	nRF24_enable_dynamic_payload_length, %function
 998              	nRF24_enable_dynamic_payload_length:
 999              	.LFB33:
 548:Generated_Source\PSoC4/nRF24_FUNCS.c **** 
 549:Generated_Source\PSoC4/nRF24_FUNCS.c **** /**
 550:Generated_Source\PSoC4/nRF24_FUNCS.c ****  * @brief Enable dinamic payload length.
 551:Generated_Source\PSoC4/nRF24_FUNCS.c ****  */
 552:Generated_Source\PSoC4/nRF24_FUNCS.c **** void nRF24_enable_dynamic_payload_length(void)
 553:Generated_Source\PSoC4/nRF24_FUNCS.c **** {
 1000              		.loc 1 553 0
 1001              		.cfi_startproc
 1002              		@ args = 0, pretend = 0, frame = 0
 1003              		@ frame_needed = 0, uses_anonymous_args = 0
 1004 0000 10B5     		push	{r4, lr}
 1005              		.cfi_def_cfa_offset 8
 1006              		.cfi_offset 4, -8
 1007              		.cfi_offset 14, -4
 554:Generated_Source\PSoC4/nRF24_FUNCS.c ****     nRF24_set_bit(NRF_REG_FEATURE, NRF_FEATURE_BIT_EN_DPL);
 1008              		.loc 1 554 0
 1009 0002 0221     		movs	r1, #2
 1010 0004 1D20     		movs	r0, #29
 1011 0006 FFF7FEFF 		bl	nRF24_set_bit
 1012              	.LVL81:
 555:Generated_Source\PSoC4/nRF24_FUNCS.c **** }
 1013              		.loc 1 555 0
 1014              		@ sp needed
 1015 000a 10BD     		pop	{r4, pc}
 1016              		.cfi_endproc
 1017              	.LFE33:
 1018              		.size	nRF24_enable_dynamic_payload_length, .-nRF24_enable_dynamic_payload_length
 1019              		.section	.text.nRF24_disable_dynamic_payload_length,"ax",%progbits
 1020              		.align	1
 1021              		.global	nRF24_disable_dynamic_payload_length
 1022              		.code	16
 1023              		.thumb_func
ARM GAS  C:\Users\AFDHAL~1\AppData\Local\Temp\cc9C0MvF.s 			page 29


 1024              		.type	nRF24_disable_dynamic_payload_length, %function
 1025              	nRF24_disable_dynamic_payload_length:
 1026              	.LFB34:
 556:Generated_Source\PSoC4/nRF24_FUNCS.c **** 
 557:Generated_Source\PSoC4/nRF24_FUNCS.c **** /**
 558:Generated_Source\PSoC4/nRF24_FUNCS.c ****  * @brief Disable dynamic payload length.
 559:Generated_Source\PSoC4/nRF24_FUNCS.c ****  */
 560:Generated_Source\PSoC4/nRF24_FUNCS.c **** void nRF24_disable_dynamic_payload_length(void)
 561:Generated_Source\PSoC4/nRF24_FUNCS.c **** {
 1027              		.loc 1 561 0
 1028              		.cfi_startproc
 1029              		@ args = 0, pretend = 0, frame = 0
 1030              		@ frame_needed = 0, uses_anonymous_args = 0
 1031 0000 10B5     		push	{r4, lr}
 1032              		.cfi_def_cfa_offset 8
 1033              		.cfi_offset 4, -8
 1034              		.cfi_offset 14, -4
 562:Generated_Source\PSoC4/nRF24_FUNCS.c ****     nRF24_clear_bit(NRF_REG_FEATURE, NRF_FEATURE_BIT_EN_DPL);
 1035              		.loc 1 562 0
 1036 0002 0221     		movs	r1, #2
 1037 0004 1D20     		movs	r0, #29
 1038 0006 FFF7FEFF 		bl	nRF24_clear_bit
 1039              	.LVL82:
 563:Generated_Source\PSoC4/nRF24_FUNCS.c **** }
 1040              		.loc 1 563 0
 1041              		@ sp needed
 1042 000a 10BD     		pop	{r4, pc}
 1043              		.cfi_endproc
 1044              	.LFE34:
 1045              		.size	nRF24_disable_dynamic_payload_length, .-nRF24_disable_dynamic_payload_length
 1046              		.section	.text.nRF24_enable_payload_with_ack,"ax",%progbits
 1047              		.align	1
 1048              		.global	nRF24_enable_payload_with_ack
 1049              		.code	16
 1050              		.thumb_func
 1051              		.type	nRF24_enable_payload_with_ack, %function
 1052              	nRF24_enable_payload_with_ack:
 1053              	.LFB35:
 564:Generated_Source\PSoC4/nRF24_FUNCS.c **** 
 565:Generated_Source\PSoC4/nRF24_FUNCS.c **** /**
 566:Generated_Source\PSoC4/nRF24_FUNCS.c ****  * @brief Enable payload with ACK.
 567:Generated_Source\PSoC4/nRF24_FUNCS.c ****  */
 568:Generated_Source\PSoC4/nRF24_FUNCS.c **** void nRF24_enable_payload_with_ack(void)
 569:Generated_Source\PSoC4/nRF24_FUNCS.c **** {
 1054              		.loc 1 569 0
 1055              		.cfi_startproc
 1056              		@ args = 0, pretend = 0, frame = 0
 1057              		@ frame_needed = 0, uses_anonymous_args = 0
 1058 0000 10B5     		push	{r4, lr}
 1059              		.cfi_def_cfa_offset 8
 1060              		.cfi_offset 4, -8
 1061              		.cfi_offset 14, -4
 570:Generated_Source\PSoC4/nRF24_FUNCS.c ****     nRF24_set_bit(NRF_REG_FEATURE, NRF_FEATURE_BIT_EN_ACK_PAY);
 1062              		.loc 1 570 0
 1063 0002 0121     		movs	r1, #1
 1064 0004 1D20     		movs	r0, #29
 1065 0006 FFF7FEFF 		bl	nRF24_set_bit
ARM GAS  C:\Users\AFDHAL~1\AppData\Local\Temp\cc9C0MvF.s 			page 30


 1066              	.LVL83:
 571:Generated_Source\PSoC4/nRF24_FUNCS.c **** }
 1067              		.loc 1 571 0
 1068              		@ sp needed
 1069 000a 10BD     		pop	{r4, pc}
 1070              		.cfi_endproc
 1071              	.LFE35:
 1072              		.size	nRF24_enable_payload_with_ack, .-nRF24_enable_payload_with_ack
 1073              		.section	.text.nRF24_disable_payload_with_ack,"ax",%progbits
 1074              		.align	1
 1075              		.global	nRF24_disable_payload_with_ack
 1076              		.code	16
 1077              		.thumb_func
 1078              		.type	nRF24_disable_payload_with_ack, %function
 1079              	nRF24_disable_payload_with_ack:
 1080              	.LFB36:
 572:Generated_Source\PSoC4/nRF24_FUNCS.c **** 
 573:Generated_Source\PSoC4/nRF24_FUNCS.c **** /**
 574:Generated_Source\PSoC4/nRF24_FUNCS.c ****  * @brief Disable Payload with ACK.
 575:Generated_Source\PSoC4/nRF24_FUNCS.c ****  */
 576:Generated_Source\PSoC4/nRF24_FUNCS.c **** void nRF24_disable_payload_with_ack(void)
 577:Generated_Source\PSoC4/nRF24_FUNCS.c **** {
 1081              		.loc 1 577 0
 1082              		.cfi_startproc
 1083              		@ args = 0, pretend = 0, frame = 0
 1084              		@ frame_needed = 0, uses_anonymous_args = 0
 1085 0000 10B5     		push	{r4, lr}
 1086              		.cfi_def_cfa_offset 8
 1087              		.cfi_offset 4, -8
 1088              		.cfi_offset 14, -4
 578:Generated_Source\PSoC4/nRF24_FUNCS.c ****     nRF24_clear_bit(NRF_REG_FEATURE, NRF_FEATURE_BIT_EN_ACK_PAY);
 1089              		.loc 1 578 0
 1090 0002 0121     		movs	r1, #1
 1091 0004 1D20     		movs	r0, #29
 1092 0006 FFF7FEFF 		bl	nRF24_clear_bit
 1093              	.LVL84:
 579:Generated_Source\PSoC4/nRF24_FUNCS.c **** }
 1094              		.loc 1 579 0
 1095              		@ sp needed
 1096 000a 10BD     		pop	{r4, pc}
 1097              		.cfi_endproc
 1098              	.LFE36:
 1099              		.size	nRF24_disable_payload_with_ack, .-nRF24_disable_payload_with_ack
 1100              		.section	.text.nRF24_enable_payload_with_no_ack,"ax",%progbits
 1101              		.align	1
 1102              		.global	nRF24_enable_payload_with_no_ack
 1103              		.code	16
 1104              		.thumb_func
 1105              		.type	nRF24_enable_payload_with_no_ack, %function
 1106              	nRF24_enable_payload_with_no_ack:
 1107              	.LFB37:
 580:Generated_Source\PSoC4/nRF24_FUNCS.c **** 
 581:Generated_Source\PSoC4/nRF24_FUNCS.c **** /**
 582:Generated_Source\PSoC4/nRF24_FUNCS.c ****  * @brief Enable dynamic payload length.
 583:Generated_Source\PSoC4/nRF24_FUNCS.c ****  */
 584:Generated_Source\PSoC4/nRF24_FUNCS.c **** void nRF24_enable_payload_with_no_ack(void)
 585:Generated_Source\PSoC4/nRF24_FUNCS.c **** {
ARM GAS  C:\Users\AFDHAL~1\AppData\Local\Temp\cc9C0MvF.s 			page 31


 1108              		.loc 1 585 0
 1109              		.cfi_startproc
 1110              		@ args = 0, pretend = 0, frame = 0
 1111              		@ frame_needed = 0, uses_anonymous_args = 0
 1112 0000 10B5     		push	{r4, lr}
 1113              		.cfi_def_cfa_offset 8
 1114              		.cfi_offset 4, -8
 1115              		.cfi_offset 14, -4
 586:Generated_Source\PSoC4/nRF24_FUNCS.c ****     nRF24_set_bit(NRF_REG_FEATURE, NRF_FEATURE_BIT_EN_DYN_ACK);
 1116              		.loc 1 586 0
 1117 0002 0021     		movs	r1, #0
 1118 0004 1D20     		movs	r0, #29
 1119 0006 FFF7FEFF 		bl	nRF24_set_bit
 1120              	.LVL85:
 587:Generated_Source\PSoC4/nRF24_FUNCS.c **** }
 1121              		.loc 1 587 0
 1122              		@ sp needed
 1123 000a 10BD     		pop	{r4, pc}
 1124              		.cfi_endproc
 1125              	.LFE37:
 1126              		.size	nRF24_enable_payload_with_no_ack, .-nRF24_enable_payload_with_no_ack
 1127              		.section	.text.nRF24_disable_payload_with_no_ack,"ax",%progbits
 1128              		.align	1
 1129              		.global	nRF24_disable_payload_with_no_ack
 1130              		.code	16
 1131              		.thumb_func
 1132              		.type	nRF24_disable_payload_with_no_ack, %function
 1133              	nRF24_disable_payload_with_no_ack:
 1134              	.LFB38:
 588:Generated_Source\PSoC4/nRF24_FUNCS.c **** 
 589:Generated_Source\PSoC4/nRF24_FUNCS.c **** /**
 590:Generated_Source\PSoC4/nRF24_FUNCS.c ****  * @brief Disable Payload with no ACK.
 591:Generated_Source\PSoC4/nRF24_FUNCS.c ****  */
 592:Generated_Source\PSoC4/nRF24_FUNCS.c **** void nRF24_disable_payload_with_no_ack(void)
 593:Generated_Source\PSoC4/nRF24_FUNCS.c **** {
 1135              		.loc 1 593 0
 1136              		.cfi_startproc
 1137              		@ args = 0, pretend = 0, frame = 0
 1138              		@ frame_needed = 0, uses_anonymous_args = 0
 1139 0000 10B5     		push	{r4, lr}
 1140              		.cfi_def_cfa_offset 8
 1141              		.cfi_offset 4, -8
 1142              		.cfi_offset 14, -4
 594:Generated_Source\PSoC4/nRF24_FUNCS.c ****     nRF24_clear_bit(NRF_REG_FEATURE, NRF_FEATURE_BIT_EN_DYN_ACK);
 1143              		.loc 1 594 0
 1144 0002 0021     		movs	r1, #0
 1145 0004 1D20     		movs	r0, #29
 1146 0006 FFF7FEFF 		bl	nRF24_clear_bit
 1147              	.LVL86:
 595:Generated_Source\PSoC4/nRF24_FUNCS.c **** }
 1148              		.loc 1 595 0
 1149              		@ sp needed
 1150 000a 10BD     		pop	{r4, pc}
 1151              		.cfi_endproc
 1152              	.LFE38:
 1153              		.size	nRF24_disable_payload_with_no_ack, .-nRF24_disable_payload_with_no_ack
 1154              		.section	.text.nRF24_start_listening,"ax",%progbits
ARM GAS  C:\Users\AFDHAL~1\AppData\Local\Temp\cc9C0MvF.s 			page 32


 1155              		.align	1
 1156              		.global	nRF24_start_listening
 1157              		.code	16
 1158              		.thumb_func
 1159              		.type	nRF24_start_listening, %function
 1160              	nRF24_start_listening:
 1161              	.LFB39:
 596:Generated_Source\PSoC4/nRF24_FUNCS.c **** 
 597:Generated_Source\PSoC4/nRF24_FUNCS.c **** /**
 598:Generated_Source\PSoC4/nRF24_FUNCS.c ****  * @brief The nRF24 radio will start listening.
 599:Generated_Source\PSoC4/nRF24_FUNCS.c ****  *
 600:Generated_Source\PSoC4/nRF24_FUNCS.c ****  * This function set the pin CE to logic high, this enable the radio for
 601:Generated_Source\PSoC4/nRF24_FUNCS.c ****  * listening.
 602:Generated_Source\PSoC4/nRF24_FUNCS.c ****  */
 603:Generated_Source\PSoC4/nRF24_FUNCS.c **** void nRF24_start_listening(void)
 604:Generated_Source\PSoC4/nRF24_FUNCS.c **** {
 1162              		.loc 1 604 0
 1163              		.cfi_startproc
 1164              		@ args = 0, pretend = 0, frame = 0
 1165              		@ frame_needed = 0, uses_anonymous_args = 0
 1166 0000 10B5     		push	{r4, lr}
 1167              		.cfi_def_cfa_offset 8
 1168              		.cfi_offset 4, -8
 1169              		.cfi_offset 14, -4
 605:Generated_Source\PSoC4/nRF24_FUNCS.c **** #if defined (_PSOC6)
 606:Generated_Source\PSoC4/nRF24_FUNCS.c ****     Cy_GPIO_Set(CE_PORT, CE_NUM);
 607:Generated_Source\PSoC4/nRF24_FUNCS.c **** #else
 608:Generated_Source\PSoC4/nRF24_FUNCS.c ****     CE_Write(1);
 1170              		.loc 1 608 0
 1171 0002 0120     		movs	r0, #1
 1172 0004 FFF7FEFF 		bl	CE_Write
 1173              	.LVL87:
 609:Generated_Source\PSoC4/nRF24_FUNCS.c **** #endif
 610:Generated_Source\PSoC4/nRF24_FUNCS.c **** }
 1174              		.loc 1 610 0
 1175              		@ sp needed
 1176 0008 10BD     		pop	{r4, pc}
 1177              		.cfi_endproc
 1178              	.LFE39:
 1179              		.size	nRF24_start_listening, .-nRF24_start_listening
 1180              		.section	.text.nRF24_set_standby_ii_mode,"ax",%progbits
 1181              		.align	1
 1182              		.global	nRF24_set_standby_ii_mode
 1183              		.code	16
 1184              		.thumb_func
 1185              		.type	nRF24_set_standby_ii_mode, %function
 1186              	nRF24_set_standby_ii_mode:
 1187              	.LFB13:
 242:Generated_Source\PSoC4/nRF24_FUNCS.c ****     nRF24_start_listening();
 1188              		.loc 1 242 0
 1189              		.cfi_startproc
 1190              		@ args = 0, pretend = 0, frame = 0
 1191              		@ frame_needed = 0, uses_anonymous_args = 0
 1192 0000 10B5     		push	{r4, lr}
 1193              		.cfi_def_cfa_offset 8
 1194              		.cfi_offset 4, -8
 1195              		.cfi_offset 14, -4
ARM GAS  C:\Users\AFDHAL~1\AppData\Local\Temp\cc9C0MvF.s 			page 33


 243:Generated_Source\PSoC4/nRF24_FUNCS.c ****     nRF24_set_bit(NRF_REG_CONFIG, NRF_CONFIG_PWR_UP);
 1196              		.loc 1 243 0
 1197 0002 FFF7FEFF 		bl	nRF24_start_listening
 1198              	.LVL88:
 244:Generated_Source\PSoC4/nRF24_FUNCS.c **** }
 1199              		.loc 1 244 0
 1200 0006 0221     		movs	r1, #2
 1201 0008 0020     		movs	r0, #0
 1202 000a FFF7FEFF 		bl	nRF24_set_bit
 1203              	.LVL89:
 245:Generated_Source\PSoC4/nRF24_FUNCS.c **** 
 1204              		.loc 1 245 0
 1205              		@ sp needed
 1206 000e 10BD     		pop	{r4, pc}
 1207              		.cfi_endproc
 1208              	.LFE13:
 1209              		.size	nRF24_set_standby_ii_mode, .-nRF24_set_standby_ii_mode
 1210              		.section	.text.nRF24_stop_listening,"ax",%progbits
 1211              		.align	1
 1212              		.global	nRF24_stop_listening
 1213              		.code	16
 1214              		.thumb_func
 1215              		.type	nRF24_stop_listening, %function
 1216              	nRF24_stop_listening:
 1217              	.LFB40:
 611:Generated_Source\PSoC4/nRF24_FUNCS.c **** 
 612:Generated_Source\PSoC4/nRF24_FUNCS.c **** /**
 613:Generated_Source\PSoC4/nRF24_FUNCS.c ****  * @brief The nRF24 radio will stop listening.
 614:Generated_Source\PSoC4/nRF24_FUNCS.c ****  *
 615:Generated_Source\PSoC4/nRF24_FUNCS.c ****  * This function the pin CE of the nRF24 radio will be set to logic low,
 616:Generated_Source\PSoC4/nRF24_FUNCS.c ****  * this disable the radio for listening.
 617:Generated_Source\PSoC4/nRF24_FUNCS.c ****  */
 618:Generated_Source\PSoC4/nRF24_FUNCS.c **** void nRF24_stop_listening(void)
 619:Generated_Source\PSoC4/nRF24_FUNCS.c **** {
 1218              		.loc 1 619 0
 1219              		.cfi_startproc
 1220              		@ args = 0, pretend = 0, frame = 0
 1221              		@ frame_needed = 0, uses_anonymous_args = 0
 1222 0000 10B5     		push	{r4, lr}
 1223              		.cfi_def_cfa_offset 8
 1224              		.cfi_offset 4, -8
 1225              		.cfi_offset 14, -4
 620:Generated_Source\PSoC4/nRF24_FUNCS.c **** #if defined (_PSOC6)
 621:Generated_Source\PSoC4/nRF24_FUNCS.c ****     Cy_GPIO_Clr(CE_PORT, CE_NUM);
 622:Generated_Source\PSoC4/nRF24_FUNCS.c **** #else
 623:Generated_Source\PSoC4/nRF24_FUNCS.c ****     CE_Write(0);
 1226              		.loc 1 623 0
 1227 0002 0020     		movs	r0, #0
 1228 0004 FFF7FEFF 		bl	CE_Write
 1229              	.LVL90:
 624:Generated_Source\PSoC4/nRF24_FUNCS.c **** #endif
 625:Generated_Source\PSoC4/nRF24_FUNCS.c **** }
 1230              		.loc 1 625 0
 1231              		@ sp needed
 1232 0008 10BD     		pop	{r4, pc}
 1233              		.cfi_endproc
 1234              	.LFE40:
ARM GAS  C:\Users\AFDHAL~1\AppData\Local\Temp\cc9C0MvF.s 			page 34


 1235              		.size	nRF24_stop_listening, .-nRF24_stop_listening
 1236              		.section	.text.nRF24_set_standby_i_mode,"ax",%progbits
 1237              		.align	1
 1238              		.global	nRF24_set_standby_i_mode
 1239              		.code	16
 1240              		.thumb_func
 1241              		.type	nRF24_set_standby_i_mode, %function
 1242              	nRF24_set_standby_i_mode:
 1243              	.LFB12:
 227:Generated_Source\PSoC4/nRF24_FUNCS.c ****     nRF24_stop_listening();
 1244              		.loc 1 227 0
 1245              		.cfi_startproc
 1246              		@ args = 0, pretend = 0, frame = 0
 1247              		@ frame_needed = 0, uses_anonymous_args = 0
 1248 0000 10B5     		push	{r4, lr}
 1249              		.cfi_def_cfa_offset 8
 1250              		.cfi_offset 4, -8
 1251              		.cfi_offset 14, -4
 228:Generated_Source\PSoC4/nRF24_FUNCS.c ****     nRF24_set_bit(NRF_REG_CONFIG, NRF_CONFIG_PWR_UP);
 1252              		.loc 1 228 0
 1253 0002 FFF7FEFF 		bl	nRF24_stop_listening
 1254              	.LVL91:
 229:Generated_Source\PSoC4/nRF24_FUNCS.c **** }
 1255              		.loc 1 229 0
 1256 0006 0221     		movs	r1, #2
 1257 0008 0020     		movs	r0, #0
 1258 000a FFF7FEFF 		bl	nRF24_set_bit
 1259              	.LVL92:
 230:Generated_Source\PSoC4/nRF24_FUNCS.c **** 
 1260              		.loc 1 230 0
 1261              		@ sp needed
 1262 000e 10BD     		pop	{r4, pc}
 1263              		.cfi_endproc
 1264              	.LFE12:
 1265              		.size	nRF24_set_standby_i_mode, .-nRF24_set_standby_i_mode
 1266              		.section	.text.nRF24_sleep,"ax",%progbits
 1267              		.align	1
 1268              		.global	nRF24_sleep
 1269              		.code	16
 1270              		.thumb_func
 1271              		.type	nRF24_sleep, %function
 1272              	nRF24_sleep:
 1273              	.LFB6:
 155:Generated_Source\PSoC4/nRF24_FUNCS.c ****     // is standby.I the lowest power mode?
 1274              		.loc 1 155 0
 1275              		.cfi_startproc
 1276              		@ args = 0, pretend = 0, frame = 0
 1277              		@ frame_needed = 0, uses_anonymous_args = 0
 1278 0000 10B5     		push	{r4, lr}
 1279              		.cfi_def_cfa_offset 8
 1280              		.cfi_offset 4, -8
 1281              		.cfi_offset 14, -4
 157:Generated_Source\PSoC4/nRF24_FUNCS.c **** }
 1282              		.loc 1 157 0
 1283 0002 FFF7FEFF 		bl	nRF24_set_standby_i_mode
 1284              	.LVL93:
 158:Generated_Source\PSoC4/nRF24_FUNCS.c **** 
ARM GAS  C:\Users\AFDHAL~1\AppData\Local\Temp\cc9C0MvF.s 			page 35


 1285              		.loc 1 158 0
 1286              		@ sp needed
 1287 0006 10BD     		pop	{r4, pc}
 1288              		.cfi_endproc
 1289              	.LFE6:
 1290              		.size	nRF24_sleep, .-nRF24_sleep
 1291              		.section	.text.nRF24_transmit_pulse,"ax",%progbits
 1292              		.align	1
 1293              		.global	nRF24_transmit_pulse
 1294              		.code	16
 1295              		.thumb_func
 1296              		.type	nRF24_transmit_pulse, %function
 1297              	nRF24_transmit_pulse:
 1298              	.LFB41:
 626:Generated_Source\PSoC4/nRF24_FUNCS.c **** 
 627:Generated_Source\PSoC4/nRF24_FUNCS.c **** /**
 628:Generated_Source\PSoC4/nRF24_FUNCS.c ****  * @brief Transmit pulse on the CE pin.
 629:Generated_Source\PSoC4/nRF24_FUNCS.c ****  *
 630:Generated_Source\PSoC4/nRF24_FUNCS.c ****  * With this function the CE pin of the nRF24 radio will have a pulse of 15us,
 631:Generated_Source\PSoC4/nRF24_FUNCS.c ****  * this pulse trigger a transmission of the content of the TX FIFO.
 632:Generated_Source\PSoC4/nRF24_FUNCS.c ****  */
 633:Generated_Source\PSoC4/nRF24_FUNCS.c **** void nRF24_transmit_pulse(void)
 634:Generated_Source\PSoC4/nRF24_FUNCS.c **** {
 1299              		.loc 1 634 0
 1300              		.cfi_startproc
 1301              		@ args = 0, pretend = 0, frame = 0
 1302              		@ frame_needed = 0, uses_anonymous_args = 0
 1303 0000 10B5     		push	{r4, lr}
 1304              		.cfi_def_cfa_offset 8
 1305              		.cfi_offset 4, -8
 1306              		.cfi_offset 14, -4
 635:Generated_Source\PSoC4/nRF24_FUNCS.c **** #if defined (_PSOC6)
 636:Generated_Source\PSoC4/nRF24_FUNCS.c ****     Cy_GPIO_Set(CE_PORT, CE_NUM);
 637:Generated_Source\PSoC4/nRF24_FUNCS.c **** #else
 638:Generated_Source\PSoC4/nRF24_FUNCS.c ****     CE_Write(1);
 1307              		.loc 1 638 0
 1308 0002 0120     		movs	r0, #1
 1309 0004 FFF7FEFF 		bl	CE_Write
 1310              	.LVL94:
 639:Generated_Source\PSoC4/nRF24_FUNCS.c **** #endif
 640:Generated_Source\PSoC4/nRF24_FUNCS.c **** 
 641:Generated_Source\PSoC4/nRF24_FUNCS.c ****     CyDelayUs(NRF_CE_PULSE_WIDTH_US);
 1311              		.loc 1 641 0
 1312 0008 0F20     		movs	r0, #15
 1313 000a FFF7FEFF 		bl	CyDelayUs
 1314              	.LVL95:
 642:Generated_Source\PSoC4/nRF24_FUNCS.c ****     
 643:Generated_Source\PSoC4/nRF24_FUNCS.c **** #if defined (_PSOC6)
 644:Generated_Source\PSoC4/nRF24_FUNCS.c ****     Cy_GPIO_Clr(CE_PORT, CE_NUM);
 645:Generated_Source\PSoC4/nRF24_FUNCS.c **** #else
 646:Generated_Source\PSoC4/nRF24_FUNCS.c ****     CE_Write(0);
 1315              		.loc 1 646 0
 1316 000e 0020     		movs	r0, #0
 1317 0010 FFF7FEFF 		bl	CE_Write
 1318              	.LVL96:
 647:Generated_Source\PSoC4/nRF24_FUNCS.c **** #endif
 648:Generated_Source\PSoC4/nRF24_FUNCS.c **** }
ARM GAS  C:\Users\AFDHAL~1\AppData\Local\Temp\cc9C0MvF.s 			page 36


 1319              		.loc 1 648 0
 1320              		@ sp needed
 1321 0014 10BD     		pop	{r4, pc}
 1322              		.cfi_endproc
 1323              	.LFE41:
 1324              		.size	nRF24_transmit_pulse, .-nRF24_transmit_pulse
 1325              		.section	.text.nRF24_reuse_last_transmitted_payload,"ax",%progbits
 1326              		.align	1
 1327              		.global	nRF24_reuse_last_transmitted_payload
 1328              		.code	16
 1329              		.thumb_func
 1330              		.type	nRF24_reuse_last_transmitted_payload, %function
 1331              	nRF24_reuse_last_transmitted_payload:
 1332              	.LFB28:
 496:Generated_Source\PSoC4/nRF24_FUNCS.c ****     nRF24_reuse_tx_payload_cmd();
 1333              		.loc 1 496 0
 1334              		.cfi_startproc
 1335              		@ args = 0, pretend = 0, frame = 0
 1336              		@ frame_needed = 0, uses_anonymous_args = 0
 1337 0000 10B5     		push	{r4, lr}
 1338              		.cfi_def_cfa_offset 8
 1339              		.cfi_offset 4, -8
 1340              		.cfi_offset 14, -4
 497:Generated_Source\PSoC4/nRF24_FUNCS.c ****     nRF24_transmit_pulse();
 1341              		.loc 1 497 0
 1342 0002 FFF7FEFF 		bl	nRF24_reuse_tx_payload_cmd
 1343              	.LVL97:
 499:Generated_Source\PSoC4/nRF24_FUNCS.c **** 
 1344              		.loc 1 499 0
 1345              		@ sp needed
 498:Generated_Source\PSoC4/nRF24_FUNCS.c **** }
 1346              		.loc 1 498 0
 1347 0006 FFF7FEFF 		bl	nRF24_transmit_pulse
 1348              	.LVL98:
 499:Generated_Source\PSoC4/nRF24_FUNCS.c **** 
 1349              		.loc 1 499 0
 1350 000a 10BD     		pop	{r4, pc}
 1351              		.cfi_endproc
 1352              	.LFE28:
 1353              		.size	nRF24_reuse_last_transmitted_payload, .-nRF24_reuse_last_transmitted_payload
 1354              		.section	.text.nRF24_get_status,"ax",%progbits
 1355              		.align	1
 1356              		.global	nRF24_get_status
 1357              		.code	16
 1358              		.thumb_func
 1359              		.type	nRF24_get_status, %function
 1360              	nRF24_get_status:
 1361              	.LFB42:
 649:Generated_Source\PSoC4/nRF24_FUNCS.c **** 
 650:Generated_Source\PSoC4/nRF24_FUNCS.c **** /**
 651:Generated_Source\PSoC4/nRF24_FUNCS.c ****  * @brief Get the STATUS register of the nRF24.
 652:Generated_Source\PSoC4/nRF24_FUNCS.c ****  *
 653:Generated_Source\PSoC4/nRF24_FUNCS.c ****  * @return uint8_t: STATUS register of the nRF24.
 654:Generated_Source\PSoC4/nRF24_FUNCS.c ****  */
 655:Generated_Source\PSoC4/nRF24_FUNCS.c **** uint8_t nRF24_get_status(void)
 656:Generated_Source\PSoC4/nRF24_FUNCS.c **** {
 1362              		.loc 1 656 0
ARM GAS  C:\Users\AFDHAL~1\AppData\Local\Temp\cc9C0MvF.s 			page 37


 1363              		.cfi_startproc
 1364              		@ args = 0, pretend = 0, frame = 0
 1365              		@ frame_needed = 0, uses_anonymous_args = 0
 1366 0000 10B5     		push	{r4, lr}
 1367              		.cfi_def_cfa_offset 8
 1368              		.cfi_offset 4, -8
 1369              		.cfi_offset 14, -4
 657:Generated_Source\PSoC4/nRF24_FUNCS.c ****     return nRF24_nop_cmd();
 1370              		.loc 1 657 0
 1371 0002 FFF7FEFF 		bl	nRF24_nop_cmd
 1372              	.LVL99:
 658:Generated_Source\PSoC4/nRF24_FUNCS.c **** }
 1373              		.loc 1 658 0
 1374              		@ sp needed
 1375 0006 10BD     		pop	{r4, pc}
 1376              		.cfi_endproc
 1377              	.LFE42:
 1378              		.size	nRF24_get_status, .-nRF24_get_status
 1379              		.section	.text.nRF24_get_fifo_status,"ax",%progbits
 1380              		.align	1
 1381              		.global	nRF24_get_fifo_status
 1382              		.code	16
 1383              		.thumb_func
 1384              		.type	nRF24_get_fifo_status, %function
 1385              	nRF24_get_fifo_status:
 1386              	.LFB43:
 659:Generated_Source\PSoC4/nRF24_FUNCS.c **** 
 660:Generated_Source\PSoC4/nRF24_FUNCS.c **** /**
 661:Generated_Source\PSoC4/nRF24_FUNCS.c ****  * @brief Get the STATUS register of the nRF24.
 662:Generated_Source\PSoC4/nRF24_FUNCS.c ****  *
 663:Generated_Source\PSoC4/nRF24_FUNCS.c ****  * @return uint8_t: STATUS register of the nRF24.
 664:Generated_Source\PSoC4/nRF24_FUNCS.c ****  */
 665:Generated_Source\PSoC4/nRF24_FUNCS.c **** uint8_t nRF24_get_fifo_status(void)
 666:Generated_Source\PSoC4/nRF24_FUNCS.c **** {
 1387              		.loc 1 666 0
 1388              		.cfi_startproc
 1389              		@ args = 0, pretend = 0, frame = 0
 1390              		@ frame_needed = 0, uses_anonymous_args = 0
 1391 0000 10B5     		push	{r4, lr}
 1392              		.cfi_def_cfa_offset 8
 1393              		.cfi_offset 4, -8
 1394              		.cfi_offset 14, -4
 667:Generated_Source\PSoC4/nRF24_FUNCS.c ****     return nRF24_read_register(NRF_REG_FIFO_STATUS);
 1395              		.loc 1 667 0
 1396 0002 1720     		movs	r0, #23
 1397 0004 FFF7FEFF 		bl	nRF24_read_register
 1398              	.LVL100:
 668:Generated_Source\PSoC4/nRF24_FUNCS.c **** }
 1399              		.loc 1 668 0
 1400              		@ sp needed
 1401 0008 10BD     		pop	{r4, pc}
 1402              		.cfi_endproc
 1403              	.LFE43:
 1404              		.size	nRF24_get_fifo_status, .-nRF24_get_fifo_status
 1405              		.section	.text.nRF24_get_retransmissions_count,"ax",%progbits
 1406              		.align	1
 1407              		.global	nRF24_get_retransmissions_count
ARM GAS  C:\Users\AFDHAL~1\AppData\Local\Temp\cc9C0MvF.s 			page 38


 1408              		.code	16
 1409              		.thumb_func
 1410              		.type	nRF24_get_retransmissions_count, %function
 1411              	nRF24_get_retransmissions_count:
 1412              	.LFB44:
 669:Generated_Source\PSoC4/nRF24_FUNCS.c **** 
 670:Generated_Source\PSoC4/nRF24_FUNCS.c **** /**
 671:Generated_Source\PSoC4/nRF24_FUNCS.c ****  * @brief Get the number of retransmissions.
 672:Generated_Source\PSoC4/nRF24_FUNCS.c ****  *
 673:Generated_Source\PSoC4/nRF24_FUNCS.c ****  * @return uint8_t: Retransmissions count.
 674:Generated_Source\PSoC4/nRF24_FUNCS.c ****  */
 675:Generated_Source\PSoC4/nRF24_FUNCS.c **** uint8_t nRF24_get_retransmissions_count(void)
 676:Generated_Source\PSoC4/nRF24_FUNCS.c **** {
 1413              		.loc 1 676 0
 1414              		.cfi_startproc
 1415              		@ args = 0, pretend = 0, frame = 0
 1416              		@ frame_needed = 0, uses_anonymous_args = 0
 1417 0000 10B5     		push	{r4, lr}
 1418              		.cfi_def_cfa_offset 8
 1419              		.cfi_offset 4, -8
 1420              		.cfi_offset 14, -4
 677:Generated_Source\PSoC4/nRF24_FUNCS.c ****     uint8_t count = nRF24_read_register(NRF_REG_OBSERVE_TX);
 1421              		.loc 1 677 0
 1422 0002 0820     		movs	r0, #8
 1423 0004 FFF7FEFF 		bl	nRF24_read_register
 1424              	.LVL101:
 678:Generated_Source\PSoC4/nRF24_FUNCS.c ****     return count & NRF_OBSERVE_TX_ARC_CNT_MASK;
 1425              		.loc 1 678 0
 1426 0008 0F23     		movs	r3, #15
 679:Generated_Source\PSoC4/nRF24_FUNCS.c **** }
 1427              		.loc 1 679 0
 1428              		@ sp needed
 678:Generated_Source\PSoC4/nRF24_FUNCS.c ****     return count & NRF_OBSERVE_TX_ARC_CNT_MASK;
 1429              		.loc 1 678 0
 1430 000a 1840     		ands	r0, r3
 1431              	.LVL102:
 1432              		.loc 1 679 0
 1433 000c 10BD     		pop	{r4, pc}
 1434              		.cfi_endproc
 1435              	.LFE44:
 1436              		.size	nRF24_get_retransmissions_count, .-nRF24_get_retransmissions_count
 1437              		.section	.text.nRF24_get_lost_packets_count,"ax",%progbits
 1438              		.align	1
 1439              		.global	nRF24_get_lost_packets_count
 1440              		.code	16
 1441              		.thumb_func
 1442              		.type	nRF24_get_lost_packets_count, %function
 1443              	nRF24_get_lost_packets_count:
 1444              	.LFB45:
 680:Generated_Source\PSoC4/nRF24_FUNCS.c **** 
 681:Generated_Source\PSoC4/nRF24_FUNCS.c **** /**
 682:Generated_Source\PSoC4/nRF24_FUNCS.c ****  * @brief Get the number of lost packets.
 683:Generated_Source\PSoC4/nRF24_FUNCS.c ****  *
 684:Generated_Source\PSoC4/nRF24_FUNCS.c ****  * @return uint8_t: Lost packets.
 685:Generated_Source\PSoC4/nRF24_FUNCS.c ****  */
 686:Generated_Source\PSoC4/nRF24_FUNCS.c **** uint8_t nRF24_get_lost_packets_count(void)
 687:Generated_Source\PSoC4/nRF24_FUNCS.c **** {
ARM GAS  C:\Users\AFDHAL~1\AppData\Local\Temp\cc9C0MvF.s 			page 39


 1445              		.loc 1 687 0
 1446              		.cfi_startproc
 1447              		@ args = 0, pretend = 0, frame = 0
 1448              		@ frame_needed = 0, uses_anonymous_args = 0
 1449 0000 10B5     		push	{r4, lr}
 1450              		.cfi_def_cfa_offset 8
 1451              		.cfi_offset 4, -8
 1452              		.cfi_offset 14, -4
 688:Generated_Source\PSoC4/nRF24_FUNCS.c ****     uint8_t lostPackets = nRF24_read_register(NRF_REG_OBSERVE_TX);
 1453              		.loc 1 688 0
 1454 0002 0820     		movs	r0, #8
 1455 0004 FFF7FEFF 		bl	nRF24_read_register
 1456              	.LVL103:
 689:Generated_Source\PSoC4/nRF24_FUNCS.c ****     lostPackets = lostPackets & NRF_OBSERVE_TX_PLOS_CNT_MASK;
 690:Generated_Source\PSoC4/nRF24_FUNCS.c ****     return lostPackets >> NRF_OBSERVE_TX_BIT_PLOS_CNT;
 1457              		.loc 1 690 0
 1458 0008 0009     		lsrs	r0, r0, #4
 1459              	.LVL104:
 1460 000a C0B2     		uxtb	r0, r0
 691:Generated_Source\PSoC4/nRF24_FUNCS.c **** }
 1461              		.loc 1 691 0
 1462              		@ sp needed
 1463 000c 10BD     		pop	{r4, pc}
 1464              		.cfi_endproc
 1465              	.LFE45:
 1466              		.size	nRF24_get_lost_packets_count, .-nRF24_get_lost_packets_count
 1467              		.section	.text.nRF24_put_in_tx_fifo,"ax",%progbits
 1468              		.align	1
 1469              		.global	nRF24_put_in_tx_fifo
 1470              		.code	16
 1471              		.thumb_func
 1472              		.type	nRF24_put_in_tx_fifo, %function
 1473              	nRF24_put_in_tx_fifo:
 1474              	.LFB46:
 692:Generated_Source\PSoC4/nRF24_FUNCS.c **** 
 693:Generated_Source\PSoC4/nRF24_FUNCS.c **** /**
 694:Generated_Source\PSoC4/nRF24_FUNCS.c ****  * Put data into the TX FIFO wihout sending it.
 695:Generated_Source\PSoC4/nRF24_FUNCS.c ****  *
 696:Generated_Source\PSoC4/nRF24_FUNCS.c ****  * @param const uint8_t* data:
 697:Generated_Source\PSoC4/nRF24_FUNCS.c ****  * @param const size_t size:
 698:Generated_Source\PSoC4/nRF24_FUNCS.c ****  */
 699:Generated_Source\PSoC4/nRF24_FUNCS.c **** void nRF24_put_in_tx_fifo(const uint8_t* data, size_t size)
 700:Generated_Source\PSoC4/nRF24_FUNCS.c **** {
 1475              		.loc 1 700 0
 1476              		.cfi_startproc
 1477              		@ args = 0, pretend = 0, frame = 0
 1478              		@ frame_needed = 0, uses_anonymous_args = 0
 1479              	.LVL105:
 1480 0000 10B5     		push	{r4, lr}
 1481              		.cfi_def_cfa_offset 8
 1482              		.cfi_offset 4, -8
 1483              		.cfi_offset 14, -4
 701:Generated_Source\PSoC4/nRF24_FUNCS.c ****     if (NULL == data) {
 1484              		.loc 1 701 0
 1485 0002 0028     		cmp	r0, #0
 1486 0004 04D0     		beq	.L95
 1487              	.LVL106:
ARM GAS  C:\Users\AFDHAL~1\AppData\Local\Temp\cc9C0MvF.s 			page 40


 702:Generated_Source\PSoC4/nRF24_FUNCS.c ****         return;
 703:Generated_Source\PSoC4/nRF24_FUNCS.c ****     }
 704:Generated_Source\PSoC4/nRF24_FUNCS.c **** 
 705:Generated_Source\PSoC4/nRF24_FUNCS.c ****     if (NRF_PAYLOAD_SIZE_MAX < size) {
 706:Generated_Source\PSoC4/nRF24_FUNCS.c ****         size = NRF_PAYLOAD_SIZE_MAX;
 707:Generated_Source\PSoC4/nRF24_FUNCS.c ****     }
 708:Generated_Source\PSoC4/nRF24_FUNCS.c **** 
 709:Generated_Source\PSoC4/nRF24_FUNCS.c ****     nRF24_write_tx_payload_cmd(data, size);
 1488              		.loc 1 709 0
 1489 0006 2029     		cmp	r1, #32
 1490 0008 00D9     		bls	.L97
 1491 000a 2021     		movs	r1, #32
 1492              	.LVL107:
 1493              	.L97:
 1494 000c FFF7FEFF 		bl	nRF24_write_tx_payload_cmd
 1495              	.LVL108:
 1496              	.L95:
 710:Generated_Source\PSoC4/nRF24_FUNCS.c **** }
 1497              		.loc 1 710 0
 1498              		@ sp needed
 1499 0010 10BD     		pop	{r4, pc}
 1500              		.cfi_endproc
 1501              	.LFE46:
 1502              		.size	nRF24_put_in_tx_fifo, .-nRF24_put_in_tx_fifo
 1503              		.section	.text.nRF24_transmit,"ax",%progbits
 1504              		.align	1
 1505              		.global	nRF24_transmit
 1506              		.code	16
 1507              		.thumb_func
 1508              		.type	nRF24_transmit, %function
 1509              	nRF24_transmit:
 1510              	.LFB47:
 711:Generated_Source\PSoC4/nRF24_FUNCS.c **** 
 712:Generated_Source\PSoC4/nRF24_FUNCS.c **** /**
 713:Generated_Source\PSoC4/nRF24_FUNCS.c ****  * Put data in TX FIFO and transmit it.
 714:Generated_Source\PSoC4/nRF24_FUNCS.c ****  *
 715:Generated_Source\PSoC4/nRF24_FUNCS.c ****  * @param const uint8_t* data:
 716:Generated_Source\PSoC4/nRF24_FUNCS.c ****  * @param const size_t size:
 717:Generated_Source\PSoC4/nRF24_FUNCS.c ****  */
 718:Generated_Source\PSoC4/nRF24_FUNCS.c **** void nRF24_transmit(const uint8_t* data, size_t size)
 719:Generated_Source\PSoC4/nRF24_FUNCS.c **** {
 1511              		.loc 1 719 0
 1512              		.cfi_startproc
 1513              		@ args = 0, pretend = 0, frame = 0
 1514              		@ frame_needed = 0, uses_anonymous_args = 0
 1515              	.LVL109:
 1516 0000 10B5     		push	{r4, lr}
 1517              		.cfi_def_cfa_offset 8
 1518              		.cfi_offset 4, -8
 1519              		.cfi_offset 14, -4
 720:Generated_Source\PSoC4/nRF24_FUNCS.c ****     if (NULL == data) {
 1520              		.loc 1 720 0
 1521 0002 0028     		cmp	r0, #0
 1522 0004 06D0     		beq	.L101
 1523              	.LVL110:
 721:Generated_Source\PSoC4/nRF24_FUNCS.c ****         return;
 722:Generated_Source\PSoC4/nRF24_FUNCS.c ****     }
ARM GAS  C:\Users\AFDHAL~1\AppData\Local\Temp\cc9C0MvF.s 			page 41


 723:Generated_Source\PSoC4/nRF24_FUNCS.c **** 
 724:Generated_Source\PSoC4/nRF24_FUNCS.c ****     if (NRF_PAYLOAD_SIZE_MAX < size) {
 725:Generated_Source\PSoC4/nRF24_FUNCS.c ****         size = NRF_PAYLOAD_SIZE_MAX;
 726:Generated_Source\PSoC4/nRF24_FUNCS.c ****     }
 727:Generated_Source\PSoC4/nRF24_FUNCS.c **** 
 728:Generated_Source\PSoC4/nRF24_FUNCS.c ****     nRF24_put_in_tx_fifo(data, size);
 1524              		.loc 1 728 0
 1525 0006 2029     		cmp	r1, #32
 1526 0008 00D9     		bls	.L103
 1527 000a 2021     		movs	r1, #32
 1528              	.LVL111:
 1529              	.L103:
 1530 000c FFF7FEFF 		bl	nRF24_put_in_tx_fifo
 1531              	.LVL112:
 729:Generated_Source\PSoC4/nRF24_FUNCS.c ****     nRF24_transmit_pulse();
 1532              		.loc 1 729 0
 1533 0010 FFF7FEFF 		bl	nRF24_transmit_pulse
 1534              	.LVL113:
 1535              	.L101:
 730:Generated_Source\PSoC4/nRF24_FUNCS.c **** }
 1536              		.loc 1 730 0
 1537              		@ sp needed
 1538 0014 10BD     		pop	{r4, pc}
 1539              		.cfi_endproc
 1540              	.LFE47:
 1541              		.size	nRF24_transmit, .-nRF24_transmit
 1542              		.section	.text.nRF24_is_data_ready,"ax",%progbits
 1543              		.align	1
 1544              		.global	nRF24_is_data_ready
 1545              		.code	16
 1546              		.thumb_func
 1547              		.type	nRF24_is_data_ready, %function
 1548              	nRF24_is_data_ready:
 1549              	.LFB48:
 731:Generated_Source\PSoC4/nRF24_FUNCS.c **** 
 732:Generated_Source\PSoC4/nRF24_FUNCS.c **** /**
 733:Generated_Source\PSoC4/nRF24_FUNCS.c ****  * @brief
 734:Generated_Source\PSoC4/nRF24_FUNCS.c ****  *
 735:Generated_Source\PSoC4/nRF24_FUNCS.c ****  * @return bool: True if there's data ready.
 736:Generated_Source\PSoC4/nRF24_FUNCS.c ****  */
 737:Generated_Source\PSoC4/nRF24_FUNCS.c **** bool nRF24_is_data_ready(void)
 738:Generated_Source\PSoC4/nRF24_FUNCS.c **** {
 1550              		.loc 1 738 0
 1551              		.cfi_startproc
 1552              		@ args = 0, pretend = 0, frame = 0
 1553              		@ frame_needed = 0, uses_anonymous_args = 0
 1554 0000 10B5     		push	{r4, lr}
 1555              		.cfi_def_cfa_offset 8
 1556              		.cfi_offset 4, -8
 1557              		.cfi_offset 14, -4
 1558              	.LBB14:
 1559              	.LBB15:
 657:Generated_Source\PSoC4/nRF24_FUNCS.c **** }
 1560              		.loc 1 657 0
 1561 0002 FFF7FEFF 		bl	nRF24_nop_cmd
 1562              	.LVL114:
 1563              	.LBE15:
ARM GAS  C:\Users\AFDHAL~1\AppData\Local\Temp\cc9C0MvF.s 			page 42


 1564              	.LBE14:
 739:Generated_Source\PSoC4/nRF24_FUNCS.c ****     return NRF_STATUS_RX_DR_MASK & nRF24_get_status();
 1565              		.loc 1 739 0
 1566 0006 4006     		lsls	r0, r0, #25
 1567 0008 C00F     		lsrs	r0, r0, #31
 740:Generated_Source\PSoC4/nRF24_FUNCS.c **** }
 1568              		.loc 1 740 0
 1569              		@ sp needed
 1570 000a 10BD     		pop	{r4, pc}
 1571              		.cfi_endproc
 1572              	.LFE48:
 1573              		.size	nRF24_is_data_ready, .-nRF24_is_data_ready
 1574              		.section	.text.nRF24_get_rx_payload,"ax",%progbits
 1575              		.align	1
 1576              		.global	nRF24_get_rx_payload
 1577              		.code	16
 1578              		.thumb_func
 1579              		.type	nRF24_get_rx_payload, %function
 1580              	nRF24_get_rx_payload:
 1581              	.LFB49:
 741:Generated_Source\PSoC4/nRF24_FUNCS.c **** 
 742:Generated_Source\PSoC4/nRF24_FUNCS.c **** /**
 743:Generated_Source\PSoC4/nRF24_FUNCS.c ****  * @brief
 744:Generated_Source\PSoC4/nRF24_FUNCS.c ****  *
 745:Generated_Source\PSoC4/nRF24_FUNCS.c ****  * @param uint8_t* data:
 746:Generated_Source\PSoC4/nRF24_FUNCS.c ****  * @param const size_t size:
 747:Generated_Source\PSoC4/nRF24_FUNCS.c ****  */
 748:Generated_Source\PSoC4/nRF24_FUNCS.c **** void nRF24_get_rx_payload(uint8_t *data, const size_t size)
 749:Generated_Source\PSoC4/nRF24_FUNCS.c **** {
 1582              		.loc 1 749 0
 1583              		.cfi_startproc
 1584              		@ args = 0, pretend = 0, frame = 0
 1585              		@ frame_needed = 0, uses_anonymous_args = 0
 1586              	.LVL115:
 1587 0000 70B5     		push	{r4, r5, r6, lr}
 1588              		.cfi_def_cfa_offset 16
 1589              		.cfi_offset 4, -16
 1590              		.cfi_offset 5, -12
 1591              		.cfi_offset 6, -8
 1592              		.cfi_offset 14, -4
 1593              		.loc 1 749 0
 1594 0002 0400     		movs	r4, r0
 1595 0004 0D00     		movs	r5, r1
 750:Generated_Source\PSoC4/nRF24_FUNCS.c ****     if (NULL == data) {
 1596              		.loc 1 750 0
 1597 0006 0028     		cmp	r0, #0
 1598 0008 09D0     		beq	.L108
 751:Generated_Source\PSoC4/nRF24_FUNCS.c ****         return;
 752:Generated_Source\PSoC4/nRF24_FUNCS.c ****     }
 753:Generated_Source\PSoC4/nRF24_FUNCS.c ****     
 754:Generated_Source\PSoC4/nRF24_FUNCS.c **** #if defined (_PSOC6)
 755:Generated_Source\PSoC4/nRF24_FUNCS.c ****     Cy_GPIO_Clr(CE_PORT, CE_NUM);
 756:Generated_Source\PSoC4/nRF24_FUNCS.c **** #else
 757:Generated_Source\PSoC4/nRF24_FUNCS.c ****     CE_Write(0);
 1599              		.loc 1 757 0
 1600 000a 0020     		movs	r0, #0
 1601              	.LVL116:
ARM GAS  C:\Users\AFDHAL~1\AppData\Local\Temp\cc9C0MvF.s 			page 43


 1602 000c FFF7FEFF 		bl	CE_Write
 1603              	.LVL117:
 758:Generated_Source\PSoC4/nRF24_FUNCS.c **** #endif
 759:Generated_Source\PSoC4/nRF24_FUNCS.c **** 
 760:Generated_Source\PSoC4/nRF24_FUNCS.c ****     nRF24_read_rx_payload_cmd(data, size);
 1604              		.loc 1 760 0
 1605 0010 2000     		movs	r0, r4
 1606 0012 2900     		movs	r1, r5
 1607 0014 FFF7FEFF 		bl	nRF24_read_rx_payload_cmd
 1608              	.LVL118:
 761:Generated_Source\PSoC4/nRF24_FUNCS.c **** 
 762:Generated_Source\PSoC4/nRF24_FUNCS.c **** #if defined (_PSOC6)    
 763:Generated_Source\PSoC4/nRF24_FUNCS.c ****     Cy_GPIO_Set(CE_PORT, CE_NUM);
 764:Generated_Source\PSoC4/nRF24_FUNCS.c **** #else
 765:Generated_Source\PSoC4/nRF24_FUNCS.c ****     CE_Write(1);
 1609              		.loc 1 765 0
 1610 0018 0120     		movs	r0, #1
 1611 001a FFF7FEFF 		bl	CE_Write
 1612              	.LVL119:
 1613              	.L108:
 766:Generated_Source\PSoC4/nRF24_FUNCS.c **** #endif
 767:Generated_Source\PSoC4/nRF24_FUNCS.c **** }
 1614              		.loc 1 767 0
 1615              		@ sp needed
 1616              	.LVL120:
 1617              	.LVL121:
 1618 001e 70BD     		pop	{r4, r5, r6, pc}
 1619              		.cfi_endproc
 1620              	.LFE49:
 1621              		.size	nRF24_get_rx_payload, .-nRF24_get_rx_payload
 1622              		.section	.text.nRF24_tx_transmit_no_ack,"ax",%progbits
 1623              		.align	1
 1624              		.global	nRF24_tx_transmit_no_ack
 1625              		.code	16
 1626              		.thumb_func
 1627              		.type	nRF24_tx_transmit_no_ack, %function
 1628              	nRF24_tx_transmit_no_ack:
 1629              	.LFB50:
 768:Generated_Source\PSoC4/nRF24_FUNCS.c **** 
 769:Generated_Source\PSoC4/nRF24_FUNCS.c **** /**
 770:Generated_Source\PSoC4/nRF24_FUNCS.c ****  * @brief
 771:Generated_Source\PSoC4/nRF24_FUNCS.c ****  *
 772:Generated_Source\PSoC4/nRF24_FUNCS.c ****  * @param const uint8_t* data:
 773:Generated_Source\PSoC4/nRF24_FUNCS.c ****  * @param size_t size:
 774:Generated_Source\PSoC4/nRF24_FUNCS.c ****  */
 775:Generated_Source\PSoC4/nRF24_FUNCS.c **** void nRF24_tx_transmit_no_ack(const uint8_t *data, size_t size)
 776:Generated_Source\PSoC4/nRF24_FUNCS.c **** {
 1630              		.loc 1 776 0
 1631              		.cfi_startproc
 1632              		@ args = 0, pretend = 0, frame = 0
 1633              		@ frame_needed = 0, uses_anonymous_args = 0
 1634              	.LVL122:
 1635 0000 10B5     		push	{r4, lr}
 1636              		.cfi_def_cfa_offset 8
 1637              		.cfi_offset 4, -8
 1638              		.cfi_offset 14, -4
 777:Generated_Source\PSoC4/nRF24_FUNCS.c ****     if (NULL == data) {
ARM GAS  C:\Users\AFDHAL~1\AppData\Local\Temp\cc9C0MvF.s 			page 44


 1639              		.loc 1 777 0
 1640 0002 0028     		cmp	r0, #0
 1641 0004 05D0     		beq	.L113
 778:Generated_Source\PSoC4/nRF24_FUNCS.c ****         return;
 779:Generated_Source\PSoC4/nRF24_FUNCS.c ****     }
 780:Generated_Source\PSoC4/nRF24_FUNCS.c **** 
 781:Generated_Source\PSoC4/nRF24_FUNCS.c ****     if (NRF_PAYLOAD_SIZE_MAX < size) {
 1642              		.loc 1 781 0
 1643 0006 2029     		cmp	r1, #32
 1644 0008 03D8     		bhi	.L113
 782:Generated_Source\PSoC4/nRF24_FUNCS.c ****         return;
 783:Generated_Source\PSoC4/nRF24_FUNCS.c ****     }
 784:Generated_Source\PSoC4/nRF24_FUNCS.c **** 
 785:Generated_Source\PSoC4/nRF24_FUNCS.c ****     nRF24_no_ack_payload_cmd(data, size);
 1645              		.loc 1 785 0
 1646 000a FFF7FEFF 		bl	nRF24_no_ack_payload_cmd
 1647              	.LVL123:
 786:Generated_Source\PSoC4/nRF24_FUNCS.c ****     nRF24_transmit_pulse();
 1648              		.loc 1 786 0
 1649 000e FFF7FEFF 		bl	nRF24_transmit_pulse
 1650              	.LVL124:
 1651              	.L113:
 787:Generated_Source\PSoC4/nRF24_FUNCS.c **** }
 1652              		.loc 1 787 0
 1653              		@ sp needed
 1654 0012 10BD     		pop	{r4, pc}
 1655              		.cfi_endproc
 1656              	.LFE50:
 1657              		.size	nRF24_tx_transmit_no_ack, .-nRF24_tx_transmit_no_ack
 1658              		.section	.text.nRF24_rx_write_payload,"ax",%progbits
 1659              		.align	1
 1660              		.global	nRF24_rx_write_payload
 1661              		.code	16
 1662              		.thumb_func
 1663              		.type	nRF24_rx_write_payload, %function
 1664              	nRF24_rx_write_payload:
 1665              	.LFB51:
 788:Generated_Source\PSoC4/nRF24_FUNCS.c **** 
 789:Generated_Source\PSoC4/nRF24_FUNCS.c **** /**
 790:Generated_Source\PSoC4/nRF24_FUNCS.c ****  * @brief
 791:Generated_Source\PSoC4/nRF24_FUNCS.c ****  *
 792:Generated_Source\PSoC4/nRF24_FUNCS.c ****  * @param const nrf_pipe pipe:
 793:Generated_Source\PSoC4/nRF24_FUNCS.c ****  * @param const uint8_t* data:
 794:Generated_Source\PSoC4/nRF24_FUNCS.c ****  * @param size_t size:
 795:Generated_Source\PSoC4/nRF24_FUNCS.c ****  */
 796:Generated_Source\PSoC4/nRF24_FUNCS.c **** void nRF24_rx_write_payload(const nrf_pipe pipe,
 797:Generated_Source\PSoC4/nRF24_FUNCS.c ****                                         const uint8_t *data, size_t size)
 798:Generated_Source\PSoC4/nRF24_FUNCS.c **** {
 1666              		.loc 1 798 0
 1667              		.cfi_startproc
 1668              		@ args = 0, pretend = 0, frame = 0
 1669              		@ frame_needed = 0, uses_anonymous_args = 0
 1670              	.LVL125:
 1671 0000 10B5     		push	{r4, lr}
 1672              		.cfi_def_cfa_offset 8
 1673              		.cfi_offset 4, -8
 1674              		.cfi_offset 14, -4
ARM GAS  C:\Users\AFDHAL~1\AppData\Local\Temp\cc9C0MvF.s 			page 45


 799:Generated_Source\PSoC4/nRF24_FUNCS.c ****     if (NULL == data) {
 1675              		.loc 1 799 0
 1676 0002 0029     		cmp	r1, #0
 1677 0004 04D0     		beq	.L118
 1678              	.LVL126:
 800:Generated_Source\PSoC4/nRF24_FUNCS.c ****         return;
 801:Generated_Source\PSoC4/nRF24_FUNCS.c ****     }
 802:Generated_Source\PSoC4/nRF24_FUNCS.c **** 
 803:Generated_Source\PSoC4/nRF24_FUNCS.c ****     if (NRF_PAYLOAD_SIZE_MAX < size) {
 804:Generated_Source\PSoC4/nRF24_FUNCS.c ****         size = NRF_PAYLOAD_SIZE_MAX;
 805:Generated_Source\PSoC4/nRF24_FUNCS.c ****     }
 806:Generated_Source\PSoC4/nRF24_FUNCS.c **** 
 807:Generated_Source\PSoC4/nRF24_FUNCS.c ****     nRF24_write_ack_payload_cmd(pipe, data, size);
 1679              		.loc 1 807 0
 1680 0006 202A     		cmp	r2, #32
 1681 0008 00D9     		bls	.L120
 1682 000a 2022     		movs	r2, #32
 1683              	.LVL127:
 1684              	.L120:
 1685 000c FFF7FEFF 		bl	nRF24_write_ack_payload_cmd
 1686              	.LVL128:
 1687              	.L118:
 808:Generated_Source\PSoC4/nRF24_FUNCS.c **** }
 1688              		.loc 1 808 0
 1689              		@ sp needed
 1690 0010 10BD     		pop	{r4, pc}
 1691              		.cfi_endproc
 1692              	.LFE51:
 1693              		.size	nRF24_rx_write_payload, .-nRF24_rx_write_payload
 1694              		.section	.text.nRF24_get_data_pipe_with_payload,"ax",%progbits
 1695              		.align	1
 1696              		.global	nRF24_get_data_pipe_with_payload
 1697              		.code	16
 1698              		.thumb_func
 1699              		.type	nRF24_get_data_pipe_with_payload, %function
 1700              	nRF24_get_data_pipe_with_payload:
 1701              	.LFB52:
 809:Generated_Source\PSoC4/nRF24_FUNCS.c **** 
 810:Generated_Source\PSoC4/nRF24_FUNCS.c **** /**
 811:Generated_Source\PSoC4/nRF24_FUNCS.c ****  * Return the pipe number with data.
 812:Generated_Source\PSoC4/nRF24_FUNCS.c ****  *
 813:Generated_Source\PSoC4/nRF24_FUNCS.c ****  * @return uint8_t:
 814:Generated_Source\PSoC4/nRF24_FUNCS.c ****  */
 815:Generated_Source\PSoC4/nRF24_FUNCS.c **** uint8_t nRF24_get_data_pipe_with_payload(void)
 816:Generated_Source\PSoC4/nRF24_FUNCS.c **** {
 1702              		.loc 1 816 0
 1703              		.cfi_startproc
 1704              		@ args = 0, pretend = 0, frame = 0
 1705              		@ frame_needed = 0, uses_anonymous_args = 0
 1706 0000 10B5     		push	{r4, lr}
 1707              		.cfi_def_cfa_offset 8
 1708              		.cfi_offset 4, -8
 1709              		.cfi_offset 14, -4
 817:Generated_Source\PSoC4/nRF24_FUNCS.c ****     uint8_t pipe = nRF24_read_register(NRF_REG_STATUS);
 1710              		.loc 1 817 0
 1711 0002 0720     		movs	r0, #7
 1712 0004 FFF7FEFF 		bl	nRF24_read_register
ARM GAS  C:\Users\AFDHAL~1\AppData\Local\Temp\cc9C0MvF.s 			page 46


 1713              	.LVL129:
 818:Generated_Source\PSoC4/nRF24_FUNCS.c ****     return (pipe & NRF_STATUS_PIPES_MASK) >> NRF_STATUS_PIPES_SHIFT;
 1714              		.loc 1 818 0
 1715 0008 0007     		lsls	r0, r0, #28
 1716              	.LVL130:
 1717 000a 400F     		lsrs	r0, r0, #29
 819:Generated_Source\PSoC4/nRF24_FUNCS.c **** }
 1718              		.loc 1 819 0
 1719              		@ sp needed
 1720 000c 10BD     		pop	{r4, pc}
 1721              		.cfi_endproc
 1722              	.LFE52:
 1723              		.size	nRF24_get_data_pipe_with_payload, .-nRF24_get_data_pipe_with_payload
 1724              		.section	.text.nRF24_received_power_detector,"ax",%progbits
 1725              		.align	1
 1726              		.global	nRF24_received_power_detector
 1727              		.code	16
 1728              		.thumb_func
 1729              		.type	nRF24_received_power_detector, %function
 1730              	nRF24_received_power_detector:
 1731              	.LFB53:
 820:Generated_Source\PSoC4/nRF24_FUNCS.c **** 
 821:Generated_Source\PSoC4/nRF24_FUNCS.c **** /**
 822:Generated_Source\PSoC4/nRF24_FUNCS.c ****  * @brief
 823:Generated_Source\PSoC4/nRF24_FUNCS.c ****  *
 824:Generated_Source\PSoC4/nRF24_FUNCS.c ****  * @return uint8_t:
 825:Generated_Source\PSoC4/nRF24_FUNCS.c ****  */
 826:Generated_Source\PSoC4/nRF24_FUNCS.c **** uint8_t nRF24_received_power_detector(void)
 827:Generated_Source\PSoC4/nRF24_FUNCS.c **** {
 1732              		.loc 1 827 0
 1733              		.cfi_startproc
 1734              		@ args = 0, pretend = 0, frame = 0
 1735              		@ frame_needed = 0, uses_anonymous_args = 0
 1736 0000 10B5     		push	{r4, lr}
 1737              		.cfi_def_cfa_offset 8
 1738              		.cfi_offset 4, -8
 1739              		.cfi_offset 14, -4
 828:Generated_Source\PSoC4/nRF24_FUNCS.c ****     return nRF24_read_bit(NRF_REG_RPD, NRF_RPD_BIT_RPD);
 1740              		.loc 1 828 0
 1741 0002 0021     		movs	r1, #0
 1742 0004 0920     		movs	r0, #9
 1743 0006 FFF7FEFF 		bl	nRF24_read_bit
 1744              	.LVL131:
 829:Generated_Source\PSoC4/nRF24_FUNCS.c **** }
 1745              		.loc 1 829 0
 1746              		@ sp needed
 1747 000a 10BD     		pop	{r4, pc}
 1748              		.cfi_endproc
 1749              	.LFE53:
 1750              		.size	nRF24_received_power_detector, .-nRF24_received_power_detector
 1751              		.section	.text.nRF24_is_tx_fifo_full,"ax",%progbits
 1752              		.align	1
 1753              		.global	nRF24_is_tx_fifo_full
 1754              		.code	16
 1755              		.thumb_func
 1756              		.type	nRF24_is_tx_fifo_full, %function
 1757              	nRF24_is_tx_fifo_full:
ARM GAS  C:\Users\AFDHAL~1\AppData\Local\Temp\cc9C0MvF.s 			page 47


 1758              	.LFB54:
 830:Generated_Source\PSoC4/nRF24_FUNCS.c **** 
 831:Generated_Source\PSoC4/nRF24_FUNCS.c **** /**
 832:Generated_Source\PSoC4/nRF24_FUNCS.c ****  * @return bool: true if the TX FIFO is full, false if it have available
 833:Generated_Source\PSoC4/nRF24_FUNCS.c ****  * locations.
 834:Generated_Source\PSoC4/nRF24_FUNCS.c ****  */
 835:Generated_Source\PSoC4/nRF24_FUNCS.c **** bool nRF24_is_tx_fifo_full(void)
 836:Generated_Source\PSoC4/nRF24_FUNCS.c **** {
 1759              		.loc 1 836 0
 1760              		.cfi_startproc
 1761              		@ args = 0, pretend = 0, frame = 0
 1762              		@ frame_needed = 0, uses_anonymous_args = 0
 1763 0000 10B5     		push	{r4, lr}
 1764              		.cfi_def_cfa_offset 8
 1765              		.cfi_offset 4, -8
 1766              		.cfi_offset 14, -4
 837:Generated_Source\PSoC4/nRF24_FUNCS.c ****     return nRF24_read_bit(NRF_REG_FIFO_STATUS, NRF_FIFO_STATUS_BIT_TX_FULL);
 1767              		.loc 1 837 0
 1768 0002 0521     		movs	r1, #5
 1769 0004 1720     		movs	r0, #23
 1770 0006 FFF7FEFF 		bl	nRF24_read_bit
 1771              	.LVL132:
 838:Generated_Source\PSoC4/nRF24_FUNCS.c **** }
 1772              		.loc 1 838 0
 1773              		@ sp needed
 1774 000a 10BD     		pop	{r4, pc}
 1775              		.cfi_endproc
 1776              	.LFE54:
 1777              		.size	nRF24_is_tx_fifo_full, .-nRF24_is_tx_fifo_full
 1778              		.section	.text.nRF24_is_rx_fifo_empty,"ax",%progbits
 1779              		.align	1
 1780              		.global	nRF24_is_rx_fifo_empty
 1781              		.code	16
 1782              		.thumb_func
 1783              		.type	nRF24_is_rx_fifo_empty, %function
 1784              	nRF24_is_rx_fifo_empty:
 1785              	.LFB55:
 839:Generated_Source\PSoC4/nRF24_FUNCS.c **** 
 840:Generated_Source\PSoC4/nRF24_FUNCS.c **** /**
 841:Generated_Source\PSoC4/nRF24_FUNCS.c ****  * @return bool: true if the RX FIFO es empty, false if any pipe have data.
 842:Generated_Source\PSoC4/nRF24_FUNCS.c ****  */
 843:Generated_Source\PSoC4/nRF24_FUNCS.c **** bool nRF24_is_rx_fifo_empty(void)
 844:Generated_Source\PSoC4/nRF24_FUNCS.c **** {
 1786              		.loc 1 844 0
 1787              		.cfi_startproc
 1788              		@ args = 0, pretend = 0, frame = 0
 1789              		@ frame_needed = 0, uses_anonymous_args = 0
 1790 0000 10B5     		push	{r4, lr}
 1791              		.cfi_def_cfa_offset 8
 1792              		.cfi_offset 4, -8
 1793              		.cfi_offset 14, -4
 845:Generated_Source\PSoC4/nRF24_FUNCS.c ****     return nRF24_read_bit(NRF_REG_FIFO_STATUS, NRF_FIFO_STATUS_BIT_RX_EMPTY);
 1794              		.loc 1 845 0
 1795 0002 0021     		movs	r1, #0
 1796 0004 1720     		movs	r0, #23
 1797 0006 FFF7FEFF 		bl	nRF24_read_bit
 1798              	.LVL133:
ARM GAS  C:\Users\AFDHAL~1\AppData\Local\Temp\cc9C0MvF.s 			page 48


 846:Generated_Source\PSoC4/nRF24_FUNCS.c **** }
 1799              		.loc 1 846 0
 1800              		@ sp needed
 1801 000a 10BD     		pop	{r4, pc}
 1802              		.cfi_endproc
 1803              	.LFE55:
 1804              		.size	nRF24_is_rx_fifo_empty, .-nRF24_is_rx_fifo_empty
 1805              		.section	.text.nRF24_test_carrier,"ax",%progbits
 1806              		.align	1
 1807              		.global	nRF24_test_carrier
 1808              		.code	16
 1809              		.thumb_func
 1810              		.type	nRF24_test_carrier, %function
 1811              	nRF24_test_carrier:
 1812              	.LFB56:
 847:Generated_Source\PSoC4/nRF24_FUNCS.c **** 
 848:Generated_Source\PSoC4/nRF24_FUNCS.c **** /**
 849:Generated_Source\PSoC4/nRF24_FUNCS.c ****  * Received Power Detector triggers at received power levels above -64dBm that
 850:Generated_Source\PSoC4/nRF24_FUNCS.c ****  * are present in the RF channel you receive on. If the received power is less
 851:Generated_Source\PSoC4/nRF24_FUNCS.c ****  * than -64dBm, RDP = 0.
 852:Generated_Source\PSoC4/nRF24_FUNCS.c ****  * The RPD can be read out at any time while nRF24L01+ is in receive mode.
 853:Generated_Source\PSoC4/nRF24_FUNCS.c ****  */
 854:Generated_Source\PSoC4/nRF24_FUNCS.c **** bool nRF24_test_carrier(void)
 855:Generated_Source\PSoC4/nRF24_FUNCS.c **** {
 1813              		.loc 1 855 0
 1814              		.cfi_startproc
 1815              		@ args = 0, pretend = 0, frame = 0
 1816              		@ frame_needed = 0, uses_anonymous_args = 0
 1817 0000 10B5     		push	{r4, lr}
 1818              		.cfi_def_cfa_offset 8
 1819              		.cfi_offset 4, -8
 1820              		.cfi_offset 14, -4
 856:Generated_Source\PSoC4/nRF24_FUNCS.c ****     return nRF24_read_bit(NRF_REG_RPD, NRF_RPD_BIT_RPD);
 1821              		.loc 1 856 0
 1822 0002 0021     		movs	r1, #0
 1823 0004 0920     		movs	r0, #9
 1824 0006 FFF7FEFF 		bl	nRF24_read_bit
 1825              	.LVL134:
 857:Generated_Source\PSoC4/nRF24_FUNCS.c **** }
 1826              		.loc 1 857 0
 1827              		@ sp needed
 1828 000a 10BD     		pop	{r4, pc}
 1829              		.cfi_endproc
 1830              	.LFE56:
 1831              		.size	nRF24_test_carrier, .-nRF24_test_carrier
 1832              		.section	.text.nRF24_clear_all_irqs,"ax",%progbits
 1833              		.align	1
 1834              		.global	nRF24_clear_all_irqs
 1835              		.code	16
 1836              		.thumb_func
 1837              		.type	nRF24_clear_all_irqs, %function
 1838              	nRF24_clear_all_irqs:
 1839              	.LFB57:
 858:Generated_Source\PSoC4/nRF24_FUNCS.c **** 
 859:Generated_Source\PSoC4/nRF24_FUNCS.c **** /**
 860:Generated_Source\PSoC4/nRF24_FUNCS.c ****  * This function will write 1 to all the three IRQ "flag" bits on the
 861:Generated_Source\PSoC4/nRF24_FUNCS.c ****  * STATUS register.
ARM GAS  C:\Users\AFDHAL~1\AppData\Local\Temp\cc9C0MvF.s 			page 49


 862:Generated_Source\PSoC4/nRF24_FUNCS.c ****  */
 863:Generated_Source\PSoC4/nRF24_FUNCS.c **** void nRF24_clear_all_irqs(void)
 864:Generated_Source\PSoC4/nRF24_FUNCS.c **** {
 1840              		.loc 1 864 0
 1841              		.cfi_startproc
 1842              		@ args = 0, pretend = 0, frame = 0
 1843              		@ frame_needed = 0, uses_anonymous_args = 0
 1844 0000 10B5     		push	{r4, lr}
 1845              		.cfi_def_cfa_offset 8
 1846              		.cfi_offset 4, -8
 1847              		.cfi_offset 14, -4
 865:Generated_Source\PSoC4/nRF24_FUNCS.c ****     nRF24_write_register(NRF_REG_STATUS, NRF_ALL_IRQ_MASK);
 1848              		.loc 1 865 0
 1849 0002 7021     		movs	r1, #112
 1850 0004 0720     		movs	r0, #7
 1851 0006 FFF7FEFF 		bl	nRF24_write_register
 1852              	.LVL135:
 866:Generated_Source\PSoC4/nRF24_FUNCS.c **** }
 1853              		.loc 1 866 0
 1854              		@ sp needed
 1855 000a 10BD     		pop	{r4, pc}
 1856              		.cfi_endproc
 1857              	.LFE57:
 1858              		.size	nRF24_clear_all_irqs, .-nRF24_clear_all_irqs
 1859              		.section	.text.nRF24_start,"ax",%progbits
 1860              		.align	1
 1861              		.global	nRF24_start
 1862              		.code	16
 1863              		.thumb_func
 1864              		.type	nRF24_start, %function
 1865              	nRF24_start:
 1866              	.LFB2:
  56:Generated_Source\PSoC4/nRF24_FUNCS.c ****     // Recommended delay before start using the nRF24
 1867              		.loc 1 56 0
 1868              		.cfi_startproc
 1869              		@ args = 0, pretend = 0, frame = 0
 1870              		@ frame_needed = 0, uses_anonymous_args = 0
 1871 0000 10B5     		push	{r4, lr}
 1872              		.cfi_def_cfa_offset 8
 1873              		.cfi_offset 4, -8
 1874              		.cfi_offset 14, -4
  58:Generated_Source\PSoC4/nRF24_FUNCS.c **** 
 1875              		.loc 1 58 0
 1876 0002 6420     		movs	r0, #100
 1877 0004 FFF7FEFF 		bl	CyDelay
 1878              	.LVL136:
  70:Generated_Source\PSoC4/nRF24_FUNCS.c ****     CE_Write(0);
 1879              		.loc 1 70 0
 1880 0008 FFF7FEFF 		bl	SPI_Start
 1881              	.LVL137:
  71:Generated_Source\PSoC4/nRF24_FUNCS.c ****     SS_Write(1);
 1882              		.loc 1 71 0
 1883 000c 0020     		movs	r0, #0
 1884 000e FFF7FEFF 		bl	CE_Write
 1885              	.LVL138:
  72:Generated_Source\PSoC4/nRF24_FUNCS.c **** #endif
 1886              		.loc 1 72 0
ARM GAS  C:\Users\AFDHAL~1\AppData\Local\Temp\cc9C0MvF.s 			page 50


 1887 0012 0120     		movs	r0, #1
 1888 0014 FFF7FEFF 		bl	SS_Write
 1889              	.LVL139:
  76:Generated_Source\PSoC4/nRF24_FUNCS.c ****     nRF24_flush_tx_cmd();
 1890              		.loc 1 76 0
 1891 0018 FFF7FEFF 		bl	nRF24_flush_rx_cmd
 1892              	.LVL140:
  77:Generated_Source\PSoC4/nRF24_FUNCS.c ****     // Clear IRQ flags
 1893              		.loc 1 77 0
 1894 001c FFF7FEFF 		bl	nRF24_flush_tx_cmd
 1895              	.LVL141:
  79:Generated_Source\PSoC4/nRF24_FUNCS.c **** 
 1896              		.loc 1 79 0
 1897 0020 FFF7FEFF 		bl	nRF24_clear_all_irqs
 1898              	.LVL142:
  82:Generated_Source\PSoC4/nRF24_FUNCS.c **** 
 1899              		.loc 1 82 0
 1900 0024 FFF7FEFF 		bl	nRF24_init
 1901              	.LVL143:
  85:Generated_Source\PSoC4/nRF24_FUNCS.c **** }
 1902              		.loc 1 85 0
 1903 0028 9620     		movs	r0, #150
 1904 002a FFF7FEFF 		bl	CyDelayUs
 1905              	.LVL144:
  86:Generated_Source\PSoC4/nRF24_FUNCS.c **** 
 1906              		.loc 1 86 0
 1907              		@ sp needed
 1908 002e 10BD     		pop	{r4, pc}
 1909              		.cfi_endproc
 1910              	.LFE2:
 1911              		.size	nRF24_start, .-nRF24_start
 1912              		.section	.text.nRF24_clear_irq_flag,"ax",%progbits
 1913              		.align	1
 1914              		.global	nRF24_clear_irq_flag
 1915              		.code	16
 1916              		.thumb_func
 1917              		.type	nRF24_clear_irq_flag, %function
 1918              	nRF24_clear_irq_flag:
 1919              	.LFB58:
 867:Generated_Source\PSoC4/nRF24_FUNCS.c **** 
 868:Generated_Source\PSoC4/nRF24_FUNCS.c **** /**
 869:Generated_Source\PSoC4/nRF24_FUNCS.c ****  * @brief Clears the specific IRQ flag.
 870:Generated_Source\PSoC4/nRF24_FUNCS.c ****  *
 871:Generated_Source\PSoC4/nRF24_FUNCS.c ****  * Clear the flag by writing 1 to the interrupt flag bit.
 872:Generated_Source\PSoC4/nRF24_FUNCS.c ****  *
 873:Generated_Source\PSoC4/nRF24_FUNCS.c ****  * @param nrf_irq irq_flag: Interrupt flag to clear.
 874:Generated_Source\PSoC4/nRF24_FUNCS.c ****  */
 875:Generated_Source\PSoC4/nRF24_FUNCS.c **** void nRF24_clear_irq_flag(const nrf_irq irq_flag)
 876:Generated_Source\PSoC4/nRF24_FUNCS.c **** {
 1920              		.loc 1 876 0
 1921              		.cfi_startproc
 1922              		@ args = 0, pretend = 0, frame = 0
 1923              		@ frame_needed = 0, uses_anonymous_args = 0
 1924              	.LVL145:
 877:Generated_Source\PSoC4/nRF24_FUNCS.c ****     nRF24_write_register(NRF_REG_STATUS, (1 << irq_flag));
 1925              		.loc 1 877 0
 1926 0000 0121     		movs	r1, #1
ARM GAS  C:\Users\AFDHAL~1\AppData\Local\Temp\cc9C0MvF.s 			page 51


 1927 0002 8140     		lsls	r1, r1, r0
 876:Generated_Source\PSoC4/nRF24_FUNCS.c ****     nRF24_write_register(NRF_REG_STATUS, (1 << irq_flag));
 1928              		.loc 1 876 0
 1929 0004 10B5     		push	{r4, lr}
 1930              		.cfi_def_cfa_offset 8
 1931              		.cfi_offset 4, -8
 1932              		.cfi_offset 14, -4
 1933              		.loc 1 877 0
 1934 0006 C9B2     		uxtb	r1, r1
 1935 0008 0720     		movs	r0, #7
 1936              	.LVL146:
 1937 000a FFF7FEFF 		bl	nRF24_write_register
 1938              	.LVL147:
 878:Generated_Source\PSoC4/nRF24_FUNCS.c **** }
 1939              		.loc 1 878 0
 1940              		@ sp needed
 1941 000e 10BD     		pop	{r4, pc}
 1942              		.cfi_endproc
 1943              	.LFE58:
 1944              		.size	nRF24_clear_irq_flag, .-nRF24_clear_irq_flag
 1945              		.section	.text.nRF24_get_irq_flag,"ax",%progbits
 1946              		.align	1
 1947              		.global	nRF24_get_irq_flag
 1948              		.code	16
 1949              		.thumb_func
 1950              		.type	nRF24_get_irq_flag, %function
 1951              	nRF24_get_irq_flag:
 1952              	.LFB59:
 879:Generated_Source\PSoC4/nRF24_FUNCS.c **** 
 880:Generated_Source\PSoC4/nRF24_FUNCS.c **** /**
 881:Generated_Source\PSoC4/nRF24_FUNCS.c ****  * This method is used to get if any of the IRQ "flag" bits on the STATUS
 882:Generated_Source\PSoC4/nRF24_FUNCS.c ****  * register is set to 1. This function returns 0 is none of the flag bits
 883:Generated_Source\PSoC4/nRF24_FUNCS.c ****  * is not set to 1.
 884:Generated_Source\PSoC4/nRF24_FUNCS.c ****  *
 885:Generated_Source\PSoC4/nRF24_FUNCS.c ****  * @return nrf_irq: Asserted bit of the interrupt flags.
 886:Generated_Source\PSoC4/nRF24_FUNCS.c ****  */
 887:Generated_Source\PSoC4/nRF24_FUNCS.c **** nrf_irq nRF24_get_irq_flag(void)
 888:Generated_Source\PSoC4/nRF24_FUNCS.c **** {
 1953              		.loc 1 888 0
 1954              		.cfi_startproc
 1955              		@ args = 0, pretend = 0, frame = 0
 1956              		@ frame_needed = 0, uses_anonymous_args = 0
 1957              	.LVL148:
 1958 0000 10B5     		push	{r4, lr}
 1959              		.cfi_def_cfa_offset 8
 1960              		.cfi_offset 4, -8
 1961              		.cfi_offset 14, -4
 889:Generated_Source\PSoC4/nRF24_FUNCS.c ****     nrf_irq irq = NRF_NONE_IRQ;
 890:Generated_Source\PSoC4/nRF24_FUNCS.c **** 
 891:Generated_Source\PSoC4/nRF24_FUNCS.c ****     // Get the STATUS register
 892:Generated_Source\PSoC4/nRF24_FUNCS.c ****     uint8_t sts = nRF24_nop_cmd();
 1962              		.loc 1 892 0
 1963 0002 FFF7FEFF 		bl	nRF24_nop_cmd
 1964              	.LVL149:
 893:Generated_Source\PSoC4/nRF24_FUNCS.c **** 
 894:Generated_Source\PSoC4/nRF24_FUNCS.c ****     // We only care if bits 4, 5 or 6 are set, so we mask the STATUS with 0x0111_0000
 895:Generated_Source\PSoC4/nRF24_FUNCS.c ****     switch (sts & NRF_ALL_IRQ_MASK) {
ARM GAS  C:\Users\AFDHAL~1\AppData\Local\Temp\cc9C0MvF.s 			page 52


 1965              		.loc 1 895 0
 1966 0006 7022     		movs	r2, #112
 1967 0008 0300     		movs	r3, r0
 896:Generated_Source\PSoC4/nRF24_FUNCS.c ****     case NRF_STATUS_RX_DR_MASK:
 897:Generated_Source\PSoC4/nRF24_FUNCS.c ****         irq = NRF_RX_DR_IRQ;
 898:Generated_Source\PSoC4/nRF24_FUNCS.c ****         break;
 899:Generated_Source\PSoC4/nRF24_FUNCS.c ****     case NRF_STATUS_TX_DS_MASK:
 900:Generated_Source\PSoC4/nRF24_FUNCS.c ****         irq = NRF_TX_DS_IRQ;
 1968              		.loc 1 900 0
 1969 000a 0520     		movs	r0, #5
 1970              	.LVL150:
 895:Generated_Source\PSoC4/nRF24_FUNCS.c ****     case NRF_STATUS_RX_DR_MASK:
 1971              		.loc 1 895 0
 1972 000c 1340     		ands	r3, r2
 1973 000e 202B     		cmp	r3, #32
 1974 0010 06D0     		beq	.L135
 897:Generated_Source\PSoC4/nRF24_FUNCS.c ****         break;
 1975              		.loc 1 897 0
 1976 0012 0130     		adds	r0, r0, #1
 895:Generated_Source\PSoC4/nRF24_FUNCS.c ****     case NRF_STATUS_RX_DR_MASK:
 1977              		.loc 1 895 0
 1978 0014 402B     		cmp	r3, #64
 1979 0016 03D0     		beq	.L135
 901:Generated_Source\PSoC4/nRF24_FUNCS.c ****         break;
 902:Generated_Source\PSoC4/nRF24_FUNCS.c ****     case NRF_STATUS_MAX_RT_MASK:
 903:Generated_Source\PSoC4/nRF24_FUNCS.c ****         irq = NRF_MAX_RT_IRQ;
 1980              		.loc 1 903 0
 1981 0018 0238     		subs	r0, r0, #2
 895:Generated_Source\PSoC4/nRF24_FUNCS.c ****     case NRF_STATUS_RX_DR_MASK:
 1982              		.loc 1 895 0
 1983 001a 102B     		cmp	r3, #16
 1984 001c 00D0     		beq	.L135
 1985              	.LVL151:
 904:Generated_Source\PSoC4/nRF24_FUNCS.c ****         break;
 905:Generated_Source\PSoC4/nRF24_FUNCS.c ****     default:
 906:Generated_Source\PSoC4/nRF24_FUNCS.c ****         irq = NRF_ALL_IRQ_MASK;
 1986              		.loc 1 906 0
 1987 001e 1000     		movs	r0, r2
 1988              	.LVL152:
 1989              	.L135:
 907:Generated_Source\PSoC4/nRF24_FUNCS.c ****         break;
 908:Generated_Source\PSoC4/nRF24_FUNCS.c ****     }
 909:Generated_Source\PSoC4/nRF24_FUNCS.c **** 
 910:Generated_Source\PSoC4/nRF24_FUNCS.c ****     return irq;
 911:Generated_Source\PSoC4/nRF24_FUNCS.c **** }
 1990              		.loc 1 911 0
 1991              		@ sp needed
 1992 0020 10BD     		pop	{r4, pc}
 1993              		.cfi_endproc
 1994              	.LFE59:
 1995              		.size	nRF24_get_irq_flag, .-nRF24_get_irq_flag
 1996              		.section	.text.nRF24_poll_interrupt,"ax",%progbits
 1997              		.align	1
 1998              		.global	nRF24_poll_interrupt
 1999              		.code	16
 2000              		.thumb_func
 2001              		.type	nRF24_poll_interrupt, %function
ARM GAS  C:\Users\AFDHAL~1\AppData\Local\Temp\cc9C0MvF.s 			page 53


 2002              	nRF24_poll_interrupt:
 2003              	.LFB60:
 912:Generated_Source\PSoC4/nRF24_FUNCS.c **** 
 913:Generated_Source\PSoC4/nRF24_FUNCS.c **** void nRF24_poll_interrupt(void)
 914:Generated_Source\PSoC4/nRF24_FUNCS.c **** {
 2004              		.loc 1 914 0
 2005              		.cfi_startproc
 2006              		@ args = 0, pretend = 0, frame = 0
 2007              		@ frame_needed = 0, uses_anonymous_args = 0
 2008              		@ link register save eliminated.
 915:Generated_Source\PSoC4/nRF24_FUNCS.c **** 
 916:Generated_Source\PSoC4/nRF24_FUNCS.c **** }
 2009              		.loc 1 916 0
 2010              		@ sp needed
 2011 0000 7047     		bx	lr
 2012              		.cfi_endproc
 2013              	.LFE60:
 2014              		.size	nRF24_poll_interrupt, .-nRF24_poll_interrupt
 2015              		.section	.text.nRF24_get_status_clear_irq,"ax",%progbits
 2016              		.align	1
 2017              		.global	nRF24_get_status_clear_irq
 2018              		.code	16
 2019              		.thumb_func
 2020              		.type	nRF24_get_status_clear_irq, %function
 2021              	nRF24_get_status_clear_irq:
 2022              	.LFB61:
 917:Generated_Source\PSoC4/nRF24_FUNCS.c **** 
 918:Generated_Source\PSoC4/nRF24_FUNCS.c **** uint8_t nRF24_get_status_clear_irq(void)
 919:Generated_Source\PSoC4/nRF24_FUNCS.c **** {
 2023              		.loc 1 919 0
 2024              		.cfi_startproc
 2025              		@ args = 0, pretend = 0, frame = 0
 2026              		@ frame_needed = 0, uses_anonymous_args = 0
 2027 0000 10B5     		push	{r4, lr}
 2028              		.cfi_def_cfa_offset 8
 2029              		.cfi_offset 4, -8
 2030              		.cfi_offset 14, -4
 920:Generated_Source\PSoC4/nRF24_FUNCS.c ****     uint8_t sts = nRF24_nop_cmd();
 2031              		.loc 1 920 0
 2032 0002 FFF7FEFF 		bl	nRF24_nop_cmd
 2033              	.LVL153:
 2034 0006 0400     		movs	r4, r0
 2035              	.LVL154:
 921:Generated_Source\PSoC4/nRF24_FUNCS.c ****     nRF24_write_register(NRF_REG_STATUS, NRF_ALL_IRQ_MASK);
 2036              		.loc 1 921 0
 2037 0008 7021     		movs	r1, #112
 2038 000a 0720     		movs	r0, #7
 2039 000c FFF7FEFF 		bl	nRF24_write_register
 2040              	.LVL155:
 922:Generated_Source\PSoC4/nRF24_FUNCS.c **** 
 923:Generated_Source\PSoC4/nRF24_FUNCS.c ****     return sts;
 924:Generated_Source\PSoC4/nRF24_FUNCS.c **** }
 2041              		.loc 1 924 0
 2042              		@ sp needed
 2043 0010 2000     		movs	r0, r4
 2044              	.LVL156:
 2045 0012 10BD     		pop	{r4, pc}
ARM GAS  C:\Users\AFDHAL~1\AppData\Local\Temp\cc9C0MvF.s 			page 54


 2046              		.cfi_endproc
 2047              	.LFE61:
 2048              		.size	nRF24_get_status_clear_irq, .-nRF24_get_status_clear_irq
 2049              		.section	.text.nRF24_flush_rx,"ax",%progbits
 2050              		.align	1
 2051              		.global	nRF24_flush_rx
 2052              		.code	16
 2053              		.thumb_func
 2054              		.type	nRF24_flush_rx, %function
 2055              	nRF24_flush_rx:
 2056              	.LFB62:
 925:Generated_Source\PSoC4/nRF24_FUNCS.c **** 
 926:Generated_Source\PSoC4/nRF24_FUNCS.c **** // command wrappers
 927:Generated_Source\PSoC4/nRF24_FUNCS.c **** void nRF24_flush_rx(void)
 928:Generated_Source\PSoC4/nRF24_FUNCS.c **** {
 2057              		.loc 1 928 0
 2058              		.cfi_startproc
 2059              		@ args = 0, pretend = 0, frame = 0
 2060              		@ frame_needed = 0, uses_anonymous_args = 0
 2061 0000 10B5     		push	{r4, lr}
 2062              		.cfi_def_cfa_offset 8
 2063              		.cfi_offset 4, -8
 2064              		.cfi_offset 14, -4
 929:Generated_Source\PSoC4/nRF24_FUNCS.c ****     nRF24_flush_rx_cmd();
 2065              		.loc 1 929 0
 2066 0002 FFF7FEFF 		bl	nRF24_flush_rx_cmd
 2067              	.LVL157:
 930:Generated_Source\PSoC4/nRF24_FUNCS.c **** }
 2068              		.loc 1 930 0
 2069              		@ sp needed
 2070 0006 10BD     		pop	{r4, pc}
 2071              		.cfi_endproc
 2072              	.LFE62:
 2073              		.size	nRF24_flush_rx, .-nRF24_flush_rx
 2074              		.section	.text.nRF24_flush_tx,"ax",%progbits
 2075              		.align	1
 2076              		.global	nRF24_flush_tx
 2077              		.code	16
 2078              		.thumb_func
 2079              		.type	nRF24_flush_tx, %function
 2080              	nRF24_flush_tx:
 2081              	.LFB63:
 931:Generated_Source\PSoC4/nRF24_FUNCS.c **** 
 932:Generated_Source\PSoC4/nRF24_FUNCS.c **** void nRF24_flush_tx(void)
 933:Generated_Source\PSoC4/nRF24_FUNCS.c **** {
 2082              		.loc 1 933 0
 2083              		.cfi_startproc
 2084              		@ args = 0, pretend = 0, frame = 0
 2085              		@ frame_needed = 0, uses_anonymous_args = 0
 2086 0000 10B5     		push	{r4, lr}
 2087              		.cfi_def_cfa_offset 8
 2088              		.cfi_offset 4, -8
 2089              		.cfi_offset 14, -4
 934:Generated_Source\PSoC4/nRF24_FUNCS.c ****     nRF24_flush_tx_cmd();
 2090              		.loc 1 934 0
 2091 0002 FFF7FEFF 		bl	nRF24_flush_tx_cmd
 2092              	.LVL158:
ARM GAS  C:\Users\AFDHAL~1\AppData\Local\Temp\cc9C0MvF.s 			page 55


 935:Generated_Source\PSoC4/nRF24_FUNCS.c **** }
 2093              		.loc 1 935 0
 2094              		@ sp needed
 2095 0006 10BD     		pop	{r4, pc}
 2096              		.cfi_endproc
 2097              	.LFE63:
 2098              		.size	nRF24_flush_tx, .-nRF24_flush_tx
 2099              		.data
 2100              		.set	.LANCHOR0,. + 0
 2101              		.type	_nrf_addr_width, %object
 2102              		.size	_nrf_addr_width, 1
 2103              	_nrf_addr_width:
 2104 0000 05       		.byte	5
 2105              		.text
 2106              	.Letext0:
 2107              		.file 2 "c:\\program files (x86)\\cypress\\psoc creator\\4.1\\psoc creator\\import\\gnu\\arm\\5.4.
 2108              		.file 3 "c:\\program files (x86)\\cypress\\psoc creator\\4.1\\psoc creator\\import\\gnu\\arm\\5.4.
 2109              		.file 4 "c:\\program files (x86)\\cypress\\psoc creator\\4.1\\psoc creator\\import\\gnu\\arm\\5.4.
 2110              		.file 5 "Generated_Source\\PSoC4\\nRF24_DEFS.h"
 2111              		.file 6 "Generated_Source\\PSoC4\\nRF24_HAL.h"
 2112              		.file 7 "Generated_Source\\PSoC4/CyLib.h"
 2113              		.file 8 "Generated_Source\\PSoC4\\nRF24_COMMANDS.h"
 2114              		.file 9 "Generated_Source\\PSoC4\\CE.h"
 2115              		.file 10 "Generated_Source\\PSoC4\\SPI.h"
 2116              		.file 11 "Generated_Source\\PSoC4\\SS.h"