ARM GAS  C:\Users\AFDHAL~1\AppData\Local\Temp\ccFRx9SZ.s 			page 1


   1              		.syntax unified
   2              		.cpu cortex-m0
   3              		.fpu softvfp
   4              		.eabi_attribute 20, 1
   5              		.eabi_attribute 21, 1
   6              		.eabi_attribute 23, 3
   7              		.eabi_attribute 24, 1
   8              		.eabi_attribute 25, 1
   9              		.eabi_attribute 26, 1
  10              		.eabi_attribute 30, 4
  11              		.eabi_attribute 34, 0
  12              		.eabi_attribute 18, 4
  13              		.thumb
  14              		.syntax unified
  15              		.file	"ring_buffer.c"
  16              		.text
  17              	.Ltext0:
  18              		.cfi_sections	.debug_frame
  19              		.section	.text.circular_buf_reset,"ax",%progbits
  20              		.align	1
  21              		.global	circular_buf_reset
  22              		.code	16
  23              		.thumb_func
  24              		.type	circular_buf_reset, %function
  25              	circular_buf_reset:
  26              	.LFB34:
  27              		.file 1 "ring_buffer.c"
   1:ring_buffer.c **** /*
   2:ring_buffer.c ****  * ring_buffer.c
   3:ring_buffer.c ****  *
   4:ring_buffer.c ****  *  Created on: 16 Mar 2018
   5:ring_buffer.c ****  *      Author: AfdhalAtiffTan
   6:ring_buffer.c ****  * 
   7:ring_buffer.c ****  * Circular buffer implementation was taken from: https://github.com/embeddedartistry/embedded-reso
   8:ring_buffer.c ****  * Lightly modified to accept uint16_t
   9:ring_buffer.c ****  */
  10:ring_buffer.c **** 
  11:ring_buffer.c **** #include "ring_buffer.h"
  12:ring_buffer.c **** 
  13:ring_buffer.c **** #define BUF_SIZE 256 //set the buffer size
  14:ring_buffer.c **** 
  15:ring_buffer.c **** //<embeddedartistry> 
  16:ring_buffer.c **** /* https://embeddedartistry.com/blog/2017/4/6/circular-buffers-in-cc */
  17:ring_buffer.c **** 
  18:ring_buffer.c **** typedef struct {
  19:ring_buffer.c **** 	uint16_t *  buffer;
  20:ring_buffer.c **** 	size_t      head;
  21:ring_buffer.c **** 	size_t      tail;
  22:ring_buffer.c **** 	size_t      size; //of the buffer
  23:ring_buffer.c **** }   circular_buf_t;
  24:ring_buffer.c **** 
  25:ring_buffer.c **** /**
  26:ring_buffer.c **** * Important Usage Note: This library reserves one spare byte for queue-full detection
  27:ring_buffer.c **** * Otherwise, corner cases and detecting difference between full/empty is hard.
  28:ring_buffer.c **** * You are not seeing an accidental off-by-one.
  29:ring_buffer.c **** */
  30:ring_buffer.c **** 
ARM GAS  C:\Users\AFDHAL~1\AppData\Local\Temp\ccFRx9SZ.s 			page 2


  31:ring_buffer.c **** int circular_buf_reset(circular_buf_t * cbuf);
  32:ring_buffer.c **** int circular_buf_put(circular_buf_t * cbuf, uint16_t data);
  33:ring_buffer.c **** //TODO: int circular_buf_put_range(circular_buf_t cbuf, uint8_t * data, size_t len);
  34:ring_buffer.c **** int circular_buf_get(circular_buf_t * cbuf, uint16_t * data);
  35:ring_buffer.c **** //TODO: int circular_buf_get_range(circular_buf_t cbuf, uint8_t *data, size_t len);
  36:ring_buffer.c **** bool circular_buf_empty(circular_buf_t cbuf);
  37:ring_buffer.c **** bool circular_buf_full(circular_buf_t cbuf);
  38:ring_buffer.c **** 
  39:ring_buffer.c **** int circular_buf_reset(circular_buf_t * cbuf)
  40:ring_buffer.c **** {
  28              		.loc 1 40 0
  29              		.cfi_startproc
  30              		@ args = 0, pretend = 0, frame = 0
  31              		@ frame_needed = 0, uses_anonymous_args = 0
  32              		@ link register save eliminated.
  33              	.LVL0:
  41:ring_buffer.c ****     int r = -1;
  42:ring_buffer.c **** 
  43:ring_buffer.c ****     if(cbuf)
  34              		.loc 1 43 0
  35 0000 0028     		cmp	r0, #0
  36 0002 04D0     		beq	.L3
  44:ring_buffer.c ****     {
  45:ring_buffer.c ****         cbuf->head = 0;
  37              		.loc 1 45 0
  38 0004 0023     		movs	r3, #0
  39 0006 4360     		str	r3, [r0, #4]
  46:ring_buffer.c ****         cbuf->tail = 0;
  40              		.loc 1 46 0
  41 0008 8360     		str	r3, [r0, #8]
  42              	.LVL1:
  47:ring_buffer.c ****         r = 0;
  43              		.loc 1 47 0
  44 000a 1800     		movs	r0, r3
  45              	.LVL2:
  46 000c 01E0     		b	.L2
  47              	.LVL3:
  48              	.L3:
  41:ring_buffer.c **** 
  49              		.loc 1 41 0
  50 000e 0120     		movs	r0, #1
  51              	.LVL4:
  52 0010 4042     		rsbs	r0, r0, #0
  53              	.LVL5:
  54              	.L2:
  48:ring_buffer.c ****     }
  49:ring_buffer.c **** 
  50:ring_buffer.c ****     return r;
  51:ring_buffer.c **** }
  55              		.loc 1 51 0
  56              		@ sp needed
  57 0012 7047     		bx	lr
  58              		.cfi_endproc
  59              	.LFE34:
  60              		.size	circular_buf_reset, .-circular_buf_reset
  61              		.global	__aeabi_uidivmod
  62              		.section	.text.circular_buf_put,"ax",%progbits
ARM GAS  C:\Users\AFDHAL~1\AppData\Local\Temp\ccFRx9SZ.s 			page 3


  63              		.align	1
  64              		.global	circular_buf_put
  65              		.code	16
  66              		.thumb_func
  67              		.type	circular_buf_put, %function
  68              	circular_buf_put:
  69              	.LFB35:
  52:ring_buffer.c **** 
  53:ring_buffer.c **** int circular_buf_put(circular_buf_t * cbuf, uint16_t data)
  54:ring_buffer.c **** {
  70              		.loc 1 54 0
  71              		.cfi_startproc
  72              		@ args = 0, pretend = 0, frame = 0
  73              		@ frame_needed = 0, uses_anonymous_args = 0
  74              	.LVL6:
  75 0000 70B5     		push	{r4, r5, r6, lr}
  76              		.cfi_def_cfa_offset 16
  77              		.cfi_offset 4, -16
  78              		.cfi_offset 5, -12
  79              		.cfi_offset 6, -8
  80              		.cfi_offset 14, -4
  81              		.loc 1 54 0
  82 0002 041E     		subs	r4, r0, #0
  55:ring_buffer.c ****     int r = -1;
  56:ring_buffer.c **** 
  57:ring_buffer.c ****     if(cbuf)
  83              		.loc 1 57 0
  84 0004 13D0     		beq	.L7
  58:ring_buffer.c ****     {
  59:ring_buffer.c ****         cbuf->buffer[cbuf->head] = data;
  85              		.loc 1 59 0
  86 0006 4068     		ldr	r0, [r0, #4]
  87              	.LVL7:
  88 0008 2268     		ldr	r2, [r4]
  60:ring_buffer.c ****         cbuf->head = (cbuf->head + 1) % cbuf->size;
  89              		.loc 1 60 0
  90 000a E668     		ldr	r6, [r4, #12]
  59:ring_buffer.c ****         cbuf->head = (cbuf->head + 1) % cbuf->size;
  91              		.loc 1 59 0
  92 000c 4300     		lsls	r3, r0, #1
  93 000e 9952     		strh	r1, [r3, r2]
  94              		.loc 1 60 0
  95 0010 0130     		adds	r0, r0, #1
  96 0012 3100     		movs	r1, r6
  97              	.LVL8:
  98 0014 FFF7FEFF 		bl	__aeabi_uidivmod
  99              	.LVL9:
  61:ring_buffer.c **** 
  62:ring_buffer.c ****         if(cbuf->head == cbuf->tail)
 100              		.loc 1 62 0
 101 0018 A368     		ldr	r3, [r4, #8]
  60:ring_buffer.c **** 
 102              		.loc 1 60 0
 103 001a 6160     		str	r1, [r4, #4]
  63:ring_buffer.c ****         {
  64:ring_buffer.c ****             cbuf->tail = (cbuf->tail + 1) % cbuf->size;
  65:ring_buffer.c ****         }
ARM GAS  C:\Users\AFDHAL~1\AppData\Local\Temp\ccFRx9SZ.s 			page 4


  66:ring_buffer.c **** 
  67:ring_buffer.c ****         r = 0;
 104              		.loc 1 67 0
 105 001c 0025     		movs	r5, #0
  62:ring_buffer.c ****         {
 106              		.loc 1 62 0
 107 001e 9942     		cmp	r1, r3
 108 0020 07D1     		bne	.L6
  64:ring_buffer.c ****         }
 109              		.loc 1 64 0
 110 0022 481C     		adds	r0, r1, #1
 111 0024 3100     		movs	r1, r6
 112 0026 FFF7FEFF 		bl	__aeabi_uidivmod
 113              	.LVL10:
 114 002a A160     		str	r1, [r4, #8]
 115 002c 01E0     		b	.L6
 116              	.LVL11:
 117              	.L7:
  55:ring_buffer.c **** 
 118              		.loc 1 55 0
 119 002e 0125     		movs	r5, #1
 120 0030 6D42     		rsbs	r5, r5, #0
 121              	.LVL12:
 122              	.L6:
  68:ring_buffer.c ****     }
  69:ring_buffer.c **** 
  70:ring_buffer.c ****     return r;
  71:ring_buffer.c **** }
 123              		.loc 1 71 0
 124 0032 2800     		movs	r0, r5
 125              		@ sp needed
 126              	.LVL13:
 127              	.LVL14:
 128 0034 70BD     		pop	{r4, r5, r6, pc}
 129              		.cfi_endproc
 130              	.LFE35:
 131              		.size	circular_buf_put, .-circular_buf_put
 132              		.section	.text.circular_buf_get,"ax",%progbits
 133              		.align	1
 134              		.global	circular_buf_get
 135              		.code	16
 136              		.thumb_func
 137              		.type	circular_buf_get, %function
 138              	circular_buf_get:
 139              	.LFB36:
  72:ring_buffer.c **** 
  73:ring_buffer.c **** int circular_buf_get(circular_buf_t * cbuf, uint16_t * data)
  74:ring_buffer.c **** {
 140              		.loc 1 74 0
 141              		.cfi_startproc
 142              		@ args = 0, pretend = 0, frame = 0
 143              		@ frame_needed = 0, uses_anonymous_args = 0
 144              	.LVL15:
 145 0000 10B5     		push	{r4, lr}
 146              		.cfi_def_cfa_offset 8
 147              		.cfi_offset 4, -8
 148              		.cfi_offset 14, -4
ARM GAS  C:\Users\AFDHAL~1\AppData\Local\Temp\ccFRx9SZ.s 			page 5


 149              		.loc 1 74 0
 150 0002 041E     		subs	r4, r0, #0
  75:ring_buffer.c ****     int r = -1;
  76:ring_buffer.c **** 
  77:ring_buffer.c ****     if(cbuf && data && !circular_buf_empty(*cbuf))
 151              		.loc 1 77 0
 152 0004 10D0     		beq	.L13
 153              		.loc 1 77 0 is_stmt 0 discriminator 1
 154 0006 0029     		cmp	r1, #0
 155 0008 0ED0     		beq	.L13
 156              	.LVL16:
 157 000a 8068     		ldr	r0, [r0, #8]
 158              	.LVL17:
 159              		.loc 1 77 0 discriminator 2
 160 000c 6368     		ldr	r3, [r4, #4]
 161 000e 9842     		cmp	r0, r3
 162 0010 0AD0     		beq	.L13
  78:ring_buffer.c ****     {
  79:ring_buffer.c ****         *data = cbuf->buffer[cbuf->tail];
 163              		.loc 1 79 0 is_stmt 1
 164 0012 2268     		ldr	r2, [r4]
 165 0014 4300     		lsls	r3, r0, #1
 166 0016 9B5A     		ldrh	r3, [r3, r2]
  80:ring_buffer.c ****         cbuf->tail = (cbuf->tail + 1) % cbuf->size;
 167              		.loc 1 80 0
 168 0018 0130     		adds	r0, r0, #1
 169              	.LVL18:
  79:ring_buffer.c ****         cbuf->tail = (cbuf->tail + 1) % cbuf->size;
 170              		.loc 1 79 0
 171 001a 0B80     		strh	r3, [r1]
 172              	.LVL19:
 173              		.loc 1 80 0
 174 001c E168     		ldr	r1, [r4, #12]
 175              	.LVL20:
 176 001e FFF7FEFF 		bl	__aeabi_uidivmod
 177              	.LVL21:
  81:ring_buffer.c **** 
  82:ring_buffer.c ****         r = 0;
 178              		.loc 1 82 0
 179 0022 0020     		movs	r0, #0
  80:ring_buffer.c **** 
 180              		.loc 1 80 0
 181 0024 A160     		str	r1, [r4, #8]
 182              	.LVL22:
 183 0026 01E0     		b	.L10
 184              	.LVL23:
 185              	.L13:
  75:ring_buffer.c **** 
 186              		.loc 1 75 0
 187 0028 0120     		movs	r0, #1
 188 002a 4042     		rsbs	r0, r0, #0
 189              	.LVL24:
 190              	.L10:
  83:ring_buffer.c ****     }
  84:ring_buffer.c **** 
  85:ring_buffer.c ****     return r;
  86:ring_buffer.c **** }
ARM GAS  C:\Users\AFDHAL~1\AppData\Local\Temp\ccFRx9SZ.s 			page 6


 191              		.loc 1 86 0
 192              		@ sp needed
 193              	.LVL25:
 194 002c 10BD     		pop	{r4, pc}
 195              		.cfi_endproc
 196              	.LFE36:
 197              		.size	circular_buf_get, .-circular_buf_get
 198              		.section	.text.circular_buf_empty,"ax",%progbits
 199              		.align	1
 200              		.global	circular_buf_empty
 201              		.code	16
 202              		.thumb_func
 203              		.type	circular_buf_empty, %function
 204              	circular_buf_empty:
 205              	.LFB37:
  87:ring_buffer.c **** 
  88:ring_buffer.c **** bool circular_buf_empty(circular_buf_t cbuf)
  89:ring_buffer.c **** {
 206              		.loc 1 89 0
 207              		.cfi_startproc
 208              		@ args = 0, pretend = 0, frame = 16
 209              		@ frame_needed = 0, uses_anonymous_args = 0
 210              		@ link register save eliminated.
  90:ring_buffer.c **** 	// We define empty as head == tail
  91:ring_buffer.c ****     return (cbuf.head == cbuf.tail);
 211              		.loc 1 91 0
 212 0000 881A     		subs	r0, r1, r2
 213 0002 4142     		rsbs	r1, r0, #0
 214 0004 4841     		adcs	r0, r0, r1
  89:ring_buffer.c **** 	// We define empty as head == tail
 215              		.loc 1 89 0
 216 0006 84B0     		sub	sp, sp, #16
 217              		.cfi_def_cfa_offset 16
 218              		.loc 1 91 0
 219 0008 C0B2     		uxtb	r0, r0
  92:ring_buffer.c **** }
 220              		.loc 1 92 0
 221 000a 04B0     		add	sp, sp, #16
 222              		@ sp needed
 223 000c 7047     		bx	lr
 224              		.cfi_endproc
 225              	.LFE37:
 226              		.size	circular_buf_empty, .-circular_buf_empty
 227              		.section	.text.circular_buf_full,"ax",%progbits
 228              		.align	1
 229              		.global	circular_buf_full
 230              		.code	16
 231              		.thumb_func
 232              		.type	circular_buf_full, %function
 233              	circular_buf_full:
 234              	.LFB38:
  93:ring_buffer.c **** 
  94:ring_buffer.c **** bool circular_buf_full(circular_buf_t cbuf)
  95:ring_buffer.c **** {
 235              		.loc 1 95 0
 236              		.cfi_startproc
 237              		@ args = 0, pretend = 0, frame = 16
ARM GAS  C:\Users\AFDHAL~1\AppData\Local\Temp\ccFRx9SZ.s 			page 7


 238              		@ frame_needed = 0, uses_anonymous_args = 0
 239 0000 1FB5     		push	{r0, r1, r2, r3, r4, lr}
 240              		.cfi_def_cfa_offset 24
 241              		.cfi_offset 0, -24
 242              		.cfi_offset 1, -20
 243              		.cfi_offset 2, -16
 244              		.cfi_offset 3, -12
 245              		.cfi_offset 4, -8
 246              		.cfi_offset 14, -4
  96:ring_buffer.c **** 	// We determine "full" case by head being one position behind the tail
  97:ring_buffer.c **** 	// Note that this means we are wasting one space in the buffer!
  98:ring_buffer.c **** 	// Instead, you could have an "empty" flag and determine buffer full that way
  99:ring_buffer.c ****     return ((cbuf.head + 1) % cbuf.size) == cbuf.tail;
 247              		.loc 1 99 0
 248 0002 481C     		adds	r0, r1, #1
 249 0004 1900     		movs	r1, r3
  95:ring_buffer.c **** 	// We determine "full" case by head being one position behind the tail
 250              		.loc 1 95 0
 251 0006 1400     		movs	r4, r2
 252              		.loc 1 99 0
 253 0008 FFF7FEFF 		bl	__aeabi_uidivmod
 254              	.LVL26:
 255 000c 081B     		subs	r0, r1, r4
 256 000e 4142     		rsbs	r1, r0, #0
 257 0010 4841     		adcs	r0, r0, r1
 258 0012 C0B2     		uxtb	r0, r0
 100:ring_buffer.c **** }
 259              		.loc 1 100 0
 260 0014 04B0     		add	sp, sp, #16
 261              		@ sp needed
 262 0016 10BD     		pop	{r4, pc}
 263              		.cfi_endproc
 264              	.LFE38:
 265              		.size	circular_buf_full, .-circular_buf_full
 266              		.section	.text.circular_buf_available,"ax",%progbits
 267              		.align	1
 268              		.global	circular_buf_available
 269              		.code	16
 270              		.thumb_func
 271              		.type	circular_buf_available, %function
 272              	circular_buf_available:
 273              	.LFB39:
 101:ring_buffer.c **** 
 102:ring_buffer.c **** uint16_t circular_buf_available(circular_buf_t cbuf)
 103:ring_buffer.c **** {
 274              		.loc 1 103 0
 275              		.cfi_startproc
 276              		@ args = 0, pretend = 0, frame = 16
 277              		@ frame_needed = 0, uses_anonymous_args = 0
 278              		@ link register save eliminated.
 279              	.LVL27:
 280 0000 84B0     		sub	sp, sp, #16
 281              		.cfi_def_cfa_offset 16
 104:ring_buffer.c ****     uint16_t free;
 105:ring_buffer.c ****     
 106:ring_buffer.c ****     if(cbuf.head >= cbuf.tail)
 282              		.loc 1 106 0
ARM GAS  C:\Users\AFDHAL~1\AppData\Local\Temp\ccFRx9SZ.s 			page 8


 283 0002 9142     		cmp	r1, r2
 284 0004 01D3     		bcc	.L17
 107:ring_buffer.c ****         free = cbuf.size - (cbuf.head - cbuf.tail);
 285              		.loc 1 107 0
 286 0006 9A18     		adds	r2, r3, r2
 287              	.LVL28:
 288 0008 00E0     		b	.L19
 289              	.LVL29:
 290              	.L17:
 108:ring_buffer.c ****     else
 109:ring_buffer.c ****         free = cbuf.tail - cbuf.head - 1;
 291              		.loc 1 109 0
 292 000a 013A     		subs	r2, r2, #1
 293              	.LVL30:
 294              	.L19:
 295 000c 521A     		subs	r2, r2, r1
 296 000e 92B2     		uxth	r2, r2
 297              	.LVL31:
 110:ring_buffer.c ****     
 111:ring_buffer.c ****     return  (cbuf.size - free);
 298              		.loc 1 111 0
 299 0010 9A1A     		subs	r2, r3, r2
 300              	.LVL32:
 301 0012 90B2     		uxth	r0, r2
 112:ring_buffer.c **** }
 302              		.loc 1 112 0
 303 0014 04B0     		add	sp, sp, #16
 304              		@ sp needed
 305 0016 7047     		bx	lr
 306              		.cfi_endproc
 307              	.LFE39:
 308              		.size	circular_buf_available, .-circular_buf_available
 309              		.section	.text.ring_buffer_init,"ax",%progbits
 310              		.align	1
 311              		.global	ring_buffer_init
 312              		.code	16
 313              		.thumb_func
 314              		.type	ring_buffer_init, %function
 315              	ring_buffer_init:
 316              	.LFB40:
 113:ring_buffer.c **** 
 114:ring_buffer.c **** //</embeddedartistry>
 115:ring_buffer.c **** 
 116:ring_buffer.c **** 
 117:ring_buffer.c **** //<Adapters>
 118:ring_buffer.c **** circular_buf_t cbuf; //global 
 119:ring_buffer.c **** 
 120:ring_buffer.c **** void ring_buffer_init()
 121:ring_buffer.c **** {    
 317              		.loc 1 121 0
 318              		.cfi_startproc
 319              		@ args = 0, pretend = 0, frame = 0
 320              		@ frame_needed = 0, uses_anonymous_args = 0
 122:ring_buffer.c **** 	cbuf.size = BUF_SIZE;
 321              		.loc 1 122 0
 322 0000 8023     		movs	r3, #128
 121:ring_buffer.c **** 	cbuf.size = BUF_SIZE;
ARM GAS  C:\Users\AFDHAL~1\AppData\Local\Temp\ccFRx9SZ.s 			page 9


 323              		.loc 1 121 0
 324 0002 10B5     		push	{r4, lr}
 325              		.cfi_def_cfa_offset 8
 326              		.cfi_offset 4, -8
 327              		.cfi_offset 14, -4
 328              		.loc 1 122 0
 329 0004 054C     		ldr	r4, .L21
 330 0006 5B00     		lsls	r3, r3, #1
 123:ring_buffer.c ****     circular_buf_reset(&cbuf); //set head/tail to 0
 124:ring_buffer.c ****     cbuf.buffer = (uint16_t*) malloc(cbuf.size * sizeof(uint16_t));
 331              		.loc 1 124 0
 332 0008 8020     		movs	r0, #128
 122:ring_buffer.c ****     circular_buf_reset(&cbuf); //set head/tail to 0
 333              		.loc 1 122 0
 334 000a E360     		str	r3, [r4, #12]
 335              	.LVL33:
 336              	.LBB12:
 337              	.LBB13:
  45:ring_buffer.c ****         cbuf->tail = 0;
 338              		.loc 1 45 0
 339 000c 0023     		movs	r3, #0
 340              	.LBE13:
 341              	.LBE12:
 342              		.loc 1 124 0
 343 000e 8000     		lsls	r0, r0, #2
 344              	.LBB15:
 345              	.LBB14:
  45:ring_buffer.c ****         cbuf->tail = 0;
 346              		.loc 1 45 0
 347 0010 6360     		str	r3, [r4, #4]
  46:ring_buffer.c ****         r = 0;
 348              		.loc 1 46 0
 349 0012 A360     		str	r3, [r4, #8]
 350              	.LVL34:
 351              	.LBE14:
 352              	.LBE15:
 353              		.loc 1 124 0
 354 0014 FFF7FEFF 		bl	malloc
 355              	.LVL35:
 125:ring_buffer.c **** }
 356              		.loc 1 125 0
 357              		@ sp needed
 124:ring_buffer.c **** }
 358              		.loc 1 124 0
 359 0018 2060     		str	r0, [r4]
 360              		.loc 1 125 0
 361 001a 10BD     		pop	{r4, pc}
 362              	.L22:
 363              		.align	2
 364              	.L21:
 365 001c 00000000 		.word	cbuf
 366              		.cfi_endproc
 367              	.LFE40:
 368              		.size	ring_buffer_init, .-ring_buffer_init
 369              		.section	.text.ring_buffer_push,"ax",%progbits
 370              		.align	1
 371              		.global	ring_buffer_push
ARM GAS  C:\Users\AFDHAL~1\AppData\Local\Temp\ccFRx9SZ.s 			page 10


 372              		.code	16
 373              		.thumb_func
 374              		.type	ring_buffer_push, %function
 375              	ring_buffer_push:
 376              	.LFB41:
 126:ring_buffer.c **** 
 127:ring_buffer.c **** void ring_buffer_push(uint16_t i)
 128:ring_buffer.c **** {
 377              		.loc 1 128 0
 378              		.cfi_startproc
 379              		@ args = 0, pretend = 0, frame = 0
 380              		@ frame_needed = 0, uses_anonymous_args = 0
 381              	.LVL36:
 382 0000 10B5     		push	{r4, lr}
 383              		.cfi_def_cfa_offset 8
 384              		.cfi_offset 4, -8
 385              		.cfi_offset 14, -4
 386              		.loc 1 128 0
 387 0002 0100     		movs	r1, r0
 129:ring_buffer.c ****     circular_buf_put(&cbuf, i);
 388              		.loc 1 129 0
 389 0004 0148     		ldr	r0, .L24
 390              	.LVL37:
 391 0006 FFF7FEFF 		bl	circular_buf_put
 392              	.LVL38:
 130:ring_buffer.c **** }
 393              		.loc 1 130 0
 394              		@ sp needed
 395 000a 10BD     		pop	{r4, pc}
 396              	.L25:
 397              		.align	2
 398              	.L24:
 399 000c 00000000 		.word	cbuf
 400              		.cfi_endproc
 401              	.LFE41:
 402              		.size	ring_buffer_push, .-ring_buffer_push
 403              		.section	.text.ring_buffer_pop,"ax",%progbits
 404              		.align	1
 405              		.global	ring_buffer_pop
 406              		.code	16
 407              		.thumb_func
 408              		.type	ring_buffer_pop, %function
 409              	ring_buffer_pop:
 410              	.LFB42:
 131:ring_buffer.c **** 
 132:ring_buffer.c **** uint16_t ring_buffer_pop()
 133:ring_buffer.c **** {
 411              		.loc 1 133 0
 412              		.cfi_startproc
 413              		@ args = 0, pretend = 0, frame = 8
 414              		@ frame_needed = 0, uses_anonymous_args = 0
 415 0000 13B5     		push	{r0, r1, r4, lr}
 416              		.cfi_def_cfa_offset 16
 417              		.cfi_offset 0, -16
 418              		.cfi_offset 1, -12
 419              		.cfi_offset 4, -8
 420              		.cfi_offset 14, -4
ARM GAS  C:\Users\AFDHAL~1\AppData\Local\Temp\ccFRx9SZ.s 			page 11


 134:ring_buffer.c ****     uint16_t data;
 135:ring_buffer.c **** 	circular_buf_get(&cbuf, &data);
 421              		.loc 1 135 0
 422 0002 6B46     		mov	r3, sp
 423 0004 9C1D     		adds	r4, r3, #6
 424 0006 2100     		movs	r1, r4
 425 0008 0248     		ldr	r0, .L27
 426 000a FFF7FEFF 		bl	circular_buf_get
 427              	.LVL39:
 136:ring_buffer.c ****     return data;
 137:ring_buffer.c **** }
 428              		.loc 1 137 0
 429              		@ sp needed
 136:ring_buffer.c ****     return data;
 430              		.loc 1 136 0
 431 000e 2088     		ldrh	r0, [r4]
 432              		.loc 1 137 0
 433 0010 16BD     		pop	{r1, r2, r4, pc}
 434              	.L28:
 435 0012 C046     		.align	2
 436              	.L27:
 437 0014 00000000 		.word	cbuf
 438              		.cfi_endproc
 439              	.LFE42:
 440              		.size	ring_buffer_pop, .-ring_buffer_pop
 441              		.section	.text.ring_buffer_isEmpty,"ax",%progbits
 442              		.align	1
 443              		.global	ring_buffer_isEmpty
 444              		.code	16
 445              		.thumb_func
 446              		.type	ring_buffer_isEmpty, %function
 447              	ring_buffer_isEmpty:
 448              	.LFB43:
 138:ring_buffer.c **** 
 139:ring_buffer.c **** bool ring_buffer_isEmpty()
 140:ring_buffer.c **** {
 449              		.loc 1 140 0
 450              		.cfi_startproc
 451              		@ args = 0, pretend = 0, frame = 0
 452              		@ frame_needed = 0, uses_anonymous_args = 0
 453              		@ link register save eliminated.
 454              	.LVL40:
 455 0000 034A     		ldr	r2, .L30
 141:ring_buffer.c ****     return circular_buf_empty(cbuf);
 142:ring_buffer.c **** }
 456              		.loc 1 142 0
 457              		@ sp needed
 141:ring_buffer.c ****     return circular_buf_empty(cbuf);
 458              		.loc 1 141 0
 459 0002 5368     		ldr	r3, [r2, #4]
 460 0004 9068     		ldr	r0, [r2, #8]
 461 0006 181A     		subs	r0, r3, r0
 462 0008 4342     		rsbs	r3, r0, #0
 463 000a 5841     		adcs	r0, r0, r3
 464 000c C0B2     		uxtb	r0, r0
 465              		.loc 1 142 0
 466 000e 7047     		bx	lr
ARM GAS  C:\Users\AFDHAL~1\AppData\Local\Temp\ccFRx9SZ.s 			page 12


 467              	.L31:
 468              		.align	2
 469              	.L30:
 470 0010 00000000 		.word	cbuf
 471              		.cfi_endproc
 472              	.LFE43:
 473              		.size	ring_buffer_isEmpty, .-ring_buffer_isEmpty
 474              		.section	.text.ring_buffer_isFull,"ax",%progbits
 475              		.align	1
 476              		.global	ring_buffer_isFull
 477              		.code	16
 478              		.thumb_func
 479              		.type	ring_buffer_isFull, %function
 480              	ring_buffer_isFull:
 481              	.LFB44:
 143:ring_buffer.c **** 
 144:ring_buffer.c **** bool ring_buffer_isFull()
 145:ring_buffer.c **** {
 482              		.loc 1 145 0
 483              		.cfi_startproc
 484              		@ args = 0, pretend = 0, frame = 0
 485              		@ frame_needed = 0, uses_anonymous_args = 0
 486              	.LVL41:
 487 0000 10B5     		push	{r4, lr}
 488              		.cfi_def_cfa_offset 8
 489              		.cfi_offset 4, -8
 490              		.cfi_offset 14, -4
 491 0002 064C     		ldr	r4, .L33
 146:ring_buffer.c ****     return circular_buf_full(cbuf);
 147:ring_buffer.c **** }
 492              		.loc 1 147 0
 493              		@ sp needed
 146:ring_buffer.c ****     return circular_buf_full(cbuf);
 494              		.loc 1 146 0
 495 0004 6368     		ldr	r3, [r4, #4]
 496 0006 E168     		ldr	r1, [r4, #12]
 497 0008 581C     		adds	r0, r3, #1
 498 000a FFF7FEFF 		bl	__aeabi_uidivmod
 499              	.LVL42:
 500 000e A068     		ldr	r0, [r4, #8]
 501 0010 081A     		subs	r0, r1, r0
 502 0012 4342     		rsbs	r3, r0, #0
 503 0014 4341     		adcs	r3, r3, r0
 504 0016 D8B2     		uxtb	r0, r3
 505              		.loc 1 147 0
 506 0018 10BD     		pop	{r4, pc}
 507              	.L34:
 508 001a C046     		.align	2
 509              	.L33:
 510 001c 00000000 		.word	cbuf
 511              		.cfi_endproc
 512              	.LFE44:
 513              		.size	ring_buffer_isFull, .-ring_buffer_isFull
 514              		.section	.text.ring_buffer_available,"ax",%progbits
 515              		.align	1
 516              		.global	ring_buffer_available
 517              		.code	16
ARM GAS  C:\Users\AFDHAL~1\AppData\Local\Temp\ccFRx9SZ.s 			page 13


 518              		.thumb_func
 519              		.type	ring_buffer_available, %function
 520              	ring_buffer_available:
 521              	.LFB45:
 148:ring_buffer.c **** 
 149:ring_buffer.c **** uint16_t ring_buffer_available()
 150:ring_buffer.c **** {
 522              		.loc 1 150 0
 523              		.cfi_startproc
 524              		@ args = 0, pretend = 0, frame = 0
 525              		@ frame_needed = 0, uses_anonymous_args = 0
 526 0000 10B5     		push	{r4, lr}
 527              		.cfi_def_cfa_offset 8
 528              		.cfi_offset 4, -8
 529              		.cfi_offset 14, -4
 151:ring_buffer.c ****     return circular_buf_available(cbuf);
 530              		.loc 1 151 0
 531 0002 044B     		ldr	r3, .L36
 152:ring_buffer.c **** }
 532              		.loc 1 152 0
 533              		@ sp needed
 151:ring_buffer.c ****     return circular_buf_available(cbuf);
 534              		.loc 1 151 0
 535 0004 1868     		ldr	r0, [r3]
 536 0006 5968     		ldr	r1, [r3, #4]
 537 0008 9A68     		ldr	r2, [r3, #8]
 538 000a DB68     		ldr	r3, [r3, #12]
 539 000c FFF7FEFF 		bl	circular_buf_available
 540              	.LVL43:
 541              		.loc 1 152 0
 542 0010 10BD     		pop	{r4, pc}
 543              	.L37:
 544 0012 C046     		.align	2
 545              	.L36:
 546 0014 00000000 		.word	cbuf
 547              		.cfi_endproc
 548              	.LFE45:
 549              		.size	ring_buffer_available, .-ring_buffer_available
 550              		.section	.text.ring_buffer_flush,"ax",%progbits
 551              		.align	1
 552              		.global	ring_buffer_flush
 553              		.code	16
 554              		.thumb_func
 555              		.type	ring_buffer_flush, %function
 556              	ring_buffer_flush:
 557              	.LFB46:
 153:ring_buffer.c **** 
 154:ring_buffer.c **** void ring_buffer_flush()
 155:ring_buffer.c **** {
 558              		.loc 1 155 0
 559              		.cfi_startproc
 560              		@ args = 0, pretend = 0, frame = 0
 561              		@ frame_needed = 0, uses_anonymous_args = 0
 562              		@ link register save eliminated.
 563              	.LVL44:
 564              	.LBB16:
 565              	.LBB17:
ARM GAS  C:\Users\AFDHAL~1\AppData\Local\Temp\ccFRx9SZ.s 			page 14


  45:ring_buffer.c ****         cbuf->tail = 0;
 566              		.loc 1 45 0
 567 0000 0022     		movs	r2, #0
 568 0002 024B     		ldr	r3, .L39
 569              	.LBE17:
 570              	.LBE16:
 156:ring_buffer.c ****     circular_buf_reset(&cbuf);
 157:ring_buffer.c **** }
 571              		.loc 1 157 0
 572              		@ sp needed
 573              	.LBB19:
 574              	.LBB18:
  45:ring_buffer.c ****         cbuf->tail = 0;
 575              		.loc 1 45 0
 576 0004 5A60     		str	r2, [r3, #4]
  46:ring_buffer.c ****         r = 0;
 577              		.loc 1 46 0
 578 0006 9A60     		str	r2, [r3, #8]
 579              	.LVL45:
 580              	.LBE18:
 581              	.LBE19:
 582              		.loc 1 157 0
 583 0008 7047     		bx	lr
 584              	.L40:
 585 000a C046     		.align	2
 586              	.L39:
 587 000c 00000000 		.word	cbuf
 588              		.cfi_endproc
 589              	.LFE46:
 590              		.size	ring_buffer_flush, .-ring_buffer_flush
 591              		.comm	cbuf,16,4
 592              		.text
 593              	.Letext0:
 594              		.file 2 "c:\\program files (x86)\\cypress\\psoc creator\\4.1\\psoc creator\\import\\gnu\\arm\\5.4.
 595              		.file 3 "c:\\program files (x86)\\cypress\\psoc creator\\4.1\\psoc creator\\import\\gnu\\arm\\5.4.
 596              		.file 4 "c:\\program files (x86)\\cypress\\psoc creator\\4.1\\psoc creator\\import\\gnu\\arm\\5.4.
 597              		.file 5 "Generated_Source\\PSoC4/nRF24_DEFS.h"
 598              		.file 6 "c:\\program files (x86)\\cypress\\psoc creator\\4.1\\psoc creator\\import\\gnu\\arm\\5.4.