ARM GAS  C:\Users\AFDHAL~1\AppData\Local\Temp\ccj9i739.s 			page 1


   1              		.syntax unified
   2              		.cpu cortex-m0
   3              		.fpu softvfp
   4              		.eabi_attribute 20, 1
   5              		.eabi_attribute 21, 1
   6              		.eabi_attribute 23, 3
   7              		.eabi_attribute 24, 1
   8              		.eabi_attribute 25, 1
   9              		.eabi_attribute 26, 1
  10              		.eabi_attribute 30, 4
  11              		.eabi_attribute 34, 0
  12              		.eabi_attribute 18, 4
  13              		.thumb
  14              		.syntax unified
  15              		.file	"UART_SPI_UART_INT.c"
  16              		.text
  17              	.Ltext0:
  18              		.cfi_sections	.debug_frame
  19              		.section	.text.UART_SPI_UART_ISR,"ax",%progbits
  20              		.align	1
  21              		.global	UART_SPI_UART_ISR
  22              		.code	16
  23              		.thumb_func
  24              		.type	UART_SPI_UART_ISR, %function
  25              	UART_SPI_UART_ISR:
  26              	.LFB1:
  27              		.file 1 "Generated_Source\\PSoC4\\UART_SPI_UART_INT.c"
   1:Generated_Source\PSoC4/UART_SPI_UART_INT.c **** /***************************************************************************//**
   2:Generated_Source\PSoC4/UART_SPI_UART_INT.c **** * \file UART_SPI_UART_INT.c
   3:Generated_Source\PSoC4/UART_SPI_UART_INT.c **** * \version 4.0
   4:Generated_Source\PSoC4/UART_SPI_UART_INT.c **** *
   5:Generated_Source\PSoC4/UART_SPI_UART_INT.c **** * \brief
   6:Generated_Source\PSoC4/UART_SPI_UART_INT.c **** *  This file provides the source code to the Interrupt Service Routine for
   7:Generated_Source\PSoC4/UART_SPI_UART_INT.c **** *  the SCB Component in SPI and UART modes.
   8:Generated_Source\PSoC4/UART_SPI_UART_INT.c **** *
   9:Generated_Source\PSoC4/UART_SPI_UART_INT.c **** * Note:
  10:Generated_Source\PSoC4/UART_SPI_UART_INT.c **** *
  11:Generated_Source\PSoC4/UART_SPI_UART_INT.c **** ********************************************************************************
  12:Generated_Source\PSoC4/UART_SPI_UART_INT.c **** * \copyright
  13:Generated_Source\PSoC4/UART_SPI_UART_INT.c **** * Copyright 2013-2017, Cypress Semiconductor Corporation.  All rights reserved.
  14:Generated_Source\PSoC4/UART_SPI_UART_INT.c **** * You may use this file only in accordance with the license, terms, conditions,
  15:Generated_Source\PSoC4/UART_SPI_UART_INT.c **** * disclaimers, and limitations in the end user license agreement accompanying
  16:Generated_Source\PSoC4/UART_SPI_UART_INT.c **** * the software package with which this file was provided.
  17:Generated_Source\PSoC4/UART_SPI_UART_INT.c **** *******************************************************************************/
  18:Generated_Source\PSoC4/UART_SPI_UART_INT.c **** 
  19:Generated_Source\PSoC4/UART_SPI_UART_INT.c **** #include "UART_PVT.h"
  20:Generated_Source\PSoC4/UART_SPI_UART_INT.c **** #include "UART_SPI_UART_PVT.h"
  21:Generated_Source\PSoC4/UART_SPI_UART_INT.c **** #include "cyapicallbacks.h"
  22:Generated_Source\PSoC4/UART_SPI_UART_INT.c **** 
  23:Generated_Source\PSoC4/UART_SPI_UART_INT.c **** #if (UART_SCB_IRQ_INTERNAL)
  24:Generated_Source\PSoC4/UART_SPI_UART_INT.c **** /*******************************************************************************
  25:Generated_Source\PSoC4/UART_SPI_UART_INT.c **** * Function Name: UART_SPI_UART_ISR
  26:Generated_Source\PSoC4/UART_SPI_UART_INT.c **** ****************************************************************************//**
  27:Generated_Source\PSoC4/UART_SPI_UART_INT.c **** *
  28:Generated_Source\PSoC4/UART_SPI_UART_INT.c **** *  Handles the Interrupt Service Routine for the SCB SPI or UART modes.
  29:Generated_Source\PSoC4/UART_SPI_UART_INT.c **** *
  30:Generated_Source\PSoC4/UART_SPI_UART_INT.c **** *******************************************************************************/
ARM GAS  C:\Users\AFDHAL~1\AppData\Local\Temp\ccj9i739.s 			page 2


  31:Generated_Source\PSoC4/UART_SPI_UART_INT.c **** CY_ISR(UART_SPI_UART_ISR)
  32:Generated_Source\PSoC4/UART_SPI_UART_INT.c **** {
  28              		.loc 1 32 0
  29              		.cfi_startproc
  30              		@ args = 0, pretend = 0, frame = 0
  31              		@ frame_needed = 0, uses_anonymous_args = 0
  33:Generated_Source\PSoC4/UART_SPI_UART_INT.c **** #if (UART_INTERNAL_RX_SW_BUFFER_CONST)
  34:Generated_Source\PSoC4/UART_SPI_UART_INT.c ****     uint32 locHead;
  35:Generated_Source\PSoC4/UART_SPI_UART_INT.c **** #endif /* (UART_INTERNAL_RX_SW_BUFFER_CONST) */
  36:Generated_Source\PSoC4/UART_SPI_UART_INT.c **** 
  37:Generated_Source\PSoC4/UART_SPI_UART_INT.c **** #if (UART_INTERNAL_TX_SW_BUFFER_CONST)
  38:Generated_Source\PSoC4/UART_SPI_UART_INT.c ****     uint32 locTail;
  39:Generated_Source\PSoC4/UART_SPI_UART_INT.c **** #endif /* (UART_INTERNAL_TX_SW_BUFFER_CONST) */
  40:Generated_Source\PSoC4/UART_SPI_UART_INT.c **** 
  41:Generated_Source\PSoC4/UART_SPI_UART_INT.c **** #ifdef UART_SPI_UART_ISR_ENTRY_CALLBACK
  42:Generated_Source\PSoC4/UART_SPI_UART_INT.c ****     UART_SPI_UART_ISR_EntryCallback();
  43:Generated_Source\PSoC4/UART_SPI_UART_INT.c **** #endif /* UART_SPI_UART_ISR_ENTRY_CALLBACK */
  44:Generated_Source\PSoC4/UART_SPI_UART_INT.c **** 
  45:Generated_Source\PSoC4/UART_SPI_UART_INT.c ****     if (NULL != UART_customIntrHandler)
  32              		.loc 1 45 0
  33 0000 274B     		ldr	r3, .L27
  32:Generated_Source\PSoC4/UART_SPI_UART_INT.c **** #if (UART_INTERNAL_RX_SW_BUFFER_CONST)
  34              		.loc 1 32 0
  35 0002 70B5     		push	{r4, r5, r6, lr}
  36              		.cfi_def_cfa_offset 16
  37              		.cfi_offset 4, -16
  38              		.cfi_offset 5, -12
  39              		.cfi_offset 6, -8
  40              		.cfi_offset 14, -4
  41              		.loc 1 45 0
  42 0004 1B68     		ldr	r3, [r3]
  43 0006 002B     		cmp	r3, #0
  44 0008 00D0     		beq	.L2
  46:Generated_Source\PSoC4/UART_SPI_UART_INT.c ****     {
  47:Generated_Source\PSoC4/UART_SPI_UART_INT.c ****         UART_customIntrHandler();
  45              		.loc 1 47 0
  46 000a 9847     		blx	r3
  47              	.LVL0:
  48              	.L2:
  48:Generated_Source\PSoC4/UART_SPI_UART_INT.c ****     }
  49:Generated_Source\PSoC4/UART_SPI_UART_INT.c **** 
  50:Generated_Source\PSoC4/UART_SPI_UART_INT.c ****     #if(UART_CHECK_SPI_WAKE_ENABLE)
  51:Generated_Source\PSoC4/UART_SPI_UART_INT.c ****     {
  52:Generated_Source\PSoC4/UART_SPI_UART_INT.c ****         /* Clear SPI wakeup source */
  53:Generated_Source\PSoC4/UART_SPI_UART_INT.c ****         UART_ClearSpiExtClkInterruptSource(UART_INTR_SPI_EC_WAKE_UP);
  54:Generated_Source\PSoC4/UART_SPI_UART_INT.c ****     }
  55:Generated_Source\PSoC4/UART_SPI_UART_INT.c ****     #endif
  56:Generated_Source\PSoC4/UART_SPI_UART_INT.c **** 
  57:Generated_Source\PSoC4/UART_SPI_UART_INT.c ****     #if (UART_CHECK_RX_SW_BUFFER)
  58:Generated_Source\PSoC4/UART_SPI_UART_INT.c ****     {
  59:Generated_Source\PSoC4/UART_SPI_UART_INT.c ****         if (UART_CHECK_INTR_RX_MASKED(UART_INTR_RX_NOT_EMPTY))
  49              		.loc 1 59 0
  50 000c 254B     		ldr	r3, .L27+4
  51 000e 1B68     		ldr	r3, [r3]
  52 0010 5B07     		lsls	r3, r3, #29
  53 0012 1ED5     		bpl	.L3
  60:Generated_Source\PSoC4/UART_SPI_UART_INT.c ****         {
ARM GAS  C:\Users\AFDHAL~1\AppData\Local\Temp\ccj9i739.s 			page 3


  61:Generated_Source\PSoC4/UART_SPI_UART_INT.c ****             do
  62:Generated_Source\PSoC4/UART_SPI_UART_INT.c ****             {
  63:Generated_Source\PSoC4/UART_SPI_UART_INT.c ****                 /* Move local head index */
  64:Generated_Source\PSoC4/UART_SPI_UART_INT.c ****                 locHead = (UART_rxBufferHead + 1u);
  65:Generated_Source\PSoC4/UART_SPI_UART_INT.c **** 
  66:Generated_Source\PSoC4/UART_SPI_UART_INT.c ****                 /* Adjust local head index */
  67:Generated_Source\PSoC4/UART_SPI_UART_INT.c ****                 if (UART_INTERNAL_RX_BUFFER_SIZE == locHead)
  54              		.loc 1 67 0
  55 0014 0224     		movs	r4, #2
  68:Generated_Source\PSoC4/UART_SPI_UART_INT.c ****                 {
  69:Generated_Source\PSoC4/UART_SPI_UART_INT.c ****                     locHead = 0u;
  70:Generated_Source\PSoC4/UART_SPI_UART_INT.c ****                 }
  71:Generated_Source\PSoC4/UART_SPI_UART_INT.c **** 
  72:Generated_Source\PSoC4/UART_SPI_UART_INT.c ****                 if (locHead == UART_rxBufferTail)
  73:Generated_Source\PSoC4/UART_SPI_UART_INT.c ****                 {
  74:Generated_Source\PSoC4/UART_SPI_UART_INT.c ****                     #if (UART_CHECK_UART_RTS_CONTROL_FLOW)
  75:Generated_Source\PSoC4/UART_SPI_UART_INT.c ****                     {
  76:Generated_Source\PSoC4/UART_SPI_UART_INT.c ****                         /* There is no space in the software buffer - disable the
  77:Generated_Source\PSoC4/UART_SPI_UART_INT.c ****                         * RX Not Empty interrupt source. The data elements are
  78:Generated_Source\PSoC4/UART_SPI_UART_INT.c ****                         * still being received into the RX FIFO until the RTS signal
  79:Generated_Source\PSoC4/UART_SPI_UART_INT.c ****                         * stops the transmitter. After the data element is read from the
  80:Generated_Source\PSoC4/UART_SPI_UART_INT.c ****                         * buffer, the RX Not Empty interrupt source is enabled to
  81:Generated_Source\PSoC4/UART_SPI_UART_INT.c ****                         * move the next data element in the software buffer.
  82:Generated_Source\PSoC4/UART_SPI_UART_INT.c ****                         */
  83:Generated_Source\PSoC4/UART_SPI_UART_INT.c ****                         UART_INTR_RX_MASK_REG &= ~UART_INTR_RX_NOT_EMPTY;
  84:Generated_Source\PSoC4/UART_SPI_UART_INT.c ****                         break;
  85:Generated_Source\PSoC4/UART_SPI_UART_INT.c ****                     }
  86:Generated_Source\PSoC4/UART_SPI_UART_INT.c ****                     #else
  87:Generated_Source\PSoC4/UART_SPI_UART_INT.c ****                     {
  88:Generated_Source\PSoC4/UART_SPI_UART_INT.c ****                         /* Overflow: through away received data element */
  89:Generated_Source\PSoC4/UART_SPI_UART_INT.c ****                         (void) UART_RX_FIFO_RD_REG;
  90:Generated_Source\PSoC4/UART_SPI_UART_INT.c ****                         UART_rxBufferOverflow = (uint8) UART_INTR_RX_OVERFLOW;
  56              		.loc 1 90 0
  57 0016 2025     		movs	r5, #32
  91:Generated_Source\PSoC4/UART_SPI_UART_INT.c ****                     }
  92:Generated_Source\PSoC4/UART_SPI_UART_INT.c ****                     #endif
  93:Generated_Source\PSoC4/UART_SPI_UART_INT.c ****                 }
  94:Generated_Source\PSoC4/UART_SPI_UART_INT.c ****                 else
  95:Generated_Source\PSoC4/UART_SPI_UART_INT.c ****                 {
  96:Generated_Source\PSoC4/UART_SPI_UART_INT.c ****                     /* Store received data */
  97:Generated_Source\PSoC4/UART_SPI_UART_INT.c ****                     UART_PutWordInRxBuffer(locHead, UART_RX_FIFO_RD_REG);
  98:Generated_Source\PSoC4/UART_SPI_UART_INT.c **** 
  99:Generated_Source\PSoC4/UART_SPI_UART_INT.c ****                     /* Move head index */
 100:Generated_Source\PSoC4/UART_SPI_UART_INT.c ****                     UART_rxBufferHead = locHead;
 101:Generated_Source\PSoC4/UART_SPI_UART_INT.c ****                 }
 102:Generated_Source\PSoC4/UART_SPI_UART_INT.c ****             }
 103:Generated_Source\PSoC4/UART_SPI_UART_INT.c ****             while(0u != UART_GET_RX_FIFO_ENTRIES);
  58              		.loc 1 103 0
  59 0018 1F20     		movs	r0, #31
  64:Generated_Source\PSoC4/UART_SPI_UART_INT.c **** 
  60              		.loc 1 64 0
  61 001a 2349     		ldr	r1, .L27+8
  67:Generated_Source\PSoC4/UART_SPI_UART_INT.c ****                 {
  62              		.loc 1 67 0
  63 001c FF34     		adds	r4, r4, #255
  64              	.L20:
  64:Generated_Source\PSoC4/UART_SPI_UART_INT.c **** 
ARM GAS  C:\Users\AFDHAL~1\AppData\Local\Temp\ccj9i739.s 			page 4


  65              		.loc 1 64 0
  66 001e 0B68     		ldr	r3, [r1]
  67 0020 0133     		adds	r3, r3, #1
  68              	.LVL1:
  67:Generated_Source\PSoC4/UART_SPI_UART_INT.c ****                 {
  69              		.loc 1 67 0
  70 0022 A342     		cmp	r3, r4
  71 0024 00D1     		bne	.L4
  69:Generated_Source\PSoC4/UART_SPI_UART_INT.c ****                 }
  72              		.loc 1 69 0
  73 0026 0023     		movs	r3, #0
  74              	.LVL2:
  75              	.L4:
  72:Generated_Source\PSoC4/UART_SPI_UART_INT.c ****                 {
  76              		.loc 1 72 0
  77 0028 204A     		ldr	r2, .L27+12
  78 002a 1668     		ldr	r6, [r2]
  79 002c 204A     		ldr	r2, .L27+16
  80 002e B342     		cmp	r3, r6
  81 0030 03D1     		bne	.L5
  89:Generated_Source\PSoC4/UART_SPI_UART_INT.c ****                         UART_rxBufferOverflow = (uint8) UART_INTR_RX_OVERFLOW;
  82              		.loc 1 89 0
  83 0032 1368     		ldr	r3, [r2]
  84              	.LVL3:
  90:Generated_Source\PSoC4/UART_SPI_UART_INT.c ****                     }
  85              		.loc 1 90 0
  86 0034 1F4B     		ldr	r3, .L27+20
  87 0036 1D70     		strb	r5, [r3]
  88 0038 04E0     		b	.L6
  89              	.LVL4:
  90              	.L5:
  97:Generated_Source\PSoC4/UART_SPI_UART_INT.c **** 
  91              		.loc 1 97 0
  92 003a 1268     		ldr	r2, [r2]
  93 003c 1E4E     		ldr	r6, .L27+24
  94 003e D2B2     		uxtb	r2, r2
  95 0040 F254     		strb	r2, [r6, r3]
 100:Generated_Source\PSoC4/UART_SPI_UART_INT.c ****                 }
  96              		.loc 1 100 0
  97 0042 0B60     		str	r3, [r1]
  98              	.LVL5:
  99              	.L6:
 100              		.loc 1 103 0
 101 0044 1D4B     		ldr	r3, .L27+28
 102 0046 1B68     		ldr	r3, [r3]
 103 0048 0342     		tst	r3, r0
 104 004a E8D1     		bne	.L20
 104:Generated_Source\PSoC4/UART_SPI_UART_INT.c **** 
 105:Generated_Source\PSoC4/UART_SPI_UART_INT.c ****             UART_ClearRxInterruptSource(UART_INTR_RX_NOT_EMPTY);
 105              		.loc 1 105 0
 106 004c 0422     		movs	r2, #4
 107 004e 1C4B     		ldr	r3, .L27+32
 108 0050 1A60     		str	r2, [r3]
 109              	.L3:
 106:Generated_Source\PSoC4/UART_SPI_UART_INT.c ****         }
 107:Generated_Source\PSoC4/UART_SPI_UART_INT.c ****     }
 108:Generated_Source\PSoC4/UART_SPI_UART_INT.c ****     #endif
ARM GAS  C:\Users\AFDHAL~1\AppData\Local\Temp\ccj9i739.s 			page 5


 109:Generated_Source\PSoC4/UART_SPI_UART_INT.c **** 
 110:Generated_Source\PSoC4/UART_SPI_UART_INT.c **** 
 111:Generated_Source\PSoC4/UART_SPI_UART_INT.c ****     #if (UART_CHECK_TX_SW_BUFFER)
 112:Generated_Source\PSoC4/UART_SPI_UART_INT.c ****     {
 113:Generated_Source\PSoC4/UART_SPI_UART_INT.c ****         if (UART_CHECK_INTR_TX_MASKED(UART_INTR_TX_NOT_FULL))
 110              		.loc 1 113 0
 111 0052 1C4B     		ldr	r3, .L27+36
 112 0054 1B68     		ldr	r3, [r3]
 113 0056 9B07     		lsls	r3, r3, #30
 114 0058 21D5     		bpl	.L1
 114:Generated_Source\PSoC4/UART_SPI_UART_INT.c ****         {
 115:Generated_Source\PSoC4/UART_SPI_UART_INT.c ****             do
 116:Generated_Source\PSoC4/UART_SPI_UART_INT.c ****             {
 117:Generated_Source\PSoC4/UART_SPI_UART_INT.c ****                 /* Check for room in TX software buffer */
 118:Generated_Source\PSoC4/UART_SPI_UART_INT.c ****                 if (UART_txBufferHead != UART_txBufferTail)
 119:Generated_Source\PSoC4/UART_SPI_UART_INT.c ****                 {
 120:Generated_Source\PSoC4/UART_SPI_UART_INT.c ****                     /* Move local tail index */
 121:Generated_Source\PSoC4/UART_SPI_UART_INT.c ****                     locTail = (UART_txBufferTail + 1u);
 122:Generated_Source\PSoC4/UART_SPI_UART_INT.c **** 
 123:Generated_Source\PSoC4/UART_SPI_UART_INT.c ****                     /* Adjust local tail index */
 124:Generated_Source\PSoC4/UART_SPI_UART_INT.c ****                     if (UART_TX_BUFFER_SIZE == locTail)
 115              		.loc 1 124 0
 116 005a 8025     		movs	r5, #128
 125:Generated_Source\PSoC4/UART_SPI_UART_INT.c ****                     {
 126:Generated_Source\PSoC4/UART_SPI_UART_INT.c ****                         locTail = 0u;
 127:Generated_Source\PSoC4/UART_SPI_UART_INT.c ****                     }
 128:Generated_Source\PSoC4/UART_SPI_UART_INT.c **** 
 129:Generated_Source\PSoC4/UART_SPI_UART_INT.c ****                     /* Put data into TX FIFO */
 130:Generated_Source\PSoC4/UART_SPI_UART_INT.c ****                     UART_TX_FIFO_WR_REG = UART_GetWordFromTxBuffer(locTail);
 131:Generated_Source\PSoC4/UART_SPI_UART_INT.c **** 
 132:Generated_Source\PSoC4/UART_SPI_UART_INT.c ****                     /* Move tail index */
 133:Generated_Source\PSoC4/UART_SPI_UART_INT.c ****                     UART_txBufferTail = locTail;
 134:Generated_Source\PSoC4/UART_SPI_UART_INT.c ****                 }
 135:Generated_Source\PSoC4/UART_SPI_UART_INT.c ****                 else
 136:Generated_Source\PSoC4/UART_SPI_UART_INT.c ****                 {
 137:Generated_Source\PSoC4/UART_SPI_UART_INT.c ****                     /* TX software buffer is empty: complete transfer */
 138:Generated_Source\PSoC4/UART_SPI_UART_INT.c ****                     UART_DISABLE_INTR_TX(UART_INTR_TX_NOT_FULL);
 139:Generated_Source\PSoC4/UART_SPI_UART_INT.c ****                     break;
 140:Generated_Source\PSoC4/UART_SPI_UART_INT.c ****                 }
 141:Generated_Source\PSoC4/UART_SPI_UART_INT.c ****             }
 142:Generated_Source\PSoC4/UART_SPI_UART_INT.c ****             while (UART_SPI_UART_FIFO_SIZE != UART_GET_TX_FIFO_ENTRIES);
 117              		.loc 1 142 0
 118 005c 1F20     		movs	r0, #31
 118:Generated_Source\PSoC4/UART_SPI_UART_INT.c ****                 {
 119              		.loc 1 118 0
 120 005e 1A4C     		ldr	r4, .L27+40
 121 0060 1A4A     		ldr	r2, .L27+44
 124:Generated_Source\PSoC4/UART_SPI_UART_INT.c ****                     {
 122              		.loc 1 124 0
 123 0062 6D00     		lsls	r5, r5, #1
 124              	.L19:
 118:Generated_Source\PSoC4/UART_SPI_UART_INT.c ****                 {
 125              		.loc 1 118 0
 126 0064 2168     		ldr	r1, [r4]
 127 0066 1368     		ldr	r3, [r2]
 128 0068 9942     		cmp	r1, r3
 129 006a 10D0     		beq	.L9
ARM GAS  C:\Users\AFDHAL~1\AppData\Local\Temp\ccj9i739.s 			page 6


 121:Generated_Source\PSoC4/UART_SPI_UART_INT.c **** 
 130              		.loc 1 121 0
 131 006c 1368     		ldr	r3, [r2]
 132 006e 0133     		adds	r3, r3, #1
 133              	.LVL6:
 124:Generated_Source\PSoC4/UART_SPI_UART_INT.c ****                     {
 134              		.loc 1 124 0
 135 0070 AB42     		cmp	r3, r5
 136 0072 00D1     		bne	.L10
 126:Generated_Source\PSoC4/UART_SPI_UART_INT.c ****                     }
 137              		.loc 1 126 0
 138 0074 0023     		movs	r3, #0
 139              	.LVL7:
 140              	.L10:
 130:Generated_Source\PSoC4/UART_SPI_UART_INT.c **** 
 141              		.loc 1 130 0
 142 0076 1649     		ldr	r1, .L27+48
 143 0078 164E     		ldr	r6, .L27+52
 144 007a C95C     		ldrb	r1, [r1, r3]
 145 007c C9B2     		uxtb	r1, r1
 146 007e 3160     		str	r1, [r6]
 133:Generated_Source\PSoC4/UART_SPI_UART_INT.c ****                 }
 147              		.loc 1 133 0
 148 0080 1360     		str	r3, [r2]
 149              		.loc 1 142 0
 150 0082 154B     		ldr	r3, .L27+56
 151              	.LVL8:
 152 0084 1B68     		ldr	r3, [r3]
 153 0086 0340     		ands	r3, r0
 154 0088 082B     		cmp	r3, #8
 155 008a EBD1     		bne	.L19
 156 008c 04E0     		b	.L12
 157              	.LVL9:
 158              	.L9:
 138:Generated_Source\PSoC4/UART_SPI_UART_INT.c ****                     break;
 159              		.loc 1 138 0
 160 008e 0221     		movs	r1, #2
 161 0090 124A     		ldr	r2, .L27+60
 162 0092 1368     		ldr	r3, [r2]
 163 0094 8B43     		bics	r3, r1
 164 0096 1360     		str	r3, [r2]
 165              	.L12:
 143:Generated_Source\PSoC4/UART_SPI_UART_INT.c **** 
 144:Generated_Source\PSoC4/UART_SPI_UART_INT.c ****             UART_ClearTxInterruptSource(UART_INTR_TX_NOT_FULL);
 166              		.loc 1 144 0
 167 0098 0222     		movs	r2, #2
 168 009a 114B     		ldr	r3, .L27+64
 169 009c 1A60     		str	r2, [r3]
 170              	.L1:
 145:Generated_Source\PSoC4/UART_SPI_UART_INT.c ****         }
 146:Generated_Source\PSoC4/UART_SPI_UART_INT.c ****     }
 147:Generated_Source\PSoC4/UART_SPI_UART_INT.c ****     #endif
 148:Generated_Source\PSoC4/UART_SPI_UART_INT.c **** 
 149:Generated_Source\PSoC4/UART_SPI_UART_INT.c **** #ifdef UART_SPI_UART_ISR_EXIT_CALLBACK
 150:Generated_Source\PSoC4/UART_SPI_UART_INT.c ****     UART_SPI_UART_ISR_ExitCallback();
 151:Generated_Source\PSoC4/UART_SPI_UART_INT.c **** #endif /* UART_SPI_UART_ISR_EXIT_CALLBACK */
 152:Generated_Source\PSoC4/UART_SPI_UART_INT.c **** 
ARM GAS  C:\Users\AFDHAL~1\AppData\Local\Temp\ccj9i739.s 			page 7


 153:Generated_Source\PSoC4/UART_SPI_UART_INT.c **** }
 171              		.loc 1 153 0
 172              		@ sp needed
 173 009e 70BD     		pop	{r4, r5, r6, pc}
 174              	.L28:
 175              		.align	2
 176              	.L27:
 177 00a0 00000000 		.word	UART_customIntrHandler
 178 00a4 CC0F2540 		.word	1076170700
 179 00a8 00000000 		.word	UART_rxBufferHead
 180 00ac 00000000 		.word	UART_rxBufferTail
 181 00b0 40032540 		.word	1076167488
 182 00b4 00000000 		.word	UART_rxBufferOverflow
 183 00b8 00000000 		.word	UART_rxBufferInternal
 184 00bc 08032540 		.word	1076167432
 185 00c0 C00F2540 		.word	1076170688
 186 00c4 8C0F2540 		.word	1076170636
 187 00c8 00000000 		.word	UART_txBufferHead
 188 00cc 00000000 		.word	UART_txBufferTail
 189 00d0 00000000 		.word	UART_txBufferInternal
 190 00d4 40022540 		.word	1076167232
 191 00d8 08022540 		.word	1076167176
 192 00dc 880F2540 		.word	1076170632
 193 00e0 800F2540 		.word	1076170624
 194              		.cfi_endproc
 195              	.LFE1:
 196              		.size	UART_SPI_UART_ISR, .-UART_SPI_UART_ISR
 197              		.text
 198              	.Letext0:
 199              		.file 2 "Generated_Source\\PSoC4/cytypes.h"
 200              		.file 3 "Generated_Source\\PSoC4\\UART_PVT.h"
 201              		.file 4 "Generated_Source\\PSoC4\\UART_SPI_UART_PVT.h"