ARM GAS  C:\Users\AFDHAL~1\AppData\Local\Temp\ccWI4vUi.s 			page 1


   1              		.syntax unified
   2              		.cpu cortex-m0
   3              		.fpu softvfp
   4              		.eabi_attribute 20, 1
   5              		.eabi_attribute 21, 1
   6              		.eabi_attribute 23, 3
   7              		.eabi_attribute 24, 1
   8              		.eabi_attribute 25, 1
   9              		.eabi_attribute 26, 1
  10              		.eabi_attribute 30, 4
  11              		.eabi_attribute 34, 0
  12              		.eabi_attribute 18, 4
  13              		.thumb
  14              		.syntax unified
  15              		.file	"USB_UART_UART.c"
  16              		.text
  17              	.Ltext0:
  18              		.cfi_sections	.debug_frame
  19              		.section	.text.USB_UART_UartInit,"ax",%progbits
  20              		.align	1
  21              		.global	USB_UART_UartInit
  22              		.code	16
  23              		.thumb_func
  24              		.type	USB_UART_UartInit, %function
  25              	USB_UART_UartInit:
  26              	.LFB1:
  27              		.file 1 "Generated_Source\\PSoC4\\USB_UART_UART.c"
   1:Generated_Source\PSoC4/USB_UART_UART.c **** /***************************************************************************//**
   2:Generated_Source\PSoC4/USB_UART_UART.c **** * \file USB_UART_UART.c
   3:Generated_Source\PSoC4/USB_UART_UART.c **** * \version 4.0
   4:Generated_Source\PSoC4/USB_UART_UART.c **** *
   5:Generated_Source\PSoC4/USB_UART_UART.c **** * \brief
   6:Generated_Source\PSoC4/USB_UART_UART.c **** *  This file provides the source code to the API for the SCB Component in
   7:Generated_Source\PSoC4/USB_UART_UART.c **** *  UART mode.
   8:Generated_Source\PSoC4/USB_UART_UART.c **** *
   9:Generated_Source\PSoC4/USB_UART_UART.c **** * Note:
  10:Generated_Source\PSoC4/USB_UART_UART.c **** *
  11:Generated_Source\PSoC4/USB_UART_UART.c **** *******************************************************************************
  12:Generated_Source\PSoC4/USB_UART_UART.c **** * \copyright
  13:Generated_Source\PSoC4/USB_UART_UART.c **** * Copyright 2013-2017, Cypress Semiconductor Corporation.  All rights reserved.
  14:Generated_Source\PSoC4/USB_UART_UART.c **** * You may use this file only in accordance with the license, terms, conditions,
  15:Generated_Source\PSoC4/USB_UART_UART.c **** * disclaimers, and limitations in the end user license agreement accompanying
  16:Generated_Source\PSoC4/USB_UART_UART.c **** * the software package with which this file was provided.
  17:Generated_Source\PSoC4/USB_UART_UART.c **** *******************************************************************************/
  18:Generated_Source\PSoC4/USB_UART_UART.c **** 
  19:Generated_Source\PSoC4/USB_UART_UART.c **** #include "USB_UART_PVT.h"
  20:Generated_Source\PSoC4/USB_UART_UART.c **** #include "USB_UART_SPI_UART_PVT.h"
  21:Generated_Source\PSoC4/USB_UART_UART.c **** #include "cyapicallbacks.h"
  22:Generated_Source\PSoC4/USB_UART_UART.c **** 
  23:Generated_Source\PSoC4/USB_UART_UART.c **** #if (USB_UART_UART_WAKE_ENABLE_CONST && USB_UART_UART_RX_WAKEUP_IRQ)
  24:Generated_Source\PSoC4/USB_UART_UART.c ****     /**
  25:Generated_Source\PSoC4/USB_UART_UART.c ****     * \addtogroup group_globals
  26:Generated_Source\PSoC4/USB_UART_UART.c ****     * \{
  27:Generated_Source\PSoC4/USB_UART_UART.c ****     */
  28:Generated_Source\PSoC4/USB_UART_UART.c ****     /** This global variable determines whether to enable Skip Start
  29:Generated_Source\PSoC4/USB_UART_UART.c ****     * functionality when USB_UART_Sleep() function is called:
  30:Generated_Source\PSoC4/USB_UART_UART.c ****     * 0 – disable, other values – enable. Default value is 1.
ARM GAS  C:\Users\AFDHAL~1\AppData\Local\Temp\ccWI4vUi.s 			page 2


  31:Generated_Source\PSoC4/USB_UART_UART.c ****     * It is only available when Enable wakeup from Deep Sleep Mode is enabled.
  32:Generated_Source\PSoC4/USB_UART_UART.c ****     */
  33:Generated_Source\PSoC4/USB_UART_UART.c ****     uint8 USB_UART_skipStart = 1u;
  34:Generated_Source\PSoC4/USB_UART_UART.c ****     /** \} globals */
  35:Generated_Source\PSoC4/USB_UART_UART.c **** #endif /* (USB_UART_UART_WAKE_ENABLE_CONST && USB_UART_UART_RX_WAKEUP_IRQ) */
  36:Generated_Source\PSoC4/USB_UART_UART.c **** 
  37:Generated_Source\PSoC4/USB_UART_UART.c **** #if(USB_UART_SCB_MODE_UNCONFIG_CONST_CFG)
  38:Generated_Source\PSoC4/USB_UART_UART.c **** 
  39:Generated_Source\PSoC4/USB_UART_UART.c ****     /***************************************
  40:Generated_Source\PSoC4/USB_UART_UART.c ****     *  Configuration Structure Initialization
  41:Generated_Source\PSoC4/USB_UART_UART.c ****     ***************************************/
  42:Generated_Source\PSoC4/USB_UART_UART.c **** 
  43:Generated_Source\PSoC4/USB_UART_UART.c ****     const USB_UART_UART_INIT_STRUCT USB_UART_configUart =
  44:Generated_Source\PSoC4/USB_UART_UART.c ****     {
  45:Generated_Source\PSoC4/USB_UART_UART.c ****         USB_UART_UART_SUB_MODE,
  46:Generated_Source\PSoC4/USB_UART_UART.c ****         USB_UART_UART_DIRECTION,
  47:Generated_Source\PSoC4/USB_UART_UART.c ****         USB_UART_UART_DATA_BITS_NUM,
  48:Generated_Source\PSoC4/USB_UART_UART.c ****         USB_UART_UART_PARITY_TYPE,
  49:Generated_Source\PSoC4/USB_UART_UART.c ****         USB_UART_UART_STOP_BITS_NUM,
  50:Generated_Source\PSoC4/USB_UART_UART.c ****         USB_UART_UART_OVS_FACTOR,
  51:Generated_Source\PSoC4/USB_UART_UART.c ****         USB_UART_UART_IRDA_LOW_POWER,
  52:Generated_Source\PSoC4/USB_UART_UART.c ****         USB_UART_UART_MEDIAN_FILTER_ENABLE,
  53:Generated_Source\PSoC4/USB_UART_UART.c ****         USB_UART_UART_RETRY_ON_NACK,
  54:Generated_Source\PSoC4/USB_UART_UART.c ****         USB_UART_UART_IRDA_POLARITY,
  55:Generated_Source\PSoC4/USB_UART_UART.c ****         USB_UART_UART_DROP_ON_PARITY_ERR,
  56:Generated_Source\PSoC4/USB_UART_UART.c ****         USB_UART_UART_DROP_ON_FRAME_ERR,
  57:Generated_Source\PSoC4/USB_UART_UART.c ****         USB_UART_UART_WAKE_ENABLE,
  58:Generated_Source\PSoC4/USB_UART_UART.c ****         0u,
  59:Generated_Source\PSoC4/USB_UART_UART.c ****         NULL,
  60:Generated_Source\PSoC4/USB_UART_UART.c ****         0u,
  61:Generated_Source\PSoC4/USB_UART_UART.c ****         NULL,
  62:Generated_Source\PSoC4/USB_UART_UART.c ****         USB_UART_UART_MP_MODE_ENABLE,
  63:Generated_Source\PSoC4/USB_UART_UART.c ****         USB_UART_UART_MP_ACCEPT_ADDRESS,
  64:Generated_Source\PSoC4/USB_UART_UART.c ****         USB_UART_UART_MP_RX_ADDRESS,
  65:Generated_Source\PSoC4/USB_UART_UART.c ****         USB_UART_UART_MP_RX_ADDRESS_MASK,
  66:Generated_Source\PSoC4/USB_UART_UART.c ****         (uint32) USB_UART_SCB_IRQ_INTERNAL,
  67:Generated_Source\PSoC4/USB_UART_UART.c ****         USB_UART_UART_INTR_RX_MASK,
  68:Generated_Source\PSoC4/USB_UART_UART.c ****         USB_UART_UART_RX_TRIGGER_LEVEL,
  69:Generated_Source\PSoC4/USB_UART_UART.c ****         USB_UART_UART_INTR_TX_MASK,
  70:Generated_Source\PSoC4/USB_UART_UART.c ****         USB_UART_UART_TX_TRIGGER_LEVEL,
  71:Generated_Source\PSoC4/USB_UART_UART.c ****         (uint8) USB_UART_UART_BYTE_MODE_ENABLE,
  72:Generated_Source\PSoC4/USB_UART_UART.c ****         (uint8) USB_UART_UART_CTS_ENABLE,
  73:Generated_Source\PSoC4/USB_UART_UART.c ****         (uint8) USB_UART_UART_CTS_POLARITY,
  74:Generated_Source\PSoC4/USB_UART_UART.c ****         (uint8) USB_UART_UART_RTS_POLARITY,
  75:Generated_Source\PSoC4/USB_UART_UART.c ****         (uint8) USB_UART_UART_RTS_FIFO_LEVEL,
  76:Generated_Source\PSoC4/USB_UART_UART.c ****         (uint8) USB_UART_UART_RX_BREAK_WIDTH
  77:Generated_Source\PSoC4/USB_UART_UART.c ****     };
  78:Generated_Source\PSoC4/USB_UART_UART.c **** 
  79:Generated_Source\PSoC4/USB_UART_UART.c **** 
  80:Generated_Source\PSoC4/USB_UART_UART.c ****     /*******************************************************************************
  81:Generated_Source\PSoC4/USB_UART_UART.c ****     * Function Name: USB_UART_UartInit
  82:Generated_Source\PSoC4/USB_UART_UART.c ****     ****************************************************************************//**
  83:Generated_Source\PSoC4/USB_UART_UART.c ****     *
  84:Generated_Source\PSoC4/USB_UART_UART.c ****     *  Configures the USB_UART for UART operation.
  85:Generated_Source\PSoC4/USB_UART_UART.c ****     *
  86:Generated_Source\PSoC4/USB_UART_UART.c ****     *  This function is intended specifically to be used when the USB_UART
  87:Generated_Source\PSoC4/USB_UART_UART.c ****     *  configuration is set to “Unconfigured USB_UART” in the customizer.
ARM GAS  C:\Users\AFDHAL~1\AppData\Local\Temp\ccWI4vUi.s 			page 3


  88:Generated_Source\PSoC4/USB_UART_UART.c ****     *  After initializing the USB_UART in UART mode using this function,
  89:Generated_Source\PSoC4/USB_UART_UART.c ****     *  the component can be enabled using the USB_UART_Start() or
  90:Generated_Source\PSoC4/USB_UART_UART.c ****     * USB_UART_Enable() function.
  91:Generated_Source\PSoC4/USB_UART_UART.c ****     *  This function uses a pointer to a structure that provides the configuration
  92:Generated_Source\PSoC4/USB_UART_UART.c ****     *  settings. This structure contains the same information that would otherwise
  93:Generated_Source\PSoC4/USB_UART_UART.c ****     *  be provided by the customizer settings.
  94:Generated_Source\PSoC4/USB_UART_UART.c ****     *
  95:Generated_Source\PSoC4/USB_UART_UART.c ****     *  \param config: pointer to a structure that contains the following list of
  96:Generated_Source\PSoC4/USB_UART_UART.c ****     *   fields. These fields match the selections available in the customizer.
  97:Generated_Source\PSoC4/USB_UART_UART.c ****     *   Refer to the customizer for further description of the settings.
  98:Generated_Source\PSoC4/USB_UART_UART.c ****     *
  99:Generated_Source\PSoC4/USB_UART_UART.c ****     *******************************************************************************/
 100:Generated_Source\PSoC4/USB_UART_UART.c ****     void USB_UART_UartInit(const USB_UART_UART_INIT_STRUCT *config)
 101:Generated_Source\PSoC4/USB_UART_UART.c ****     {
 102:Generated_Source\PSoC4/USB_UART_UART.c ****         uint32 pinsConfig;
 103:Generated_Source\PSoC4/USB_UART_UART.c **** 
 104:Generated_Source\PSoC4/USB_UART_UART.c ****         if (NULL == config)
 105:Generated_Source\PSoC4/USB_UART_UART.c ****         {
 106:Generated_Source\PSoC4/USB_UART_UART.c ****             CYASSERT(0u != 0u); /* Halt execution due to bad function parameter */
 107:Generated_Source\PSoC4/USB_UART_UART.c ****         }
 108:Generated_Source\PSoC4/USB_UART_UART.c ****         else
 109:Generated_Source\PSoC4/USB_UART_UART.c ****         {
 110:Generated_Source\PSoC4/USB_UART_UART.c ****             /* Get direction to configure UART pins: TX, RX or TX+RX */
 111:Generated_Source\PSoC4/USB_UART_UART.c ****             pinsConfig  = config->direction;
 112:Generated_Source\PSoC4/USB_UART_UART.c **** 
 113:Generated_Source\PSoC4/USB_UART_UART.c ****         #if !(USB_UART_CY_SCBIP_V0 || USB_UART_CY_SCBIP_V1)
 114:Generated_Source\PSoC4/USB_UART_UART.c ****             /* Add RTS and CTS pins to configure */
 115:Generated_Source\PSoC4/USB_UART_UART.c ****             pinsConfig |= (0u != config->rtsRxFifoLevel) ? (USB_UART_UART_RTS_PIN_ENABLE) : (0u);
 116:Generated_Source\PSoC4/USB_UART_UART.c ****             pinsConfig |= (0u != config->enableCts)      ? (USB_UART_UART_CTS_PIN_ENABLE) : (0u);
 117:Generated_Source\PSoC4/USB_UART_UART.c ****         #endif /* !(USB_UART_CY_SCBIP_V0 || USB_UART_CY_SCBIP_V1) */
 118:Generated_Source\PSoC4/USB_UART_UART.c **** 
 119:Generated_Source\PSoC4/USB_UART_UART.c ****             /* Configure pins */
 120:Generated_Source\PSoC4/USB_UART_UART.c ****             USB_UART_SetPins(USB_UART_SCB_MODE_UART, config->mode, pinsConfig);
 121:Generated_Source\PSoC4/USB_UART_UART.c **** 
 122:Generated_Source\PSoC4/USB_UART_UART.c ****             /* Store internal configuration */
 123:Generated_Source\PSoC4/USB_UART_UART.c ****             USB_UART_scbMode       = (uint8) USB_UART_SCB_MODE_UART;
 124:Generated_Source\PSoC4/USB_UART_UART.c ****             USB_UART_scbEnableWake = (uint8) config->enableWake;
 125:Generated_Source\PSoC4/USB_UART_UART.c ****             USB_UART_scbEnableIntr = (uint8) config->enableInterrupt;
 126:Generated_Source\PSoC4/USB_UART_UART.c **** 
 127:Generated_Source\PSoC4/USB_UART_UART.c ****             /* Set RX direction internal variables */
 128:Generated_Source\PSoC4/USB_UART_UART.c ****             USB_UART_rxBuffer      =         config->rxBuffer;
 129:Generated_Source\PSoC4/USB_UART_UART.c ****             USB_UART_rxDataBits    = (uint8) config->dataBits;
 130:Generated_Source\PSoC4/USB_UART_UART.c ****             USB_UART_rxBufferSize  =         config->rxBufferSize;
 131:Generated_Source\PSoC4/USB_UART_UART.c **** 
 132:Generated_Source\PSoC4/USB_UART_UART.c ****             /* Set TX direction internal variables */
 133:Generated_Source\PSoC4/USB_UART_UART.c ****             USB_UART_txBuffer      =         config->txBuffer;
 134:Generated_Source\PSoC4/USB_UART_UART.c ****             USB_UART_txDataBits    = (uint8) config->dataBits;
 135:Generated_Source\PSoC4/USB_UART_UART.c ****             USB_UART_txBufferSize  =         config->txBufferSize;
 136:Generated_Source\PSoC4/USB_UART_UART.c **** 
 137:Generated_Source\PSoC4/USB_UART_UART.c ****             /* Configure UART interface */
 138:Generated_Source\PSoC4/USB_UART_UART.c ****             if(USB_UART_UART_MODE_IRDA == config->mode)
 139:Generated_Source\PSoC4/USB_UART_UART.c ****             {
 140:Generated_Source\PSoC4/USB_UART_UART.c ****                 /* OVS settings: IrDA */
 141:Generated_Source\PSoC4/USB_UART_UART.c ****                 USB_UART_CTRL_REG  = ((0u != config->enableIrdaLowPower) ?
 142:Generated_Source\PSoC4/USB_UART_UART.c ****                                                 (USB_UART_UART_GET_CTRL_OVS_IRDA_LP(config->oversam
 143:Generated_Source\PSoC4/USB_UART_UART.c ****                                                 (USB_UART_CTRL_OVS_IRDA_OVS16));
 144:Generated_Source\PSoC4/USB_UART_UART.c ****             }
ARM GAS  C:\Users\AFDHAL~1\AppData\Local\Temp\ccWI4vUi.s 			page 4


 145:Generated_Source\PSoC4/USB_UART_UART.c ****             else
 146:Generated_Source\PSoC4/USB_UART_UART.c ****             {
 147:Generated_Source\PSoC4/USB_UART_UART.c ****                 /* OVS settings: UART and SmartCard */
 148:Generated_Source\PSoC4/USB_UART_UART.c ****                 USB_UART_CTRL_REG  = USB_UART_GET_CTRL_OVS(config->oversample);
 149:Generated_Source\PSoC4/USB_UART_UART.c ****             }
 150:Generated_Source\PSoC4/USB_UART_UART.c **** 
 151:Generated_Source\PSoC4/USB_UART_UART.c ****             USB_UART_CTRL_REG     |= USB_UART_GET_CTRL_BYTE_MODE  (config->enableByteMode)      |
 152:Generated_Source\PSoC4/USB_UART_UART.c ****                                              USB_UART_GET_CTRL_ADDR_ACCEPT(config->multiprocAcceptA
 153:Generated_Source\PSoC4/USB_UART_UART.c ****                                              USB_UART_CTRL_UART;
 154:Generated_Source\PSoC4/USB_UART_UART.c **** 
 155:Generated_Source\PSoC4/USB_UART_UART.c ****             /* Configure sub-mode: UART, SmartCard or IrDA */
 156:Generated_Source\PSoC4/USB_UART_UART.c ****             USB_UART_UART_CTRL_REG = USB_UART_GET_UART_CTRL_MODE(config->mode);
 157:Generated_Source\PSoC4/USB_UART_UART.c **** 
 158:Generated_Source\PSoC4/USB_UART_UART.c ****             /* Configure RX direction */
 159:Generated_Source\PSoC4/USB_UART_UART.c ****             USB_UART_UART_RX_CTRL_REG = USB_UART_GET_UART_RX_CTRL_MODE(config->stopBits)           
 160:Generated_Source\PSoC4/USB_UART_UART.c ****                                         USB_UART_GET_UART_RX_CTRL_POLARITY(config->enableInvertedRx
 161:Generated_Source\PSoC4/USB_UART_UART.c ****                                         USB_UART_GET_UART_RX_CTRL_MP_MODE(config->enableMultiproc) 
 162:Generated_Source\PSoC4/USB_UART_UART.c ****                                         USB_UART_GET_UART_RX_CTRL_DROP_ON_PARITY_ERR(config->dropOn
 163:Generated_Source\PSoC4/USB_UART_UART.c ****                                         USB_UART_GET_UART_RX_CTRL_DROP_ON_FRAME_ERR(config->dropOnF
 164:Generated_Source\PSoC4/USB_UART_UART.c ****                                         USB_UART_GET_UART_RX_CTRL_BREAK_WIDTH(config->breakWidth);
 165:Generated_Source\PSoC4/USB_UART_UART.c **** 
 166:Generated_Source\PSoC4/USB_UART_UART.c ****             if(USB_UART_UART_PARITY_NONE != config->parity)
 167:Generated_Source\PSoC4/USB_UART_UART.c ****             {
 168:Generated_Source\PSoC4/USB_UART_UART.c ****                USB_UART_UART_RX_CTRL_REG |= USB_UART_GET_UART_RX_CTRL_PARITY(config->parity) |
 169:Generated_Source\PSoC4/USB_UART_UART.c ****                                                     USB_UART_UART_RX_CTRL_PARITY_ENABLED;
 170:Generated_Source\PSoC4/USB_UART_UART.c ****             }
 171:Generated_Source\PSoC4/USB_UART_UART.c **** 
 172:Generated_Source\PSoC4/USB_UART_UART.c ****             USB_UART_RX_CTRL_REG      = USB_UART_GET_RX_CTRL_DATA_WIDTH(config->dataBits)       |
 173:Generated_Source\PSoC4/USB_UART_UART.c ****                                                 USB_UART_GET_RX_CTRL_MEDIAN(config->enableMedianFil
 174:Generated_Source\PSoC4/USB_UART_UART.c ****                                                 USB_UART_GET_UART_RX_CTRL_ENABLED(config->direction
 175:Generated_Source\PSoC4/USB_UART_UART.c **** 
 176:Generated_Source\PSoC4/USB_UART_UART.c ****             USB_UART_RX_FIFO_CTRL_REG = USB_UART_GET_RX_FIFO_CTRL_TRIGGER_LEVEL(config->rxTriggerLe
 177:Generated_Source\PSoC4/USB_UART_UART.c **** 
 178:Generated_Source\PSoC4/USB_UART_UART.c ****             /* Configure MP address */
 179:Generated_Source\PSoC4/USB_UART_UART.c ****             USB_UART_RX_MATCH_REG     = USB_UART_GET_RX_MATCH_ADDR(config->multiprocAddr) |
 180:Generated_Source\PSoC4/USB_UART_UART.c ****                                                 USB_UART_GET_RX_MATCH_MASK(config->multiprocAddrMas
 181:Generated_Source\PSoC4/USB_UART_UART.c **** 
 182:Generated_Source\PSoC4/USB_UART_UART.c ****             /* Configure RX direction */
 183:Generated_Source\PSoC4/USB_UART_UART.c ****             USB_UART_UART_TX_CTRL_REG = USB_UART_GET_UART_TX_CTRL_MODE(config->stopBits) |
 184:Generated_Source\PSoC4/USB_UART_UART.c ****                                                 USB_UART_GET_UART_TX_CTRL_RETRY_NACK(config->enable
 185:Generated_Source\PSoC4/USB_UART_UART.c **** 
 186:Generated_Source\PSoC4/USB_UART_UART.c ****             if(USB_UART_UART_PARITY_NONE != config->parity)
 187:Generated_Source\PSoC4/USB_UART_UART.c ****             {
 188:Generated_Source\PSoC4/USB_UART_UART.c ****                USB_UART_UART_TX_CTRL_REG |= USB_UART_GET_UART_TX_CTRL_PARITY(config->parity) |
 189:Generated_Source\PSoC4/USB_UART_UART.c ****                                                     USB_UART_UART_TX_CTRL_PARITY_ENABLED;
 190:Generated_Source\PSoC4/USB_UART_UART.c ****             }
 191:Generated_Source\PSoC4/USB_UART_UART.c **** 
 192:Generated_Source\PSoC4/USB_UART_UART.c ****             USB_UART_TX_CTRL_REG      = USB_UART_GET_TX_CTRL_DATA_WIDTH(config->dataBits)    |
 193:Generated_Source\PSoC4/USB_UART_UART.c ****                                                 USB_UART_GET_UART_TX_CTRL_ENABLED(config->direction
 194:Generated_Source\PSoC4/USB_UART_UART.c **** 
 195:Generated_Source\PSoC4/USB_UART_UART.c ****             USB_UART_TX_FIFO_CTRL_REG = USB_UART_GET_TX_FIFO_CTRL_TRIGGER_LEVEL(config->txTriggerLe
 196:Generated_Source\PSoC4/USB_UART_UART.c **** 
 197:Generated_Source\PSoC4/USB_UART_UART.c ****         #if !(USB_UART_CY_SCBIP_V0 || USB_UART_CY_SCBIP_V1)
 198:Generated_Source\PSoC4/USB_UART_UART.c ****             USB_UART_UART_FLOW_CTRL_REG = USB_UART_GET_UART_FLOW_CTRL_CTS_ENABLE(config->enableCts)
 199:Generated_Source\PSoC4/USB_UART_UART.c ****                                             USB_UART_GET_UART_FLOW_CTRL_CTS_POLARITY (config->ctsPo
 200:Generated_Source\PSoC4/USB_UART_UART.c ****                                             USB_UART_GET_UART_FLOW_CTRL_RTS_POLARITY (config->rtsPo
 201:Generated_Source\PSoC4/USB_UART_UART.c ****                                             USB_UART_GET_UART_FLOW_CTRL_TRIGGER_LEVEL(config->rtsRx
ARM GAS  C:\Users\AFDHAL~1\AppData\Local\Temp\ccWI4vUi.s 			page 5


 202:Generated_Source\PSoC4/USB_UART_UART.c ****         #endif /* !(USB_UART_CY_SCBIP_V0 || USB_UART_CY_SCBIP_V1) */
 203:Generated_Source\PSoC4/USB_UART_UART.c **** 
 204:Generated_Source\PSoC4/USB_UART_UART.c ****             /* Configure interrupt with UART handler but do not enable it */
 205:Generated_Source\PSoC4/USB_UART_UART.c ****             CyIntDisable    (USB_UART_ISR_NUMBER);
 206:Generated_Source\PSoC4/USB_UART_UART.c ****             CyIntSetPriority(USB_UART_ISR_NUMBER, USB_UART_ISR_PRIORITY);
 207:Generated_Source\PSoC4/USB_UART_UART.c ****             (void) CyIntSetVector(USB_UART_ISR_NUMBER, &USB_UART_SPI_UART_ISR);
 208:Generated_Source\PSoC4/USB_UART_UART.c **** 
 209:Generated_Source\PSoC4/USB_UART_UART.c ****             /* Configure WAKE interrupt */
 210:Generated_Source\PSoC4/USB_UART_UART.c ****         #if(USB_UART_UART_RX_WAKEUP_IRQ)
 211:Generated_Source\PSoC4/USB_UART_UART.c ****             CyIntDisable    (USB_UART_RX_WAKE_ISR_NUMBER);
 212:Generated_Source\PSoC4/USB_UART_UART.c ****             CyIntSetPriority(USB_UART_RX_WAKE_ISR_NUMBER, USB_UART_RX_WAKE_ISR_PRIORITY);
 213:Generated_Source\PSoC4/USB_UART_UART.c ****             (void) CyIntSetVector(USB_UART_RX_WAKE_ISR_NUMBER, &USB_UART_UART_WAKEUP_ISR);
 214:Generated_Source\PSoC4/USB_UART_UART.c ****         #endif /* (USB_UART_UART_RX_WAKEUP_IRQ) */
 215:Generated_Source\PSoC4/USB_UART_UART.c **** 
 216:Generated_Source\PSoC4/USB_UART_UART.c ****             /* Configure interrupt sources */
 217:Generated_Source\PSoC4/USB_UART_UART.c ****             USB_UART_INTR_I2C_EC_MASK_REG = USB_UART_NO_INTR_SOURCES;
 218:Generated_Source\PSoC4/USB_UART_UART.c ****             USB_UART_INTR_SPI_EC_MASK_REG = USB_UART_NO_INTR_SOURCES;
 219:Generated_Source\PSoC4/USB_UART_UART.c ****             USB_UART_INTR_SLAVE_MASK_REG  = USB_UART_NO_INTR_SOURCES;
 220:Generated_Source\PSoC4/USB_UART_UART.c ****             USB_UART_INTR_MASTER_MASK_REG = USB_UART_NO_INTR_SOURCES;
 221:Generated_Source\PSoC4/USB_UART_UART.c ****             USB_UART_INTR_RX_MASK_REG     = config->rxInterruptMask;
 222:Generated_Source\PSoC4/USB_UART_UART.c ****             USB_UART_INTR_TX_MASK_REG     = config->txInterruptMask;
 223:Generated_Source\PSoC4/USB_UART_UART.c **** 
 224:Generated_Source\PSoC4/USB_UART_UART.c ****             /* Configure TX interrupt sources to restore. */
 225:Generated_Source\PSoC4/USB_UART_UART.c ****             USB_UART_IntrTxMask = LO16(USB_UART_INTR_TX_MASK_REG);
 226:Generated_Source\PSoC4/USB_UART_UART.c **** 
 227:Generated_Source\PSoC4/USB_UART_UART.c ****             /* Clear RX buffer indexes */
 228:Generated_Source\PSoC4/USB_UART_UART.c ****             USB_UART_rxBufferHead     = 0u;
 229:Generated_Source\PSoC4/USB_UART_UART.c ****             USB_UART_rxBufferTail     = 0u;
 230:Generated_Source\PSoC4/USB_UART_UART.c ****             USB_UART_rxBufferOverflow = 0u;
 231:Generated_Source\PSoC4/USB_UART_UART.c **** 
 232:Generated_Source\PSoC4/USB_UART_UART.c ****             /* Clear TX buffer indexes */
 233:Generated_Source\PSoC4/USB_UART_UART.c ****             USB_UART_txBufferHead = 0u;
 234:Generated_Source\PSoC4/USB_UART_UART.c ****             USB_UART_txBufferTail = 0u;
 235:Generated_Source\PSoC4/USB_UART_UART.c ****         }
 236:Generated_Source\PSoC4/USB_UART_UART.c ****     }
 237:Generated_Source\PSoC4/USB_UART_UART.c **** 
 238:Generated_Source\PSoC4/USB_UART_UART.c **** #else
 239:Generated_Source\PSoC4/USB_UART_UART.c **** 
 240:Generated_Source\PSoC4/USB_UART_UART.c ****     /*******************************************************************************
 241:Generated_Source\PSoC4/USB_UART_UART.c ****     * Function Name: USB_UART_UartInit
 242:Generated_Source\PSoC4/USB_UART_UART.c ****     ****************************************************************************//**
 243:Generated_Source\PSoC4/USB_UART_UART.c ****     *
 244:Generated_Source\PSoC4/USB_UART_UART.c ****     *  Configures the SCB for the UART operation.
 245:Generated_Source\PSoC4/USB_UART_UART.c ****     *
 246:Generated_Source\PSoC4/USB_UART_UART.c ****     *******************************************************************************/
 247:Generated_Source\PSoC4/USB_UART_UART.c ****     void USB_UART_UartInit(void)
 248:Generated_Source\PSoC4/USB_UART_UART.c ****     {
  28              		.loc 1 248 0
  29              		.cfi_startproc
  30              		@ args = 0, pretend = 0, frame = 0
  31              		@ frame_needed = 0, uses_anonymous_args = 0
  32 0000 70B5     		push	{r4, r5, r6, lr}
  33              		.cfi_def_cfa_offset 16
  34              		.cfi_offset 4, -16
  35              		.cfi_offset 5, -12
  36              		.cfi_offset 6, -8
  37              		.cfi_offset 14, -4
ARM GAS  C:\Users\AFDHAL~1\AppData\Local\Temp\ccWI4vUi.s 			page 6


 249:Generated_Source\PSoC4/USB_UART_UART.c ****         /* Configure UART interface */
 250:Generated_Source\PSoC4/USB_UART_UART.c ****         USB_UART_CTRL_REG = USB_UART_UART_DEFAULT_CTRL;
 251:Generated_Source\PSoC4/USB_UART_UART.c **** 
 252:Generated_Source\PSoC4/USB_UART_UART.c ****         /* Configure sub-mode: UART, SmartCard or IrDA */
 253:Generated_Source\PSoC4/USB_UART_UART.c ****         USB_UART_UART_CTRL_REG = USB_UART_UART_DEFAULT_UART_CTRL;
  38              		.loc 1 253 0
  39 0002 0024     		movs	r4, #0
 254:Generated_Source\PSoC4/USB_UART_UART.c **** 
 255:Generated_Source\PSoC4/USB_UART_UART.c ****         /* Configure RX direction */
 256:Generated_Source\PSoC4/USB_UART_UART.c ****         USB_UART_UART_RX_CTRL_REG = USB_UART_UART_DEFAULT_UART_RX_CTRL;
 257:Generated_Source\PSoC4/USB_UART_UART.c ****         USB_UART_RX_CTRL_REG      = USB_UART_UART_DEFAULT_RX_CTRL;
 258:Generated_Source\PSoC4/USB_UART_UART.c ****         USB_UART_RX_FIFO_CTRL_REG = USB_UART_UART_DEFAULT_RX_FIFO_CTRL;
  40              		.loc 1 258 0
  41 0004 0721     		movs	r1, #7
 259:Generated_Source\PSoC4/USB_UART_UART.c ****         USB_UART_RX_MATCH_REG     = USB_UART_UART_DEFAULT_RX_MATCH_REG;
 260:Generated_Source\PSoC4/USB_UART_UART.c **** 
 261:Generated_Source\PSoC4/USB_UART_UART.c ****         /* Configure TX direction */
 262:Generated_Source\PSoC4/USB_UART_UART.c ****         USB_UART_UART_TX_CTRL_REG = USB_UART_UART_DEFAULT_UART_TX_CTRL;
 263:Generated_Source\PSoC4/USB_UART_UART.c ****         USB_UART_TX_CTRL_REG      = USB_UART_UART_DEFAULT_TX_CTRL;
 264:Generated_Source\PSoC4/USB_UART_UART.c ****         USB_UART_TX_FIFO_CTRL_REG = USB_UART_UART_DEFAULT_TX_FIFO_CTRL;
 265:Generated_Source\PSoC4/USB_UART_UART.c **** 
 266:Generated_Source\PSoC4/USB_UART_UART.c ****     #if !(USB_UART_CY_SCBIP_V0 || USB_UART_CY_SCBIP_V1)
 267:Generated_Source\PSoC4/USB_UART_UART.c ****         USB_UART_UART_FLOW_CTRL_REG = USB_UART_UART_DEFAULT_FLOW_CTRL;
  42              		.loc 1 267 0
  43 0006 0425     		movs	r5, #4
 250:Generated_Source\PSoC4/USB_UART_UART.c **** 
  44              		.loc 1 250 0
  45 0008 1E4A     		ldr	r2, .L2
  46 000a 1F4B     		ldr	r3, .L2+4
 268:Generated_Source\PSoC4/USB_UART_UART.c ****     #endif /* !(USB_UART_CY_SCBIP_V0 || USB_UART_CY_SCBIP_V1) */
 269:Generated_Source\PSoC4/USB_UART_UART.c **** 
 270:Generated_Source\PSoC4/USB_UART_UART.c ****         /* Configure interrupt with UART handler but do not enable it */
 271:Generated_Source\PSoC4/USB_UART_UART.c ****     #if(USB_UART_SCB_IRQ_INTERNAL)
 272:Generated_Source\PSoC4/USB_UART_UART.c ****         CyIntDisable    (USB_UART_ISR_NUMBER);
  47              		.loc 1 272 0
  48 000c 0B20     		movs	r0, #11
 250:Generated_Source\PSoC4/USB_UART_UART.c **** 
  49              		.loc 1 250 0
  50 000e 1A60     		str	r2, [r3]
 253:Generated_Source\PSoC4/USB_UART_UART.c **** 
  51              		.loc 1 253 0
  52 0010 1E4B     		ldr	r3, .L2+8
 256:Generated_Source\PSoC4/USB_UART_UART.c ****         USB_UART_RX_CTRL_REG      = USB_UART_UART_DEFAULT_RX_CTRL;
  53              		.loc 1 256 0
  54 0012 1F4A     		ldr	r2, .L2+12
 253:Generated_Source\PSoC4/USB_UART_UART.c **** 
  55              		.loc 1 253 0
  56 0014 1C60     		str	r4, [r3]
 256:Generated_Source\PSoC4/USB_UART_UART.c ****         USB_UART_RX_CTRL_REG      = USB_UART_UART_DEFAULT_RX_CTRL;
  57              		.loc 1 256 0
  58 0016 1F4B     		ldr	r3, .L2+16
 273:Generated_Source\PSoC4/USB_UART_UART.c ****         CyIntSetPriority(USB_UART_ISR_NUMBER, USB_UART_ISR_PRIORITY);
 274:Generated_Source\PSoC4/USB_UART_UART.c ****         (void) CyIntSetVector(USB_UART_ISR_NUMBER, &USB_UART_SPI_UART_ISR);
 275:Generated_Source\PSoC4/USB_UART_UART.c ****     #endif /* (USB_UART_SCB_IRQ_INTERNAL) */
 276:Generated_Source\PSoC4/USB_UART_UART.c **** 
 277:Generated_Source\PSoC4/USB_UART_UART.c ****         /* Configure WAKE interrupt */
 278:Generated_Source\PSoC4/USB_UART_UART.c ****     #if(USB_UART_UART_RX_WAKEUP_IRQ)
ARM GAS  C:\Users\AFDHAL~1\AppData\Local\Temp\ccWI4vUi.s 			page 7


 279:Generated_Source\PSoC4/USB_UART_UART.c ****         CyIntDisable    (USB_UART_RX_WAKE_ISR_NUMBER);
 280:Generated_Source\PSoC4/USB_UART_UART.c ****         CyIntSetPriority(USB_UART_RX_WAKE_ISR_NUMBER, USB_UART_RX_WAKE_ISR_PRIORITY);
 281:Generated_Source\PSoC4/USB_UART_UART.c ****         (void) CyIntSetVector(USB_UART_RX_WAKE_ISR_NUMBER, &USB_UART_UART_WAKEUP_ISR);
 282:Generated_Source\PSoC4/USB_UART_UART.c ****     #endif /* (USB_UART_UART_RX_WAKEUP_IRQ) */
 283:Generated_Source\PSoC4/USB_UART_UART.c **** 
 284:Generated_Source\PSoC4/USB_UART_UART.c ****         /* Configure interrupt sources */
 285:Generated_Source\PSoC4/USB_UART_UART.c ****         USB_UART_INTR_I2C_EC_MASK_REG = USB_UART_UART_DEFAULT_INTR_I2C_EC_MASK;
 286:Generated_Source\PSoC4/USB_UART_UART.c ****         USB_UART_INTR_SPI_EC_MASK_REG = USB_UART_UART_DEFAULT_INTR_SPI_EC_MASK;
 287:Generated_Source\PSoC4/USB_UART_UART.c ****         USB_UART_INTR_SLAVE_MASK_REG  = USB_UART_UART_DEFAULT_INTR_SLAVE_MASK;
 288:Generated_Source\PSoC4/USB_UART_UART.c ****         USB_UART_INTR_MASTER_MASK_REG = USB_UART_UART_DEFAULT_INTR_MASTER_MASK;
 289:Generated_Source\PSoC4/USB_UART_UART.c ****         USB_UART_INTR_RX_MASK_REG     = USB_UART_UART_DEFAULT_INTR_RX_MASK;
 290:Generated_Source\PSoC4/USB_UART_UART.c ****         USB_UART_INTR_TX_MASK_REG     = USB_UART_UART_DEFAULT_INTR_TX_MASK;
 291:Generated_Source\PSoC4/USB_UART_UART.c **** 
 292:Generated_Source\PSoC4/USB_UART_UART.c ****         /* Configure TX interrupt sources to restore. */
 293:Generated_Source\PSoC4/USB_UART_UART.c ****         USB_UART_IntrTxMask = LO16(USB_UART_INTR_TX_MASK_REG);
 294:Generated_Source\PSoC4/USB_UART_UART.c **** 
 295:Generated_Source\PSoC4/USB_UART_UART.c ****     #if(USB_UART_INTERNAL_RX_SW_BUFFER_CONST)
 296:Generated_Source\PSoC4/USB_UART_UART.c ****         USB_UART_rxBufferHead     = 0u;
 297:Generated_Source\PSoC4/USB_UART_UART.c ****         USB_UART_rxBufferTail     = 0u;
 298:Generated_Source\PSoC4/USB_UART_UART.c ****         USB_UART_rxBufferOverflow = 0u;
 299:Generated_Source\PSoC4/USB_UART_UART.c ****     #endif /* (USB_UART_INTERNAL_RX_SW_BUFFER_CONST) */
 300:Generated_Source\PSoC4/USB_UART_UART.c **** 
 301:Generated_Source\PSoC4/USB_UART_UART.c ****     #if(USB_UART_INTERNAL_TX_SW_BUFFER_CONST)
 302:Generated_Source\PSoC4/USB_UART_UART.c ****         USB_UART_txBufferHead = 0u;
 303:Generated_Source\PSoC4/USB_UART_UART.c ****         USB_UART_txBufferTail = 0u;
 304:Generated_Source\PSoC4/USB_UART_UART.c ****     #endif /* (USB_UART_INTERNAL_TX_SW_BUFFER_CONST) */
 305:Generated_Source\PSoC4/USB_UART_UART.c ****     }
  59              		.loc 1 305 0
  60              		@ sp needed
 256:Generated_Source\PSoC4/USB_UART_UART.c ****         USB_UART_RX_CTRL_REG      = USB_UART_UART_DEFAULT_RX_CTRL;
  61              		.loc 1 256 0
  62 0018 1A60     		str	r2, [r3]
 257:Generated_Source\PSoC4/USB_UART_UART.c ****         USB_UART_RX_FIFO_CTRL_REG = USB_UART_UART_DEFAULT_RX_FIFO_CTRL;
  63              		.loc 1 257 0
  64 001a 1F4B     		ldr	r3, .L2+20
  65 001c 1F4A     		ldr	r2, .L2+24
  66 001e 1360     		str	r3, [r2]
 258:Generated_Source\PSoC4/USB_UART_UART.c ****         USB_UART_RX_MATCH_REG     = USB_UART_UART_DEFAULT_RX_MATCH_REG;
  67              		.loc 1 258 0
  68 0020 1F4A     		ldr	r2, .L2+28
  69 0022 1160     		str	r1, [r2]
 259:Generated_Source\PSoC4/USB_UART_UART.c **** 
  70              		.loc 1 259 0
  71 0024 1F4A     		ldr	r2, .L2+32
 262:Generated_Source\PSoC4/USB_UART_UART.c ****         USB_UART_TX_CTRL_REG      = USB_UART_UART_DEFAULT_TX_CTRL;
  72              		.loc 1 262 0
  73 0026 0639     		subs	r1, r1, #6
 259:Generated_Source\PSoC4/USB_UART_UART.c **** 
  74              		.loc 1 259 0
  75 0028 1460     		str	r4, [r2]
 262:Generated_Source\PSoC4/USB_UART_UART.c ****         USB_UART_TX_CTRL_REG      = USB_UART_UART_DEFAULT_TX_CTRL;
  76              		.loc 1 262 0
  77 002a 1F4A     		ldr	r2, .L2+36
  78 002c 1160     		str	r1, [r2]
 263:Generated_Source\PSoC4/USB_UART_UART.c ****         USB_UART_TX_FIFO_CTRL_REG = USB_UART_UART_DEFAULT_TX_FIFO_CTRL;
  79              		.loc 1 263 0
  80 002e 1F4A     		ldr	r2, .L2+40
ARM GAS  C:\Users\AFDHAL~1\AppData\Local\Temp\ccWI4vUi.s 			page 8


  81 0030 1360     		str	r3, [r2]
 264:Generated_Source\PSoC4/USB_UART_UART.c **** 
  82              		.loc 1 264 0
  83 0032 1F4B     		ldr	r3, .L2+44
  84 0034 1C60     		str	r4, [r3]
 267:Generated_Source\PSoC4/USB_UART_UART.c ****     #endif /* !(USB_UART_CY_SCBIP_V0 || USB_UART_CY_SCBIP_V1) */
  85              		.loc 1 267 0
  86 0036 1F4B     		ldr	r3, .L2+48
  87 0038 1D60     		str	r5, [r3]
 272:Generated_Source\PSoC4/USB_UART_UART.c ****         CyIntSetPriority(USB_UART_ISR_NUMBER, USB_UART_ISR_PRIORITY);
  88              		.loc 1 272 0
  89 003a FFF7FEFF 		bl	CyIntDisable
  90              	.LVL0:
 273:Generated_Source\PSoC4/USB_UART_UART.c ****         (void) CyIntSetVector(USB_UART_ISR_NUMBER, &USB_UART_SPI_UART_ISR);
  91              		.loc 1 273 0
  92 003e 0321     		movs	r1, #3
  93 0040 0B20     		movs	r0, #11
  94 0042 FFF7FEFF 		bl	CyIntSetPriority
  95              	.LVL1:
 274:Generated_Source\PSoC4/USB_UART_UART.c ****     #endif /* (USB_UART_SCB_IRQ_INTERNAL) */
  96              		.loc 1 274 0
  97 0046 1C49     		ldr	r1, .L2+52
  98 0048 0B20     		movs	r0, #11
  99 004a FFF7FEFF 		bl	CyIntSetVector
 100              	.LVL2:
 285:Generated_Source\PSoC4/USB_UART_UART.c ****         USB_UART_INTR_SPI_EC_MASK_REG = USB_UART_UART_DEFAULT_INTR_SPI_EC_MASK;
 101              		.loc 1 285 0
 102 004e 1B4B     		ldr	r3, .L2+56
 103 0050 1C60     		str	r4, [r3]
 286:Generated_Source\PSoC4/USB_UART_UART.c ****         USB_UART_INTR_SLAVE_MASK_REG  = USB_UART_UART_DEFAULT_INTR_SLAVE_MASK;
 104              		.loc 1 286 0
 105 0052 1B4B     		ldr	r3, .L2+60
 106 0054 1C60     		str	r4, [r3]
 287:Generated_Source\PSoC4/USB_UART_UART.c ****         USB_UART_INTR_MASTER_MASK_REG = USB_UART_UART_DEFAULT_INTR_MASTER_MASK;
 107              		.loc 1 287 0
 108 0056 1B4B     		ldr	r3, .L2+64
 109 0058 1C60     		str	r4, [r3]
 288:Generated_Source\PSoC4/USB_UART_UART.c ****         USB_UART_INTR_RX_MASK_REG     = USB_UART_UART_DEFAULT_INTR_RX_MASK;
 110              		.loc 1 288 0
 111 005a 1B4B     		ldr	r3, .L2+68
 112 005c 1C60     		str	r4, [r3]
 289:Generated_Source\PSoC4/USB_UART_UART.c ****         USB_UART_INTR_TX_MASK_REG     = USB_UART_UART_DEFAULT_INTR_TX_MASK;
 113              		.loc 1 289 0
 114 005e 1B4B     		ldr	r3, .L2+72
 115 0060 1D60     		str	r5, [r3]
 290:Generated_Source\PSoC4/USB_UART_UART.c **** 
 116              		.loc 1 290 0
 117 0062 1B4B     		ldr	r3, .L2+76
 118 0064 1C60     		str	r4, [r3]
 293:Generated_Source\PSoC4/USB_UART_UART.c **** 
 119              		.loc 1 293 0
 120 0066 1A68     		ldr	r2, [r3]
 121 0068 1A4B     		ldr	r3, .L2+80
 122 006a 1A80     		strh	r2, [r3]
 296:Generated_Source\PSoC4/USB_UART_UART.c ****         USB_UART_rxBufferTail     = 0u;
 123              		.loc 1 296 0
 124 006c 1A4B     		ldr	r3, .L2+84
ARM GAS  C:\Users\AFDHAL~1\AppData\Local\Temp\ccWI4vUi.s 			page 9


 125 006e 1C60     		str	r4, [r3]
 297:Generated_Source\PSoC4/USB_UART_UART.c ****         USB_UART_rxBufferOverflow = 0u;
 126              		.loc 1 297 0
 127 0070 1A4B     		ldr	r3, .L2+88
 128 0072 1C60     		str	r4, [r3]
 298:Generated_Source\PSoC4/USB_UART_UART.c ****     #endif /* (USB_UART_INTERNAL_RX_SW_BUFFER_CONST) */
 129              		.loc 1 298 0
 130 0074 1A4B     		ldr	r3, .L2+92
 131 0076 1C70     		strb	r4, [r3]
 302:Generated_Source\PSoC4/USB_UART_UART.c ****         USB_UART_txBufferTail = 0u;
 132              		.loc 1 302 0
 133 0078 1A4B     		ldr	r3, .L2+96
 134 007a 1C60     		str	r4, [r3]
 303:Generated_Source\PSoC4/USB_UART_UART.c ****     #endif /* (USB_UART_INTERNAL_TX_SW_BUFFER_CONST) */
 135              		.loc 1 303 0
 136 007c 1A4B     		ldr	r3, .L2+100
 137 007e 1C60     		str	r4, [r3]
 138              		.loc 1 305 0
 139 0080 70BD     		pop	{r4, r5, r6, pc}
 140              	.L3:
 141 0082 C046     		.align	2
 142              	.L2:
 143 0084 0B000002 		.word	33554443
 144 0088 00002740 		.word	1076297728
 145 008c 40002740 		.word	1076297792
 146 0090 01000A00 		.word	655361
 147 0094 48002740 		.word	1076297800
 148 0098 07000080 		.word	-2147483641
 149 009c 00032740 		.word	1076298496
 150 00a0 04032740 		.word	1076298500
 151 00a4 10032740 		.word	1076298512
 152 00a8 44002740 		.word	1076297796
 153 00ac 00022740 		.word	1076298240
 154 00b0 04022740 		.word	1076298244
 155 00b4 50002740 		.word	1076297808
 156 00b8 00000000 		.word	USB_UART_SPI_UART_ISR
 157 00bc 880E2740 		.word	1076301448
 158 00c0 C80E2740 		.word	1076301512
 159 00c4 480F2740 		.word	1076301640
 160 00c8 080F2740 		.word	1076301576
 161 00cc C80F2740 		.word	1076301768
 162 00d0 880F2740 		.word	1076301704
 163 00d4 00000000 		.word	USB_UART_IntrTxMask
 164 00d8 00000000 		.word	USB_UART_rxBufferHead
 165 00dc 00000000 		.word	USB_UART_rxBufferTail
 166 00e0 00000000 		.word	USB_UART_rxBufferOverflow
 167 00e4 00000000 		.word	USB_UART_txBufferHead
 168 00e8 00000000 		.word	USB_UART_txBufferTail
 169              		.cfi_endproc
 170              	.LFE1:
 171              		.size	USB_UART_UartInit, .-USB_UART_UartInit
 172              		.section	.text.USB_UART_UartPostEnable,"ax",%progbits
 173              		.align	1
 174              		.global	USB_UART_UartPostEnable
 175              		.code	16
 176              		.thumb_func
 177              		.type	USB_UART_UartPostEnable, %function
ARM GAS  C:\Users\AFDHAL~1\AppData\Local\Temp\ccWI4vUi.s 			page 10


 178              	USB_UART_UartPostEnable:
 179              	.LFB2:
 306:Generated_Source\PSoC4/USB_UART_UART.c **** #endif /* (USB_UART_SCB_MODE_UNCONFIG_CONST_CFG) */
 307:Generated_Source\PSoC4/USB_UART_UART.c **** 
 308:Generated_Source\PSoC4/USB_UART_UART.c **** 
 309:Generated_Source\PSoC4/USB_UART_UART.c **** /*******************************************************************************
 310:Generated_Source\PSoC4/USB_UART_UART.c **** * Function Name: USB_UART_UartPostEnable
 311:Generated_Source\PSoC4/USB_UART_UART.c **** ****************************************************************************//**
 312:Generated_Source\PSoC4/USB_UART_UART.c **** *
 313:Generated_Source\PSoC4/USB_UART_UART.c **** *  Restores HSIOM settings for the UART output pins (TX and/or RTS) to be
 314:Generated_Source\PSoC4/USB_UART_UART.c **** *  controlled by the SCB UART.
 315:Generated_Source\PSoC4/USB_UART_UART.c **** *
 316:Generated_Source\PSoC4/USB_UART_UART.c **** *******************************************************************************/
 317:Generated_Source\PSoC4/USB_UART_UART.c **** void USB_UART_UartPostEnable(void)
 318:Generated_Source\PSoC4/USB_UART_UART.c **** {
 180              		.loc 1 318 0
 181              		.cfi_startproc
 182              		@ args = 0, pretend = 0, frame = 0
 183              		@ frame_needed = 0, uses_anonymous_args = 0
 184              		@ link register save eliminated.
 319:Generated_Source\PSoC4/USB_UART_UART.c **** #if (USB_UART_SCB_MODE_UNCONFIG_CONST_CFG)
 320:Generated_Source\PSoC4/USB_UART_UART.c ****     #if (USB_UART_TX_SDA_MISO_PIN)
 321:Generated_Source\PSoC4/USB_UART_UART.c ****         if (USB_UART_CHECK_TX_SDA_MISO_PIN_USED)
 322:Generated_Source\PSoC4/USB_UART_UART.c ****         {
 323:Generated_Source\PSoC4/USB_UART_UART.c ****             /* Set SCB UART to drive the output pin */
 324:Generated_Source\PSoC4/USB_UART_UART.c ****             USB_UART_SET_HSIOM_SEL(USB_UART_TX_SDA_MISO_HSIOM_REG, USB_UART_TX_SDA_MISO_HSIOM_MASK,
 325:Generated_Source\PSoC4/USB_UART_UART.c ****                                            USB_UART_TX_SDA_MISO_HSIOM_POS, USB_UART_TX_SDA_MISO_HSI
 326:Generated_Source\PSoC4/USB_UART_UART.c ****         }
 327:Generated_Source\PSoC4/USB_UART_UART.c ****     #endif /* (USB_UART_TX_SDA_MISO_PIN_PIN) */
 328:Generated_Source\PSoC4/USB_UART_UART.c **** 
 329:Generated_Source\PSoC4/USB_UART_UART.c ****     #if !(USB_UART_CY_SCBIP_V0 || USB_UART_CY_SCBIP_V1)
 330:Generated_Source\PSoC4/USB_UART_UART.c ****         #if (USB_UART_RTS_SS0_PIN)
 331:Generated_Source\PSoC4/USB_UART_UART.c ****             if (USB_UART_CHECK_RTS_SS0_PIN_USED)
 332:Generated_Source\PSoC4/USB_UART_UART.c ****             {
 333:Generated_Source\PSoC4/USB_UART_UART.c ****                 /* Set SCB UART to drive the output pin */
 334:Generated_Source\PSoC4/USB_UART_UART.c ****                 USB_UART_SET_HSIOM_SEL(USB_UART_RTS_SS0_HSIOM_REG, USB_UART_RTS_SS0_HSIOM_MASK,
 335:Generated_Source\PSoC4/USB_UART_UART.c ****                                                USB_UART_RTS_SS0_HSIOM_POS, USB_UART_RTS_SS0_HSIOM_S
 336:Generated_Source\PSoC4/USB_UART_UART.c ****             }
 337:Generated_Source\PSoC4/USB_UART_UART.c ****         #endif /* (USB_UART_RTS_SS0_PIN) */
 338:Generated_Source\PSoC4/USB_UART_UART.c ****     #endif /* !(USB_UART_CY_SCBIP_V0 || USB_UART_CY_SCBIP_V1) */
 339:Generated_Source\PSoC4/USB_UART_UART.c **** 
 340:Generated_Source\PSoC4/USB_UART_UART.c **** #else
 341:Generated_Source\PSoC4/USB_UART_UART.c ****     #if (USB_UART_UART_TX_PIN)
 342:Generated_Source\PSoC4/USB_UART_UART.c ****          /* Set SCB UART to drive the output pin */
 343:Generated_Source\PSoC4/USB_UART_UART.c ****         USB_UART_SET_HSIOM_SEL(USB_UART_TX_HSIOM_REG, USB_UART_TX_HSIOM_MASK,
 185              		.loc 1 343 0
 186 0000 F021     		movs	r1, #240
 187 0002 054A     		ldr	r2, .L5
 344:Generated_Source\PSoC4/USB_UART_UART.c ****                                        USB_UART_TX_HSIOM_POS, USB_UART_TX_HSIOM_SEL_UART);
 345:Generated_Source\PSoC4/USB_UART_UART.c ****     #endif /* (USB_UART_UART_TX_PIN) */
 346:Generated_Source\PSoC4/USB_UART_UART.c **** 
 347:Generated_Source\PSoC4/USB_UART_UART.c ****     #if (USB_UART_UART_RTS_PIN)
 348:Generated_Source\PSoC4/USB_UART_UART.c ****         /* Set SCB UART to drive the output pin */
 349:Generated_Source\PSoC4/USB_UART_UART.c ****         USB_UART_SET_HSIOM_SEL(USB_UART_RTS_HSIOM_REG, USB_UART_RTS_HSIOM_MASK,
 350:Generated_Source\PSoC4/USB_UART_UART.c ****                                        USB_UART_RTS_HSIOM_POS, USB_UART_RTS_HSIOM_SEL_UART);
 351:Generated_Source\PSoC4/USB_UART_UART.c ****     #endif /* (USB_UART_UART_RTS_PIN) */
 352:Generated_Source\PSoC4/USB_UART_UART.c **** #endif /* (USB_UART_SCB_MODE_UNCONFIG_CONST_CFG) */
ARM GAS  C:\Users\AFDHAL~1\AppData\Local\Temp\ccWI4vUi.s 			page 11


 353:Generated_Source\PSoC4/USB_UART_UART.c **** 
 354:Generated_Source\PSoC4/USB_UART_UART.c ****     /* Restore TX interrupt sources. */
 355:Generated_Source\PSoC4/USB_UART_UART.c ****     USB_UART_SetTxInterruptMode(USB_UART_IntrTxMask);
 356:Generated_Source\PSoC4/USB_UART_UART.c **** }
 188              		.loc 1 356 0
 189              		@ sp needed
 343:Generated_Source\PSoC4/USB_UART_UART.c ****                                        USB_UART_TX_HSIOM_POS, USB_UART_TX_HSIOM_SEL_UART);
 190              		.loc 1 343 0
 191 0004 1368     		ldr	r3, [r2]
 192 0006 8B43     		bics	r3, r1
 193 0008 6039     		subs	r1, r1, #96
 194 000a 0B43     		orrs	r3, r1
 195 000c 1360     		str	r3, [r2]
 355:Generated_Source\PSoC4/USB_UART_UART.c **** }
 196              		.loc 1 355 0
 197 000e 034B     		ldr	r3, .L5+4
 198 0010 1A88     		ldrh	r2, [r3]
 199 0012 034B     		ldr	r3, .L5+8
 200 0014 1A60     		str	r2, [r3]
 201              		.loc 1 356 0
 202 0016 7047     		bx	lr
 203              	.L6:
 204              		.align	2
 205              	.L5:
 206 0018 00070240 		.word	1073874688
 207 001c 00000000 		.word	USB_UART_IntrTxMask
 208 0020 880F2740 		.word	1076301704
 209              		.cfi_endproc
 210              	.LFE2:
 211              		.size	USB_UART_UartPostEnable, .-USB_UART_UartPostEnable
 212              		.section	.text.USB_UART_UartStop,"ax",%progbits
 213              		.align	1
 214              		.global	USB_UART_UartStop
 215              		.code	16
 216              		.thumb_func
 217              		.type	USB_UART_UartStop, %function
 218              	USB_UART_UartStop:
 219              	.LFB3:
 357:Generated_Source\PSoC4/USB_UART_UART.c **** 
 358:Generated_Source\PSoC4/USB_UART_UART.c **** 
 359:Generated_Source\PSoC4/USB_UART_UART.c **** /*******************************************************************************
 360:Generated_Source\PSoC4/USB_UART_UART.c **** * Function Name: USB_UART_UartStop
 361:Generated_Source\PSoC4/USB_UART_UART.c **** ****************************************************************************//**
 362:Generated_Source\PSoC4/USB_UART_UART.c **** *
 363:Generated_Source\PSoC4/USB_UART_UART.c **** *  Changes the HSIOM settings for the UART output pins (TX and/or RTS) to keep
 364:Generated_Source\PSoC4/USB_UART_UART.c **** *  them inactive after the block is disabled. The output pins are controlled by
 365:Generated_Source\PSoC4/USB_UART_UART.c **** *  the GPIO data register. Also, the function disables the skip start feature
 366:Generated_Source\PSoC4/USB_UART_UART.c **** *  to not cause it to trigger after the component is enabled.
 367:Generated_Source\PSoC4/USB_UART_UART.c **** *
 368:Generated_Source\PSoC4/USB_UART_UART.c **** *******************************************************************************/
 369:Generated_Source\PSoC4/USB_UART_UART.c **** void USB_UART_UartStop(void)
 370:Generated_Source\PSoC4/USB_UART_UART.c **** {
 220              		.loc 1 370 0
 221              		.cfi_startproc
 222              		@ args = 0, pretend = 0, frame = 0
 223              		@ frame_needed = 0, uses_anonymous_args = 0
 224              		@ link register save eliminated.
ARM GAS  C:\Users\AFDHAL~1\AppData\Local\Temp\ccWI4vUi.s 			page 12


 371:Generated_Source\PSoC4/USB_UART_UART.c **** #if(USB_UART_SCB_MODE_UNCONFIG_CONST_CFG)
 372:Generated_Source\PSoC4/USB_UART_UART.c ****     #if (USB_UART_TX_SDA_MISO_PIN)
 373:Generated_Source\PSoC4/USB_UART_UART.c ****         if (USB_UART_CHECK_TX_SDA_MISO_PIN_USED)
 374:Generated_Source\PSoC4/USB_UART_UART.c ****         {
 375:Generated_Source\PSoC4/USB_UART_UART.c ****             /* Set GPIO to drive output pin */
 376:Generated_Source\PSoC4/USB_UART_UART.c ****             USB_UART_SET_HSIOM_SEL(USB_UART_TX_SDA_MISO_HSIOM_REG, USB_UART_TX_SDA_MISO_HSIOM_MASK,
 377:Generated_Source\PSoC4/USB_UART_UART.c ****                                            USB_UART_TX_SDA_MISO_HSIOM_POS, USB_UART_TX_SDA_MISO_HSI
 378:Generated_Source\PSoC4/USB_UART_UART.c ****         }
 379:Generated_Source\PSoC4/USB_UART_UART.c ****     #endif /* (USB_UART_TX_SDA_MISO_PIN_PIN) */
 380:Generated_Source\PSoC4/USB_UART_UART.c **** 
 381:Generated_Source\PSoC4/USB_UART_UART.c ****     #if !(USB_UART_CY_SCBIP_V0 || USB_UART_CY_SCBIP_V1)
 382:Generated_Source\PSoC4/USB_UART_UART.c ****         #if (USB_UART_RTS_SS0_PIN)
 383:Generated_Source\PSoC4/USB_UART_UART.c ****             if (USB_UART_CHECK_RTS_SS0_PIN_USED)
 384:Generated_Source\PSoC4/USB_UART_UART.c ****             {
 385:Generated_Source\PSoC4/USB_UART_UART.c ****                 /* Set output pin state after block is disabled */
 386:Generated_Source\PSoC4/USB_UART_UART.c ****                 USB_UART_uart_rts_spi_ss0_Write(USB_UART_GET_UART_RTS_INACTIVE);
 387:Generated_Source\PSoC4/USB_UART_UART.c **** 
 388:Generated_Source\PSoC4/USB_UART_UART.c ****                 /* Set GPIO to drive output pin */
 389:Generated_Source\PSoC4/USB_UART_UART.c ****                 USB_UART_SET_HSIOM_SEL(USB_UART_RTS_SS0_HSIOM_REG, USB_UART_RTS_SS0_HSIOM_MASK,
 390:Generated_Source\PSoC4/USB_UART_UART.c ****                                                USB_UART_RTS_SS0_HSIOM_POS, USB_UART_RTS_SS0_HSIOM_S
 391:Generated_Source\PSoC4/USB_UART_UART.c ****             }
 392:Generated_Source\PSoC4/USB_UART_UART.c ****         #endif /* (USB_UART_RTS_SS0_PIN) */
 393:Generated_Source\PSoC4/USB_UART_UART.c ****     #endif /* !(USB_UART_CY_SCBIP_V0 || USB_UART_CY_SCBIP_V1) */
 394:Generated_Source\PSoC4/USB_UART_UART.c **** 
 395:Generated_Source\PSoC4/USB_UART_UART.c **** #else
 396:Generated_Source\PSoC4/USB_UART_UART.c ****     #if (USB_UART_UART_TX_PIN)
 397:Generated_Source\PSoC4/USB_UART_UART.c ****         /* Set GPIO to drive output pin */
 398:Generated_Source\PSoC4/USB_UART_UART.c ****         USB_UART_SET_HSIOM_SEL(USB_UART_TX_HSIOM_REG, USB_UART_TX_HSIOM_MASK,
 225              		.loc 1 398 0
 226 0000 F021     		movs	r1, #240
 227 0002 064A     		ldr	r2, .L8
 399:Generated_Source\PSoC4/USB_UART_UART.c ****                                        USB_UART_TX_HSIOM_POS, USB_UART_TX_HSIOM_SEL_GPIO);
 400:Generated_Source\PSoC4/USB_UART_UART.c ****     #endif /* (USB_UART_UART_TX_PIN) */
 401:Generated_Source\PSoC4/USB_UART_UART.c **** 
 402:Generated_Source\PSoC4/USB_UART_UART.c ****     #if (USB_UART_UART_RTS_PIN)
 403:Generated_Source\PSoC4/USB_UART_UART.c ****         /* Set output pin state after block is disabled */
 404:Generated_Source\PSoC4/USB_UART_UART.c ****         USB_UART_rts_Write(USB_UART_GET_UART_RTS_INACTIVE);
 405:Generated_Source\PSoC4/USB_UART_UART.c **** 
 406:Generated_Source\PSoC4/USB_UART_UART.c ****         /* Set GPIO to drive output pin */
 407:Generated_Source\PSoC4/USB_UART_UART.c ****         USB_UART_SET_HSIOM_SEL(USB_UART_RTS_HSIOM_REG, USB_UART_RTS_HSIOM_MASK,
 408:Generated_Source\PSoC4/USB_UART_UART.c ****                                        USB_UART_RTS_HSIOM_POS, USB_UART_RTS_HSIOM_SEL_GPIO);
 409:Generated_Source\PSoC4/USB_UART_UART.c ****     #endif /* (USB_UART_UART_RTS_PIN) */
 410:Generated_Source\PSoC4/USB_UART_UART.c **** 
 411:Generated_Source\PSoC4/USB_UART_UART.c **** #endif /* (USB_UART_SCB_MODE_UNCONFIG_CONST_CFG) */
 412:Generated_Source\PSoC4/USB_UART_UART.c **** 
 413:Generated_Source\PSoC4/USB_UART_UART.c **** #if (USB_UART_UART_WAKE_ENABLE_CONST)
 414:Generated_Source\PSoC4/USB_UART_UART.c ****     /* Disable skip start feature used for wakeup */
 415:Generated_Source\PSoC4/USB_UART_UART.c ****     USB_UART_UART_RX_CTRL_REG &= (uint32) ~USB_UART_UART_RX_CTRL_SKIP_START;
 416:Generated_Source\PSoC4/USB_UART_UART.c **** #endif /* (USB_UART_UART_WAKE_ENABLE_CONST) */
 417:Generated_Source\PSoC4/USB_UART_UART.c **** 
 418:Generated_Source\PSoC4/USB_UART_UART.c ****     /* Store TX interrupt sources (exclude level triggered). */
 419:Generated_Source\PSoC4/USB_UART_UART.c ****     USB_UART_IntrTxMask = LO16(USB_UART_GetTxInterruptMode() & USB_UART_INTR_UART_TX_RESTORE);
 420:Generated_Source\PSoC4/USB_UART_UART.c **** }
 228              		.loc 1 420 0
 229              		@ sp needed
 398:Generated_Source\PSoC4/USB_UART_UART.c ****                                        USB_UART_TX_HSIOM_POS, USB_UART_TX_HSIOM_SEL_GPIO);
 230              		.loc 1 398 0
ARM GAS  C:\Users\AFDHAL~1\AppData\Local\Temp\ccWI4vUi.s 			page 13


 231 0004 1368     		ldr	r3, [r2]
 232 0006 8B43     		bics	r3, r1
 233 0008 1360     		str	r3, [r2]
 419:Generated_Source\PSoC4/USB_UART_UART.c **** }
 234              		.loc 1 419 0
 235 000a 054B     		ldr	r3, .L8+4
 236 000c 1A68     		ldr	r2, [r3]
 237 000e E423     		movs	r3, #228
 238 0010 DB00     		lsls	r3, r3, #3
 239 0012 1340     		ands	r3, r2
 240 0014 034A     		ldr	r2, .L8+8
 241 0016 1380     		strh	r3, [r2]
 242              		.loc 1 420 0
 243 0018 7047     		bx	lr
 244              	.L9:
 245 001a C046     		.align	2
 246              	.L8:
 247 001c 00070240 		.word	1073874688
 248 0020 880F2740 		.word	1076301704
 249 0024 00000000 		.word	USB_UART_IntrTxMask
 250              		.cfi_endproc
 251              	.LFE3:
 252              		.size	USB_UART_UartStop, .-USB_UART_UartStop
 253              		.section	.text.USB_UART_UartSetRxAddress,"ax",%progbits
 254              		.align	1
 255              		.global	USB_UART_UartSetRxAddress
 256              		.code	16
 257              		.thumb_func
 258              		.type	USB_UART_UartSetRxAddress, %function
 259              	USB_UART_UartSetRxAddress:
 260              	.LFB4:
 421:Generated_Source\PSoC4/USB_UART_UART.c **** 
 422:Generated_Source\PSoC4/USB_UART_UART.c **** 
 423:Generated_Source\PSoC4/USB_UART_UART.c **** /*******************************************************************************
 424:Generated_Source\PSoC4/USB_UART_UART.c **** * Function Name: USB_UART_UartSetRxAddress
 425:Generated_Source\PSoC4/USB_UART_UART.c **** ****************************************************************************//**
 426:Generated_Source\PSoC4/USB_UART_UART.c **** *
 427:Generated_Source\PSoC4/USB_UART_UART.c **** *  Sets the hardware detectable receiver address for the UART in the
 428:Generated_Source\PSoC4/USB_UART_UART.c **** *  Multiprocessor mode.
 429:Generated_Source\PSoC4/USB_UART_UART.c **** *
 430:Generated_Source\PSoC4/USB_UART_UART.c **** *  \param address: Address for hardware address detection.
 431:Generated_Source\PSoC4/USB_UART_UART.c **** *
 432:Generated_Source\PSoC4/USB_UART_UART.c **** *******************************************************************************/
 433:Generated_Source\PSoC4/USB_UART_UART.c **** void USB_UART_UartSetRxAddress(uint32 address)
 434:Generated_Source\PSoC4/USB_UART_UART.c **** {
 261              		.loc 1 434 0
 262              		.cfi_startproc
 263              		@ args = 0, pretend = 0, frame = 0
 264              		@ frame_needed = 0, uses_anonymous_args = 0
 265              		@ link register save eliminated.
 266              	.LVL3:
 435:Generated_Source\PSoC4/USB_UART_UART.c ****      uint32 matchReg;
 436:Generated_Source\PSoC4/USB_UART_UART.c **** 
 437:Generated_Source\PSoC4/USB_UART_UART.c ****     matchReg = USB_UART_RX_MATCH_REG;
 438:Generated_Source\PSoC4/USB_UART_UART.c **** 
 439:Generated_Source\PSoC4/USB_UART_UART.c ****     matchReg &= ((uint32) ~USB_UART_RX_MATCH_ADDR_MASK); /* Clear address bits */
 267              		.loc 1 439 0
ARM GAS  C:\Users\AFDHAL~1\AppData\Local\Temp\ccWI4vUi.s 			page 14


 268 0000 FF22     		movs	r2, #255
 437:Generated_Source\PSoC4/USB_UART_UART.c **** 
 269              		.loc 1 437 0
 270 0002 0349     		ldr	r1, .L11
 440:Generated_Source\PSoC4/USB_UART_UART.c ****     matchReg |= ((uint32)  (address & USB_UART_RX_MATCH_ADDR_MASK)); /* Set address  */
 271              		.loc 1 440 0
 272 0004 1040     		ands	r0, r2
 273              	.LVL4:
 437:Generated_Source\PSoC4/USB_UART_UART.c **** 
 274              		.loc 1 437 0
 275 0006 0B68     		ldr	r3, [r1]
 276              	.LVL5:
 441:Generated_Source\PSoC4/USB_UART_UART.c **** 
 442:Generated_Source\PSoC4/USB_UART_UART.c ****     USB_UART_RX_MATCH_REG = matchReg;
 443:Generated_Source\PSoC4/USB_UART_UART.c **** }
 277              		.loc 1 443 0
 278              		@ sp needed
 439:Generated_Source\PSoC4/USB_UART_UART.c ****     matchReg |= ((uint32)  (address & USB_UART_RX_MATCH_ADDR_MASK)); /* Set address  */
 279              		.loc 1 439 0
 280 0008 9343     		bics	r3, r2
 281              	.LVL6:
 440:Generated_Source\PSoC4/USB_UART_UART.c ****     matchReg |= ((uint32)  (address & USB_UART_RX_MATCH_ADDR_MASK)); /* Set address  */
 282              		.loc 1 440 0
 283 000a 1843     		orrs	r0, r3
 284              	.LVL7:
 442:Generated_Source\PSoC4/USB_UART_UART.c **** }
 285              		.loc 1 442 0
 286 000c 0860     		str	r0, [r1]
 287              		.loc 1 443 0
 288 000e 7047     		bx	lr
 289              	.L12:
 290              		.align	2
 291              	.L11:
 292 0010 10032740 		.word	1076298512
 293              		.cfi_endproc
 294              	.LFE4:
 295              		.size	USB_UART_UartSetRxAddress, .-USB_UART_UartSetRxAddress
 296              		.section	.text.USB_UART_UartSetRxAddressMask,"ax",%progbits
 297              		.align	1
 298              		.global	USB_UART_UartSetRxAddressMask
 299              		.code	16
 300              		.thumb_func
 301              		.type	USB_UART_UartSetRxAddressMask, %function
 302              	USB_UART_UartSetRxAddressMask:
 303              	.LFB5:
 444:Generated_Source\PSoC4/USB_UART_UART.c **** 
 445:Generated_Source\PSoC4/USB_UART_UART.c **** 
 446:Generated_Source\PSoC4/USB_UART_UART.c **** /*******************************************************************************
 447:Generated_Source\PSoC4/USB_UART_UART.c **** * Function Name: USB_UART_UartSetRxAddressMask
 448:Generated_Source\PSoC4/USB_UART_UART.c **** ****************************************************************************//**
 449:Generated_Source\PSoC4/USB_UART_UART.c **** *
 450:Generated_Source\PSoC4/USB_UART_UART.c **** *  Sets the hardware address mask for the UART in the Multiprocessor mode.
 451:Generated_Source\PSoC4/USB_UART_UART.c **** *
 452:Generated_Source\PSoC4/USB_UART_UART.c **** *  \param addressMask: Address mask.
 453:Generated_Source\PSoC4/USB_UART_UART.c **** *   - Bit value 0 – excludes bit from address comparison.
 454:Generated_Source\PSoC4/USB_UART_UART.c **** *   - Bit value 1 – the bit needs to match with the corresponding bit
 455:Generated_Source\PSoC4/USB_UART_UART.c **** *     of the address.
ARM GAS  C:\Users\AFDHAL~1\AppData\Local\Temp\ccWI4vUi.s 			page 15


 456:Generated_Source\PSoC4/USB_UART_UART.c **** *
 457:Generated_Source\PSoC4/USB_UART_UART.c **** *******************************************************************************/
 458:Generated_Source\PSoC4/USB_UART_UART.c **** void USB_UART_UartSetRxAddressMask(uint32 addressMask)
 459:Generated_Source\PSoC4/USB_UART_UART.c **** {
 304              		.loc 1 459 0
 305              		.cfi_startproc
 306              		@ args = 0, pretend = 0, frame = 0
 307              		@ frame_needed = 0, uses_anonymous_args = 0
 308              		@ link register save eliminated.
 309              	.LVL8:
 460:Generated_Source\PSoC4/USB_UART_UART.c ****     uint32 matchReg;
 461:Generated_Source\PSoC4/USB_UART_UART.c **** 
 462:Generated_Source\PSoC4/USB_UART_UART.c ****     matchReg = USB_UART_RX_MATCH_REG;
 310              		.loc 1 462 0
 311 0000 034A     		ldr	r2, .L14
 463:Generated_Source\PSoC4/USB_UART_UART.c **** 
 464:Generated_Source\PSoC4/USB_UART_UART.c ****     matchReg &= ((uint32) ~USB_UART_RX_MATCH_MASK_MASK); /* Clear address mask bits */
 312              		.loc 1 464 0
 313 0002 044B     		ldr	r3, .L14+4
 462:Generated_Source\PSoC4/USB_UART_UART.c **** 
 314              		.loc 1 462 0
 315 0004 1168     		ldr	r1, [r2]
 316              	.LVL9:
 465:Generated_Source\PSoC4/USB_UART_UART.c ****     matchReg |= ((uint32) (addressMask << USB_UART_RX_MATCH_MASK_POS));
 317              		.loc 1 465 0
 318 0006 0004     		lsls	r0, r0, #16
 319              	.LVL10:
 464:Generated_Source\PSoC4/USB_UART_UART.c ****     matchReg |= ((uint32) (addressMask << USB_UART_RX_MATCH_MASK_POS));
 320              		.loc 1 464 0
 321 0008 0B40     		ands	r3, r1
 322              	.LVL11:
 323              		.loc 1 465 0
 324 000a 1843     		orrs	r0, r3
 325              	.LVL12:
 466:Generated_Source\PSoC4/USB_UART_UART.c **** 
 467:Generated_Source\PSoC4/USB_UART_UART.c ****     USB_UART_RX_MATCH_REG = matchReg;
 326              		.loc 1 467 0
 327 000c 1060     		str	r0, [r2]
 468:Generated_Source\PSoC4/USB_UART_UART.c **** }
 328              		.loc 1 468 0
 329              		@ sp needed
 330 000e 7047     		bx	lr
 331              	.L15:
 332              		.align	2
 333              	.L14:
 334 0010 10032740 		.word	1076298512
 335 0014 FFFF00FF 		.word	-16711681
 336              		.cfi_endproc
 337              	.LFE5:
 338              		.size	USB_UART_UartSetRxAddressMask, .-USB_UART_UartSetRxAddressMask
 339              		.section	.text.USB_UART_UartGetChar,"ax",%progbits
 340              		.align	1
 341              		.global	USB_UART_UartGetChar
 342              		.code	16
 343              		.thumb_func
 344              		.type	USB_UART_UartGetChar, %function
 345              	USB_UART_UartGetChar:
ARM GAS  C:\Users\AFDHAL~1\AppData\Local\Temp\ccWI4vUi.s 			page 16


 346              	.LFB6:
 469:Generated_Source\PSoC4/USB_UART_UART.c **** 
 470:Generated_Source\PSoC4/USB_UART_UART.c **** 
 471:Generated_Source\PSoC4/USB_UART_UART.c **** #if(USB_UART_UART_RX_DIRECTION)
 472:Generated_Source\PSoC4/USB_UART_UART.c ****     /*******************************************************************************
 473:Generated_Source\PSoC4/USB_UART_UART.c ****     * Function Name: USB_UART_UartGetChar
 474:Generated_Source\PSoC4/USB_UART_UART.c ****     ****************************************************************************//**
 475:Generated_Source\PSoC4/USB_UART_UART.c ****     *
 476:Generated_Source\PSoC4/USB_UART_UART.c ****     *  Retrieves next data element from receive buffer.
 477:Generated_Source\PSoC4/USB_UART_UART.c ****     *  This function is designed for ASCII characters and returns a char where
 478:Generated_Source\PSoC4/USB_UART_UART.c ****     *  1 to 255 are valid characters and 0 indicates an error occurred or no data
 479:Generated_Source\PSoC4/USB_UART_UART.c ****     *  is present.
 480:Generated_Source\PSoC4/USB_UART_UART.c ****     *  - RX software buffer is disabled: Returns data element retrieved from RX
 481:Generated_Source\PSoC4/USB_UART_UART.c ****     *    FIFO.
 482:Generated_Source\PSoC4/USB_UART_UART.c ****     *  - RX software buffer is enabled: Returns data element from the software
 483:Generated_Source\PSoC4/USB_UART_UART.c ****     *    receive buffer.
 484:Generated_Source\PSoC4/USB_UART_UART.c ****     *
 485:Generated_Source\PSoC4/USB_UART_UART.c ****     *  \return
 486:Generated_Source\PSoC4/USB_UART_UART.c ****     *   Next data element from the receive buffer. ASCII character values from
 487:Generated_Source\PSoC4/USB_UART_UART.c ****     *   1 to 255 are valid. A returned zero signifies an error condition or no
 488:Generated_Source\PSoC4/USB_UART_UART.c ****     *   data available.
 489:Generated_Source\PSoC4/USB_UART_UART.c ****     *
 490:Generated_Source\PSoC4/USB_UART_UART.c ****     *  \sideeffect
 491:Generated_Source\PSoC4/USB_UART_UART.c ****     *   The errors bits may not correspond with reading characters due to
 492:Generated_Source\PSoC4/USB_UART_UART.c ****     *   RX FIFO and software buffer usage.
 493:Generated_Source\PSoC4/USB_UART_UART.c ****     *   RX software buffer is enabled: The internal software buffer overflow
 494:Generated_Source\PSoC4/USB_UART_UART.c ****     *   is not treated as an error condition.
 495:Generated_Source\PSoC4/USB_UART_UART.c ****     *   Check USB_UART_rxBufferOverflow to capture that error condition.
 496:Generated_Source\PSoC4/USB_UART_UART.c ****     *
 497:Generated_Source\PSoC4/USB_UART_UART.c ****     *******************************************************************************/
 498:Generated_Source\PSoC4/USB_UART_UART.c ****     uint32 USB_UART_UartGetChar(void)
 499:Generated_Source\PSoC4/USB_UART_UART.c ****     {
 347              		.loc 1 499 0
 348              		.cfi_startproc
 349              		@ args = 0, pretend = 0, frame = 0
 350              		@ frame_needed = 0, uses_anonymous_args = 0
 351              	.LVL13:
 352 0000 10B5     		push	{r4, lr}
 353              		.cfi_def_cfa_offset 8
 354              		.cfi_offset 4, -8
 355              		.cfi_offset 14, -4
 500:Generated_Source\PSoC4/USB_UART_UART.c ****         uint32 rxData = 0u;
 501:Generated_Source\PSoC4/USB_UART_UART.c **** 
 502:Generated_Source\PSoC4/USB_UART_UART.c ****         /* Reads data only if there is data to read */
 503:Generated_Source\PSoC4/USB_UART_UART.c ****         if (0u != USB_UART_SpiUartGetRxBufferSize())
 356              		.loc 1 503 0
 357 0002 FFF7FEFF 		bl	USB_UART_SpiUartGetRxBufferSize
 358              	.LVL14:
 359 0006 0300     		movs	r3, r0
 500:Generated_Source\PSoC4/USB_UART_UART.c ****         uint32 rxData = 0u;
 360              		.loc 1 500 0
 361 0008 0020     		movs	r0, #0
 362              		.loc 1 503 0
 363 000a 8342     		cmp	r3, r0
 364 000c 01D0     		beq	.L17
 504:Generated_Source\PSoC4/USB_UART_UART.c ****         {
 505:Generated_Source\PSoC4/USB_UART_UART.c ****             rxData = USB_UART_SpiUartReadRxData();
ARM GAS  C:\Users\AFDHAL~1\AppData\Local\Temp\ccWI4vUi.s 			page 17


 365              		.loc 1 505 0
 366 000e FFF7FEFF 		bl	USB_UART_SpiUartReadRxData
 367              	.LVL15:
 368              	.L17:
 506:Generated_Source\PSoC4/USB_UART_UART.c ****         }
 507:Generated_Source\PSoC4/USB_UART_UART.c **** 
 508:Generated_Source\PSoC4/USB_UART_UART.c ****         if (USB_UART_CHECK_INTR_RX(USB_UART_INTR_RX_ERR))
 369              		.loc 1 508 0
 370 0012 D822     		movs	r2, #216
 371 0014 034B     		ldr	r3, .L25
 372 0016 9200     		lsls	r2, r2, #2
 373 0018 1968     		ldr	r1, [r3]
 374 001a 1142     		tst	r1, r2
 375 001c 01D0     		beq	.L18
 376              	.LVL16:
 509:Generated_Source\PSoC4/USB_UART_UART.c ****         {
 510:Generated_Source\PSoC4/USB_UART_UART.c ****             rxData = 0u; /* Error occurred: returns zero */
 377              		.loc 1 510 0
 378 001e 0020     		movs	r0, #0
 511:Generated_Source\PSoC4/USB_UART_UART.c ****             USB_UART_ClearRxInterruptSource(USB_UART_INTR_RX_ERR);
 379              		.loc 1 511 0
 380 0020 1A60     		str	r2, [r3]
 381              	.LVL17:
 382              	.L18:
 512:Generated_Source\PSoC4/USB_UART_UART.c ****         }
 513:Generated_Source\PSoC4/USB_UART_UART.c **** 
 514:Generated_Source\PSoC4/USB_UART_UART.c ****         return (rxData);
 515:Generated_Source\PSoC4/USB_UART_UART.c ****     }
 383              		.loc 1 515 0
 384              		@ sp needed
 385 0022 10BD     		pop	{r4, pc}
 386              	.L26:
 387              		.align	2
 388              	.L25:
 389 0024 C00F2740 		.word	1076301760
 390              		.cfi_endproc
 391              	.LFE6:
 392              		.size	USB_UART_UartGetChar, .-USB_UART_UartGetChar
 393              		.section	.text.USB_UART_UartGetByte,"ax",%progbits
 394              		.align	1
 395              		.global	USB_UART_UartGetByte
 396              		.code	16
 397              		.thumb_func
 398              		.type	USB_UART_UartGetByte, %function
 399              	USB_UART_UartGetByte:
 400              	.LFB7:
 516:Generated_Source\PSoC4/USB_UART_UART.c **** 
 517:Generated_Source\PSoC4/USB_UART_UART.c **** 
 518:Generated_Source\PSoC4/USB_UART_UART.c ****     /*******************************************************************************
 519:Generated_Source\PSoC4/USB_UART_UART.c ****     * Function Name: USB_UART_UartGetByte
 520:Generated_Source\PSoC4/USB_UART_UART.c ****     ****************************************************************************//**
 521:Generated_Source\PSoC4/USB_UART_UART.c ****     *
 522:Generated_Source\PSoC4/USB_UART_UART.c ****     *  Retrieves the next data element from the receive buffer, returns the
 523:Generated_Source\PSoC4/USB_UART_UART.c ****     *  received byte and error condition.
 524:Generated_Source\PSoC4/USB_UART_UART.c ****     *   - The RX software buffer is disabled: returns the data element retrieved
 525:Generated_Source\PSoC4/USB_UART_UART.c ****     *     from the RX FIFO. Undefined data will be returned if the RX FIFO is
 526:Generated_Source\PSoC4/USB_UART_UART.c ****     *     empty.
ARM GAS  C:\Users\AFDHAL~1\AppData\Local\Temp\ccWI4vUi.s 			page 18


 527:Generated_Source\PSoC4/USB_UART_UART.c ****     *   - The RX software buffer is enabled: returns data element from the
 528:Generated_Source\PSoC4/USB_UART_UART.c ****     *     software receive buffer.
 529:Generated_Source\PSoC4/USB_UART_UART.c ****     *
 530:Generated_Source\PSoC4/USB_UART_UART.c ****     *  \return
 531:Generated_Source\PSoC4/USB_UART_UART.c ****     *   Bits 7-0 contain the next data element from the receive buffer and
 532:Generated_Source\PSoC4/USB_UART_UART.c ****     *   other bits contain the error condition.
 533:Generated_Source\PSoC4/USB_UART_UART.c ****     *   - USB_UART_UART_RX_OVERFLOW - Attempt to write to a full
 534:Generated_Source\PSoC4/USB_UART_UART.c ****     *     receiver FIFO.
 535:Generated_Source\PSoC4/USB_UART_UART.c ****     *   - USB_UART_UART_RX_UNDERFLOW    Attempt to read from an empty
 536:Generated_Source\PSoC4/USB_UART_UART.c ****     *     receiver FIFO.
 537:Generated_Source\PSoC4/USB_UART_UART.c ****     *   - USB_UART_UART_RX_FRAME_ERROR - UART framing error detected.
 538:Generated_Source\PSoC4/USB_UART_UART.c ****     *   - USB_UART_UART_RX_PARITY_ERROR - UART parity error detected.
 539:Generated_Source\PSoC4/USB_UART_UART.c ****     *
 540:Generated_Source\PSoC4/USB_UART_UART.c ****     *  \sideeffect
 541:Generated_Source\PSoC4/USB_UART_UART.c ****     *   The errors bits may not correspond with reading characters due to
 542:Generated_Source\PSoC4/USB_UART_UART.c ****     *   RX FIFO and software buffer usage.
 543:Generated_Source\PSoC4/USB_UART_UART.c ****     *   RX software buffer is enabled: The internal software buffer overflow
 544:Generated_Source\PSoC4/USB_UART_UART.c ****     *   is not treated as an error condition.
 545:Generated_Source\PSoC4/USB_UART_UART.c ****     *   Check USB_UART_rxBufferOverflow to capture that error condition.
 546:Generated_Source\PSoC4/USB_UART_UART.c ****     *
 547:Generated_Source\PSoC4/USB_UART_UART.c ****     *******************************************************************************/
 548:Generated_Source\PSoC4/USB_UART_UART.c ****     uint32 USB_UART_UartGetByte(void)
 549:Generated_Source\PSoC4/USB_UART_UART.c ****     {
 401              		.loc 1 549 0
 402              		.cfi_startproc
 403              		@ args = 0, pretend = 0, frame = 0
 404              		@ frame_needed = 0, uses_anonymous_args = 0
 405 0000 70B5     		push	{r4, r5, r6, lr}
 406              		.cfi_def_cfa_offset 16
 407              		.cfi_offset 4, -16
 408              		.cfi_offset 5, -12
 409              		.cfi_offset 6, -8
 410              		.cfi_offset 14, -4
 550:Generated_Source\PSoC4/USB_UART_UART.c ****         uint32 rxData;
 551:Generated_Source\PSoC4/USB_UART_UART.c ****         uint32 tmpStatus;
 552:Generated_Source\PSoC4/USB_UART_UART.c **** 
 553:Generated_Source\PSoC4/USB_UART_UART.c ****         #if (USB_UART_CHECK_RX_SW_BUFFER)
 554:Generated_Source\PSoC4/USB_UART_UART.c ****         {
 555:Generated_Source\PSoC4/USB_UART_UART.c ****             USB_UART_DisableInt();
 411              		.loc 1 555 0
 412 0002 0B20     		movs	r0, #11
 413 0004 FFF7FEFF 		bl	CyIntDisable
 414              	.LVL18:
 556:Generated_Source\PSoC4/USB_UART_UART.c ****         }
 557:Generated_Source\PSoC4/USB_UART_UART.c ****         #endif
 558:Generated_Source\PSoC4/USB_UART_UART.c **** 
 559:Generated_Source\PSoC4/USB_UART_UART.c ****         if (0u != USB_UART_SpiUartGetRxBufferSize())
 415              		.loc 1 559 0
 416 0008 FFF7FEFF 		bl	USB_UART_SpiUartGetRxBufferSize
 417              	.LVL19:
 418 000c 0D4D     		ldr	r5, .L30
 419 000e 0028     		cmp	r0, #0
 420 0010 06D0     		beq	.L28
 560:Generated_Source\PSoC4/USB_UART_UART.c ****         {
 561:Generated_Source\PSoC4/USB_UART_UART.c ****             /* Enables interrupt to receive more bytes: at least one byte is in
 562:Generated_Source\PSoC4/USB_UART_UART.c ****             * buffer.
 563:Generated_Source\PSoC4/USB_UART_UART.c ****             */
ARM GAS  C:\Users\AFDHAL~1\AppData\Local\Temp\ccWI4vUi.s 			page 19


 564:Generated_Source\PSoC4/USB_UART_UART.c ****             #if (USB_UART_CHECK_RX_SW_BUFFER)
 565:Generated_Source\PSoC4/USB_UART_UART.c ****             {
 566:Generated_Source\PSoC4/USB_UART_UART.c ****                 USB_UART_EnableInt();
 421              		.loc 1 566 0
 422 0012 0B20     		movs	r0, #11
 423 0014 FFF7FEFF 		bl	CyIntEnable
 424              	.LVL20:
 567:Generated_Source\PSoC4/USB_UART_UART.c ****             }
 568:Generated_Source\PSoC4/USB_UART_UART.c ****             #endif
 569:Generated_Source\PSoC4/USB_UART_UART.c **** 
 570:Generated_Source\PSoC4/USB_UART_UART.c ****             /* Get received byte */
 571:Generated_Source\PSoC4/USB_UART_UART.c ****             rxData = USB_UART_SpiUartReadRxData();
 425              		.loc 1 571 0
 426 0018 FFF7FEFF 		bl	USB_UART_SpiUartReadRxData
 427              	.LVL21:
 428 001c 0400     		movs	r4, r0
 429              	.LVL22:
 430 001e 06E0     		b	.L29
 431              	.LVL23:
 432              	.L28:
 572:Generated_Source\PSoC4/USB_UART_UART.c ****         }
 573:Generated_Source\PSoC4/USB_UART_UART.c ****         else
 574:Generated_Source\PSoC4/USB_UART_UART.c ****         {
 575:Generated_Source\PSoC4/USB_UART_UART.c ****             /* Reads a byte directly from RX FIFO: underflow is raised in the
 576:Generated_Source\PSoC4/USB_UART_UART.c ****             * case of empty. Otherwise the first received byte will be read.
 577:Generated_Source\PSoC4/USB_UART_UART.c ****             */
 578:Generated_Source\PSoC4/USB_UART_UART.c ****             rxData = USB_UART_RX_FIFO_RD_REG;
 433              		.loc 1 578 0
 434 0020 094B     		ldr	r3, .L30+4
 579:Generated_Source\PSoC4/USB_UART_UART.c **** 
 580:Generated_Source\PSoC4/USB_UART_UART.c **** 
 581:Generated_Source\PSoC4/USB_UART_UART.c ****             /* Enables interrupt to receive more bytes. */
 582:Generated_Source\PSoC4/USB_UART_UART.c ****             #if (USB_UART_CHECK_RX_SW_BUFFER)
 583:Generated_Source\PSoC4/USB_UART_UART.c ****             {
 584:Generated_Source\PSoC4/USB_UART_UART.c **** 
 585:Generated_Source\PSoC4/USB_UART_UART.c ****                 /* The byte has been read from RX FIFO. Clear RX interrupt to
 586:Generated_Source\PSoC4/USB_UART_UART.c ****                 * not involve interrupt handler when RX FIFO is empty.
 587:Generated_Source\PSoC4/USB_UART_UART.c ****                 */
 588:Generated_Source\PSoC4/USB_UART_UART.c ****                 USB_UART_ClearRxInterruptSource(USB_UART_INTR_RX_NOT_EMPTY);
 589:Generated_Source\PSoC4/USB_UART_UART.c **** 
 590:Generated_Source\PSoC4/USB_UART_UART.c ****                 USB_UART_EnableInt();
 435              		.loc 1 590 0
 436 0022 0B20     		movs	r0, #11
 578:Generated_Source\PSoC4/USB_UART_UART.c **** 
 437              		.loc 1 578 0
 438 0024 1C68     		ldr	r4, [r3]
 439              	.LVL24:
 588:Generated_Source\PSoC4/USB_UART_UART.c **** 
 440              		.loc 1 588 0
 441 0026 0423     		movs	r3, #4
 442 0028 2B60     		str	r3, [r5]
 443              		.loc 1 590 0
 444 002a FFF7FEFF 		bl	CyIntEnable
 445              	.LVL25:
 446              	.L29:
 591:Generated_Source\PSoC4/USB_UART_UART.c ****             }
 592:Generated_Source\PSoC4/USB_UART_UART.c ****             #endif
ARM GAS  C:\Users\AFDHAL~1\AppData\Local\Temp\ccWI4vUi.s 			page 20


 593:Generated_Source\PSoC4/USB_UART_UART.c ****         }
 594:Generated_Source\PSoC4/USB_UART_UART.c **** 
 595:Generated_Source\PSoC4/USB_UART_UART.c ****         /* Get and clear RX error mask */
 596:Generated_Source\PSoC4/USB_UART_UART.c ****         tmpStatus = (USB_UART_GetRxInterruptSource() & USB_UART_INTR_RX_ERR);
 597:Generated_Source\PSoC4/USB_UART_UART.c ****         USB_UART_ClearRxInterruptSource(USB_UART_INTR_RX_ERR);
 447              		.loc 1 597 0
 448 002e D823     		movs	r3, #216
 449 0030 9B00     		lsls	r3, r3, #2
 596:Generated_Source\PSoC4/USB_UART_UART.c ****         USB_UART_ClearRxInterruptSource(USB_UART_INTR_RX_ERR);
 450              		.loc 1 596 0
 451 0032 2868     		ldr	r0, [r5]
 452              	.LVL26:
 453              		.loc 1 597 0
 454 0034 2B60     		str	r3, [r5]
 455              	.LVL27:
 598:Generated_Source\PSoC4/USB_UART_UART.c **** 
 599:Generated_Source\PSoC4/USB_UART_UART.c ****         /* Puts together data and error status:
 600:Generated_Source\PSoC4/USB_UART_UART.c ****         * MP mode and accept address: 9th bit is set to notify mark.
 601:Generated_Source\PSoC4/USB_UART_UART.c ****         */
 602:Generated_Source\PSoC4/USB_UART_UART.c ****         rxData |= ((uint32) (tmpStatus << 8u));
 603:Generated_Source\PSoC4/USB_UART_UART.c **** 
 604:Generated_Source\PSoC4/USB_UART_UART.c ****         return (rxData);
 456              		.loc 1 604 0
 457 0036 D823     		movs	r3, #216
 458 0038 0002     		lsls	r0, r0, #8
 459              	.LVL28:
 460 003a 9B02     		lsls	r3, r3, #10
 461 003c 1840     		ands	r0, r3
 462 003e 2043     		orrs	r0, r4
 605:Generated_Source\PSoC4/USB_UART_UART.c ****     }
 463              		.loc 1 605 0
 464              		@ sp needed
 465 0040 70BD     		pop	{r4, r5, r6, pc}
 466              	.L31:
 467 0042 C046     		.align	2
 468              	.L30:
 469 0044 C00F2740 		.word	1076301760
 470 0048 40032740 		.word	1076298560
 471              		.cfi_endproc
 472              	.LFE7:
 473              		.size	USB_UART_UartGetByte, .-USB_UART_UartGetByte
 474              		.section	.text.USB_UART_UartSetRtsPolarity,"ax",%progbits
 475              		.align	1
 476              		.global	USB_UART_UartSetRtsPolarity
 477              		.code	16
 478              		.thumb_func
 479              		.type	USB_UART_UartSetRtsPolarity, %function
 480              	USB_UART_UartSetRtsPolarity:
 481              	.LFB8:
 606:Generated_Source\PSoC4/USB_UART_UART.c **** 
 607:Generated_Source\PSoC4/USB_UART_UART.c **** 
 608:Generated_Source\PSoC4/USB_UART_UART.c ****     #if !(USB_UART_CY_SCBIP_V0 || USB_UART_CY_SCBIP_V1)
 609:Generated_Source\PSoC4/USB_UART_UART.c ****         /*******************************************************************************
 610:Generated_Source\PSoC4/USB_UART_UART.c ****         * Function Name: USB_UART_UartSetRtsPolarity
 611:Generated_Source\PSoC4/USB_UART_UART.c ****         ****************************************************************************//**
 612:Generated_Source\PSoC4/USB_UART_UART.c ****         *
 613:Generated_Source\PSoC4/USB_UART_UART.c ****         *  Sets active polarity of RTS output signal.
ARM GAS  C:\Users\AFDHAL~1\AppData\Local\Temp\ccWI4vUi.s 			page 21


 614:Generated_Source\PSoC4/USB_UART_UART.c ****         *  Only available for PSoC 4100 BLE / PSoC 4200 BLE / PSoC 4100M / PSoC 4200M /
 615:Generated_Source\PSoC4/USB_UART_UART.c ****         *  PSoC 4200L / PSoC 4000S / PSoC 4100S / PSoC Analog Coprocessor devices.
 616:Generated_Source\PSoC4/USB_UART_UART.c ****         *
 617:Generated_Source\PSoC4/USB_UART_UART.c ****         *  \param polarity: Active polarity of RTS output signal.
 618:Generated_Source\PSoC4/USB_UART_UART.c ****         *   - USB_UART_UART_RTS_ACTIVE_LOW  - RTS signal is active low.
 619:Generated_Source\PSoC4/USB_UART_UART.c ****         *   - USB_UART_UART_RTS_ACTIVE_HIGH - RTS signal is active high.
 620:Generated_Source\PSoC4/USB_UART_UART.c ****         *
 621:Generated_Source\PSoC4/USB_UART_UART.c ****         *******************************************************************************/
 622:Generated_Source\PSoC4/USB_UART_UART.c ****         void USB_UART_UartSetRtsPolarity(uint32 polarity)
 623:Generated_Source\PSoC4/USB_UART_UART.c ****         {
 482              		.loc 1 623 0
 483              		.cfi_startproc
 484              		@ args = 0, pretend = 0, frame = 0
 485              		@ frame_needed = 0, uses_anonymous_args = 0
 486              		@ link register save eliminated.
 487              	.LVL29:
 488 0000 064B     		ldr	r3, .L36
 624:Generated_Source\PSoC4/USB_UART_UART.c ****             if(0u != polarity)
 489              		.loc 1 624 0
 490 0002 0028     		cmp	r0, #0
 491 0004 04D0     		beq	.L33
 625:Generated_Source\PSoC4/USB_UART_UART.c ****             {
 626:Generated_Source\PSoC4/USB_UART_UART.c ****                 USB_UART_UART_FLOW_CTRL_REG |= (uint32)  USB_UART_UART_FLOW_CTRL_RTS_POLARITY;
 492              		.loc 1 626 0
 493 0006 8021     		movs	r1, #128
 494 0008 1A68     		ldr	r2, [r3]
 495 000a 4902     		lsls	r1, r1, #9
 496 000c 0A43     		orrs	r2, r1
 497 000e 02E0     		b	.L35
 498              	.L33:
 627:Generated_Source\PSoC4/USB_UART_UART.c ****             }
 628:Generated_Source\PSoC4/USB_UART_UART.c ****             else
 629:Generated_Source\PSoC4/USB_UART_UART.c ****             {
 630:Generated_Source\PSoC4/USB_UART_UART.c ****                 USB_UART_UART_FLOW_CTRL_REG &= (uint32) ~USB_UART_UART_FLOW_CTRL_RTS_POLARITY;
 499              		.loc 1 630 0
 500 0010 1968     		ldr	r1, [r3]
 501 0012 034A     		ldr	r2, .L36+4
 502 0014 0A40     		ands	r2, r1
 503              	.L35:
 504 0016 1A60     		str	r2, [r3]
 631:Generated_Source\PSoC4/USB_UART_UART.c ****             }
 632:Generated_Source\PSoC4/USB_UART_UART.c ****         }
 505              		.loc 1 632 0
 506              		@ sp needed
 507 0018 7047     		bx	lr
 508              	.L37:
 509 001a C046     		.align	2
 510              	.L36:
 511 001c 50002740 		.word	1076297808
 512 0020 FFFFFEFF 		.word	-65537
 513              		.cfi_endproc
 514              	.LFE8:
 515              		.size	USB_UART_UartSetRtsPolarity, .-USB_UART_UartSetRtsPolarity
 516              		.section	.text.USB_UART_UartSetRtsFifoLevel,"ax",%progbits
 517              		.align	1
 518              		.global	USB_UART_UartSetRtsFifoLevel
 519              		.code	16
ARM GAS  C:\Users\AFDHAL~1\AppData\Local\Temp\ccWI4vUi.s 			page 22


 520              		.thumb_func
 521              		.type	USB_UART_UartSetRtsFifoLevel, %function
 522              	USB_UART_UartSetRtsFifoLevel:
 523              	.LFB9:
 633:Generated_Source\PSoC4/USB_UART_UART.c **** 
 634:Generated_Source\PSoC4/USB_UART_UART.c **** 
 635:Generated_Source\PSoC4/USB_UART_UART.c ****         /*******************************************************************************
 636:Generated_Source\PSoC4/USB_UART_UART.c ****         * Function Name: USB_UART_UartSetRtsFifoLevel
 637:Generated_Source\PSoC4/USB_UART_UART.c ****         ****************************************************************************//**
 638:Generated_Source\PSoC4/USB_UART_UART.c ****         *
 639:Generated_Source\PSoC4/USB_UART_UART.c ****         *  Sets level in the RX FIFO for RTS signal activation.
 640:Generated_Source\PSoC4/USB_UART_UART.c ****         *  While the RX FIFO has fewer entries than the RX FIFO level the RTS signal
 641:Generated_Source\PSoC4/USB_UART_UART.c ****         *  remains active, otherwise the RTS signal becomes inactive.
 642:Generated_Source\PSoC4/USB_UART_UART.c ****         *  Only available for PSoC 4100 BLE / PSoC 4200 BLE / PSoC 4100M / PSoC 4200M /
 643:Generated_Source\PSoC4/USB_UART_UART.c ****         *  PSoC 4200L / PSoC 4000S / PSoC 4100S / PSoC Analog Coprocessor devices.
 644:Generated_Source\PSoC4/USB_UART_UART.c ****         *
 645:Generated_Source\PSoC4/USB_UART_UART.c ****         *  \param level: Level in the RX FIFO for RTS signal activation.
 646:Generated_Source\PSoC4/USB_UART_UART.c ****         *   The range of valid level values is between 0 and RX FIFO depth - 1.
 647:Generated_Source\PSoC4/USB_UART_UART.c ****         *   Setting level value to 0 disables RTS signal activation.
 648:Generated_Source\PSoC4/USB_UART_UART.c ****         *
 649:Generated_Source\PSoC4/USB_UART_UART.c ****         *******************************************************************************/
 650:Generated_Source\PSoC4/USB_UART_UART.c ****         void USB_UART_UartSetRtsFifoLevel(uint32 level)
 651:Generated_Source\PSoC4/USB_UART_UART.c ****         {
 524              		.loc 1 651 0
 525              		.cfi_startproc
 526              		@ args = 0, pretend = 0, frame = 0
 527              		@ frame_needed = 0, uses_anonymous_args = 0
 528              		@ link register save eliminated.
 529              	.LVL30:
 652:Generated_Source\PSoC4/USB_UART_UART.c ****             uint32 uartFlowCtrl;
 653:Generated_Source\PSoC4/USB_UART_UART.c **** 
 654:Generated_Source\PSoC4/USB_UART_UART.c ****             uartFlowCtrl = USB_UART_UART_FLOW_CTRL_REG;
 655:Generated_Source\PSoC4/USB_UART_UART.c **** 
 656:Generated_Source\PSoC4/USB_UART_UART.c ****             uartFlowCtrl &= ((uint32) ~USB_UART_UART_FLOW_CTRL_TRIGGER_LEVEL_MASK); /* Clear level 
 530              		.loc 1 656 0
 531 0000 0F22     		movs	r2, #15
 654:Generated_Source\PSoC4/USB_UART_UART.c **** 
 532              		.loc 1 654 0
 533 0002 0349     		ldr	r1, .L39
 657:Generated_Source\PSoC4/USB_UART_UART.c ****             uartFlowCtrl |= ((uint32) (USB_UART_UART_FLOW_CTRL_TRIGGER_LEVEL_MASK & level));
 534              		.loc 1 657 0
 535 0004 1040     		ands	r0, r2
 536              	.LVL31:
 654:Generated_Source\PSoC4/USB_UART_UART.c **** 
 537              		.loc 1 654 0
 538 0006 0B68     		ldr	r3, [r1]
 539              	.LVL32:
 658:Generated_Source\PSoC4/USB_UART_UART.c **** 
 659:Generated_Source\PSoC4/USB_UART_UART.c ****             USB_UART_UART_FLOW_CTRL_REG = uartFlowCtrl;
 660:Generated_Source\PSoC4/USB_UART_UART.c ****         }
 540              		.loc 1 660 0
 541              		@ sp needed
 656:Generated_Source\PSoC4/USB_UART_UART.c ****             uartFlowCtrl |= ((uint32) (USB_UART_UART_FLOW_CTRL_TRIGGER_LEVEL_MASK & level));
 542              		.loc 1 656 0
 543 0008 9343     		bics	r3, r2
 544              	.LVL33:
 657:Generated_Source\PSoC4/USB_UART_UART.c ****             uartFlowCtrl |= ((uint32) (USB_UART_UART_FLOW_CTRL_TRIGGER_LEVEL_MASK & level));
ARM GAS  C:\Users\AFDHAL~1\AppData\Local\Temp\ccWI4vUi.s 			page 23


 545              		.loc 1 657 0
 546 000a 1843     		orrs	r0, r3
 547              	.LVL34:
 659:Generated_Source\PSoC4/USB_UART_UART.c ****         }
 548              		.loc 1 659 0
 549 000c 0860     		str	r0, [r1]
 550              		.loc 1 660 0
 551 000e 7047     		bx	lr
 552              	.L40:
 553              		.align	2
 554              	.L39:
 555 0010 50002740 		.word	1076297808
 556              		.cfi_endproc
 557              	.LFE9:
 558              		.size	USB_UART_UartSetRtsFifoLevel, .-USB_UART_UartSetRtsFifoLevel
 559              		.section	.text.USB_UART_UartPutString,"ax",%progbits
 560              		.align	1
 561              		.global	USB_UART_UartPutString
 562              		.code	16
 563              		.thumb_func
 564              		.type	USB_UART_UartPutString, %function
 565              	USB_UART_UartPutString:
 566              	.LFB10:
 661:Generated_Source\PSoC4/USB_UART_UART.c ****     #endif /* !(USB_UART_CY_SCBIP_V0 || USB_UART_CY_SCBIP_V1) */
 662:Generated_Source\PSoC4/USB_UART_UART.c **** 
 663:Generated_Source\PSoC4/USB_UART_UART.c **** #endif /* (USB_UART_UART_RX_DIRECTION) */
 664:Generated_Source\PSoC4/USB_UART_UART.c **** 
 665:Generated_Source\PSoC4/USB_UART_UART.c **** 
 666:Generated_Source\PSoC4/USB_UART_UART.c **** #if(USB_UART_UART_TX_DIRECTION)
 667:Generated_Source\PSoC4/USB_UART_UART.c ****     /*******************************************************************************
 668:Generated_Source\PSoC4/USB_UART_UART.c ****     * Function Name: USB_UART_UartPutString
 669:Generated_Source\PSoC4/USB_UART_UART.c ****     ****************************************************************************//**
 670:Generated_Source\PSoC4/USB_UART_UART.c ****     *
 671:Generated_Source\PSoC4/USB_UART_UART.c ****     *  Places a NULL terminated string in the transmit buffer to be sent at the
 672:Generated_Source\PSoC4/USB_UART_UART.c ****     *  next available bus time.
 673:Generated_Source\PSoC4/USB_UART_UART.c ****     *  This function is blocking and waits until there is a space available to put
 674:Generated_Source\PSoC4/USB_UART_UART.c ****     *  requested data in transmit buffer.
 675:Generated_Source\PSoC4/USB_UART_UART.c ****     *
 676:Generated_Source\PSoC4/USB_UART_UART.c ****     *  \param string: pointer to the null terminated string array to be placed in the
 677:Generated_Source\PSoC4/USB_UART_UART.c ****     *   transmit buffer.
 678:Generated_Source\PSoC4/USB_UART_UART.c ****     *
 679:Generated_Source\PSoC4/USB_UART_UART.c ****     *******************************************************************************/
 680:Generated_Source\PSoC4/USB_UART_UART.c ****     void USB_UART_UartPutString(const char8 string[])
 681:Generated_Source\PSoC4/USB_UART_UART.c ****     {
 567              		.loc 1 681 0
 568              		.cfi_startproc
 569              		@ args = 0, pretend = 0, frame = 0
 570              		@ frame_needed = 0, uses_anonymous_args = 0
 571              	.LVL35:
 572 0000 10B5     		push	{r4, lr}
 573              		.cfi_def_cfa_offset 8
 574              		.cfi_offset 4, -8
 575              		.cfi_offset 14, -4
 576 0002 0400     		movs	r4, r0
 577              	.LVL36:
 578              	.L42:
 579 0004 0134     		adds	r4, r4, #1
ARM GAS  C:\Users\AFDHAL~1\AppData\Local\Temp\ccWI4vUi.s 			page 24


 580              	.LVL37:
 682:Generated_Source\PSoC4/USB_UART_UART.c ****         uint32 bufIndex;
 683:Generated_Source\PSoC4/USB_UART_UART.c **** 
 684:Generated_Source\PSoC4/USB_UART_UART.c ****         bufIndex = 0u;
 685:Generated_Source\PSoC4/USB_UART_UART.c **** 
 686:Generated_Source\PSoC4/USB_UART_UART.c ****         /* Blocks the control flow until all data has been sent */
 687:Generated_Source\PSoC4/USB_UART_UART.c ****         while(string[bufIndex] != ((char8) 0))
 581              		.loc 1 687 0
 582 0006 631E     		subs	r3, r4, #1
 583 0008 1878     		ldrb	r0, [r3]
 584 000a 0028     		cmp	r0, #0
 585 000c 02D0     		beq	.L44
 688:Generated_Source\PSoC4/USB_UART_UART.c ****         {
 689:Generated_Source\PSoC4/USB_UART_UART.c ****             USB_UART_UartPutChar((uint32) string[bufIndex]);
 586              		.loc 1 689 0
 587 000e FFF7FEFF 		bl	USB_UART_SpiUartWriteTxData
 588              	.LVL38:
 589 0012 F7E7     		b	.L42
 590              	.LVL39:
 591              	.L44:
 690:Generated_Source\PSoC4/USB_UART_UART.c ****             bufIndex++;
 691:Generated_Source\PSoC4/USB_UART_UART.c ****         }
 692:Generated_Source\PSoC4/USB_UART_UART.c ****     }
 592              		.loc 1 692 0
 593              		@ sp needed
 594              	.LVL40:
 595 0014 10BD     		pop	{r4, pc}
 596              		.cfi_endproc
 597              	.LFE10:
 598              		.size	USB_UART_UartPutString, .-USB_UART_UartPutString
 599              		.section	.text.USB_UART_UartPutCRLF,"ax",%progbits
 600              		.align	1
 601              		.global	USB_UART_UartPutCRLF
 602              		.code	16
 603              		.thumb_func
 604              		.type	USB_UART_UartPutCRLF, %function
 605              	USB_UART_UartPutCRLF:
 606              	.LFB11:
 693:Generated_Source\PSoC4/USB_UART_UART.c **** 
 694:Generated_Source\PSoC4/USB_UART_UART.c **** 
 695:Generated_Source\PSoC4/USB_UART_UART.c ****     /*******************************************************************************
 696:Generated_Source\PSoC4/USB_UART_UART.c ****     * Function Name: USB_UART_UartPutCRLF
 697:Generated_Source\PSoC4/USB_UART_UART.c ****     ****************************************************************************//**
 698:Generated_Source\PSoC4/USB_UART_UART.c ****     *
 699:Generated_Source\PSoC4/USB_UART_UART.c ****     *  Places byte of data followed by a carriage return (0x0D) and line feed
 700:Generated_Source\PSoC4/USB_UART_UART.c ****     *  (0x0A) in the transmit buffer.
 701:Generated_Source\PSoC4/USB_UART_UART.c ****     *  This function is blocking and waits until there is a space available to put
 702:Generated_Source\PSoC4/USB_UART_UART.c ****     *  all requested data in transmit buffer.
 703:Generated_Source\PSoC4/USB_UART_UART.c ****     *
 704:Generated_Source\PSoC4/USB_UART_UART.c ****     *  \param txDataByte: the data to be transmitted.
 705:Generated_Source\PSoC4/USB_UART_UART.c ****     *
 706:Generated_Source\PSoC4/USB_UART_UART.c ****     *******************************************************************************/
 707:Generated_Source\PSoC4/USB_UART_UART.c ****     void USB_UART_UartPutCRLF(uint32 txDataByte)
 708:Generated_Source\PSoC4/USB_UART_UART.c ****     {
 607              		.loc 1 708 0
 608              		.cfi_startproc
 609              		@ args = 0, pretend = 0, frame = 0
ARM GAS  C:\Users\AFDHAL~1\AppData\Local\Temp\ccWI4vUi.s 			page 25


 610              		@ frame_needed = 0, uses_anonymous_args = 0
 611              	.LVL41:
 612 0000 10B5     		push	{r4, lr}
 613              		.cfi_def_cfa_offset 8
 614              		.cfi_offset 4, -8
 615              		.cfi_offset 14, -4
 709:Generated_Source\PSoC4/USB_UART_UART.c ****         USB_UART_UartPutChar(txDataByte);  /* Blocks control flow until all data has been sent */
 616              		.loc 1 709 0
 617 0002 FFF7FEFF 		bl	USB_UART_SpiUartWriteTxData
 618              	.LVL42:
 710:Generated_Source\PSoC4/USB_UART_UART.c ****         USB_UART_UartPutChar(0x0Du);       /* Blocks control flow until all data has been sent */
 619              		.loc 1 710 0
 620 0006 0D20     		movs	r0, #13
 621 0008 FFF7FEFF 		bl	USB_UART_SpiUartWriteTxData
 622              	.LVL43:
 711:Generated_Source\PSoC4/USB_UART_UART.c ****         USB_UART_UartPutChar(0x0Au);       /* Blocks control flow until all data has been sent */
 623              		.loc 1 711 0
 624 000c 0A20     		movs	r0, #10
 625 000e FFF7FEFF 		bl	USB_UART_SpiUartWriteTxData
 626              	.LVL44:
 712:Generated_Source\PSoC4/USB_UART_UART.c ****     }
 627              		.loc 1 712 0
 628              		@ sp needed
 629 0012 10BD     		pop	{r4, pc}
 630              		.cfi_endproc
 631              	.LFE11:
 632              		.size	USB_UART_UartPutCRLF, .-USB_UART_UartPutCRLF
 633              		.section	.text.USB_UART_UartEnableCts,"ax",%progbits
 634              		.align	1
 635              		.global	USB_UART_UartEnableCts
 636              		.code	16
 637              		.thumb_func
 638              		.type	USB_UART_UartEnableCts, %function
 639              	USB_UART_UartEnableCts:
 640              	.LFB12:
 713:Generated_Source\PSoC4/USB_UART_UART.c **** 
 714:Generated_Source\PSoC4/USB_UART_UART.c **** 
 715:Generated_Source\PSoC4/USB_UART_UART.c ****     #if !(USB_UART_CY_SCBIP_V0 || USB_UART_CY_SCBIP_V1)
 716:Generated_Source\PSoC4/USB_UART_UART.c ****         /*******************************************************************************
 717:Generated_Source\PSoC4/USB_UART_UART.c ****         * Function Name: USB_UARTSCB_UartEnableCts
 718:Generated_Source\PSoC4/USB_UART_UART.c ****         ****************************************************************************//**
 719:Generated_Source\PSoC4/USB_UART_UART.c ****         *
 720:Generated_Source\PSoC4/USB_UART_UART.c ****         *  Enables usage of CTS input signal by the UART transmitter.
 721:Generated_Source\PSoC4/USB_UART_UART.c ****         *  Only available for PSoC 4100 BLE / PSoC 4200 BLE / PSoC 4100M / PSoC 4200M /
 722:Generated_Source\PSoC4/USB_UART_UART.c ****         *  PSoC 4200L / PSoC 4000S / PSoC 4100S / PSoC Analog Coprocessor devices.
 723:Generated_Source\PSoC4/USB_UART_UART.c ****         *
 724:Generated_Source\PSoC4/USB_UART_UART.c ****         *******************************************************************************/
 725:Generated_Source\PSoC4/USB_UART_UART.c ****         void USB_UART_UartEnableCts(void)
 726:Generated_Source\PSoC4/USB_UART_UART.c ****         {
 641              		.loc 1 726 0
 642              		.cfi_startproc
 643              		@ args = 0, pretend = 0, frame = 0
 644              		@ frame_needed = 0, uses_anonymous_args = 0
 645              		@ link register save eliminated.
 727:Generated_Source\PSoC4/USB_UART_UART.c ****             USB_UART_UART_FLOW_CTRL_REG |= (uint32)  USB_UART_UART_FLOW_CTRL_CTS_ENABLE;
 646              		.loc 1 727 0
 647 0000 8021     		movs	r1, #128
ARM GAS  C:\Users\AFDHAL~1\AppData\Local\Temp\ccWI4vUi.s 			page 26


 648 0002 034A     		ldr	r2, .L47
 649 0004 8904     		lsls	r1, r1, #18
 650 0006 1368     		ldr	r3, [r2]
 728:Generated_Source\PSoC4/USB_UART_UART.c ****         }
 651              		.loc 1 728 0
 652              		@ sp needed
 727:Generated_Source\PSoC4/USB_UART_UART.c ****             USB_UART_UART_FLOW_CTRL_REG |= (uint32)  USB_UART_UART_FLOW_CTRL_CTS_ENABLE;
 653              		.loc 1 727 0
 654 0008 0B43     		orrs	r3, r1
 655 000a 1360     		str	r3, [r2]
 656              		.loc 1 728 0
 657 000c 7047     		bx	lr
 658              	.L48:
 659 000e C046     		.align	2
 660              	.L47:
 661 0010 50002740 		.word	1076297808
 662              		.cfi_endproc
 663              	.LFE12:
 664              		.size	USB_UART_UartEnableCts, .-USB_UART_UartEnableCts
 665              		.section	.text.USB_UART_UartDisableCts,"ax",%progbits
 666              		.align	1
 667              		.global	USB_UART_UartDisableCts
 668              		.code	16
 669              		.thumb_func
 670              		.type	USB_UART_UartDisableCts, %function
 671              	USB_UART_UartDisableCts:
 672              	.LFB13:
 729:Generated_Source\PSoC4/USB_UART_UART.c **** 
 730:Generated_Source\PSoC4/USB_UART_UART.c **** 
 731:Generated_Source\PSoC4/USB_UART_UART.c ****         /*******************************************************************************
 732:Generated_Source\PSoC4/USB_UART_UART.c ****         * Function Name: USB_UART_UartDisableCts
 733:Generated_Source\PSoC4/USB_UART_UART.c ****         ****************************************************************************//**
 734:Generated_Source\PSoC4/USB_UART_UART.c ****         *
 735:Generated_Source\PSoC4/USB_UART_UART.c ****         *  Disables usage of CTS input signal by the UART transmitter.
 736:Generated_Source\PSoC4/USB_UART_UART.c ****         *  Only available for PSoC 4100 BLE / PSoC 4200 BLE / PSoC 4100M / PSoC 4200M /
 737:Generated_Source\PSoC4/USB_UART_UART.c ****         *  PSoC 4200L / PSoC 4000S / PSoC 4100S / PSoC Analog Coprocessor devices.
 738:Generated_Source\PSoC4/USB_UART_UART.c ****         *
 739:Generated_Source\PSoC4/USB_UART_UART.c ****         *******************************************************************************/
 740:Generated_Source\PSoC4/USB_UART_UART.c ****         void USB_UART_UartDisableCts(void)
 741:Generated_Source\PSoC4/USB_UART_UART.c ****         {
 673              		.loc 1 741 0
 674              		.cfi_startproc
 675              		@ args = 0, pretend = 0, frame = 0
 676              		@ frame_needed = 0, uses_anonymous_args = 0
 677              		@ link register save eliminated.
 742:Generated_Source\PSoC4/USB_UART_UART.c ****             USB_UART_UART_FLOW_CTRL_REG &= (uint32) ~USB_UART_UART_FLOW_CTRL_CTS_ENABLE;
 678              		.loc 1 742 0
 679 0000 024A     		ldr	r2, .L50
 680 0002 034B     		ldr	r3, .L50+4
 681 0004 1168     		ldr	r1, [r2]
 743:Generated_Source\PSoC4/USB_UART_UART.c ****         }
 682              		.loc 1 743 0
 683              		@ sp needed
 742:Generated_Source\PSoC4/USB_UART_UART.c ****             USB_UART_UART_FLOW_CTRL_REG &= (uint32) ~USB_UART_UART_FLOW_CTRL_CTS_ENABLE;
 684              		.loc 1 742 0
 685 0006 0B40     		ands	r3, r1
 686 0008 1360     		str	r3, [r2]
ARM GAS  C:\Users\AFDHAL~1\AppData\Local\Temp\ccWI4vUi.s 			page 27


 687              		.loc 1 743 0
 688 000a 7047     		bx	lr
 689              	.L51:
 690              		.align	2
 691              	.L50:
 692 000c 50002740 		.word	1076297808
 693 0010 FFFFFFFD 		.word	-33554433
 694              		.cfi_endproc
 695              	.LFE13:
 696              		.size	USB_UART_UartDisableCts, .-USB_UART_UartDisableCts
 697              		.section	.text.USB_UART_UartSetCtsPolarity,"ax",%progbits
 698              		.align	1
 699              		.global	USB_UART_UartSetCtsPolarity
 700              		.code	16
 701              		.thumb_func
 702              		.type	USB_UART_UartSetCtsPolarity, %function
 703              	USB_UART_UartSetCtsPolarity:
 704              	.LFB14:
 744:Generated_Source\PSoC4/USB_UART_UART.c **** 
 745:Generated_Source\PSoC4/USB_UART_UART.c **** 
 746:Generated_Source\PSoC4/USB_UART_UART.c ****         /*******************************************************************************
 747:Generated_Source\PSoC4/USB_UART_UART.c ****         * Function Name: USB_UART_UartSetCtsPolarity
 748:Generated_Source\PSoC4/USB_UART_UART.c ****         ****************************************************************************//**
 749:Generated_Source\PSoC4/USB_UART_UART.c ****         *
 750:Generated_Source\PSoC4/USB_UART_UART.c ****         *  Sets active polarity of CTS input signal.
 751:Generated_Source\PSoC4/USB_UART_UART.c ****         *  Only available for PSoC 4100 BLE / PSoC 4200 BLE / PSoC 4100M / PSoC 4200M /
 752:Generated_Source\PSoC4/USB_UART_UART.c ****         *  PSoC 4200L / PSoC 4000S / PSoC 4100S / PSoC Analog Coprocessor devices.
 753:Generated_Source\PSoC4/USB_UART_UART.c ****         *
 754:Generated_Source\PSoC4/USB_UART_UART.c ****         * \param
 755:Generated_Source\PSoC4/USB_UART_UART.c ****         * polarity: Active polarity of CTS output signal.
 756:Generated_Source\PSoC4/USB_UART_UART.c ****         *   - USB_UART_UART_CTS_ACTIVE_LOW  - CTS signal is active low.
 757:Generated_Source\PSoC4/USB_UART_UART.c ****         *   - USB_UART_UART_CTS_ACTIVE_HIGH - CTS signal is active high.
 758:Generated_Source\PSoC4/USB_UART_UART.c ****         *
 759:Generated_Source\PSoC4/USB_UART_UART.c ****         *******************************************************************************/
 760:Generated_Source\PSoC4/USB_UART_UART.c ****         void USB_UART_UartSetCtsPolarity(uint32 polarity)
 761:Generated_Source\PSoC4/USB_UART_UART.c ****         {
 705              		.loc 1 761 0
 706              		.cfi_startproc
 707              		@ args = 0, pretend = 0, frame = 0
 708              		@ frame_needed = 0, uses_anonymous_args = 0
 709              		@ link register save eliminated.
 710              	.LVL45:
 711 0000 064B     		ldr	r3, .L56
 762:Generated_Source\PSoC4/USB_UART_UART.c ****             if (0u != polarity)
 712              		.loc 1 762 0
 713 0002 0028     		cmp	r0, #0
 714 0004 04D0     		beq	.L53
 763:Generated_Source\PSoC4/USB_UART_UART.c ****             {
 764:Generated_Source\PSoC4/USB_UART_UART.c ****                 USB_UART_UART_FLOW_CTRL_REG |= (uint32)  USB_UART_UART_FLOW_CTRL_CTS_POLARITY;
 715              		.loc 1 764 0
 716 0006 8021     		movs	r1, #128
 717 0008 1A68     		ldr	r2, [r3]
 718 000a 4904     		lsls	r1, r1, #17
 719 000c 0A43     		orrs	r2, r1
 720 000e 02E0     		b	.L55
 721              	.L53:
 765:Generated_Source\PSoC4/USB_UART_UART.c ****             }
ARM GAS  C:\Users\AFDHAL~1\AppData\Local\Temp\ccWI4vUi.s 			page 28


 766:Generated_Source\PSoC4/USB_UART_UART.c ****             else
 767:Generated_Source\PSoC4/USB_UART_UART.c ****             {
 768:Generated_Source\PSoC4/USB_UART_UART.c ****                 USB_UART_UART_FLOW_CTRL_REG &= (uint32) ~USB_UART_UART_FLOW_CTRL_CTS_POLARITY;
 722              		.loc 1 768 0
 723 0010 1968     		ldr	r1, [r3]
 724 0012 034A     		ldr	r2, .L56+4
 725 0014 0A40     		ands	r2, r1
 726              	.L55:
 727 0016 1A60     		str	r2, [r3]
 769:Generated_Source\PSoC4/USB_UART_UART.c ****             }
 770:Generated_Source\PSoC4/USB_UART_UART.c ****         }
 728              		.loc 1 770 0
 729              		@ sp needed
 730 0018 7047     		bx	lr
 731              	.L57:
 732 001a C046     		.align	2
 733              	.L56:
 734 001c 50002740 		.word	1076297808
 735 0020 FFFFFFFE 		.word	-16777217
 736              		.cfi_endproc
 737              	.LFE14:
 738              		.size	USB_UART_UartSetCtsPolarity, .-USB_UART_UartSetCtsPolarity
 739              		.section	.text.USB_UART_UartSendBreakBlocking,"ax",%progbits
 740              		.align	1
 741              		.global	USB_UART_UartSendBreakBlocking
 742              		.code	16
 743              		.thumb_func
 744              		.type	USB_UART_UartSendBreakBlocking, %function
 745              	USB_UART_UartSendBreakBlocking:
 746              	.LFB15:
 771:Generated_Source\PSoC4/USB_UART_UART.c ****     #endif /* !(USB_UART_CY_SCBIP_V0 || USB_UART_CY_SCBIP_V1) */
 772:Generated_Source\PSoC4/USB_UART_UART.c **** 
 773:Generated_Source\PSoC4/USB_UART_UART.c **** 
 774:Generated_Source\PSoC4/USB_UART_UART.c ****     /*******************************************************************************
 775:Generated_Source\PSoC4/USB_UART_UART.c ****     * Function Name: USB_UART_UartSendBreakBlocking
 776:Generated_Source\PSoC4/USB_UART_UART.c ****     ****************************************************************************//**
 777:Generated_Source\PSoC4/USB_UART_UART.c ****     *
 778:Generated_Source\PSoC4/USB_UART_UART.c ****     * Sends a break condition (logic low) of specified width on UART TX line.
 779:Generated_Source\PSoC4/USB_UART_UART.c ****     * Blocks until break is completed. Only call this function when UART TX FIFO
 780:Generated_Source\PSoC4/USB_UART_UART.c ****     * and shifter are empty.
 781:Generated_Source\PSoC4/USB_UART_UART.c ****     *
 782:Generated_Source\PSoC4/USB_UART_UART.c ****     * \param breakWidth
 783:Generated_Source\PSoC4/USB_UART_UART.c ****     * Width of break condition. Valid range is 4 to 16 bits.
 784:Generated_Source\PSoC4/USB_UART_UART.c ****     *
 785:Generated_Source\PSoC4/USB_UART_UART.c ****     * \note
 786:Generated_Source\PSoC4/USB_UART_UART.c ****     * Before sending break all UART TX interrupt sources are disabled. The state
 787:Generated_Source\PSoC4/USB_UART_UART.c ****     * of UART TX interrupt sources is restored before function returns.
 788:Generated_Source\PSoC4/USB_UART_UART.c ****     *
 789:Generated_Source\PSoC4/USB_UART_UART.c ****     * \sideeffect
 790:Generated_Source\PSoC4/USB_UART_UART.c ****     * If this function is called while there is data in the TX FIFO or shifter that
 791:Generated_Source\PSoC4/USB_UART_UART.c ****     * data will be shifted out in packets the size of breakWidth.
 792:Generated_Source\PSoC4/USB_UART_UART.c ****     *
 793:Generated_Source\PSoC4/USB_UART_UART.c ****     *******************************************************************************/
 794:Generated_Source\PSoC4/USB_UART_UART.c ****     void USB_UART_UartSendBreakBlocking(uint32 breakWidth)
 795:Generated_Source\PSoC4/USB_UART_UART.c ****     {
 747              		.loc 1 795 0
 748              		.cfi_startproc
ARM GAS  C:\Users\AFDHAL~1\AppData\Local\Temp\ccWI4vUi.s 			page 29


 749              		@ args = 0, pretend = 0, frame = 8
 750              		@ frame_needed = 0, uses_anonymous_args = 0
 751              	.LVL46:
 752 0000 F7B5     		push	{r0, r1, r2, r4, r5, r6, r7, lr}
 753              		.cfi_def_cfa_offset 32
 754              		.cfi_offset 0, -32
 755              		.cfi_offset 1, -28
 756              		.cfi_offset 2, -24
 757              		.cfi_offset 4, -20
 758              		.cfi_offset 5, -16
 759              		.cfi_offset 6, -12
 760              		.cfi_offset 7, -8
 761              		.cfi_offset 14, -4
 796:Generated_Source\PSoC4/USB_UART_UART.c ****         uint32 txCtrlReg;
 797:Generated_Source\PSoC4/USB_UART_UART.c ****         uint32 txIntrReg;
 798:Generated_Source\PSoC4/USB_UART_UART.c **** 
 799:Generated_Source\PSoC4/USB_UART_UART.c ****         /* Disable all UART TX interrupt source and clear UART TX Done history */
 800:Generated_Source\PSoC4/USB_UART_UART.c ****         txIntrReg = USB_UART_GetTxInterruptMode();
 801:Generated_Source\PSoC4/USB_UART_UART.c ****         USB_UART_SetTxInterruptMode(0u);
 802:Generated_Source\PSoC4/USB_UART_UART.c ****         USB_UART_ClearTxInterruptSource(USB_UART_INTR_TX_UART_DONE);
 762              		.loc 1 802 0
 763 0002 8024     		movs	r4, #128
 801:Generated_Source\PSoC4/USB_UART_UART.c ****         USB_UART_ClearTxInterruptSource(USB_UART_INTR_TX_UART_DONE);
 764              		.loc 1 801 0
 765 0004 0026     		movs	r6, #0
 803:Generated_Source\PSoC4/USB_UART_UART.c **** 
 804:Generated_Source\PSoC4/USB_UART_UART.c ****         /* Store TX CTRL configuration */
 805:Generated_Source\PSoC4/USB_UART_UART.c ****         txCtrlReg = USB_UART_TX_CTRL_REG;
 806:Generated_Source\PSoC4/USB_UART_UART.c **** 
 807:Generated_Source\PSoC4/USB_UART_UART.c ****         /* Set break width */
 808:Generated_Source\PSoC4/USB_UART_UART.c ****         USB_UART_TX_CTRL_REG = (USB_UART_TX_CTRL_REG & (uint32) ~USB_UART_TX_CTRL_DATA_WIDTH_MASK) 
 766              		.loc 1 808 0
 767 0006 0F27     		movs	r7, #15
 800:Generated_Source\PSoC4/USB_UART_UART.c ****         USB_UART_SetTxInterruptMode(0u);
 768              		.loc 1 800 0
 769 0008 0E4A     		ldr	r2, .L62
 802:Generated_Source\PSoC4/USB_UART_UART.c **** 
 770              		.loc 1 802 0
 771 000a 0F4D     		ldr	r5, .L62+4
 800:Generated_Source\PSoC4/USB_UART_UART.c ****         USB_UART_SetTxInterruptMode(0u);
 772              		.loc 1 800 0
 773 000c 1368     		ldr	r3, [r2]
 802:Generated_Source\PSoC4/USB_UART_UART.c **** 
 774              		.loc 1 802 0
 775 000e A400     		lsls	r4, r4, #2
 800:Generated_Source\PSoC4/USB_UART_UART.c ****         USB_UART_SetTxInterruptMode(0u);
 776              		.loc 1 800 0
 777 0010 0193     		str	r3, [sp, #4]
 778              	.LVL47:
 805:Generated_Source\PSoC4/USB_UART_UART.c **** 
 779              		.loc 1 805 0
 780 0012 0E4B     		ldr	r3, .L62+8
 781              	.LVL48:
 801:Generated_Source\PSoC4/USB_UART_UART.c ****         USB_UART_ClearTxInterruptSource(USB_UART_INTR_TX_UART_DONE);
 782              		.loc 1 801 0
 783 0014 1660     		str	r6, [r2]
 802:Generated_Source\PSoC4/USB_UART_UART.c **** 
ARM GAS  C:\Users\AFDHAL~1\AppData\Local\Temp\ccWI4vUi.s 			page 30


 784              		.loc 1 802 0
 785 0016 2C60     		str	r4, [r5]
 805:Generated_Source\PSoC4/USB_UART_UART.c **** 
 786              		.loc 1 805 0
 787 0018 1968     		ldr	r1, [r3]
 788              		.loc 1 808 0
 789 001a 0138     		subs	r0, r0, #1
 790              	.LVL49:
 805:Generated_Source\PSoC4/USB_UART_UART.c **** 
 791              		.loc 1 805 0
 792 001c 8C46     		mov	ip, r1
 793              	.LVL50:
 794              		.loc 1 808 0
 795 001e 1968     		ldr	r1, [r3]
 796              	.LVL51:
 797 0020 3840     		ands	r0, r7
 798              	.LVL52:
 799 0022 B943     		bics	r1, r7
 800 0024 0843     		orrs	r0, r1
 809:Generated_Source\PSoC4/USB_UART_UART.c ****                                         USB_UART_GET_TX_CTRL_DATA_WIDTH(breakWidth);
 810:Generated_Source\PSoC4/USB_UART_UART.c **** 
 811:Generated_Source\PSoC4/USB_UART_UART.c ****         /* Generate break */
 812:Generated_Source\PSoC4/USB_UART_UART.c ****         USB_UART_TX_FIFO_WR_REG = 0u;
 801              		.loc 1 812 0
 802 0026 0A49     		ldr	r1, .L62+12
 808:Generated_Source\PSoC4/USB_UART_UART.c ****                                         USB_UART_GET_TX_CTRL_DATA_WIDTH(breakWidth);
 803              		.loc 1 808 0
 804 0028 1860     		str	r0, [r3]
 805              		.loc 1 812 0
 806 002a 0E60     		str	r6, [r1]
 807              	.L59:
 813:Generated_Source\PSoC4/USB_UART_UART.c **** 
 814:Generated_Source\PSoC4/USB_UART_UART.c ****         /* Wait for break completion */
 815:Generated_Source\PSoC4/USB_UART_UART.c ****         while (0u == (USB_UART_GetTxInterruptSource() & USB_UART_INTR_TX_UART_DONE))
 808              		.loc 1 815 0 discriminator 1
 809 002c 2968     		ldr	r1, [r5]
 810 002e 2142     		tst	r1, r4
 811 0030 FCD0     		beq	.L59
 816:Generated_Source\PSoC4/USB_UART_UART.c ****         {
 817:Generated_Source\PSoC4/USB_UART_UART.c ****         }
 818:Generated_Source\PSoC4/USB_UART_UART.c **** 
 819:Generated_Source\PSoC4/USB_UART_UART.c ****         /* Clear all UART TX interrupt sources to  */
 820:Generated_Source\PSoC4/USB_UART_UART.c ****         USB_UART_ClearTxInterruptSource(USB_UART_INTR_TX_ALL);
 812              		.loc 1 820 0
 813 0032 0848     		ldr	r0, .L62+16
 814 0034 0449     		ldr	r1, .L62+4
 821:Generated_Source\PSoC4/USB_UART_UART.c **** 
 822:Generated_Source\PSoC4/USB_UART_UART.c ****         /* Restore TX interrupt sources and data width */
 823:Generated_Source\PSoC4/USB_UART_UART.c ****         USB_UART_TX_CTRL_REG = txCtrlReg;
 824:Generated_Source\PSoC4/USB_UART_UART.c ****         USB_UART_SetTxInterruptMode(txIntrReg);
 825:Generated_Source\PSoC4/USB_UART_UART.c ****     }
 815              		.loc 1 825 0
 816              		@ sp needed
 820:Generated_Source\PSoC4/USB_UART_UART.c **** 
 817              		.loc 1 820 0
 818 0036 0860     		str	r0, [r1]
 823:Generated_Source\PSoC4/USB_UART_UART.c ****         USB_UART_SetTxInterruptMode(txIntrReg);
ARM GAS  C:\Users\AFDHAL~1\AppData\Local\Temp\ccWI4vUi.s 			page 31


 819              		.loc 1 823 0
 820 0038 6146     		mov	r1, ip
 821 003a 1960     		str	r1, [r3]
 824:Generated_Source\PSoC4/USB_UART_UART.c ****     }
 822              		.loc 1 824 0
 823 003c 019B     		ldr	r3, [sp, #4]
 824 003e 1360     		str	r3, [r2]
 825              		.loc 1 825 0
 826 0040 F7BD     		pop	{r0, r1, r2, r4, r5, r6, r7, pc}
 827              	.L63:
 828 0042 C046     		.align	2
 829              	.L62:
 830 0044 880F2740 		.word	1076301704
 831 0048 800F2740 		.word	1076301696
 832 004c 00022740 		.word	1076298240
 833 0050 40022740 		.word	1076298304
 834 0054 F3070000 		.word	2035
 835              		.cfi_endproc
 836              	.LFE15:
 837              		.size	USB_UART_UartSendBreakBlocking, .-USB_UART_UartSendBreakBlocking
 838              		.text
 839              	.Letext0:
 840              		.file 2 "Generated_Source\\PSoC4/cytypes.h"
 841              		.file 3 "Generated_Source\\PSoC4\\USB_UART_PVT.h"
 842              		.file 4 "Generated_Source\\PSoC4\\USB_UART_SPI_UART_PVT.h"
 843              		.file 5 "Generated_Source\\PSoC4/CyLib.h"
 844              		.file 6 "Generated_Source\\PSoC4\\USB_UART_SPI_UART.h"