ARM GAS  C:\Users\AFDHAL~1\AppData\Local\Temp\ccPfQK7a.s 			page 1


   1              		.syntax unified
   2              		.cpu cortex-m0
   3              		.fpu softvfp
   4              		.eabi_attribute 20, 1
   5              		.eabi_attribute 21, 1
   6              		.eabi_attribute 23, 3
   7              		.eabi_attribute 24, 1
   8              		.eabi_attribute 25, 1
   9              		.eabi_attribute 26, 1
  10              		.eabi_attribute 30, 2
  11              		.eabi_attribute 34, 0
  12              		.eabi_attribute 18, 4
  13              		.thumb
  14              		.syntax unified
  15              		.file	"CyDMA.c"
  16              		.text
  17              	.Ltext0:
  18              		.cfi_sections	.debug_frame
  19              		.section	.text.CyDmaInterrupt,"ax",%progbits
  20              		.align	2
  21              		.global	CyDmaInterrupt
  22              		.code	16
  23              		.thumb_func
  24              		.type	CyDmaInterrupt, %function
  25              	CyDmaInterrupt:
  26              	.LFB15:
  27              		.file 1 "Generated_Source\\PSoC4\\CyDMA.c"
   1:Generated_Source\PSoC4/CyDMA.c **** /*******************************************************************************
   2:Generated_Source\PSoC4/CyDMA.c **** * File Name: CyDMA.c
   3:Generated_Source\PSoC4/CyDMA.c **** * Version 1.10
   4:Generated_Source\PSoC4/CyDMA.c **** *
   5:Generated_Source\PSoC4/CyDMA.c **** * Description:
   6:Generated_Source\PSoC4/CyDMA.c **** *  This file contains all of the global DMA API functions.
   7:Generated_Source\PSoC4/CyDMA.c **** *
   8:Generated_Source\PSoC4/CyDMA.c **** ********************************************************************************
   9:Generated_Source\PSoC4/CyDMA.c **** * Copyright 2015, Cypress Semiconductor Corporation. All rights reserved.
  10:Generated_Source\PSoC4/CyDMA.c **** * You may use this file only in accordance with the license, terms, conditions,
  11:Generated_Source\PSoC4/CyDMA.c **** * disclaimers, and limitations in the end user license agreement accompanying
  12:Generated_Source\PSoC4/CyDMA.c **** * the software package with which this file was provided.
  13:Generated_Source\PSoC4/CyDMA.c **** *******************************************************************************/
  14:Generated_Source\PSoC4/CyDMA.c **** 
  15:Generated_Source\PSoC4/CyDMA.c **** #include "CyDMA.h"
  16:Generated_Source\PSoC4/CyDMA.c **** #include "CyLib.h"
  17:Generated_Source\PSoC4/CyDMA.c **** 
  18:Generated_Source\PSoC4/CyDMA.c **** /* Default callback function. It is invoked if the user callback function is
  19:Generated_Source\PSoC4/CyDMA.c **** * undefined.
  20:Generated_Source\PSoC4/CyDMA.c **** */
  21:Generated_Source\PSoC4/CyDMA.c **** static void CyDmaDefaultInterruptCallback(void);
  22:Generated_Source\PSoC4/CyDMA.c **** 
  23:Generated_Source\PSoC4/CyDMA.c **** /* Array of pointers to user defined callback functions to be called
  24:Generated_Source\PSoC4/CyDMA.c **** * from DMA interrupt.
  25:Generated_Source\PSoC4/CyDMA.c **** */
  26:Generated_Source\PSoC4/CyDMA.c **** static cydma_callback_t CyDmaInterruptCallback[CYDMA_CH_NR] = {
  27:Generated_Source\PSoC4/CyDMA.c ****     &CyDmaDefaultInterruptCallback, &CyDmaDefaultInterruptCallback,
  28:Generated_Source\PSoC4/CyDMA.c ****     &CyDmaDefaultInterruptCallback, &CyDmaDefaultInterruptCallback,
  29:Generated_Source\PSoC4/CyDMA.c ****     &CyDmaDefaultInterruptCallback, &CyDmaDefaultInterruptCallback,
  30:Generated_Source\PSoC4/CyDMA.c ****     &CyDmaDefaultInterruptCallback, &CyDmaDefaultInterruptCallback
ARM GAS  C:\Users\AFDHAL~1\AppData\Local\Temp\ccPfQK7a.s 			page 2


  31:Generated_Source\PSoC4/CyDMA.c **** };
  32:Generated_Source\PSoC4/CyDMA.c **** 
  33:Generated_Source\PSoC4/CyDMA.c **** /* The live status of all DMA channels usage. Bit i is associated to channel i,
  34:Generated_Source\PSoC4/CyDMA.c **** * with i = 0..CYDMA_CH_NR-1. '0' - channel is free. '1' - channel is in use.
  35:Generated_Source\PSoC4/CyDMA.c **** * All the channels allocated for DMA instances placed on a schematic are in use
  36:Generated_Source\PSoC4/CyDMA.c **** * by default and cannot be freed. 
  37:Generated_Source\PSoC4/CyDMA.c **** * DMA_CHANNELS_USED__MASK is generated during the build time and is a bit field
  38:Generated_Source\PSoC4/CyDMA.c **** * corresponding to the DMA channels placed on a design schematic.
  39:Generated_Source\PSoC4/CyDMA.c **** */
  40:Generated_Source\PSoC4/CyDMA.c **** static uint32 CyDmaChannelUsedMask = DMA_CHANNELS_USED__MASK;
  41:Generated_Source\PSoC4/CyDMA.c **** 
  42:Generated_Source\PSoC4/CyDMA.c **** 
  43:Generated_Source\PSoC4/CyDMA.c **** /*******************************************************************************
  44:Generated_Source\PSoC4/CyDMA.c **** * Function Name: CyDmaEnable
  45:Generated_Source\PSoC4/CyDMA.c **** ********************************************************************************
  46:Generated_Source\PSoC4/CyDMA.c **** *
  47:Generated_Source\PSoC4/CyDMA.c **** * Summary:
  48:Generated_Source\PSoC4/CyDMA.c **** *  Sets the default ISR to be called by the DMA interrupt and enables the DMA
  49:Generated_Source\PSoC4/CyDMA.c **** *  transfer engine.
  50:Generated_Source\PSoC4/CyDMA.c **** *
  51:Generated_Source\PSoC4/CyDMA.c **** * Parameters:
  52:Generated_Source\PSoC4/CyDMA.c **** *  None.
  53:Generated_Source\PSoC4/CyDMA.c **** *                   
  54:Generated_Source\PSoC4/CyDMA.c **** * Return:
  55:Generated_Source\PSoC4/CyDMA.c **** *  None.
  56:Generated_Source\PSoC4/CyDMA.c **** *
  57:Generated_Source\PSoC4/CyDMA.c **** * Side effect:
  58:Generated_Source\PSoC4/CyDMA.c **** *  Does not affect the channel enable status. Overrides the interrupt vector
  59:Generated_Source\PSoC4/CyDMA.c **** *  set prior the first time CyDmaEnable() is called.
  60:Generated_Source\PSoC4/CyDMA.c **** *
  61:Generated_Source\PSoC4/CyDMA.c **** *******************************************************************************/
  62:Generated_Source\PSoC4/CyDMA.c **** void CyDmaEnable(void)
  63:Generated_Source\PSoC4/CyDMA.c **** {
  64:Generated_Source\PSoC4/CyDMA.c ****     static uint8 initIntrVector = 0u;
  65:Generated_Source\PSoC4/CyDMA.c **** 
  66:Generated_Source\PSoC4/CyDMA.c ****     if(0u == initIntrVector)
  67:Generated_Source\PSoC4/CyDMA.c ****     {
  68:Generated_Source\PSoC4/CyDMA.c ****         CyDmaSetInterruptVector(&CyDmaInterrupt);
  69:Generated_Source\PSoC4/CyDMA.c ****         CyIntSetPriority(CYDMA_INTR_NUMBER, CYDMA_INTR_PRIO);
  70:Generated_Source\PSoC4/CyDMA.c ****         initIntrVector = 1u;
  71:Generated_Source\PSoC4/CyDMA.c ****     }
  72:Generated_Source\PSoC4/CyDMA.c ****     CYDMA_CTL_REG = CYDMA_ENABLED;
  73:Generated_Source\PSoC4/CyDMA.c **** }
  74:Generated_Source\PSoC4/CyDMA.c **** 
  75:Generated_Source\PSoC4/CyDMA.c **** 
  76:Generated_Source\PSoC4/CyDMA.c **** /*******************************************************************************
  77:Generated_Source\PSoC4/CyDMA.c **** * Function Name: CyDmaDisable
  78:Generated_Source\PSoC4/CyDMA.c **** ********************************************************************************
  79:Generated_Source\PSoC4/CyDMA.c **** *
  80:Generated_Source\PSoC4/CyDMA.c **** * Summary:
  81:Generated_Source\PSoC4/CyDMA.c **** *  Disables the DMA transfer engine.
  82:Generated_Source\PSoC4/CyDMA.c **** *
  83:Generated_Source\PSoC4/CyDMA.c **** * Parameters:
  84:Generated_Source\PSoC4/CyDMA.c **** *  None.
  85:Generated_Source\PSoC4/CyDMA.c **** *                   
  86:Generated_Source\PSoC4/CyDMA.c **** * Return:
  87:Generated_Source\PSoC4/CyDMA.c **** *  None.
ARM GAS  C:\Users\AFDHAL~1\AppData\Local\Temp\ccPfQK7a.s 			page 3


  88:Generated_Source\PSoC4/CyDMA.c **** *
  89:Generated_Source\PSoC4/CyDMA.c **** * Side effect:
  90:Generated_Source\PSoC4/CyDMA.c **** *  Does not affect the channel enable status.
  91:Generated_Source\PSoC4/CyDMA.c **** *
  92:Generated_Source\PSoC4/CyDMA.c **** *******************************************************************************/
  93:Generated_Source\PSoC4/CyDMA.c **** void CyDmaDisable(void)
  94:Generated_Source\PSoC4/CyDMA.c **** {
  95:Generated_Source\PSoC4/CyDMA.c ****     CYDMA_CTL_REG = (uint32)~CYDMA_ENABLED;
  96:Generated_Source\PSoC4/CyDMA.c **** }
  97:Generated_Source\PSoC4/CyDMA.c **** 
  98:Generated_Source\PSoC4/CyDMA.c **** 
  99:Generated_Source\PSoC4/CyDMA.c **** /*******************************************************************************
 100:Generated_Source\PSoC4/CyDMA.c **** * Function Name: CyDmaGetStatus
 101:Generated_Source\PSoC4/CyDMA.c **** ********************************************************************************
 102:Generated_Source\PSoC4/CyDMA.c **** *
 103:Generated_Source\PSoC4/CyDMA.c **** * Summary:
 104:Generated_Source\PSoC4/CyDMA.c **** *  Returns the status of the DMA transfer engine.
 105:Generated_Source\PSoC4/CyDMA.c **** *
 106:Generated_Source\PSoC4/CyDMA.c **** * Parameters:
 107:Generated_Source\PSoC4/CyDMA.c **** *  None.
 108:Generated_Source\PSoC4/CyDMA.c **** *                   
 109:Generated_Source\PSoC4/CyDMA.c **** * Return:
 110:Generated_Source\PSoC4/CyDMA.c **** *  The contents of the DMA status register. Refer to the status register bit
 111:Generated_Source\PSoC4/CyDMA.c **** *  definitions in CyDMA_P4.h or the API description in the DMA channel
 112:Generated_Source\PSoC4/CyDMA.c **** *  datasheet.
 113:Generated_Source\PSoC4/CyDMA.c **** *
 114:Generated_Source\PSoC4/CyDMA.c **** * Side effect:
 115:Generated_Source\PSoC4/CyDMA.c **** *  The series of function calls CyDmaGetActiveSrcAddress(),
 116:Generated_Source\PSoC4/CyDMA.c **** *  CyDmaGetActiveDstAddress(), CyDmaGetStatus() are not atomic, the DMA
 117:Generated_Source\PSoC4/CyDMA.c **** *  engine may have advanced after one or more of these function calls. Meaning
 118:Generated_Source\PSoC4/CyDMA.c **** *  the returns from these three functions may not be related to each other.
 119:Generated_Source\PSoC4/CyDMA.c **** *
 120:Generated_Source\PSoC4/CyDMA.c **** *******************************************************************************/
 121:Generated_Source\PSoC4/CyDMA.c **** uint32 CyDmaGetStatus(void)
 122:Generated_Source\PSoC4/CyDMA.c **** {
 123:Generated_Source\PSoC4/CyDMA.c ****     return (CYDMA_STATUS_REG);
 124:Generated_Source\PSoC4/CyDMA.c **** }
 125:Generated_Source\PSoC4/CyDMA.c **** 
 126:Generated_Source\PSoC4/CyDMA.c **** 
 127:Generated_Source\PSoC4/CyDMA.c **** /*******************************************************************************
 128:Generated_Source\PSoC4/CyDMA.c **** * Function Name: CyDmaGetActiveChannels
 129:Generated_Source\PSoC4/CyDMA.c **** ********************************************************************************
 130:Generated_Source\PSoC4/CyDMA.c **** *
 131:Generated_Source\PSoC4/CyDMA.c **** * Summary:
 132:Generated_Source\PSoC4/CyDMA.c **** *  Returns a bit field of all the DMA channels that are either active or
 133:Generated_Source\PSoC4/CyDMA.c **** *  pending.
 134:Generated_Source\PSoC4/CyDMA.c **** *
 135:Generated_Source\PSoC4/CyDMA.c **** * Parameters:
 136:Generated_Source\PSoC4/CyDMA.c **** *  None.
 137:Generated_Source\PSoC4/CyDMA.c **** *                   
 138:Generated_Source\PSoC4/CyDMA.c **** * Return:
 139:Generated_Source\PSoC4/CyDMA.c **** *  Bit field of active and pending channels. 
 140:Generated_Source\PSoC4/CyDMA.c **** *
 141:Generated_Source\PSoC4/CyDMA.c **** *******************************************************************************/
 142:Generated_Source\PSoC4/CyDMA.c **** uint32 CyDmaGetActiveChannels(void)
 143:Generated_Source\PSoC4/CyDMA.c **** {
 144:Generated_Source\PSoC4/CyDMA.c ****     return (CYDMA_STATUS_CH_ACT_REG);
ARM GAS  C:\Users\AFDHAL~1\AppData\Local\Temp\ccPfQK7a.s 			page 4


 145:Generated_Source\PSoC4/CyDMA.c **** }
 146:Generated_Source\PSoC4/CyDMA.c **** 
 147:Generated_Source\PSoC4/CyDMA.c **** 
 148:Generated_Source\PSoC4/CyDMA.c **** /*******************************************************************************
 149:Generated_Source\PSoC4/CyDMA.c **** * Function Name: CyDmaGetActiveSrcAddress
 150:Generated_Source\PSoC4/CyDMA.c **** ********************************************************************************
 151:Generated_Source\PSoC4/CyDMA.c **** *
 152:Generated_Source\PSoC4/CyDMA.c **** * Summary:
 153:Generated_Source\PSoC4/CyDMA.c **** *  Returns the source address currently being used by the DMA transfer engine.
 154:Generated_Source\PSoC4/CyDMA.c **** *  This function can be used to debug the DMA, or observe where it is at in a
 155:Generated_Source\PSoC4/CyDMA.c **** *  transfer. It will not be used in normal DMA operation.
 156:Generated_Source\PSoC4/CyDMA.c **** *
 157:Generated_Source\PSoC4/CyDMA.c **** * Parameters:
 158:Generated_Source\PSoC4/CyDMA.c **** *  None.
 159:Generated_Source\PSoC4/CyDMA.c **** *                   
 160:Generated_Source\PSoC4/CyDMA.c **** * Return:
 161:Generated_Source\PSoC4/CyDMA.c **** *  Source address currently being used by the DMA transfer engine.
 162:Generated_Source\PSoC4/CyDMA.c **** *
 163:Generated_Source\PSoC4/CyDMA.c **** * Side effect:
 164:Generated_Source\PSoC4/CyDMA.c **** *  The series of function calls CyDmaGetActiveSrcAddress(),
 165:Generated_Source\PSoC4/CyDMA.c **** *  CyDmaGetActiveDstAddress(), CyDmaGetStatus() are not atomic, the DMA
 166:Generated_Source\PSoC4/CyDMA.c **** *  engine may have advanced after one or more of these function calls. Meaning
 167:Generated_Source\PSoC4/CyDMA.c **** *  the returns from these three functions may not be related to each other.
 168:Generated_Source\PSoC4/CyDMA.c **** *
 169:Generated_Source\PSoC4/CyDMA.c **** *******************************************************************************/
 170:Generated_Source\PSoC4/CyDMA.c **** void * CyDmaGetActiveSrcAddress(void)
 171:Generated_Source\PSoC4/CyDMA.c **** {
 172:Generated_Source\PSoC4/CyDMA.c ****     return ((void *)CYDMA_STATUS_SRC_ADDR_REG);
 173:Generated_Source\PSoC4/CyDMA.c **** }
 174:Generated_Source\PSoC4/CyDMA.c **** 
 175:Generated_Source\PSoC4/CyDMA.c **** 
 176:Generated_Source\PSoC4/CyDMA.c **** /*******************************************************************************
 177:Generated_Source\PSoC4/CyDMA.c **** * Function Name: CyDmaGetActiveDstAddress
 178:Generated_Source\PSoC4/CyDMA.c **** ********************************************************************************
 179:Generated_Source\PSoC4/CyDMA.c **** *
 180:Generated_Source\PSoC4/CyDMA.c **** * Summary:
 181:Generated_Source\PSoC4/CyDMA.c **** *  Returns the destination address currently being used by the DMA transfer
 182:Generated_Source\PSoC4/CyDMA.c **** *  engine. This function can be used to debug the DMA, or observe where it is at
 183:Generated_Source\PSoC4/CyDMA.c **** *  in a transfer. It will not be used in normal DMA operation.
 184:Generated_Source\PSoC4/CyDMA.c **** *
 185:Generated_Source\PSoC4/CyDMA.c **** * Parameters:
 186:Generated_Source\PSoC4/CyDMA.c **** *  None.
 187:Generated_Source\PSoC4/CyDMA.c **** *                   
 188:Generated_Source\PSoC4/CyDMA.c **** * Return:
 189:Generated_Source\PSoC4/CyDMA.c **** *  Destination address currently being used by the DMA transfer engine.
 190:Generated_Source\PSoC4/CyDMA.c **** *
 191:Generated_Source\PSoC4/CyDMA.c **** * Side effect:
 192:Generated_Source\PSoC4/CyDMA.c **** *  The series of function calls CyDmaGetActiveSrcAddress(),
 193:Generated_Source\PSoC4/CyDMA.c **** *  CyDmaGetActiveDstAddress(), CyDmaGetStatus() are not atomic, the DMA
 194:Generated_Source\PSoC4/CyDMA.c **** *  engine may have advanced after one or more of these function calls. Meaning
 195:Generated_Source\PSoC4/CyDMA.c **** *  the returns from these three functions may not be related to each other.
 196:Generated_Source\PSoC4/CyDMA.c **** *
 197:Generated_Source\PSoC4/CyDMA.c **** *******************************************************************************/
 198:Generated_Source\PSoC4/CyDMA.c **** void * CyDmaGetActiveDstAddress(void)
 199:Generated_Source\PSoC4/CyDMA.c **** {
 200:Generated_Source\PSoC4/CyDMA.c ****     return ((void *)CYDMA_STATUS_DST_ADDR_REG);
 201:Generated_Source\PSoC4/CyDMA.c **** }
ARM GAS  C:\Users\AFDHAL~1\AppData\Local\Temp\ccPfQK7a.s 			page 5


 202:Generated_Source\PSoC4/CyDMA.c **** 
 203:Generated_Source\PSoC4/CyDMA.c **** 
 204:Generated_Source\PSoC4/CyDMA.c **** /*******************************************************************************
 205:Generated_Source\PSoC4/CyDMA.c **** * Function Name: CyDmaSetInterruptVector
 206:Generated_Source\PSoC4/CyDMA.c **** ********************************************************************************
 207:Generated_Source\PSoC4/CyDMA.c **** *
 208:Generated_Source\PSoC4/CyDMA.c **** * Summary:
 209:Generated_Source\PSoC4/CyDMA.c **** *  Sets the function that will be called by the DMA interrupt. Note, calling
 210:Generated_Source\PSoC4/CyDMA.c **** *  CyDmaEnable() for the first time overrides any effect this API could have.
 211:Generated_Source\PSoC4/CyDMA.c **** *  Call CyDmaSetInterruptVector() after calling CyDmaEnable() to change
 212:Generated_Source\PSoC4/CyDMA.c **** *  the default ISR.
 213:Generated_Source\PSoC4/CyDMA.c **** *
 214:Generated_Source\PSoC4/CyDMA.c **** * Parameters:
 215:Generated_Source\PSoC4/CyDMA.c **** *  interruptVector: Address of the function that will be called by the DMA
 216:Generated_Source\PSoC4/CyDMA.c **** *                   interrupt.
 217:Generated_Source\PSoC4/CyDMA.c **** * Return:
 218:Generated_Source\PSoC4/CyDMA.c **** *  None.
 219:Generated_Source\PSoC4/CyDMA.c **** *
 220:Generated_Source\PSoC4/CyDMA.c **** * Side effect:
 221:Generated_Source\PSoC4/CyDMA.c **** *  Other components that use DMA may register their callback functions to be
 222:Generated_Source\PSoC4/CyDMA.c **** *  called from the default DMA ISR. Therefore, changing the DMA ISR to a user
 223:Generated_Source\PSoC4/CyDMA.c **** *  defined ISR using this API may prevent these other components from
 224:Generated_Source\PSoC4/CyDMA.c **** *  functioning correctly.
 225:Generated_Source\PSoC4/CyDMA.c **** *
 226:Generated_Source\PSoC4/CyDMA.c **** *******************************************************************************/
 227:Generated_Source\PSoC4/CyDMA.c **** void CyDmaSetInterruptVector(cyisraddress interruptVector)
 228:Generated_Source\PSoC4/CyDMA.c **** {
 229:Generated_Source\PSoC4/CyDMA.c ****     (void)CyIntSetVector(CYDMA_INTR_NUMBER, interruptVector);
 230:Generated_Source\PSoC4/CyDMA.c **** }
 231:Generated_Source\PSoC4/CyDMA.c **** 
 232:Generated_Source\PSoC4/CyDMA.c **** 
 233:Generated_Source\PSoC4/CyDMA.c **** /*******************************************************************************
 234:Generated_Source\PSoC4/CyDMA.c **** * Function Name: CyDmaGetInterruptSource
 235:Generated_Source\PSoC4/CyDMA.c **** ********************************************************************************
 236:Generated_Source\PSoC4/CyDMA.c **** *
 237:Generated_Source\PSoC4/CyDMA.c **** * Summary:
 238:Generated_Source\PSoC4/CyDMA.c **** *  Returns the bit field of which channels generated an interrupt request.
 239:Generated_Source\PSoC4/CyDMA.c **** *
 240:Generated_Source\PSoC4/CyDMA.c **** * Parameters:
 241:Generated_Source\PSoC4/CyDMA.c **** *  None.
 242:Generated_Source\PSoC4/CyDMA.c **** *                   
 243:Generated_Source\PSoC4/CyDMA.c **** * Return:
 244:Generated_Source\PSoC4/CyDMA.c **** *  Bit filed of which channels generated an interrupt request.
 245:Generated_Source\PSoC4/CyDMA.c **** *
 246:Generated_Source\PSoC4/CyDMA.c **** *******************************************************************************/
 247:Generated_Source\PSoC4/CyDMA.c **** uint32 CyDmaGetInterruptSource(void)
 248:Generated_Source\PSoC4/CyDMA.c **** {
 249:Generated_Source\PSoC4/CyDMA.c ****     return (CYDMA_INTR_REG);
 250:Generated_Source\PSoC4/CyDMA.c **** }
 251:Generated_Source\PSoC4/CyDMA.c **** 
 252:Generated_Source\PSoC4/CyDMA.c **** 
 253:Generated_Source\PSoC4/CyDMA.c **** /*******************************************************************************
 254:Generated_Source\PSoC4/CyDMA.c **** * Function Name: CyDmaClearInterruptSource
 255:Generated_Source\PSoC4/CyDMA.c **** ********************************************************************************
 256:Generated_Source\PSoC4/CyDMA.c **** *
 257:Generated_Source\PSoC4/CyDMA.c **** * Summary:
 258:Generated_Source\PSoC4/CyDMA.c **** *  Clears the pending interrupts.
ARM GAS  C:\Users\AFDHAL~1\AppData\Local\Temp\ccPfQK7a.s 			page 6


 259:Generated_Source\PSoC4/CyDMA.c **** *
 260:Generated_Source\PSoC4/CyDMA.c **** * Parameters:
 261:Generated_Source\PSoC4/CyDMA.c **** *  interruptMask: Bit field of interrupts to clear.
 262:Generated_Source\PSoC4/CyDMA.c **** *                   
 263:Generated_Source\PSoC4/CyDMA.c **** * Return:
 264:Generated_Source\PSoC4/CyDMA.c **** *  None.
 265:Generated_Source\PSoC4/CyDMA.c **** *
 266:Generated_Source\PSoC4/CyDMA.c **** *******************************************************************************/
 267:Generated_Source\PSoC4/CyDMA.c **** void CyDmaClearInterruptSource(uint32 interruptMask)
 268:Generated_Source\PSoC4/CyDMA.c **** {
 269:Generated_Source\PSoC4/CyDMA.c ****     CYDMA_INTR_REG = interruptMask;
 270:Generated_Source\PSoC4/CyDMA.c **** }
 271:Generated_Source\PSoC4/CyDMA.c **** 
 272:Generated_Source\PSoC4/CyDMA.c **** 
 273:Generated_Source\PSoC4/CyDMA.c **** /*******************************************************************************
 274:Generated_Source\PSoC4/CyDMA.c **** * Function Name: CyDmaSetInterruptSourceMask
 275:Generated_Source\PSoC4/CyDMA.c **** ********************************************************************************
 276:Generated_Source\PSoC4/CyDMA.c **** *
 277:Generated_Source\PSoC4/CyDMA.c **** * Summary:
 278:Generated_Source\PSoC4/CyDMA.c **** *  Sets mask for interrupt source.
 279:Generated_Source\PSoC4/CyDMA.c **** *
 280:Generated_Source\PSoC4/CyDMA.c **** * Parameters:
 281:Generated_Source\PSoC4/CyDMA.c **** *  interruptmask: Mask corresponding to interrupt bit field.
 282:Generated_Source\PSoC4/CyDMA.c **** *                   
 283:Generated_Source\PSoC4/CyDMA.c **** * Return:
 284:Generated_Source\PSoC4/CyDMA.c **** *  None.
 285:Generated_Source\PSoC4/CyDMA.c **** *
 286:Generated_Source\PSoC4/CyDMA.c **** *******************************************************************************/
 287:Generated_Source\PSoC4/CyDMA.c **** void CyDmaSetInterruptSourceMask(uint32 interruptMask)
 288:Generated_Source\PSoC4/CyDMA.c **** {
 289:Generated_Source\PSoC4/CyDMA.c ****     CYDMA_INTR_MASK_REG = interruptMask;
 290:Generated_Source\PSoC4/CyDMA.c **** }
 291:Generated_Source\PSoC4/CyDMA.c **** 
 292:Generated_Source\PSoC4/CyDMA.c **** 
 293:Generated_Source\PSoC4/CyDMA.c **** /*******************************************************************************
 294:Generated_Source\PSoC4/CyDMA.c **** * Function Name: CyDmaGetInterruptSourceMask
 295:Generated_Source\PSoC4/CyDMA.c **** ********************************************************************************
 296:Generated_Source\PSoC4/CyDMA.c **** *
 297:Generated_Source\PSoC4/CyDMA.c **** * Summary:
 298:Generated_Source\PSoC4/CyDMA.c **** *  Returns mask for interrupt source.
 299:Generated_Source\PSoC4/CyDMA.c **** *
 300:Generated_Source\PSoC4/CyDMA.c **** * Parameters:
 301:Generated_Source\PSoC4/CyDMA.c **** *  None.
 302:Generated_Source\PSoC4/CyDMA.c **** *                   
 303:Generated_Source\PSoC4/CyDMA.c **** * Return:
 304:Generated_Source\PSoC4/CyDMA.c **** *  Mask corresponding to interrupt bit field.
 305:Generated_Source\PSoC4/CyDMA.c **** *
 306:Generated_Source\PSoC4/CyDMA.c **** *******************************************************************************/
 307:Generated_Source\PSoC4/CyDMA.c **** uint32 CyDmaGetInterruptSourceMask(void)
 308:Generated_Source\PSoC4/CyDMA.c **** {
 309:Generated_Source\PSoC4/CyDMA.c ****     return (CYDMA_INTR_MASK_REG);
 310:Generated_Source\PSoC4/CyDMA.c **** }
 311:Generated_Source\PSoC4/CyDMA.c **** 
 312:Generated_Source\PSoC4/CyDMA.c **** 
 313:Generated_Source\PSoC4/CyDMA.c **** /*******************************************************************************
 314:Generated_Source\PSoC4/CyDMA.c **** * Function Name: CyDmaGetInterruptSourceMasked
 315:Generated_Source\PSoC4/CyDMA.c **** ********************************************************************************
ARM GAS  C:\Users\AFDHAL~1\AppData\Local\Temp\ccPfQK7a.s 			page 7


 316:Generated_Source\PSoC4/CyDMA.c **** *
 317:Generated_Source\PSoC4/CyDMA.c **** * Summary:
 318:Generated_Source\PSoC4/CyDMA.c **** *  Returns the bitwise AND of the interrupt source and the interrupt mask.
 319:Generated_Source\PSoC4/CyDMA.c **** *
 320:Generated_Source\PSoC4/CyDMA.c **** * Parameters:
 321:Generated_Source\PSoC4/CyDMA.c **** *  None.
 322:Generated_Source\PSoC4/CyDMA.c **** *                   
 323:Generated_Source\PSoC4/CyDMA.c **** * Return:
 324:Generated_Source\PSoC4/CyDMA.c **** *  Bitwise AND of the interrupt source and the interrupt mask.
 325:Generated_Source\PSoC4/CyDMA.c **** *
 326:Generated_Source\PSoC4/CyDMA.c **** *******************************************************************************/
 327:Generated_Source\PSoC4/CyDMA.c **** uint32 CyDmaGetInterruptSourceMasked(void)
 328:Generated_Source\PSoC4/CyDMA.c **** {
 329:Generated_Source\PSoC4/CyDMA.c ****     return (CYDMA_INTR_MASKED_REG);
 330:Generated_Source\PSoC4/CyDMA.c **** }
 331:Generated_Source\PSoC4/CyDMA.c **** 
 332:Generated_Source\PSoC4/CyDMA.c **** 
 333:Generated_Source\PSoC4/CyDMA.c **** /*******************************************************************************
 334:Generated_Source\PSoC4/CyDMA.c **** * Function Name: CyDmaSetInterruptCallback
 335:Generated_Source\PSoC4/CyDMA.c **** ********************************************************************************
 336:Generated_Source\PSoC4/CyDMA.c **** *
 337:Generated_Source\PSoC4/CyDMA.c **** * Summary:
 338:Generated_Source\PSoC4/CyDMA.c **** *  Sets a user defined callback function to be called by the DMA interrupt. The
 339:Generated_Source\PSoC4/CyDMA.c **** *  function should contain code to process the interrupt request for the 
 340:Generated_Source\PSoC4/CyDMA.c **** *  associated DMA channel.
 341:Generated_Source\PSoC4/CyDMA.c **** *
 342:Generated_Source\PSoC4/CyDMA.c **** * Parameters:
 343:Generated_Source\PSoC4/CyDMA.c **** *  channel:  Channel used by this function.
 344:Generated_Source\PSoC4/CyDMA.c **** *  callback: Pointer to the user defined callback function.
 345:Generated_Source\PSoC4/CyDMA.c **** *
 346:Generated_Source\PSoC4/CyDMA.c **** * Return:
 347:Generated_Source\PSoC4/CyDMA.c **** *  Pointer to the function previously set for the specified channel. 
 348:Generated_Source\PSoC4/CyDMA.c **** *
 349:Generated_Source\PSoC4/CyDMA.c **** *******************************************************************************/
 350:Generated_Source\PSoC4/CyDMA.c **** cydma_callback_t CyDmaSetInterruptCallback(int32 channel, cydma_callback_t callback)
 351:Generated_Source\PSoC4/CyDMA.c **** {
 352:Generated_Source\PSoC4/CyDMA.c ****     cydma_callback_t prevCallback;
 353:Generated_Source\PSoC4/CyDMA.c **** 
 354:Generated_Source\PSoC4/CyDMA.c ****     CYASSERT((channel >= 0) && (channel < CYDMA_CH_NR));
 355:Generated_Source\PSoC4/CyDMA.c **** 
 356:Generated_Source\PSoC4/CyDMA.c ****     prevCallback = CyDmaInterruptCallback[channel];
 357:Generated_Source\PSoC4/CyDMA.c ****     CyDmaInterruptCallback[channel] = callback;
 358:Generated_Source\PSoC4/CyDMA.c ****     return (prevCallback);
 359:Generated_Source\PSoC4/CyDMA.c **** }
 360:Generated_Source\PSoC4/CyDMA.c **** 
 361:Generated_Source\PSoC4/CyDMA.c **** 
 362:Generated_Source\PSoC4/CyDMA.c **** /*******************************************************************************
 363:Generated_Source\PSoC4/CyDMA.c **** * Function Name: CyDmaGetInterruptCallback
 364:Generated_Source\PSoC4/CyDMA.c **** ********************************************************************************
 365:Generated_Source\PSoC4/CyDMA.c **** *
 366:Generated_Source\PSoC4/CyDMA.c **** * Summary:
 367:Generated_Source\PSoC4/CyDMA.c **** *  Returns the pointer to the interrupt callback function for the specified DMA
 368:Generated_Source\PSoC4/CyDMA.c **** *  channel.
 369:Generated_Source\PSoC4/CyDMA.c **** *
 370:Generated_Source\PSoC4/CyDMA.c **** * Parameters:
 371:Generated_Source\PSoC4/CyDMA.c **** *  channel: Channel used by this function.
 372:Generated_Source\PSoC4/CyDMA.c **** *
ARM GAS  C:\Users\AFDHAL~1\AppData\Local\Temp\ccPfQK7a.s 			page 8


 373:Generated_Source\PSoC4/CyDMA.c **** * Return:
 374:Generated_Source\PSoC4/CyDMA.c **** *  Callback function pointer for the specified channel.
 375:Generated_Source\PSoC4/CyDMA.c **** *
 376:Generated_Source\PSoC4/CyDMA.c **** *******************************************************************************/
 377:Generated_Source\PSoC4/CyDMA.c **** cydma_callback_t CyDmaGetInterruptCallback(int32 channel)
 378:Generated_Source\PSoC4/CyDMA.c **** {
 379:Generated_Source\PSoC4/CyDMA.c ****     CYASSERT((channel >= 0) && (channel < CYDMA_CH_NR));
 380:Generated_Source\PSoC4/CyDMA.c ****     
 381:Generated_Source\PSoC4/CyDMA.c ****     return (CyDmaInterruptCallback[channel]);
 382:Generated_Source\PSoC4/CyDMA.c **** }
 383:Generated_Source\PSoC4/CyDMA.c **** 
 384:Generated_Source\PSoC4/CyDMA.c **** 
 385:Generated_Source\PSoC4/CyDMA.c **** /*******************************************************************************
 386:Generated_Source\PSoC4/CyDMA.c **** * Function Name: CyDmaInterrupt
 387:Generated_Source\PSoC4/CyDMA.c **** ********************************************************************************
 388:Generated_Source\PSoC4/CyDMA.c **** *
 389:Generated_Source\PSoC4/CyDMA.c **** * Summary:
 390:Generated_Source\PSoC4/CyDMA.c **** *  The default ISR for DMA interrupts. The handler checks which DMA channel has
 391:Generated_Source\PSoC4/CyDMA.c **** *  triggered the interrupt and calls the user defined callback function.
 392:Generated_Source\PSoC4/CyDMA.c **** *  The callback function is set using CyDmaSetInteruptCallback() API.
 393:Generated_Source\PSoC4/CyDMA.c **** *
 394:Generated_Source\PSoC4/CyDMA.c **** * Parameters:
 395:Generated_Source\PSoC4/CyDMA.c **** *  None.
 396:Generated_Source\PSoC4/CyDMA.c **** *
 397:Generated_Source\PSoC4/CyDMA.c **** * Return:
 398:Generated_Source\PSoC4/CyDMA.c **** *  None.
 399:Generated_Source\PSoC4/CyDMA.c **** *
 400:Generated_Source\PSoC4/CyDMA.c **** * Side Effects:
 401:Generated_Source\PSoC4/CyDMA.c **** *  This function clears the pending interrupts.
 402:Generated_Source\PSoC4/CyDMA.c **** *
 403:Generated_Source\PSoC4/CyDMA.c **** *******************************************************************************/
 404:Generated_Source\PSoC4/CyDMA.c **** CY_ISR(CyDmaInterrupt)
 405:Generated_Source\PSoC4/CyDMA.c **** {
  28              		.loc 1 405 0
  29              		.cfi_startproc
  30              		@ args = 0, pretend = 0, frame = 0
  31              		@ frame_needed = 0, uses_anonymous_args = 0
  32              	.LVL0:
 406:Generated_Source\PSoC4/CyDMA.c ****     uint32 intr;
 407:Generated_Source\PSoC4/CyDMA.c ****     uint32 cbIdx = 0u;
 408:Generated_Source\PSoC4/CyDMA.c **** 
 409:Generated_Source\PSoC4/CyDMA.c ****     /* Get interrupt source. */
 410:Generated_Source\PSoC4/CyDMA.c ****     intr = CYDMA_INTR_MASKED_REG;
  33              		.loc 1 410 0
  34 0000 0B4B     		ldr	r3, .L11
 405:Generated_Source\PSoC4/CyDMA.c ****     uint32 intr;
  35              		.loc 1 405 0
  36 0002 70B5     		push	{r4, r5, r6, lr}
  37              		.cfi_def_cfa_offset 16
  38              		.cfi_offset 4, -16
  39              		.cfi_offset 5, -12
  40              		.cfi_offset 6, -8
  41              		.cfi_offset 14, -4
  42              		.loc 1 410 0
  43 0004 1C68     		ldr	r4, [r3]
  44              	.LVL1:
 411:Generated_Source\PSoC4/CyDMA.c **** 
ARM GAS  C:\Users\AFDHAL~1\AppData\Local\Temp\ccPfQK7a.s 			page 9


 412:Generated_Source\PSoC4/CyDMA.c ****     /* Clear pending interrupts. */
 413:Generated_Source\PSoC4/CyDMA.c ****     CYDMA_INTR_REG = intr;
  45              		.loc 1 413 0
  46 0006 0B4B     		ldr	r3, .L11+4
  47 0008 1C60     		str	r4, [r3]
 414:Generated_Source\PSoC4/CyDMA.c **** 
 415:Generated_Source\PSoC4/CyDMA.c ****     /* Call user defined callback functions for triggered interrupt sources. */
 416:Generated_Source\PSoC4/CyDMA.c ****     while(0u != intr)
  48              		.loc 1 416 0
  49 000a 002C     		cmp	r4, #0
  50 000c 0ED0     		beq	.L1
  51 000e 0A4D     		ldr	r5, .L11+8
 417:Generated_Source\PSoC4/CyDMA.c ****     {
 418:Generated_Source\PSoC4/CyDMA.c ****         if(0u != (intr & 0x1u))
  52              		.loc 1 418 0
  53 0010 0126     		movs	r6, #1
  54 0012 03E0     		b	.L4
  55              	.LVL2:
  56              	.L3:
 419:Generated_Source\PSoC4/CyDMA.c ****         {
 420:Generated_Source\PSoC4/CyDMA.c ****             CyDmaInterruptCallback[cbIdx]();
 421:Generated_Source\PSoC4/CyDMA.c ****         }
 422:Generated_Source\PSoC4/CyDMA.c ****         intr >>= 1;
  57              		.loc 1 422 0
  58 0014 6408     		lsrs	r4, r4, #1
  59              	.LVL3:
  60 0016 0435     		adds	r5, r5, #4
 416:Generated_Source\PSoC4/CyDMA.c ****     {
  61              		.loc 1 416 0
  62 0018 002C     		cmp	r4, #0
  63 001a 07D0     		beq	.L1
  64              	.L4:
 418:Generated_Source\PSoC4/CyDMA.c ****         {
  65              		.loc 1 418 0
  66 001c 2642     		tst	r6, r4
  67 001e F9D0     		beq	.L3
 420:Generated_Source\PSoC4/CyDMA.c ****         }
  68              		.loc 1 420 0
  69 0020 2B68     		ldr	r3, [r5]
  70 0022 9847     		blx	r3
  71              	.LVL4:
  72              		.loc 1 422 0
  73 0024 6408     		lsrs	r4, r4, #1
  74              	.LVL5:
  75 0026 0435     		adds	r5, r5, #4
 416:Generated_Source\PSoC4/CyDMA.c ****     {
  76              		.loc 1 416 0
  77 0028 002C     		cmp	r4, #0
  78 002a F7D1     		bne	.L4
  79              	.L1:
 423:Generated_Source\PSoC4/CyDMA.c ****         ++cbIdx;
 424:Generated_Source\PSoC4/CyDMA.c ****     }
 425:Generated_Source\PSoC4/CyDMA.c **** }
  80              		.loc 1 425 0
  81              		@ sp needed
  82              	.LVL6:
  83 002c 70BD     		pop	{r4, r5, r6, pc}
ARM GAS  C:\Users\AFDHAL~1\AppData\Local\Temp\ccPfQK7a.s 			page 10


  84              	.L12:
  85 002e C046     		.align	2
  86              	.L11:
  87 0030 FC171040 		.word	1074796540
  88 0034 F0171040 		.word	1074796528
  89 0038 00000000 		.word	.LANCHOR0
  90              		.cfi_endproc
  91              	.LFE15:
  92              		.size	CyDmaInterrupt, .-CyDmaInterrupt
  93              		.section	.text.CyDmaDefaultInterruptCallback,"ax",%progbits
  94              		.align	2
  95              		.code	16
  96              		.thumb_func
  97              		.type	CyDmaDefaultInterruptCallback, %function
  98              	CyDmaDefaultInterruptCallback:
  99              	.LFB16:
 426:Generated_Source\PSoC4/CyDMA.c **** 
 427:Generated_Source\PSoC4/CyDMA.c **** 
 428:Generated_Source\PSoC4/CyDMA.c **** /*******************************************************************************
 429:Generated_Source\PSoC4/CyDMA.c **** * Function Name: CyDmaDefaultInterruptCallback
 430:Generated_Source\PSoC4/CyDMA.c **** ********************************************************************************
 431:Generated_Source\PSoC4/CyDMA.c **** *
 432:Generated_Source\PSoC4/CyDMA.c **** * Summary:
 433:Generated_Source\PSoC4/CyDMA.c **** *  This function is invoked when the user defined callback function is undefined
 434:Generated_Source\PSoC4/CyDMA.c **** *  for the interrupt source.
 435:Generated_Source\PSoC4/CyDMA.c **** *
 436:Generated_Source\PSoC4/CyDMA.c **** * Parameters:
 437:Generated_Source\PSoC4/CyDMA.c **** *  None.
 438:Generated_Source\PSoC4/CyDMA.c **** *
 439:Generated_Source\PSoC4/CyDMA.c **** * Return:
 440:Generated_Source\PSoC4/CyDMA.c **** *  None.
 441:Generated_Source\PSoC4/CyDMA.c **** *
 442:Generated_Source\PSoC4/CyDMA.c **** *******************************************************************************/
 443:Generated_Source\PSoC4/CyDMA.c **** static void CyDmaDefaultInterruptCallback(void)
 444:Generated_Source\PSoC4/CyDMA.c **** {
 100              		.loc 1 444 0
 101              		.cfi_startproc
 102              		@ args = 0, pretend = 0, frame = 0
 103              		@ frame_needed = 0, uses_anonymous_args = 0
 104              		@ link register save eliminated.
 445:Generated_Source\PSoC4/CyDMA.c ****     /* Halt CPU in debug mode. We get here because there is no user defined
 446:Generated_Source\PSoC4/CyDMA.c ****     * callback function for the interrupt source. You should either set a
 447:Generated_Source\PSoC4/CyDMA.c ****     * callback function or disable generating an interrupt from this
 448:Generated_Source\PSoC4/CyDMA.c ****     * interrupt source.
 449:Generated_Source\PSoC4/CyDMA.c ****     * To set a callback, use the CyDmaSetInterruptCallback() API function.
 450:Generated_Source\PSoC4/CyDMA.c ****     * To disable interrupt generation, write '0' to the corresponding bit
 451:Generated_Source\PSoC4/CyDMA.c ****     * in the interrupt mask by calling CyDmaSetInterruptSourceMask().
 452:Generated_Source\PSoC4/CyDMA.c ****     */
 453:Generated_Source\PSoC4/CyDMA.c ****     CYASSERT(0 != 0);
 454:Generated_Source\PSoC4/CyDMA.c **** }
 105              		.loc 1 454 0
 106              		@ sp needed
 107 0000 7047     		bx	lr
 108              		.cfi_endproc
 109              	.LFE16:
 110              		.size	CyDmaDefaultInterruptCallback, .-CyDmaDefaultInterruptCallback
 111 0002 C046     		.section	.text.CyDmaEnable,"ax",%progbits
ARM GAS  C:\Users\AFDHAL~1\AppData\Local\Temp\ccPfQK7a.s 			page 11


 112              		.align	2
 113              		.global	CyDmaEnable
 114              		.code	16
 115              		.thumb_func
 116              		.type	CyDmaEnable, %function
 117              	CyDmaEnable:
 118              	.LFB1:
  63:Generated_Source\PSoC4/CyDMA.c ****     static uint8 initIntrVector = 0u;
 119              		.loc 1 63 0
 120              		.cfi_startproc
 121              		@ args = 0, pretend = 0, frame = 0
 122              		@ frame_needed = 0, uses_anonymous_args = 0
 123 0000 10B5     		push	{r4, lr}
 124              		.cfi_def_cfa_offset 8
 125              		.cfi_offset 4, -8
 126              		.cfi_offset 14, -4
  66:Generated_Source\PSoC4/CyDMA.c ****     {
 127              		.loc 1 66 0
 128 0002 094C     		ldr	r4, .L16
 129 0004 2378     		ldrb	r3, [r4]
 130 0006 002B     		cmp	r3, #0
 131 0008 09D1     		bne	.L15
 132              	.LVL7:
 133              	.LBB4:
 134              	.LBB5:
 229:Generated_Source\PSoC4/CyDMA.c **** }
 135              		.loc 1 229 0
 136 000a 0849     		ldr	r1, .L16+4
 137 000c 0D20     		movs	r0, #13
 138 000e FFF7FEFF 		bl	CyIntSetVector
 139              	.LVL8:
 140              	.LBE5:
 141              	.LBE4:
  69:Generated_Source\PSoC4/CyDMA.c ****         initIntrVector = 1u;
 142              		.loc 1 69 0
 143 0012 0321     		movs	r1, #3
 144 0014 0D20     		movs	r0, #13
 145 0016 FFF7FEFF 		bl	CyIntSetPriority
 146              	.LVL9:
  70:Generated_Source\PSoC4/CyDMA.c ****     }
 147              		.loc 1 70 0
 148 001a 0123     		movs	r3, #1
 149 001c 2370     		strb	r3, [r4]
 150              	.L15:
  72:Generated_Source\PSoC4/CyDMA.c **** }
 151              		.loc 1 72 0
 152 001e 8022     		movs	r2, #128
 153 0020 034B     		ldr	r3, .L16+8
 154 0022 1206     		lsls	r2, r2, #24
 155 0024 1A60     		str	r2, [r3]
  73:Generated_Source\PSoC4/CyDMA.c **** 
 156              		.loc 1 73 0
 157              		@ sp needed
 158 0026 10BD     		pop	{r4, pc}
 159              	.L17:
 160              		.align	2
 161              	.L16:
ARM GAS  C:\Users\AFDHAL~1\AppData\Local\Temp\ccPfQK7a.s 			page 12


 162 0028 00000000 		.word	.LANCHOR1
 163 002c 00000000 		.word	CyDmaInterrupt
 164 0030 00101040 		.word	1074794496
 165              		.cfi_endproc
 166              	.LFE1:
 167              		.size	CyDmaEnable, .-CyDmaEnable
 168              		.section	.text.CyDmaDisable,"ax",%progbits
 169              		.align	2
 170              		.global	CyDmaDisable
 171              		.code	16
 172              		.thumb_func
 173              		.type	CyDmaDisable, %function
 174              	CyDmaDisable:
 175              	.LFB2:
  94:Generated_Source\PSoC4/CyDMA.c ****     CYDMA_CTL_REG = (uint32)~CYDMA_ENABLED;
 176              		.loc 1 94 0
 177              		.cfi_startproc
 178              		@ args = 0, pretend = 0, frame = 0
 179              		@ frame_needed = 0, uses_anonymous_args = 0
 180              		@ link register save eliminated.
  95:Generated_Source\PSoC4/CyDMA.c **** }
 181              		.loc 1 95 0
 182 0000 014A     		ldr	r2, .L19
 183 0002 024B     		ldr	r3, .L19+4
  96:Generated_Source\PSoC4/CyDMA.c **** 
 184              		.loc 1 96 0
 185              		@ sp needed
  95:Generated_Source\PSoC4/CyDMA.c **** }
 186              		.loc 1 95 0
 187 0004 1A60     		str	r2, [r3]
  96:Generated_Source\PSoC4/CyDMA.c **** 
 188              		.loc 1 96 0
 189 0006 7047     		bx	lr
 190              	.L20:
 191              		.align	2
 192              	.L19:
 193 0008 FFFFFF7F 		.word	2147483647
 194 000c 00101040 		.word	1074794496
 195              		.cfi_endproc
 196              	.LFE2:
 197              		.size	CyDmaDisable, .-CyDmaDisable
 198              		.section	.text.CyDmaGetStatus,"ax",%progbits
 199              		.align	2
 200              		.global	CyDmaGetStatus
 201              		.code	16
 202              		.thumb_func
 203              		.type	CyDmaGetStatus, %function
 204              	CyDmaGetStatus:
 205              	.LFB3:
 122:Generated_Source\PSoC4/CyDMA.c ****     return (CYDMA_STATUS_REG);
 206              		.loc 1 122 0
 207              		.cfi_startproc
 208              		@ args = 0, pretend = 0, frame = 0
 209              		@ frame_needed = 0, uses_anonymous_args = 0
 210              		@ link register save eliminated.
 123:Generated_Source\PSoC4/CyDMA.c **** }
 211              		.loc 1 123 0
ARM GAS  C:\Users\AFDHAL~1\AppData\Local\Temp\ccPfQK7a.s 			page 13


 212 0000 014B     		ldr	r3, .L22
 124:Generated_Source\PSoC4/CyDMA.c **** 
 213              		.loc 1 124 0
 214              		@ sp needed
 123:Generated_Source\PSoC4/CyDMA.c **** }
 215              		.loc 1 123 0
 216 0002 1868     		ldr	r0, [r3]
 124:Generated_Source\PSoC4/CyDMA.c **** 
 217              		.loc 1 124 0
 218 0004 7047     		bx	lr
 219              	.L23:
 220 0006 C046     		.align	2
 221              	.L22:
 222 0008 10101040 		.word	1074794512
 223              		.cfi_endproc
 224              	.LFE3:
 225              		.size	CyDmaGetStatus, .-CyDmaGetStatus
 226              		.section	.text.CyDmaGetActiveChannels,"ax",%progbits
 227              		.align	2
 228              		.global	CyDmaGetActiveChannels
 229              		.code	16
 230              		.thumb_func
 231              		.type	CyDmaGetActiveChannels, %function
 232              	CyDmaGetActiveChannels:
 233              	.LFB4:
 143:Generated_Source\PSoC4/CyDMA.c ****     return (CYDMA_STATUS_CH_ACT_REG);
 234              		.loc 1 143 0
 235              		.cfi_startproc
 236              		@ args = 0, pretend = 0, frame = 0
 237              		@ frame_needed = 0, uses_anonymous_args = 0
 238              		@ link register save eliminated.
 144:Generated_Source\PSoC4/CyDMA.c **** }
 239              		.loc 1 144 0
 240 0000 014B     		ldr	r3, .L25
 145:Generated_Source\PSoC4/CyDMA.c **** 
 241              		.loc 1 145 0
 242              		@ sp needed
 144:Generated_Source\PSoC4/CyDMA.c **** }
 243              		.loc 1 144 0
 244 0002 1868     		ldr	r0, [r3]
 145:Generated_Source\PSoC4/CyDMA.c **** 
 245              		.loc 1 145 0
 246 0004 7047     		bx	lr
 247              	.L26:
 248 0006 C046     		.align	2
 249              	.L25:
 250 0008 1C101040 		.word	1074794524
 251              		.cfi_endproc
 252              	.LFE4:
 253              		.size	CyDmaGetActiveChannels, .-CyDmaGetActiveChannels
 254              		.section	.text.CyDmaGetActiveSrcAddress,"ax",%progbits
 255              		.align	2
 256              		.global	CyDmaGetActiveSrcAddress
 257              		.code	16
 258              		.thumb_func
 259              		.type	CyDmaGetActiveSrcAddress, %function
 260              	CyDmaGetActiveSrcAddress:
ARM GAS  C:\Users\AFDHAL~1\AppData\Local\Temp\ccPfQK7a.s 			page 14


 261              	.LFB5:
 171:Generated_Source\PSoC4/CyDMA.c ****     return ((void *)CYDMA_STATUS_SRC_ADDR_REG);
 262              		.loc 1 171 0
 263              		.cfi_startproc
 264              		@ args = 0, pretend = 0, frame = 0
 265              		@ frame_needed = 0, uses_anonymous_args = 0
 266              		@ link register save eliminated.
 172:Generated_Source\PSoC4/CyDMA.c **** }
 267              		.loc 1 172 0
 268 0000 014B     		ldr	r3, .L28
 173:Generated_Source\PSoC4/CyDMA.c **** 
 269              		.loc 1 173 0
 270              		@ sp needed
 172:Generated_Source\PSoC4/CyDMA.c **** }
 271              		.loc 1 172 0
 272 0002 1868     		ldr	r0, [r3]
 173:Generated_Source\PSoC4/CyDMA.c **** 
 273              		.loc 1 173 0
 274 0004 7047     		bx	lr
 275              	.L29:
 276 0006 C046     		.align	2
 277              	.L28:
 278 0008 14101040 		.word	1074794516
 279              		.cfi_endproc
 280              	.LFE5:
 281              		.size	CyDmaGetActiveSrcAddress, .-CyDmaGetActiveSrcAddress
 282              		.section	.text.CyDmaGetActiveDstAddress,"ax",%progbits
 283              		.align	2
 284              		.global	CyDmaGetActiveDstAddress
 285              		.code	16
 286              		.thumb_func
 287              		.type	CyDmaGetActiveDstAddress, %function
 288              	CyDmaGetActiveDstAddress:
 289              	.LFB6:
 199:Generated_Source\PSoC4/CyDMA.c ****     return ((void *)CYDMA_STATUS_DST_ADDR_REG);
 290              		.loc 1 199 0
 291              		.cfi_startproc
 292              		@ args = 0, pretend = 0, frame = 0
 293              		@ frame_needed = 0, uses_anonymous_args = 0
 294              		@ link register save eliminated.
 200:Generated_Source\PSoC4/CyDMA.c **** }
 295              		.loc 1 200 0
 296 0000 014B     		ldr	r3, .L31
 201:Generated_Source\PSoC4/CyDMA.c **** 
 297              		.loc 1 201 0
 298              		@ sp needed
 200:Generated_Source\PSoC4/CyDMA.c **** }
 299              		.loc 1 200 0
 300 0002 1868     		ldr	r0, [r3]
 201:Generated_Source\PSoC4/CyDMA.c **** 
 301              		.loc 1 201 0
 302 0004 7047     		bx	lr
 303              	.L32:
 304 0006 C046     		.align	2
 305              	.L31:
 306 0008 18101040 		.word	1074794520
 307              		.cfi_endproc
ARM GAS  C:\Users\AFDHAL~1\AppData\Local\Temp\ccPfQK7a.s 			page 15


 308              	.LFE6:
 309              		.size	CyDmaGetActiveDstAddress, .-CyDmaGetActiveDstAddress
 310              		.section	.text.CyDmaSetInterruptVector,"ax",%progbits
 311              		.align	2
 312              		.global	CyDmaSetInterruptVector
 313              		.code	16
 314              		.thumb_func
 315              		.type	CyDmaSetInterruptVector, %function
 316              	CyDmaSetInterruptVector:
 317              	.LFB7:
 228:Generated_Source\PSoC4/CyDMA.c ****     (void)CyIntSetVector(CYDMA_INTR_NUMBER, interruptVector);
 318              		.loc 1 228 0
 319              		.cfi_startproc
 320              		@ args = 0, pretend = 0, frame = 0
 321              		@ frame_needed = 0, uses_anonymous_args = 0
 322              	.LVL10:
 323 0000 10B5     		push	{r4, lr}
 324              		.cfi_def_cfa_offset 8
 325              		.cfi_offset 4, -8
 326              		.cfi_offset 14, -4
 228:Generated_Source\PSoC4/CyDMA.c ****     (void)CyIntSetVector(CYDMA_INTR_NUMBER, interruptVector);
 327              		.loc 1 228 0
 328 0002 0100     		movs	r1, r0
 229:Generated_Source\PSoC4/CyDMA.c **** }
 329              		.loc 1 229 0
 330 0004 0D20     		movs	r0, #13
 331              	.LVL11:
 332 0006 FFF7FEFF 		bl	CyIntSetVector
 333              	.LVL12:
 230:Generated_Source\PSoC4/CyDMA.c **** 
 334              		.loc 1 230 0
 335              		@ sp needed
 336 000a 10BD     		pop	{r4, pc}
 337              		.cfi_endproc
 338              	.LFE7:
 339              		.size	CyDmaSetInterruptVector, .-CyDmaSetInterruptVector
 340              		.section	.text.CyDmaGetInterruptSource,"ax",%progbits
 341              		.align	2
 342              		.global	CyDmaGetInterruptSource
 343              		.code	16
 344              		.thumb_func
 345              		.type	CyDmaGetInterruptSource, %function
 346              	CyDmaGetInterruptSource:
 347              	.LFB8:
 248:Generated_Source\PSoC4/CyDMA.c ****     return (CYDMA_INTR_REG);
 348              		.loc 1 248 0
 349              		.cfi_startproc
 350              		@ args = 0, pretend = 0, frame = 0
 351              		@ frame_needed = 0, uses_anonymous_args = 0
 352              		@ link register save eliminated.
 249:Generated_Source\PSoC4/CyDMA.c **** }
 353              		.loc 1 249 0
 354 0000 014B     		ldr	r3, .L35
 250:Generated_Source\PSoC4/CyDMA.c **** 
 355              		.loc 1 250 0
 356              		@ sp needed
 249:Generated_Source\PSoC4/CyDMA.c **** }
ARM GAS  C:\Users\AFDHAL~1\AppData\Local\Temp\ccPfQK7a.s 			page 16


 357              		.loc 1 249 0
 358 0002 1868     		ldr	r0, [r3]
 250:Generated_Source\PSoC4/CyDMA.c **** 
 359              		.loc 1 250 0
 360 0004 7047     		bx	lr
 361              	.L36:
 362 0006 C046     		.align	2
 363              	.L35:
 364 0008 F0171040 		.word	1074796528
 365              		.cfi_endproc
 366              	.LFE8:
 367              		.size	CyDmaGetInterruptSource, .-CyDmaGetInterruptSource
 368              		.section	.text.CyDmaClearInterruptSource,"ax",%progbits
 369              		.align	2
 370              		.global	CyDmaClearInterruptSource
 371              		.code	16
 372              		.thumb_func
 373              		.type	CyDmaClearInterruptSource, %function
 374              	CyDmaClearInterruptSource:
 375              	.LFB9:
 268:Generated_Source\PSoC4/CyDMA.c ****     CYDMA_INTR_REG = interruptMask;
 376              		.loc 1 268 0
 377              		.cfi_startproc
 378              		@ args = 0, pretend = 0, frame = 0
 379              		@ frame_needed = 0, uses_anonymous_args = 0
 380              		@ link register save eliminated.
 381              	.LVL13:
 269:Generated_Source\PSoC4/CyDMA.c **** }
 382              		.loc 1 269 0
 383 0000 014B     		ldr	r3, .L38
 270:Generated_Source\PSoC4/CyDMA.c **** 
 384              		.loc 1 270 0
 385              		@ sp needed
 269:Generated_Source\PSoC4/CyDMA.c **** }
 386              		.loc 1 269 0
 387 0002 1860     		str	r0, [r3]
 270:Generated_Source\PSoC4/CyDMA.c **** 
 388              		.loc 1 270 0
 389 0004 7047     		bx	lr
 390              	.L39:
 391 0006 C046     		.align	2
 392              	.L38:
 393 0008 F0171040 		.word	1074796528
 394              		.cfi_endproc
 395              	.LFE9:
 396              		.size	CyDmaClearInterruptSource, .-CyDmaClearInterruptSource
 397              		.section	.text.CyDmaSetInterruptSourceMask,"ax",%progbits
 398              		.align	2
 399              		.global	CyDmaSetInterruptSourceMask
 400              		.code	16
 401              		.thumb_func
 402              		.type	CyDmaSetInterruptSourceMask, %function
 403              	CyDmaSetInterruptSourceMask:
 404              	.LFB10:
 288:Generated_Source\PSoC4/CyDMA.c ****     CYDMA_INTR_MASK_REG = interruptMask;
 405              		.loc 1 288 0
 406              		.cfi_startproc
ARM GAS  C:\Users\AFDHAL~1\AppData\Local\Temp\ccPfQK7a.s 			page 17


 407              		@ args = 0, pretend = 0, frame = 0
 408              		@ frame_needed = 0, uses_anonymous_args = 0
 409              		@ link register save eliminated.
 410              	.LVL14:
 289:Generated_Source\PSoC4/CyDMA.c **** }
 411              		.loc 1 289 0
 412 0000 014B     		ldr	r3, .L41
 290:Generated_Source\PSoC4/CyDMA.c **** 
 413              		.loc 1 290 0
 414              		@ sp needed
 289:Generated_Source\PSoC4/CyDMA.c **** }
 415              		.loc 1 289 0
 416 0002 1860     		str	r0, [r3]
 290:Generated_Source\PSoC4/CyDMA.c **** 
 417              		.loc 1 290 0
 418 0004 7047     		bx	lr
 419              	.L42:
 420 0006 C046     		.align	2
 421              	.L41:
 422 0008 F8171040 		.word	1074796536
 423              		.cfi_endproc
 424              	.LFE10:
 425              		.size	CyDmaSetInterruptSourceMask, .-CyDmaSetInterruptSourceMask
 426              		.section	.text.CyDmaGetInterruptSourceMask,"ax",%progbits
 427              		.align	2
 428              		.global	CyDmaGetInterruptSourceMask
 429              		.code	16
 430              		.thumb_func
 431              		.type	CyDmaGetInterruptSourceMask, %function
 432              	CyDmaGetInterruptSourceMask:
 433              	.LFB11:
 308:Generated_Source\PSoC4/CyDMA.c ****     return (CYDMA_INTR_MASK_REG);
 434              		.loc 1 308 0
 435              		.cfi_startproc
 436              		@ args = 0, pretend = 0, frame = 0
 437              		@ frame_needed = 0, uses_anonymous_args = 0
 438              		@ link register save eliminated.
 309:Generated_Source\PSoC4/CyDMA.c **** }
 439              		.loc 1 309 0
 440 0000 014B     		ldr	r3, .L44
 310:Generated_Source\PSoC4/CyDMA.c **** 
 441              		.loc 1 310 0
 442              		@ sp needed
 309:Generated_Source\PSoC4/CyDMA.c **** }
 443              		.loc 1 309 0
 444 0002 1868     		ldr	r0, [r3]
 310:Generated_Source\PSoC4/CyDMA.c **** 
 445              		.loc 1 310 0
 446 0004 7047     		bx	lr
 447              	.L45:
 448 0006 C046     		.align	2
 449              	.L44:
 450 0008 F8171040 		.word	1074796536
 451              		.cfi_endproc
 452              	.LFE11:
 453              		.size	CyDmaGetInterruptSourceMask, .-CyDmaGetInterruptSourceMask
 454              		.section	.text.CyDmaGetInterruptSourceMasked,"ax",%progbits
ARM GAS  C:\Users\AFDHAL~1\AppData\Local\Temp\ccPfQK7a.s 			page 18


 455              		.align	2
 456              		.global	CyDmaGetInterruptSourceMasked
 457              		.code	16
 458              		.thumb_func
 459              		.type	CyDmaGetInterruptSourceMasked, %function
 460              	CyDmaGetInterruptSourceMasked:
 461              	.LFB12:
 328:Generated_Source\PSoC4/CyDMA.c ****     return (CYDMA_INTR_MASKED_REG);
 462              		.loc 1 328 0
 463              		.cfi_startproc
 464              		@ args = 0, pretend = 0, frame = 0
 465              		@ frame_needed = 0, uses_anonymous_args = 0
 466              		@ link register save eliminated.
 329:Generated_Source\PSoC4/CyDMA.c **** }
 467              		.loc 1 329 0
 468 0000 014B     		ldr	r3, .L47
 330:Generated_Source\PSoC4/CyDMA.c **** 
 469              		.loc 1 330 0
 470              		@ sp needed
 329:Generated_Source\PSoC4/CyDMA.c **** }
 471              		.loc 1 329 0
 472 0002 1868     		ldr	r0, [r3]
 330:Generated_Source\PSoC4/CyDMA.c **** 
 473              		.loc 1 330 0
 474 0004 7047     		bx	lr
 475              	.L48:
 476 0006 C046     		.align	2
 477              	.L47:
 478 0008 FC171040 		.word	1074796540
 479              		.cfi_endproc
 480              	.LFE12:
 481              		.size	CyDmaGetInterruptSourceMasked, .-CyDmaGetInterruptSourceMasked
 482              		.section	.text.CyDmaSetInterruptCallback,"ax",%progbits
 483              		.align	2
 484              		.global	CyDmaSetInterruptCallback
 485              		.code	16
 486              		.thumb_func
 487              		.type	CyDmaSetInterruptCallback, %function
 488              	CyDmaSetInterruptCallback:
 489              	.LFB13:
 351:Generated_Source\PSoC4/CyDMA.c ****     cydma_callback_t prevCallback;
 490              		.loc 1 351 0
 491              		.cfi_startproc
 492              		@ args = 0, pretend = 0, frame = 0
 493              		@ frame_needed = 0, uses_anonymous_args = 0
 494              		@ link register save eliminated.
 495              	.LVL15:
 356:Generated_Source\PSoC4/CyDMA.c ****     CyDmaInterruptCallback[channel] = callback;
 496              		.loc 1 356 0
 497 0000 024A     		ldr	r2, .L50
 498 0002 8300     		lsls	r3, r0, #2
 499 0004 9858     		ldr	r0, [r3, r2]
 500              	.LVL16:
 359:Generated_Source\PSoC4/CyDMA.c **** 
 501              		.loc 1 359 0
 502              		@ sp needed
 357:Generated_Source\PSoC4/CyDMA.c ****     return (prevCallback);
ARM GAS  C:\Users\AFDHAL~1\AppData\Local\Temp\ccPfQK7a.s 			page 19


 503              		.loc 1 357 0
 504 0006 9950     		str	r1, [r3, r2]
 359:Generated_Source\PSoC4/CyDMA.c **** 
 505              		.loc 1 359 0
 506 0008 7047     		bx	lr
 507              	.L51:
 508 000a C046     		.align	2
 509              	.L50:
 510 000c 00000000 		.word	.LANCHOR0
 511              		.cfi_endproc
 512              	.LFE13:
 513              		.size	CyDmaSetInterruptCallback, .-CyDmaSetInterruptCallback
 514              		.section	.text.CyDmaGetInterruptCallback,"ax",%progbits
 515              		.align	2
 516              		.global	CyDmaGetInterruptCallback
 517              		.code	16
 518              		.thumb_func
 519              		.type	CyDmaGetInterruptCallback, %function
 520              	CyDmaGetInterruptCallback:
 521              	.LFB14:
 378:Generated_Source\PSoC4/CyDMA.c ****     CYASSERT((channel >= 0) && (channel < CYDMA_CH_NR));
 522              		.loc 1 378 0
 523              		.cfi_startproc
 524              		@ args = 0, pretend = 0, frame = 0
 525              		@ frame_needed = 0, uses_anonymous_args = 0
 526              		@ link register save eliminated.
 527              	.LVL17:
 381:Generated_Source\PSoC4/CyDMA.c **** }
 528              		.loc 1 381 0
 529 0000 014B     		ldr	r3, .L53
 530 0002 8000     		lsls	r0, r0, #2
 531              	.LVL18:
 532 0004 C058     		ldr	r0, [r0, r3]
 382:Generated_Source\PSoC4/CyDMA.c **** 
 533              		.loc 1 382 0
 534              		@ sp needed
 535 0006 7047     		bx	lr
 536              	.L54:
 537              		.align	2
 538              	.L53:
 539 0008 00000000 		.word	.LANCHOR0
 540              		.cfi_endproc
 541              	.LFE14:
 542              		.size	CyDmaGetInterruptCallback, .-CyDmaGetInterruptCallback
 543              		.section	.text.CyDmaChAlloc,"ax",%progbits
 544              		.align	2
 545              		.global	CyDmaChAlloc
 546              		.code	16
 547              		.thumb_func
 548              		.type	CyDmaChAlloc, %function
 549              	CyDmaChAlloc:
 550              	.LFB17:
 455:Generated_Source\PSoC4/CyDMA.c **** 
 456:Generated_Source\PSoC4/CyDMA.c **** 
 457:Generated_Source\PSoC4/CyDMA.c **** /*******************************************************************************
 458:Generated_Source\PSoC4/CyDMA.c **** * Function Name: CyDmaChAlloc
 459:Generated_Source\PSoC4/CyDMA.c **** ********************************************************************************
ARM GAS  C:\Users\AFDHAL~1\AppData\Local\Temp\ccPfQK7a.s 			page 20


 460:Generated_Source\PSoC4/CyDMA.c **** *
 461:Generated_Source\PSoC4/CyDMA.c **** * Summary:
 462:Generated_Source\PSoC4/CyDMA.c **** *  Allocates a channel number to use with later DMA functions.
 463:Generated_Source\PSoC4/CyDMA.c **** *
 464:Generated_Source\PSoC4/CyDMA.c **** * Parameters:
 465:Generated_Source\PSoC4/CyDMA.c **** *  None.
 466:Generated_Source\PSoC4/CyDMA.c **** *                   
 467:Generated_Source\PSoC4/CyDMA.c **** * Return:
 468:Generated_Source\PSoC4/CyDMA.c **** *  The allocated channel number. Zero is a valid channel number.
 469:Generated_Source\PSoC4/CyDMA.c **** *  CYDMA_INVALID_CHANNEL is returned if there are no channels available.
 470:Generated_Source\PSoC4/CyDMA.c **** *
 471:Generated_Source\PSoC4/CyDMA.c **** *******************************************************************************/
 472:Generated_Source\PSoC4/CyDMA.c **** int32 CyDmaChAlloc(void)
 473:Generated_Source\PSoC4/CyDMA.c **** {
 551              		.loc 1 473 0
 552              		.cfi_startproc
 553              		@ args = 0, pretend = 0, frame = 0
 554              		@ frame_needed = 0, uses_anonymous_args = 0
 555              		@ link register save eliminated.
 556              	.LVL19:
 557 0000 174A     		ldr	r2, .L67
 558 0002 5368     		ldr	r3, [r2, #4]
 474:Generated_Source\PSoC4/CyDMA.c ****     int32  channel = CYDMA_CH_NR-1;
 475:Generated_Source\PSoC4/CyDMA.c ****     uint32 channelMask = (uint32)(1UL << (CYDMA_CH_NR-1));
 476:Generated_Source\PSoC4/CyDMA.c ****     
 477:Generated_Source\PSoC4/CyDMA.c ****     while (channel >= 0)
 478:Generated_Source\PSoC4/CyDMA.c ****     {
 479:Generated_Source\PSoC4/CyDMA.c ****         if(0u == (CyDmaChannelUsedMask & channelMask))
 559              		.loc 1 479 0
 560 0004 1906     		lsls	r1, r3, #24
 561 0006 10D5     		bpl	.L58
 562              	.LVL20:
 563 0008 5906     		lsls	r1, r3, #25
 564 000a 13D5     		bpl	.L59
 565              	.LVL21:
 566 000c 9906     		lsls	r1, r3, #26
 567 000e 14D5     		bpl	.L60
 568              	.LVL22:
 569 0010 D906     		lsls	r1, r3, #27
 570 0012 15D5     		bpl	.L61
 571              	.LVL23:
 572 0014 1907     		lsls	r1, r3, #28
 573 0016 16D5     		bpl	.L62
 574              	.LVL24:
 575 0018 5907     		lsls	r1, r3, #29
 576 001a 17D5     		bpl	.L63
 577              	.LVL25:
 578 001c 9907     		lsls	r1, r3, #30
 579 001e 18D5     		bpl	.L64
 580              	.LVL26:
 581 0020 0120     		movs	r0, #1
 582 0022 4042     		rsbs	r0, r0, #0
 583 0024 D907     		lsls	r1, r3, #31
 584 0026 17D5     		bpl	.L66
 585              	.LVL27:
 586              	.L57:
 480:Generated_Source\PSoC4/CyDMA.c ****         {
ARM GAS  C:\Users\AFDHAL~1\AppData\Local\Temp\ccPfQK7a.s 			page 21


 481:Generated_Source\PSoC4/CyDMA.c ****             /* Mark channel as used and exit loop. */ 
 482:Generated_Source\PSoC4/CyDMA.c ****             CyDmaChannelUsedMask |= channelMask;
 483:Generated_Source\PSoC4/CyDMA.c ****             break;
 484:Generated_Source\PSoC4/CyDMA.c ****         }
 485:Generated_Source\PSoC4/CyDMA.c ****         channelMask >>= 1;
 486:Generated_Source\PSoC4/CyDMA.c ****         --channel;
 487:Generated_Source\PSoC4/CyDMA.c ****     }
 488:Generated_Source\PSoC4/CyDMA.c ****     return (channel);
 489:Generated_Source\PSoC4/CyDMA.c **** }
 587              		.loc 1 489 0
 588              		@ sp needed
 589 0028 7047     		bx	lr
 590              	.LVL28:
 591              	.L58:
 475:Generated_Source\PSoC4/CyDMA.c ****     
 592              		.loc 1 475 0
 593 002a 8021     		movs	r1, #128
 474:Generated_Source\PSoC4/CyDMA.c ****     int32  channel = CYDMA_CH_NR-1;
 594              		.loc 1 474 0
 595 002c 0720     		movs	r0, #7
 596              	.LVL29:
 597              	.L56:
 482:Generated_Source\PSoC4/CyDMA.c ****             break;
 598              		.loc 1 482 0
 599 002e 0B43     		orrs	r3, r1
 600 0030 5360     		str	r3, [r2, #4]
 483:Generated_Source\PSoC4/CyDMA.c ****         }
 601              		.loc 1 483 0
 602 0032 F9E7     		b	.L57
 603              	.LVL30:
 604              	.L59:
 485:Generated_Source\PSoC4/CyDMA.c ****         --channel;
 605              		.loc 1 485 0
 606 0034 4021     		movs	r1, #64
 486:Generated_Source\PSoC4/CyDMA.c ****     }
 607              		.loc 1 486 0
 608 0036 0620     		movs	r0, #6
 609 0038 F9E7     		b	.L56
 610              	.LVL31:
 611              	.L60:
 485:Generated_Source\PSoC4/CyDMA.c ****         --channel;
 612              		.loc 1 485 0
 613 003a 2021     		movs	r1, #32
 486:Generated_Source\PSoC4/CyDMA.c ****     }
 614              		.loc 1 486 0
 615 003c 0520     		movs	r0, #5
 616 003e F6E7     		b	.L56
 617              	.LVL32:
 618              	.L61:
 485:Generated_Source\PSoC4/CyDMA.c ****         --channel;
 619              		.loc 1 485 0
 620 0040 1021     		movs	r1, #16
 486:Generated_Source\PSoC4/CyDMA.c ****     }
 621              		.loc 1 486 0
 622 0042 0420     		movs	r0, #4
 623 0044 F3E7     		b	.L56
 624              	.LVL33:
ARM GAS  C:\Users\AFDHAL~1\AppData\Local\Temp\ccPfQK7a.s 			page 22


 625              	.L62:
 485:Generated_Source\PSoC4/CyDMA.c ****         --channel;
 626              		.loc 1 485 0
 627 0046 0821     		movs	r1, #8
 486:Generated_Source\PSoC4/CyDMA.c ****     }
 628              		.loc 1 486 0
 629 0048 0320     		movs	r0, #3
 630 004a F0E7     		b	.L56
 631              	.LVL34:
 632              	.L63:
 485:Generated_Source\PSoC4/CyDMA.c ****         --channel;
 633              		.loc 1 485 0
 634 004c 0421     		movs	r1, #4
 486:Generated_Source\PSoC4/CyDMA.c ****     }
 635              		.loc 1 486 0
 636 004e 0220     		movs	r0, #2
 637 0050 EDE7     		b	.L56
 638              	.LVL35:
 639              	.L64:
 485:Generated_Source\PSoC4/CyDMA.c ****         --channel;
 640              		.loc 1 485 0
 641 0052 0221     		movs	r1, #2
 486:Generated_Source\PSoC4/CyDMA.c ****     }
 642              		.loc 1 486 0
 643 0054 0120     		movs	r0, #1
 644 0056 EAE7     		b	.L56
 645              	.LVL36:
 646              	.L66:
 485:Generated_Source\PSoC4/CyDMA.c ****         --channel;
 647              		.loc 1 485 0
 648 0058 0121     		movs	r1, #1
 486:Generated_Source\PSoC4/CyDMA.c ****     }
 649              		.loc 1 486 0
 650 005a 0020     		movs	r0, #0
 651 005c E7E7     		b	.L56
 652              	.L68:
 653 005e C046     		.align	2
 654              	.L67:
 655 0060 00000000 		.word	.LANCHOR1
 656              		.cfi_endproc
 657              	.LFE17:
 658              		.size	CyDmaChAlloc, .-CyDmaChAlloc
 659              		.section	.text.CyDmaChFree,"ax",%progbits
 660              		.align	2
 661              		.global	CyDmaChFree
 662              		.code	16
 663              		.thumb_func
 664              		.type	CyDmaChFree, %function
 665              	CyDmaChFree:
 666              	.LFB18:
 490:Generated_Source\PSoC4/CyDMA.c **** 
 491:Generated_Source\PSoC4/CyDMA.c **** 
 492:Generated_Source\PSoC4/CyDMA.c **** /*******************************************************************************
 493:Generated_Source\PSoC4/CyDMA.c **** * Function Name: CyDmaChFree
 494:Generated_Source\PSoC4/CyDMA.c **** ********************************************************************************
 495:Generated_Source\PSoC4/CyDMA.c **** *
 496:Generated_Source\PSoC4/CyDMA.c **** * Summary:
ARM GAS  C:\Users\AFDHAL~1\AppData\Local\Temp\ccPfQK7a.s 			page 23


 497:Generated_Source\PSoC4/CyDMA.c **** *  Frees a channel handle allocated by CyDmaChAlloc(). Channels allocated for
 498:Generated_Source\PSoC4/CyDMA.c **** *  DMA instances placed on a schematic cannot be freed.
 499:Generated_Source\PSoC4/CyDMA.c **** *
 500:Generated_Source\PSoC4/CyDMA.c **** * Parameters:
 501:Generated_Source\PSoC4/CyDMA.c **** *  channel: The handle previously returned by CyDmaChAlloc().
 502:Generated_Source\PSoC4/CyDMA.c **** *                   
 503:Generated_Source\PSoC4/CyDMA.c **** * Return:
 504:Generated_Source\PSoC4/CyDMA.c **** *  CYRET_SUCCESS if successful.
 505:Generated_Source\PSoC4/CyDMA.c **** *  CYRET_BAD_PARAM if channel is invalid.
 506:Generated_Source\PSoC4/CyDMA.c **** *
 507:Generated_Source\PSoC4/CyDMA.c **** *******************************************************************************/
 508:Generated_Source\PSoC4/CyDMA.c **** cystatus CyDmaChFree(int32 channel)
 509:Generated_Source\PSoC4/CyDMA.c **** {
 667              		.loc 1 509 0
 668              		.cfi_startproc
 669              		@ args = 0, pretend = 0, frame = 0
 670              		@ frame_needed = 0, uses_anonymous_args = 0
 671              		@ link register save eliminated.
 672              	.LVL37:
 510:Generated_Source\PSoC4/CyDMA.c ****     uint32   channelMask;
 511:Generated_Source\PSoC4/CyDMA.c ****     cystatus result = CYRET_BAD_PARAM;
 512:Generated_Source\PSoC4/CyDMA.c **** 
 513:Generated_Source\PSoC4/CyDMA.c ****     CYASSERT((channel >= 0) && (channel < CYDMA_CH_NR));
 514:Generated_Source\PSoC4/CyDMA.c ****     
 515:Generated_Source\PSoC4/CyDMA.c ****     channelMask = (uint32)(1UL << channel);
 516:Generated_Source\PSoC4/CyDMA.c **** 
 517:Generated_Source\PSoC4/CyDMA.c ****     /* Check against attempt to free channel allocated for DMA instance
 518:Generated_Source\PSoC4/CyDMA.c ****     * placed on schematic.
 519:Generated_Source\PSoC4/CyDMA.c ****     */
 520:Generated_Source\PSoC4/CyDMA.c ****     if(0u == (channelMask & DMA_CHANNELS_USED__MASK))
 521:Generated_Source\PSoC4/CyDMA.c ****     {
 522:Generated_Source\PSoC4/CyDMA.c ****         CyDmaChannelUsedMask &= (uint32)~channelMask;
 673              		.loc 1 522 0
 674 0000 0123     		movs	r3, #1
 675 0002 8340     		lsls	r3, r3, r0
 676              	.LVL38:
 677 0004 024A     		ldr	r2, .L70
 523:Generated_Source\PSoC4/CyDMA.c ****         result = CYRET_SUCCESS;
 524:Generated_Source\PSoC4/CyDMA.c ****     }
 525:Generated_Source\PSoC4/CyDMA.c ****     
 526:Generated_Source\PSoC4/CyDMA.c ****     return (result);
 527:Generated_Source\PSoC4/CyDMA.c **** }
 678              		.loc 1 527 0
 679 0006 0020     		movs	r0, #0
 680              	.LVL39:
 522:Generated_Source\PSoC4/CyDMA.c ****         result = CYRET_SUCCESS;
 681              		.loc 1 522 0
 682 0008 5168     		ldr	r1, [r2, #4]
 683              		.loc 1 527 0
 684              		@ sp needed
 522:Generated_Source\PSoC4/CyDMA.c ****         result = CYRET_SUCCESS;
 685              		.loc 1 522 0
 686 000a 9943     		bics	r1, r3
 687 000c 5160     		str	r1, [r2, #4]
 688              	.LVL40:
 689              		.loc 1 527 0
 690 000e 7047     		bx	lr
ARM GAS  C:\Users\AFDHAL~1\AppData\Local\Temp\ccPfQK7a.s 			page 24


 691              	.L71:
 692              		.align	2
 693              	.L70:
 694 0010 00000000 		.word	.LANCHOR1
 695              		.cfi_endproc
 696              	.LFE18:
 697              		.size	CyDmaChFree, .-CyDmaChFree
 698              		.section	.text.CyDmaChEnable,"ax",%progbits
 699              		.align	2
 700              		.global	CyDmaChEnable
 701              		.code	16
 702              		.thumb_func
 703              		.type	CyDmaChEnable, %function
 704              	CyDmaChEnable:
 705              	.LFB19:
 528:Generated_Source\PSoC4/CyDMA.c **** 
 529:Generated_Source\PSoC4/CyDMA.c **** 
 530:Generated_Source\PSoC4/CyDMA.c **** /*******************************************************************************
 531:Generated_Source\PSoC4/CyDMA.c **** * Function Name: CyDmaChEnable
 532:Generated_Source\PSoC4/CyDMA.c **** ********************************************************************************
 533:Generated_Source\PSoC4/CyDMA.c **** *
 534:Generated_Source\PSoC4/CyDMA.c **** * Summary:
 535:Generated_Source\PSoC4/CyDMA.c **** *  Enables the DMA channel.
 536:Generated_Source\PSoC4/CyDMA.c **** *
 537:Generated_Source\PSoC4/CyDMA.c **** * Parameters:
 538:Generated_Source\PSoC4/CyDMA.c **** *  channel: Channel used by this function.
 539:Generated_Source\PSoC4/CyDMA.c **** *                   
 540:Generated_Source\PSoC4/CyDMA.c **** * Return:
 541:Generated_Source\PSoC4/CyDMA.c **** *  None.
 542:Generated_Source\PSoC4/CyDMA.c **** *
 543:Generated_Source\PSoC4/CyDMA.c **** * Side effect:
 544:Generated_Source\PSoC4/CyDMA.c **** *  If this function is called before CyDmaSetConfiguration(), and
 545:Generated_Source\PSoC4/CyDMA.c **** *  CyDmaSetSrcAddress() and CyDmaSetDstAddress(), the operation of
 546:Generated_Source\PSoC4/CyDMA.c **** *  the DMA is undefined and could result in system data corruption. 
 547:Generated_Source\PSoC4/CyDMA.c **** *
 548:Generated_Source\PSoC4/CyDMA.c **** *******************************************************************************/
 549:Generated_Source\PSoC4/CyDMA.c **** void CyDmaChEnable(int32 channel)
 550:Generated_Source\PSoC4/CyDMA.c **** {
 706              		.loc 1 550 0
 707              		.cfi_startproc
 708              		@ args = 0, pretend = 0, frame = 0
 709              		@ frame_needed = 0, uses_anonymous_args = 0
 710              		@ link register save eliminated.
 711              	.LVL41:
 712 0000 044B     		ldr	r3, .L73
 551:Generated_Source\PSoC4/CyDMA.c ****     CYASSERT((channel >= 0) && (channel < CYDMA_CH_NR));
 552:Generated_Source\PSoC4/CyDMA.c **** 
 553:Generated_Source\PSoC4/CyDMA.c ****     CYDMA_CH_CTL_BASE.ctl[channel] |= CYDMA_ENABLED;
 713              		.loc 1 553 0
 714 0002 8022     		movs	r2, #128
 715 0004 9C46     		mov	ip, r3
 716 0006 8000     		lsls	r0, r0, #2
 717              	.LVL42:
 718 0008 6044     		add	r0, r0, ip
 719 000a 0368     		ldr	r3, [r0]
 720 000c 1206     		lsls	r2, r2, #24
 721 000e 1343     		orrs	r3, r2
ARM GAS  C:\Users\AFDHAL~1\AppData\Local\Temp\ccPfQK7a.s 			page 25


 722 0010 0360     		str	r3, [r0]
 554:Generated_Source\PSoC4/CyDMA.c **** }
 723              		.loc 1 554 0
 724              		@ sp needed
 725 0012 7047     		bx	lr
 726              	.L74:
 727              		.align	2
 728              	.L73:
 729 0014 80101040 		.word	1074794624
 730              		.cfi_endproc
 731              	.LFE19:
 732              		.size	CyDmaChEnable, .-CyDmaChEnable
 733              		.section	.text.CyDmaChDisable,"ax",%progbits
 734              		.align	2
 735              		.global	CyDmaChDisable
 736              		.code	16
 737              		.thumb_func
 738              		.type	CyDmaChDisable, %function
 739              	CyDmaChDisable:
 740              	.LFB20:
 555:Generated_Source\PSoC4/CyDMA.c **** 
 556:Generated_Source\PSoC4/CyDMA.c **** 
 557:Generated_Source\PSoC4/CyDMA.c **** /*******************************************************************************
 558:Generated_Source\PSoC4/CyDMA.c **** * Function Name: CyDmaChDisable
 559:Generated_Source\PSoC4/CyDMA.c **** ********************************************************************************
 560:Generated_Source\PSoC4/CyDMA.c **** *
 561:Generated_Source\PSoC4/CyDMA.c **** * Summary:
 562:Generated_Source\PSoC4/CyDMA.c **** *  Disables the DMA channel.
 563:Generated_Source\PSoC4/CyDMA.c **** *
 564:Generated_Source\PSoC4/CyDMA.c **** * Parameters:
 565:Generated_Source\PSoC4/CyDMA.c **** *  channel: Channel used by this function.
 566:Generated_Source\PSoC4/CyDMA.c **** *                   
 567:Generated_Source\PSoC4/CyDMA.c **** * Return:
 568:Generated_Source\PSoC4/CyDMA.c **** *  None.
 569:Generated_Source\PSoC4/CyDMA.c **** *
 570:Generated_Source\PSoC4/CyDMA.c **** * Side effect:
 571:Generated_Source\PSoC4/CyDMA.c **** *  If this function is called during a DMA transfer the transfer is aborted. 
 572:Generated_Source\PSoC4/CyDMA.c **** *
 573:Generated_Source\PSoC4/CyDMA.c **** *******************************************************************************/
 574:Generated_Source\PSoC4/CyDMA.c **** void CyDmaChDisable(int32 channel)
 575:Generated_Source\PSoC4/CyDMA.c **** {
 741              		.loc 1 575 0
 742              		.cfi_startproc
 743              		@ args = 0, pretend = 0, frame = 0
 744              		@ frame_needed = 0, uses_anonymous_args = 0
 745              		@ link register save eliminated.
 746              	.LVL43:
 747 0000 044B     		ldr	r3, .L76
 748 0002 8000     		lsls	r0, r0, #2
 749              	.LVL44:
 750 0004 9C46     		mov	ip, r3
 751 0006 6044     		add	r0, r0, ip
 576:Generated_Source\PSoC4/CyDMA.c ****     CYASSERT((channel >= 0) && (channel < CYDMA_CH_NR));
 577:Generated_Source\PSoC4/CyDMA.c **** 
 578:Generated_Source\PSoC4/CyDMA.c ****     CYDMA_CH_CTL_BASE.ctl[channel] &= (uint32)~CYDMA_ENABLED;
 752              		.loc 1 578 0
 753 0008 0368     		ldr	r3, [r0]
ARM GAS  C:\Users\AFDHAL~1\AppData\Local\Temp\ccPfQK7a.s 			page 26


 579:Generated_Source\PSoC4/CyDMA.c **** }
 754              		.loc 1 579 0
 755              		@ sp needed
 578:Generated_Source\PSoC4/CyDMA.c **** }
 756              		.loc 1 578 0
 757 000a 5B00     		lsls	r3, r3, #1
 758 000c 5B08     		lsrs	r3, r3, #1
 759 000e 0360     		str	r3, [r0]
 760              		.loc 1 579 0
 761 0010 7047     		bx	lr
 762              	.L77:
 763 0012 C046     		.align	2
 764              	.L76:
 765 0014 80101040 		.word	1074794624
 766              		.cfi_endproc
 767              	.LFE20:
 768              		.size	CyDmaChDisable, .-CyDmaChDisable
 769              		.section	.text.CyDmaTrigger,"ax",%progbits
 770              		.align	2
 771              		.global	CyDmaTrigger
 772              		.code	16
 773              		.thumb_func
 774              		.type	CyDmaTrigger, %function
 775              	CyDmaTrigger:
 776              	.LFB21:
 580:Generated_Source\PSoC4/CyDMA.c **** 
 581:Generated_Source\PSoC4/CyDMA.c **** 
 582:Generated_Source\PSoC4/CyDMA.c **** /*******************************************************************************
 583:Generated_Source\PSoC4/CyDMA.c **** * Function Name: CyDmaTrigger
 584:Generated_Source\PSoC4/CyDMA.c **** ********************************************************************************
 585:Generated_Source\PSoC4/CyDMA.c **** *
 586:Generated_Source\PSoC4/CyDMA.c **** * Summary:
 587:Generated_Source\PSoC4/CyDMA.c **** *  Triggers the DMA channel, this is useful only for software triggers. This is
 588:Generated_Source\PSoC4/CyDMA.c **** *  not needed when hardware triggers are used.
 589:Generated_Source\PSoC4/CyDMA.c **** *
 590:Generated_Source\PSoC4/CyDMA.c **** * Parameters:
 591:Generated_Source\PSoC4/CyDMA.c **** *  channel: Channel used by this function.
 592:Generated_Source\PSoC4/CyDMA.c **** *                   
 593:Generated_Source\PSoC4/CyDMA.c **** * Return:
 594:Generated_Source\PSoC4/CyDMA.c **** *  None. 
 595:Generated_Source\PSoC4/CyDMA.c **** *
 596:Generated_Source\PSoC4/CyDMA.c **** *******************************************************************************/
 597:Generated_Source\PSoC4/CyDMA.c **** void CyDmaTrigger(int32 channel)
 598:Generated_Source\PSoC4/CyDMA.c **** {
 777              		.loc 1 598 0
 778              		.cfi_startproc
 779              		@ args = 0, pretend = 0, frame = 0
 780              		@ frame_needed = 0, uses_anonymous_args = 0
 781              		@ link register save eliminated.
 782              	.LVL45:
 599:Generated_Source\PSoC4/CyDMA.c ****     /* The LUT is device-dependent, thus it is generated during the build process. */
 600:Generated_Source\PSoC4/CyDMA.c ****     static const uint32 trCtlLut[] = {0xC0020000U};
 601:Generated_Source\PSoC4/CyDMA.c **** 
 602:Generated_Source\PSoC4/CyDMA.c ****     CYASSERT((channel >= 0) && (channel < CYDMA_CH_NR));
 603:Generated_Source\PSoC4/CyDMA.c **** 
 604:Generated_Source\PSoC4/CyDMA.c ****     CYDMA_TR_CTL_REG = trCtlLut[(uint32)channel >> CYDMA_TR_GROUP_SHR] | ((uint32)channel & CYDMA_T
 783              		.loc 1 604 0
ARM GAS  C:\Users\AFDHAL~1\AppData\Local\Temp\ccPfQK7a.s 			page 27


 784 0000 0723     		movs	r3, #7
 785 0002 1840     		ands	r0, r3
 786              	.LVL46:
 787 0004 024B     		ldr	r3, .L79
 605:Generated_Source\PSoC4/CyDMA.c **** }
 788              		.loc 1 605 0
 789              		@ sp needed
 604:Generated_Source\PSoC4/CyDMA.c **** }
 790              		.loc 1 604 0
 791 0006 1843     		orrs	r0, r3
 792 0008 024B     		ldr	r3, .L79+4
 793 000a 1860     		str	r0, [r3]
 794              		.loc 1 605 0
 795 000c 7047     		bx	lr
 796              	.L80:
 797 000e C046     		.align	2
 798              	.L79:
 799 0010 000002C0 		.word	-1073610752
 800 0014 00060140 		.word	1073808896
 801              		.cfi_endproc
 802              	.LFE21:
 803              		.size	CyDmaTrigger, .-CyDmaTrigger
 804              		.section	.text.CyDmaSetPriority,"ax",%progbits
 805              		.align	2
 806              		.global	CyDmaSetPriority
 807              		.code	16
 808              		.thumb_func
 809              		.type	CyDmaSetPriority, %function
 810              	CyDmaSetPriority:
 811              	.LFB22:
 606:Generated_Source\PSoC4/CyDMA.c **** 
 607:Generated_Source\PSoC4/CyDMA.c **** 
 608:Generated_Source\PSoC4/CyDMA.c **** /*******************************************************************************
 609:Generated_Source\PSoC4/CyDMA.c **** * Function Name: CyDmaSetPriority
 610:Generated_Source\PSoC4/CyDMA.c **** ********************************************************************************
 611:Generated_Source\PSoC4/CyDMA.c **** *
 612:Generated_Source\PSoC4/CyDMA.c **** * Summary:
 613:Generated_Source\PSoC4/CyDMA.c **** *  Sets the priority for the channel.
 614:Generated_Source\PSoC4/CyDMA.c **** *
 615:Generated_Source\PSoC4/CyDMA.c **** * Parameters:
 616:Generated_Source\PSoC4/CyDMA.c **** *  channel:  Channel used by this function
 617:Generated_Source\PSoC4/CyDMA.c **** *  priority: Priority for channel. Priority can be 0,1,2, or 3.
 618:Generated_Source\PSoC4/CyDMA.c **** *            0 is the highest priority.
 619:Generated_Source\PSoC4/CyDMA.c **** *                   
 620:Generated_Source\PSoC4/CyDMA.c **** * Return:
 621:Generated_Source\PSoC4/CyDMA.c **** *  None.
 622:Generated_Source\PSoC4/CyDMA.c **** *
 623:Generated_Source\PSoC4/CyDMA.c **** * Side effect:
 624:Generated_Source\PSoC4/CyDMA.c **** *  This function should not be called while the channel is enabled.
 625:Generated_Source\PSoC4/CyDMA.c **** *
 626:Generated_Source\PSoC4/CyDMA.c **** *******************************************************************************/
 627:Generated_Source\PSoC4/CyDMA.c **** void CyDmaSetPriority(int32 channel, int32 priority)
 628:Generated_Source\PSoC4/CyDMA.c **** {
 812              		.loc 1 628 0
 813              		.cfi_startproc
 814              		@ args = 0, pretend = 0, frame = 0
 815              		@ frame_needed = 0, uses_anonymous_args = 0
ARM GAS  C:\Users\AFDHAL~1\AppData\Local\Temp\ccPfQK7a.s 			page 28


 816              		@ link register save eliminated.
 817              	.LVL47:
 818 0000 054B     		ldr	r3, .L82
 819 0002 8000     		lsls	r0, r0, #2
 820              	.LVL48:
 821 0004 9C46     		mov	ip, r3
 822 0006 6044     		add	r0, r0, ip
 629:Generated_Source\PSoC4/CyDMA.c ****     uint32 regValue;
 630:Generated_Source\PSoC4/CyDMA.c **** 
 631:Generated_Source\PSoC4/CyDMA.c ****     CYASSERT((channel  >= 0) && (channel  <  CYDMA_CH_NR));
 632:Generated_Source\PSoC4/CyDMA.c ****     CYASSERT((priority >= 0) && (priority <= CY_DMA_MAX_PRIO));
 633:Generated_Source\PSoC4/CyDMA.c **** 
 634:Generated_Source\PSoC4/CyDMA.c ****     regValue = CYDMA_CH_CTL_BASE.ctl[channel] & (uint32)~CYDMA_PRIO;
 823              		.loc 1 634 0
 824 0008 0268     		ldr	r2, [r0]
 825              	.LVL49:
 635:Generated_Source\PSoC4/CyDMA.c ****     CYDMA_CH_CTL_BASE.ctl[channel] = regValue | (uint32)((uint32)priority << CYDMA_PRIO_POS);
 826              		.loc 1 635 0
 827 000a 044B     		ldr	r3, .L82+4
 828 000c 0907     		lsls	r1, r1, #28
 829              	.LVL50:
 830 000e 1340     		ands	r3, r2
 831              	.LVL51:
 832 0010 1943     		orrs	r1, r3
 833 0012 0160     		str	r1, [r0]
 636:Generated_Source\PSoC4/CyDMA.c **** }
 834              		.loc 1 636 0
 835              		@ sp needed
 836 0014 7047     		bx	lr
 837              	.L83:
 838 0016 C046     		.align	2
 839              	.L82:
 840 0018 80101040 		.word	1074794624
 841 001c FFFFFFCF 		.word	-805306369
 842              		.cfi_endproc
 843              	.LFE22:
 844              		.size	CyDmaSetPriority, .-CyDmaSetPriority
 845              		.section	.text.CyDmaGetPriority,"ax",%progbits
 846              		.align	2
 847              		.global	CyDmaGetPriority
 848              		.code	16
 849              		.thumb_func
 850              		.type	CyDmaGetPriority, %function
 851              	CyDmaGetPriority:
 852              	.LFB23:
 637:Generated_Source\PSoC4/CyDMA.c **** 
 638:Generated_Source\PSoC4/CyDMA.c **** 
 639:Generated_Source\PSoC4/CyDMA.c **** /*******************************************************************************
 640:Generated_Source\PSoC4/CyDMA.c **** * Function Name: CyDmaGetPriority
 641:Generated_Source\PSoC4/CyDMA.c **** ********************************************************************************
 642:Generated_Source\PSoC4/CyDMA.c **** *
 643:Generated_Source\PSoC4/CyDMA.c **** * Summary:
 644:Generated_Source\PSoC4/CyDMA.c **** *  Gets the priority for the channel.
 645:Generated_Source\PSoC4/CyDMA.c **** *
 646:Generated_Source\PSoC4/CyDMA.c **** * Parameters:
 647:Generated_Source\PSoC4/CyDMA.c **** *  channel: Channel used by this function.
 648:Generated_Source\PSoC4/CyDMA.c **** *                   
ARM GAS  C:\Users\AFDHAL~1\AppData\Local\Temp\ccPfQK7a.s 			page 29


 649:Generated_Source\PSoC4/CyDMA.c **** * Return:
 650:Generated_Source\PSoC4/CyDMA.c **** *  Priority for channel. Priority can be 0,1,2, or 3. 0 is the highest priority.
 651:Generated_Source\PSoC4/CyDMA.c **** *
 652:Generated_Source\PSoC4/CyDMA.c **** *******************************************************************************/
 653:Generated_Source\PSoC4/CyDMA.c **** int32 CyDmaGetPriority(int32 channel)
 654:Generated_Source\PSoC4/CyDMA.c **** {
 853              		.loc 1 654 0
 854              		.cfi_startproc
 855              		@ args = 0, pretend = 0, frame = 0
 856              		@ frame_needed = 0, uses_anonymous_args = 0
 857              		@ link register save eliminated.
 858              	.LVL52:
 655:Generated_Source\PSoC4/CyDMA.c ****     uint32 priority;
 656:Generated_Source\PSoC4/CyDMA.c **** 
 657:Generated_Source\PSoC4/CyDMA.c ****     CYASSERT((channel >= 0) && (channel < CYDMA_CH_NR));
 658:Generated_Source\PSoC4/CyDMA.c **** 
 659:Generated_Source\PSoC4/CyDMA.c ****     priority = (CYDMA_CH_CTL_BASE.ctl[channel] & CYDMA_PRIO) >> CYDMA_PRIO_POS;
 859              		.loc 1 659 0
 860 0000 024B     		ldr	r3, .L85
 861 0002 8000     		lsls	r0, r0, #2
 862              	.LVL53:
 863 0004 C058     		ldr	r0, [r0, r3]
 864              	.LVL54:
 660:Generated_Source\PSoC4/CyDMA.c ****     return ((int32)priority);
 661:Generated_Source\PSoC4/CyDMA.c **** }
 865              		.loc 1 661 0
 866              		@ sp needed
 660:Generated_Source\PSoC4/CyDMA.c ****     return ((int32)priority);
 867              		.loc 1 660 0
 868 0006 8000     		lsls	r0, r0, #2
 869              	.LVL55:
 870 0008 800F     		lsrs	r0, r0, #30
 871              		.loc 1 661 0
 872 000a 7047     		bx	lr
 873              	.L86:
 874              		.align	2
 875              	.L85:
 876 000c 80101040 		.word	1074794624
 877              		.cfi_endproc
 878              	.LFE23:
 879              		.size	CyDmaGetPriority, .-CyDmaGetPriority
 880              		.section	.text.CyDmaSetNextDescriptor,"ax",%progbits
 881              		.align	2
 882              		.global	CyDmaSetNextDescriptor
 883              		.code	16
 884              		.thumb_func
 885              		.type	CyDmaSetNextDescriptor, %function
 886              	CyDmaSetNextDescriptor:
 887              	.LFB24:
 662:Generated_Source\PSoC4/CyDMA.c **** 
 663:Generated_Source\PSoC4/CyDMA.c **** 
 664:Generated_Source\PSoC4/CyDMA.c **** /*******************************************************************************
 665:Generated_Source\PSoC4/CyDMA.c **** * Function Name: CyDmaSetNextDescriptor
 666:Generated_Source\PSoC4/CyDMA.c **** ********************************************************************************
 667:Generated_Source\PSoC4/CyDMA.c **** *
 668:Generated_Source\PSoC4/CyDMA.c **** * Summary:
 669:Generated_Source\PSoC4/CyDMA.c **** *  Sets the descriptor that should be run the next time the channel is
ARM GAS  C:\Users\AFDHAL~1\AppData\Local\Temp\ccPfQK7a.s 			page 30


 670:Generated_Source\PSoC4/CyDMA.c **** *  triggered.
 671:Generated_Source\PSoC4/CyDMA.c **** *
 672:Generated_Source\PSoC4/CyDMA.c **** * Parameters:
 673:Generated_Source\PSoC4/CyDMA.c **** *  channel:    Channel used by this function.
 674:Generated_Source\PSoC4/CyDMA.c **** *  descriptor: Next Descriptor to run (0 or 1).
 675:Generated_Source\PSoC4/CyDMA.c **** *
 676:Generated_Source\PSoC4/CyDMA.c **** * Return:
 677:Generated_Source\PSoC4/CyDMA.c **** *  None.
 678:Generated_Source\PSoC4/CyDMA.c **** *                   
 679:Generated_Source\PSoC4/CyDMA.c **** * Side effect:
 680:Generated_Source\PSoC4/CyDMA.c **** *  This function should not be called while the channel is enabled.
 681:Generated_Source\PSoC4/CyDMA.c **** *
 682:Generated_Source\PSoC4/CyDMA.c **** *******************************************************************************/
 683:Generated_Source\PSoC4/CyDMA.c **** void CyDmaSetNextDescriptor(int32 channel, int32 descriptor)
 684:Generated_Source\PSoC4/CyDMA.c **** {
 888              		.loc 1 684 0
 889              		.cfi_startproc
 890              		@ args = 0, pretend = 0, frame = 0
 891              		@ frame_needed = 0, uses_anonymous_args = 0
 892              		@ link register save eliminated.
 893              	.LVL56:
 894 0000 054B     		ldr	r3, .L88
 895 0002 8000     		lsls	r0, r0, #2
 896              	.LVL57:
 897 0004 9C46     		mov	ip, r3
 898 0006 6044     		add	r0, r0, ip
 685:Generated_Source\PSoC4/CyDMA.c ****     uint32 regValue;
 686:Generated_Source\PSoC4/CyDMA.c **** 
 687:Generated_Source\PSoC4/CyDMA.c ****     CYASSERT((channel    >= 0) && (channel    < CYDMA_CH_NR));
 688:Generated_Source\PSoC4/CyDMA.c ****     CYASSERT((descriptor >= 0) && (descriptor < CYDMA_DESCR_NR));
 689:Generated_Source\PSoC4/CyDMA.c **** 
 690:Generated_Source\PSoC4/CyDMA.c ****     regValue = CYDMA_CH_CTL_BASE.ctl[channel] & (uint32)~CYDMA_DESCRIPTOR;
 899              		.loc 1 690 0
 900 0008 0268     		ldr	r2, [r0]
 901              	.LVL58:
 691:Generated_Source\PSoC4/CyDMA.c ****     CYDMA_CH_CTL_BASE.ctl[channel] = regValue | (uint32)((uint32)descriptor << CYDMA_DESCRIPTOR_POS
 902              		.loc 1 691 0
 903 000a 044B     		ldr	r3, .L88+4
 904 000c 8907     		lsls	r1, r1, #30
 905              	.LVL59:
 906 000e 1340     		ands	r3, r2
 907              	.LVL60:
 908 0010 1943     		orrs	r1, r3
 909 0012 0160     		str	r1, [r0]
 692:Generated_Source\PSoC4/CyDMA.c **** }
 910              		.loc 1 692 0
 911              		@ sp needed
 912 0014 7047     		bx	lr
 913              	.L89:
 914 0016 C046     		.align	2
 915              	.L88:
 916 0018 80101040 		.word	1074794624
 917 001c FFFFFFBF 		.word	-1073741825
 918              		.cfi_endproc
 919              	.LFE24:
 920              		.size	CyDmaSetNextDescriptor, .-CyDmaSetNextDescriptor
 921              		.section	.text.CyDmaGetNextDescriptor,"ax",%progbits
ARM GAS  C:\Users\AFDHAL~1\AppData\Local\Temp\ccPfQK7a.s 			page 31


 922              		.align	2
 923              		.global	CyDmaGetNextDescriptor
 924              		.code	16
 925              		.thumb_func
 926              		.type	CyDmaGetNextDescriptor, %function
 927              	CyDmaGetNextDescriptor:
 928              	.LFB25:
 693:Generated_Source\PSoC4/CyDMA.c **** 
 694:Generated_Source\PSoC4/CyDMA.c **** 
 695:Generated_Source\PSoC4/CyDMA.c **** /*******************************************************************************
 696:Generated_Source\PSoC4/CyDMA.c **** * Function Name: CyDmaGetNextDescriptor
 697:Generated_Source\PSoC4/CyDMA.c **** ********************************************************************************
 698:Generated_Source\PSoC4/CyDMA.c **** *
 699:Generated_Source\PSoC4/CyDMA.c **** * Summary:
 700:Generated_Source\PSoC4/CyDMA.c **** *  Returns the next descriptor that should be run, as set by 
 701:Generated_Source\PSoC4/CyDMA.c **** *  CyDmaSetNextDescriptor().
 702:Generated_Source\PSoC4/CyDMA.c **** *
 703:Generated_Source\PSoC4/CyDMA.c **** * Parameters:
 704:Generated_Source\PSoC4/CyDMA.c **** *  channel: channel used by this function.
 705:Generated_Source\PSoC4/CyDMA.c **** *                   
 706:Generated_Source\PSoC4/CyDMA.c **** * Return:
 707:Generated_Source\PSoC4/CyDMA.c **** *  Next Descriptor to run (0 or 1).
 708:Generated_Source\PSoC4/CyDMA.c **** *
 709:Generated_Source\PSoC4/CyDMA.c **** *******************************************************************************/
 710:Generated_Source\PSoC4/CyDMA.c **** int32 CyDmaGetNextDescriptor(int32 channel)
 711:Generated_Source\PSoC4/CyDMA.c **** {
 929              		.loc 1 711 0
 930              		.cfi_startproc
 931              		@ args = 0, pretend = 0, frame = 0
 932              		@ frame_needed = 0, uses_anonymous_args = 0
 933              		@ link register save eliminated.
 934              	.LVL61:
 712:Generated_Source\PSoC4/CyDMA.c ****     uint32 nextDescriptor;
 713:Generated_Source\PSoC4/CyDMA.c **** 
 714:Generated_Source\PSoC4/CyDMA.c ****     CYASSERT((channel >= 0) && (channel < CYDMA_CH_NR));
 715:Generated_Source\PSoC4/CyDMA.c **** 
 716:Generated_Source\PSoC4/CyDMA.c ****     nextDescriptor = (CYDMA_CH_CTL_BASE.ctl[channel] & CYDMA_DESCRIPTOR) >> CYDMA_DESCRIPTOR_POS;
 935              		.loc 1 716 0
 936 0000 024B     		ldr	r3, .L91
 937 0002 8000     		lsls	r0, r0, #2
 938              	.LVL62:
 939 0004 C058     		ldr	r0, [r0, r3]
 940              	.LVL63:
 717:Generated_Source\PSoC4/CyDMA.c ****     return ((int32)nextDescriptor);
 718:Generated_Source\PSoC4/CyDMA.c **** }
 941              		.loc 1 718 0
 942              		@ sp needed
 717:Generated_Source\PSoC4/CyDMA.c ****     return ((int32)nextDescriptor);
 943              		.loc 1 717 0
 944 0006 4000     		lsls	r0, r0, #1
 945              	.LVL64:
 946 0008 C00F     		lsrs	r0, r0, #31
 947              		.loc 1 718 0
 948 000a 7047     		bx	lr
 949              	.L92:
 950              		.align	2
 951              	.L91:
ARM GAS  C:\Users\AFDHAL~1\AppData\Local\Temp\ccPfQK7a.s 			page 32


 952 000c 80101040 		.word	1074794624
 953              		.cfi_endproc
 954              	.LFE25:
 955              		.size	CyDmaGetNextDescriptor, .-CyDmaGetNextDescriptor
 956              		.section	.text.CyDmaSetConfiguration,"ax",%progbits
 957              		.align	2
 958              		.global	CyDmaSetConfiguration
 959              		.code	16
 960              		.thumb_func
 961              		.type	CyDmaSetConfiguration, %function
 962              	CyDmaSetConfiguration:
 963              	.LFB26:
 719:Generated_Source\PSoC4/CyDMA.c **** 
 720:Generated_Source\PSoC4/CyDMA.c **** 
 721:Generated_Source\PSoC4/CyDMA.c **** /*******************************************************************************
 722:Generated_Source\PSoC4/CyDMA.c **** * Function Name: CyDmaSetConfiguration
 723:Generated_Source\PSoC4/CyDMA.c **** ********************************************************************************
 724:Generated_Source\PSoC4/CyDMA.c **** *
 725:Generated_Source\PSoC4/CyDMA.c **** * Summary:
 726:Generated_Source\PSoC4/CyDMA.c **** *  Sets configuration information for the specified descriptor.
 727:Generated_Source\PSoC4/CyDMA.c **** *
 728:Generated_Source\PSoC4/CyDMA.c **** * Parameters:
 729:Generated_Source\PSoC4/CyDMA.c **** *  channel:    DMA channel modified by this function.
 730:Generated_Source\PSoC4/CyDMA.c **** *  descriptor: Descriptor (0 or 1) modified by this function.
 731:Generated_Source\PSoC4/CyDMA.c **** *  config:     Pointer to a configuration structure. Refer to cydma_init_struct
 732:Generated_Source\PSoC4/CyDMA.c **** *              structure definition in CyDMA_P4.h and/or DMA channel datasheet
 733:Generated_Source\PSoC4/CyDMA.c **** *              for more information.
 734:Generated_Source\PSoC4/CyDMA.c **** *                   
 735:Generated_Source\PSoC4/CyDMA.c **** * Return:
 736:Generated_Source\PSoC4/CyDMA.c **** *  None.
 737:Generated_Source\PSoC4/CyDMA.c **** *
 738:Generated_Source\PSoC4/CyDMA.c **** * Side effect:
 739:Generated_Source\PSoC4/CyDMA.c **** *  The status register associated with the specified descriptor is reset to
 740:Generated_Source\PSoC4/CyDMA.c **** *  zero after this function call. This function also validates the descriptor.
 741:Generated_Source\PSoC4/CyDMA.c **** *  This function should not be called while the descriptor is active.
 742:Generated_Source\PSoC4/CyDMA.c **** *  This can be checked by calling CyDmaGetStatus().
 743:Generated_Source\PSoC4/CyDMA.c **** *
 744:Generated_Source\PSoC4/CyDMA.c **** *******************************************************************************/
 745:Generated_Source\PSoC4/CyDMA.c **** void CyDmaSetConfiguration(int32 channel, int32 descriptor, const cydma_init_struct * config)
 746:Generated_Source\PSoC4/CyDMA.c **** {  
 964              		.loc 1 746 0
 965              		.cfi_startproc
 966              		@ args = 0, pretend = 0, frame = 0
 967              		@ frame_needed = 0, uses_anonymous_args = 0
 968              	.LVL65:
 969 0000 10B5     		push	{r4, lr}
 970              		.cfi_def_cfa_offset 8
 971              		.cfi_offset 4, -8
 972              		.cfi_offset 14, -4
 747:Generated_Source\PSoC4/CyDMA.c ****     CYASSERT((channel        >= 0) && (channel         < CYDMA_CH_NR));
 748:Generated_Source\PSoC4/CyDMA.c ****     CYASSERT((descriptor     >= 0) && (descriptor      < CYDMA_DESCR_NR));
 749:Generated_Source\PSoC4/CyDMA.c **** 
 750:Generated_Source\PSoC4/CyDMA.c ****     CYASSERT(0u == (config->dataElementSize     & (uint32)~CYDMA_DATA_SIZE));   
 751:Generated_Source\PSoC4/CyDMA.c ****     CYASSERT((config->numDataElements > 0)     && (config->numDataElements <= CYDMA_MAX_DATA_NR));
 752:Generated_Source\PSoC4/CyDMA.c ****     CYASSERT(0u == (config->srcDstTransferWidth & (uint32)~CYDMA_TRANSFER_WIDTH));
 753:Generated_Source\PSoC4/CyDMA.c ****     CYASSERT(0u == (config->addressIncrement    & (uint32)~CYDMA_ADDR_INCR));
 754:Generated_Source\PSoC4/CyDMA.c ****     CYASSERT(0u == (config->triggerType         & (uint32)~CYDMA_TRIGGER_TYPE));
ARM GAS  C:\Users\AFDHAL~1\AppData\Local\Temp\ccPfQK7a.s 			page 33


 755:Generated_Source\PSoC4/CyDMA.c ****     CYASSERT(0u == (config->transferMode        & (uint32)~CYDMA_TRANSFER_MODE));
 756:Generated_Source\PSoC4/CyDMA.c ****     CYASSERT(0u == (config->preemptable         & (uint32)~CYDMA_PREEMPTABLE));
 757:Generated_Source\PSoC4/CyDMA.c ****     CYASSERT(0u == (config->actions             & (uint32)~CYDMA_POST_COMPLETE_ACTIONS));
 758:Generated_Source\PSoC4/CyDMA.c ****     
 759:Generated_Source\PSoC4/CyDMA.c ****     CYDMA_DESCR_BASE.descriptor[channel][descriptor].ctl = config->dataElementSize     |
 760:Generated_Source\PSoC4/CyDMA.c ****                                                   ((uint32)config->numDataElements-1u) |
 761:Generated_Source\PSoC4/CyDMA.c ****                                                            config->srcDstTransferWidth |
 762:Generated_Source\PSoC4/CyDMA.c ****                                                            config->addressIncrement    |
 763:Generated_Source\PSoC4/CyDMA.c ****                                                            config->triggerType         |
 764:Generated_Source\PSoC4/CyDMA.c ****                                                            config->transferMode        |
 765:Generated_Source\PSoC4/CyDMA.c ****                                                            config->preemptable         |
 973              		.loc 1 765 0
 974 0002 1368     		ldr	r3, [r2]
 975 0004 9468     		ldr	r4, [r2, #8]
 759:Generated_Source\PSoC4/CyDMA.c ****                                                   ((uint32)config->numDataElements-1u) |
 976              		.loc 1 759 0
 977 0006 4000     		lsls	r0, r0, #1
 978              	.LVL66:
 979              		.loc 1 765 0
 980 0008 2343     		orrs	r3, r4
 981 000a D468     		ldr	r4, [r2, #12]
 759:Generated_Source\PSoC4/CyDMA.c ****                                                   ((uint32)config->numDataElements-1u) |
 982              		.loc 1 759 0
 983 000c 4118     		adds	r1, r0, r1
 984              	.LVL67:
 985              		.loc 1 765 0
 986 000e 2343     		orrs	r3, r4
 987 0010 1469     		ldr	r4, [r2, #16]
 759:Generated_Source\PSoC4/CyDMA.c ****                                                   ((uint32)config->numDataElements-1u) |
 988              		.loc 1 759 0
 989 0012 0901     		lsls	r1, r1, #4
 990              		.loc 1 765 0
 991 0014 2343     		orrs	r3, r4
 992 0016 5469     		ldr	r4, [r2, #20]
 766:Generated_Source\PSoC4/CyDMA.c ****                                                            config->actions;
 767:Generated_Source\PSoC4/CyDMA.c **** 
 768:Generated_Source\PSoC4/CyDMA.c ****     CYDMA_DESCR_BASE.descriptor[channel][descriptor].status = CYDMA_VALID;
 769:Generated_Source\PSoC4/CyDMA.c **** }
 993              		.loc 1 769 0
 994              		@ sp needed
 765:Generated_Source\PSoC4/CyDMA.c ****                                                            config->actions;
 995              		.loc 1 765 0
 996 0018 2343     		orrs	r3, r4
 997 001a 9469     		ldr	r4, [r2, #24]
 998 001c 2343     		orrs	r3, r4
 999 001e D469     		ldr	r4, [r2, #28]
 1000 0020 5268     		ldr	r2, [r2, #4]
 1001              	.LVL68:
 1002 0022 2343     		orrs	r3, r4
 1003 0024 013A     		subs	r2, r2, #1
 1004 0026 1343     		orrs	r3, r2
 759:Generated_Source\PSoC4/CyDMA.c ****                                                   ((uint32)config->numDataElements-1u) |
 1005              		.loc 1 759 0
 1006 0028 034A     		ldr	r2, .L94
 1007 002a 9446     		mov	ip, r2
 1008 002c 6144     		add	r1, r1, ip
 1009 002e 8B60     		str	r3, [r1, #8]
ARM GAS  C:\Users\AFDHAL~1\AppData\Local\Temp\ccPfQK7a.s 			page 34


 768:Generated_Source\PSoC4/CyDMA.c **** }
 1010              		.loc 1 768 0
 1011 0030 8023     		movs	r3, #128
 1012 0032 1B06     		lsls	r3, r3, #24
 1013 0034 CB60     		str	r3, [r1, #12]
 1014              		.loc 1 769 0
 1015 0036 10BD     		pop	{r4, pc}
 1016              	.L95:
 1017              		.align	2
 1018              	.L94:
 1019 0038 00181040 		.word	1074796544
 1020              		.cfi_endproc
 1021              	.LFE26:
 1022              		.size	CyDmaSetConfiguration, .-CyDmaSetConfiguration
 1023              		.section	.text.CyDmaValidateDescriptor,"ax",%progbits
 1024              		.align	2
 1025              		.global	CyDmaValidateDescriptor
 1026              		.code	16
 1027              		.thumb_func
 1028              		.type	CyDmaValidateDescriptor, %function
 1029              	CyDmaValidateDescriptor:
 1030              	.LFB27:
 770:Generated_Source\PSoC4/CyDMA.c **** 
 771:Generated_Source\PSoC4/CyDMA.c **** 
 772:Generated_Source\PSoC4/CyDMA.c **** /*******************************************************************************
 773:Generated_Source\PSoC4/CyDMA.c **** * Function Name: CyDmaValidateDescriptor
 774:Generated_Source\PSoC4/CyDMA.c **** ********************************************************************************
 775:Generated_Source\PSoC4/CyDMA.c **** *
 776:Generated_Source\PSoC4/CyDMA.c **** * Summary:
 777:Generated_Source\PSoC4/CyDMA.c **** *  Validates the specified descriptor after it has been invalidated.
 778:Generated_Source\PSoC4/CyDMA.c **** *
 779:Generated_Source\PSoC4/CyDMA.c **** * Parameters:
 780:Generated_Source\PSoC4/CyDMA.c **** *  channel:    Channel used by this function.
 781:Generated_Source\PSoC4/CyDMA.c **** *  descriptor: Descriptor (0 or 1) modified by this function.
 782:Generated_Source\PSoC4/CyDMA.c **** *                   
 783:Generated_Source\PSoC4/CyDMA.c **** * Return:
 784:Generated_Source\PSoC4/CyDMA.c **** *  None. 
 785:Generated_Source\PSoC4/CyDMA.c **** *
 786:Generated_Source\PSoC4/CyDMA.c **** * Side effect:
 787:Generated_Source\PSoC4/CyDMA.c **** *  The status register associated with the specified descriptor is reset to
 788:Generated_Source\PSoC4/CyDMA.c **** *  zero after this function call.
 789:Generated_Source\PSoC4/CyDMA.c **** *  This function should not be called when the specified descriptor is active
 790:Generated_Source\PSoC4/CyDMA.c **** *  in the DMA transfer engine. This can be checked by calling CyDmaGetStatus().
 791:Generated_Source\PSoC4/CyDMA.c **** *
 792:Generated_Source\PSoC4/CyDMA.c **** *******************************************************************************/
 793:Generated_Source\PSoC4/CyDMA.c **** void CyDmaValidateDescriptor(int32 channel, int32 descriptor)
 794:Generated_Source\PSoC4/CyDMA.c **** {
 1031              		.loc 1 794 0
 1032              		.cfi_startproc
 1033              		@ args = 0, pretend = 0, frame = 0
 1034              		@ frame_needed = 0, uses_anonymous_args = 0
 1035              		@ link register save eliminated.
 1036              	.LVL69:
 795:Generated_Source\PSoC4/CyDMA.c ****     CYASSERT((channel    >= 0) && (channel    < CYDMA_CH_NR));
 796:Generated_Source\PSoC4/CyDMA.c ****     CYASSERT((descriptor >= 0) && (descriptor < CYDMA_DESCR_NR));
 797:Generated_Source\PSoC4/CyDMA.c **** 
 798:Generated_Source\PSoC4/CyDMA.c ****     CYDMA_DESCR_BASE.descriptor[channel][descriptor].status = CYDMA_VALID;
ARM GAS  C:\Users\AFDHAL~1\AppData\Local\Temp\ccPfQK7a.s 			page 35


 1037              		.loc 1 798 0
 1038 0000 044B     		ldr	r3, .L97
 1039 0002 4000     		lsls	r0, r0, #1
 1040              	.LVL70:
 1041 0004 9C46     		mov	ip, r3
 1042 0006 8023     		movs	r3, #128
 1043 0008 4118     		adds	r1, r0, r1
 1044              	.LVL71:
 1045 000a 0901     		lsls	r1, r1, #4
 1046 000c 6144     		add	r1, r1, ip
 1047 000e 1B06     		lsls	r3, r3, #24
 1048 0010 CB60     		str	r3, [r1, #12]
 799:Generated_Source\PSoC4/CyDMA.c **** }
 1049              		.loc 1 799 0
 1050              		@ sp needed
 1051 0012 7047     		bx	lr
 1052              	.L98:
 1053              		.align	2
 1054              	.L97:
 1055 0014 00181040 		.word	1074796544
 1056              		.cfi_endproc
 1057              	.LFE27:
 1058              		.size	CyDmaValidateDescriptor, .-CyDmaValidateDescriptor
 1059              		.section	.text.CyDmaGetDescriptorStatus,"ax",%progbits
 1060              		.align	2
 1061              		.global	CyDmaGetDescriptorStatus
 1062              		.code	16
 1063              		.thumb_func
 1064              		.type	CyDmaGetDescriptorStatus, %function
 1065              	CyDmaGetDescriptorStatus:
 1066              	.LFB28:
 800:Generated_Source\PSoC4/CyDMA.c **** 
 801:Generated_Source\PSoC4/CyDMA.c **** 
 802:Generated_Source\PSoC4/CyDMA.c **** /*******************************************************************************
 803:Generated_Source\PSoC4/CyDMA.c **** * Function Name: CyDmaGetDescriptorStatus
 804:Generated_Source\PSoC4/CyDMA.c **** ********************************************************************************
 805:Generated_Source\PSoC4/CyDMA.c **** *
 806:Generated_Source\PSoC4/CyDMA.c **** * Summary:
 807:Generated_Source\PSoC4/CyDMA.c **** *  Returns the status of the specified descriptor.
 808:Generated_Source\PSoC4/CyDMA.c **** *
 809:Generated_Source\PSoC4/CyDMA.c **** * Parameters:
 810:Generated_Source\PSoC4/CyDMA.c **** *  channel:    Channel used by this function.
 811:Generated_Source\PSoC4/CyDMA.c **** *  descriptor: Descriptor (0 or 1) modified by this function.
 812:Generated_Source\PSoC4/CyDMA.c **** *                   
 813:Generated_Source\PSoC4/CyDMA.c **** * Return:
 814:Generated_Source\PSoC4/CyDMA.c **** *  Returns the contents of the specified descriptors status register. Refer to 
 815:Generated_Source\PSoC4/CyDMA.c **** *  descriptor status register bit definitions in CyDMA_P4.h or the API
 816:Generated_Source\PSoC4/CyDMA.c **** *  description in the DMA channel datasheet for more information.
 817:Generated_Source\PSoC4/CyDMA.c **** *
 818:Generated_Source\PSoC4/CyDMA.c **** *******************************************************************************/
 819:Generated_Source\PSoC4/CyDMA.c **** uint32 CyDmaGetDescriptorStatus(int32 channel, int32 descriptor)
 820:Generated_Source\PSoC4/CyDMA.c **** {
 1067              		.loc 1 820 0
 1068              		.cfi_startproc
 1069              		@ args = 0, pretend = 0, frame = 0
 1070              		@ frame_needed = 0, uses_anonymous_args = 0
 1071              		@ link register save eliminated.
ARM GAS  C:\Users\AFDHAL~1\AppData\Local\Temp\ccPfQK7a.s 			page 36


 1072              	.LVL72:
 821:Generated_Source\PSoC4/CyDMA.c ****     CYASSERT((channel    >= 0) && (channel    < CYDMA_CH_NR));
 822:Generated_Source\PSoC4/CyDMA.c ****     CYASSERT((descriptor >= 0) && (descriptor < CYDMA_DESCR_NR));
 823:Generated_Source\PSoC4/CyDMA.c **** 
 824:Generated_Source\PSoC4/CyDMA.c ****     return (CYDMA_DESCR_BASE.descriptor[channel][descriptor].status);
 1073              		.loc 1 824 0
 1074 0000 034B     		ldr	r3, .L100
 1075 0002 4000     		lsls	r0, r0, #1
 1076              	.LVL73:
 1077 0004 9C46     		mov	ip, r3
 1078 0006 4118     		adds	r1, r0, r1
 1079              	.LVL74:
 1080 0008 0901     		lsls	r1, r1, #4
 1081 000a 6144     		add	r1, r1, ip
 1082 000c C868     		ldr	r0, [r1, #12]
 825:Generated_Source\PSoC4/CyDMA.c **** }
 1083              		.loc 1 825 0
 1084              		@ sp needed
 1085 000e 7047     		bx	lr
 1086              	.L101:
 1087              		.align	2
 1088              	.L100:
 1089 0010 00181040 		.word	1074796544
 1090              		.cfi_endproc
 1091              	.LFE28:
 1092              		.size	CyDmaGetDescriptorStatus, .-CyDmaGetDescriptorStatus
 1093              		.section	.text.CyDmaSetSrcAddress,"ax",%progbits
 1094              		.align	2
 1095              		.global	CyDmaSetSrcAddress
 1096              		.code	16
 1097              		.thumb_func
 1098              		.type	CyDmaSetSrcAddress, %function
 1099              	CyDmaSetSrcAddress:
 1100              	.LFB29:
 826:Generated_Source\PSoC4/CyDMA.c **** 
 827:Generated_Source\PSoC4/CyDMA.c **** 
 828:Generated_Source\PSoC4/CyDMA.c **** /*******************************************************************************
 829:Generated_Source\PSoC4/CyDMA.c **** * Function Name: CyDmaSetSrcAddress
 830:Generated_Source\PSoC4/CyDMA.c **** ********************************************************************************
 831:Generated_Source\PSoC4/CyDMA.c **** *
 832:Generated_Source\PSoC4/CyDMA.c **** * Summary:
 833:Generated_Source\PSoC4/CyDMA.c **** *  Configures the source address for the specified descriptor.
 834:Generated_Source\PSoC4/CyDMA.c **** *
 835:Generated_Source\PSoC4/CyDMA.c **** * Parameters:
 836:Generated_Source\PSoC4/CyDMA.c **** *  channel:    Channel used by this function.
 837:Generated_Source\PSoC4/CyDMA.c **** *  descriptor: Descriptor (0 or 1) modified by this function.
 838:Generated_Source\PSoC4/CyDMA.c **** *  srcAddress: Address of DMA transfer source.
 839:Generated_Source\PSoC4/CyDMA.c **** *                   
 840:Generated_Source\PSoC4/CyDMA.c **** * Return:
 841:Generated_Source\PSoC4/CyDMA.c **** *  None.
 842:Generated_Source\PSoC4/CyDMA.c **** *
 843:Generated_Source\PSoC4/CyDMA.c **** * Side effect:
 844:Generated_Source\PSoC4/CyDMA.c **** *  This function should not be called when the specified descriptor is active
 845:Generated_Source\PSoC4/CyDMA.c **** *  in the DMA transfer engine. This can be checked by calling CyDmaGetStatus(). 
 846:Generated_Source\PSoC4/CyDMA.c **** *
 847:Generated_Source\PSoC4/CyDMA.c **** *******************************************************************************/
 848:Generated_Source\PSoC4/CyDMA.c **** void CyDmaSetSrcAddress(int32 channel, int32 descriptor, void * srcAddress)
ARM GAS  C:\Users\AFDHAL~1\AppData\Local\Temp\ccPfQK7a.s 			page 37


 849:Generated_Source\PSoC4/CyDMA.c **** {
 1101              		.loc 1 849 0
 1102              		.cfi_startproc
 1103              		@ args = 0, pretend = 0, frame = 0
 1104              		@ frame_needed = 0, uses_anonymous_args = 0
 1105              		@ link register save eliminated.
 1106              	.LVL75:
 850:Generated_Source\PSoC4/CyDMA.c ****     CYASSERT((channel    >= 0) && (channel    < CYDMA_CH_NR));
 851:Generated_Source\PSoC4/CyDMA.c ****     CYASSERT((descriptor >= 0) && (descriptor < CYDMA_DESCR_NR));
 852:Generated_Source\PSoC4/CyDMA.c **** 
 853:Generated_Source\PSoC4/CyDMA.c ****     CYDMA_DESCR_BASE.descriptor[channel][descriptor].src = srcAddress;
 1107              		.loc 1 853 0
 1108 0000 4000     		lsls	r0, r0, #1
 1109              	.LVL76:
 1110 0002 4118     		adds	r1, r0, r1
 1111              	.LVL77:
 1112 0004 014B     		ldr	r3, .L103
 1113 0006 0901     		lsls	r1, r1, #4
 1114 0008 CA50     		str	r2, [r1, r3]
 854:Generated_Source\PSoC4/CyDMA.c **** }
 1115              		.loc 1 854 0
 1116              		@ sp needed
 1117 000a 7047     		bx	lr
 1118              	.L104:
 1119              		.align	2
 1120              	.L103:
 1121 000c 00181040 		.word	1074796544
 1122              		.cfi_endproc
 1123              	.LFE29:
 1124              		.size	CyDmaSetSrcAddress, .-CyDmaSetSrcAddress
 1125              		.section	.text.CyDmaGetSrcAddress,"ax",%progbits
 1126              		.align	2
 1127              		.global	CyDmaGetSrcAddress
 1128              		.code	16
 1129              		.thumb_func
 1130              		.type	CyDmaGetSrcAddress, %function
 1131              	CyDmaGetSrcAddress:
 1132              	.LFB30:
 855:Generated_Source\PSoC4/CyDMA.c **** 
 856:Generated_Source\PSoC4/CyDMA.c **** 
 857:Generated_Source\PSoC4/CyDMA.c **** /*******************************************************************************
 858:Generated_Source\PSoC4/CyDMA.c **** * Function Name: CyDmaGetSrcAddress
 859:Generated_Source\PSoC4/CyDMA.c **** ********************************************************************************
 860:Generated_Source\PSoC4/CyDMA.c **** *
 861:Generated_Source\PSoC4/CyDMA.c **** * Summary:
 862:Generated_Source\PSoC4/CyDMA.c **** *  Returns the source address for the specified descriptor, set by 
 863:Generated_Source\PSoC4/CyDMA.c **** *  CyDmaSetSrcAddress().
 864:Generated_Source\PSoC4/CyDMA.c **** *
 865:Generated_Source\PSoC4/CyDMA.c **** * Parameters:
 866:Generated_Source\PSoC4/CyDMA.c **** *  channel:    Channel used by this function.
 867:Generated_Source\PSoC4/CyDMA.c **** *  descriptor: Specifies descriptor (0 or 1) used by this function.
 868:Generated_Source\PSoC4/CyDMA.c **** *                   
 869:Generated_Source\PSoC4/CyDMA.c **** * Return:
 870:Generated_Source\PSoC4/CyDMA.c **** *  Source address written to specified descriptor.
 871:Generated_Source\PSoC4/CyDMA.c **** *
 872:Generated_Source\PSoC4/CyDMA.c **** *******************************************************************************/
 873:Generated_Source\PSoC4/CyDMA.c **** void * CyDmaGetSrcAddress(int32 channel, int32 descriptor)
ARM GAS  C:\Users\AFDHAL~1\AppData\Local\Temp\ccPfQK7a.s 			page 38


 874:Generated_Source\PSoC4/CyDMA.c **** {
 1133              		.loc 1 874 0
 1134              		.cfi_startproc
 1135              		@ args = 0, pretend = 0, frame = 0
 1136              		@ frame_needed = 0, uses_anonymous_args = 0
 1137              		@ link register save eliminated.
 1138              	.LVL78:
 875:Generated_Source\PSoC4/CyDMA.c ****     CYASSERT((channel    >= 0) && (channel    < CYDMA_CH_NR));
 876:Generated_Source\PSoC4/CyDMA.c ****     CYASSERT((descriptor >= 0) && (descriptor < CYDMA_DESCR_NR));
 877:Generated_Source\PSoC4/CyDMA.c **** 
 878:Generated_Source\PSoC4/CyDMA.c ****     return (CYDMA_DESCR_BASE.descriptor[channel][descriptor].src);
 1139              		.loc 1 878 0
 1140 0000 4000     		lsls	r0, r0, #1
 1141              	.LVL79:
 1142 0002 4118     		adds	r1, r0, r1
 1143              	.LVL80:
 1144 0004 014B     		ldr	r3, .L106
 1145 0006 0901     		lsls	r1, r1, #4
 1146 0008 C858     		ldr	r0, [r1, r3]
 879:Generated_Source\PSoC4/CyDMA.c **** }
 1147              		.loc 1 879 0
 1148              		@ sp needed
 1149 000a 7047     		bx	lr
 1150              	.L107:
 1151              		.align	2
 1152              	.L106:
 1153 000c 00181040 		.word	1074796544
 1154              		.cfi_endproc
 1155              	.LFE30:
 1156              		.size	CyDmaGetSrcAddress, .-CyDmaGetSrcAddress
 1157              		.section	.text.CyDmaSetDstAddress,"ax",%progbits
 1158              		.align	2
 1159              		.global	CyDmaSetDstAddress
 1160              		.code	16
 1161              		.thumb_func
 1162              		.type	CyDmaSetDstAddress, %function
 1163              	CyDmaSetDstAddress:
 1164              	.LFB31:
 880:Generated_Source\PSoC4/CyDMA.c **** 
 881:Generated_Source\PSoC4/CyDMA.c **** 
 882:Generated_Source\PSoC4/CyDMA.c **** /*******************************************************************************
 883:Generated_Source\PSoC4/CyDMA.c **** * Function Name: CyDmaSetDstAddress
 884:Generated_Source\PSoC4/CyDMA.c **** ********************************************************************************
 885:Generated_Source\PSoC4/CyDMA.c **** *
 886:Generated_Source\PSoC4/CyDMA.c **** * Summary:
 887:Generated_Source\PSoC4/CyDMA.c **** *  Configures the destination address for the specified descriptor.
 888:Generated_Source\PSoC4/CyDMA.c **** *
 889:Generated_Source\PSoC4/CyDMA.c **** * Parameters:
 890:Generated_Source\PSoC4/CyDMA.c **** *  channel:    Channel used by this function.
 891:Generated_Source\PSoC4/CyDMA.c **** *  descriptor: Descriptor (0 or 1) modified by this function.
 892:Generated_Source\PSoC4/CyDMA.c **** *  dstAddress: Address of DMA transfer destination.
 893:Generated_Source\PSoC4/CyDMA.c **** *                   
 894:Generated_Source\PSoC4/CyDMA.c **** * Return:
 895:Generated_Source\PSoC4/CyDMA.c **** *  None.
 896:Generated_Source\PSoC4/CyDMA.c **** *
 897:Generated_Source\PSoC4/CyDMA.c **** * Side effect:
 898:Generated_Source\PSoC4/CyDMA.c **** *  This function should not be called when the specified descriptor is active
ARM GAS  C:\Users\AFDHAL~1\AppData\Local\Temp\ccPfQK7a.s 			page 39


 899:Generated_Source\PSoC4/CyDMA.c **** *  in the DMA transfer engine. This can be checked by calling CyDmaGetStatus(). 
 900:Generated_Source\PSoC4/CyDMA.c **** *
 901:Generated_Source\PSoC4/CyDMA.c **** *******************************************************************************/
 902:Generated_Source\PSoC4/CyDMA.c **** void CyDmaSetDstAddress(int32 channel, int32 descriptor, void * dstAddress)
 903:Generated_Source\PSoC4/CyDMA.c **** {
 1165              		.loc 1 903 0
 1166              		.cfi_startproc
 1167              		@ args = 0, pretend = 0, frame = 0
 1168              		@ frame_needed = 0, uses_anonymous_args = 0
 1169              		@ link register save eliminated.
 1170              	.LVL81:
 904:Generated_Source\PSoC4/CyDMA.c ****     CYASSERT((channel    >= 0) && (channel    < CYDMA_CH_NR));
 905:Generated_Source\PSoC4/CyDMA.c ****     CYASSERT((descriptor >= 0) && (descriptor < CYDMA_DESCR_NR));
 906:Generated_Source\PSoC4/CyDMA.c **** 
 907:Generated_Source\PSoC4/CyDMA.c ****     CYDMA_DESCR_BASE.descriptor[channel][descriptor].dst = dstAddress;
 1171              		.loc 1 907 0
 1172 0000 034B     		ldr	r3, .L109
 1173 0002 4000     		lsls	r0, r0, #1
 1174              	.LVL82:
 1175 0004 9C46     		mov	ip, r3
 1176 0006 4118     		adds	r1, r0, r1
 1177              	.LVL83:
 1178 0008 0901     		lsls	r1, r1, #4
 1179 000a 6144     		add	r1, r1, ip
 1180 000c 4A60     		str	r2, [r1, #4]
 908:Generated_Source\PSoC4/CyDMA.c **** }
 1181              		.loc 1 908 0
 1182              		@ sp needed
 1183 000e 7047     		bx	lr
 1184              	.L110:
 1185              		.align	2
 1186              	.L109:
 1187 0010 00181040 		.word	1074796544
 1188              		.cfi_endproc
 1189              	.LFE31:
 1190              		.size	CyDmaSetDstAddress, .-CyDmaSetDstAddress
 1191              		.section	.text.CyDmaGetDstAddress,"ax",%progbits
 1192              		.align	2
 1193              		.global	CyDmaGetDstAddress
 1194              		.code	16
 1195              		.thumb_func
 1196              		.type	CyDmaGetDstAddress, %function
 1197              	CyDmaGetDstAddress:
 1198              	.LFB32:
 909:Generated_Source\PSoC4/CyDMA.c **** 
 910:Generated_Source\PSoC4/CyDMA.c **** 
 911:Generated_Source\PSoC4/CyDMA.c **** /*******************************************************************************
 912:Generated_Source\PSoC4/CyDMA.c **** * Function Name: CyDmaGetDstAddress
 913:Generated_Source\PSoC4/CyDMA.c **** ********************************************************************************
 914:Generated_Source\PSoC4/CyDMA.c **** *
 915:Generated_Source\PSoC4/CyDMA.c **** * Summary:
 916:Generated_Source\PSoC4/CyDMA.c **** *  Returns the destination address for the specified descriptor, set by 
 917:Generated_Source\PSoC4/CyDMA.c **** *  CyDmaSetDstAddress().
 918:Generated_Source\PSoC4/CyDMA.c **** *
 919:Generated_Source\PSoC4/CyDMA.c **** * Parameters:
 920:Generated_Source\PSoC4/CyDMA.c **** *  channel:    Channel used by this function.
 921:Generated_Source\PSoC4/CyDMA.c **** *  descriptor: Specifies descriptor (0 or 1) used by this function.
ARM GAS  C:\Users\AFDHAL~1\AppData\Local\Temp\ccPfQK7a.s 			page 40


 922:Generated_Source\PSoC4/CyDMA.c **** *                   
 923:Generated_Source\PSoC4/CyDMA.c **** * Return:
 924:Generated_Source\PSoC4/CyDMA.c **** *  Destination address written to specified descriptor.
 925:Generated_Source\PSoC4/CyDMA.c **** *
 926:Generated_Source\PSoC4/CyDMA.c **** *******************************************************************************/
 927:Generated_Source\PSoC4/CyDMA.c **** void * CyDmaGetDstAddress(int32 channel, int32 descriptor)
 928:Generated_Source\PSoC4/CyDMA.c **** {
 1199              		.loc 1 928 0
 1200              		.cfi_startproc
 1201              		@ args = 0, pretend = 0, frame = 0
 1202              		@ frame_needed = 0, uses_anonymous_args = 0
 1203              		@ link register save eliminated.
 1204              	.LVL84:
 929:Generated_Source\PSoC4/CyDMA.c ****     CYASSERT((channel    >= 0) && (channel    < CYDMA_CH_NR));
 930:Generated_Source\PSoC4/CyDMA.c ****     CYASSERT((descriptor >= 0) && (descriptor < CYDMA_DESCR_NR));
 931:Generated_Source\PSoC4/CyDMA.c **** 
 932:Generated_Source\PSoC4/CyDMA.c ****     return (CYDMA_DESCR_BASE.descriptor[channel][descriptor].dst);
 1205              		.loc 1 932 0
 1206 0000 034B     		ldr	r3, .L112
 1207 0002 4000     		lsls	r0, r0, #1
 1208              	.LVL85:
 1209 0004 9C46     		mov	ip, r3
 1210 0006 4118     		adds	r1, r0, r1
 1211              	.LVL86:
 1212 0008 0901     		lsls	r1, r1, #4
 1213 000a 6144     		add	r1, r1, ip
 1214 000c 4868     		ldr	r0, [r1, #4]
 933:Generated_Source\PSoC4/CyDMA.c **** }
 1215              		.loc 1 933 0
 1216              		@ sp needed
 1217 000e 7047     		bx	lr
 1218              	.L113:
 1219              		.align	2
 1220              	.L112:
 1221 0010 00181040 		.word	1074796544
 1222              		.cfi_endproc
 1223              	.LFE32:
 1224              		.size	CyDmaGetDstAddress, .-CyDmaGetDstAddress
 1225              		.section	.text.CyDmaSetDataElementSize,"ax",%progbits
 1226              		.align	2
 1227              		.global	CyDmaSetDataElementSize
 1228              		.code	16
 1229              		.thumb_func
 1230              		.type	CyDmaSetDataElementSize, %function
 1231              	CyDmaSetDataElementSize:
 1232              	.LFB33:
 934:Generated_Source\PSoC4/CyDMA.c **** 
 935:Generated_Source\PSoC4/CyDMA.c **** /*******************************************************************************
 936:Generated_Source\PSoC4/CyDMA.c **** * Function Name: CyDmaSetDataElementSize
 937:Generated_Source\PSoC4/CyDMA.c **** ********************************************************************************
 938:Generated_Source\PSoC4/CyDMA.c **** *
 939:Generated_Source\PSoC4/CyDMA.c **** * Summary:
 940:Generated_Source\PSoC4/CyDMA.c **** *  Sets the data element size for the specified descriptor.
 941:Generated_Source\PSoC4/CyDMA.c **** *
 942:Generated_Source\PSoC4/CyDMA.c **** * Parameters:
 943:Generated_Source\PSoC4/CyDMA.c **** *  channel:         Channel used by this function.
 944:Generated_Source\PSoC4/CyDMA.c **** *  descriptor:      Descriptor (0 or 1) modified by this function.
ARM GAS  C:\Users\AFDHAL~1\AppData\Local\Temp\ccPfQK7a.s 			page 41


 945:Generated_Source\PSoC4/CyDMA.c **** *  dataElementSize: Specifies the size of the data element. The DMA transfer
 946:Generated_Source\PSoC4/CyDMA.c **** *                   engine transfers one data element at a time. How these
 947:Generated_Source\PSoC4/CyDMA.c **** *                   transfers occur is controlled by the transfer mode.
 948:Generated_Source\PSoC4/CyDMA.c **** *                   Refer to the API bit field definitions in CyDMA_P4.h
 949:Generated_Source\PSoC4/CyDMA.c **** *                   or API description in the DMA channel datasheet for the 
 950:Generated_Source\PSoC4/CyDMA.c **** *                   parameter options.
 951:Generated_Source\PSoC4/CyDMA.c **** *
 952:Generated_Source\PSoC4/CyDMA.c **** * Return:
 953:Generated_Source\PSoC4/CyDMA.c **** *  None.
 954:Generated_Source\PSoC4/CyDMA.c **** *
 955:Generated_Source\PSoC4/CyDMA.c **** * Side effect:
 956:Generated_Source\PSoC4/CyDMA.c **** *  This function should not be called when the specified descriptor is active
 957:Generated_Source\PSoC4/CyDMA.c **** *  in the DMA transfer engine. This can be checked by calling CyDmaGetStatus(). 
 958:Generated_Source\PSoC4/CyDMA.c **** *
 959:Generated_Source\PSoC4/CyDMA.c **** *******************************************************************************/
 960:Generated_Source\PSoC4/CyDMA.c **** void CyDmaSetDataElementSize(int32 channel, int32 descriptor, uint32 dataElementSize)
 961:Generated_Source\PSoC4/CyDMA.c **** {
 1233              		.loc 1 961 0
 1234              		.cfi_startproc
 1235              		@ args = 0, pretend = 0, frame = 0
 1236              		@ frame_needed = 0, uses_anonymous_args = 0
 1237              		@ link register save eliminated.
 1238              	.LVL87:
 962:Generated_Source\PSoC4/CyDMA.c ****     uint32 regValue;
 963:Generated_Source\PSoC4/CyDMA.c ****     
 964:Generated_Source\PSoC4/CyDMA.c ****     CYASSERT((channel    >= 0) && (channel    < CYDMA_CH_NR));
 965:Generated_Source\PSoC4/CyDMA.c ****     CYASSERT((descriptor >= 0) && (descriptor < CYDMA_DESCR_NR));
 966:Generated_Source\PSoC4/CyDMA.c ****     CYASSERT(0u == (dataElementSize & (uint32)~CYDMA_DATA_SIZE));
 967:Generated_Source\PSoC4/CyDMA.c **** 
 968:Generated_Source\PSoC4/CyDMA.c ****     regValue = CYDMA_DESCR_BASE.descriptor[channel][descriptor].ctl & (uint32)~CYDMA_DATA_SIZE;
 1239              		.loc 1 968 0
 1240 0000 054B     		ldr	r3, .L115
 1241 0002 4000     		lsls	r0, r0, #1
 1242              	.LVL88:
 1243 0004 9C46     		mov	ip, r3
 1244 0006 4118     		adds	r1, r0, r1
 1245              	.LVL89:
 1246 0008 0901     		lsls	r1, r1, #4
 1247 000a 6144     		add	r1, r1, ip
 1248 000c 8868     		ldr	r0, [r1, #8]
 1249              	.LVL90:
 969:Generated_Source\PSoC4/CyDMA.c ****     CYDMA_DESCR_BASE.descriptor[channel][descriptor].ctl = regValue | dataElementSize;
 1250              		.loc 1 969 0
 1251 000e 034B     		ldr	r3, .L115+4
 970:Generated_Source\PSoC4/CyDMA.c **** }
 1252              		.loc 1 970 0
 1253              		@ sp needed
 969:Generated_Source\PSoC4/CyDMA.c ****     CYDMA_DESCR_BASE.descriptor[channel][descriptor].ctl = regValue | dataElementSize;
 1254              		.loc 1 969 0
 1255 0010 0340     		ands	r3, r0
 1256              	.LVL91:
 1257 0012 1A43     		orrs	r2, r3
 1258              	.LVL92:
 1259 0014 8A60     		str	r2, [r1, #8]
 1260              		.loc 1 970 0
 1261 0016 7047     		bx	lr
 1262              	.L116:
ARM GAS  C:\Users\AFDHAL~1\AppData\Local\Temp\ccPfQK7a.s 			page 42


 1263              		.align	2
 1264              	.L115:
 1265 0018 00181040 		.word	1074796544
 1266 001c FFFFFCFF 		.word	-196609
 1267              		.cfi_endproc
 1268              	.LFE33:
 1269              		.size	CyDmaSetDataElementSize, .-CyDmaSetDataElementSize
 1270              		.section	.text.CyDmaGetDataElementSize,"ax",%progbits
 1271              		.align	2
 1272              		.global	CyDmaGetDataElementSize
 1273              		.code	16
 1274              		.thumb_func
 1275              		.type	CyDmaGetDataElementSize, %function
 1276              	CyDmaGetDataElementSize:
 1277              	.LFB34:
 971:Generated_Source\PSoC4/CyDMA.c **** 
 972:Generated_Source\PSoC4/CyDMA.c **** 
 973:Generated_Source\PSoC4/CyDMA.c **** /*******************************************************************************
 974:Generated_Source\PSoC4/CyDMA.c **** * Function Name: CyDmaGetDataElementSize
 975:Generated_Source\PSoC4/CyDMA.c **** ********************************************************************************
 976:Generated_Source\PSoC4/CyDMA.c **** *
 977:Generated_Source\PSoC4/CyDMA.c **** * Summary:
 978:Generated_Source\PSoC4/CyDMA.c **** *  Returns the data element size configured for the specified descriptor, set by
 979:Generated_Source\PSoC4/CyDMA.c **** *  CyDmaSetDataElementSize() or CyDmaSetConfiguration.
 980:Generated_Source\PSoC4/CyDMA.c **** *
 981:Generated_Source\PSoC4/CyDMA.c **** * Parameters:
 982:Generated_Source\PSoC4/CyDMA.c **** *  channel:    Channel used by this function.
 983:Generated_Source\PSoC4/CyDMA.c **** *  descriptor: Descriptor (0 or 1) modified by this function.
 984:Generated_Source\PSoC4/CyDMA.c **** *                   
 985:Generated_Source\PSoC4/CyDMA.c **** * Return:
 986:Generated_Source\PSoC4/CyDMA.c **** *  The size of the data element. The DMA transfer engine transfers one data
 987:Generated_Source\PSoC4/CyDMA.c **** *  element at a time. How these transfers occur is controlled by the transfer
 988:Generated_Source\PSoC4/CyDMA.c **** *  mode. Refer to the API bit field definitions in CyDMA_P4.h or the API 
 989:Generated_Source\PSoC4/CyDMA.c **** *  description in the DMA channel datasheet for more information.
 990:Generated_Source\PSoC4/CyDMA.c **** *
 991:Generated_Source\PSoC4/CyDMA.c **** * Note:
 992:Generated_Source\PSoC4/CyDMA.c **** *  The size of the source and destination can be configured to use the
 993:Generated_Source\PSoC4/CyDMA.c **** *  data element size, or a Word, this is set in CyDmaSetSrcDstTransferWidth().
 994:Generated_Source\PSoC4/CyDMA.c **** *
 995:Generated_Source\PSoC4/CyDMA.c **** *******************************************************************************/
 996:Generated_Source\PSoC4/CyDMA.c **** uint32 CyDmaGetDataElementSize(int32 channel, int32 descriptor)
 997:Generated_Source\PSoC4/CyDMA.c **** {
 1278              		.loc 1 997 0
 1279              		.cfi_startproc
 1280              		@ args = 0, pretend = 0, frame = 0
 1281              		@ frame_needed = 0, uses_anonymous_args = 0
 1282              		@ link register save eliminated.
 1283              	.LVL93:
 998:Generated_Source\PSoC4/CyDMA.c ****     CYASSERT((channel    >= 0) && (channel    < CYDMA_CH_NR));
 999:Generated_Source\PSoC4/CyDMA.c ****     CYASSERT((descriptor >= 0) && (descriptor < CYDMA_DESCR_NR));
1000:Generated_Source\PSoC4/CyDMA.c **** 
1001:Generated_Source\PSoC4/CyDMA.c ****     return (CYDMA_DESCR_BASE.descriptor[channel][descriptor].ctl & CYDMA_DATA_SIZE);
 1284              		.loc 1 1001 0
 1285 0000 054B     		ldr	r3, .L118
 1286 0002 4000     		lsls	r0, r0, #1
 1287              	.LVL94:
 1288 0004 9C46     		mov	ip, r3
ARM GAS  C:\Users\AFDHAL~1\AppData\Local\Temp\ccPfQK7a.s 			page 43


 1289 0006 C023     		movs	r3, #192
 1290 0008 4118     		adds	r1, r0, r1
 1291              	.LVL95:
 1292 000a 0901     		lsls	r1, r1, #4
 1293 000c 6144     		add	r1, r1, ip
 1294 000e 8868     		ldr	r0, [r1, #8]
 1295 0010 9B02     		lsls	r3, r3, #10
 1296 0012 1840     		ands	r0, r3
1002:Generated_Source\PSoC4/CyDMA.c **** }
 1297              		.loc 1 1002 0
 1298              		@ sp needed
 1299 0014 7047     		bx	lr
 1300              	.L119:
 1301 0016 C046     		.align	2
 1302              	.L118:
 1303 0018 00181040 		.word	1074796544
 1304              		.cfi_endproc
 1305              	.LFE34:
 1306              		.size	CyDmaGetDataElementSize, .-CyDmaGetDataElementSize
 1307              		.section	.text.CyDmaSetNumDataElements,"ax",%progbits
 1308              		.align	2
 1309              		.global	CyDmaSetNumDataElements
 1310              		.code	16
 1311              		.thumb_func
 1312              		.type	CyDmaSetNumDataElements, %function
 1313              	CyDmaSetNumDataElements:
 1314              	.LFB35:
1003:Generated_Source\PSoC4/CyDMA.c **** 
1004:Generated_Source\PSoC4/CyDMA.c **** 
1005:Generated_Source\PSoC4/CyDMA.c **** /*******************************************************************************
1006:Generated_Source\PSoC4/CyDMA.c **** * Function Name: CyDmaSetNumDataElements
1007:Generated_Source\PSoC4/CyDMA.c **** ********************************************************************************
1008:Generated_Source\PSoC4/CyDMA.c **** *
1009:Generated_Source\PSoC4/CyDMA.c **** * Summary:
1010:Generated_Source\PSoC4/CyDMA.c **** *  Sets the number of data elements to transfer for specified descriptor.
1011:Generated_Source\PSoC4/CyDMA.c **** *
1012:Generated_Source\PSoC4/CyDMA.c **** * Parameters:
1013:Generated_Source\PSoC4/CyDMA.c **** *  channel:         Channel used by this function.
1014:Generated_Source\PSoC4/CyDMA.c **** *  descriptor:      Descriptor (0 or 1) modified by this function.
1015:Generated_Source\PSoC4/CyDMA.c **** *  numDataElements: Total number of data elements this descriptor transfers.
1016:Generated_Source\PSoC4/CyDMA.c **** *                   Valid ranges are 1 to 65536.
1017:Generated_Source\PSoC4/CyDMA.c **** *                   
1018:Generated_Source\PSoC4/CyDMA.c **** * Return:
1019:Generated_Source\PSoC4/CyDMA.c **** *  None.
1020:Generated_Source\PSoC4/CyDMA.c **** *
1021:Generated_Source\PSoC4/CyDMA.c **** * Side effect:
1022:Generated_Source\PSoC4/CyDMA.c **** *  This function should not be called when the specified descriptor is active
1023:Generated_Source\PSoC4/CyDMA.c **** *  in the DMA transfer engine. This can be checked by calling CyDmaGetStatus(). 
1024:Generated_Source\PSoC4/CyDMA.c **** *
1025:Generated_Source\PSoC4/CyDMA.c **** *******************************************************************************/
1026:Generated_Source\PSoC4/CyDMA.c **** void CyDmaSetNumDataElements(int32 channel, int32 descriptor, int32 numDataElements)
1027:Generated_Source\PSoC4/CyDMA.c **** {
 1315              		.loc 1 1027 0
 1316              		.cfi_startproc
 1317              		@ args = 0, pretend = 0, frame = 0
 1318              		@ frame_needed = 0, uses_anonymous_args = 0
 1319              		@ link register save eliminated.
ARM GAS  C:\Users\AFDHAL~1\AppData\Local\Temp\ccPfQK7a.s 			page 44


 1320              	.LVL96:
1028:Generated_Source\PSoC4/CyDMA.c ****     uint32 regValue;
1029:Generated_Source\PSoC4/CyDMA.c ****     
1030:Generated_Source\PSoC4/CyDMA.c ****     CYASSERT((channel        >= 0) && (channel         <  CYDMA_CH_NR));
1031:Generated_Source\PSoC4/CyDMA.c ****     CYASSERT((descriptor     >= 0) && (descriptor      <  CYDMA_DESCR_NR));
1032:Generated_Source\PSoC4/CyDMA.c ****     CYASSERT((numDataElements > 0) && (numDataElements <= CYDMA_MAX_DATA_NR));
1033:Generated_Source\PSoC4/CyDMA.c ****     
1034:Generated_Source\PSoC4/CyDMA.c ****     --numDataElements;
1035:Generated_Source\PSoC4/CyDMA.c ****     regValue = CYDMA_DESCR_BASE.descriptor[channel][descriptor].ctl & (uint32)~CYDMA_DATA_NR;
 1321              		.loc 1 1035 0
 1322 0000 064B     		ldr	r3, .L121
 1323 0002 4000     		lsls	r0, r0, #1
 1324              	.LVL97:
 1325 0004 9C46     		mov	ip, r3
 1326 0006 4118     		adds	r1, r0, r1
 1327              	.LVL98:
 1328 0008 0901     		lsls	r1, r1, #4
 1329 000a 6144     		add	r1, r1, ip
 1330 000c 8B68     		ldr	r3, [r1, #8]
 1331              	.LVL99:
1036:Generated_Source\PSoC4/CyDMA.c ****     CYDMA_DESCR_BASE.descriptor[channel][descriptor].ctl = regValue | (uint32)numDataElements;
 1332              		.loc 1 1036 0
 1333 000e 013A     		subs	r2, r2, #1
 1334              	.LVL100:
 1335 0010 1B0C     		lsrs	r3, r3, #16
 1336              	.LVL101:
 1337 0012 1B04     		lsls	r3, r3, #16
 1338 0014 1A43     		orrs	r2, r3
 1339              	.LVL102:
 1340 0016 8A60     		str	r2, [r1, #8]
1037:Generated_Source\PSoC4/CyDMA.c **** }
 1341              		.loc 1 1037 0
 1342              		@ sp needed
 1343 0018 7047     		bx	lr
 1344              	.L122:
 1345 001a C046     		.align	2
 1346              	.L121:
 1347 001c 00181040 		.word	1074796544
 1348              		.cfi_endproc
 1349              	.LFE35:
 1350              		.size	CyDmaSetNumDataElements, .-CyDmaSetNumDataElements
 1351              		.section	.text.CyDmaGetNumDataElements,"ax",%progbits
 1352              		.align	2
 1353              		.global	CyDmaGetNumDataElements
 1354              		.code	16
 1355              		.thumb_func
 1356              		.type	CyDmaGetNumDataElements, %function
 1357              	CyDmaGetNumDataElements:
 1358              	.LFB36:
1038:Generated_Source\PSoC4/CyDMA.c **** 
1039:Generated_Source\PSoC4/CyDMA.c **** 
1040:Generated_Source\PSoC4/CyDMA.c **** /*******************************************************************************
1041:Generated_Source\PSoC4/CyDMA.c **** * Function Name: CyDmaGetNumDataElements
1042:Generated_Source\PSoC4/CyDMA.c **** ********************************************************************************
1043:Generated_Source\PSoC4/CyDMA.c **** *
1044:Generated_Source\PSoC4/CyDMA.c **** * Summary:
1045:Generated_Source\PSoC4/CyDMA.c **** *  Returns the number of data elements to be transferred. Only reflects the
ARM GAS  C:\Users\AFDHAL~1\AppData\Local\Temp\ccPfQK7a.s 			page 45


1046:Generated_Source\PSoC4/CyDMA.c **** *  value written by CyDmaSetNumDataElements() or CyDmaSetConfiguration(). This
1047:Generated_Source\PSoC4/CyDMA.c **** *  does not reflect how many elements have been transferred. For that
1048:Generated_Source\PSoC4/CyDMA.c **** *  information use the CyDmaGetDescriptorStatus() function.
1049:Generated_Source\PSoC4/CyDMA.c **** *
1050:Generated_Source\PSoC4/CyDMA.c **** * Parameters:
1051:Generated_Source\PSoC4/CyDMA.c **** *  channel:    Channel used by this function.
1052:Generated_Source\PSoC4/CyDMA.c **** *  descriptor: Descriptor (0 or 1) modified by this function.
1053:Generated_Source\PSoC4/CyDMA.c **** *                   
1054:Generated_Source\PSoC4/CyDMA.c **** * Return:
1055:Generated_Source\PSoC4/CyDMA.c **** *  Number of data elements to transfer.
1056:Generated_Source\PSoC4/CyDMA.c **** *
1057:Generated_Source\PSoC4/CyDMA.c **** *******************************************************************************/
1058:Generated_Source\PSoC4/CyDMA.c **** int32 CyDmaGetNumDataElements(int32 channel, int32 descriptor)
1059:Generated_Source\PSoC4/CyDMA.c **** {
 1359              		.loc 1 1059 0
 1360              		.cfi_startproc
 1361              		@ args = 0, pretend = 0, frame = 0
 1362              		@ frame_needed = 0, uses_anonymous_args = 0
 1363              		@ link register save eliminated.
 1364              	.LVL103:
1060:Generated_Source\PSoC4/CyDMA.c ****     uint32 numElements;
1061:Generated_Source\PSoC4/CyDMA.c **** 
1062:Generated_Source\PSoC4/CyDMA.c ****     CYASSERT((channel    >= 0) && (channel    < CYDMA_CH_NR));
1063:Generated_Source\PSoC4/CyDMA.c ****     CYASSERT((descriptor >= 0) && (descriptor < CYDMA_DESCR_NR));
1064:Generated_Source\PSoC4/CyDMA.c ****     
1065:Generated_Source\PSoC4/CyDMA.c ****     numElements = (CYDMA_DESCR_BASE.descriptor[channel][descriptor].ctl & CYDMA_DATA_NR) + 1u;
 1365              		.loc 1 1065 0
 1366 0000 054B     		ldr	r3, .L124
 1367 0002 4000     		lsls	r0, r0, #1
 1368              	.LVL104:
 1369 0004 9C46     		mov	ip, r3
 1370 0006 4118     		adds	r1, r0, r1
 1371              	.LVL105:
 1372 0008 0901     		lsls	r1, r1, #4
 1373 000a 6144     		add	r1, r1, ip
 1374 000c 8868     		ldr	r0, [r1, #8]
 1375              	.LVL106:
1066:Generated_Source\PSoC4/CyDMA.c ****     return ((int32)numElements);
1067:Generated_Source\PSoC4/CyDMA.c **** }
 1376              		.loc 1 1067 0
 1377              		@ sp needed
1066:Generated_Source\PSoC4/CyDMA.c ****     return ((int32)numElements);
 1378              		.loc 1 1066 0
 1379 000e 0004     		lsls	r0, r0, #16
 1380              	.LVL107:
 1381 0010 000C     		lsrs	r0, r0, #16
 1382 0012 0130     		adds	r0, r0, #1
 1383              		.loc 1 1067 0
 1384 0014 7047     		bx	lr
 1385              	.L125:
 1386 0016 C046     		.align	2
 1387              	.L124:
 1388 0018 00181040 		.word	1074796544
 1389              		.cfi_endproc
 1390              	.LFE36:
 1391              		.size	CyDmaGetNumDataElements, .-CyDmaGetNumDataElements
 1392              		.section	.text.CyDmaSetSrcDstTransferWidth,"ax",%progbits
ARM GAS  C:\Users\AFDHAL~1\AppData\Local\Temp\ccPfQK7a.s 			page 46


 1393              		.align	2
 1394              		.global	CyDmaSetSrcDstTransferWidth
 1395              		.code	16
 1396              		.thumb_func
 1397              		.type	CyDmaSetSrcDstTransferWidth, %function
 1398              	CyDmaSetSrcDstTransferWidth:
 1399              	.LFB37:
1068:Generated_Source\PSoC4/CyDMA.c **** 
1069:Generated_Source\PSoC4/CyDMA.c **** 
1070:Generated_Source\PSoC4/CyDMA.c **** /*******************************************************************************
1071:Generated_Source\PSoC4/CyDMA.c **** * Function Name: CyDmaSetSrcDstTransferWidth
1072:Generated_Source\PSoC4/CyDMA.c **** ********************************************************************************
1073:Generated_Source\PSoC4/CyDMA.c **** *
1074:Generated_Source\PSoC4/CyDMA.c **** * Summary:
1075:Generated_Source\PSoC4/CyDMA.c **** *  Sets the width of the source and destination. The DMA can either read and
1076:Generated_Source\PSoC4/CyDMA.c **** *  write data from the source and destination at the size specified by
1077:Generated_Source\PSoC4/CyDMA.c **** *  CyDmaSetDataElementSize() or by a word (4bytes). This also determines how
1078:Generated_Source\PSoC4/CyDMA.c **** *  many bytes the addresses are incremented if increment source and destination
1079:Generated_Source\PSoC4/CyDMA.c **** *  address are turned on.
1080:Generated_Source\PSoC4/CyDMA.c **** *
1081:Generated_Source\PSoC4/CyDMA.c **** * Parameters:
1082:Generated_Source\PSoC4/CyDMA.c **** *  channel:       Channel used by this function.
1083:Generated_Source\PSoC4/CyDMA.c **** *  descriptor:    Descriptor (0 or 1) modified by this function.
1084:Generated_Source\PSoC4/CyDMA.c **** *  transferWidth: Specifies the source and destination widths. Refer to 
1085:Generated_Source\PSoC4/CyDMA.c **** *                 the API bit field definitions in CyDMA_P4.h or the API
1086:Generated_Source\PSoC4/CyDMA.c **** *                 description in the DMA channel datasheet for the parameter
1087:Generated_Source\PSoC4/CyDMA.c **** *                 options.
1088:Generated_Source\PSoC4/CyDMA.c **** *                   
1089:Generated_Source\PSoC4/CyDMA.c **** * Return:
1090:Generated_Source\PSoC4/CyDMA.c **** *  None.
1091:Generated_Source\PSoC4/CyDMA.c **** *
1092:Generated_Source\PSoC4/CyDMA.c **** * Side effect:
1093:Generated_Source\PSoC4/CyDMA.c **** *  This function should not be called when the specified descriptor is active
1094:Generated_Source\PSoC4/CyDMA.c **** *  in the DMA transfer engine. This can be checked by calling CyDmaGetStatus(). 
1095:Generated_Source\PSoC4/CyDMA.c **** *
1096:Generated_Source\PSoC4/CyDMA.c **** *******************************************************************************/
1097:Generated_Source\PSoC4/CyDMA.c **** void CyDmaSetSrcDstTransferWidth(int32 channel, int32 descriptor, uint32 transferWidth)
1098:Generated_Source\PSoC4/CyDMA.c **** {
 1400              		.loc 1 1098 0
 1401              		.cfi_startproc
 1402              		@ args = 0, pretend = 0, frame = 0
 1403              		@ frame_needed = 0, uses_anonymous_args = 0
 1404              		@ link register save eliminated.
 1405              	.LVL108:
1099:Generated_Source\PSoC4/CyDMA.c ****     uint32 regValue;
1100:Generated_Source\PSoC4/CyDMA.c **** 
1101:Generated_Source\PSoC4/CyDMA.c ****     CYASSERT((channel    >= 0) && (channel    < CYDMA_CH_NR));
1102:Generated_Source\PSoC4/CyDMA.c ****     CYASSERT((descriptor >= 0) && (descriptor < CYDMA_DESCR_NR));
1103:Generated_Source\PSoC4/CyDMA.c ****     CYASSERT(0u == (transferWidth & (uint32)~CYDMA_TRANSFER_WIDTH));
1104:Generated_Source\PSoC4/CyDMA.c **** 
1105:Generated_Source\PSoC4/CyDMA.c ****     regValue = CYDMA_DESCR_BASE.descriptor[channel][descriptor].ctl & (uint32)~CYDMA_TRANSFER_WIDTH
 1406              		.loc 1 1105 0
 1407 0000 054B     		ldr	r3, .L127
 1408 0002 4000     		lsls	r0, r0, #1
 1409              	.LVL109:
 1410 0004 9C46     		mov	ip, r3
 1411 0006 4118     		adds	r1, r0, r1
ARM GAS  C:\Users\AFDHAL~1\AppData\Local\Temp\ccPfQK7a.s 			page 47


 1412              	.LVL110:
 1413 0008 0901     		lsls	r1, r1, #4
 1414 000a 6144     		add	r1, r1, ip
 1415 000c 8868     		ldr	r0, [r1, #8]
 1416              	.LVL111:
1106:Generated_Source\PSoC4/CyDMA.c ****     CYDMA_DESCR_BASE.descriptor[channel][descriptor].ctl = regValue | transferWidth;
 1417              		.loc 1 1106 0
 1418 000e 034B     		ldr	r3, .L127+4
1107:Generated_Source\PSoC4/CyDMA.c **** }
 1419              		.loc 1 1107 0
 1420              		@ sp needed
1106:Generated_Source\PSoC4/CyDMA.c ****     CYDMA_DESCR_BASE.descriptor[channel][descriptor].ctl = regValue | transferWidth;
 1421              		.loc 1 1106 0
 1422 0010 0340     		ands	r3, r0
 1423              	.LVL112:
 1424 0012 1A43     		orrs	r2, r3
 1425              	.LVL113:
 1426 0014 8A60     		str	r2, [r1, #8]
 1427              		.loc 1 1107 0
 1428 0016 7047     		bx	lr
 1429              	.L128:
 1430              		.align	2
 1431              	.L127:
 1432 0018 00181040 		.word	1074796544
 1433 001c FFFFAFFF 		.word	-5242881
 1434              		.cfi_endproc
 1435              	.LFE37:
 1436              		.size	CyDmaSetSrcDstTransferWidth, .-CyDmaSetSrcDstTransferWidth
 1437              		.section	.text.CyDmaGetSrcDstTransferWidth,"ax",%progbits
 1438              		.align	2
 1439              		.global	CyDmaGetSrcDstTransferWidth
 1440              		.code	16
 1441              		.thumb_func
 1442              		.type	CyDmaGetSrcDstTransferWidth, %function
 1443              	CyDmaGetSrcDstTransferWidth:
 1444              	.LFB38:
1108:Generated_Source\PSoC4/CyDMA.c **** 
1109:Generated_Source\PSoC4/CyDMA.c **** 
1110:Generated_Source\PSoC4/CyDMA.c **** /*******************************************************************************
1111:Generated_Source\PSoC4/CyDMA.c **** * Function Name: CyDmaGetSrcDstTransferWidth
1112:Generated_Source\PSoC4/CyDMA.c **** ********************************************************************************
1113:Generated_Source\PSoC4/CyDMA.c **** *
1114:Generated_Source\PSoC4/CyDMA.c **** * Summary:
1115:Generated_Source\PSoC4/CyDMA.c **** *  Returns the width of the source and destination, as set by 
1116:Generated_Source\PSoC4/CyDMA.c **** *  CyDmaSetSrcDstTransferWidth() or CyDmaSetConfiguration().
1117:Generated_Source\PSoC4/CyDMA.c **** *
1118:Generated_Source\PSoC4/CyDMA.c **** * Parameters:
1119:Generated_Source\PSoC4/CyDMA.c **** *  channel:    Channel used by this function.
1120:Generated_Source\PSoC4/CyDMA.c **** *  descriptor: Descriptor (0 or 1) modified by this function.
1121:Generated_Source\PSoC4/CyDMA.c **** *                   
1122:Generated_Source\PSoC4/CyDMA.c **** * Return:
1123:Generated_Source\PSoC4/CyDMA.c **** *  Width of source and destination. Refer to the API bit field definitions in
1124:Generated_Source\PSoC4/CyDMA.c **** *  CyDMA_P4.h or the API description in the DMA channel datasheet for more
1125:Generated_Source\PSoC4/CyDMA.c **** *  information.
1126:Generated_Source\PSoC4/CyDMA.c **** *
1127:Generated_Source\PSoC4/CyDMA.c **** *******************************************************************************/
1128:Generated_Source\PSoC4/CyDMA.c **** uint32 CyDmaGetSrcDstTransferWidth(int32 channel, int32 descriptor)
ARM GAS  C:\Users\AFDHAL~1\AppData\Local\Temp\ccPfQK7a.s 			page 48


1129:Generated_Source\PSoC4/CyDMA.c **** {
 1445              		.loc 1 1129 0
 1446              		.cfi_startproc
 1447              		@ args = 0, pretend = 0, frame = 0
 1448              		@ frame_needed = 0, uses_anonymous_args = 0
 1449              		@ link register save eliminated.
 1450              	.LVL114:
1130:Generated_Source\PSoC4/CyDMA.c ****     CYASSERT((channel    >= 0) && (channel    < CYDMA_CH_NR));
1131:Generated_Source\PSoC4/CyDMA.c ****     CYASSERT((descriptor >= 0) && (descriptor < CYDMA_DESCR_NR));
1132:Generated_Source\PSoC4/CyDMA.c ****     return (CYDMA_DESCR_BASE.descriptor[channel][descriptor].ctl & CYDMA_TRANSFER_WIDTH);
 1451              		.loc 1 1132 0
 1452 0000 054B     		ldr	r3, .L130
 1453 0002 4000     		lsls	r0, r0, #1
 1454              	.LVL115:
 1455 0004 9C46     		mov	ip, r3
 1456 0006 A023     		movs	r3, #160
 1457 0008 4118     		adds	r1, r0, r1
 1458              	.LVL116:
 1459 000a 0901     		lsls	r1, r1, #4
 1460 000c 6144     		add	r1, r1, ip
 1461 000e 8868     		ldr	r0, [r1, #8]
 1462 0010 DB03     		lsls	r3, r3, #15
 1463 0012 1840     		ands	r0, r3
1133:Generated_Source\PSoC4/CyDMA.c **** }
 1464              		.loc 1 1133 0
 1465              		@ sp needed
 1466 0014 7047     		bx	lr
 1467              	.L131:
 1468 0016 C046     		.align	2
 1469              	.L130:
 1470 0018 00181040 		.word	1074796544
 1471              		.cfi_endproc
 1472              	.LFE38:
 1473              		.size	CyDmaGetSrcDstTransferWidth, .-CyDmaGetSrcDstTransferWidth
 1474              		.section	.text.CyDmaSetAddressIncrement,"ax",%progbits
 1475              		.align	2
 1476              		.global	CyDmaSetAddressIncrement
 1477              		.code	16
 1478              		.thumb_func
 1479              		.type	CyDmaSetAddressIncrement, %function
 1480              	CyDmaSetAddressIncrement:
 1481              	.LFB39:
1134:Generated_Source\PSoC4/CyDMA.c **** 
1135:Generated_Source\PSoC4/CyDMA.c **** 
1136:Generated_Source\PSoC4/CyDMA.c **** /*******************************************************************************
1137:Generated_Source\PSoC4/CyDMA.c **** * Function Name: CyDmaSetAddressIncrement
1138:Generated_Source\PSoC4/CyDMA.c **** ********************************************************************************
1139:Generated_Source\PSoC4/CyDMA.c **** *
1140:Generated_Source\PSoC4/CyDMA.c **** * Summary:
1141:Generated_Source\PSoC4/CyDMA.c **** *  Sets whether the source or destination addresses are incremented after the
1142:Generated_Source\PSoC4/CyDMA.c **** *  transfer of each data element. The amount that the source and destination
1143:Generated_Source\PSoC4/CyDMA.c **** *  address are incremented is determined by the CyDmaSetSrcDstTransferWidth()
1144:Generated_Source\PSoC4/CyDMA.c **** *  function. The addresses will either be incremented by the data element size
1145:Generated_Source\PSoC4/CyDMA.c **** *  or by a word (4 bytes).
1146:Generated_Source\PSoC4/CyDMA.c **** *
1147:Generated_Source\PSoC4/CyDMA.c **** * Parameters:
1148:Generated_Source\PSoC4/CyDMA.c **** *  channel:          Channel used by this function.
ARM GAS  C:\Users\AFDHAL~1\AppData\Local\Temp\ccPfQK7a.s 			page 49


1149:Generated_Source\PSoC4/CyDMA.c **** *  descriptor:       Descriptor (0 or 1) modified by this function.
1150:Generated_Source\PSoC4/CyDMA.c **** *  addressIncrement: Address increment settings. Refer to the API bit fields 
1151:Generated_Source\PSoC4/CyDMA.c **** *                    definition in CyDMA_P4.h or the API description in the DMA
1152:Generated_Source\PSoC4/CyDMA.c **** *                    channel datasheet for the parameter options.
1153:Generated_Source\PSoC4/CyDMA.c **** *    
1154:Generated_Source\PSoC4/CyDMA.c **** * Return:
1155:Generated_Source\PSoC4/CyDMA.c **** *  None.
1156:Generated_Source\PSoC4/CyDMA.c **** *
1157:Generated_Source\PSoC4/CyDMA.c **** * Side effect:
1158:Generated_Source\PSoC4/CyDMA.c **** *  This function should not be called when the specified descriptor is active
1159:Generated_Source\PSoC4/CyDMA.c **** *  in the DMA transfer engine. This can be checked by calling CyDmaGetStatus(). 
1160:Generated_Source\PSoC4/CyDMA.c **** *
1161:Generated_Source\PSoC4/CyDMA.c **** *******************************************************************************/
1162:Generated_Source\PSoC4/CyDMA.c **** void CyDmaSetAddressIncrement(int32 channel, int32 descriptor, uint32 addressIncrement)
1163:Generated_Source\PSoC4/CyDMA.c **** {
 1482              		.loc 1 1163 0
 1483              		.cfi_startproc
 1484              		@ args = 0, pretend = 0, frame = 0
 1485              		@ frame_needed = 0, uses_anonymous_args = 0
 1486              		@ link register save eliminated.
 1487              	.LVL117:
1164:Generated_Source\PSoC4/CyDMA.c ****     uint32 regValue;
1165:Generated_Source\PSoC4/CyDMA.c **** 
1166:Generated_Source\PSoC4/CyDMA.c ****     CYASSERT((channel    >= 0) && (channel    < CYDMA_CH_NR));
1167:Generated_Source\PSoC4/CyDMA.c ****     CYASSERT((descriptor >= 0) && (descriptor < CYDMA_DESCR_NR));
1168:Generated_Source\PSoC4/CyDMA.c ****     CYASSERT(0u == (addressIncrement & (uint32)~CYDMA_ADDR_INCR));
1169:Generated_Source\PSoC4/CyDMA.c **** 
1170:Generated_Source\PSoC4/CyDMA.c ****     regValue = CYDMA_DESCR_BASE.descriptor[channel][descriptor].ctl & (uint32)~CYDMA_ADDR_INCR;
 1488              		.loc 1 1170 0
 1489 0000 054B     		ldr	r3, .L133
 1490 0002 4000     		lsls	r0, r0, #1
 1491              	.LVL118:
 1492 0004 9C46     		mov	ip, r3
 1493 0006 4118     		adds	r1, r0, r1
 1494              	.LVL119:
 1495 0008 0901     		lsls	r1, r1, #4
 1496 000a 6144     		add	r1, r1, ip
 1497 000c 8868     		ldr	r0, [r1, #8]
 1498              	.LVL120:
1171:Generated_Source\PSoC4/CyDMA.c ****     CYDMA_DESCR_BASE.descriptor[channel][descriptor].ctl = regValue | addressIncrement;
 1499              		.loc 1 1171 0
 1500 000e 034B     		ldr	r3, .L133+4
1172:Generated_Source\PSoC4/CyDMA.c **** }
 1501              		.loc 1 1172 0
 1502              		@ sp needed
1171:Generated_Source\PSoC4/CyDMA.c ****     CYDMA_DESCR_BASE.descriptor[channel][descriptor].ctl = regValue | addressIncrement;
 1503              		.loc 1 1171 0
 1504 0010 0340     		ands	r3, r0
 1505              	.LVL121:
 1506 0012 1A43     		orrs	r2, r3
 1507              	.LVL122:
 1508 0014 8A60     		str	r2, [r1, #8]
 1509              		.loc 1 1172 0
 1510 0016 7047     		bx	lr
 1511              	.L134:
 1512              		.align	2
 1513              	.L133:
ARM GAS  C:\Users\AFDHAL~1\AppData\Local\Temp\ccPfQK7a.s 			page 50


 1514 0018 00181040 		.word	1074796544
 1515 001c FFFF5FFF 		.word	-10485761
 1516              		.cfi_endproc
 1517              	.LFE39:
 1518              		.size	CyDmaSetAddressIncrement, .-CyDmaSetAddressIncrement
 1519              		.section	.text.CyDmaGetAddressIncrement,"ax",%progbits
 1520              		.align	2
 1521              		.global	CyDmaGetAddressIncrement
 1522              		.code	16
 1523              		.thumb_func
 1524              		.type	CyDmaGetAddressIncrement, %function
 1525              	CyDmaGetAddressIncrement:
 1526              	.LFB40:
1173:Generated_Source\PSoC4/CyDMA.c **** 
1174:Generated_Source\PSoC4/CyDMA.c **** 
1175:Generated_Source\PSoC4/CyDMA.c **** /*******************************************************************************
1176:Generated_Source\PSoC4/CyDMA.c **** * Function Name: CyDmaGetAddressIncrement
1177:Generated_Source\PSoC4/CyDMA.c **** ********************************************************************************
1178:Generated_Source\PSoC4/CyDMA.c **** *
1179:Generated_Source\PSoC4/CyDMA.c **** * Summary:
1180:Generated_Source\PSoC4/CyDMA.c **** *  Returns address increment settings as set by CyDmaSetAddressIncrement() or
1181:Generated_Source\PSoC4/CyDMA.c **** *  CyDmaSetConfiguration().
1182:Generated_Source\PSoC4/CyDMA.c **** *
1183:Generated_Source\PSoC4/CyDMA.c **** * Parameters:
1184:Generated_Source\PSoC4/CyDMA.c **** *  channel:    Channel used by this function.
1185:Generated_Source\PSoC4/CyDMA.c **** *  descriptor: Descriptor (0 or 1) modified by this function.
1186:Generated_Source\PSoC4/CyDMA.c **** *                   
1187:Generated_Source\PSoC4/CyDMA.c **** * Return:
1188:Generated_Source\PSoC4/CyDMA.c **** *  Address increment settings. Refer to the API bit field definitions in
1189:Generated_Source\PSoC4/CyDMA.c **** *  CyDMA_P4.h or the API description in the DMA channel datasheet for more
1190:Generated_Source\PSoC4/CyDMA.c **** *  information.
1191:Generated_Source\PSoC4/CyDMA.c **** *
1192:Generated_Source\PSoC4/CyDMA.c **** *******************************************************************************/
1193:Generated_Source\PSoC4/CyDMA.c **** uint32 CyDmaGetAddressIncrement(int32 channel, int32 descriptor)
1194:Generated_Source\PSoC4/CyDMA.c **** {
 1527              		.loc 1 1194 0
 1528              		.cfi_startproc
 1529              		@ args = 0, pretend = 0, frame = 0
 1530              		@ frame_needed = 0, uses_anonymous_args = 0
 1531              		@ link register save eliminated.
 1532              	.LVL123:
1195:Generated_Source\PSoC4/CyDMA.c ****     CYASSERT((channel    >= 0) && (channel    < CYDMA_CH_NR));
1196:Generated_Source\PSoC4/CyDMA.c ****     CYASSERT((descriptor >= 0) && (descriptor < CYDMA_DESCR_NR));
1197:Generated_Source\PSoC4/CyDMA.c **** 
1198:Generated_Source\PSoC4/CyDMA.c ****     return (CYDMA_DESCR_BASE.descriptor[channel][descriptor].ctl & CYDMA_ADDR_INCR);
 1533              		.loc 1 1198 0
 1534 0000 054B     		ldr	r3, .L136
 1535 0002 4000     		lsls	r0, r0, #1
 1536              	.LVL124:
 1537 0004 9C46     		mov	ip, r3
 1538 0006 A023     		movs	r3, #160
 1539 0008 4118     		adds	r1, r0, r1
 1540              	.LVL125:
 1541 000a 0901     		lsls	r1, r1, #4
 1542 000c 6144     		add	r1, r1, ip
 1543 000e 8868     		ldr	r0, [r1, #8]
 1544 0010 1B04     		lsls	r3, r3, #16
ARM GAS  C:\Users\AFDHAL~1\AppData\Local\Temp\ccPfQK7a.s 			page 51


 1545 0012 1840     		ands	r0, r3
1199:Generated_Source\PSoC4/CyDMA.c **** }
 1546              		.loc 1 1199 0
 1547              		@ sp needed
 1548 0014 7047     		bx	lr
 1549              	.L137:
 1550 0016 C046     		.align	2
 1551              	.L136:
 1552 0018 00181040 		.word	1074796544
 1553              		.cfi_endproc
 1554              	.LFE40:
 1555              		.size	CyDmaGetAddressIncrement, .-CyDmaGetAddressIncrement
 1556              		.section	.text.CyDmaSetTriggerType,"ax",%progbits
 1557              		.align	2
 1558              		.global	CyDmaSetTriggerType
 1559              		.code	16
 1560              		.thumb_func
 1561              		.type	CyDmaSetTriggerType, %function
 1562              	CyDmaSetTriggerType:
 1563              	.LFB41:
1200:Generated_Source\PSoC4/CyDMA.c **** 
1201:Generated_Source\PSoC4/CyDMA.c **** 
1202:Generated_Source\PSoC4/CyDMA.c **** /*******************************************************************************
1203:Generated_Source\PSoC4/CyDMA.c **** * Function Name: CyDmaSetTriggerType
1204:Generated_Source\PSoC4/CyDMA.c **** ********************************************************************************
1205:Generated_Source\PSoC4/CyDMA.c **** *
1206:Generated_Source\PSoC4/CyDMA.c **** * Summary:
1207:Generated_Source\PSoC4/CyDMA.c **** *  Sets the type of input trigger for the DMA For level sensitive triggers sets
1208:Generated_Source\PSoC4/CyDMA.c **** *  how long the DMA waits for the trigger to go low (deactivate) before
1209:Generated_Source\PSoC4/CyDMA.c **** *  triggering the channel again.
1210:Generated_Source\PSoC4/CyDMA.c **** *
1211:Generated_Source\PSoC4/CyDMA.c **** * Parameters:
1212:Generated_Source\PSoC4/CyDMA.c **** *  channel:     Channel used by this function.
1213:Generated_Source\PSoC4/CyDMA.c **** *  descriptor:  Descriptor (0 or 1) modified by this function.
1214:Generated_Source\PSoC4/CyDMA.c **** *  triggerType: Type of DMA trigger. Refer to the API bit field definitions
1215:Generated_Source\PSoC4/CyDMA.c **** *               in CyDMA_P4.h or the API description in the DMA channel
1216:Generated_Source\PSoC4/CyDMA.c **** *               datasheet for the parameter options.
1217:Generated_Source\PSoC4/CyDMA.c **** *                   
1218:Generated_Source\PSoC4/CyDMA.c **** * Return:
1219:Generated_Source\PSoC4/CyDMA.c **** *  None.
1220:Generated_Source\PSoC4/CyDMA.c **** *
1221:Generated_Source\PSoC4/CyDMA.c **** * Side effect:
1222:Generated_Source\PSoC4/CyDMA.c **** *  This function should not be called when the specified descriptor is active
1223:Generated_Source\PSoC4/CyDMA.c **** *  in the DMA transfer engine. This can be checked by calling CyDmaGetStatus(). 
1224:Generated_Source\PSoC4/CyDMA.c **** *
1225:Generated_Source\PSoC4/CyDMA.c **** *******************************************************************************/
1226:Generated_Source\PSoC4/CyDMA.c **** void CyDmaSetTriggerType(int32 channel, int32 descriptor, uint32 triggerType)
1227:Generated_Source\PSoC4/CyDMA.c **** {
 1564              		.loc 1 1227 0
 1565              		.cfi_startproc
 1566              		@ args = 0, pretend = 0, frame = 0
 1567              		@ frame_needed = 0, uses_anonymous_args = 0
 1568              		@ link register save eliminated.
 1569              	.LVL126:
1228:Generated_Source\PSoC4/CyDMA.c ****     uint32 regValue;
1229:Generated_Source\PSoC4/CyDMA.c **** 
1230:Generated_Source\PSoC4/CyDMA.c ****     CYASSERT((channel    >= 0) && (channel    < CYDMA_CH_NR));
ARM GAS  C:\Users\AFDHAL~1\AppData\Local\Temp\ccPfQK7a.s 			page 52


1231:Generated_Source\PSoC4/CyDMA.c ****     CYASSERT((descriptor >= 0) && (descriptor < CYDMA_DESCR_NR));
1232:Generated_Source\PSoC4/CyDMA.c ****     CYASSERT(0u == (triggerType & (uint32)~CYDMA_TRIGGER_TYPE));
1233:Generated_Source\PSoC4/CyDMA.c **** 
1234:Generated_Source\PSoC4/CyDMA.c ****     regValue = CYDMA_DESCR_BASE.descriptor[channel][descriptor].ctl & (uint32)~CYDMA_TRIGGER_TYPE;
 1570              		.loc 1 1234 0
 1571 0000 054B     		ldr	r3, .L139
 1572 0002 4000     		lsls	r0, r0, #1
 1573              	.LVL127:
 1574 0004 9C46     		mov	ip, r3
 1575 0006 4118     		adds	r1, r0, r1
 1576              	.LVL128:
 1577 0008 0901     		lsls	r1, r1, #4
 1578 000a 6144     		add	r1, r1, ip
 1579 000c 8868     		ldr	r0, [r1, #8]
 1580              	.LVL129:
1235:Generated_Source\PSoC4/CyDMA.c ****     CYDMA_DESCR_BASE.descriptor[channel][descriptor].ctl = regValue | triggerType;
 1581              		.loc 1 1235 0
 1582 000e 034B     		ldr	r3, .L139+4
1236:Generated_Source\PSoC4/CyDMA.c **** }
 1583              		.loc 1 1236 0
 1584              		@ sp needed
1235:Generated_Source\PSoC4/CyDMA.c ****     CYDMA_DESCR_BASE.descriptor[channel][descriptor].ctl = regValue | triggerType;
 1585              		.loc 1 1235 0
 1586 0010 0340     		ands	r3, r0
 1587              	.LVL130:
 1588 0012 1A43     		orrs	r2, r3
 1589              	.LVL131:
 1590 0014 8A60     		str	r2, [r1, #8]
 1591              		.loc 1 1236 0
 1592 0016 7047     		bx	lr
 1593              	.L140:
 1594              		.align	2
 1595              	.L139:
 1596 0018 00181040 		.word	1074796544
 1597 001c FFFFFFFC 		.word	-50331649
 1598              		.cfi_endproc
 1599              	.LFE41:
 1600              		.size	CyDmaSetTriggerType, .-CyDmaSetTriggerType
 1601              		.section	.text.CyDmaGetTriggerType,"ax",%progbits
 1602              		.align	2
 1603              		.global	CyDmaGetTriggerType
 1604              		.code	16
 1605              		.thumb_func
 1606              		.type	CyDmaGetTriggerType, %function
 1607              	CyDmaGetTriggerType:
 1608              	.LFB42:
1237:Generated_Source\PSoC4/CyDMA.c **** 
1238:Generated_Source\PSoC4/CyDMA.c **** 
1239:Generated_Source\PSoC4/CyDMA.c **** /*******************************************************************************
1240:Generated_Source\PSoC4/CyDMA.c **** * Function Name: CyDmaGetTriggerType
1241:Generated_Source\PSoC4/CyDMA.c **** ********************************************************************************
1242:Generated_Source\PSoC4/CyDMA.c **** *
1243:Generated_Source\PSoC4/CyDMA.c **** * Summary:
1244:Generated_Source\PSoC4/CyDMA.c **** *  Returns the trigger deactivation settings as set by CyDmaSetTriggerType() or
1245:Generated_Source\PSoC4/CyDMA.c **** *  CyDmaSetConfiguration().
1246:Generated_Source\PSoC4/CyDMA.c **** *
1247:Generated_Source\PSoC4/CyDMA.c **** * Parameters:
ARM GAS  C:\Users\AFDHAL~1\AppData\Local\Temp\ccPfQK7a.s 			page 53


1248:Generated_Source\PSoC4/CyDMA.c **** *  channel:    Channel used by this function.
1249:Generated_Source\PSoC4/CyDMA.c **** *  descriptor: Descriptor (0 or 1) modified by this function.
1250:Generated_Source\PSoC4/CyDMA.c **** *                   
1251:Generated_Source\PSoC4/CyDMA.c **** * Return:
1252:Generated_Source\PSoC4/CyDMA.c **** *  Trigger deactivation settings. Refer to the API bit field definitions in
1253:Generated_Source\PSoC4/CyDMA.c **** *  CyDMA_P4.h or the API description in the DMA channel datasheet for more
1254:Generated_Source\PSoC4/CyDMA.c **** *  information.
1255:Generated_Source\PSoC4/CyDMA.c **** *
1256:Generated_Source\PSoC4/CyDMA.c **** *******************************************************************************/
1257:Generated_Source\PSoC4/CyDMA.c **** uint32 CyDmaGetTriggerType(int32 channel, int32 descriptor)
1258:Generated_Source\PSoC4/CyDMA.c **** {
 1609              		.loc 1 1258 0
 1610              		.cfi_startproc
 1611              		@ args = 0, pretend = 0, frame = 0
 1612              		@ frame_needed = 0, uses_anonymous_args = 0
 1613              		@ link register save eliminated.
 1614              	.LVL132:
1259:Generated_Source\PSoC4/CyDMA.c ****     CYASSERT((channel    >= 0) && (channel    < CYDMA_CH_NR));
1260:Generated_Source\PSoC4/CyDMA.c ****     CYASSERT((descriptor >= 0) && (descriptor < CYDMA_DESCR_NR));
1261:Generated_Source\PSoC4/CyDMA.c **** 
1262:Generated_Source\PSoC4/CyDMA.c ****     return (CYDMA_DESCR_BASE.descriptor[channel][descriptor].ctl & CYDMA_TRIGGER_TYPE);
 1615              		.loc 1 1262 0
 1616 0000 054B     		ldr	r3, .L142
 1617 0002 4000     		lsls	r0, r0, #1
 1618              	.LVL133:
 1619 0004 9C46     		mov	ip, r3
 1620 0006 C023     		movs	r3, #192
 1621 0008 4118     		adds	r1, r0, r1
 1622              	.LVL134:
 1623 000a 0901     		lsls	r1, r1, #4
 1624 000c 6144     		add	r1, r1, ip
 1625 000e 8868     		ldr	r0, [r1, #8]
 1626 0010 9B04     		lsls	r3, r3, #18
 1627 0012 1840     		ands	r0, r3
1263:Generated_Source\PSoC4/CyDMA.c **** }
 1628              		.loc 1 1263 0
 1629              		@ sp needed
 1630 0014 7047     		bx	lr
 1631              	.L143:
 1632 0016 C046     		.align	2
 1633              	.L142:
 1634 0018 00181040 		.word	1074796544
 1635              		.cfi_endproc
 1636              	.LFE42:
 1637              		.size	CyDmaGetTriggerType, .-CyDmaGetTriggerType
 1638              		.section	.text.CyDmaSetTransferMode,"ax",%progbits
 1639              		.align	2
 1640              		.global	CyDmaSetTransferMode
 1641              		.code	16
 1642              		.thumb_func
 1643              		.type	CyDmaSetTransferMode, %function
 1644              	CyDmaSetTransferMode:
 1645              	.LFB43:
1264:Generated_Source\PSoC4/CyDMA.c **** 
1265:Generated_Source\PSoC4/CyDMA.c **** 
1266:Generated_Source\PSoC4/CyDMA.c **** /*******************************************************************************
1267:Generated_Source\PSoC4/CyDMA.c **** * Function Name: CyDmaSetTransferMode
ARM GAS  C:\Users\AFDHAL~1\AppData\Local\Temp\ccPfQK7a.s 			page 54


1268:Generated_Source\PSoC4/CyDMA.c **** ********************************************************************************
1269:Generated_Source\PSoC4/CyDMA.c **** *
1270:Generated_Source\PSoC4/CyDMA.c **** * Summary:
1271:Generated_Source\PSoC4/CyDMA.c **** *  Sets the DMA transfer mode. This determines how the DMA reacts to each trigger
1272:Generated_Source\PSoC4/CyDMA.c **** *  event.
1273:Generated_Source\PSoC4/CyDMA.c **** *
1274:Generated_Source\PSoC4/CyDMA.c **** * Parameters:
1275:Generated_Source\PSoC4/CyDMA.c **** *  channel:      Channel used by this function.
1276:Generated_Source\PSoC4/CyDMA.c **** *  descriptor:   Descriptor (0 or 1) modified by this function.
1277:Generated_Source\PSoC4/CyDMA.c **** *  transferMode: Specifies the DMA transfer mode settings. Refer to the API bit
1278:Generated_Source\PSoC4/CyDMA.c **** *                field definitions in CyDMA_P4.h or the API description in the
1279:Generated_Source\PSoC4/CyDMA.c **** *                DMA channel datasheet for the parameter options.
1280:Generated_Source\PSoC4/CyDMA.c **** *                   
1281:Generated_Source\PSoC4/CyDMA.c **** * Return:
1282:Generated_Source\PSoC4/CyDMA.c **** *  None.
1283:Generated_Source\PSoC4/CyDMA.c **** *
1284:Generated_Source\PSoC4/CyDMA.c **** * Side effect:
1285:Generated_Source\PSoC4/CyDMA.c **** *  This function should not be called when the specified descriptor is active
1286:Generated_Source\PSoC4/CyDMA.c **** *  in the DMA transfer engine. This can be checked by calling CyDmaGetStatus(). 
1287:Generated_Source\PSoC4/CyDMA.c **** *
1288:Generated_Source\PSoC4/CyDMA.c **** *******************************************************************************/
1289:Generated_Source\PSoC4/CyDMA.c **** void CyDmaSetTransferMode(int32 channel, int32 descriptor, uint32 transferMode)
1290:Generated_Source\PSoC4/CyDMA.c **** {
 1646              		.loc 1 1290 0
 1647              		.cfi_startproc
 1648              		@ args = 0, pretend = 0, frame = 0
 1649              		@ frame_needed = 0, uses_anonymous_args = 0
 1650              		@ link register save eliminated.
 1651              	.LVL135:
1291:Generated_Source\PSoC4/CyDMA.c ****     uint32 regValue;
1292:Generated_Source\PSoC4/CyDMA.c **** 
1293:Generated_Source\PSoC4/CyDMA.c ****     CYASSERT((channel    >= 0) && (channel    < CYDMA_CH_NR));
1294:Generated_Source\PSoC4/CyDMA.c ****     CYASSERT((descriptor >= 0) && (descriptor < CYDMA_DESCR_NR));
1295:Generated_Source\PSoC4/CyDMA.c ****     CYASSERT(0u == (transferMode & (uint32)~CYDMA_TRANSFER_MODE));
1296:Generated_Source\PSoC4/CyDMA.c **** 
1297:Generated_Source\PSoC4/CyDMA.c ****     regValue = CYDMA_DESCR_BASE.descriptor[channel][descriptor].ctl & (uint32)~CYDMA_TRANSFER_MODE;
 1652              		.loc 1 1297 0
 1653 0000 054B     		ldr	r3, .L145
 1654 0002 4000     		lsls	r0, r0, #1
 1655              	.LVL136:
 1656 0004 9C46     		mov	ip, r3
 1657 0006 4118     		adds	r1, r0, r1
 1658              	.LVL137:
 1659 0008 0901     		lsls	r1, r1, #4
 1660 000a 6144     		add	r1, r1, ip
 1661 000c 8B68     		ldr	r3, [r1, #8]
 1662              	.LVL138:
1298:Generated_Source\PSoC4/CyDMA.c ****     CYDMA_DESCR_BASE.descriptor[channel][descriptor].ctl = regValue | transferMode;
1299:Generated_Source\PSoC4/CyDMA.c **** }
 1663              		.loc 1 1299 0
 1664              		@ sp needed
1298:Generated_Source\PSoC4/CyDMA.c ****     CYDMA_DESCR_BASE.descriptor[channel][descriptor].ctl = regValue | transferMode;
 1665              		.loc 1 1298 0
 1666 000e 9B00     		lsls	r3, r3, #2
 1667              	.LVL139:
 1668 0010 9B08     		lsrs	r3, r3, #2
 1669 0012 1343     		orrs	r3, r2
ARM GAS  C:\Users\AFDHAL~1\AppData\Local\Temp\ccPfQK7a.s 			page 55


 1670 0014 8B60     		str	r3, [r1, #8]
 1671              		.loc 1 1299 0
 1672 0016 7047     		bx	lr
 1673              	.L146:
 1674              		.align	2
 1675              	.L145:
 1676 0018 00181040 		.word	1074796544
 1677              		.cfi_endproc
 1678              	.LFE43:
 1679              		.size	CyDmaSetTransferMode, .-CyDmaSetTransferMode
 1680              		.section	.text.CyDmaGetTransferMode,"ax",%progbits
 1681              		.align	2
 1682              		.global	CyDmaGetTransferMode
 1683              		.code	16
 1684              		.thumb_func
 1685              		.type	CyDmaGetTransferMode, %function
 1686              	CyDmaGetTransferMode:
 1687              	.LFB44:
1300:Generated_Source\PSoC4/CyDMA.c **** 
1301:Generated_Source\PSoC4/CyDMA.c **** 
1302:Generated_Source\PSoC4/CyDMA.c **** /*******************************************************************************
1303:Generated_Source\PSoC4/CyDMA.c **** * Function Name: CyDmaGetTransferMode
1304:Generated_Source\PSoC4/CyDMA.c **** ********************************************************************************
1305:Generated_Source\PSoC4/CyDMA.c **** *
1306:Generated_Source\PSoC4/CyDMA.c **** * Summary:
1307:Generated_Source\PSoC4/CyDMA.c **** *  Returns the transfer mode for the specified descriptor as set by 
1308:Generated_Source\PSoC4/CyDMA.c **** *  CyDmaSetTransferMode() or CyDmaSetConfiguration.
1309:Generated_Source\PSoC4/CyDMA.c **** *
1310:Generated_Source\PSoC4/CyDMA.c **** * Parameters:
1311:Generated_Source\PSoC4/CyDMA.c **** *  channel:    Channel used by this function.
1312:Generated_Source\PSoC4/CyDMA.c **** *  descriptor: Descriptor (0 or 1) modified by this function.
1313:Generated_Source\PSoC4/CyDMA.c **** *                   
1314:Generated_Source\PSoC4/CyDMA.c **** * Return:
1315:Generated_Source\PSoC4/CyDMA.c **** *  DMA transfer mode settings. Refer to the API bit field definitions in
1316:Generated_Source\PSoC4/CyDMA.c **** *  CyDMA_P4.h or the API description in the DMA channel datasheet for more
1317:Generated_Source\PSoC4/CyDMA.c **** *  information.
1318:Generated_Source\PSoC4/CyDMA.c **** *
1319:Generated_Source\PSoC4/CyDMA.c **** *******************************************************************************/
1320:Generated_Source\PSoC4/CyDMA.c **** uint32 CyDmaGetTransferMode(int32 channel, int32 descriptor)
1321:Generated_Source\PSoC4/CyDMA.c **** {
 1688              		.loc 1 1321 0
 1689              		.cfi_startproc
 1690              		@ args = 0, pretend = 0, frame = 0
 1691              		@ frame_needed = 0, uses_anonymous_args = 0
 1692              		@ link register save eliminated.
 1693              	.LVL140:
1322:Generated_Source\PSoC4/CyDMA.c ****     CYASSERT((channel    >= 0) && (channel    < CYDMA_CH_NR));
1323:Generated_Source\PSoC4/CyDMA.c ****     CYASSERT((descriptor >= 0) && (descriptor < CYDMA_DESCR_NR));
1324:Generated_Source\PSoC4/CyDMA.c **** 
1325:Generated_Source\PSoC4/CyDMA.c ****     return (CYDMA_DESCR_BASE.descriptor[channel][descriptor].ctl & CYDMA_TRANSFER_MODE);
 1694              		.loc 1 1325 0
 1695 0000 044B     		ldr	r3, .L148
 1696 0002 4000     		lsls	r0, r0, #1
 1697              	.LVL141:
 1698 0004 9C46     		mov	ip, r3
 1699 0006 4118     		adds	r1, r0, r1
 1700              	.LVL142:
ARM GAS  C:\Users\AFDHAL~1\AppData\Local\Temp\ccPfQK7a.s 			page 56


 1701 0008 0901     		lsls	r1, r1, #4
 1702 000a 6144     		add	r1, r1, ip
 1703 000c 8868     		ldr	r0, [r1, #8]
1326:Generated_Source\PSoC4/CyDMA.c **** }
 1704              		.loc 1 1326 0
 1705              		@ sp needed
1325:Generated_Source\PSoC4/CyDMA.c **** }
 1706              		.loc 1 1325 0
 1707 000e 800F     		lsrs	r0, r0, #30
 1708 0010 8007     		lsls	r0, r0, #30
 1709              		.loc 1 1326 0
 1710 0012 7047     		bx	lr
 1711              	.L149:
 1712              		.align	2
 1713              	.L148:
 1714 0014 00181040 		.word	1074796544
 1715              		.cfi_endproc
 1716              	.LFE44:
 1717              		.size	CyDmaGetTransferMode, .-CyDmaGetTransferMode
 1718              		.section	.text.CyDmaSetPreemptable,"ax",%progbits
 1719              		.align	2
 1720              		.global	CyDmaSetPreemptable
 1721              		.code	16
 1722              		.thumb_func
 1723              		.type	CyDmaSetPreemptable, %function
 1724              	CyDmaSetPreemptable:
 1725              	.LFB45:
1327:Generated_Source\PSoC4/CyDMA.c **** 
1328:Generated_Source\PSoC4/CyDMA.c **** 
1329:Generated_Source\PSoC4/CyDMA.c **** /*******************************************************************************
1330:Generated_Source\PSoC4/CyDMA.c **** * Function Name: CyDmaSetPreemptable
1331:Generated_Source\PSoC4/CyDMA.c **** ********************************************************************************
1332:Generated_Source\PSoC4/CyDMA.c **** *
1333:Generated_Source\PSoC4/CyDMA.c **** * Summary:
1334:Generated_Source\PSoC4/CyDMA.c **** *  Determines if the descriptor is preemptable.
1335:Generated_Source\PSoC4/CyDMA.c **** *
1336:Generated_Source\PSoC4/CyDMA.c **** * Parameters:
1337:Generated_Source\PSoC4/CyDMA.c **** *  channel:     Channel used by this function.
1338:Generated_Source\PSoC4/CyDMA.c **** *  descriptor:  Descriptor (0 or 1) modified by this function.
1339:Generated_Source\PSoC4/CyDMA.c **** *  preemptable: Descriptor preemption settings. Refer to the API bit fields
1340:Generated_Source\PSoC4/CyDMA.c **** *               definition in CyDMA_P4.h or the API description in the DMA 
1341:Generated_Source\PSoC4/CyDMA.c **** *               channel datasheet for the parameter options.
1342:Generated_Source\PSoC4/CyDMA.c **** *                   
1343:Generated_Source\PSoC4/CyDMA.c **** * Return:
1344:Generated_Source\PSoC4/CyDMA.c **** *  None.
1345:Generated_Source\PSoC4/CyDMA.c **** *
1346:Generated_Source\PSoC4/CyDMA.c **** * Side effect:
1347:Generated_Source\PSoC4/CyDMA.c **** *  This function should not be called when the specified descriptor is active
1348:Generated_Source\PSoC4/CyDMA.c **** *  in the DMA transfer engine. This can be checked by calling CyDmaGetStatus(). 
1349:Generated_Source\PSoC4/CyDMA.c **** *
1350:Generated_Source\PSoC4/CyDMA.c **** *******************************************************************************/
1351:Generated_Source\PSoC4/CyDMA.c **** void CyDmaSetPreemptable(int32 channel, int32 descriptor, uint32 preemptable)
1352:Generated_Source\PSoC4/CyDMA.c **** {
 1726              		.loc 1 1352 0
 1727              		.cfi_startproc
 1728              		@ args = 0, pretend = 0, frame = 0
 1729              		@ frame_needed = 0, uses_anonymous_args = 0
ARM GAS  C:\Users\AFDHAL~1\AppData\Local\Temp\ccPfQK7a.s 			page 57


 1730              		@ link register save eliminated.
 1731              	.LVL143:
1353:Generated_Source\PSoC4/CyDMA.c ****     uint32 regValue;
1354:Generated_Source\PSoC4/CyDMA.c **** 
1355:Generated_Source\PSoC4/CyDMA.c ****     CYASSERT((channel    >= 0) && (channel    < CYDMA_CH_NR));
1356:Generated_Source\PSoC4/CyDMA.c ****     CYASSERT((descriptor >= 0) && (descriptor < CYDMA_DESCR_NR));
1357:Generated_Source\PSoC4/CyDMA.c ****     CYASSERT(0u == (preemptable & (uint32)~CYDMA_PREEMPTABLE));
1358:Generated_Source\PSoC4/CyDMA.c **** 
1359:Generated_Source\PSoC4/CyDMA.c ****     regValue = CYDMA_DESCR_BASE.descriptor[channel][descriptor].ctl & (uint32)~CYDMA_PREEMPTABLE;
 1732              		.loc 1 1359 0
 1733 0000 054B     		ldr	r3, .L151
 1734 0002 4000     		lsls	r0, r0, #1
 1735              	.LVL144:
 1736 0004 9C46     		mov	ip, r3
 1737 0006 4118     		adds	r1, r0, r1
 1738              	.LVL145:
 1739 0008 0901     		lsls	r1, r1, #4
 1740 000a 6144     		add	r1, r1, ip
 1741 000c 8868     		ldr	r0, [r1, #8]
 1742              	.LVL146:
1360:Generated_Source\PSoC4/CyDMA.c ****     CYDMA_DESCR_BASE.descriptor[channel][descriptor].ctl = regValue | preemptable;
 1743              		.loc 1 1360 0
 1744 000e 034B     		ldr	r3, .L151+4
1361:Generated_Source\PSoC4/CyDMA.c **** }
 1745              		.loc 1 1361 0
 1746              		@ sp needed
1360:Generated_Source\PSoC4/CyDMA.c ****     CYDMA_DESCR_BASE.descriptor[channel][descriptor].ctl = regValue | preemptable;
 1747              		.loc 1 1360 0
 1748 0010 0340     		ands	r3, r0
 1749              	.LVL147:
 1750 0012 1A43     		orrs	r2, r3
 1751              	.LVL148:
 1752 0014 8A60     		str	r2, [r1, #8]
 1753              		.loc 1 1361 0
 1754 0016 7047     		bx	lr
 1755              	.L152:
 1756              		.align	2
 1757              	.L151:
 1758 0018 00181040 		.word	1074796544
 1759 001c FFFFFFEF 		.word	-268435457
 1760              		.cfi_endproc
 1761              	.LFE45:
 1762              		.size	CyDmaSetPreemptable, .-CyDmaSetPreemptable
 1763              		.section	.text.CyDmaGetPreemptable,"ax",%progbits
 1764              		.align	2
 1765              		.global	CyDmaGetPreemptable
 1766              		.code	16
 1767              		.thumb_func
 1768              		.type	CyDmaGetPreemptable, %function
 1769              	CyDmaGetPreemptable:
 1770              	.LFB46:
1362:Generated_Source\PSoC4/CyDMA.c **** 
1363:Generated_Source\PSoC4/CyDMA.c **** 
1364:Generated_Source\PSoC4/CyDMA.c **** /*******************************************************************************
1365:Generated_Source\PSoC4/CyDMA.c **** * Function Name: CyDmaGetPreemptable
1366:Generated_Source\PSoC4/CyDMA.c **** ********************************************************************************
1367:Generated_Source\PSoC4/CyDMA.c **** *
ARM GAS  C:\Users\AFDHAL~1\AppData\Local\Temp\ccPfQK7a.s 			page 58


1368:Generated_Source\PSoC4/CyDMA.c **** * Summary:
1369:Generated_Source\PSoC4/CyDMA.c **** *  Returns whether or not the descriptor is preemptable.
1370:Generated_Source\PSoC4/CyDMA.c **** *
1371:Generated_Source\PSoC4/CyDMA.c **** * Parameters:
1372:Generated_Source\PSoC4/CyDMA.c **** *  channel:    Channel used by this function.
1373:Generated_Source\PSoC4/CyDMA.c **** *  descriptor: Descriptor (0 or 1) modified by this function.
1374:Generated_Source\PSoC4/CyDMA.c **** *                   
1375:Generated_Source\PSoC4/CyDMA.c **** * Return:
1376:Generated_Source\PSoC4/CyDMA.c **** *  Descriptor preemption setting. Refer to the API bit field definitions in
1377:Generated_Source\PSoC4/CyDMA.c **** *  CyDMA_P4.h or the API description in the DMA channel datasheet for more
1378:Generated_Source\PSoC4/CyDMA.c **** *  information.
1379:Generated_Source\PSoC4/CyDMA.c **** *
1380:Generated_Source\PSoC4/CyDMA.c **** *******************************************************************************/
1381:Generated_Source\PSoC4/CyDMA.c **** uint32 CyDmaGetPreemptable(int32 channel, int32 descriptor)
1382:Generated_Source\PSoC4/CyDMA.c **** {
 1771              		.loc 1 1382 0
 1772              		.cfi_startproc
 1773              		@ args = 0, pretend = 0, frame = 0
 1774              		@ frame_needed = 0, uses_anonymous_args = 0
 1775              		@ link register save eliminated.
 1776              	.LVL149:
1383:Generated_Source\PSoC4/CyDMA.c ****     CYASSERT((channel    >= 0) && (channel    < CYDMA_CH_NR));
1384:Generated_Source\PSoC4/CyDMA.c ****     CYASSERT((descriptor >= 0) && (descriptor < CYDMA_DESCR_NR));
1385:Generated_Source\PSoC4/CyDMA.c **** 
1386:Generated_Source\PSoC4/CyDMA.c ****     return (CYDMA_DESCR_BASE.descriptor[channel][descriptor].ctl & CYDMA_PREEMPTABLE);
 1777              		.loc 1 1386 0
 1778 0000 054B     		ldr	r3, .L154
 1779 0002 4000     		lsls	r0, r0, #1
 1780              	.LVL150:
 1781 0004 9C46     		mov	ip, r3
 1782 0006 8023     		movs	r3, #128
 1783 0008 4118     		adds	r1, r0, r1
 1784              	.LVL151:
 1785 000a 0901     		lsls	r1, r1, #4
 1786 000c 6144     		add	r1, r1, ip
 1787 000e 8868     		ldr	r0, [r1, #8]
 1788 0010 5B05     		lsls	r3, r3, #21
 1789 0012 1840     		ands	r0, r3
1387:Generated_Source\PSoC4/CyDMA.c **** }
 1790              		.loc 1 1387 0
 1791              		@ sp needed
 1792 0014 7047     		bx	lr
 1793              	.L155:
 1794 0016 C046     		.align	2
 1795              	.L154:
 1796 0018 00181040 		.word	1074796544
 1797              		.cfi_endproc
 1798              	.LFE46:
 1799              		.size	CyDmaGetPreemptable, .-CyDmaGetPreemptable
 1800              		.section	.text.CyDmaSetPostCompletionActions,"ax",%progbits
 1801              		.align	2
 1802              		.global	CyDmaSetPostCompletionActions
 1803              		.code	16
 1804              		.thumb_func
 1805              		.type	CyDmaSetPostCompletionActions, %function
 1806              	CyDmaSetPostCompletionActions:
 1807              	.LFB47:
ARM GAS  C:\Users\AFDHAL~1\AppData\Local\Temp\ccPfQK7a.s 			page 59


1388:Generated_Source\PSoC4/CyDMA.c **** 
1389:Generated_Source\PSoC4/CyDMA.c **** 
1390:Generated_Source\PSoC4/CyDMA.c **** /*******************************************************************************
1391:Generated_Source\PSoC4/CyDMA.c **** * Function Name: CyDmaSetPostCompletionActions
1392:Generated_Source\PSoC4/CyDMA.c **** ********************************************************************************
1393:Generated_Source\PSoC4/CyDMA.c **** *
1394:Generated_Source\PSoC4/CyDMA.c **** * Summary:
1395:Generated_Source\PSoC4/CyDMA.c **** *  Determines what occurs after a descriptor completes.
1396:Generated_Source\PSoC4/CyDMA.c **** *
1397:Generated_Source\PSoC4/CyDMA.c **** * Parameters:
1398:Generated_Source\PSoC4/CyDMA.c **** *  channel:    Channel used by this function.
1399:Generated_Source\PSoC4/CyDMA.c **** *  descriptor: Descriptor (0 or 1) modified by this function.
1400:Generated_Source\PSoC4/CyDMA.c **** *  actions:    Specifies descriptor post completion actions. Refer to the API
1401:Generated_Source\PSoC4/CyDMA.c **** *              bit field definitions in CyDMA_P4.h or the API description
1402:Generated_Source\PSoC4/CyDMA.c **** *              in the DMA channel datasheet for the parameter options.
1403:Generated_Source\PSoC4/CyDMA.c **** *                   
1404:Generated_Source\PSoC4/CyDMA.c **** * Return:
1405:Generated_Source\PSoC4/CyDMA.c **** *  None.  
1406:Generated_Source\PSoC4/CyDMA.c **** *
1407:Generated_Source\PSoC4/CyDMA.c **** * Side effect:
1408:Generated_Source\PSoC4/CyDMA.c **** *  This function should not be called when the specified descriptor is active
1409:Generated_Source\PSoC4/CyDMA.c **** *  in the DMA transfer engine. This can be checked by calling CyDmaGetStatus(). 
1410:Generated_Source\PSoC4/CyDMA.c **** *
1411:Generated_Source\PSoC4/CyDMA.c **** *******************************************************************************/
1412:Generated_Source\PSoC4/CyDMA.c **** void CyDmaSetPostCompletionActions(int32 channel, int32 descriptor, uint32 actions)
1413:Generated_Source\PSoC4/CyDMA.c **** {
 1808              		.loc 1 1413 0
 1809              		.cfi_startproc
 1810              		@ args = 0, pretend = 0, frame = 0
 1811              		@ frame_needed = 0, uses_anonymous_args = 0
 1812              		@ link register save eliminated.
 1813              	.LVL152:
1414:Generated_Source\PSoC4/CyDMA.c ****     uint32 regValue;
1415:Generated_Source\PSoC4/CyDMA.c **** 
1416:Generated_Source\PSoC4/CyDMA.c ****     CYASSERT((channel    >= 0) && (channel    < CYDMA_CH_NR));
1417:Generated_Source\PSoC4/CyDMA.c ****     CYASSERT((descriptor >= 0) && (descriptor < CYDMA_DESCR_NR));
1418:Generated_Source\PSoC4/CyDMA.c ****     CYASSERT(0u == (actions & (uint32)~CYDMA_POST_COMPLETE_ACTIONS));
1419:Generated_Source\PSoC4/CyDMA.c **** 
1420:Generated_Source\PSoC4/CyDMA.c ****     regValue = CYDMA_DESCR_BASE.descriptor[channel][descriptor].ctl & (uint32)~CYDMA_POST_COMPLETE_
 1814              		.loc 1 1420 0
 1815 0000 054B     		ldr	r3, .L157
 1816 0002 4000     		lsls	r0, r0, #1
 1817              	.LVL153:
 1818 0004 9C46     		mov	ip, r3
 1819 0006 4118     		adds	r1, r0, r1
 1820              	.LVL154:
 1821 0008 0901     		lsls	r1, r1, #4
 1822 000a 6144     		add	r1, r1, ip
 1823 000c 8868     		ldr	r0, [r1, #8]
 1824              	.LVL155:
1421:Generated_Source\PSoC4/CyDMA.c ****     CYDMA_DESCR_BASE.descriptor[channel][descriptor].ctl = regValue | actions;
 1825              		.loc 1 1421 0
 1826 000e 034B     		ldr	r3, .L157+4
1422:Generated_Source\PSoC4/CyDMA.c **** }
 1827              		.loc 1 1422 0
 1828              		@ sp needed
1421:Generated_Source\PSoC4/CyDMA.c ****     CYDMA_DESCR_BASE.descriptor[channel][descriptor].ctl = regValue | actions;
ARM GAS  C:\Users\AFDHAL~1\AppData\Local\Temp\ccPfQK7a.s 			page 60


 1829              		.loc 1 1421 0
 1830 0010 0340     		ands	r3, r0
 1831              	.LVL156:
 1832 0012 1A43     		orrs	r2, r3
 1833              	.LVL157:
 1834 0014 8A60     		str	r2, [r1, #8]
 1835              		.loc 1 1422 0
 1836 0016 7047     		bx	lr
 1837              	.L158:
 1838              		.align	2
 1839              	.L157:
 1840 0018 00181040 		.word	1074796544
 1841 001c FFFFFFD3 		.word	-738197505
 1842              		.cfi_endproc
 1843              	.LFE47:
 1844              		.size	CyDmaSetPostCompletionActions, .-CyDmaSetPostCompletionActions
 1845              		.section	.text.CyDmaGetPostCompletionActions,"ax",%progbits
 1846              		.align	2
 1847              		.global	CyDmaGetPostCompletionActions
 1848              		.code	16
 1849              		.thumb_func
 1850              		.type	CyDmaGetPostCompletionActions, %function
 1851              	CyDmaGetPostCompletionActions:
 1852              	.LFB48:
1423:Generated_Source\PSoC4/CyDMA.c **** 
1424:Generated_Source\PSoC4/CyDMA.c **** 
1425:Generated_Source\PSoC4/CyDMA.c **** /*******************************************************************************
1426:Generated_Source\PSoC4/CyDMA.c **** * Function Name: CyDmaGetPostCompletionActions
1427:Generated_Source\PSoC4/CyDMA.c **** ********************************************************************************
1428:Generated_Source\PSoC4/CyDMA.c **** *
1429:Generated_Source\PSoC4/CyDMA.c **** * Summary:
1430:Generated_Source\PSoC4/CyDMA.c **** *  Returns the post descriptor action settings as set by 
1431:Generated_Source\PSoC4/CyDMA.c **** *  CyDmaSetPostCompletionActions() or CyDmaSetConfiguration().
1432:Generated_Source\PSoC4/CyDMA.c **** *
1433:Generated_Source\PSoC4/CyDMA.c **** * Parameters:
1434:Generated_Source\PSoC4/CyDMA.c **** *  channel:    Channel used by this function.
1435:Generated_Source\PSoC4/CyDMA.c **** *  descriptor: Descriptor (0 or 1) modified by this function.
1436:Generated_Source\PSoC4/CyDMA.c **** *                   
1437:Generated_Source\PSoC4/CyDMA.c **** * Return:
1438:Generated_Source\PSoC4/CyDMA.c **** *  Post descriptor actions. Refer to the API bit field definitions in
1439:Generated_Source\PSoC4/CyDMA.c **** *  CyDMA_P4.h or the API description in the DMA channel datasheet for more
1440:Generated_Source\PSoC4/CyDMA.c **** *  information.
1441:Generated_Source\PSoC4/CyDMA.c **** *
1442:Generated_Source\PSoC4/CyDMA.c **** *******************************************************************************/
1443:Generated_Source\PSoC4/CyDMA.c **** uint32 CyDmaGetPostCompletionActions(int32 channel, int32 descriptor)
1444:Generated_Source\PSoC4/CyDMA.c **** {
 1853              		.loc 1 1444 0
 1854              		.cfi_startproc
 1855              		@ args = 0, pretend = 0, frame = 0
 1856              		@ frame_needed = 0, uses_anonymous_args = 0
 1857              		@ link register save eliminated.
 1858              	.LVL158:
1445:Generated_Source\PSoC4/CyDMA.c ****     CYASSERT((channel    >= 0) && (channel    < CYDMA_CH_NR));
1446:Generated_Source\PSoC4/CyDMA.c ****     CYASSERT((descriptor >= 0) && (descriptor < CYDMA_DESCR_NR));
1447:Generated_Source\PSoC4/CyDMA.c **** 
1448:Generated_Source\PSoC4/CyDMA.c ****     return (CYDMA_DESCR_BASE.descriptor[channel][descriptor].ctl & CYDMA_POST_COMPLETE_ACTIONS);
 1859              		.loc 1 1448 0
ARM GAS  C:\Users\AFDHAL~1\AppData\Local\Temp\ccPfQK7a.s 			page 61


 1860 0000 054B     		ldr	r3, .L160
 1861 0002 4000     		lsls	r0, r0, #1
 1862              	.LVL159:
 1863 0004 9C46     		mov	ip, r3
 1864 0006 B023     		movs	r3, #176
 1865 0008 4118     		adds	r1, r0, r1
 1866              	.LVL160:
 1867 000a 0901     		lsls	r1, r1, #4
 1868 000c 6144     		add	r1, r1, ip
 1869 000e 8868     		ldr	r0, [r1, #8]
 1870 0010 9B05     		lsls	r3, r3, #22
 1871 0012 1840     		ands	r0, r3
1449:Generated_Source\PSoC4/CyDMA.c **** }
 1872              		.loc 1 1449 0
 1873              		@ sp needed
 1874 0014 7047     		bx	lr
 1875              	.L161:
 1876 0016 C046     		.align	2
 1877              	.L160:
 1878 0018 00181040 		.word	1074796544
 1879              		.cfi_endproc
 1880              	.LFE48:
 1881              		.size	CyDmaGetPostCompletionActions, .-CyDmaGetPostCompletionActions
 1882              		.data
 1883              		.align	2
 1884              		.set	.LANCHOR0,. + 0
 1885              		.type	CyDmaInterruptCallback, %object
 1886              		.size	CyDmaInterruptCallback, 32
 1887              	CyDmaInterruptCallback:
 1888 0000 00000000 		.word	CyDmaDefaultInterruptCallback
 1889 0004 00000000 		.word	CyDmaDefaultInterruptCallback
 1890 0008 00000000 		.word	CyDmaDefaultInterruptCallback
 1891 000c 00000000 		.word	CyDmaDefaultInterruptCallback
 1892 0010 00000000 		.word	CyDmaDefaultInterruptCallback
 1893 0014 00000000 		.word	CyDmaDefaultInterruptCallback
 1894 0018 00000000 		.word	CyDmaDefaultInterruptCallback
 1895 001c 00000000 		.word	CyDmaDefaultInterruptCallback
 1896              		.bss
 1897              		.align	2
 1898              		.set	.LANCHOR1,. + 0
 1899              		.type	initIntrVector.5006, %object
 1900              		.size	initIntrVector.5006, 1
 1901              	initIntrVector.5006:
 1902 0000 00       		.space	1
 1903 0001 000000   		.space	3
 1904              		.type	CyDmaChannelUsedMask, %object
 1905              		.size	CyDmaChannelUsedMask, 4
 1906              	CyDmaChannelUsedMask:
 1907 0004 00000000 		.space	4
 1908              		.text
 1909              	.Letext0:
 1910              		.file 2 "Generated_Source\\PSoC4\\cytypes.h"
 1911              		.file 3 "Generated_Source\\PSoC4\\CyDMA.h"
 1912              		.file 4 "Generated_Source\\PSoC4\\CyLib.h"