ARM GAS  C:\Users\AFDHAL~1\AppData\Local\Temp\ccWWj1fh.s 			page 1


   1              		.syntax unified
   2              		.cpu cortex-m0
   3              		.fpu softvfp
   4              		.eabi_attribute 20, 1
   5              		.eabi_attribute 21, 1
   6              		.eabi_attribute 23, 3
   7              		.eabi_attribute 24, 1
   8              		.eabi_attribute 25, 1
   9              		.eabi_attribute 26, 1
  10              		.eabi_attribute 30, 2
  11              		.eabi_attribute 34, 0
  12              		.eabi_attribute 18, 4
  13              		.thumb
  14              		.syntax unified
  15              		.file	"cyfitter_cfg.c"
  16              		.text
  17              	.Ltext0:
  18              		.cfi_sections	.debug_frame
  19              		.section	.text.SetAnalogRoutingPumps,"ax",%progbits
  20              		.align	2
  21              		.global	SetAnalogRoutingPumps
  22              		.code	16
  23              		.thumb_func
  24              		.type	SetAnalogRoutingPumps, %function
  25              	SetAnalogRoutingPumps:
  26              	.LFB7:
  27              		.file 1 "Generated_Source\\PSoC4\\cyfitter_cfg.c"
   1:Generated_Source\PSoC4/cyfitter_cfg.c **** 
   2:Generated_Source\PSoC4/cyfitter_cfg.c **** /*******************************************************************************
   3:Generated_Source\PSoC4/cyfitter_cfg.c **** * File Name: cyfitter_cfg.c
   4:Generated_Source\PSoC4/cyfitter_cfg.c **** * 
   5:Generated_Source\PSoC4/cyfitter_cfg.c **** * PSoC Creator  4.1 Update 1
   6:Generated_Source\PSoC4/cyfitter_cfg.c **** *
   7:Generated_Source\PSoC4/cyfitter_cfg.c **** * Description:
   8:Generated_Source\PSoC4/cyfitter_cfg.c **** * This file contains device initialization code.
   9:Generated_Source\PSoC4/cyfitter_cfg.c **** * Except for the user defined sections in CyClockStartupError(), this file should not be modified.
  10:Generated_Source\PSoC4/cyfitter_cfg.c **** * This file is automatically generated by PSoC Creator.
  11:Generated_Source\PSoC4/cyfitter_cfg.c **** *
  12:Generated_Source\PSoC4/cyfitter_cfg.c **** ********************************************************************************
  13:Generated_Source\PSoC4/cyfitter_cfg.c **** * Copyright (c) 2007-2017 Cypress Semiconductor.  All rights reserved.
  14:Generated_Source\PSoC4/cyfitter_cfg.c **** * You may use this file only in accordance with the license, terms, conditions, 
  15:Generated_Source\PSoC4/cyfitter_cfg.c **** * disclaimers, and limitations in the end user license agreement accompanying 
  16:Generated_Source\PSoC4/cyfitter_cfg.c **** * the software package with which this file was provided.
  17:Generated_Source\PSoC4/cyfitter_cfg.c **** ********************************************************************************/
  18:Generated_Source\PSoC4/cyfitter_cfg.c **** 
  19:Generated_Source\PSoC4/cyfitter_cfg.c **** #include <string.h>
  20:Generated_Source\PSoC4/cyfitter_cfg.c **** #include "cytypes.h"
  21:Generated_Source\PSoC4/cyfitter_cfg.c **** #include "cydevice_trm.h"
  22:Generated_Source\PSoC4/cyfitter_cfg.c **** #include "cyfitter.h"
  23:Generated_Source\PSoC4/cyfitter_cfg.c **** #include "CyLib.h"
  24:Generated_Source\PSoC4/cyfitter_cfg.c **** #include "CyLFClk.h"
  25:Generated_Source\PSoC4/cyfitter_cfg.c **** #include "cyfitter_cfg.h"
  26:Generated_Source\PSoC4/cyfitter_cfg.c **** #include "cyapicallbacks.h"
  27:Generated_Source\PSoC4/cyfitter_cfg.c **** 
  28:Generated_Source\PSoC4/cyfitter_cfg.c **** 
  29:Generated_Source\PSoC4/cyfitter_cfg.c **** #if defined(__GNUC__) || defined(__ARMCC_VERSION)
  30:Generated_Source\PSoC4/cyfitter_cfg.c ****     #define CYPACKED 
ARM GAS  C:\Users\AFDHAL~1\AppData\Local\Temp\ccWWj1fh.s 			page 2


  31:Generated_Source\PSoC4/cyfitter_cfg.c ****     #define CYPACKED_ATTR __attribute__ ((packed))
  32:Generated_Source\PSoC4/cyfitter_cfg.c ****     #define CYALIGNED __attribute__ ((aligned))
  33:Generated_Source\PSoC4/cyfitter_cfg.c ****     #define CY_CFG_UNUSED __attribute__ ((unused))
  34:Generated_Source\PSoC4/cyfitter_cfg.c ****     #ifndef CY_CFG_SECTION
  35:Generated_Source\PSoC4/cyfitter_cfg.c ****         #define CY_CFG_SECTION __attribute__ ((section(".psocinit")))
  36:Generated_Source\PSoC4/cyfitter_cfg.c ****     #endif
  37:Generated_Source\PSoC4/cyfitter_cfg.c ****     
  38:Generated_Source\PSoC4/cyfitter_cfg.c ****     #if defined(__ARMCC_VERSION)
  39:Generated_Source\PSoC4/cyfitter_cfg.c ****         #define CY_CFG_MEMORY_BARRIER() __memory_changed()
  40:Generated_Source\PSoC4/cyfitter_cfg.c ****     #else
  41:Generated_Source\PSoC4/cyfitter_cfg.c ****         #define CY_CFG_MEMORY_BARRIER() __sync_synchronize()
  42:Generated_Source\PSoC4/cyfitter_cfg.c ****     #endif
  43:Generated_Source\PSoC4/cyfitter_cfg.c ****     
  44:Generated_Source\PSoC4/cyfitter_cfg.c **** #elif defined(__ICCARM__)
  45:Generated_Source\PSoC4/cyfitter_cfg.c ****     #include <intrinsics.h>
  46:Generated_Source\PSoC4/cyfitter_cfg.c **** 
  47:Generated_Source\PSoC4/cyfitter_cfg.c ****     #define CYPACKED __packed
  48:Generated_Source\PSoC4/cyfitter_cfg.c ****     #define CYPACKED_ATTR 
  49:Generated_Source\PSoC4/cyfitter_cfg.c ****     #define CYALIGNED _Pragma("data_alignment=4")
  50:Generated_Source\PSoC4/cyfitter_cfg.c ****     #define CY_CFG_UNUSED _Pragma("diag_suppress=Pe177")
  51:Generated_Source\PSoC4/cyfitter_cfg.c ****     #define CY_CFG_SECTION _Pragma("location=\".psocinit\"")
  52:Generated_Source\PSoC4/cyfitter_cfg.c ****     
  53:Generated_Source\PSoC4/cyfitter_cfg.c ****     #define CY_CFG_MEMORY_BARRIER() __DMB()
  54:Generated_Source\PSoC4/cyfitter_cfg.c ****     
  55:Generated_Source\PSoC4/cyfitter_cfg.c **** #else
  56:Generated_Source\PSoC4/cyfitter_cfg.c ****     #error Unsupported toolchain
  57:Generated_Source\PSoC4/cyfitter_cfg.c **** #endif
  58:Generated_Source\PSoC4/cyfitter_cfg.c **** 
  59:Generated_Source\PSoC4/cyfitter_cfg.c **** #ifndef CYCODE
  60:Generated_Source\PSoC4/cyfitter_cfg.c ****     #define CYCODE
  61:Generated_Source\PSoC4/cyfitter_cfg.c **** #endif
  62:Generated_Source\PSoC4/cyfitter_cfg.c **** #ifndef CYDATA
  63:Generated_Source\PSoC4/cyfitter_cfg.c ****     #define CYDATA
  64:Generated_Source\PSoC4/cyfitter_cfg.c **** #endif
  65:Generated_Source\PSoC4/cyfitter_cfg.c **** #ifndef CYFAR
  66:Generated_Source\PSoC4/cyfitter_cfg.c ****     #define CYFAR
  67:Generated_Source\PSoC4/cyfitter_cfg.c **** #endif
  68:Generated_Source\PSoC4/cyfitter_cfg.c **** #ifndef CYXDATA
  69:Generated_Source\PSoC4/cyfitter_cfg.c ****     #define CYXDATA
  70:Generated_Source\PSoC4/cyfitter_cfg.c **** #endif
  71:Generated_Source\PSoC4/cyfitter_cfg.c **** 
  72:Generated_Source\PSoC4/cyfitter_cfg.c **** 
  73:Generated_Source\PSoC4/cyfitter_cfg.c **** CY_CFG_UNUSED
  74:Generated_Source\PSoC4/cyfitter_cfg.c **** static void CYMEMZERO(void *s, size_t n);
  75:Generated_Source\PSoC4/cyfitter_cfg.c **** CY_CFG_UNUSED
  76:Generated_Source\PSoC4/cyfitter_cfg.c **** static void CYMEMZERO(void *s, size_t n)
  77:Generated_Source\PSoC4/cyfitter_cfg.c **** {
  78:Generated_Source\PSoC4/cyfitter_cfg.c **** 	(void)memset(s, 0, n);
  79:Generated_Source\PSoC4/cyfitter_cfg.c **** }
  80:Generated_Source\PSoC4/cyfitter_cfg.c **** CY_CFG_UNUSED
  81:Generated_Source\PSoC4/cyfitter_cfg.c **** static void CYCONFIGCPY(void *dest, const void *src, size_t n);
  82:Generated_Source\PSoC4/cyfitter_cfg.c **** CY_CFG_UNUSED
  83:Generated_Source\PSoC4/cyfitter_cfg.c **** static void CYCONFIGCPY(void *dest, const void *src, size_t n)
  84:Generated_Source\PSoC4/cyfitter_cfg.c **** {
  85:Generated_Source\PSoC4/cyfitter_cfg.c **** 	(void)memcpy(dest, src, n);
  86:Generated_Source\PSoC4/cyfitter_cfg.c **** }
  87:Generated_Source\PSoC4/cyfitter_cfg.c **** CY_CFG_UNUSED
ARM GAS  C:\Users\AFDHAL~1\AppData\Local\Temp\ccWWj1fh.s 			page 3


  88:Generated_Source\PSoC4/cyfitter_cfg.c **** static void CYCONFIGCPYCODE(void *dest, const void *src, size_t n);
  89:Generated_Source\PSoC4/cyfitter_cfg.c **** CY_CFG_UNUSED
  90:Generated_Source\PSoC4/cyfitter_cfg.c **** static void CYCONFIGCPYCODE(void *dest, const void *src, size_t n)
  91:Generated_Source\PSoC4/cyfitter_cfg.c **** {
  92:Generated_Source\PSoC4/cyfitter_cfg.c **** 	(void)memcpy(dest, src, n);
  93:Generated_Source\PSoC4/cyfitter_cfg.c **** }
  94:Generated_Source\PSoC4/cyfitter_cfg.c **** 
  95:Generated_Source\PSoC4/cyfitter_cfg.c **** 
  96:Generated_Source\PSoC4/cyfitter_cfg.c **** 
  97:Generated_Source\PSoC4/cyfitter_cfg.c **** 
  98:Generated_Source\PSoC4/cyfitter_cfg.c **** /* Clock startup error codes                                                   */
  99:Generated_Source\PSoC4/cyfitter_cfg.c **** #define CYCLOCKSTART_NO_ERROR    0u
 100:Generated_Source\PSoC4/cyfitter_cfg.c **** #define CYCLOCKSTART_XTAL_ERROR  1u
 101:Generated_Source\PSoC4/cyfitter_cfg.c **** #define CYCLOCKSTART_32KHZ_ERROR 2u
 102:Generated_Source\PSoC4/cyfitter_cfg.c **** #define CYCLOCKSTART_PLL_ERROR   3u
 103:Generated_Source\PSoC4/cyfitter_cfg.c **** #define CYCLOCKSTART_FLL_ERROR   4u
 104:Generated_Source\PSoC4/cyfitter_cfg.c **** 
 105:Generated_Source\PSoC4/cyfitter_cfg.c **** 
 106:Generated_Source\PSoC4/cyfitter_cfg.c **** #ifdef CY_NEED_CYCLOCKSTARTUPERROR
 107:Generated_Source\PSoC4/cyfitter_cfg.c **** /*******************************************************************************
 108:Generated_Source\PSoC4/cyfitter_cfg.c **** * Function Name: CyClockStartupError
 109:Generated_Source\PSoC4/cyfitter_cfg.c **** ********************************************************************************
 110:Generated_Source\PSoC4/cyfitter_cfg.c **** * Summary:
 111:Generated_Source\PSoC4/cyfitter_cfg.c **** *  If an error is encountered during clock configuration (crystal startup error,
 112:Generated_Source\PSoC4/cyfitter_cfg.c **** *  PLL lock error, etc.), the system will end up here.  Unless reimplemented by
 113:Generated_Source\PSoC4/cyfitter_cfg.c **** *  the customer, this function will stop in an infinite loop.
 114:Generated_Source\PSoC4/cyfitter_cfg.c **** *
 115:Generated_Source\PSoC4/cyfitter_cfg.c **** * Parameters:
 116:Generated_Source\PSoC4/cyfitter_cfg.c **** *   void
 117:Generated_Source\PSoC4/cyfitter_cfg.c **** *
 118:Generated_Source\PSoC4/cyfitter_cfg.c **** * Return:
 119:Generated_Source\PSoC4/cyfitter_cfg.c **** *   void
 120:Generated_Source\PSoC4/cyfitter_cfg.c **** *
 121:Generated_Source\PSoC4/cyfitter_cfg.c **** *******************************************************************************/
 122:Generated_Source\PSoC4/cyfitter_cfg.c **** CY_CFG_UNUSED
 123:Generated_Source\PSoC4/cyfitter_cfg.c **** static void CyClockStartupError(uint8 errorCode);
 124:Generated_Source\PSoC4/cyfitter_cfg.c **** CY_CFG_UNUSED
 125:Generated_Source\PSoC4/cyfitter_cfg.c **** static void CyClockStartupError(uint8 errorCode)
 126:Generated_Source\PSoC4/cyfitter_cfg.c **** {
 127:Generated_Source\PSoC4/cyfitter_cfg.c ****     /* To remove the compiler warning if errorCode not used. */
 128:Generated_Source\PSoC4/cyfitter_cfg.c **** #if defined(CY_PSOC3) && (CY_PSOC3)
 129:Generated_Source\PSoC4/cyfitter_cfg.c ****     errorCode = errorCode;
 130:Generated_Source\PSoC4/cyfitter_cfg.c **** #else
 131:Generated_Source\PSoC4/cyfitter_cfg.c ****     (void)errorCode;
 132:Generated_Source\PSoC4/cyfitter_cfg.c **** #endif /* CY_PSOC3 */
 133:Generated_Source\PSoC4/cyfitter_cfg.c **** 
 134:Generated_Source\PSoC4/cyfitter_cfg.c ****     /* If we have a clock startup error (bad MHz crystal, PLL lock, etc.),  */
 135:Generated_Source\PSoC4/cyfitter_cfg.c ****     /* we will end up here to allow the customer to implement something to  */
 136:Generated_Source\PSoC4/cyfitter_cfg.c ****     /* deal with the clock condition.                                       */
 137:Generated_Source\PSoC4/cyfitter_cfg.c **** 
 138:Generated_Source\PSoC4/cyfitter_cfg.c **** #ifdef CY_CFG_CLOCK_STARTUP_ERROR_CALLBACK
 139:Generated_Source\PSoC4/cyfitter_cfg.c ****     CY_CFG_Clock_Startup_ErrorCallback();
 140:Generated_Source\PSoC4/cyfitter_cfg.c **** #else
 141:Generated_Source\PSoC4/cyfitter_cfg.c ****     /*  If not using CY_CFG_CLOCK_STARTUP_ERROR_CALLBACK, place your clock startup code here. */
 142:Generated_Source\PSoC4/cyfitter_cfg.c ****     /* `#START CyClockStartupError` */
 143:Generated_Source\PSoC4/cyfitter_cfg.c **** 
 144:Generated_Source\PSoC4/cyfitter_cfg.c **** 
ARM GAS  C:\Users\AFDHAL~1\AppData\Local\Temp\ccWWj1fh.s 			page 4


 145:Generated_Source\PSoC4/cyfitter_cfg.c **** 
 146:Generated_Source\PSoC4/cyfitter_cfg.c ****     /* `#END` */
 147:Generated_Source\PSoC4/cyfitter_cfg.c **** 
 148:Generated_Source\PSoC4/cyfitter_cfg.c ****     while(1) {}
 149:Generated_Source\PSoC4/cyfitter_cfg.c **** #endif /* CY_CFG_CLOCK_STARTUP_ERROR_CALLBACK */
 150:Generated_Source\PSoC4/cyfitter_cfg.c **** }
 151:Generated_Source\PSoC4/cyfitter_cfg.c **** #endif
 152:Generated_Source\PSoC4/cyfitter_cfg.c **** 
 153:Generated_Source\PSoC4/cyfitter_cfg.c **** #define CY_CFG_BASE_ADDR_COUNT 5u
 154:Generated_Source\PSoC4/cyfitter_cfg.c **** CYPACKED typedef struct
 155:Generated_Source\PSoC4/cyfitter_cfg.c **** {
 156:Generated_Source\PSoC4/cyfitter_cfg.c **** 	uint8 offset;
 157:Generated_Source\PSoC4/cyfitter_cfg.c **** 	uint8 value;
 158:Generated_Source\PSoC4/cyfitter_cfg.c **** } CYPACKED_ATTR cy_cfg_addrvalue_t;
 159:Generated_Source\PSoC4/cyfitter_cfg.c **** 
 160:Generated_Source\PSoC4/cyfitter_cfg.c **** 
 161:Generated_Source\PSoC4/cyfitter_cfg.c **** 
 162:Generated_Source\PSoC4/cyfitter_cfg.c **** /*******************************************************************************
 163:Generated_Source\PSoC4/cyfitter_cfg.c **** * Function Name: cfg_write_bytes32
 164:Generated_Source\PSoC4/cyfitter_cfg.c **** ********************************************************************************
 165:Generated_Source\PSoC4/cyfitter_cfg.c **** * Summary:
 166:Generated_Source\PSoC4/cyfitter_cfg.c **** *  This function is used for setting up the chip configuration areas that
 167:Generated_Source\PSoC4/cyfitter_cfg.c **** *  contain relatively sparse data.
 168:Generated_Source\PSoC4/cyfitter_cfg.c **** *
 169:Generated_Source\PSoC4/cyfitter_cfg.c **** * Parameters:
 170:Generated_Source\PSoC4/cyfitter_cfg.c **** *   void
 171:Generated_Source\PSoC4/cyfitter_cfg.c **** *
 172:Generated_Source\PSoC4/cyfitter_cfg.c **** * Return:
 173:Generated_Source\PSoC4/cyfitter_cfg.c **** *   void
 174:Generated_Source\PSoC4/cyfitter_cfg.c **** *
 175:Generated_Source\PSoC4/cyfitter_cfg.c **** *******************************************************************************/
 176:Generated_Source\PSoC4/cyfitter_cfg.c **** static void cfg_write_bytes32(const uint32 addr_table[], const cy_cfg_addrvalue_t data_table[]);
 177:Generated_Source\PSoC4/cyfitter_cfg.c **** static void cfg_write_bytes32(const uint32 addr_table[], const cy_cfg_addrvalue_t data_table[])
 178:Generated_Source\PSoC4/cyfitter_cfg.c **** {
 179:Generated_Source\PSoC4/cyfitter_cfg.c **** 	/* For 32-bit little-endian architectures */
 180:Generated_Source\PSoC4/cyfitter_cfg.c **** 	uint32 i, j = 0u;
 181:Generated_Source\PSoC4/cyfitter_cfg.c **** 	for (i = 0u; i < CY_CFG_BASE_ADDR_COUNT; i++)
 182:Generated_Source\PSoC4/cyfitter_cfg.c **** 	{
 183:Generated_Source\PSoC4/cyfitter_cfg.c **** 		uint32 baseAddr = addr_table[i];
 184:Generated_Source\PSoC4/cyfitter_cfg.c **** 		uint8 count = (uint8)baseAddr;
 185:Generated_Source\PSoC4/cyfitter_cfg.c **** 		baseAddr &= 0xFFFFFF00u;
 186:Generated_Source\PSoC4/cyfitter_cfg.c **** 		while (count != 0u)
 187:Generated_Source\PSoC4/cyfitter_cfg.c **** 		{
 188:Generated_Source\PSoC4/cyfitter_cfg.c **** 			CY_SET_REG8((void *)(baseAddr + data_table[j].offset), data_table[j].value);
 189:Generated_Source\PSoC4/cyfitter_cfg.c **** 			j++;
 190:Generated_Source\PSoC4/cyfitter_cfg.c **** 			count--;
 191:Generated_Source\PSoC4/cyfitter_cfg.c **** 		}
 192:Generated_Source\PSoC4/cyfitter_cfg.c **** 	}
 193:Generated_Source\PSoC4/cyfitter_cfg.c **** }
 194:Generated_Source\PSoC4/cyfitter_cfg.c **** 
 195:Generated_Source\PSoC4/cyfitter_cfg.c **** 
 196:Generated_Source\PSoC4/cyfitter_cfg.c **** /*******************************************************************************
 197:Generated_Source\PSoC4/cyfitter_cfg.c **** * Function Name: ClockSetup
 198:Generated_Source\PSoC4/cyfitter_cfg.c **** ********************************************************************************
 199:Generated_Source\PSoC4/cyfitter_cfg.c **** *
 200:Generated_Source\PSoC4/cyfitter_cfg.c **** * Summary:
 201:Generated_Source\PSoC4/cyfitter_cfg.c **** *   Performs the initialization of all of the clocks in the device based on the
ARM GAS  C:\Users\AFDHAL~1\AppData\Local\Temp\ccWWj1fh.s 			page 5


 202:Generated_Source\PSoC4/cyfitter_cfg.c **** *   settings in the Clock tab of the DWR.  This includes enabling the requested
 203:Generated_Source\PSoC4/cyfitter_cfg.c **** *   clocks and setting the necessary dividers to produce the desired frequency. 
 204:Generated_Source\PSoC4/cyfitter_cfg.c **** *
 205:Generated_Source\PSoC4/cyfitter_cfg.c **** * Parameters:
 206:Generated_Source\PSoC4/cyfitter_cfg.c **** *   void
 207:Generated_Source\PSoC4/cyfitter_cfg.c **** *
 208:Generated_Source\PSoC4/cyfitter_cfg.c **** * Return:
 209:Generated_Source\PSoC4/cyfitter_cfg.c **** *   void
 210:Generated_Source\PSoC4/cyfitter_cfg.c **** *
 211:Generated_Source\PSoC4/cyfitter_cfg.c **** *******************************************************************************/
 212:Generated_Source\PSoC4/cyfitter_cfg.c **** static void ClockSetup(void);
 213:Generated_Source\PSoC4/cyfitter_cfg.c **** CY_CFG_SECTION
 214:Generated_Source\PSoC4/cyfitter_cfg.c **** static void ClockSetup(void)
 215:Generated_Source\PSoC4/cyfitter_cfg.c **** {
 216:Generated_Source\PSoC4/cyfitter_cfg.c **** 
 217:Generated_Source\PSoC4/cyfitter_cfg.c **** 	/* Set Flash Cycles based on max possible frequency in case a glitch occurs during ClockSetup(). *
 218:Generated_Source\PSoC4/cyfitter_cfg.c **** 	CY_SET_REG32((void CYXDATA *)(CYREG_CPUSS_FLASH_CTL), (0x0012u));
 219:Generated_Source\PSoC4/cyfitter_cfg.c **** 	/* Setup and trim IMO based on desired frequency. */
 220:Generated_Source\PSoC4/cyfitter_cfg.c **** 	CySysClkWriteImoFreq(48u);
 221:Generated_Source\PSoC4/cyfitter_cfg.c **** 	/* CYDEV_CLK_ILO_CONFIG Starting address: CYDEV_CLK_ILO_CONFIG */
 222:Generated_Source\PSoC4/cyfitter_cfg.c **** 	CY_SET_REG32((void *)(CYREG_CLK_ILO_CONFIG), 0x80000006u);
 223:Generated_Source\PSoC4/cyfitter_cfg.c **** 
 224:Generated_Source\PSoC4/cyfitter_cfg.c **** 
 225:Generated_Source\PSoC4/cyfitter_cfg.c **** 	/* Setup phase aligned clocks */
 226:Generated_Source\PSoC4/cyfitter_cfg.c **** 	CY_SET_REG32((void *)CYREG_PERI_DIV_16_CTL0, 0x00000000u);
 227:Generated_Source\PSoC4/cyfitter_cfg.c **** 	CY_SET_REG32((void *)CYREG_PERI_DIV_CMD, 0x8000FF40u);
 228:Generated_Source\PSoC4/cyfitter_cfg.c **** 	CY_SET_REG32((void *)CYREG_PERI_DIV_16_CTL4, 0x0001DF00u);
 229:Generated_Source\PSoC4/cyfitter_cfg.c **** 	CY_SET_REG32((void *)CYREG_PERI_DIV_CMD, 0x8000FF44u);
 230:Generated_Source\PSoC4/cyfitter_cfg.c **** 	CY_SET_REG32((void *)CYREG_PERI_DIV_16_CTL2, 0x00000500u);
 231:Generated_Source\PSoC4/cyfitter_cfg.c **** 	CY_SET_REG32((void *)CYREG_PERI_DIV_CMD, 0x8000FF42u);
 232:Generated_Source\PSoC4/cyfitter_cfg.c **** 	CY_SET_REG32((void *)CYREG_PERI_DIV_16_CTL3, 0x00001900u);
 233:Generated_Source\PSoC4/cyfitter_cfg.c **** 	CY_SET_REG32((void *)CYREG_PERI_DIV_CMD, 0x8000FF43u);
 234:Generated_Source\PSoC4/cyfitter_cfg.c **** 	CY_SET_REG32((void *)CYREG_PERI_DIV_16_CTL1, 0x00000500u);
 235:Generated_Source\PSoC4/cyfitter_cfg.c **** 	CY_SET_REG32((void *)CYREG_PERI_DIV_CMD, 0x8000FF41u);
 236:Generated_Source\PSoC4/cyfitter_cfg.c **** 
 237:Generated_Source\PSoC4/cyfitter_cfg.c **** 	/* CYDEV_CLK_IMO_CONFIG Starting address: CYDEV_CLK_IMO_CONFIG */
 238:Generated_Source\PSoC4/cyfitter_cfg.c **** 	CY_SET_REG32((void *)(CYREG_CLK_IMO_CONFIG), 0x82000000u);
 239:Generated_Source\PSoC4/cyfitter_cfg.c **** 
 240:Generated_Source\PSoC4/cyfitter_cfg.c **** 	/* CYDEV_CLK_SELECT Starting address: CYDEV_CLK_SELECT */
 241:Generated_Source\PSoC4/cyfitter_cfg.c **** 	CY_SET_REG32((void *)(CYREG_CLK_SELECT), 0x00040000u);
 242:Generated_Source\PSoC4/cyfitter_cfg.c **** 
 243:Generated_Source\PSoC4/cyfitter_cfg.c **** 	/* CYDEV_PERI_PCLK_CTL14 Starting address: CYDEV_PERI_PCLK_CTL14 */
 244:Generated_Source\PSoC4/cyfitter_cfg.c **** 	CY_SET_REG32((void *)(CYREG_PERI_PCLK_CTL14), 0x00000040u);
 245:Generated_Source\PSoC4/cyfitter_cfg.c **** 
 246:Generated_Source\PSoC4/cyfitter_cfg.c **** 	/* CYDEV_PERI_PCLK_CTL13 Starting address: CYDEV_PERI_PCLK_CTL13 */
 247:Generated_Source\PSoC4/cyfitter_cfg.c **** 	CY_SET_REG32((void *)(CYREG_PERI_PCLK_CTL13), 0x00000044u);
 248:Generated_Source\PSoC4/cyfitter_cfg.c **** 
 249:Generated_Source\PSoC4/cyfitter_cfg.c **** 	/* CYDEV_PERI_PCLK_CTL12 Starting address: CYDEV_PERI_PCLK_CTL12 */
 250:Generated_Source\PSoC4/cyfitter_cfg.c **** 	CY_SET_REG32((void *)(CYREG_PERI_PCLK_CTL12), 0x00000040u);
 251:Generated_Source\PSoC4/cyfitter_cfg.c **** 
 252:Generated_Source\PSoC4/cyfitter_cfg.c **** 	/* CYDEV_PERI_PCLK_CTL11 Starting address: CYDEV_PERI_PCLK_CTL11 */
 253:Generated_Source\PSoC4/cyfitter_cfg.c **** 	CY_SET_REG32((void *)(CYREG_PERI_PCLK_CTL11), 0x00000040u);
 254:Generated_Source\PSoC4/cyfitter_cfg.c **** 
 255:Generated_Source\PSoC4/cyfitter_cfg.c **** 	/* CYDEV_PERI_PCLK_CTL10 Starting address: CYDEV_PERI_PCLK_CTL10 */
 256:Generated_Source\PSoC4/cyfitter_cfg.c **** 	CY_SET_REG32((void *)(CYREG_PERI_PCLK_CTL10), 0x00000042u);
 257:Generated_Source\PSoC4/cyfitter_cfg.c **** 
 258:Generated_Source\PSoC4/cyfitter_cfg.c **** 	/* CYDEV_PERI_PCLK_CTL5 Starting address: CYDEV_PERI_PCLK_CTL5 */
ARM GAS  C:\Users\AFDHAL~1\AppData\Local\Temp\ccWWj1fh.s 			page 6


 259:Generated_Source\PSoC4/cyfitter_cfg.c **** 	CY_SET_REG32((void *)(CYREG_PERI_PCLK_CTL5), 0x00000043u);
 260:Generated_Source\PSoC4/cyfitter_cfg.c **** 
 261:Generated_Source\PSoC4/cyfitter_cfg.c **** 	/* CYDEV_PERI_PCLK_CTL2 Starting address: CYDEV_PERI_PCLK_CTL2 */
 262:Generated_Source\PSoC4/cyfitter_cfg.c **** 	CY_SET_REG32((void *)(CYREG_PERI_PCLK_CTL2), 0x00000041u);
 263:Generated_Source\PSoC4/cyfitter_cfg.c **** 
 264:Generated_Source\PSoC4/cyfitter_cfg.c **** 	(void)CyIntSetVector(7u, &CySysWdtIsr);
 265:Generated_Source\PSoC4/cyfitter_cfg.c **** 	CyIntEnable(7u);
 266:Generated_Source\PSoC4/cyfitter_cfg.c **** 	CY_SET_REG32((void *)(CYREG_WDT_MATCH), 0x00003FFFu);
 267:Generated_Source\PSoC4/cyfitter_cfg.c **** 	CY_SET_REG32((void *)(CYREG_WDT_CONFIG), 0x00000006u);
 268:Generated_Source\PSoC4/cyfitter_cfg.c **** 	CY_SET_REG32((void *)(CYREG_WDT_CONTROL), 0x00000008u);
 269:Generated_Source\PSoC4/cyfitter_cfg.c **** 	while ((CY_GET_XTND_REG32((void CYFAR *)(CYREG_WDT_CONTROL)) & 0x00000008u) != 0u) { }
 270:Generated_Source\PSoC4/cyfitter_cfg.c **** 	CY_SET_REG32((void *)(CYREG_WDT_CONTROL), 0x00000001u);
 271:Generated_Source\PSoC4/cyfitter_cfg.c **** }
 272:Generated_Source\PSoC4/cyfitter_cfg.c **** 
 273:Generated_Source\PSoC4/cyfitter_cfg.c **** 
 274:Generated_Source\PSoC4/cyfitter_cfg.c **** /* Analog API Functions */
 275:Generated_Source\PSoC4/cyfitter_cfg.c **** 
 276:Generated_Source\PSoC4/cyfitter_cfg.c **** 
 277:Generated_Source\PSoC4/cyfitter_cfg.c **** /*******************************************************************************
 278:Generated_Source\PSoC4/cyfitter_cfg.c **** * Function Name: AnalogSetDefault
 279:Generated_Source\PSoC4/cyfitter_cfg.c **** ********************************************************************************
 280:Generated_Source\PSoC4/cyfitter_cfg.c **** *
 281:Generated_Source\PSoC4/cyfitter_cfg.c **** * Summary:
 282:Generated_Source\PSoC4/cyfitter_cfg.c **** *  Sets up the analog portions of the chip to default values based on chip
 283:Generated_Source\PSoC4/cyfitter_cfg.c **** *  configuration options from the project.
 284:Generated_Source\PSoC4/cyfitter_cfg.c **** *
 285:Generated_Source\PSoC4/cyfitter_cfg.c **** * Parameters:
 286:Generated_Source\PSoC4/cyfitter_cfg.c **** *  void
 287:Generated_Source\PSoC4/cyfitter_cfg.c **** *
 288:Generated_Source\PSoC4/cyfitter_cfg.c **** * Return:
 289:Generated_Source\PSoC4/cyfitter_cfg.c **** *  void
 290:Generated_Source\PSoC4/cyfitter_cfg.c **** *
 291:Generated_Source\PSoC4/cyfitter_cfg.c **** *******************************************************************************/
 292:Generated_Source\PSoC4/cyfitter_cfg.c **** static void AnalogSetDefault(void);
 293:Generated_Source\PSoC4/cyfitter_cfg.c **** static void AnalogSetDefault(void)
 294:Generated_Source\PSoC4/cyfitter_cfg.c **** {
 295:Generated_Source\PSoC4/cyfitter_cfg.c **** 	CY_SET_XTND_REG32((void CYFAR *)CYREG_CTBM0_DFT_CTRL, 0x00000003u);
 296:Generated_Source\PSoC4/cyfitter_cfg.c **** 	CY_SET_XTND_REG32((void CYFAR *)CYREG_CTBM1_DFT_CTRL, 0x00000003u);
 297:Generated_Source\PSoC4/cyfitter_cfg.c **** 	CY_SET_XTND_REG32((void CYFAR *)CYREG_SAR_CTRL, 0x80000000u);
 298:Generated_Source\PSoC4/cyfitter_cfg.c **** 	CY_SET_XTND_REG32((void CYFAR *)CYREG_SAR_MUX_SWITCH0, 0x00000003u);
 299:Generated_Source\PSoC4/cyfitter_cfg.c **** 	CY_SET_XTND_REG32((void CYFAR *)CYREG_SAR_MUX_SWITCH_HW_CTRL, 0x00000003u);
 300:Generated_Source\PSoC4/cyfitter_cfg.c **** 	CY_SET_XTND_REG32((void CYFAR *)CYREG_PASS_DSAB_DSAB_CTRL, 0x00000000u);
 301:Generated_Source\PSoC4/cyfitter_cfg.c **** 	SetAnalogRoutingPumps(1);
 302:Generated_Source\PSoC4/cyfitter_cfg.c **** }
 303:Generated_Source\PSoC4/cyfitter_cfg.c **** 
 304:Generated_Source\PSoC4/cyfitter_cfg.c **** 
 305:Generated_Source\PSoC4/cyfitter_cfg.c **** /*******************************************************************************
 306:Generated_Source\PSoC4/cyfitter_cfg.c **** * Function Name: SetAnalogRoutingPumps
 307:Generated_Source\PSoC4/cyfitter_cfg.c **** ********************************************************************************
 308:Generated_Source\PSoC4/cyfitter_cfg.c **** *
 309:Generated_Source\PSoC4/cyfitter_cfg.c **** * Summary:
 310:Generated_Source\PSoC4/cyfitter_cfg.c **** * Enables or disables the analog pumps feeding analog routing switches.
 311:Generated_Source\PSoC4/cyfitter_cfg.c **** * Intended to be called at startup, based on the Vdda system configuration;
 312:Generated_Source\PSoC4/cyfitter_cfg.c **** * may be called during operation when the user informs us that the Vdda voltage crossed the pump th
 313:Generated_Source\PSoC4/cyfitter_cfg.c **** *
 314:Generated_Source\PSoC4/cyfitter_cfg.c **** * Parameters:
 315:Generated_Source\PSoC4/cyfitter_cfg.c **** *  enabled - 1 to enable the pumps, 0 to disable the pumps
ARM GAS  C:\Users\AFDHAL~1\AppData\Local\Temp\ccWWj1fh.s 			page 7


 316:Generated_Source\PSoC4/cyfitter_cfg.c **** *
 317:Generated_Source\PSoC4/cyfitter_cfg.c **** * Return:
 318:Generated_Source\PSoC4/cyfitter_cfg.c **** *  void
 319:Generated_Source\PSoC4/cyfitter_cfg.c **** *
 320:Generated_Source\PSoC4/cyfitter_cfg.c **** *******************************************************************************/
 321:Generated_Source\PSoC4/cyfitter_cfg.c **** void SetAnalogRoutingPumps(uint8 enabled)
 322:Generated_Source\PSoC4/cyfitter_cfg.c **** {
  28              		.loc 1 322 0
  29              		.cfi_startproc
  30              		@ args = 0, pretend = 0, frame = 0
  31              		@ frame_needed = 0, uses_anonymous_args = 0
  32              		@ link register save eliminated.
  33              	.LVL0:
 323:Generated_Source\PSoC4/cyfitter_cfg.c **** 	uint32 regValue = CY_GET_XTND_REG32((void *)(CYREG_SAR_PUMP_CTRL));
  34              		.loc 1 323 0
  35 0000 064B     		ldr	r3, .L6
  36 0002 1B68     		ldr	r3, [r3]
  37              	.LVL1:
 324:Generated_Source\PSoC4/cyfitter_cfg.c **** 	if (enabled != 0u)
  38              		.loc 1 324 0
  39 0004 0028     		cmp	r0, #0
  40 0006 04D1     		bne	.L5
 325:Generated_Source\PSoC4/cyfitter_cfg.c **** 	{
 326:Generated_Source\PSoC4/cyfitter_cfg.c **** 		regValue |= 0x80000000u;
 327:Generated_Source\PSoC4/cyfitter_cfg.c **** 	}
 328:Generated_Source\PSoC4/cyfitter_cfg.c **** 	else
 329:Generated_Source\PSoC4/cyfitter_cfg.c **** 	{
 330:Generated_Source\PSoC4/cyfitter_cfg.c **** 		regValue &= ~0x80000000u;
  41              		.loc 1 330 0
  42 0008 5B00     		lsls	r3, r3, #1
  43              	.LVL2:
  44 000a 5B08     		lsrs	r3, r3, #1
  45              	.LVL3:
  46              	.L3:
 331:Generated_Source\PSoC4/cyfitter_cfg.c **** 	}
 332:Generated_Source\PSoC4/cyfitter_cfg.c **** 	CY_SET_XTND_REG32((void *)(CYREG_SAR_PUMP_CTRL), regValue);
  47              		.loc 1 332 0
  48 000c 034A     		ldr	r2, .L6
 333:Generated_Source\PSoC4/cyfitter_cfg.c **** }
  49              		.loc 1 333 0
  50              		@ sp needed
 332:Generated_Source\PSoC4/cyfitter_cfg.c **** }
  51              		.loc 1 332 0
  52 000e 1360     		str	r3, [r2]
  53              		.loc 1 333 0
  54 0010 7047     		bx	lr
  55              	.L5:
 326:Generated_Source\PSoC4/cyfitter_cfg.c **** 	}
  56              		.loc 1 326 0
  57 0012 8022     		movs	r2, #128
  58 0014 1206     		lsls	r2, r2, #24
  59 0016 1343     		orrs	r3, r2
  60              	.LVL4:
  61 0018 F8E7     		b	.L3
  62              	.L7:
  63 001a C046     		.align	2
  64              	.L6:
ARM GAS  C:\Users\AFDHAL~1\AppData\Local\Temp\ccWWj1fh.s 			page 8


  65 001c 80033A40 		.word	1077543808
  66              		.cfi_endproc
  67              	.LFE7:
  68              		.size	SetAnalogRoutingPumps, .-SetAnalogRoutingPumps
  69              		.section	.psocinit,"ax",%progbits
  70              		.align	2
  71              		.global	cyfitter_cfg
  72              		.code	16
  73              		.thumb_func
  74              		.type	cyfitter_cfg, %function
  75              	cyfitter_cfg:
  76              	.LFB8:
 334:Generated_Source\PSoC4/cyfitter_cfg.c **** 
 335:Generated_Source\PSoC4/cyfitter_cfg.c **** 
 336:Generated_Source\PSoC4/cyfitter_cfg.c **** 
 337:Generated_Source\PSoC4/cyfitter_cfg.c **** 
 338:Generated_Source\PSoC4/cyfitter_cfg.c **** /*******************************************************************************
 339:Generated_Source\PSoC4/cyfitter_cfg.c **** * Function Name: cyfitter_cfg
 340:Generated_Source\PSoC4/cyfitter_cfg.c **** ********************************************************************************
 341:Generated_Source\PSoC4/cyfitter_cfg.c **** * Summary:
 342:Generated_Source\PSoC4/cyfitter_cfg.c **** *  This function is called by the start-up code for the selected device. It
 343:Generated_Source\PSoC4/cyfitter_cfg.c **** *  performs all of the necessary device configuration based on the design
 344:Generated_Source\PSoC4/cyfitter_cfg.c **** *  settings.  This includes settings from the Design Wide Resources (DWR) such
 345:Generated_Source\PSoC4/cyfitter_cfg.c **** *  as Clocks and Pins as well as any component configuration that is necessary.
 346:Generated_Source\PSoC4/cyfitter_cfg.c **** *
 347:Generated_Source\PSoC4/cyfitter_cfg.c **** * Parameters:
 348:Generated_Source\PSoC4/cyfitter_cfg.c **** *   void
 349:Generated_Source\PSoC4/cyfitter_cfg.c **** *
 350:Generated_Source\PSoC4/cyfitter_cfg.c **** * Return:
 351:Generated_Source\PSoC4/cyfitter_cfg.c **** *   void
 352:Generated_Source\PSoC4/cyfitter_cfg.c **** *
 353:Generated_Source\PSoC4/cyfitter_cfg.c **** *******************************************************************************/
 354:Generated_Source\PSoC4/cyfitter_cfg.c **** CY_CFG_SECTION
 355:Generated_Source\PSoC4/cyfitter_cfg.c **** void cyfitter_cfg(void)
 356:Generated_Source\PSoC4/cyfitter_cfg.c **** {
  77              		.loc 1 356 0
  78              		.cfi_startproc
  79              		@ args = 0, pretend = 0, frame = 0
  80              		@ frame_needed = 0, uses_anonymous_args = 0
  81 0000 F0B5     		push	{r4, r5, r6, r7, lr}
  82              		.cfi_def_cfa_offset 20
  83              		.cfi_offset 4, -20
  84              		.cfi_offset 5, -16
  85              		.cfi_offset 6, -12
  86              		.cfi_offset 7, -8
  87              		.cfi_offset 14, -4
  88 0002 4746     		mov	r7, r8
  89 0004 80B4     		push	{r7}
  90              		.cfi_def_cfa_offset 24
  91              		.cfi_offset 8, -24
 357:Generated_Source\PSoC4/cyfitter_cfg.c **** 	/* Disable interrupts by default. Let user enable if/when they want. */
 358:Generated_Source\PSoC4/cyfitter_cfg.c **** 	CyGlobalIntDisable;
  92              		.loc 1 358 0
  93              		.syntax divided
  94              	@ 358 "Generated_Source\PSoC4\cyfitter_cfg.c" 1
  95 0006 72B6     		CPSID   i
  96              	@ 0 "" 2
ARM GAS  C:\Users\AFDHAL~1\AppData\Local\Temp\ccWWj1fh.s 			page 9


  97              	.LVL5:
  98              		.thumb
  99              		.syntax unified
 100              	.LBB28:
 101              	.LBB29:
 102              	.LBB30:
 103              	.LBB31:
  78:Generated_Source\PSoC4/cyfitter_cfg.c **** }
 104              		.loc 1 78 0
 105 0008 8022     		movs	r2, #128
 106 000a 0021     		movs	r1, #0
 107 000c D200     		lsls	r2, r2, #3
 108 000e 7E48     		ldr	r0, .L19
 109 0010 FFF7FEFF 		bl	memset
 110              	.LVL6:
 111 0014 8022     		movs	r2, #128
 112 0016 0021     		movs	r1, #0
 113 0018 D200     		lsls	r2, r2, #3
 114 001a 7C48     		ldr	r0, .L19+4
 115 001c FFF7FEFF 		bl	memset
 116              	.LVL7:
 117 0020 0023     		movs	r3, #0
 118 0022 7B4F     		ldr	r7, .L19+8
 119 0024 9846     		mov	r8, r3
 120 0026 3E00     		movs	r6, r7
 121              	.LBE31:
 122              	.LBE30:
 123              	.LBE29:
 124              	.LBB34:
 125              	.LBB35:
 126              	.LBB36:
 185:Generated_Source\PSoC4/cyfitter_cfg.c **** 		while (count != 0u)
 127              		.loc 1 185 0
 128 0028 FF33     		adds	r3, r3, #255
 129              	.LBE36:
 130              	.LBE35:
 131              	.LBE34:
 132              	.LBB39:
 133              	.LBB33:
 134              	.LBB32:
  78:Generated_Source\PSoC4/cyfitter_cfg.c **** }
 135              		.loc 1 78 0
 136 002a 0025     		movs	r5, #0
 137              	.LBE32:
 138              	.LBE33:
 139              	.LBE39:
 140              	.LBB40:
 141              	.LBB38:
 142              	.LBB37:
 185:Generated_Source\PSoC4/cyfitter_cfg.c **** 		while (count != 0u)
 143              		.loc 1 185 0
 144 002c 9C46     		mov	ip, r3
 145 002e 1436     		adds	r6, r6, #20
 146              	.LVL8:
 147              	.L11:
 148 0030 6346     		mov	r3, ip
 149 0032 7859     		ldr	r0, [r7, r5]
ARM GAS  C:\Users\AFDHAL~1\AppData\Local\Temp\ccWWj1fh.s 			page 10


 184:Generated_Source\PSoC4/cyfitter_cfg.c **** 		baseAddr &= 0xFFFFFF00u;
 150              		.loc 1 184 0
 151 0034 7A5D     		ldrb	r2, [r7, r5]
 152              	.LVL9:
 185:Generated_Source\PSoC4/cyfitter_cfg.c **** 		while (count != 0u)
 153              		.loc 1 185 0
 154 0036 9843     		bics	r0, r3
 155              	.LVL10:
 186:Generated_Source\PSoC4/cyfitter_cfg.c **** 		{
 156              		.loc 1 186 0
 157 0038 002A     		cmp	r2, #0
 158 003a 12D0     		beq	.L9
 159 003c 013A     		subs	r2, r2, #1
 160              	.LVL11:
 161 003e 4146     		mov	r1, r8
 162 0040 D2B2     		uxtb	r2, r2
 163              	.LVL12:
 164 0042 4346     		mov	r3, r8
 165 0044 9046     		mov	r8, r2
 166              	.LVL13:
 167 0046 0131     		adds	r1, r1, #1
 168              	.LVL14:
 169 0048 8844     		add	r8, r8, r1
 170 004a 4246     		mov	r2, r8
 171 004c 5B00     		lsls	r3, r3, #1
 172              	.LVL15:
 173 004e 5400     		lsls	r4, r2, #1
 174 0050 F318     		adds	r3, r6, r3
 175 0052 3419     		adds	r4, r6, r4
 176              	.LVL16:
 177              	.L10:
 188:Generated_Source\PSoC4/cyfitter_cfg.c **** 			j++;
 178              		.loc 1 188 0
 179 0054 1A78     		ldrb	r2, [r3]
 180 0056 5978     		ldrb	r1, [r3, #1]
 181 0058 1218     		adds	r2, r2, r0
 182 005a 0233     		adds	r3, r3, #2
 183 005c 1170     		strb	r1, [r2]
 186:Generated_Source\PSoC4/cyfitter_cfg.c **** 		{
 184              		.loc 1 186 0
 185 005e 9C42     		cmp	r4, r3
 186 0060 F8D1     		bne	.L10
 187              	.L9:
 188              	.LVL17:
 189 0062 0435     		adds	r5, r5, #4
 190              	.LBE37:
 181:Generated_Source\PSoC4/cyfitter_cfg.c **** 	{
 191              		.loc 1 181 0
 192 0064 142D     		cmp	r5, #20
 193 0066 E3D1     		bne	.L11
 194              	.LVL18:
 195              	.LBE38:
 196              	.LBE40:
 359:Generated_Source\PSoC4/cyfitter_cfg.c **** 
 360:Generated_Source\PSoC4/cyfitter_cfg.c **** 	{
 361:Generated_Source\PSoC4/cyfitter_cfg.c **** 		static const uint32 CYCODE cy_cfg_addr_table[] = {
 362:Generated_Source\PSoC4/cyfitter_cfg.c **** 			0x400F320Eu, /* Base address: 0x400F3200 Count: 14 */
ARM GAS  C:\Users\AFDHAL~1\AppData\Local\Temp\ccWWj1fh.s 			page 11


 363:Generated_Source\PSoC4/cyfitter_cfg.c **** 			0x400F330Fu, /* Base address: 0x400F3300 Count: 15 */
 364:Generated_Source\PSoC4/cyfitter_cfg.c **** 			0x400F4002u, /* Base address: 0x400F4000 Count: 2 */
 365:Generated_Source\PSoC4/cyfitter_cfg.c **** 			0x400F4108u, /* Base address: 0x400F4100 Count: 8 */
 366:Generated_Source\PSoC4/cyfitter_cfg.c **** 			0x400F430Fu, /* Base address: 0x400F4300 Count: 15 */
 367:Generated_Source\PSoC4/cyfitter_cfg.c **** 		};
 368:Generated_Source\PSoC4/cyfitter_cfg.c **** 
 369:Generated_Source\PSoC4/cyfitter_cfg.c **** 		static const cy_cfg_addrvalue_t CYCODE cy_cfg_data_table[] = {
 370:Generated_Source\PSoC4/cyfitter_cfg.c **** 			{0x1Au, 0x03u},
 371:Generated_Source\PSoC4/cyfitter_cfg.c **** 			{0x2Cu, 0x01u},
 372:Generated_Source\PSoC4/cyfitter_cfg.c **** 			{0x2Eu, 0x02u},
 373:Generated_Source\PSoC4/cyfitter_cfg.c **** 			{0x30u, 0x01u},
 374:Generated_Source\PSoC4/cyfitter_cfg.c **** 			{0x32u, 0x02u},
 375:Generated_Source\PSoC4/cyfitter_cfg.c **** 			{0x3Eu, 0x05u},
 376:Generated_Source\PSoC4/cyfitter_cfg.c **** 			{0x58u, 0x04u},
 377:Generated_Source\PSoC4/cyfitter_cfg.c **** 			{0x5Bu, 0x04u},
 378:Generated_Source\PSoC4/cyfitter_cfg.c **** 			{0x5Fu, 0x01u},
 379:Generated_Source\PSoC4/cyfitter_cfg.c **** 			{0xAEu, 0x01u},
 380:Generated_Source\PSoC4/cyfitter_cfg.c **** 			{0xB2u, 0x01u},
 381:Generated_Source\PSoC4/cyfitter_cfg.c **** 			{0xD8u, 0x04u},
 382:Generated_Source\PSoC4/cyfitter_cfg.c **** 			{0xDCu, 0x08u},
 383:Generated_Source\PSoC4/cyfitter_cfg.c **** 			{0xDFu, 0x31u},
 384:Generated_Source\PSoC4/cyfitter_cfg.c **** 			{0x0Eu, 0x08u},
 385:Generated_Source\PSoC4/cyfitter_cfg.c **** 			{0x10u, 0x01u},
 386:Generated_Source\PSoC4/cyfitter_cfg.c **** 			{0x15u, 0x40u},
 387:Generated_Source\PSoC4/cyfitter_cfg.c **** 			{0x1Bu, 0x04u},
 388:Generated_Source\PSoC4/cyfitter_cfg.c **** 			{0x1Eu, 0x90u},
 389:Generated_Source\PSoC4/cyfitter_cfg.c **** 			{0x6Du, 0x40u},
 390:Generated_Source\PSoC4/cyfitter_cfg.c **** 			{0x78u, 0x02u},
 391:Generated_Source\PSoC4/cyfitter_cfg.c **** 			{0x83u, 0x04u},
 392:Generated_Source\PSoC4/cyfitter_cfg.c **** 			{0x86u, 0x40u},
 393:Generated_Source\PSoC4/cyfitter_cfg.c **** 			{0x88u, 0x03u},
 394:Generated_Source\PSoC4/cyfitter_cfg.c **** 			{0x8Eu, 0x14u},
 395:Generated_Source\PSoC4/cyfitter_cfg.c **** 			{0xC2u, 0x40u},
 396:Generated_Source\PSoC4/cyfitter_cfg.c **** 			{0xC4u, 0x81u},
 397:Generated_Source\PSoC4/cyfitter_cfg.c **** 			{0xDEu, 0x01u},
 398:Generated_Source\PSoC4/cyfitter_cfg.c **** 			{0xE6u, 0x10u},
 399:Generated_Source\PSoC4/cyfitter_cfg.c **** 			{0x62u, 0x80u},
 400:Generated_Source\PSoC4/cyfitter_cfg.c **** 			{0xD6u, 0x40u},
 401:Generated_Source\PSoC4/cyfitter_cfg.c **** 			{0x57u, 0x08u},
 402:Generated_Source\PSoC4/cyfitter_cfg.c **** 			{0x5Bu, 0x20u},
 403:Generated_Source\PSoC4/cyfitter_cfg.c **** 			{0x82u, 0x80u},
 404:Generated_Source\PSoC4/cyfitter_cfg.c **** 			{0x87u, 0x08u},
 405:Generated_Source\PSoC4/cyfitter_cfg.c **** 			{0x8Fu, 0x20u},
 406:Generated_Source\PSoC4/cyfitter_cfg.c **** 			{0xA6u, 0x80u},
 407:Generated_Source\PSoC4/cyfitter_cfg.c **** 			{0xD4u, 0xC0u},
 408:Generated_Source\PSoC4/cyfitter_cfg.c **** 			{0xE6u, 0x60u},
 409:Generated_Source\PSoC4/cyfitter_cfg.c **** 			{0x00u, 0x0Au},
 410:Generated_Source\PSoC4/cyfitter_cfg.c **** 			{0x04u, 0x02u},
 411:Generated_Source\PSoC4/cyfitter_cfg.c **** 			{0x06u, 0x80u},
 412:Generated_Source\PSoC4/cyfitter_cfg.c **** 			{0x19u, 0x08u},
 413:Generated_Source\PSoC4/cyfitter_cfg.c **** 			{0x68u, 0x01u},
 414:Generated_Source\PSoC4/cyfitter_cfg.c **** 			{0x70u, 0x01u},
 415:Generated_Source\PSoC4/cyfitter_cfg.c **** 			{0x88u, 0x04u},
 416:Generated_Source\PSoC4/cyfitter_cfg.c **** 			{0x8Au, 0x80u},
 417:Generated_Source\PSoC4/cyfitter_cfg.c **** 			{0x8Du, 0x08u},
 418:Generated_Source\PSoC4/cyfitter_cfg.c **** 			{0xC0u, 0x0Cu},
 419:Generated_Source\PSoC4/cyfitter_cfg.c **** 			{0xC6u, 0x08u},
ARM GAS  C:\Users\AFDHAL~1\AppData\Local\Temp\ccWWj1fh.s 			page 12


 420:Generated_Source\PSoC4/cyfitter_cfg.c **** 			{0xDAu, 0x02u},
 421:Generated_Source\PSoC4/cyfitter_cfg.c **** 			{0xDCu, 0x01u},
 422:Generated_Source\PSoC4/cyfitter_cfg.c **** 			{0xE2u, 0x06u},
 423:Generated_Source\PSoC4/cyfitter_cfg.c **** 			{0xE6u, 0x04u},
 424:Generated_Source\PSoC4/cyfitter_cfg.c **** 		};
 425:Generated_Source\PSoC4/cyfitter_cfg.c **** 
 426:Generated_Source\PSoC4/cyfitter_cfg.c **** 
 427:Generated_Source\PSoC4/cyfitter_cfg.c **** 
 428:Generated_Source\PSoC4/cyfitter_cfg.c **** 		CYPACKED typedef struct {
 429:Generated_Source\PSoC4/cyfitter_cfg.c **** 			void CYFAR *address;
 430:Generated_Source\PSoC4/cyfitter_cfg.c **** 			uint16 size;
 431:Generated_Source\PSoC4/cyfitter_cfg.c **** 		} CYPACKED_ATTR cfg_memset_t;
 432:Generated_Source\PSoC4/cyfitter_cfg.c **** 
 433:Generated_Source\PSoC4/cyfitter_cfg.c **** 		static const cfg_memset_t CYCODE cfg_memset_list[] = {
 434:Generated_Source\PSoC4/cyfitter_cfg.c **** 			/* address, size */
 435:Generated_Source\PSoC4/cyfitter_cfg.c **** 			{(void CYFAR *)(CYDEV_UDB_P0_U0_BASE), 1024u},
 436:Generated_Source\PSoC4/cyfitter_cfg.c **** 			{(void CYFAR *)(CYDEV_UDB_DSI0_BASE), 1024u},
 437:Generated_Source\PSoC4/cyfitter_cfg.c **** 		};
 438:Generated_Source\PSoC4/cyfitter_cfg.c **** 
 439:Generated_Source\PSoC4/cyfitter_cfg.c **** 		uint8 CYDATA i;
 440:Generated_Source\PSoC4/cyfitter_cfg.c **** 
 441:Generated_Source\PSoC4/cyfitter_cfg.c **** 		/* Zero out critical memory blocks before beginning configuration */
 442:Generated_Source\PSoC4/cyfitter_cfg.c **** 		for (i = 0u; i < (sizeof(cfg_memset_list)/sizeof(cfg_memset_list[0])); i++)
 443:Generated_Source\PSoC4/cyfitter_cfg.c **** 		{
 444:Generated_Source\PSoC4/cyfitter_cfg.c **** 			const cfg_memset_t CYCODE * CYDATA ms = &cfg_memset_list[i];
 445:Generated_Source\PSoC4/cyfitter_cfg.c **** 			CYMEMZERO(ms->address, (size_t)(uint32)(ms->size));
 446:Generated_Source\PSoC4/cyfitter_cfg.c **** 		}
 447:Generated_Source\PSoC4/cyfitter_cfg.c **** 
 448:Generated_Source\PSoC4/cyfitter_cfg.c **** 		cfg_write_bytes32(cy_cfg_addr_table, cy_cfg_data_table);
 449:Generated_Source\PSoC4/cyfitter_cfg.c **** 
 450:Generated_Source\PSoC4/cyfitter_cfg.c **** 		/* HSIOM Starting address: CYDEV_HSIOM_BASE */
 451:Generated_Source\PSoC4/cyfitter_cfg.c **** 		CY_SET_REG32((void *)(CYDEV_HSIOM_BASE), 0x30000000u);
 197              		.loc 1 451 0
 198 0068 C022     		movs	r2, #192
 199 006a 6A4B     		ldr	r3, .L19+12
 200 006c 9205     		lsls	r2, r2, #22
 201 006e 1A60     		str	r2, [r3]
 452:Generated_Source\PSoC4/cyfitter_cfg.c **** 		CY_SET_REG32((void *)(CYREG_HSIOM_PORT_SEL1), 0x00000033u);
 202              		.loc 1 452 0
 203 0070 3322     		movs	r2, #51
 204 0072 694B     		ldr	r3, .L19+16
 453:Generated_Source\PSoC4/cyfitter_cfg.c **** 		CY_SET_REG32((void *)(CYREG_HSIOM_PORT_SEL3), 0x0000EE00u);
 454:Generated_Source\PSoC4/cyfitter_cfg.c **** 		CY_SET_REG32((void *)(CYREG_HSIOM_PORT_SEL4), 0x00000FFFu);
 455:Generated_Source\PSoC4/cyfitter_cfg.c **** 		CY_SET_REG32((void *)(CYREG_HSIOM_PORT_SEL7), 0x00000099u);
 456:Generated_Source\PSoC4/cyfitter_cfg.c **** 
 457:Generated_Source\PSoC4/cyfitter_cfg.c **** 		/* UDB_PA_0 Starting address: CYDEV_UDB_PA0_BASE */
 458:Generated_Source\PSoC4/cyfitter_cfg.c **** 		CY_SET_REG32((void *)(CYDEV_UDB_PA0_BASE), 0x00990000u);
 459:Generated_Source\PSoC4/cyfitter_cfg.c **** 		CY_SET_REG32((void *)(CYREG_UDB_PA0_CFG8), 0x15000000u);
 205              		.loc 1 459 0
 206 0074 A821     		movs	r1, #168
 452:Generated_Source\PSoC4/cyfitter_cfg.c **** 		CY_SET_REG32((void *)(CYREG_HSIOM_PORT_SEL1), 0x00000033u);
 207              		.loc 1 452 0
 208 0076 1A60     		str	r2, [r3]
 453:Generated_Source\PSoC4/cyfitter_cfg.c **** 		CY_SET_REG32((void *)(CYREG_HSIOM_PORT_SEL3), 0x0000EE00u);
 209              		.loc 1 453 0
 210 0078 EE22     		movs	r2, #238
 211 007a 684B     		ldr	r3, .L19+20
ARM GAS  C:\Users\AFDHAL~1\AppData\Local\Temp\ccWWj1fh.s 			page 13


 212 007c 1202     		lsls	r2, r2, #8
 213 007e 1A60     		str	r2, [r3]
 454:Generated_Source\PSoC4/cyfitter_cfg.c **** 		CY_SET_REG32((void *)(CYREG_HSIOM_PORT_SEL7), 0x00000099u);
 214              		.loc 1 454 0
 215 0080 674A     		ldr	r2, .L19+24
 216 0082 684B     		ldr	r3, .L19+28
 217              		.loc 1 459 0
 218 0084 4905     		lsls	r1, r1, #21
 454:Generated_Source\PSoC4/cyfitter_cfg.c **** 		CY_SET_REG32((void *)(CYREG_HSIOM_PORT_SEL7), 0x00000099u);
 219              		.loc 1 454 0
 220 0086 1A60     		str	r2, [r3]
 455:Generated_Source\PSoC4/cyfitter_cfg.c **** 
 221              		.loc 1 455 0
 222 0088 9922     		movs	r2, #153
 223 008a 674B     		ldr	r3, .L19+32
 224              	.LBE28:
 225              	.LBB41:
 226              	.LBB42:
 220:Generated_Source\PSoC4/cyfitter_cfg.c **** 	/* CYDEV_CLK_ILO_CONFIG Starting address: CYDEV_CLK_ILO_CONFIG */
 227              		.loc 1 220 0
 228 008c 3020     		movs	r0, #48
 229              	.LBE42:
 230              	.LBE41:
 231              	.LBB45:
 455:Generated_Source\PSoC4/cyfitter_cfg.c **** 
 232              		.loc 1 455 0
 233 008e 1A60     		str	r2, [r3]
 458:Generated_Source\PSoC4/cyfitter_cfg.c **** 		CY_SET_REG32((void *)(CYREG_UDB_PA0_CFG8), 0x15000000u);
 234              		.loc 1 458 0
 235 0090 9923     		movs	r3, #153
 236 0092 664A     		ldr	r2, .L19+36
 237 0094 1B04     		lsls	r3, r3, #16
 238 0096 1360     		str	r3, [r2]
 239              		.loc 1 459 0
 240 0098 654A     		ldr	r2, .L19+40
 241 009a 1160     		str	r1, [r2]
 460:Generated_Source\PSoC4/cyfitter_cfg.c **** 
 461:Generated_Source\PSoC4/cyfitter_cfg.c **** 		/* UDB_PA_1 Starting address: CYDEV_UDB_PA1_BASE */
 462:Generated_Source\PSoC4/cyfitter_cfg.c **** 		CY_SET_REG32((void *)(CYDEV_UDB_PA1_BASE), 0x00990000u);
 463:Generated_Source\PSoC4/cyfitter_cfg.c **** 		CY_SET_REG32((void *)(CYREG_UDB_PA1_CFG8), 0x00060000u);
 242              		.loc 1 463 0
 243 009c C021     		movs	r1, #192
 462:Generated_Source\PSoC4/cyfitter_cfg.c **** 		CY_SET_REG32((void *)(CYREG_UDB_PA1_CFG8), 0x00060000u);
 244              		.loc 1 462 0
 245 009e 654A     		ldr	r2, .L19+44
 246              		.loc 1 463 0
 247 00a0 C902     		lsls	r1, r1, #11
 462:Generated_Source\PSoC4/cyfitter_cfg.c **** 		CY_SET_REG32((void *)(CYREG_UDB_PA1_CFG8), 0x00060000u);
 248              		.loc 1 462 0
 249 00a2 1360     		str	r3, [r2]
 250              		.loc 1 463 0
 251 00a4 644A     		ldr	r2, .L19+48
 252 00a6 1160     		str	r1, [r2]
 464:Generated_Source\PSoC4/cyfitter_cfg.c **** 
 465:Generated_Source\PSoC4/cyfitter_cfg.c **** 		/* UDB_PA_2 Starting address: CYDEV_UDB_PA2_BASE */
 466:Generated_Source\PSoC4/cyfitter_cfg.c **** 		CY_SET_REG32((void *)(CYDEV_UDB_PA2_BASE), 0x00990000u);
 253              		.loc 1 466 0
ARM GAS  C:\Users\AFDHAL~1\AppData\Local\Temp\ccWWj1fh.s 			page 14


 254 00a8 644A     		ldr	r2, .L19+52
 467:Generated_Source\PSoC4/cyfitter_cfg.c **** 
 468:Generated_Source\PSoC4/cyfitter_cfg.c **** 		/* UDB_PA_3 Starting address: CYDEV_UDB_PA3_BASE */
 469:Generated_Source\PSoC4/cyfitter_cfg.c **** 		CY_SET_REG32((void *)(CYDEV_UDB_PA3_BASE), 0x00990000u);
 470:Generated_Source\PSoC4/cyfitter_cfg.c **** 
 471:Generated_Source\PSoC4/cyfitter_cfg.c **** 		/* TCPWM_CNT1 Starting address: CYDEV_TCPWM_CNT1_TR_CTRL0 */
 472:Generated_Source\PSoC4/cyfitter_cfg.c **** 		CY_SET_REG32((void *)(CYREG_TCPWM_CNT1_TR_CTRL0), 0x00020060u);
 473:Generated_Source\PSoC4/cyfitter_cfg.c **** 
 474:Generated_Source\PSoC4/cyfitter_cfg.c **** 		/* Enable UDB array and digital routing */
 475:Generated_Source\PSoC4/cyfitter_cfg.c **** 		CY_SET_XTND_REG8((void *)CYREG_UDB_UDBIF_WAIT_CFG, (uint8)((CY_GET_XTND_REG8((void *)CYREG_UDB_UD
 255              		.loc 1 475 0
 256 00aa 6549     		ldr	r1, .L19+56
 466:Generated_Source\PSoC4/cyfitter_cfg.c **** 
 257              		.loc 1 466 0
 258 00ac 1360     		str	r3, [r2]
 469:Generated_Source\PSoC4/cyfitter_cfg.c **** 
 259              		.loc 1 469 0
 260 00ae 654A     		ldr	r2, .L19+60
 261 00b0 1360     		str	r3, [r2]
 472:Generated_Source\PSoC4/cyfitter_cfg.c **** 
 262              		.loc 1 472 0
 263 00b2 654A     		ldr	r2, .L19+64
 264 00b4 654B     		ldr	r3, .L19+68
 265 00b6 1A60     		str	r2, [r3]
 266              		.loc 1 475 0
 267 00b8 3C22     		movs	r2, #60
 268 00ba 0B78     		ldrb	r3, [r1]
 269 00bc 9343     		bics	r3, r2
 270 00be 283A     		subs	r2, r2, #40
 271 00c0 1343     		orrs	r3, r2
 272 00c2 0B70     		strb	r3, [r1]
 476:Generated_Source\PSoC4/cyfitter_cfg.c **** 		CY_SET_XTND_REG8((void *)CYREG_UDB_UDBIF_BANK_CTL, (uint8)(CY_GET_XTND_REG8((void *)CYREG_UDB_UDB
 273              		.loc 1 476 0
 274 00c4 1623     		movs	r3, #22
 275 00c6 624A     		ldr	r2, .L19+72
 276 00c8 1178     		ldrb	r1, [r2]
 277 00ca 0B43     		orrs	r3, r1
 278 00cc 1370     		strb	r3, [r2]
 279              	.LBE45:
 477:Generated_Source\PSoC4/cyfitter_cfg.c **** 	}
 478:Generated_Source\PSoC4/cyfitter_cfg.c **** 
 479:Generated_Source\PSoC4/cyfitter_cfg.c **** 	/* Perform second pass device configuration. These items must be configured in specific order afte
 480:Generated_Source\PSoC4/cyfitter_cfg.c **** 	/* IOPINS0_0 Starting address: CYDEV_GPIO_PRT0_BASE */
 481:Generated_Source\PSoC4/cyfitter_cfg.c **** 	CY_SET_REG32((void *)(CYDEV_GPIO_PRT0_BASE), 0x00000080u);
 280              		.loc 1 481 0
 281 00ce 8022     		movs	r2, #128
 282 00d0 604B     		ldr	r3, .L19+76
 482:Generated_Source\PSoC4/cyfitter_cfg.c **** 	CY_SET_REG32((void *)(CYREG_GPIO_PRT0_PC), 0x00C00000u);
 483:Generated_Source\PSoC4/cyfitter_cfg.c **** 
 484:Generated_Source\PSoC4/cyfitter_cfg.c **** 	/* IOPINS0_1 Starting address: CYDEV_GPIO_PRT1_BASE */
 485:Generated_Source\PSoC4/cyfitter_cfg.c **** 	CY_SET_REG32((void *)(CYDEV_GPIO_PRT1_BASE), 0x00000003u);
 486:Generated_Source\PSoC4/cyfitter_cfg.c **** 	CY_SET_REG32((void *)(CYREG_GPIO_PRT1_PC), 0x00180036u);
 283              		.loc 1 486 0
 284 00d2 6149     		ldr	r1, .L19+80
 481:Generated_Source\PSoC4/cyfitter_cfg.c **** 	CY_SET_REG32((void *)(CYREG_GPIO_PRT0_PC), 0x00C00000u);
 285              		.loc 1 481 0
 286 00d4 1A60     		str	r2, [r3]
ARM GAS  C:\Users\AFDHAL~1\AppData\Local\Temp\ccWWj1fh.s 			page 15


 482:Generated_Source\PSoC4/cyfitter_cfg.c **** 	CY_SET_REG32((void *)(CYREG_GPIO_PRT0_PC), 0x00C00000u);
 287              		.loc 1 482 0
 288 00d6 C022     		movs	r2, #192
 289 00d8 604B     		ldr	r3, .L19+84
 290 00da 1204     		lsls	r2, r2, #16
 291 00dc 1A60     		str	r2, [r3]
 485:Generated_Source\PSoC4/cyfitter_cfg.c **** 	CY_SET_REG32((void *)(CYREG_GPIO_PRT1_PC), 0x00180036u);
 292              		.loc 1 485 0
 293 00de 0323     		movs	r3, #3
 294 00e0 5F4A     		ldr	r2, .L19+88
 295 00e2 1360     		str	r3, [r2]
 296              		.loc 1 486 0
 297 00e4 5F4A     		ldr	r2, .L19+92
 298 00e6 1160     		str	r1, [r2]
 487:Generated_Source\PSoC4/cyfitter_cfg.c **** 
 488:Generated_Source\PSoC4/cyfitter_cfg.c **** 	/* IOPINS0_2 Starting address: CYDEV_GPIO_PRT2_BASE */
 489:Generated_Source\PSoC4/cyfitter_cfg.c **** 	CY_SET_REG32((void *)(CYDEV_GPIO_PRT2_BASE), 0x00000003u);
 299              		.loc 1 489 0
 300 00e8 5F4A     		ldr	r2, .L19+96
 490:Generated_Source\PSoC4/cyfitter_cfg.c **** 	CY_SET_REG32((void *)(CYREG_GPIO_PRT2_PC2), 0x00000003u);
 491:Generated_Source\PSoC4/cyfitter_cfg.c **** 
 492:Generated_Source\PSoC4/cyfitter_cfg.c **** 	/* IOPINS0_3 Starting address: CYDEV_GPIO_PRT3_BASE */
 493:Generated_Source\PSoC4/cyfitter_cfg.c **** 	CY_SET_REG32((void *)(CYDEV_GPIO_PRT3_BASE), 0x00000003u);
 494:Generated_Source\PSoC4/cyfitter_cfg.c **** 	CY_SET_REG32((void *)(CYREG_GPIO_PRT3_PC), 0x00000D92u);
 495:Generated_Source\PSoC4/cyfitter_cfg.c **** 
 496:Generated_Source\PSoC4/cyfitter_cfg.c **** 	/* IOPINS0_4 Starting address: CYDEV_GPIO_PRT4_BASE */
 497:Generated_Source\PSoC4/cyfitter_cfg.c **** 	CY_SET_REG32((void *)(CYDEV_GPIO_PRT4_BASE), 0x0000000Du);
 498:Generated_Source\PSoC4/cyfitter_cfg.c **** 	CY_SET_REG32((void *)(CYREG_GPIO_PRT4_PC), 0x0000ED8Eu);
 499:Generated_Source\PSoC4/cyfitter_cfg.c **** 	CY_SET_REG32((void *)(CYREG_GPIO_PRT4_INTR_CFG), 0x00000800u);
 500:Generated_Source\PSoC4/cyfitter_cfg.c **** 	CY_SET_REG32((void *)(CYREG_GPIO_PRT4_PC2), 0x00000005u);
 501:Generated_Source\PSoC4/cyfitter_cfg.c **** 
 502:Generated_Source\PSoC4/cyfitter_cfg.c **** 	/* IOPINS0_6 Starting address: CYDEV_GPIO_PRT6_BASE */
 503:Generated_Source\PSoC4/cyfitter_cfg.c **** 	CY_SET_REG32((void *)(CYDEV_GPIO_PRT6_BASE), 0x00000020u);
 504:Generated_Source\PSoC4/cyfitter_cfg.c **** 	CY_SET_REG32((void *)(CYREG_GPIO_PRT6_PC), 0x00010000u);
 505:Generated_Source\PSoC4/cyfitter_cfg.c **** 
 506:Generated_Source\PSoC4/cyfitter_cfg.c **** 	/* IOPINS0_7 Starting address: CYDEV_GPIO_PRT7_BASE */
 507:Generated_Source\PSoC4/cyfitter_cfg.c **** 	CY_SET_REG32((void *)(CYDEV_GPIO_PRT7_BASE), 0x00000002u);
 508:Generated_Source\PSoC4/cyfitter_cfg.c **** 	CY_SET_REG32((void *)(CYREG_GPIO_PRT7_PC), 0x00000031u);
 301              		.loc 1 508 0
 302 00ea 3121     		movs	r1, #49
 489:Generated_Source\PSoC4/cyfitter_cfg.c **** 	CY_SET_REG32((void *)(CYREG_GPIO_PRT2_PC2), 0x00000003u);
 303              		.loc 1 489 0
 304 00ec 1360     		str	r3, [r2]
 490:Generated_Source\PSoC4/cyfitter_cfg.c **** 	CY_SET_REG32((void *)(CYREG_GPIO_PRT2_PC2), 0x00000003u);
 305              		.loc 1 490 0
 306 00ee 5F4A     		ldr	r2, .L19+100
 307 00f0 1360     		str	r3, [r2]
 493:Generated_Source\PSoC4/cyfitter_cfg.c **** 	CY_SET_REG32((void *)(CYREG_GPIO_PRT3_PC), 0x00000D92u);
 308              		.loc 1 493 0
 309 00f2 5F4A     		ldr	r2, .L19+104
 310 00f4 1360     		str	r3, [r2]
 494:Generated_Source\PSoC4/cyfitter_cfg.c **** 
 311              		.loc 1 494 0
 312 00f6 5F4A     		ldr	r2, .L19+108
 313 00f8 5F4B     		ldr	r3, .L19+112
 314 00fa 1A60     		str	r2, [r3]
 497:Generated_Source\PSoC4/cyfitter_cfg.c **** 	CY_SET_REG32((void *)(CYREG_GPIO_PRT4_PC), 0x0000ED8Eu);
ARM GAS  C:\Users\AFDHAL~1\AppData\Local\Temp\ccWWj1fh.s 			page 16


 315              		.loc 1 497 0
 316 00fc 0D22     		movs	r2, #13
 317 00fe 5F4B     		ldr	r3, .L19+116
 318 0100 1A60     		str	r2, [r3]
 498:Generated_Source\PSoC4/cyfitter_cfg.c **** 	CY_SET_REG32((void *)(CYREG_GPIO_PRT4_INTR_CFG), 0x00000800u);
 319              		.loc 1 498 0
 320 0102 5F4A     		ldr	r2, .L19+120
 321 0104 5F4B     		ldr	r3, .L19+124
 322 0106 1A60     		str	r2, [r3]
 499:Generated_Source\PSoC4/cyfitter_cfg.c **** 	CY_SET_REG32((void *)(CYREG_GPIO_PRT4_PC2), 0x00000005u);
 323              		.loc 1 499 0
 324 0108 8022     		movs	r2, #128
 325 010a 5F4B     		ldr	r3, .L19+128
 326 010c 1201     		lsls	r2, r2, #4
 327 010e 1A60     		str	r2, [r3]
 500:Generated_Source\PSoC4/cyfitter_cfg.c **** 
 328              		.loc 1 500 0
 329 0110 0522     		movs	r2, #5
 330 0112 5E4B     		ldr	r3, .L19+132
 331 0114 1A60     		str	r2, [r3]
 503:Generated_Source\PSoC4/cyfitter_cfg.c **** 	CY_SET_REG32((void *)(CYREG_GPIO_PRT6_PC), 0x00010000u);
 332              		.loc 1 503 0
 333 0116 5E4B     		ldr	r3, .L19+136
 334 0118 1B32     		adds	r2, r2, #27
 335 011a 1A60     		str	r2, [r3]
 504:Generated_Source\PSoC4/cyfitter_cfg.c **** 
 336              		.loc 1 504 0
 337 011c 8022     		movs	r2, #128
 338 011e 5D4B     		ldr	r3, .L19+140
 339 0120 5202     		lsls	r2, r2, #9
 340 0122 1A60     		str	r2, [r3]
 507:Generated_Source\PSoC4/cyfitter_cfg.c **** 	CY_SET_REG32((void *)(CYREG_GPIO_PRT7_PC), 0x00000031u);
 341              		.loc 1 507 0
 342 0124 0223     		movs	r3, #2
 343 0126 5C4A     		ldr	r2, .L19+144
 344 0128 1360     		str	r3, [r2]
 345              		.loc 1 508 0
 346 012a 5C4A     		ldr	r2, .L19+148
 347 012c 1160     		str	r1, [r2]
 509:Generated_Source\PSoC4/cyfitter_cfg.c **** 	CY_SET_REG32((void *)(CYREG_GPIO_PRT7_PC2), 0x00000002u);
 348              		.loc 1 509 0
 349 012e 5C4A     		ldr	r2, .L19+152
 350 0130 1360     		str	r3, [r2]
 351              	.LBB46:
 352              	.LBB43:
 218:Generated_Source\PSoC4/cyfitter_cfg.c **** 	/* Setup and trim IMO based on desired frequency. */
 353              		.loc 1 218 0
 354 0132 1222     		movs	r2, #18
 355 0134 5B4B     		ldr	r3, .L19+156
 356 0136 1A60     		str	r2, [r3]
 220:Generated_Source\PSoC4/cyfitter_cfg.c **** 	/* CYDEV_CLK_ILO_CONFIG Starting address: CYDEV_CLK_ILO_CONFIG */
 357              		.loc 1 220 0
 358 0138 FFF7FEFF 		bl	CySysClkWriteImoFreq
 359              	.LVL19:
 222:Generated_Source\PSoC4/cyfitter_cfg.c **** 
 360              		.loc 1 222 0
 361 013c 5A4A     		ldr	r2, .L19+160
ARM GAS  C:\Users\AFDHAL~1\AppData\Local\Temp\ccWWj1fh.s 			page 17


 362 013e 5B4B     		ldr	r3, .L19+164
 228:Generated_Source\PSoC4/cyfitter_cfg.c **** 	CY_SET_REG32((void *)CYREG_PERI_DIV_CMD, 0x8000FF44u);
 363              		.loc 1 228 0
 364 0140 5B49     		ldr	r1, .L19+168
 222:Generated_Source\PSoC4/cyfitter_cfg.c **** 
 365              		.loc 1 222 0
 366 0142 1A60     		str	r2, [r3]
 226:Generated_Source\PSoC4/cyfitter_cfg.c **** 	CY_SET_REG32((void *)CYREG_PERI_DIV_CMD, 0x8000FF40u);
 367              		.loc 1 226 0
 368 0144 0022     		movs	r2, #0
 369 0146 5B4B     		ldr	r3, .L19+172
 232:Generated_Source\PSoC4/cyfitter_cfg.c **** 	CY_SET_REG32((void *)CYREG_PERI_DIV_CMD, 0x8000FF43u);
 370              		.loc 1 232 0
 371 0148 C820     		movs	r0, #200
 226:Generated_Source\PSoC4/cyfitter_cfg.c **** 	CY_SET_REG32((void *)CYREG_PERI_DIV_CMD, 0x8000FF40u);
 372              		.loc 1 226 0
 373 014a 1A60     		str	r2, [r3]
 227:Generated_Source\PSoC4/cyfitter_cfg.c **** 	CY_SET_REG32((void *)CYREG_PERI_DIV_16_CTL4, 0x0001DF00u);
 374              		.loc 1 227 0
 375 014c 5A4B     		ldr	r3, .L19+176
 376 014e 5B4A     		ldr	r2, .L19+180
 232:Generated_Source\PSoC4/cyfitter_cfg.c **** 	CY_SET_REG32((void *)CYREG_PERI_DIV_CMD, 0x8000FF43u);
 377              		.loc 1 232 0
 378 0150 4001     		lsls	r0, r0, #5
 227:Generated_Source\PSoC4/cyfitter_cfg.c **** 	CY_SET_REG32((void *)CYREG_PERI_DIV_16_CTL4, 0x0001DF00u);
 379              		.loc 1 227 0
 380 0152 1A60     		str	r2, [r3]
 228:Generated_Source\PSoC4/cyfitter_cfg.c **** 	CY_SET_REG32((void *)CYREG_PERI_DIV_CMD, 0x8000FF44u);
 381              		.loc 1 228 0
 382 0154 5A4A     		ldr	r2, .L19+184
 383 0156 1160     		str	r1, [r2]
 229:Generated_Source\PSoC4/cyfitter_cfg.c **** 	CY_SET_REG32((void *)CYREG_PERI_DIV_16_CTL2, 0x00000500u);
 384              		.loc 1 229 0
 385 0158 5A4A     		ldr	r2, .L19+188
 230:Generated_Source\PSoC4/cyfitter_cfg.c **** 	CY_SET_REG32((void *)CYREG_PERI_DIV_CMD, 0x8000FF42u);
 386              		.loc 1 230 0
 387 015a 5B49     		ldr	r1, .L19+192
 229:Generated_Source\PSoC4/cyfitter_cfg.c **** 	CY_SET_REG32((void *)CYREG_PERI_DIV_16_CTL2, 0x00000500u);
 388              		.loc 1 229 0
 389 015c 1A60     		str	r2, [r3]
 230:Generated_Source\PSoC4/cyfitter_cfg.c **** 	CY_SET_REG32((void *)CYREG_PERI_DIV_CMD, 0x8000FF42u);
 390              		.loc 1 230 0
 391 015e A022     		movs	r2, #160
 392 0160 D200     		lsls	r2, r2, #3
 393 0162 0A60     		str	r2, [r1]
 231:Generated_Source\PSoC4/cyfitter_cfg.c **** 	CY_SET_REG32((void *)CYREG_PERI_DIV_16_CTL3, 0x00001900u);
 394              		.loc 1 231 0
 395 0164 5949     		ldr	r1, .L19+196
 396 0166 1960     		str	r1, [r3]
 232:Generated_Source\PSoC4/cyfitter_cfg.c **** 	CY_SET_REG32((void *)CYREG_PERI_DIV_CMD, 0x8000FF43u);
 397              		.loc 1 232 0
 398 0168 5949     		ldr	r1, .L19+200
 399 016a 0860     		str	r0, [r1]
 233:Generated_Source\PSoC4/cyfitter_cfg.c **** 	CY_SET_REG32((void *)CYREG_PERI_DIV_16_CTL1, 0x00000500u);
 400              		.loc 1 233 0
 401 016c 5949     		ldr	r1, .L19+204
 264:Generated_Source\PSoC4/cyfitter_cfg.c **** 	CyIntEnable(7u);
ARM GAS  C:\Users\AFDHAL~1\AppData\Local\Temp\ccWWj1fh.s 			page 18


 402              		.loc 1 264 0
 403 016e 0720     		movs	r0, #7
 233:Generated_Source\PSoC4/cyfitter_cfg.c **** 	CY_SET_REG32((void *)CYREG_PERI_DIV_16_CTL1, 0x00000500u);
 404              		.loc 1 233 0
 405 0170 1960     		str	r1, [r3]
 234:Generated_Source\PSoC4/cyfitter_cfg.c **** 	CY_SET_REG32((void *)CYREG_PERI_DIV_CMD, 0x8000FF41u);
 406              		.loc 1 234 0
 407 0172 5949     		ldr	r1, .L19+208
 408 0174 0A60     		str	r2, [r1]
 235:Generated_Source\PSoC4/cyfitter_cfg.c **** 
 409              		.loc 1 235 0
 410 0176 594A     		ldr	r2, .L19+212
 247:Generated_Source\PSoC4/cyfitter_cfg.c **** 
 411              		.loc 1 247 0
 412 0178 4421     		movs	r1, #68
 235:Generated_Source\PSoC4/cyfitter_cfg.c **** 
 413              		.loc 1 235 0
 414 017a 1A60     		str	r2, [r3]
 238:Generated_Source\PSoC4/cyfitter_cfg.c **** 
 415              		.loc 1 238 0
 416 017c 8222     		movs	r2, #130
 417 017e 584B     		ldr	r3, .L19+216
 418 0180 1206     		lsls	r2, r2, #24
 419 0182 1A60     		str	r2, [r3]
 241:Generated_Source\PSoC4/cyfitter_cfg.c **** 
 420              		.loc 1 241 0
 421 0184 8022     		movs	r2, #128
 422 0186 574B     		ldr	r3, .L19+220
 423 0188 D202     		lsls	r2, r2, #11
 424 018a 1A60     		str	r2, [r3]
 244:Generated_Source\PSoC4/cyfitter_cfg.c **** 
 425              		.loc 1 244 0
 426 018c 4023     		movs	r3, #64
 427 018e 564A     		ldr	r2, .L19+224
 428 0190 1360     		str	r3, [r2]
 247:Generated_Source\PSoC4/cyfitter_cfg.c **** 
 429              		.loc 1 247 0
 430 0192 564A     		ldr	r2, .L19+228
 431 0194 1160     		str	r1, [r2]
 250:Generated_Source\PSoC4/cyfitter_cfg.c **** 
 432              		.loc 1 250 0
 433 0196 564A     		ldr	r2, .L19+232
 264:Generated_Source\PSoC4/cyfitter_cfg.c **** 	CyIntEnable(7u);
 434              		.loc 1 264 0
 435 0198 5649     		ldr	r1, .L19+236
 250:Generated_Source\PSoC4/cyfitter_cfg.c **** 
 436              		.loc 1 250 0
 437 019a 1360     		str	r3, [r2]
 253:Generated_Source\PSoC4/cyfitter_cfg.c **** 
 438              		.loc 1 253 0
 439 019c 564A     		ldr	r2, .L19+240
 440 019e 1360     		str	r3, [r2]
 256:Generated_Source\PSoC4/cyfitter_cfg.c **** 
 441              		.loc 1 256 0
 442 01a0 4222     		movs	r2, #66
 443 01a2 564B     		ldr	r3, .L19+244
 444 01a4 1A60     		str	r2, [r3]
ARM GAS  C:\Users\AFDHAL~1\AppData\Local\Temp\ccWWj1fh.s 			page 19


 259:Generated_Source\PSoC4/cyfitter_cfg.c **** 
 445              		.loc 1 259 0
 446 01a6 564B     		ldr	r3, .L19+248
 447 01a8 0132     		adds	r2, r2, #1
 448 01aa 1A60     		str	r2, [r3]
 262:Generated_Source\PSoC4/cyfitter_cfg.c **** 
 449              		.loc 1 262 0
 450 01ac 554B     		ldr	r3, .L19+252
 451 01ae 023A     		subs	r2, r2, #2
 452 01b0 1A60     		str	r2, [r3]
 264:Generated_Source\PSoC4/cyfitter_cfg.c **** 	CyIntEnable(7u);
 453              		.loc 1 264 0
 454 01b2 FFF7FEFF 		bl	CyIntSetVector
 455              	.LVL20:
 265:Generated_Source\PSoC4/cyfitter_cfg.c **** 	CY_SET_REG32((void *)(CYREG_WDT_MATCH), 0x00003FFFu);
 456              		.loc 1 265 0
 457 01b6 0720     		movs	r0, #7
 458 01b8 FFF7FEFF 		bl	CyIntEnable
 459              	.LVL21:
 266:Generated_Source\PSoC4/cyfitter_cfg.c **** 	CY_SET_REG32((void *)(CYREG_WDT_CONFIG), 0x00000006u);
 460              		.loc 1 266 0
 461 01bc 524A     		ldr	r2, .L19+256
 462 01be 534B     		ldr	r3, .L19+260
 269:Generated_Source\PSoC4/cyfitter_cfg.c **** 	CY_SET_REG32((void *)(CYREG_WDT_CONTROL), 0x00000001u);
 463              		.loc 1 269 0
 464 01c0 0821     		movs	r1, #8
 266:Generated_Source\PSoC4/cyfitter_cfg.c **** 	CY_SET_REG32((void *)(CYREG_WDT_CONFIG), 0x00000006u);
 465              		.loc 1 266 0
 466 01c2 1A60     		str	r2, [r3]
 267:Generated_Source\PSoC4/cyfitter_cfg.c **** 	CY_SET_REG32((void *)(CYREG_WDT_CONTROL), 0x00000008u);
 467              		.loc 1 267 0
 468 01c4 0622     		movs	r2, #6
 469 01c6 524B     		ldr	r3, .L19+264
 470 01c8 1A60     		str	r2, [r3]
 268:Generated_Source\PSoC4/cyfitter_cfg.c **** 	while ((CY_GET_XTND_REG32((void CYFAR *)(CYREG_WDT_CONTROL)) & 0x00000008u) != 0u) { }
 471              		.loc 1 268 0
 472 01ca 0823     		movs	r3, #8
 473 01cc 514A     		ldr	r2, .L19+268
 474 01ce 1360     		str	r3, [r2]
 475              	.L12:
 269:Generated_Source\PSoC4/cyfitter_cfg.c **** 	CY_SET_REG32((void *)(CYREG_WDT_CONTROL), 0x00000001u);
 476              		.loc 1 269 0
 477 01d0 1368     		ldr	r3, [r2]
 478 01d2 0B40     		ands	r3, r1
 479 01d4 FCD1     		bne	.L12
 270:Generated_Source\PSoC4/cyfitter_cfg.c **** }
 480              		.loc 1 270 0
 481 01d6 0121     		movs	r1, #1
 482 01d8 4E4A     		ldr	r2, .L19+268
 483              	.LBE43:
 484              	.LBE46:
 485              	.LBB47:
 486              	.LBB48:
 297:Generated_Source\PSoC4/cyfitter_cfg.c **** 	CY_SET_XTND_REG32((void CYFAR *)CYREG_SAR_MUX_SWITCH0, 0x00000003u);
 487              		.loc 1 297 0
 488 01da 4F48     		ldr	r0, .L19+272
 489              	.LBE48:
ARM GAS  C:\Users\AFDHAL~1\AppData\Local\Temp\ccWWj1fh.s 			page 20


 490              	.LBE47:
 491              	.LBB53:
 492              	.LBB44:
 270:Generated_Source\PSoC4/cyfitter_cfg.c **** }
 493              		.loc 1 270 0
 494 01dc 1160     		str	r1, [r2]
 495              	.LBE44:
 496              	.LBE53:
 497              	.LBB54:
 498              	.LBB51:
 295:Generated_Source\PSoC4/cyfitter_cfg.c **** 	CY_SET_XTND_REG32((void CYFAR *)CYREG_CTBM1_DFT_CTRL, 0x00000003u);
 499              		.loc 1 295 0
 500 01de 0322     		movs	r2, #3
 501 01e0 4E49     		ldr	r1, .L19+276
 502              	.LBE51:
 503              	.LBE54:
 510:Generated_Source\PSoC4/cyfitter_cfg.c **** 
 511:Generated_Source\PSoC4/cyfitter_cfg.c **** 
 512:Generated_Source\PSoC4/cyfitter_cfg.c **** 	/* Setup clocks based on selections from Clock DWR */
 513:Generated_Source\PSoC4/cyfitter_cfg.c **** 	ClockSetup();
 514:Generated_Source\PSoC4/cyfitter_cfg.c **** 
 515:Generated_Source\PSoC4/cyfitter_cfg.c **** 	/* Perform basic analog initialization to defaults */
 516:Generated_Source\PSoC4/cyfitter_cfg.c **** 	AnalogSetDefault();
 517:Generated_Source\PSoC4/cyfitter_cfg.c **** 
 518:Generated_Source\PSoC4/cyfitter_cfg.c **** }
 504              		.loc 1 518 0
 505              		@ sp needed
 506              	.LBB55:
 507              	.LBB52:
 295:Generated_Source\PSoC4/cyfitter_cfg.c **** 	CY_SET_XTND_REG32((void CYFAR *)CYREG_CTBM1_DFT_CTRL, 0x00000003u);
 508              		.loc 1 295 0
 509 01e2 0A60     		str	r2, [r1]
 296:Generated_Source\PSoC4/cyfitter_cfg.c **** 	CY_SET_XTND_REG32((void CYFAR *)CYREG_SAR_CTRL, 0x80000000u);
 510              		.loc 1 296 0
 511 01e4 4E49     		ldr	r1, .L19+280
 512 01e6 0A60     		str	r2, [r1]
 297:Generated_Source\PSoC4/cyfitter_cfg.c **** 	CY_SET_XTND_REG32((void CYFAR *)CYREG_SAR_MUX_SWITCH0, 0x00000003u);
 513              		.loc 1 297 0
 514 01e8 8021     		movs	r1, #128
 515 01ea 0906     		lsls	r1, r1, #24
 516 01ec 0160     		str	r1, [r0]
 298:Generated_Source\PSoC4/cyfitter_cfg.c **** 	CY_SET_XTND_REG32((void CYFAR *)CYREG_SAR_MUX_SWITCH_HW_CTRL, 0x00000003u);
 517              		.loc 1 298 0
 518 01ee 4D48     		ldr	r0, .L19+284
 519 01f0 0260     		str	r2, [r0]
 299:Generated_Source\PSoC4/cyfitter_cfg.c **** 	CY_SET_XTND_REG32((void CYFAR *)CYREG_PASS_DSAB_DSAB_CTRL, 0x00000000u);
 520              		.loc 1 299 0
 521 01f2 4D48     		ldr	r0, .L19+288
 522 01f4 0260     		str	r2, [r0]
 300:Generated_Source\PSoC4/cyfitter_cfg.c **** 	SetAnalogRoutingPumps(1);
 523              		.loc 1 300 0
 524 01f6 4D4A     		ldr	r2, .L19+292
 525 01f8 1360     		str	r3, [r2]
 526              	.LVL22:
 527              	.LBB49:
 528              	.LBB50:
 323:Generated_Source\PSoC4/cyfitter_cfg.c **** 	if (enabled != 0u)
ARM GAS  C:\Users\AFDHAL~1\AppData\Local\Temp\ccWWj1fh.s 			page 21


 529              		.loc 1 323 0
 530 01fa 4D4A     		ldr	r2, .L19+296
 531 01fc 1368     		ldr	r3, [r2]
 532              	.LVL23:
 326:Generated_Source\PSoC4/cyfitter_cfg.c **** 	}
 533              		.loc 1 326 0
 534 01fe 0B43     		orrs	r3, r1
 535              	.LVL24:
 332:Generated_Source\PSoC4/cyfitter_cfg.c **** }
 536              		.loc 1 332 0
 537 0200 1360     		str	r3, [r2]
 538              	.LVL25:
 539              	.LBE50:
 540              	.LBE49:
 541              	.LBE52:
 542              	.LBE55:
 543              		.loc 1 518 0
 544 0202 04BC     		pop	{r2}
 545 0204 9046     		mov	r8, r2
 546 0206 F0BD     		pop	{r4, r5, r6, r7, pc}
 547              	.L20:
 548              		.align	2
 549              	.L19:
 550 0208 00300F40 		.word	1074737152
 551 020c 00400F40 		.word	1074741248
 552 0210 00000000 		.word	.LANCHOR0
 553 0214 00000240 		.word	1073872896
 554 0218 00010240 		.word	1073873152
 555 021c 00030240 		.word	1073873664
 556 0220 FF0F0000 		.word	4095
 557 0224 00040240 		.word	1073873920
 558 0228 00070240 		.word	1073874688
 559 022c 00500F40 		.word	1074745344
 560 0230 08500F40 		.word	1074745352
 561 0234 10500F40 		.word	1074745360
 562 0238 18500F40 		.word	1074745368
 563 023c 20500F40 		.word	1074745376
 564 0240 01700F40 		.word	1074753537
 565 0244 30500F40 		.word	1074745392
 566 0248 60000200 		.word	131168
 567 024c 60012040 		.word	1075839328
 568 0250 00700F40 		.word	1074753536
 569 0254 00000440 		.word	1074003968
 570 0258 36001800 		.word	1572918
 571 025c 08000440 		.word	1074003976
 572 0260 00010440 		.word	1074004224
 573 0264 08010440 		.word	1074004232
 574 0268 00020440 		.word	1074004480
 575 026c 18020440 		.word	1074004504
 576 0270 00030440 		.word	1074004736
 577 0274 920D0000 		.word	3474
 578 0278 08030440 		.word	1074004744
 579 027c 00040440 		.word	1074004992
 580 0280 8EED0000 		.word	60814
 581 0284 08040440 		.word	1074005000
 582 0288 0C040440 		.word	1074005004
 583 028c 18040440 		.word	1074005016
ARM GAS  C:\Users\AFDHAL~1\AppData\Local\Temp\ccWWj1fh.s 			page 22


 584 0290 00060440 		.word	1074005504
 585 0294 08060440 		.word	1074005512
 586 0298 00070440 		.word	1074005760
 587 029c 08070440 		.word	1074005768
 588 02a0 18070440 		.word	1074005784
 589 02a4 30001040 		.word	1074790448
 590 02a8 06000080 		.word	-2147483642
 591 02ac 04010B40 		.word	1074462980
 592 02b0 00DF0100 		.word	122624
 593 02b4 00030140 		.word	1073808128
 594 02b8 00000140 		.word	1073807360
 595 02bc 40FF0080 		.word	-2147418304
 596 02c0 10030140 		.word	1073808144
 597 02c4 44FF0080 		.word	-2147418300
 598 02c8 08030140 		.word	1073808136
 599 02cc 42FF0080 		.word	-2147418302
 600 02d0 0C030140 		.word	1073808140
 601 02d4 43FF0080 		.word	-2147418301
 602 02d8 04030140 		.word	1073808132
 603 02dc 41FF0080 		.word	-2147418303
 604 02e0 08010B40 		.word	1074462984
 605 02e4 00010B40 		.word	1074462976
 606 02e8 38010140 		.word	1073807672
 607 02ec 34010140 		.word	1073807668
 608 02f0 30010140 		.word	1073807664
 609 02f4 00000000 		.word	CySysWdtIsr
 610 02f8 2C010140 		.word	1073807660
 611 02fc 28010140 		.word	1073807656
 612 0300 14010140 		.word	1073807636
 613 0304 08010140 		.word	1073807624
 614 0308 FF3F0000 		.word	16383
 615 030c 08020B40 		.word	1074463240
 616 0310 0C020B40 		.word	1074463244
 617 0314 10020B40 		.word	1074463248
 618 0318 00003A40 		.word	1077542912
 619 031c 30003040 		.word	1076887600
 620 0320 30003140 		.word	1076953136
 621 0324 00033A40 		.word	1077543680
 622 0328 40033A40 		.word	1077543744
 623 032c 000E3F40 		.word	1077874176
 624 0330 80033A40 		.word	1077543808
 625              		.cfi_endproc
 626              	.LFE8:
 627              		.size	cyfitter_cfg, .-cyfitter_cfg
 628              		.section	.rodata
 629              		.align	2
 630              		.set	.LANCHOR0,. + 0
 631              		.type	cy_cfg_addr_table.4914, %object
 632              		.size	cy_cfg_addr_table.4914, 20
 633              	cy_cfg_addr_table.4914:
 634 0000 0E320F40 		.word	1074737678
 635 0004 0F330F40 		.word	1074737935
 636 0008 02400F40 		.word	1074741250
 637 000c 08410F40 		.word	1074741512
 638 0010 0F430F40 		.word	1074742031
 639              		.type	cy_cfg_data_table.4915, %object
 640              		.size	cy_cfg_data_table.4915, 108
ARM GAS  C:\Users\AFDHAL~1\AppData\Local\Temp\ccWWj1fh.s 			page 23


 641              	cy_cfg_data_table.4915:
 642 0014 1A       		.byte	26
 643 0015 03       		.byte	3
 644 0016 2C       		.byte	44
 645 0017 01       		.byte	1
 646 0018 2E       		.byte	46
 647 0019 02       		.byte	2
 648 001a 30       		.byte	48
 649 001b 01       		.byte	1
 650 001c 32       		.byte	50
 651 001d 02       		.byte	2
 652 001e 3E       		.byte	62
 653 001f 05       		.byte	5
 654 0020 58       		.byte	88
 655 0021 04       		.byte	4
 656 0022 5B       		.byte	91
 657 0023 04       		.byte	4
 658 0024 5F       		.byte	95
 659 0025 01       		.byte	1
 660 0026 AE       		.byte	-82
 661 0027 01       		.byte	1
 662 0028 B2       		.byte	-78
 663 0029 01       		.byte	1
 664 002a D8       		.byte	-40
 665 002b 04       		.byte	4
 666 002c DC       		.byte	-36
 667 002d 08       		.byte	8
 668 002e DF       		.byte	-33
 669 002f 31       		.byte	49
 670 0030 0E       		.byte	14
 671 0031 08       		.byte	8
 672 0032 10       		.byte	16
 673 0033 01       		.byte	1
 674 0034 15       		.byte	21
 675 0035 40       		.byte	64
 676 0036 1B       		.byte	27
 677 0037 04       		.byte	4
 678 0038 1E       		.byte	30
 679 0039 90       		.byte	-112
 680 003a 6D       		.byte	109
 681 003b 40       		.byte	64
 682 003c 78       		.byte	120
 683 003d 02       		.byte	2
 684 003e 83       		.byte	-125
 685 003f 04       		.byte	4
 686 0040 86       		.byte	-122
 687 0041 40       		.byte	64
 688 0042 88       		.byte	-120
 689 0043 03       		.byte	3
 690 0044 8E       		.byte	-114
 691 0045 14       		.byte	20
 692 0046 C2       		.byte	-62
 693 0047 40       		.byte	64
 694 0048 C4       		.byte	-60
 695 0049 81       		.byte	-127
 696 004a DE       		.byte	-34
 697 004b 01       		.byte	1
ARM GAS  C:\Users\AFDHAL~1\AppData\Local\Temp\ccWWj1fh.s 			page 24


 698 004c E6       		.byte	-26
 699 004d 10       		.byte	16
 700 004e 62       		.byte	98
 701 004f 80       		.byte	-128
 702 0050 D6       		.byte	-42
 703 0051 40       		.byte	64
 704 0052 57       		.byte	87
 705 0053 08       		.byte	8
 706 0054 5B       		.byte	91
 707 0055 20       		.byte	32
 708 0056 82       		.byte	-126
 709 0057 80       		.byte	-128
 710 0058 87       		.byte	-121
 711 0059 08       		.byte	8
 712 005a 8F       		.byte	-113
 713 005b 20       		.byte	32
 714 005c A6       		.byte	-90
 715 005d 80       		.byte	-128
 716 005e D4       		.byte	-44
 717 005f C0       		.byte	-64
 718 0060 E6       		.byte	-26
 719 0061 60       		.byte	96
 720 0062 00       		.byte	0
 721 0063 0A       		.byte	10
 722 0064 04       		.byte	4
 723 0065 02       		.byte	2
 724 0066 06       		.byte	6
 725 0067 80       		.byte	-128
 726 0068 19       		.byte	25
 727 0069 08       		.byte	8
 728 006a 68       		.byte	104
 729 006b 01       		.byte	1
 730 006c 70       		.byte	112
 731 006d 01       		.byte	1
 732 006e 88       		.byte	-120
 733 006f 04       		.byte	4
 734 0070 8A       		.byte	-118
 735 0071 80       		.byte	-128
 736 0072 8D       		.byte	-115
 737 0073 08       		.byte	8
 738 0074 C0       		.byte	-64
 739 0075 0C       		.byte	12
 740 0076 C6       		.byte	-58
 741 0077 08       		.byte	8
 742 0078 DA       		.byte	-38
 743 0079 02       		.byte	2
 744 007a DC       		.byte	-36
 745 007b 01       		.byte	1
 746 007c E2       		.byte	-30
 747 007d 06       		.byte	6
 748 007e E6       		.byte	-26
 749 007f 04       		.byte	4
 750              		.text
 751              	.Letext0:
 752              		.file 2 "c:\\program files (x86)\\cypress\\psoc creator\\4.1\\psoc creator\\import\\gnu\\arm\\5.4.
 753              		.file 3 "Generated_Source\\PSoC4\\cytypes.h"
 754              		.file 4 "Generated_Source\\PSoC4\\CyLib.h"
ARM GAS  C:\Users\AFDHAL~1\AppData\Local\Temp\ccWWj1fh.s 			page 25

