ARM GAS  C:\Users\AFDHAL~1\AppData\Local\Temp\cc29CzqQ.s 			page 1


   1              		.syntax unified
   2              		.cpu cortex-m0
   3              		.fpu softvfp
   4              		.eabi_attribute 20, 1
   5              		.eabi_attribute 21, 1
   6              		.eabi_attribute 23, 3
   7              		.eabi_attribute 24, 1
   8              		.eabi_attribute 25, 1
   9              		.eabi_attribute 26, 1
  10              		.eabi_attribute 30, 2
  11              		.eabi_attribute 34, 0
  12              		.eabi_attribute 18, 4
  13              		.thumb
  14              		.syntax unified
  15              		.file	"CyLFClk.c"
  16              		.text
  17              	.Ltext0:
  18              		.cfi_sections	.debug_frame
  19              		.section	.text.CySysClkLfclkPosedgeCatch,"ax",%progbits
  20              		.align	2
  21              		.code	16
  22              		.thumb_func
  23              		.type	CySysClkLfclkPosedgeCatch, %function
  24              	CySysClkLfclkPosedgeCatch:
  25              	.LFB43:
  26              		.file 1 "Generated_Source\\PSoC4\\CyLFClk.c"
   1:Generated_Source\PSoC4/CyLFClk.c **** /***************************************************************************//**
   2:Generated_Source\PSoC4/CyLFClk.c **** * \file .c
   3:Generated_Source\PSoC4/CyLFClk.c **** * \version 1.20
   4:Generated_Source\PSoC4/CyLFClk.c **** *
   5:Generated_Source\PSoC4/CyLFClk.c **** * \brief
   6:Generated_Source\PSoC4/CyLFClk.c **** *  This file provides the source code for configuring watchdog timers WDTs, 
   7:Generated_Source\PSoC4/CyLFClk.c **** *  low frequency clocks (LFCLK) and the Real-time Clock (RTC) component in
   8:Generated_Source\PSoC4/CyLFClk.c **** *  PSoC Creator for the PSoC 4 families.
   9:Generated_Source\PSoC4/CyLFClk.c **** *
  10:Generated_Source\PSoC4/CyLFClk.c **** ********************************************************************************
  11:Generated_Source\PSoC4/CyLFClk.c **** * \copyright
  12:Generated_Source\PSoC4/CyLFClk.c **** * Copyright 2008-2017, Cypress Semiconductor Corporation.  All rights reserved.
  13:Generated_Source\PSoC4/CyLFClk.c **** * You may use this file only in accordance with the license, terms, conditions,
  14:Generated_Source\PSoC4/CyLFClk.c **** * disclaimers, and limitations in the end user license agreement accompanying
  15:Generated_Source\PSoC4/CyLFClk.c **** * the software package with which this file was provided.
  16:Generated_Source\PSoC4/CyLFClk.c **** *******************************************************************************/
  17:Generated_Source\PSoC4/CyLFClk.c **** 
  18:Generated_Source\PSoC4/CyLFClk.c **** 
  19:Generated_Source\PSoC4/CyLFClk.c **** #include "CyLFClk.h"
  20:Generated_Source\PSoC4/CyLFClk.c **** #include "CyLib.h"
  21:Generated_Source\PSoC4/CyLFClk.c **** 
  22:Generated_Source\PSoC4/CyLFClk.c **** #if (CY_IP_WCO && CY_IP_SRSSV2)
  23:Generated_Source\PSoC4/CyLFClk.c ****     static uint32 CySysClkGetLfclkSource(void);
  24:Generated_Source\PSoC4/CyLFClk.c **** #endif /* (CY_IP_WCO && CY_IP_SRSSV2) */
  25:Generated_Source\PSoC4/CyLFClk.c **** 
  26:Generated_Source\PSoC4/CyLFClk.c **** 
  27:Generated_Source\PSoC4/CyLFClk.c **** #if(CY_IP_SRSSV2 && (!CY_IP_CPUSS))
  28:Generated_Source\PSoC4/CyLFClk.c ****     /* Default Ilo Trim Register value for ILO trimming*/
  29:Generated_Source\PSoC4/CyLFClk.c ****     static volatile uint16 defaultIloTrimRegValue = CY_SYS_CLK_ILO_TRIM_DEFAULT_VALUE;
  30:Generated_Source\PSoC4/CyLFClk.c **** #endif /* (CY_IP_SRSSV2 && (!CY_IP_CPUSS)) */
  31:Generated_Source\PSoC4/CyLFClk.c **** 
ARM GAS  C:\Users\AFDHAL~1\AppData\Local\Temp\cc29CzqQ.s 			page 2


  32:Generated_Source\PSoC4/CyLFClk.c **** #if(CY_IP_SRSSV2)
  33:Generated_Source\PSoC4/CyLFClk.c ****     /* CySysClkLfclkPosedgeCatch() / CySysClkLfclkPosedgeRestore() */
  34:Generated_Source\PSoC4/CyLFClk.c ****     static uint32 lfclkPosedgeWdtCounter0Enabled = 0u;
  35:Generated_Source\PSoC4/CyLFClk.c ****     static uint32 lfclkPosedgeWdtCounter0Mode    = CY_SYS_WDT_MODE_NONE;
  36:Generated_Source\PSoC4/CyLFClk.c **** 
  37:Generated_Source\PSoC4/CyLFClk.c ****     static volatile uint32 disableServicedIsr = 0uL;
  38:Generated_Source\PSoC4/CyLFClk.c ****     static volatile uint32 wdtIsrMask = CY_SYS_WDT_COUNTER0_INT |\
  39:Generated_Source\PSoC4/CyLFClk.c ****                                         CY_SYS_WDT_COUNTER1_INT |\
  40:Generated_Source\PSoC4/CyLFClk.c ****                                         CY_SYS_WDT_COUNTER2_INT;
  41:Generated_Source\PSoC4/CyLFClk.c **** 
  42:Generated_Source\PSoC4/CyLFClk.c ****     static const uint32 counterIntMaskTbl[CY_WDT_NUM_OF_WDT] = {CY_SYS_WDT_COUNTER0_INT,
  43:Generated_Source\PSoC4/CyLFClk.c ****                                                                 CY_SYS_WDT_COUNTER1_INT,
  44:Generated_Source\PSoC4/CyLFClk.c ****                                                                 CY_SYS_WDT_COUNTER2_INT};
  45:Generated_Source\PSoC4/CyLFClk.c **** 
  46:Generated_Source\PSoC4/CyLFClk.c ****     static void CySysClkLfclkPosedgeCatch(void);
  47:Generated_Source\PSoC4/CyLFClk.c ****     static void CySysClkLfclkPosedgeRestore(void);
  48:Generated_Source\PSoC4/CyLFClk.c **** 
  49:Generated_Source\PSoC4/CyLFClk.c ****     static uint32 CySysWdtLocked(void);
  50:Generated_Source\PSoC4/CyLFClk.c ****     static uint32 CySysClkIloEnabled(void);
  51:Generated_Source\PSoC4/CyLFClk.c **** #endif /* (CY_IP_SRSSV2) */
  52:Generated_Source\PSoC4/CyLFClk.c **** 
  53:Generated_Source\PSoC4/CyLFClk.c **** #if (CY_IP_SRSSLT && CY_IP_WCO && CY_IP_WCO_WDT_EN)
  54:Generated_Source\PSoC4/CyLFClk.c ****     static uint32 CySysClkGetTimerSource(void);
  55:Generated_Source\PSoC4/CyLFClk.c ****     static volatile uint32 disableTimerServicedIsr = 0uL;
  56:Generated_Source\PSoC4/CyLFClk.c ****     static volatile uint32 timerIsrMask = CY_SYS_TIMER0_INT |\
  57:Generated_Source\PSoC4/CyLFClk.c ****                                           CY_SYS_TIMER1_INT |\
  58:Generated_Source\PSoC4/CyLFClk.c ****                                           CY_SYS_TIMER2_INT;
  59:Generated_Source\PSoC4/CyLFClk.c **** 
  60:Generated_Source\PSoC4/CyLFClk.c ****     static const uint32 counterTimerIntMaskTbl[CY_SYS_NUM_OF_TIMERS] = {CY_SYS_TIMER0_INT,
  61:Generated_Source\PSoC4/CyLFClk.c ****                                                                         CY_SYS_TIMER1_INT,
  62:Generated_Source\PSoC4/CyLFClk.c ****                                                                         CY_SYS_TIMER2_INT};
  63:Generated_Source\PSoC4/CyLFClk.c **** 
  64:Generated_Source\PSoC4/CyLFClk.c ****     static cyTimerCallback cySysTimerCallback[CY_SYS_NUM_OF_TIMERS] = {(void *)0, (void *)0, (void 
  65:Generated_Source\PSoC4/CyLFClk.c **** #endif /* (CY_IP_SRSSLT && CY_IP_WCO && CY_IP_WCO_DWT_EN) */
  66:Generated_Source\PSoC4/CyLFClk.c **** 
  67:Generated_Source\PSoC4/CyLFClk.c **** #if(CY_IP_SRSSV2)
  68:Generated_Source\PSoC4/CyLFClk.c ****     static cyWdtCallback cySysWdtCallback[CY_WDT_NUM_OF_WDT] = {(void *)0, (void *)0, (void *)0};
  69:Generated_Source\PSoC4/CyLFClk.c **** #else
  70:Generated_Source\PSoC4/CyLFClk.c ****     static cyWdtCallback cySysWdtCallback = (void *)0;
  71:Generated_Source\PSoC4/CyLFClk.c **** #endif /* (CY_IP_SRSSV2) */
  72:Generated_Source\PSoC4/CyLFClk.c **** 
  73:Generated_Source\PSoC4/CyLFClk.c **** 
  74:Generated_Source\PSoC4/CyLFClk.c **** /*******************************************************************************
  75:Generated_Source\PSoC4/CyLFClk.c **** * Function Name: CySysClkIloStart
  76:Generated_Source\PSoC4/CyLFClk.c **** ****************************************************************************//**
  77:Generated_Source\PSoC4/CyLFClk.c **** * \brief
  78:Generated_Source\PSoC4/CyLFClk.c **** *  Enables ILO.
  79:Generated_Source\PSoC4/CyLFClk.c **** *
  80:Generated_Source\PSoC4/CyLFClk.c **** *  Refer to the device datasheet for the ILO startup time.
  81:Generated_Source\PSoC4/CyLFClk.c **** *
  82:Generated_Source\PSoC4/CyLFClk.c **** *******************************************************************************/
  83:Generated_Source\PSoC4/CyLFClk.c **** void CySysClkIloStart(void)
  84:Generated_Source\PSoC4/CyLFClk.c **** {
  85:Generated_Source\PSoC4/CyLFClk.c ****     CY_SYS_CLK_ILO_CONFIG_REG |= CY_SYS_CLK_ILO_CONFIG_ENABLE;
  86:Generated_Source\PSoC4/CyLFClk.c **** }
  87:Generated_Source\PSoC4/CyLFClk.c **** 
  88:Generated_Source\PSoC4/CyLFClk.c **** 
ARM GAS  C:\Users\AFDHAL~1\AppData\Local\Temp\cc29CzqQ.s 			page 3


  89:Generated_Source\PSoC4/CyLFClk.c **** /*******************************************************************************
  90:Generated_Source\PSoC4/CyLFClk.c **** * Function Name: CySysClkIloStop
  91:Generated_Source\PSoC4/CyLFClk.c **** ****************************************************************************//**
  92:Generated_Source\PSoC4/CyLFClk.c **** * \brief
  93:Generated_Source\PSoC4/CyLFClk.c **** *  Disables the ILO.
  94:Generated_Source\PSoC4/CyLFClk.c **** *
  95:Generated_Source\PSoC4/CyLFClk.c **** *  This function has no effect if WDT is locked (CySysWdtLock() is
  96:Generated_Source\PSoC4/CyLFClk.c **** *  called). Call CySysWdtUnlock() to unlock WDT and stop ILO.
  97:Generated_Source\PSoC4/CyLFClk.c **** *
  98:Generated_Source\PSoC4/CyLFClk.c **** *  PSoC 4100 / PSoC 4200: Note that ILO is required for WDT's operation.
  99:Generated_Source\PSoC4/CyLFClk.c **** *
 100:Generated_Source\PSoC4/CyLFClk.c **** *  PSoC 4100 BLE / PSoC 4200 BLE / PSoC 4200L / PSoC 4100M / 
 101:Generated_Source\PSoC4/CyLFClk.c **** *  PSoC 4200M:
 102:Generated_Source\PSoC4/CyLFClk.c **** *  Stopping ILO affects the peripheral clocked by LFCLK, if
 103:Generated_Source\PSoC4/CyLFClk.c **** *  LFCLK is configured to be sourced by ILO.
 104:Generated_Source\PSoC4/CyLFClk.c **** *
 105:Generated_Source\PSoC4/CyLFClk.c **** *  If the ILO is disabled, all blocks run by ILO will stop functioning.
 106:Generated_Source\PSoC4/CyLFClk.c **** *
 107:Generated_Source\PSoC4/CyLFClk.c **** *******************************************************************************/
 108:Generated_Source\PSoC4/CyLFClk.c **** void CySysClkIloStop(void)
 109:Generated_Source\PSoC4/CyLFClk.c **** {
 110:Generated_Source\PSoC4/CyLFClk.c ****     #if(CY_IP_SRSSV2)
 111:Generated_Source\PSoC4/CyLFClk.c ****         uint8  interruptState;
 112:Generated_Source\PSoC4/CyLFClk.c **** 
 113:Generated_Source\PSoC4/CyLFClk.c ****         /* Do nothing if WDT is locked or ILO is disabled */
 114:Generated_Source\PSoC4/CyLFClk.c ****         if (0u == CySysWdtLocked())
 115:Generated_Source\PSoC4/CyLFClk.c ****         {
 116:Generated_Source\PSoC4/CyLFClk.c ****             if (0u != CySysClkIloEnabled())
 117:Generated_Source\PSoC4/CyLFClk.c ****             {
 118:Generated_Source\PSoC4/CyLFClk.c **** 
 119:Generated_Source\PSoC4/CyLFClk.c ****             #if (CY_IP_WCO)
 120:Generated_Source\PSoC4/CyLFClk.c ****                 if (CY_SYS_CLK_LFCLK_SRC_ILO == CySysClkGetLfclkSource())
 121:Generated_Source\PSoC4/CyLFClk.c ****                 {
 122:Generated_Source\PSoC4/CyLFClk.c ****             #endif /* (CY_IP_WCO) */
 123:Generated_Source\PSoC4/CyLFClk.c **** 
 124:Generated_Source\PSoC4/CyLFClk.c ****                 interruptState = CyEnterCriticalSection();
 125:Generated_Source\PSoC4/CyLFClk.c ****                 CySysClkLfclkPosedgeCatch();
 126:Generated_Source\PSoC4/CyLFClk.c ****                 CY_SYS_CLK_ILO_CONFIG_REG &= (uint32) ( ~(uint32)CY_SYS_CLK_ILO_CONFIG_ENABLE);
 127:Generated_Source\PSoC4/CyLFClk.c ****                 CySysClkLfclkPosedgeRestore();
 128:Generated_Source\PSoC4/CyLFClk.c ****                 CyExitCriticalSection(interruptState);
 129:Generated_Source\PSoC4/CyLFClk.c **** 
 130:Generated_Source\PSoC4/CyLFClk.c ****             #if (CY_IP_WCO)
 131:Generated_Source\PSoC4/CyLFClk.c ****                 }
 132:Generated_Source\PSoC4/CyLFClk.c ****                 else /* Safe to disable - shortened pulse does not impact peripheral */
 133:Generated_Source\PSoC4/CyLFClk.c ****                 {
 134:Generated_Source\PSoC4/CyLFClk.c ****                     CY_SYS_CLK_ILO_CONFIG_REG &= (uint32) ( ~(uint32)CY_SYS_CLK_ILO_CONFIG_ENABLE);
 135:Generated_Source\PSoC4/CyLFClk.c ****                 }
 136:Generated_Source\PSoC4/CyLFClk.c ****             #endif /* (CY_IP_WCO) */
 137:Generated_Source\PSoC4/CyLFClk.c **** 
 138:Generated_Source\PSoC4/CyLFClk.c ****             }
 139:Generated_Source\PSoC4/CyLFClk.c ****         }
 140:Generated_Source\PSoC4/CyLFClk.c ****     #else
 141:Generated_Source\PSoC4/CyLFClk.c ****         CY_SYS_CLK_ILO_CONFIG_REG &= ( uint32 ) ( ~( uint32 )CY_SYS_CLK_ILO_CONFIG_ENABLE);
 142:Generated_Source\PSoC4/CyLFClk.c ****     #endif /* (CY_IP_SRSSV2) */
 143:Generated_Source\PSoC4/CyLFClk.c **** }
 144:Generated_Source\PSoC4/CyLFClk.c **** 
 145:Generated_Source\PSoC4/CyLFClk.c **** 
ARM GAS  C:\Users\AFDHAL~1\AppData\Local\Temp\cc29CzqQ.s 			page 4


 146:Generated_Source\PSoC4/CyLFClk.c **** /******************************************************************************
 147:Generated_Source\PSoC4/CyLFClk.c **** * Function Name: CySysClkIloStartMeasurement
 148:Generated_Source\PSoC4/CyLFClk.c **** ***************************************************************************//**
 149:Generated_Source\PSoC4/CyLFClk.c **** * \brief
 150:Generated_Source\PSoC4/CyLFClk.c **** * Starts the ILO accuracy measurement.
 151:Generated_Source\PSoC4/CyLFClk.c **** *
 152:Generated_Source\PSoC4/CyLFClk.c **** * This function is non-blocking and needs to be called before using the 
 153:Generated_Source\PSoC4/CyLFClk.c **** * CySysClkIloTrim() and CySysClkIloCompensate() API.
 154:Generated_Source\PSoC4/CyLFClk.c **** *
 155:Generated_Source\PSoC4/CyLFClk.c **** * This API configures measurement counters to be sourced by SysClk (Counter 1)
 156:Generated_Source\PSoC4/CyLFClk.c **** * and ILO (Counter 2). 
 157:Generated_Source\PSoC4/CyLFClk.c **** *
 158:Generated_Source\PSoC4/CyLFClk.c **** * \note SysClk should be sourced by IMO. Otherwise CySysClkIloTrim() and 
 159:Generated_Source\PSoC4/CyLFClk.c **** * CySysClkIloCompensate() API can give incorrect results.
 160:Generated_Source\PSoC4/CyLFClk.c **** *
 161:Generated_Source\PSoC4/CyLFClk.c **** * In addition, this API stores the factory ILO trim settings on the first call 
 162:Generated_Source\PSoC4/CyLFClk.c **** * after reset. This stored factory setting is used by the 
 163:Generated_Source\PSoC4/CyLFClk.c **** * CySysClkIloRestoreFactoryTrim() API to restore the ILO factory trim. 
 164:Generated_Source\PSoC4/CyLFClk.c **** * Hence, it is important to call this API before restoring the ILO 
 165:Generated_Source\PSoC4/CyLFClk.c **** * factory trim settings.
 166:Generated_Source\PSoC4/CyLFClk.c **** *
 167:Generated_Source\PSoC4/CyLFClk.c **** ******************************************************************************/
 168:Generated_Source\PSoC4/CyLFClk.c **** void CySysClkIloStartMeasurement(void)
 169:Generated_Source\PSoC4/CyLFClk.c **** {
 170:Generated_Source\PSoC4/CyLFClk.c **** #if(CY_IP_SRSSV2 && (!CY_IP_CPUSS))
 171:Generated_Source\PSoC4/CyLFClk.c ****     static uint8 iloTrimTrig = 0u;
 172:Generated_Source\PSoC4/CyLFClk.c **** 
 173:Generated_Source\PSoC4/CyLFClk.c ****     /* Write default ILO trim value while ILO starting ( Cypress ID 225244 )*/
 174:Generated_Source\PSoC4/CyLFClk.c ****     if (0u == iloTrimTrig)
 175:Generated_Source\PSoC4/CyLFClk.c ****     {
 176:Generated_Source\PSoC4/CyLFClk.c ****         defaultIloTrimRegValue = ((uint8)(CY_SYS_CLK_ILO_TRIM_REG & CY_SYS_CLK_ILO_TRIM_MASK));
 177:Generated_Source\PSoC4/CyLFClk.c ****         iloTrimTrig = 1u;
 178:Generated_Source\PSoC4/CyLFClk.c ****     }
 179:Generated_Source\PSoC4/CyLFClk.c **** #endif /* (CY_IP_SRSSV2 && (!CY_IP_CPUSS)) */
 180:Generated_Source\PSoC4/CyLFClk.c **** 
 181:Generated_Source\PSoC4/CyLFClk.c ****     /* Configure measurement counters to source by SysClk (Counter 1) and ILO (Counter 2)*/
 182:Generated_Source\PSoC4/CyLFClk.c ****     CY_SYS_CLK_DFT_REG = (CY_SYS_CLK_DFT_REG & (uint32) ~CY_SYS_CLK_DFT_SELECT_DEFAULT_MASK) |
 183:Generated_Source\PSoC4/CyLFClk.c ****                             CY_SYS_CLK_SEL_ILO_DFT_SOURCE; 
 184:Generated_Source\PSoC4/CyLFClk.c **** 
 185:Generated_Source\PSoC4/CyLFClk.c ****     CY_SYS_TST_DDFT_CTRL_REG = (CY_SYS_TST_DDFT_CTRL_REG & (uint32) ~ CY_SYS_TST_DDFT_CTRL_REG_DEFA
 186:Generated_Source\PSoC4/CyLFClk.c ****                             CY_SYS_TST_DDFT_CTRL_REG_SEL2_CLK1;
 187:Generated_Source\PSoC4/CyLFClk.c **** }
 188:Generated_Source\PSoC4/CyLFClk.c **** 
 189:Generated_Source\PSoC4/CyLFClk.c **** 
 190:Generated_Source\PSoC4/CyLFClk.c **** /******************************************************************************
 191:Generated_Source\PSoC4/CyLFClk.c **** * Function Name: CySysClkIloStopMeasurement
 192:Generated_Source\PSoC4/CyLFClk.c **** ***************************************************************************//**
 193:Generated_Source\PSoC4/CyLFClk.c **** * \brief
 194:Generated_Source\PSoC4/CyLFClk.c **** * Stops the ILO accuracy measurement.
 195:Generated_Source\PSoC4/CyLFClk.c **** *
 196:Generated_Source\PSoC4/CyLFClk.c **** * Calling this function immediately stops the the ILO frequency measurement.
 197:Generated_Source\PSoC4/CyLFClk.c **** * This function should be called before placing the device to deepsleep, if 
 198:Generated_Source\PSoC4/CyLFClk.c **** * CySysClkIloStartMeasurement() API was called before. 
 199:Generated_Source\PSoC4/CyLFClk.c **** *
 200:Generated_Source\PSoC4/CyLFClk.c **** ******************************************************************************/
 201:Generated_Source\PSoC4/CyLFClk.c **** void CySysClkIloStopMeasurement(void)
 202:Generated_Source\PSoC4/CyLFClk.c **** {
ARM GAS  C:\Users\AFDHAL~1\AppData\Local\Temp\cc29CzqQ.s 			page 5


 203:Generated_Source\PSoC4/CyLFClk.c ****     /* Set default configurations in 11...8 DFT register bits to zero */
 204:Generated_Source\PSoC4/CyLFClk.c ****     CY_SYS_CLK_DFT_REG &= ~CY_SYS_CLK_DFT_SELECT_DEFAULT_MASK;
 205:Generated_Source\PSoC4/CyLFClk.c ****     #if(CY_IP_SRSSLT)
 206:Generated_Source\PSoC4/CyLFClk.c ****         CY_SYS_TST_DDFT_CTRL_REG &= ((uint32) CY_SYS_TST_DDFT_CTRL_REG_DEFAULT_MASK);
 207:Generated_Source\PSoC4/CyLFClk.c ****     #endif /* (CY_IP_SRSSLT) */
 208:Generated_Source\PSoC4/CyLFClk.c **** }
 209:Generated_Source\PSoC4/CyLFClk.c **** 
 210:Generated_Source\PSoC4/CyLFClk.c **** 
 211:Generated_Source\PSoC4/CyLFClk.c **** /******************************************************************************
 212:Generated_Source\PSoC4/CyLFClk.c **** * Function Name: CySysClkIloCompensate
 213:Generated_Source\PSoC4/CyLFClk.c **** ***************************************************************************//**
 214:Generated_Source\PSoC4/CyLFClk.c **** * \brief
 215:Generated_Source\PSoC4/CyLFClk.c **** * This API measures the current ILO accuracy.
 216:Generated_Source\PSoC4/CyLFClk.c **** *
 217:Generated_Source\PSoC4/CyLFClk.c **** * Basing on the measured frequency the required number of ILO cycles for a 
 218:Generated_Source\PSoC4/CyLFClk.c **** * given delay (in microseconds) is obtained. The desired delay that needs to 
 219:Generated_Source\PSoC4/CyLFClk.c **** * be compensated is passed through the desiredDelay parameter. The compensated 
 220:Generated_Source\PSoC4/CyLFClk.c **** * cycle count is returned through the compesatedCycles pointer.
 221:Generated_Source\PSoC4/CyLFClk.c **** * The compensated ILO cycles can then be used to define the WDT period value, 
 222:Generated_Source\PSoC4/CyLFClk.c **** * effectively compensating for the ILO inaccuracy and allowing a more 
 223:Generated_Source\PSoC4/CyLFClk.c **** * accurate WDT interrupt generation.
 224:Generated_Source\PSoC4/CyLFClk.c **** *
 225:Generated_Source\PSoC4/CyLFClk.c **** * CySysClkIloStartMeasurement() API should be called prior to calling this API. 
 226:Generated_Source\PSoC4/CyLFClk.c **** *
 227:Generated_Source\PSoC4/CyLFClk.c **** * \note SysClk should be sourced by IMO. Otherwise CySysClkIloTrim() and 
 228:Generated_Source\PSoC4/CyLFClk.c **** * CySysClkIloCompensate() API can give incorrect results.
 229:Generated_Source\PSoC4/CyLFClk.c **** *
 230:Generated_Source\PSoC4/CyLFClk.c **** * \note If the System clock frequency is changed in runtime, the CyDelayFreq() 
 231:Generated_Source\PSoC4/CyLFClk.c **** * with the appropriate parameter (Frequency of bus clock in Hertz) should be 
 232:Generated_Source\PSoC4/CyLFClk.c **** * called before calling a next CySysClkIloCompensate().
 233:Generated_Source\PSoC4/CyLFClk.c **** *
 234:Generated_Source\PSoC4/CyLFClk.c **** * \warning Do not enter deep sleep mode until the function returns CYRET_SUCCESS.
 235:Generated_Source\PSoC4/CyLFClk.c **** *
 236:Generated_Source\PSoC4/CyLFClk.c **** * \param desiredDelay Required delay in microseconds.
 237:Generated_Source\PSoC4/CyLFClk.c **** *
 238:Generated_Source\PSoC4/CyLFClk.c **** * \param *compensatedCycles The pointer to the variable in which the required
 239:Generated_Source\PSoC4/CyLFClk.c **** * number of ILO cycles for the given delay will be returned.
 240:Generated_Source\PSoC4/CyLFClk.c **** *
 241:Generated_Source\PSoC4/CyLFClk.c **** * \details
 242:Generated_Source\PSoC4/CyLFClk.c **** * The value returned in *compensatedCycles pointer is not valid until the 
 243:Generated_Source\PSoC4/CyLFClk.c **** * function returns CYRET_SUCCESS.
 244:Generated_Source\PSoC4/CyLFClk.c **** *
 245:Generated_Source\PSoC4/CyLFClk.c **** * The desiredDelay parameter value should be in next range: <br>From 100 to 
 246:Generated_Source\PSoC4/CyLFClk.c **** * 2 000 000 microseconds for PSoC 4000 / PSoC 4000S / PSoC 4100S / PSoC Analog 
 247:Generated_Source\PSoC4/CyLFClk.c **** * Coprocessor devices.<br>From 100 to 4 000 000 000 microseconds for 
 248:Generated_Source\PSoC4/CyLFClk.c **** * PSoC 4100 / PSoC 4200 / PSoC 4100 BLE / PSoC 4200 BLE / PRoC BLE /
 249:Generated_Source\PSoC4/CyLFClk.c **** * PSoC 4200L / PSoC 4100M /PSoC 4200M devices.
 250:Generated_Source\PSoC4/CyLFClk.c **** *
 251:Generated_Source\PSoC4/CyLFClk.c **** * \return CYRET_SUCCESS - The compensation process is complete and the 
 252:Generated_Source\PSoC4/CyLFClk.c **** * compensated cycles value is returned in the compensatedCycles pointer.
 253:Generated_Source\PSoC4/CyLFClk.c **** *
 254:Generated_Source\PSoC4/CyLFClk.c **** * \return CYRET_STARTED - Indicates measurement is in progress. It is 
 255:Generated_Source\PSoC4/CyLFClk.c **** * strongly recommended to do not make pauses between API calling. The 
 256:Generated_Source\PSoC4/CyLFClk.c **** * function should be called repeatedly until the API returns CYRET_SUCCESS.
 257:Generated_Source\PSoC4/CyLFClk.c **** *
 258:Generated_Source\PSoC4/CyLFClk.c **** * \return CYRET_INVALID_STATE - Indicates that measurement not started. 
 259:Generated_Source\PSoC4/CyLFClk.c **** * The user should call CySysClkIloStartMeasurement() API before calling 
ARM GAS  C:\Users\AFDHAL~1\AppData\Local\Temp\cc29CzqQ.s 			page 6


 260:Generated_Source\PSoC4/CyLFClk.c **** * this API.
 261:Generated_Source\PSoC4/CyLFClk.c **** *
 262:Generated_Source\PSoC4/CyLFClk.c **** * \note For a correct WDT or DeepSleep Timers functioning with ILO compensating 
 263:Generated_Source\PSoC4/CyLFClk.c **** * the CySysClkIloCompensate() should be called before WDT or DeepSleep Timers 
 264:Generated_Source\PSoC4/CyLFClk.c **** * enabling.
 265:Generated_Source\PSoC4/CyLFClk.c **** *
 266:Generated_Source\PSoC4/CyLFClk.c **** *******************************************************************************/
 267:Generated_Source\PSoC4/CyLFClk.c **** cystatus CySysClkIloCompensate(uint32 desiredDelay , uint32* compensatedCycles)
 268:Generated_Source\PSoC4/CyLFClk.c **** {
 269:Generated_Source\PSoC4/CyLFClk.c ****     uint32 iloCompensatedCycles;
 270:Generated_Source\PSoC4/CyLFClk.c ****     uint32 desiredDelayInCounts;
 271:Generated_Source\PSoC4/CyLFClk.c ****     static uint32 compensateRunningStatus = CY_SYS_CLK_TRIM_OR_COMP_FINISHED;
 272:Generated_Source\PSoC4/CyLFClk.c ****     uint32 checkStatus;
 273:Generated_Source\PSoC4/CyLFClk.c ****     cystatus returnStatus;
 274:Generated_Source\PSoC4/CyLFClk.c **** 
 275:Generated_Source\PSoC4/CyLFClk.c ****     checkStatus = (uint32) (CY_SYS_CLK_DFT_REG & (uint32) CY_SYS_TST_DDFT_CTRL_REG_DEFAULT_MASK);
 276:Generated_Source\PSoC4/CyLFClk.c **** 
 277:Generated_Source\PSoC4/CyLFClk.c ****     /* Check if CySysStartMeasurement was called before */
 278:Generated_Source\PSoC4/CyLFClk.c ****     if((checkStatus == CY_SYS_CLK_SEL_ILO_DFT_SOURCE) && 
 279:Generated_Source\PSoC4/CyLFClk.c ****        (CY_SYS_TST_DDFT_CTRL_REG == CY_SYS_TST_DDFT_CTRL_REG_SEL2_CLK1) &&
 280:Generated_Source\PSoC4/CyLFClk.c ****        (CY_SYS_CLK_MAX_DELAY_US >= desiredDelay) &&
 281:Generated_Source\PSoC4/CyLFClk.c ****        (CY_SYS_CLK_MIN_DELAY_US <= desiredDelay) &&
 282:Generated_Source\PSoC4/CyLFClk.c ****        (compensatedCycles !=  NULL))
 283:Generated_Source\PSoC4/CyLFClk.c ****     {
 284:Generated_Source\PSoC4/CyLFClk.c ****         if(CY_SYS_CLK_TRIM_OR_COMP_FINISHED != compensateRunningStatus)
 285:Generated_Source\PSoC4/CyLFClk.c ****         {
 286:Generated_Source\PSoC4/CyLFClk.c ****             /* Wait until counter 1 stopped counting and after it calculate compensated cycles */
 287:Generated_Source\PSoC4/CyLFClk.c ****             if(0u != (CY_SYS_CNT_REG1_REG & CY_SYS_CLK_ILO_CALIBR_COMPLETE_MASK))
 288:Generated_Source\PSoC4/CyLFClk.c ****             {
 289:Generated_Source\PSoC4/CyLFClk.c ****                 if (0u != CY_SYS_CNT_REG2_REG)
 290:Generated_Source\PSoC4/CyLFClk.c ****                 {
 291:Generated_Source\PSoC4/CyLFClk.c ****                     /* Calculate required number of ILO cycles for given delay */
 292:Generated_Source\PSoC4/CyLFClk.c ****                     #if(CY_IP_SRSSV2)
 293:Generated_Source\PSoC4/CyLFClk.c ****                         if (CY_SYS_CLK_DELAY_COUNTS_LIMIT < desiredDelay)
 294:Generated_Source\PSoC4/CyLFClk.c ****                         {
 295:Generated_Source\PSoC4/CyLFClk.c ****                             desiredDelayInCounts = (desiredDelay / CY_SYS_CLK_ILO_PERIOD);
 296:Generated_Source\PSoC4/CyLFClk.c ****                             iloCompensatedCycles = 
 297:Generated_Source\PSoC4/CyLFClk.c ****                             (((CY_SYS_CNT_REG2_REG * cydelayFreqHz) / (cydelayFreqHz >> CY_SYS_CLK_
 298:Generated_Source\PSoC4/CyLFClk.c ****                                 CY_SYS_CLK_ILO_FREQ_2MSB) * (desiredDelayInCounts / CY_SYS_CLK_ILO_
 299:Generated_Source\PSoC4/CyLFClk.c ****                         }
 300:Generated_Source\PSoC4/CyLFClk.c ****                         else
 301:Generated_Source\PSoC4/CyLFClk.c ****                         {
 302:Generated_Source\PSoC4/CyLFClk.c ****                             desiredDelayInCounts = ((desiredDelay * CY_SYS_CLK_COEF_PHUNDRED) + 
 303:Generated_Source\PSoC4/CyLFClk.c ****                                                      CY_SYS_CLK_HALF_OF_CLOCK) / CY_SYS_CLK_ILO_PER
 304:Generated_Source\PSoC4/CyLFClk.c **** 
 305:Generated_Source\PSoC4/CyLFClk.c ****                             iloCompensatedCycles = (((CY_SYS_CNT_REG2_REG * cydelayFreqHz) / 
 306:Generated_Source\PSoC4/CyLFClk.c ****                                                      (cydelayFreqHz >> CY_SYS_CLK_SYS_CLK_DEVIDER))
 307:Generated_Source\PSoC4/CyLFClk.c ****                                                      desiredDelayInCounts) / CY_SYS_CLK_ILO_DESIRED
 308:Generated_Source\PSoC4/CyLFClk.c ****                         }
 309:Generated_Source\PSoC4/CyLFClk.c ****                     #else /* (CY_IP_SRSSLT) */
 310:Generated_Source\PSoC4/CyLFClk.c ****                         desiredDelayInCounts = ((desiredDelay * CY_SYS_CLK_COEF_PHUNDRED) + CY_SYS_
 311:Generated_Source\PSoC4/CyLFClk.c ****                                                                                            CY_SYS_C
 312:Generated_Source\PSoC4/CyLFClk.c ****                         if(CY_SYS_CLK_MAX_LITE_NUMBER < desiredDelayInCounts)
 313:Generated_Source\PSoC4/CyLFClk.c ****                         {
 314:Generated_Source\PSoC4/CyLFClk.c ****                             iloCompensatedCycles = (((CY_SYS_CNT_REG2_REG * cydelayFreqHz) / (cydel
 315:Generated_Source\PSoC4/CyLFClk.c ****                                                    CY_SYS_CLK_SYS_CLK_DEVIDER)) / CY_SYS_CLK_ILO_FR
 316:Generated_Source\PSoC4/CyLFClk.c ****                                                    (desiredDelayInCounts / CY_SYS_CLK_ILO_FREQ_3LSB
ARM GAS  C:\Users\AFDHAL~1\AppData\Local\Temp\cc29CzqQ.s 			page 7


 317:Generated_Source\PSoC4/CyLFClk.c ****                         }
 318:Generated_Source\PSoC4/CyLFClk.c ****                         else
 319:Generated_Source\PSoC4/CyLFClk.c ****                         {
 320:Generated_Source\PSoC4/CyLFClk.c ****                             iloCompensatedCycles = (((CY_SYS_CNT_REG2_REG * cydelayFreqHz) / 
 321:Generated_Source\PSoC4/CyLFClk.c ****                                                      (cydelayFreqHz >> CY_SYS_CLK_SYS_CLK_DEVIDER))
 322:Generated_Source\PSoC4/CyLFClk.c ****                                                      desiredDelayInCounts) / CY_SYS_CLK_ILO_DESIRED
 323:Generated_Source\PSoC4/CyLFClk.c ****                         }
 324:Generated_Source\PSoC4/CyLFClk.c ****                     #endif /* (CY_IP_SRSSV2) */
 325:Generated_Source\PSoC4/CyLFClk.c **** 
 326:Generated_Source\PSoC4/CyLFClk.c ****                     *compensatedCycles = iloCompensatedCycles;
 327:Generated_Source\PSoC4/CyLFClk.c ****                     compensateRunningStatus = CY_SYS_CLK_TRIM_OR_COMP_FINISHED;
 328:Generated_Source\PSoC4/CyLFClk.c ****                     returnStatus = CYRET_SUCCESS;
 329:Generated_Source\PSoC4/CyLFClk.c ****                 }
 330:Generated_Source\PSoC4/CyLFClk.c ****                 else
 331:Generated_Source\PSoC4/CyLFClk.c ****                 {
 332:Generated_Source\PSoC4/CyLFClk.c ****                     returnStatus  = CYRET_INVALID_STATE;
 333:Generated_Source\PSoC4/CyLFClk.c ****                 }
 334:Generated_Source\PSoC4/CyLFClk.c ****             }
 335:Generated_Source\PSoC4/CyLFClk.c ****             else
 336:Generated_Source\PSoC4/CyLFClk.c ****             {
 337:Generated_Source\PSoC4/CyLFClk.c ****                 returnStatus = CYRET_STARTED;
 338:Generated_Source\PSoC4/CyLFClk.c ****             }
 339:Generated_Source\PSoC4/CyLFClk.c ****         }
 340:Generated_Source\PSoC4/CyLFClk.c ****         else
 341:Generated_Source\PSoC4/CyLFClk.c ****         {
 342:Generated_Source\PSoC4/CyLFClk.c ****             /* Reload CNTR 1 count value for next measurement cycle*/
 343:Generated_Source\PSoC4/CyLFClk.c ****             CY_SYS_CNT_REG1_REG = (cydelayFreqHz >> CY_SYS_CLK_SYS_CLK_DEVIDER);
 344:Generated_Source\PSoC4/CyLFClk.c ****             compensateRunningStatus = CY_SYS_CLK_TRIM_OR_COMP_STARTED;
 345:Generated_Source\PSoC4/CyLFClk.c ****             returnStatus = CYRET_STARTED;
 346:Generated_Source\PSoC4/CyLFClk.c ****         }
 347:Generated_Source\PSoC4/CyLFClk.c ****     }
 348:Generated_Source\PSoC4/CyLFClk.c ****     else
 349:Generated_Source\PSoC4/CyLFClk.c ****     {
 350:Generated_Source\PSoC4/CyLFClk.c ****         returnStatus = CYRET_INVALID_STATE;
 351:Generated_Source\PSoC4/CyLFClk.c ****     }
 352:Generated_Source\PSoC4/CyLFClk.c **** 
 353:Generated_Source\PSoC4/CyLFClk.c ****     return (returnStatus);
 354:Generated_Source\PSoC4/CyLFClk.c **** }
 355:Generated_Source\PSoC4/CyLFClk.c **** 
 356:Generated_Source\PSoC4/CyLFClk.c **** 
 357:Generated_Source\PSoC4/CyLFClk.c **** #if(CY_IP_SRSSV2)
 358:Generated_Source\PSoC4/CyLFClk.c ****     /*******************************************************************************
 359:Generated_Source\PSoC4/CyLFClk.c ****     * Function Name: CySysClkIloEnabled
 360:Generated_Source\PSoC4/CyLFClk.c ****     ****************************************************************************//**
 361:Generated_Source\PSoC4/CyLFClk.c ****     *
 362:Generated_Source\PSoC4/CyLFClk.c ****     * \internal
 363:Generated_Source\PSoC4/CyLFClk.c ****     * Reports the ILO enable state.
 364:Generated_Source\PSoC4/CyLFClk.c ****     *
 365:Generated_Source\PSoC4/CyLFClk.c ****     * \return
 366:Generated_Source\PSoC4/CyLFClk.c ****     * 1 if ILO is enabled, and 0 if ILO is disabled.
 367:Generated_Source\PSoC4/CyLFClk.c ****     *
 368:Generated_Source\PSoC4/CyLFClk.c ****     * \endinternal
 369:Generated_Source\PSoC4/CyLFClk.c ****     ********************************************************************************/
 370:Generated_Source\PSoC4/CyLFClk.c ****     static uint32 CySysClkIloEnabled(void)
 371:Generated_Source\PSoC4/CyLFClk.c ****     {
 372:Generated_Source\PSoC4/CyLFClk.c ****         /* Prohibits writing to WDT registers and ILO/WCO registers when not equal to 0 */
 373:Generated_Source\PSoC4/CyLFClk.c ****         return ((0u != (CY_SYS_CLK_ILO_CONFIG_REG & (uint32)(CY_SYS_CLK_ILO_CONFIG_ENABLE))) ?
ARM GAS  C:\Users\AFDHAL~1\AppData\Local\Temp\cc29CzqQ.s 			page 8


 374:Generated_Source\PSoC4/CyLFClk.c ****             (uint32) 1u :
 375:Generated_Source\PSoC4/CyLFClk.c ****             (uint32) 0u);
 376:Generated_Source\PSoC4/CyLFClk.c ****     }
 377:Generated_Source\PSoC4/CyLFClk.c **** #endif /* (CY_IP_SRSSV2) */
 378:Generated_Source\PSoC4/CyLFClk.c **** 
 379:Generated_Source\PSoC4/CyLFClk.c **** 
 380:Generated_Source\PSoC4/CyLFClk.c **** #if(CY_IP_SRSSV2 && (!CY_IP_CPUSS))
 381:Generated_Source\PSoC4/CyLFClk.c **** /********************************************************************************
 382:Generated_Source\PSoC4/CyLFClk.c **** * Function Name: CySysClkIloTrim
 383:Generated_Source\PSoC4/CyLFClk.c **** *****************************************************************************//**
 384:Generated_Source\PSoC4/CyLFClk.c **** * \brief
 385:Generated_Source\PSoC4/CyLFClk.c **** * The API trims the ILO frequency to +/- 10% accuracy range using accurate 
 386:Generated_Source\PSoC4/CyLFClk.c **** * SysClk.
 387:Generated_Source\PSoC4/CyLFClk.c **** *
 388:Generated_Source\PSoC4/CyLFClk.c **** * The API can be blocking or non-blocking depending on the value of the mode 
 389:Generated_Source\PSoC4/CyLFClk.c **** * parameter passed. The accuracy of ILO after trimming in parts per thousand 
 390:Generated_Source\PSoC4/CyLFClk.c **** * is returned through the iloAccuracyInPPT pointer. A positive number indicates 
 391:Generated_Source\PSoC4/CyLFClk.c **** * that the ILO is running fast and a negative number indicates that the ILO is 
 392:Generated_Source\PSoC4/CyLFClk.c **** * running slowly. This error is relative to the error in the reference clock 
 393:Generated_Source\PSoC4/CyLFClk.c **** * (SysClk), so the absolute error will be higher and depends on the accuracy 
 394:Generated_Source\PSoC4/CyLFClk.c **** * of the reference.
 395:Generated_Source\PSoC4/CyLFClk.c **** *
 396:Generated_Source\PSoC4/CyLFClk.c **** * The CySysClkIloStartMeasurement() API should be called prior to calling this 
 397:Generated_Source\PSoC4/CyLFClk.c **** * API. Otherwise it will return CYRET_INVALID_STATE as the measurement was not 
 398:Generated_Source\PSoC4/CyLFClk.c **** * started.
 399:Generated_Source\PSoC4/CyLFClk.c **** *
 400:Generated_Source\PSoC4/CyLFClk.c **** * \note SysClk should be sourced by IMO. Otherwise CySysClkIloTrim() and 
 401:Generated_Source\PSoC4/CyLFClk.c **** * CySysClkIloCompensate() API can give incorrect results.
 402:Generated_Source\PSoC4/CyLFClk.c **** *
 403:Generated_Source\PSoC4/CyLFClk.c **** * \note If System clock frequency is changed in runtime, the CyDelayFreq() 
 404:Generated_Source\PSoC4/CyLFClk.c **** * with the appropriate parameter (Frequency of bus clock in Hertz) should be 
 405:Generated_Source\PSoC4/CyLFClk.c **** * called before next CySysClkIloCompensate() usage.
 406:Generated_Source\PSoC4/CyLFClk.c **** *
 407:Generated_Source\PSoC4/CyLFClk.c **** * \warning Do not enter deep sleep mode until the function returns CYRET_SUCCESS
 408:Generated_Source\PSoC4/CyLFClk.c **** * or CYRET_TIMEOUT.
 409:Generated_Source\PSoC4/CyLFClk.c **** *
 410:Generated_Source\PSoC4/CyLFClk.c **** * Available for all PSoC 4 devices with ILO trim capability. This excludes 
 411:Generated_Source\PSoC4/CyLFClk.c **** * PSoC 4000 / PSoC 4100 / PSoC 4200 / PSoC 4000S / PSoC 4100S / PSoC
 412:Generated_Source\PSoC4/CyLFClk.c **** * Analog Coprocessor devices.
 413:Generated_Source\PSoC4/CyLFClk.c **** *
 414:Generated_Source\PSoC4/CyLFClk.c **** * \param mode
 415:Generated_Source\PSoC4/CyLFClk.c **** *  CY_SYS_CLK_BLOCKING -  The function does not return until the ILO is 
 416:Generated_Source\PSoC4/CyLFClk.c **** * within +/-10% accuracy range or time out has occurred.<br>
 417:Generated_Source\PSoC4/CyLFClk.c **** * CY_SYS_CLK_NON_BLOCKING - The function returns immediately after 
 418:Generated_Source\PSoC4/CyLFClk.c **** * performing a single iteration of the trim process. The function should be 
 419:Generated_Source\PSoC4/CyLFClk.c **** * called repeatedly until the trimming is completed successfully.
 420:Generated_Source\PSoC4/CyLFClk.c **** *
 421:Generated_Source\PSoC4/CyLFClk.c **** * \param *iloAccuracyInPPT Pointer to an integer in which the trimmed ILO 
 422:Generated_Source\PSoC4/CyLFClk.c **** * accuracy will be returned.
 423:Generated_Source\PSoC4/CyLFClk.c **** *
 424:Generated_Source\PSoC4/CyLFClk.c **** * \details The value returned in *iloAccuracyInPPT pointer is not valid 
 425:Generated_Source\PSoC4/CyLFClk.c **** * until the function returns CYRET_SUCCESS. ILO accuracy in PPT is given by:
 426:Generated_Source\PSoC4/CyLFClk.c **** *
 427:Generated_Source\PSoC4/CyLFClk.c **** * IloAccuracyInPPT = ((MeasuredIloFreq - DesiredIloFreq) * 
 428:Generated_Source\PSoC4/CyLFClk.c **** * CY_SYS_CLK_PERTHOUSAND) / DesiredIloFreq);
 429:Generated_Source\PSoC4/CyLFClk.c **** *
 430:Generated_Source\PSoC4/CyLFClk.c **** * DesiredIloFreq  = 32000, CY_SYS_CLK_PERTHOUSAND = 1000;
ARM GAS  C:\Users\AFDHAL~1\AppData\Local\Temp\cc29CzqQ.s 			page 9


 431:Generated_Source\PSoC4/CyLFClk.c **** *
 432:Generated_Source\PSoC4/CyLFClk.c **** * \return CYRET_SUCCESS - Indicates trimming is complete. This value indicates 
 433:Generated_Source\PSoC4/CyLFClk.c **** * trimming is successful and iloAccuracyInPPT is within +/- 10%.
 434:Generated_Source\PSoC4/CyLFClk.c **** *
 435:Generated_Source\PSoC4/CyLFClk.c **** * \return CYRET_STARTED - Indicates measurement is in progress. This is applicable 
 436:Generated_Source\PSoC4/CyLFClk.c **** * only for non-blocking mode.
 437:Generated_Source\PSoC4/CyLFClk.c **** *
 438:Generated_Source\PSoC4/CyLFClk.c **** * \return CYRET_INVALID_STATE - Indicates trimming was unsuccessful. You should 
 439:Generated_Source\PSoC4/CyLFClk.c **** * call CySysClkIloStartMeasurement() before calling this API.
 440:Generated_Source\PSoC4/CyLFClk.c **** *
 441:Generated_Source\PSoC4/CyLFClk.c **** * \return CYRET_TIMEOUT - Indicates trimming was unsuccessful. This is applicable 
 442:Generated_Source\PSoC4/CyLFClk.c **** * only for blocking mode. Timeout means the trimming was tried 5 times without 
 443:Generated_Source\PSoC4/CyLFClk.c **** * success (i.e. ILO accuracy > +/- 10%). The user can call the API again for 
 444:Generated_Source\PSoC4/CyLFClk.c **** * another try or wait for some time before calling it again (to let the system 
 445:Generated_Source\PSoC4/CyLFClk.c **** * to settle to another operating point change in temperature etc.) and continue 
 446:Generated_Source\PSoC4/CyLFClk.c **** * using the previous trim value till the next call.
 447:Generated_Source\PSoC4/CyLFClk.c **** *
 448:Generated_Source\PSoC4/CyLFClk.c **** **********************************************************************************/
 449:Generated_Source\PSoC4/CyLFClk.c **** cystatus CySysClkIloTrim(uint32 mode, int32* iloAccuracyInPPT)
 450:Generated_Source\PSoC4/CyLFClk.c **** {
 451:Generated_Source\PSoC4/CyLFClk.c ****     uint32 timeOutClocks = CY_SYS_CLK_TIMEOUT;
 452:Generated_Source\PSoC4/CyLFClk.c ****     uint32 waitUntilCntr1Stops;
 453:Generated_Source\PSoC4/CyLFClk.c ****     static uint32 trimRunningStatus = CY_SYS_CLK_TRIM_OR_COMP_FINISHED;
 454:Generated_Source\PSoC4/CyLFClk.c ****     uint32 checkStatus;
 455:Generated_Source\PSoC4/CyLFClk.c ****     cystatus returnStatus;
 456:Generated_Source\PSoC4/CyLFClk.c **** 
 457:Generated_Source\PSoC4/CyLFClk.c ****     checkStatus = (uint32) (CY_SYS_CLK_DFT_REG & (uint32) CY_SYS_TST_DDFT_CTRL_REG_DEFAULT_MASK);
 458:Generated_Source\PSoC4/CyLFClk.c **** 
 459:Generated_Source\PSoC4/CyLFClk.c ****     /* Check if DFT and CTRL registers were configures in CySysStartMeasurement*/
 460:Generated_Source\PSoC4/CyLFClk.c ****     if((checkStatus == CY_SYS_CLK_SEL_ILO_DFT_SOURCE) &&
 461:Generated_Source\PSoC4/CyLFClk.c ****        (CY_SYS_TST_DDFT_CTRL_REG == CY_SYS_TST_DDFT_CTRL_REG_SEL2_CLK1) &&
 462:Generated_Source\PSoC4/CyLFClk.c ****        (iloAccuracyInPPT != NULL))
 463:Generated_Source\PSoC4/CyLFClk.c ****     {
 464:Generated_Source\PSoC4/CyLFClk.c ****         if(CY_SYS_CLK_BLOCKING == mode)
 465:Generated_Source\PSoC4/CyLFClk.c ****         {
 466:Generated_Source\PSoC4/CyLFClk.c ****             waitUntilCntr1Stops = cydelayFreqHz >> CY_SYS_CLK_SYS_CLK_DEVIDER;
 467:Generated_Source\PSoC4/CyLFClk.c ****             do
 468:Generated_Source\PSoC4/CyLFClk.c ****             {
 469:Generated_Source\PSoC4/CyLFClk.c ****                 /* Reload CNTR 1 count value for measuring cycle*/
 470:Generated_Source\PSoC4/CyLFClk.c ****                 CY_SYS_CNT_REG1_REG = cydelayFreqHz >> CY_SYS_CLK_SYS_CLK_DEVIDER; 
 471:Generated_Source\PSoC4/CyLFClk.c **** 
 472:Generated_Source\PSoC4/CyLFClk.c ****                 /* Wait until counter CNTR 1 will finish down-counting */
 473:Generated_Source\PSoC4/CyLFClk.c ****                 while (0u == (CY_SYS_CNT_REG1_REG & CY_SYS_CLK_ILO_CALIBR_COMPLETE_MASK))
 474:Generated_Source\PSoC4/CyLFClk.c ****                 {
 475:Generated_Source\PSoC4/CyLFClk.c ****                     waitUntilCntr1Stops--;
 476:Generated_Source\PSoC4/CyLFClk.c ****                     if (0u == waitUntilCntr1Stops)
 477:Generated_Source\PSoC4/CyLFClk.c ****                     {
 478:Generated_Source\PSoC4/CyLFClk.c ****                         break;
 479:Generated_Source\PSoC4/CyLFClk.c ****                     }
 480:Generated_Source\PSoC4/CyLFClk.c ****                 }
 481:Generated_Source\PSoC4/CyLFClk.c ****                 trimRunningStatus = CySysClkIloUpdateTrimReg(iloAccuracyInPPT);
 482:Generated_Source\PSoC4/CyLFClk.c ****                 timeOutClocks--;
 483:Generated_Source\PSoC4/CyLFClk.c **** 
 484:Generated_Source\PSoC4/CyLFClk.c ****             /* Untill ILO accuracy will be in range less than +/- 10% or timeout occurs*/
 485:Generated_Source\PSoC4/CyLFClk.c ****             } while((CYRET_SUCCESS != trimRunningStatus) && 
 486:Generated_Source\PSoC4/CyLFClk.c ****               (CYRET_INVALID_STATE != trimRunningStatus) && 
 487:Generated_Source\PSoC4/CyLFClk.c ****                                (0u != timeOutClocks));
ARM GAS  C:\Users\AFDHAL~1\AppData\Local\Temp\cc29CzqQ.s 			page 10


 488:Generated_Source\PSoC4/CyLFClk.c **** 
 489:Generated_Source\PSoC4/CyLFClk.c ****             if (CYRET_SUCCESS == trimRunningStatus)
 490:Generated_Source\PSoC4/CyLFClk.c ****             {
 491:Generated_Source\PSoC4/CyLFClk.c ****                 returnStatus = CYRET_SUCCESS;
 492:Generated_Source\PSoC4/CyLFClk.c ****             }
 493:Generated_Source\PSoC4/CyLFClk.c ****             else
 494:Generated_Source\PSoC4/CyLFClk.c ****             {
 495:Generated_Source\PSoC4/CyLFClk.c ****                 if(0u == timeOutClocks)
 496:Generated_Source\PSoC4/CyLFClk.c ****                 {
 497:Generated_Source\PSoC4/CyLFClk.c ****                     trimRunningStatus = CY_SYS_CLK_TRIM_OR_COMP_FINISHED;
 498:Generated_Source\PSoC4/CyLFClk.c ****                     returnStatus = CYRET_TIMEOUT;
 499:Generated_Source\PSoC4/CyLFClk.c ****                 }
 500:Generated_Source\PSoC4/CyLFClk.c ****                 else
 501:Generated_Source\PSoC4/CyLFClk.c ****                 {
 502:Generated_Source\PSoC4/CyLFClk.c ****                     returnStatus = CYRET_INVALID_STATE;
 503:Generated_Source\PSoC4/CyLFClk.c ****                 }
 504:Generated_Source\PSoC4/CyLFClk.c ****             }
 505:Generated_Source\PSoC4/CyLFClk.c ****         }
 506:Generated_Source\PSoC4/CyLFClk.c ****         /* Non - blocking mode */
 507:Generated_Source\PSoC4/CyLFClk.c ****         else
 508:Generated_Source\PSoC4/CyLFClk.c ****         {
 509:Generated_Source\PSoC4/CyLFClk.c ****             if (CY_SYS_CLK_TRIM_OR_COMP_FINISHED != trimRunningStatus)
 510:Generated_Source\PSoC4/CyLFClk.c ****             {
 511:Generated_Source\PSoC4/CyLFClk.c ****                 /* Checking if the counter CNTR 1 finished down-counting */
 512:Generated_Source\PSoC4/CyLFClk.c ****                 if(0u != (CY_SYS_CNT_REG1_REG & CY_SYS_CLK_ILO_CALIBR_COMPLETE_MASK))
 513:Generated_Source\PSoC4/CyLFClk.c ****                 {
 514:Generated_Source\PSoC4/CyLFClk.c ****                     returnStatus = CySysClkIloUpdateTrimReg(iloAccuracyInPPT);
 515:Generated_Source\PSoC4/CyLFClk.c ****                     trimRunningStatus = CY_SYS_CLK_TRIM_OR_COMP_FINISHED;
 516:Generated_Source\PSoC4/CyLFClk.c ****                 }
 517:Generated_Source\PSoC4/CyLFClk.c ****                 else
 518:Generated_Source\PSoC4/CyLFClk.c ****                 {
 519:Generated_Source\PSoC4/CyLFClk.c ****                     returnStatus = CYRET_STARTED;
 520:Generated_Source\PSoC4/CyLFClk.c ****                 }
 521:Generated_Source\PSoC4/CyLFClk.c ****             }
 522:Generated_Source\PSoC4/CyLFClk.c ****             else
 523:Generated_Source\PSoC4/CyLFClk.c ****             {
 524:Generated_Source\PSoC4/CyLFClk.c ****                 /* Reload CNTR 1 count value for next measuring */
 525:Generated_Source\PSoC4/CyLFClk.c ****                 CY_SYS_CNT_REG1_REG = cydelayFreqHz >> CY_SYS_CLK_SYS_CLK_DEVIDER;
 526:Generated_Source\PSoC4/CyLFClk.c ****                 trimRunningStatus = CY_SYS_CLK_TRIM_OR_COMP_STARTED;
 527:Generated_Source\PSoC4/CyLFClk.c ****                 returnStatus = CYRET_STARTED;
 528:Generated_Source\PSoC4/CyLFClk.c ****             }
 529:Generated_Source\PSoC4/CyLFClk.c ****         }
 530:Generated_Source\PSoC4/CyLFClk.c ****     }
 531:Generated_Source\PSoC4/CyLFClk.c ****     else
 532:Generated_Source\PSoC4/CyLFClk.c ****     {
 533:Generated_Source\PSoC4/CyLFClk.c ****         returnStatus = CYRET_INVALID_STATE;
 534:Generated_Source\PSoC4/CyLFClk.c ****     }
 535:Generated_Source\PSoC4/CyLFClk.c **** 
 536:Generated_Source\PSoC4/CyLFClk.c ****     return (returnStatus);
 537:Generated_Source\PSoC4/CyLFClk.c **** }
 538:Generated_Source\PSoC4/CyLFClk.c **** 
 539:Generated_Source\PSoC4/CyLFClk.c **** 
 540:Generated_Source\PSoC4/CyLFClk.c **** /********************************************************************************
 541:Generated_Source\PSoC4/CyLFClk.c **** * Function Name: CySysClkIloUpdateTrimReg
 542:Generated_Source\PSoC4/CyLFClk.c **** *********************************************************************************
 543:Generated_Source\PSoC4/CyLFClk.c **** *
 544:Generated_Source\PSoC4/CyLFClk.c **** * \internal
ARM GAS  C:\Users\AFDHAL~1\AppData\Local\Temp\cc29CzqQ.s 			page 11


 545:Generated_Source\PSoC4/CyLFClk.c **** * Function calculates ILO accuracy and check is error range is higher than 
 546:Generated_Source\PSoC4/CyLFClk.c **** * +/- 10%. If Measured frequency is higher than +/- 10% function updates 
 547:Generated_Source\PSoC4/CyLFClk.c **** * ILO Trim register.
 548:Generated_Source\PSoC4/CyLFClk.c **** *
 549:Generated_Source\PSoC4/CyLFClk.c **** * \param
 550:Generated_Source\PSoC4/CyLFClk.c **** * iloAccuracyInPPT Pointer to an integer in which the trimmed ILO 
 551:Generated_Source\PSoC4/CyLFClk.c **** * accuracy will be returned. The value returned in this pointer is not valid 
 552:Generated_Source\PSoC4/CyLFClk.c **** * until the function returns CYRET_SUCCESS. If ILO frequency error is lower 
 553:Generated_Source\PSoC4/CyLFClk.c **** * than +/- 10% then the value returned in this pointer will be updated.
 554:Generated_Source\PSoC4/CyLFClk.c **** *
 555:Generated_Source\PSoC4/CyLFClk.c **** * \return CYRET_SUCCESS - Indicates that ILO frequency error is lower than 
 556:Generated_Source\PSoC4/CyLFClk.c **** * +/- 10% and no actions are required.
 557:Generated_Source\PSoC4/CyLFClk.c **** *
 558:Generated_Source\PSoC4/CyLFClk.c **** * \return  CYRET_STARTED - Indicates that ILO frequency error is higher than 
 559:Generated_Source\PSoC4/CyLFClk.c **** * +/- 10% and ILO Trim register was updated.
 560:Generated_Source\PSoC4/CyLFClk.c **** *
 561:Generated_Source\PSoC4/CyLFClk.c **** * \return CYRET_INVALID_STATE - Indicates trimming was unsuccessful.
 562:Generated_Source\PSoC4/CyLFClk.c **** *
 563:Generated_Source\PSoC4/CyLFClk.c **** * Post #1 - To obtain 10% ILO accuracy the calculated accuracy should be equal 
 564:Generated_Source\PSoC4/CyLFClk.c **** * CY_SYS_CLK_ERROR_RANGE = 5.6%. Error value should take to account IMO error of 
 565:Generated_Source\PSoC4/CyLFClk.c **** * +/-2% (+/-0.64kHz), trim step of 2.36kHz (+/-1.18kHz) and error while ILO 
 566:Generated_Source\PSoC4/CyLFClk.c **** * frequency measuring.
 567:Generated_Source\PSoC4/CyLFClk.c **** *
 568:Generated_Source\PSoC4/CyLFClk.c **** * \endinternal
 569:Generated_Source\PSoC4/CyLFClk.c **** *
 570:Generated_Source\PSoC4/CyLFClk.c **** **********************************************************************************/
 571:Generated_Source\PSoC4/CyLFClk.c **** cystatus CySysClkIloUpdateTrimReg(int32* iloAccuracyInPPT)
 572:Generated_Source\PSoC4/CyLFClk.c **** {
 573:Generated_Source\PSoC4/CyLFClk.c ****     uint32 measuredIloFreq;
 574:Generated_Source\PSoC4/CyLFClk.c ****     uint32 currentIloTrimValue;
 575:Generated_Source\PSoC4/CyLFClk.c ****     int32 iloAccuracyValue;
 576:Generated_Source\PSoC4/CyLFClk.c ****     int32 trimStep;
 577:Generated_Source\PSoC4/CyLFClk.c ****     cystatus errorRangeStatus;
 578:Generated_Source\PSoC4/CyLFClk.c **** 
 579:Generated_Source\PSoC4/CyLFClk.c ****     if(0u != CY_SYS_CNT_REG2_REG)
 580:Generated_Source\PSoC4/CyLFClk.c ****     {
 581:Generated_Source\PSoC4/CyLFClk.c ****         measuredIloFreq = (CY_SYS_CNT_REG2_REG * cydelayFreqHz) / (cydelayFreqHz >> CY_SYS_CLK_SYS_
 582:Generated_Source\PSoC4/CyLFClk.c **** 
 583:Generated_Source\PSoC4/CyLFClk.c ****         /* Calculate value of error in PPT according to formula - 
 584:Generated_Source\PSoC4/CyLFClk.c ****         *       ((measuredIlofrequency - iloDesired frequency) * 1000 / iloDesired frequency) */
 585:Generated_Source\PSoC4/CyLFClk.c ****         iloAccuracyValue = (((int32) measuredIloFreq - (int32) CY_SYS_CLK_ILO_DESIRED_FREQ_HZ) * \
 586:Generated_Source\PSoC4/CyLFClk.c ****                             ((int32) CY_SYS_CLK_PERTHOUSAND)) / ((int32) CY_SYS_CLK_ILO_DESIRED_FRE
 587:Generated_Source\PSoC4/CyLFClk.c **** 
 588:Generated_Source\PSoC4/CyLFClk.c ****         /* Check if ILO accuracy is more than +/- CY_SYS_CLK_ERROR_RANGE. See post #1 of API descri
 589:Generated_Source\PSoC4/CyLFClk.c ****         if(CY_SYS_CLK_ERROR_RANGE < (uint32) (CY_SYS_CLK_ABS_MACRO(iloAccuracyValue)))
 590:Generated_Source\PSoC4/CyLFClk.c ****         {
 591:Generated_Source\PSoC4/CyLFClk.c ****             if (0 < iloAccuracyValue)
 592:Generated_Source\PSoC4/CyLFClk.c ****             {
 593:Generated_Source\PSoC4/CyLFClk.c ****                 trimStep = (int32) (((iloAccuracyValue * (int32) CY_SYS_CLK_ERROR_COEF) + 
 594:Generated_Source\PSoC4/CyLFClk.c ****                 CY_SYS_CLK_HALF_OF_STEP) / CY_SYS_CLK_ERROR_STEP);
 595:Generated_Source\PSoC4/CyLFClk.c ****             }
 596:Generated_Source\PSoC4/CyLFClk.c ****             else
 597:Generated_Source\PSoC4/CyLFClk.c ****             {
 598:Generated_Source\PSoC4/CyLFClk.c ****                 trimStep = (int32) (((iloAccuracyValue * (int32) CY_SYS_CLK_ERROR_COEF) - 
 599:Generated_Source\PSoC4/CyLFClk.c ****                 CY_SYS_CLK_HALF_OF_STEP) / CY_SYS_CLK_ERROR_STEP);
 600:Generated_Source\PSoC4/CyLFClk.c ****             }
 601:Generated_Source\PSoC4/CyLFClk.c ****             currentIloTrimValue = (CY_SYS_CLK_ILO_TRIM_REG & CY_SYS_CLK_ILO_TRIM_MASK);
ARM GAS  C:\Users\AFDHAL~1\AppData\Local\Temp\cc29CzqQ.s 			page 12


 602:Generated_Source\PSoC4/CyLFClk.c ****             trimStep = (int32) currentIloTrimValue - trimStep;
 603:Generated_Source\PSoC4/CyLFClk.c **** 
 604:Generated_Source\PSoC4/CyLFClk.c ****             if(trimStep > CY_SYS_CLK_FOURBITS_MAX)
 605:Generated_Source\PSoC4/CyLFClk.c ****             {
 606:Generated_Source\PSoC4/CyLFClk.c ****                 trimStep = CY_SYS_CLK_FOURBITS_MAX;
 607:Generated_Source\PSoC4/CyLFClk.c ****             }
 608:Generated_Source\PSoC4/CyLFClk.c ****             if(trimStep < 0)
 609:Generated_Source\PSoC4/CyLFClk.c ****             {
 610:Generated_Source\PSoC4/CyLFClk.c ****                 trimStep = 0;
 611:Generated_Source\PSoC4/CyLFClk.c ****             }
 612:Generated_Source\PSoC4/CyLFClk.c ****             CY_SYS_CLK_ILO_TRIM_REG = (CY_SYS_CLK_ILO_TRIM_REG & (uint32)(~CY_SYS_CLK_ILO_TRIM_MASK
 613:Generated_Source\PSoC4/CyLFClk.c ****                                                                  ((uint32) trimStep);
 614:Generated_Source\PSoC4/CyLFClk.c ****             errorRangeStatus = CYRET_STARTED;
 615:Generated_Source\PSoC4/CyLFClk.c ****         } /* Else return success because error is in +/- 10% range*/
 616:Generated_Source\PSoC4/CyLFClk.c ****         else
 617:Generated_Source\PSoC4/CyLFClk.c ****         {
 618:Generated_Source\PSoC4/CyLFClk.c ****             /* Write trimmed ILO accuracy through pointer. */
 619:Generated_Source\PSoC4/CyLFClk.c ****             *iloAccuracyInPPT = iloAccuracyValue;
 620:Generated_Source\PSoC4/CyLFClk.c ****             errorRangeStatus = CYRET_SUCCESS;
 621:Generated_Source\PSoC4/CyLFClk.c ****         }
 622:Generated_Source\PSoC4/CyLFClk.c ****     }
 623:Generated_Source\PSoC4/CyLFClk.c ****     else
 624:Generated_Source\PSoC4/CyLFClk.c ****     {
 625:Generated_Source\PSoC4/CyLFClk.c ****         errorRangeStatus = CYRET_INVALID_STATE;
 626:Generated_Source\PSoC4/CyLFClk.c ****     }
 627:Generated_Source\PSoC4/CyLFClk.c **** return (errorRangeStatus);
 628:Generated_Source\PSoC4/CyLFClk.c **** }
 629:Generated_Source\PSoC4/CyLFClk.c **** 
 630:Generated_Source\PSoC4/CyLFClk.c **** 
 631:Generated_Source\PSoC4/CyLFClk.c **** /*******************************************************************************
 632:Generated_Source\PSoC4/CyLFClk.c **** * Function Name: CySysClkIloRestoreFactoryTrim
 633:Generated_Source\PSoC4/CyLFClk.c **** ****************************************************************************//**
 634:Generated_Source\PSoC4/CyLFClk.c **** * \brief
 635:Generated_Source\PSoC4/CyLFClk.c **** * Restores the ILO Trim Register to factory value.
 636:Generated_Source\PSoC4/CyLFClk.c **** *
 637:Generated_Source\PSoC4/CyLFClk.c **** * The CySysClkIloStartMeasurement() API should be called prior to 
 638:Generated_Source\PSoC4/CyLFClk.c **** * calling this API. Otherwise CYRET_UNKNOWN will be returned.
 639:Generated_Source\PSoC4/CyLFClk.c **** *
 640:Generated_Source\PSoC4/CyLFClk.c **** * Available for all PSoC 4 devices except for PSoC 4000 / PSoC 4100 / PSoC 4200 
 641:Generated_Source\PSoC4/CyLFClk.c **** * / PSoC 4000S / PSoC 4100S / PSoC Analog Coprocessor devices.
 642:Generated_Source\PSoC4/CyLFClk.c **** *
 643:Generated_Source\PSoC4/CyLFClk.c **** * \return CYRET_SUCCESS - Operation was successful. 
 644:Generated_Source\PSoC4/CyLFClk.c **** * \return CYRET_UNKNOWN - CySysClkIloStartMeasurement() was not called 
 645:Generated_Source\PSoC4/CyLFClk.c **** * before this API. Hence the trim value cannot be updated.
 646:Generated_Source\PSoC4/CyLFClk.c **** *
 647:Generated_Source\PSoC4/CyLFClk.c **** ******************************************************************************/
 648:Generated_Source\PSoC4/CyLFClk.c **** cystatus CySysClkIloRestoreFactoryTrim(void)
 649:Generated_Source\PSoC4/CyLFClk.c **** {
 650:Generated_Source\PSoC4/CyLFClk.c ****     cystatus returnStatus = CYRET_SUCCESS;
 651:Generated_Source\PSoC4/CyLFClk.c **** 
 652:Generated_Source\PSoC4/CyLFClk.c ****     /* Check was defaultIloTrimRegValue modified in CySysClkIloStartMeasurement */
 653:Generated_Source\PSoC4/CyLFClk.c ****     if(CY_SYS_CLK_ILO_TRIM_DEFAULT_VALUE != defaultIloTrimRegValue)
 654:Generated_Source\PSoC4/CyLFClk.c ****         {
 655:Generated_Source\PSoC4/CyLFClk.c ****             CY_SYS_CLK_ILO_TRIM_REG = ((CY_SYS_CLK_ILO_TRIM_REG & (uint32)(~CY_SYS_CLK_ILO_TRIM_MAS
 656:Generated_Source\PSoC4/CyLFClk.c ****                                        (defaultIloTrimRegValue & CY_SYS_CLK_ILO_TRIM_MASK));
 657:Generated_Source\PSoC4/CyLFClk.c ****         }
 658:Generated_Source\PSoC4/CyLFClk.c ****         else
ARM GAS  C:\Users\AFDHAL~1\AppData\Local\Temp\cc29CzqQ.s 			page 13


 659:Generated_Source\PSoC4/CyLFClk.c ****         {
 660:Generated_Source\PSoC4/CyLFClk.c ****             returnStatus = CYRET_UNKNOWN;
 661:Generated_Source\PSoC4/CyLFClk.c ****         }
 662:Generated_Source\PSoC4/CyLFClk.c **** 
 663:Generated_Source\PSoC4/CyLFClk.c ****         return (returnStatus);
 664:Generated_Source\PSoC4/CyLFClk.c **** }
 665:Generated_Source\PSoC4/CyLFClk.c **** #endif /* (CY_IP_SRSSV2 && (!CY_IP_CPUSS)) */
 666:Generated_Source\PSoC4/CyLFClk.c **** 
 667:Generated_Source\PSoC4/CyLFClk.c **** 
 668:Generated_Source\PSoC4/CyLFClk.c **** #if (CY_IP_WCO && CY_IP_SRSSV2)
 669:Generated_Source\PSoC4/CyLFClk.c ****     /*******************************************************************************
 670:Generated_Source\PSoC4/CyLFClk.c ****     * Function Name: CySysClkGetLfclkSource
 671:Generated_Source\PSoC4/CyLFClk.c ****     ********************************************************************************
 672:Generated_Source\PSoC4/CyLFClk.c ****     *
 673:Generated_Source\PSoC4/CyLFClk.c ****     * \internal
 674:Generated_Source\PSoC4/CyLFClk.c ****     *  Gets the clock source for the LFCLK clock.
 675:Generated_Source\PSoC4/CyLFClk.c ****     *  The function is applicable only for PSoC 4100 BLE / PSoC 4200 BLE / 
 676:Generated_Source\PSoC4/CyLFClk.c ****     *  PSoC 4100M / PSoC 4200M / PSoC 4200L.
 677:Generated_Source\PSoC4/CyLFClk.c ****     *
 678:Generated_Source\PSoC4/CyLFClk.c ****     * \return The LFCLK source:
 679:Generated_Source\PSoC4/CyLFClk.c ****     * CY_SYS_CLK_LFCLK_SRC_ILO Internal Low Frequency (32 kHz) Oscillator (ILO)
 680:Generated_Source\PSoC4/CyLFClk.c ****     * CY_SYS_CLK_LFCLK_SRC_WCO Low Frequency Watch Crystal Oscillator (WCO)
 681:Generated_Source\PSoC4/CyLFClk.c ****     *
 682:Generated_Source\PSoC4/CyLFClk.c ****     * \endinternal
 683:Generated_Source\PSoC4/CyLFClk.c ****     *
 684:Generated_Source\PSoC4/CyLFClk.c ****     *******************************************************************************/
 685:Generated_Source\PSoC4/CyLFClk.c ****     static uint32 CySysClkGetLfclkSource(void)
 686:Generated_Source\PSoC4/CyLFClk.c ****     {
 687:Generated_Source\PSoC4/CyLFClk.c ****         uint32 lfclkSource;
 688:Generated_Source\PSoC4/CyLFClk.c ****         lfclkSource = CY_SYS_WDT_CONFIG_REG & CY_SYS_CLK_LFCLK_SEL_MASK;
 689:Generated_Source\PSoC4/CyLFClk.c ****         return (lfclkSource);
 690:Generated_Source\PSoC4/CyLFClk.c ****     }
 691:Generated_Source\PSoC4/CyLFClk.c **** 
 692:Generated_Source\PSoC4/CyLFClk.c **** 
 693:Generated_Source\PSoC4/CyLFClk.c ****     /*******************************************************************************
 694:Generated_Source\PSoC4/CyLFClk.c ****     * Function Name: CySysClkSetLfclkSource
 695:Generated_Source\PSoC4/CyLFClk.c ****     ****************************************************************************//**
 696:Generated_Source\PSoC4/CyLFClk.c ****     * \brief
 697:Generated_Source\PSoC4/CyLFClk.c ****     *  Sets the clock source for the LFCLK clock.
 698:Generated_Source\PSoC4/CyLFClk.c ****     *
 699:Generated_Source\PSoC4/CyLFClk.c ****     * The switch between LFCLK sources must be done between the positive edges of
 700:Generated_Source\PSoC4/CyLFClk.c ****     * LFCLK, because the glitch risk is around the LFCLK positive edge. To ensure
 701:Generated_Source\PSoC4/CyLFClk.c ****     * that the switch can be done safely, the WDT counter value is read until it
 702:Generated_Source\PSoC4/CyLFClk.c ****     * changes.
 703:Generated_Source\PSoC4/CyLFClk.c ****     *
 704:Generated_Source\PSoC4/CyLFClk.c ****     * That means that the positive edge just finished and the switch is performed.
 705:Generated_Source\PSoC4/CyLFClk.c ****     * The enabled WDT counter is used for that purpose. If no counters are enabled,
 706:Generated_Source\PSoC4/CyLFClk.c ****     * counter 0 is enabled. And after the LFCLK source is switched, counter 0
 707:Generated_Source\PSoC4/CyLFClk.c ****     * configuration is restored.
 708:Generated_Source\PSoC4/CyLFClk.c ****     *
 709:Generated_Source\PSoC4/CyLFClk.c ****     *  The function is applicable only for devices with more than one source for 
 710:Generated_Source\PSoC4/CyLFClk.c ****     * LFCLK - PSoC 4100 BLE / PSoC 4200 BLE / PRoC BLE / PSoC 4100M / PSoC 4200M / 
 711:Generated_Source\PSoC4/CyLFClk.c ****     * PSoC 4200L.
 712:Generated_Source\PSoC4/CyLFClk.c ****     *
 713:Generated_Source\PSoC4/CyLFClk.c ****     * \note For PSoC 4000S / PSoC 4100S / PSoC Analog Coprocessor devices LFCLK can
 714:Generated_Source\PSoC4/CyLFClk.c ****     * only be sourced from ILO even though WCO is available.
 715:Generated_Source\PSoC4/CyLFClk.c ****     *
ARM GAS  C:\Users\AFDHAL~1\AppData\Local\Temp\cc29CzqQ.s 			page 14


 716:Generated_Source\PSoC4/CyLFClk.c ****     * \param
 717:Generated_Source\PSoC4/CyLFClk.c ****     * source
 718:Generated_Source\PSoC4/CyLFClk.c ****     * CY_SYS_CLK_LFCLK_SRC_ILO - Internal Low Frequency (32 kHz) 
 719:Generated_Source\PSoC4/CyLFClk.c ****     * Oscillator (ILO).<br>
 720:Generated_Source\PSoC4/CyLFClk.c ****     * CY_SYS_CLK_LFCLK_SRC_WCO - Low Frequency Watch Crystal Oscillator (WCO).
 721:Generated_Source\PSoC4/CyLFClk.c ****     *
 722:Generated_Source\PSoC4/CyLFClk.c ****     * \details
 723:Generated_Source\PSoC4/CyLFClk.c ****     * This function has no effect if WDT is locked (CySysWdtLock() is called). 
 724:Generated_Source\PSoC4/CyLFClk.c ****     * Call CySysWdtUnlock() to unlock WDT.
 725:Generated_Source\PSoC4/CyLFClk.c ****     *
 726:Generated_Source\PSoC4/CyLFClk.c ****     * Both the current source and the new source must be running and stable before
 727:Generated_Source\PSoC4/CyLFClk.c ****     * calling this function.
 728:Generated_Source\PSoC4/CyLFClk.c ****     *
 729:Generated_Source\PSoC4/CyLFClk.c ****     * Changing the LFCLK clock source may change the LFCLK clock frequency and
 730:Generated_Source\PSoC4/CyLFClk.c ****     * affect the functionality that uses this clock. For example, watchdog timer
 731:Generated_Source\PSoC4/CyLFClk.c ****     * "uses this clock" or "this clock uses" (WDT) is clocked by LFCLK.
 732:Generated_Source\PSoC4/CyLFClk.c ****     *
 733:Generated_Source\PSoC4/CyLFClk.c ****     *******************************************************************************/
 734:Generated_Source\PSoC4/CyLFClk.c ****     void CySysClkSetLfclkSource(uint32 source)
 735:Generated_Source\PSoC4/CyLFClk.c ****     {
 736:Generated_Source\PSoC4/CyLFClk.c ****         uint8  interruptState;
 737:Generated_Source\PSoC4/CyLFClk.c **** 
 738:Generated_Source\PSoC4/CyLFClk.c ****         if (CySysClkGetLfclkSource() != source)
 739:Generated_Source\PSoC4/CyLFClk.c ****         {
 740:Generated_Source\PSoC4/CyLFClk.c ****             interruptState = CyEnterCriticalSection();
 741:Generated_Source\PSoC4/CyLFClk.c ****             CySysClkLfclkPosedgeCatch();
 742:Generated_Source\PSoC4/CyLFClk.c ****             CY_SYS_WDT_CONFIG_REG = (CY_SYS_WDT_CONFIG_REG & (uint32)(~CY_SYS_CLK_LFCLK_SEL_MASK)) 
 743:Generated_Source\PSoC4/CyLFClk.c ****                                     (source & CY_SYS_CLK_LFCLK_SEL_MASK);
 744:Generated_Source\PSoC4/CyLFClk.c ****             CySysClkLfclkPosedgeRestore();
 745:Generated_Source\PSoC4/CyLFClk.c ****             CyExitCriticalSection(interruptState);
 746:Generated_Source\PSoC4/CyLFClk.c ****         }
 747:Generated_Source\PSoC4/CyLFClk.c ****     }
 748:Generated_Source\PSoC4/CyLFClk.c **** #endif /* (CY_IP_WCO && CY_IP_SRSSV2) */
 749:Generated_Source\PSoC4/CyLFClk.c **** 
 750:Generated_Source\PSoC4/CyLFClk.c **** 
 751:Generated_Source\PSoC4/CyLFClk.c **** #if (CY_IP_WCO)
 752:Generated_Source\PSoC4/CyLFClk.c ****     /*******************************************************************************
 753:Generated_Source\PSoC4/CyLFClk.c ****     * Function Name: CySysClkWcoStart
 754:Generated_Source\PSoC4/CyLFClk.c ****     ****************************************************************************//**
 755:Generated_Source\PSoC4/CyLFClk.c ****     * \brief
 756:Generated_Source\PSoC4/CyLFClk.c ****     *  Enables Watch Crystal Oscillator (WCO).
 757:Generated_Source\PSoC4/CyLFClk.c ****     * 
 758:Generated_Source\PSoC4/CyLFClk.c ****     * This API enables WCO which is used as a source for LFCLK. Similar to ILO, 
 759:Generated_Source\PSoC4/CyLFClk.c ****     * WCO is also available in all modes except Hibernate and Stop modes.
 760:Generated_Source\PSoC4/CyLFClk.c ****     * \note In PSoC 4000S / PSoC 4100S / PSoC Analog Coprocessor devices
 761:Generated_Source\PSoC4/CyLFClk.c ****     * WCO cannot be a source for the LFCLK. 
 762:Generated_Source\PSoC4/CyLFClk.c ****     *
 763:Generated_Source\PSoC4/CyLFClk.c ****     *  WCO is always enabled in High Power Mode (HPM). Refer to the device
 764:Generated_Source\PSoC4/CyLFClk.c ****     *  datasheet for the  WCO startup time. Once WCO becomes stable it can be
 765:Generated_Source\PSoC4/CyLFClk.c ****     *  switched to Low Power Mode (LPM). Note that oscillator can be unstable
 766:Generated_Source\PSoC4/CyLFClk.c ****     *  during a switch and hence its output should not be used at that moment.
 767:Generated_Source\PSoC4/CyLFClk.c ****     *
 768:Generated_Source\PSoC4/CyLFClk.c ****     *  The CySysClkWcoSetPowerMode() function configures the WCO power mode.
 769:Generated_Source\PSoC4/CyLFClk.c ****     *
 770:Generated_Source\PSoC4/CyLFClk.c ****     *******************************************************************************/
 771:Generated_Source\PSoC4/CyLFClk.c ****     void CySysClkWcoStart(void)
 772:Generated_Source\PSoC4/CyLFClk.c ****     {
ARM GAS  C:\Users\AFDHAL~1\AppData\Local\Temp\cc29CzqQ.s 			page 15


 773:Generated_Source\PSoC4/CyLFClk.c ****         CySysClkWcoSetHighPowerMode();
 774:Generated_Source\PSoC4/CyLFClk.c ****         CY_SYS_CLK_WCO_CONFIG_REG |= CY_SYS_CLK_WCO_CONFIG_LPM_ENABLE;
 775:Generated_Source\PSoC4/CyLFClk.c ****     }
 776:Generated_Source\PSoC4/CyLFClk.c **** 
 777:Generated_Source\PSoC4/CyLFClk.c **** 
 778:Generated_Source\PSoC4/CyLFClk.c ****     /*******************************************************************************
 779:Generated_Source\PSoC4/CyLFClk.c ****     * Function Name: CySysClkWcoStop
 780:Generated_Source\PSoC4/CyLFClk.c ****     ****************************************************************************//**
 781:Generated_Source\PSoC4/CyLFClk.c ****     * \brief
 782:Generated_Source\PSoC4/CyLFClk.c ****     * Disables the 32 KHz Crystal Oscillator.
 783:Generated_Source\PSoC4/CyLFClk.c ****     *
 784:Generated_Source\PSoC4/CyLFClk.c ****     * API switch of WCO.
 785:Generated_Source\PSoC4/CyLFClk.c ****     * \note PSoC 4100S / PSoC Analog Coprocessor: WCO is required for DeepSleep 
 786:Generated_Source\PSoC4/CyLFClk.c ****     * Timer's operation.
 787:Generated_Source\PSoC4/CyLFClk.c ****     *
 788:Generated_Source\PSoC4/CyLFClk.c ****     *******************************************************************************/
 789:Generated_Source\PSoC4/CyLFClk.c ****     void  CySysClkWcoStop(void)
 790:Generated_Source\PSoC4/CyLFClk.c ****     {
 791:Generated_Source\PSoC4/CyLFClk.c ****         #if (CY_IP_SRSSV2)
 792:Generated_Source\PSoC4/CyLFClk.c ****             uint8  interruptState;
 793:Generated_Source\PSoC4/CyLFClk.c ****         #endif /* (CY_IP_SRSSV2) */
 794:Generated_Source\PSoC4/CyLFClk.c **** 
 795:Generated_Source\PSoC4/CyLFClk.c ****         if (0u != CySysClkWcoEnabled())
 796:Generated_Source\PSoC4/CyLFClk.c ****         {
 797:Generated_Source\PSoC4/CyLFClk.c ****             #if (CY_IP_SRSSV2)
 798:Generated_Source\PSoC4/CyLFClk.c ****                 if (CY_SYS_CLK_LFCLK_SRC_WCO == CySysClkGetLfclkSource())
 799:Generated_Source\PSoC4/CyLFClk.c ****                 {
 800:Generated_Source\PSoC4/CyLFClk.c ****                     interruptState = CyEnterCriticalSection();
 801:Generated_Source\PSoC4/CyLFClk.c ****                     CySysClkLfclkPosedgeCatch();
 802:Generated_Source\PSoC4/CyLFClk.c ****                     CY_SYS_CLK_WCO_CONFIG_REG &= (uint32) ~CY_SYS_CLK_WCO_CONFIG_LPM_ENABLE;
 803:Generated_Source\PSoC4/CyLFClk.c ****                     CySysClkLfclkPosedgeRestore();
 804:Generated_Source\PSoC4/CyLFClk.c ****                     CyExitCriticalSection(interruptState);
 805:Generated_Source\PSoC4/CyLFClk.c ****                 }
 806:Generated_Source\PSoC4/CyLFClk.c ****                 else /* Safe to disable - shortened pulse does not impact peripheral */
 807:Generated_Source\PSoC4/CyLFClk.c ****             #endif /* (CY_IP_SRSSV2) */
 808:Generated_Source\PSoC4/CyLFClk.c ****             {
 809:Generated_Source\PSoC4/CyLFClk.c ****                 CY_SYS_CLK_WCO_CONFIG_REG &= (uint32) ~CY_SYS_CLK_WCO_CONFIG_LPM_ENABLE;
 810:Generated_Source\PSoC4/CyLFClk.c ****             }
 811:Generated_Source\PSoC4/CyLFClk.c ****         } /* Otherwise do nothing. WCO configuration cannot be changed. */
 812:Generated_Source\PSoC4/CyLFClk.c ****     }
 813:Generated_Source\PSoC4/CyLFClk.c **** 
 814:Generated_Source\PSoC4/CyLFClk.c **** 
 815:Generated_Source\PSoC4/CyLFClk.c ****     /*******************************************************************************
 816:Generated_Source\PSoC4/CyLFClk.c ****     * Function Name: CySysClkWcoEnabled
 817:Generated_Source\PSoC4/CyLFClk.c ****     ****************************************************************************//**
 818:Generated_Source\PSoC4/CyLFClk.c ****     * \internal Reports the WCO enable state.
 819:Generated_Source\PSoC4/CyLFClk.c ****     *
 820:Generated_Source\PSoC4/CyLFClk.c ****     * \return 1 if WCO is enabled
 821:Generated_Source\PSoC4/CyLFClk.c ****     * \return 0 if WCO is disabled.
 822:Generated_Source\PSoC4/CyLFClk.c ****     * \endinternal
 823:Generated_Source\PSoC4/CyLFClk.c ****     *******************************************************************************/
 824:Generated_Source\PSoC4/CyLFClk.c ****     uint32 CySysClkWcoEnabled(void)
 825:Generated_Source\PSoC4/CyLFClk.c ****     {
 826:Generated_Source\PSoC4/CyLFClk.c ****         return ((0u != (CY_SYS_CLK_WCO_CONFIG_REG & (uint32)(CY_SYS_CLK_WCO_CONFIG_LPM_ENABLE))) ?
 827:Generated_Source\PSoC4/CyLFClk.c ****                 (uint32) 1u :
 828:Generated_Source\PSoC4/CyLFClk.c ****                 (uint32) 0u);
 829:Generated_Source\PSoC4/CyLFClk.c ****     }
ARM GAS  C:\Users\AFDHAL~1\AppData\Local\Temp\cc29CzqQ.s 			page 16


 830:Generated_Source\PSoC4/CyLFClk.c **** 
 831:Generated_Source\PSoC4/CyLFClk.c **** 
 832:Generated_Source\PSoC4/CyLFClk.c ****     /*******************************************************************************
 833:Generated_Source\PSoC4/CyLFClk.c ****     * Function Name: CySysClkWcoSetPowerMode
 834:Generated_Source\PSoC4/CyLFClk.c ****     ****************************************************************************//**
 835:Generated_Source\PSoC4/CyLFClk.c ****     * \brief
 836:Generated_Source\PSoC4/CyLFClk.c ****     * Sets the power mode for the 32 KHz WCO.
 837:Generated_Source\PSoC4/CyLFClk.c ****     *
 838:Generated_Source\PSoC4/CyLFClk.c ****     * By default (if this function is not called), the WCO is in High power mode 
 839:Generated_Source\PSoC4/CyLFClk.c ****     * during Active and device's low power modes
 840:Generated_Source\PSoC4/CyLFClk.c ****     *
 841:Generated_Source\PSoC4/CyLFClk.c ****     * \param mode
 842:Generated_Source\PSoC4/CyLFClk.c ****     * CY_SYS_CLK_WCO_HPM - The High Power mode.<br>
 843:Generated_Source\PSoC4/CyLFClk.c ****     * CY_SYS_CLK_WCO_LPM - The Low Power mode.
 844:Generated_Source\PSoC4/CyLFClk.c ****     *
 845:Generated_Source\PSoC4/CyLFClk.c ****     * \return A previous power mode. The same as the parameters.
 846:Generated_Source\PSoC4/CyLFClk.c ****     *
 847:Generated_Source\PSoC4/CyLFClk.c ****     * \note
 848:Generated_Source\PSoC4/CyLFClk.c ****     * The WCO Low Power mode is applicable for PSoC 4100 BLE / PSoC 4200 BLE devices.
 849:Generated_Source\PSoC4/CyLFClk.c ****     *
 850:Generated_Source\PSoC4/CyLFClk.c ****     *******************************************************************************/
 851:Generated_Source\PSoC4/CyLFClk.c ****     uint32 CySysClkWcoSetPowerMode(uint32 mode)
 852:Generated_Source\PSoC4/CyLFClk.c ****     {
 853:Generated_Source\PSoC4/CyLFClk.c ****         uint32 powerModeStatus;
 854:Generated_Source\PSoC4/CyLFClk.c **** 
 855:Generated_Source\PSoC4/CyLFClk.c ****         powerModeStatus = CY_SYS_CLK_WCO_CONFIG_REG & CY_SYS_CLK_WCO_CONFIG_LPM_EN;
 856:Generated_Source\PSoC4/CyLFClk.c **** 
 857:Generated_Source\PSoC4/CyLFClk.c ****         switch(mode)
 858:Generated_Source\PSoC4/CyLFClk.c ****         {
 859:Generated_Source\PSoC4/CyLFClk.c ****         case CY_SYS_CLK_WCO_HPM:
 860:Generated_Source\PSoC4/CyLFClk.c ****                 CySysClkWcoSetHighPowerMode();
 861:Generated_Source\PSoC4/CyLFClk.c ****             break;
 862:Generated_Source\PSoC4/CyLFClk.c **** 
 863:Generated_Source\PSoC4/CyLFClk.c ****         #if(CY_IP_BLESS)
 864:Generated_Source\PSoC4/CyLFClk.c ****             case CY_SYS_CLK_WCO_LPM:
 865:Generated_Source\PSoC4/CyLFClk.c ****                     CySysClkWcoSetLowPowerMode();
 866:Generated_Source\PSoC4/CyLFClk.c ****                 break;
 867:Generated_Source\PSoC4/CyLFClk.c ****         #endif /* (CY_IP_BLESS) */
 868:Generated_Source\PSoC4/CyLFClk.c **** 
 869:Generated_Source\PSoC4/CyLFClk.c ****         default:
 870:Generated_Source\PSoC4/CyLFClk.c ****             CYASSERT(0u != 0u);
 871:Generated_Source\PSoC4/CyLFClk.c ****             break;
 872:Generated_Source\PSoC4/CyLFClk.c ****         }
 873:Generated_Source\PSoC4/CyLFClk.c **** 
 874:Generated_Source\PSoC4/CyLFClk.c ****         return (powerModeStatus);
 875:Generated_Source\PSoC4/CyLFClk.c ****     }
 876:Generated_Source\PSoC4/CyLFClk.c **** 
 877:Generated_Source\PSoC4/CyLFClk.c **** 
 878:Generated_Source\PSoC4/CyLFClk.c ****     /*******************************************************************************
 879:Generated_Source\PSoC4/CyLFClk.c ****     * Function Name: CySysClkWcoClockOutSelect
 880:Generated_Source\PSoC4/CyLFClk.c ****     ****************************************************************************//**
 881:Generated_Source\PSoC4/CyLFClk.c ****     * \brief
 882:Generated_Source\PSoC4/CyLFClk.c ****     * Selects the WCO block output source.
 883:Generated_Source\PSoC4/CyLFClk.c ****     *
 884:Generated_Source\PSoC4/CyLFClk.c ****     * In addition to generating 32.768 kHz clock from external crystals, WCO 
 885:Generated_Source\PSoC4/CyLFClk.c ****     * can be sourced by external clock source using wco_out pin. The API help to
 886:Generated_Source\PSoC4/CyLFClk.c ****     * lets you select between the sources: External crystal or external pin.
ARM GAS  C:\Users\AFDHAL~1\AppData\Local\Temp\cc29CzqQ.s 			page 17


 887:Generated_Source\PSoC4/CyLFClk.c ****     *
 888:Generated_Source\PSoC4/CyLFClk.c ****     * If you want to use external pin to drive WCO the next procedure is required:
 889:Generated_Source\PSoC4/CyLFClk.c ****     * <br> 1) Disable the WCO.
 890:Generated_Source\PSoC4/CyLFClk.c ****     * <br> 2) Drive the wco_out pin to an external signal source.
 891:Generated_Source\PSoC4/CyLFClk.c ****     * <br> 3) Call CySysClkWcoClockOutSelect(CY_SYS_CLK_WCO_SEL_PIN).
 892:Generated_Source\PSoC4/CyLFClk.c ****     * <br> 4) Enable the WCO and wait for 15 us before clocking the XO pad at the high 
 893:Generated_Source\PSoC4/CyLFClk.c ****     * potential. Let's assume you are using the 1.6v clock amplitude, then the
 894:Generated_Source\PSoC4/CyLFClk.c ****     * sequence would start at 1.6v, then 0v, then 1.6v etc at a chosen frequency.
 895:Generated_Source\PSoC4/CyLFClk.c ****     *
 896:Generated_Source\PSoC4/CyLFClk.c ****     * If you want to use WCO after using an external pin source:
 897:Generated_Source\PSoC4/CyLFClk.c ****     * <br> 1) Disable the WCO.
 898:Generated_Source\PSoC4/CyLFClk.c ****     * <br> 2) Drive off wco_out pin with external signal source.
 899:Generated_Source\PSoC4/CyLFClk.c ****     * <br> 3) Call CySysClkWcoClockOutSelect(CY_SYS_CLK_WCO_SEL_CRYSTAL).
 900:Generated_Source\PSoC4/CyLFClk.c ****     * <br> 4) Enable the WCO.
 901:Generated_Source\PSoC4/CyLFClk.c ****     *
 902:Generated_Source\PSoC4/CyLFClk.c ****     * \warning 
 903:Generated_Source\PSoC4/CyLFClk.c ****     * Do not use the oscillator output clock prior to a 15uS delay in your system.
 904:Generated_Source\PSoC4/CyLFClk.c ****     * There are no limitations on the external clock frequency.
 905:Generated_Source\PSoC4/CyLFClk.c ****     * \warning 
 906:Generated_Source\PSoC4/CyLFClk.c ****     * When external clock source was selected to drive WCO block the IMO can be 
 907:Generated_Source\PSoC4/CyLFClk.c ****     * trimmed only when external clock source period is equal to WCO external
 908:Generated_Source\PSoC4/CyLFClk.c ****     * crystal period. Also external clock source accuracy should be higher 
 909:Generated_Source\PSoC4/CyLFClk.c ****     * or equal to WCO external crystal accuracy.
 910:Generated_Source\PSoC4/CyLFClk.c ****     *
 911:Generated_Source\PSoC4/CyLFClk.c ****     * \param clockSel
 912:Generated_Source\PSoC4/CyLFClk.c ****     * CY_SYS_CLK_WCO_SEL_CRYSTAL - Selects External crystal as clock 
 913:Generated_Source\PSoC4/CyLFClk.c ****     * source of WCO.<br>
 914:Generated_Source\PSoC4/CyLFClk.c ****     * CY_SYS_CLK_WCO_SEL_PIN - Selects External clock input on wco_in pin as 
 915:Generated_Source\PSoC4/CyLFClk.c ****     * clock source of WCO.
 916:Generated_Source\PSoC4/CyLFClk.c ****     *
 917:Generated_Source\PSoC4/CyLFClk.c ****     *******************************************************************************/
 918:Generated_Source\PSoC4/CyLFClk.c ****     void CySysClkWcoClockOutSelect(uint32 clockSel)
 919:Generated_Source\PSoC4/CyLFClk.c ****     {
 920:Generated_Source\PSoC4/CyLFClk.c ****         if (0u != CySysClkWcoEnabled())
 921:Generated_Source\PSoC4/CyLFClk.c ****         {
 922:Generated_Source\PSoC4/CyLFClk.c ****             if (1u >= clockSel)
 923:Generated_Source\PSoC4/CyLFClk.c ****             {
 924:Generated_Source\PSoC4/CyLFClk.c ****                 CY_SYS_CLK_WCO_CONFIG_REG = (CY_SYS_CLK_WCO_CONFIG_REG & (uint32)(~CY_SYS_CLK_WCO_S
 925:Generated_Source\PSoC4/CyLFClk.c ****                                         (clockSel << CY_SYS_CLK_WCO_SELECT_PIN_OFFSET);
 926:Generated_Source\PSoC4/CyLFClk.c ****             }
 927:Generated_Source\PSoC4/CyLFClk.c ****             else
 928:Generated_Source\PSoC4/CyLFClk.c ****             {
 929:Generated_Source\PSoC4/CyLFClk.c ****                 CYASSERT(0u != 0u);
 930:Generated_Source\PSoC4/CyLFClk.c ****             }
 931:Generated_Source\PSoC4/CyLFClk.c ****         }
 932:Generated_Source\PSoC4/CyLFClk.c ****     }
 933:Generated_Source\PSoC4/CyLFClk.c **** #endif  /* (CY_IP_WCO) */
 934:Generated_Source\PSoC4/CyLFClk.c **** 
 935:Generated_Source\PSoC4/CyLFClk.c **** 
 936:Generated_Source\PSoC4/CyLFClk.c **** #if(CY_IP_SRSSV2)
 937:Generated_Source\PSoC4/CyLFClk.c ****     /*******************************************************************************
 938:Generated_Source\PSoC4/CyLFClk.c ****     * Function Name: CySysWdtLock
 939:Generated_Source\PSoC4/CyLFClk.c ****     ****************************************************************************//**
 940:Generated_Source\PSoC4/CyLFClk.c ****     * \brief
 941:Generated_Source\PSoC4/CyLFClk.c ****     * Locks out configuration changes to the Watchdog timer registers and ILO
 942:Generated_Source\PSoC4/CyLFClk.c ****     * configuration register.
 943:Generated_Source\PSoC4/CyLFClk.c ****     *
ARM GAS  C:\Users\AFDHAL~1\AppData\Local\Temp\cc29CzqQ.s 			page 18


 944:Generated_Source\PSoC4/CyLFClk.c ****     * After this function is called, ILO clock can't be disabled until
 945:Generated_Source\PSoC4/CyLFClk.c ****     * CySysWdtUnlock() is called.
 946:Generated_Source\PSoC4/CyLFClk.c ****     *
 947:Generated_Source\PSoC4/CyLFClk.c ****     *******************************************************************************/
 948:Generated_Source\PSoC4/CyLFClk.c ****     void CySysWdtLock(void)
 949:Generated_Source\PSoC4/CyLFClk.c ****     {
 950:Generated_Source\PSoC4/CyLFClk.c ****         uint8 interruptState;
 951:Generated_Source\PSoC4/CyLFClk.c ****         interruptState = CyEnterCriticalSection();
 952:Generated_Source\PSoC4/CyLFClk.c **** 
 953:Generated_Source\PSoC4/CyLFClk.c ****         CY_SYS_CLK_SELECT_REG = (CY_SYS_CLK_SELECT_REG & (uint32)(~CY_SYS_WDT_CLK_LOCK_BITS_MASK)) 
 954:Generated_Source\PSoC4/CyLFClk.c ****                  CY_SYS_WDT_CLK_LOCK_BITS_MASK;
 955:Generated_Source\PSoC4/CyLFClk.c **** 
 956:Generated_Source\PSoC4/CyLFClk.c ****         CyExitCriticalSection(interruptState);
 957:Generated_Source\PSoC4/CyLFClk.c ****     }
 958:Generated_Source\PSoC4/CyLFClk.c **** 
 959:Generated_Source\PSoC4/CyLFClk.c **** 
 960:Generated_Source\PSoC4/CyLFClk.c ****     /*******************************************************************************
 961:Generated_Source\PSoC4/CyLFClk.c ****     * Function Name: CySysWdtLocked
 962:Generated_Source\PSoC4/CyLFClk.c ****     ****************************************************************************//**
 963:Generated_Source\PSoC4/CyLFClk.c ****     * \internal
 964:Generated_Source\PSoC4/CyLFClk.c ****     * Reports the WDT lock state.
 965:Generated_Source\PSoC4/CyLFClk.c ****     *
 966:Generated_Source\PSoC4/CyLFClk.c ****     * \return 1 - WDT is locked, and 0 - WDT is unlocked.
 967:Generated_Source\PSoC4/CyLFClk.c ****     * \endinternal
 968:Generated_Source\PSoC4/CyLFClk.c ****     *******************************************************************************/
 969:Generated_Source\PSoC4/CyLFClk.c ****     static uint32 CySysWdtLocked(void)
 970:Generated_Source\PSoC4/CyLFClk.c ****     {
 971:Generated_Source\PSoC4/CyLFClk.c ****         /* Prohibits writing to WDT registers and ILO/WCO registers when not equal 0 */
 972:Generated_Source\PSoC4/CyLFClk.c ****         return ((0u != (CY_SYS_CLK_SELECT_REG & (uint32)(CY_SYS_WDT_CLK_LOCK_BITS_MASK))) ? (uint32
 973:Generated_Source\PSoC4/CyLFClk.c ****     }
 974:Generated_Source\PSoC4/CyLFClk.c **** 
 975:Generated_Source\PSoC4/CyLFClk.c **** 
 976:Generated_Source\PSoC4/CyLFClk.c ****     /*******************************************************************************
 977:Generated_Source\PSoC4/CyLFClk.c ****     * Function Name: CySysWdtUnlock
 978:Generated_Source\PSoC4/CyLFClk.c ****     ****************************************************************************//**
 979:Generated_Source\PSoC4/CyLFClk.c ****     * \brief
 980:Generated_Source\PSoC4/CyLFClk.c ****     *  Unlocks the Watchdog Timer configuration register.
 981:Generated_Source\PSoC4/CyLFClk.c ****     *
 982:Generated_Source\PSoC4/CyLFClk.c ****     *******************************************************************************/
 983:Generated_Source\PSoC4/CyLFClk.c ****     void CySysWdtUnlock(void)
 984:Generated_Source\PSoC4/CyLFClk.c ****     {
 985:Generated_Source\PSoC4/CyLFClk.c ****         uint8 interruptState;
 986:Generated_Source\PSoC4/CyLFClk.c ****         interruptState = CyEnterCriticalSection();
 987:Generated_Source\PSoC4/CyLFClk.c **** 
 988:Generated_Source\PSoC4/CyLFClk.c ****         /* Removing WDT lock requires two writes */
 989:Generated_Source\PSoC4/CyLFClk.c ****         CY_SYS_CLK_SELECT_REG = ((CY_SYS_CLK_SELECT_REG & (uint32)(~CY_SYS_WDT_CLK_LOCK_BITS_MASK))
 990:Generated_Source\PSoC4/CyLFClk.c ****                 CY_SYS_WDT_CLK_LOCK_BIT0);
 991:Generated_Source\PSoC4/CyLFClk.c **** 
 992:Generated_Source\PSoC4/CyLFClk.c ****         CY_SYS_CLK_SELECT_REG = ((CY_SYS_CLK_SELECT_REG & (uint32)(~CY_SYS_WDT_CLK_LOCK_BITS_MASK))
 993:Generated_Source\PSoC4/CyLFClk.c ****                 CY_SYS_WDT_CLK_LOCK_BIT1);
 994:Generated_Source\PSoC4/CyLFClk.c **** 
 995:Generated_Source\PSoC4/CyLFClk.c ****         CyExitCriticalSection(interruptState);
 996:Generated_Source\PSoC4/CyLFClk.c ****     }
 997:Generated_Source\PSoC4/CyLFClk.c **** 
 998:Generated_Source\PSoC4/CyLFClk.c **** 
 999:Generated_Source\PSoC4/CyLFClk.c ****     /*******************************************************************************
1000:Generated_Source\PSoC4/CyLFClk.c ****     * Function Name: CySysWdtGetEnabledStatus
ARM GAS  C:\Users\AFDHAL~1\AppData\Local\Temp\cc29CzqQ.s 			page 19


1001:Generated_Source\PSoC4/CyLFClk.c ****     ****************************************************************************//**
1002:Generated_Source\PSoC4/CyLFClk.c ****     * \brief
1003:Generated_Source\PSoC4/CyLFClk.c ****     *  Reads the enabled status of one of the three WDT counters.
1004:Generated_Source\PSoC4/CyLFClk.c ****     *
1005:Generated_Source\PSoC4/CyLFClk.c ****     * \param counterNum: Valid range [0-2].  The number of the WDT counter.
1006:Generated_Source\PSoC4/CyLFClk.c ****     *
1007:Generated_Source\PSoC4/CyLFClk.c ****     * \return The status of the WDT counter:
1008:Generated_Source\PSoC4/CyLFClk.c ****     * \return 0 - If the counter is disabled.
1009:Generated_Source\PSoC4/CyLFClk.c ****     * \return 1 - If the counter is enabled.
1010:Generated_Source\PSoC4/CyLFClk.c ****     *
1011:Generated_Source\PSoC4/CyLFClk.c ****     * \details
1012:Generated_Source\PSoC4/CyLFClk.c ****     * This function returns an actual WDT counter status from the status register. It may
1013:Generated_Source\PSoC4/CyLFClk.c ****     * take up to 3 LFCLK cycles for the WDT status register to contain actual data
1014:Generated_Source\PSoC4/CyLFClk.c ****     * after the WDT counter is enabled.
1015:Generated_Source\PSoC4/CyLFClk.c ****     *
1016:Generated_Source\PSoC4/CyLFClk.c ****     *******************************************************************************/
1017:Generated_Source\PSoC4/CyLFClk.c ****     uint32 CySysWdtGetEnabledStatus(uint32 counterNum)
1018:Generated_Source\PSoC4/CyLFClk.c ****     {
1019:Generated_Source\PSoC4/CyLFClk.c ****         CYASSERT(counterNum < CY_SYS_WDT_COUNTERS_MAX);
1020:Generated_Source\PSoC4/CyLFClk.c ****         return ((CY_SYS_WDT_CONTROL_REG >> ((CY_SYS_WDT_CNT_SHIFT * counterNum) + CY_SYS_WDT_CNT_ST
1021:Generated_Source\PSoC4/CyLFClk.c ****     }
1022:Generated_Source\PSoC4/CyLFClk.c **** 
1023:Generated_Source\PSoC4/CyLFClk.c **** 
1024:Generated_Source\PSoC4/CyLFClk.c ****     /*******************************************************************************
1025:Generated_Source\PSoC4/CyLFClk.c ****     * Function Name: CySysWdtSetMode
1026:Generated_Source\PSoC4/CyLFClk.c ****     ****************************************************************************//**
1027:Generated_Source\PSoC4/CyLFClk.c ****     * \brief
1028:Generated_Source\PSoC4/CyLFClk.c ****     * Writes the mode of one of the three WDT counters.
1029:Generated_Source\PSoC4/CyLFClk.c ****     *
1030:Generated_Source\PSoC4/CyLFClk.c ****     * \param counterNum: Valid range [0-2].  The number of the WDT counter.
1031:Generated_Source\PSoC4/CyLFClk.c ****     *
1032:Generated_Source\PSoC4/CyLFClk.c ****     * \param mode
1033:Generated_Source\PSoC4/CyLFClk.c ****     *  CY_SYS_WDT_MODE_NONE - Free running.<br>
1034:Generated_Source\PSoC4/CyLFClk.c ****     * CY_SYS_WDT_MODE_INT - The interrupt generated on match for counter 0
1035:Generated_Source\PSoC4/CyLFClk.c ****     * and 1, and on bit toggle for counter 2.<br>
1036:Generated_Source\PSoC4/CyLFClk.c ****     * CY_SYS_WDT_MODE_RESET - Reset on match (valid for counter 0 and 1 only).<br>
1037:Generated_Source\PSoC4/CyLFClk.c ****     * CY_SYS_WDT_MODE_INT_RESET - Generate an interrupt.  Generate a reset on
1038:Generated_Source\PSoC4/CyLFClk.c ****     * the 3rd non-handled interrupt (valid for counter 0 and counter 1 only).
1039:Generated_Source\PSoC4/CyLFClk.c ****     *
1040:Generated_Source\PSoC4/CyLFClk.c ****     * \details
1041:Generated_Source\PSoC4/CyLFClk.c ****     * WDT counter counterNum should be disabled to set a mode. Otherwise, this
1042:Generated_Source\PSoC4/CyLFClk.c ****     * function call has no effect. If the specified counter is enabled,
1043:Generated_Source\PSoC4/CyLFClk.c ****     * call the CySysWdtDisable() function with the corresponding parameter to
1044:Generated_Source\PSoC4/CyLFClk.c ****     * disable the specified counter and wait for it to stop.
1045:Generated_Source\PSoC4/CyLFClk.c ****     *
1046:Generated_Source\PSoC4/CyLFClk.c ****     *******************************************************************************/
1047:Generated_Source\PSoC4/CyLFClk.c ****     void CySysWdtSetMode(uint32 counterNum, uint32 mode)
1048:Generated_Source\PSoC4/CyLFClk.c ****     {
1049:Generated_Source\PSoC4/CyLFClk.c ****         uint32 configRegValue;
1050:Generated_Source\PSoC4/CyLFClk.c **** 
1051:Generated_Source\PSoC4/CyLFClk.c ****         CYASSERT(counterNum < CY_SYS_WDT_COUNTERS_MAX);
1052:Generated_Source\PSoC4/CyLFClk.c **** 
1053:Generated_Source\PSoC4/CyLFClk.c ****         if(0u == CySysWdtGetEnabledStatus(counterNum))
1054:Generated_Source\PSoC4/CyLFClk.c ****         {
1055:Generated_Source\PSoC4/CyLFClk.c ****             configRegValue = CY_SYS_WDT_CONFIG_REG &
1056:Generated_Source\PSoC4/CyLFClk.c ****                                 (uint32)~((uint32)(CY_SYS_WDT_MODE_MASK << (counterNum * CY_SYS_WDT
1057:Generated_Source\PSoC4/CyLFClk.c ****             configRegValue |= (uint32)((mode & CY_SYS_WDT_MODE_MASK) << (counterNum * CY_SYS_WDT_CN
ARM GAS  C:\Users\AFDHAL~1\AppData\Local\Temp\cc29CzqQ.s 			page 20


1058:Generated_Source\PSoC4/CyLFClk.c ****             CY_SYS_WDT_CONFIG_REG = configRegValue;
1059:Generated_Source\PSoC4/CyLFClk.c ****         }
1060:Generated_Source\PSoC4/CyLFClk.c ****     }
1061:Generated_Source\PSoC4/CyLFClk.c **** 
1062:Generated_Source\PSoC4/CyLFClk.c **** 
1063:Generated_Source\PSoC4/CyLFClk.c ****     /*******************************************************************************
1064:Generated_Source\PSoC4/CyLFClk.c ****     * Function Name: CySysWdtGetMode
1065:Generated_Source\PSoC4/CyLFClk.c ****     ****************************************************************************//**
1066:Generated_Source\PSoC4/CyLFClk.c ****     * 
1067:Generated_Source\PSoC4/CyLFClk.c ****     * \brief Reads the mode of one of the three WDT counters.
1068:Generated_Source\PSoC4/CyLFClk.c ****     *
1069:Generated_Source\PSoC4/CyLFClk.c ****     * \param counterNum Valid range [0-2]. The number of the WDT counter.
1070:Generated_Source\PSoC4/CyLFClk.c ****     *
1071:Generated_Source\PSoC4/CyLFClk.c ****     * \return The mode of the counter. The same enumerated values as the mode 
1072:Generated_Source\PSoC4/CyLFClk.c ****     * parameter used in CySysWdtSetMode().
1073:Generated_Source\PSoC4/CyLFClk.c ****     *
1074:Generated_Source\PSoC4/CyLFClk.c ****     *******************************************************************************/
1075:Generated_Source\PSoC4/CyLFClk.c ****     uint32 CySysWdtGetMode(uint32 counterNum)
1076:Generated_Source\PSoC4/CyLFClk.c ****     {
1077:Generated_Source\PSoC4/CyLFClk.c ****         return ((CY_SYS_WDT_CONFIG_REG >> (counterNum * CY_SYS_WDT_CNT_SHIFT)) & CY_SYS_WDT_MODE_MA
1078:Generated_Source\PSoC4/CyLFClk.c ****     }
1079:Generated_Source\PSoC4/CyLFClk.c **** 
1080:Generated_Source\PSoC4/CyLFClk.c **** 
1081:Generated_Source\PSoC4/CyLFClk.c ****     /*******************************************************************************
1082:Generated_Source\PSoC4/CyLFClk.c ****     * Function Name: CySysWdtSetClearOnMatch
1083:Generated_Source\PSoC4/CyLFClk.c ****     ****************************************************************************//**
1084:Generated_Source\PSoC4/CyLFClk.c ****     * 
1085:Generated_Source\PSoC4/CyLFClk.c ****     * \brief Configures the WDT counter "clear on match" setting.
1086:Generated_Source\PSoC4/CyLFClk.c ****     *
1087:Generated_Source\PSoC4/CyLFClk.c ****     * If configured to "clear on match", the counter counts from 0 to MatchValue
1088:Generated_Source\PSoC4/CyLFClk.c ****     * giving it a period of (MatchValue + 1).
1089:Generated_Source\PSoC4/CyLFClk.c ****     *
1090:Generated_Source\PSoC4/CyLFClk.c ****     * \param counterNum
1091:Generated_Source\PSoC4/CyLFClk.c ****     * Valid range [0-1]. The number of the WDT counter. The match values are not
1092:Generated_Source\PSoC4/CyLFClk.c ****     * supported by counter 2.
1093:Generated_Source\PSoC4/CyLFClk.c ****     *
1094:Generated_Source\PSoC4/CyLFClk.c ****     * \param enable 0 to disable appropriate counter <br>
1095:Generated_Source\PSoC4/CyLFClk.c ****     *  1 to enable appropriate counter
1096:Generated_Source\PSoC4/CyLFClk.c ****     *
1097:Generated_Source\PSoC4/CyLFClk.c ****     * \details
1098:Generated_Source\PSoC4/CyLFClk.c ****     * WDT counter counterNum should be disabled. Otherwise this function call
1099:Generated_Source\PSoC4/CyLFClk.c ****     * has no effect. If the specified counter is enabled, call the CySysWdtDisable()
1100:Generated_Source\PSoC4/CyLFClk.c ****     * function with the corresponding parameter to disable the specified counter and
1101:Generated_Source\PSoC4/CyLFClk.c ****     * wait for it to stop. This may take up to three LFCLK cycles.
1102:Generated_Source\PSoC4/CyLFClk.c ****     *
1103:Generated_Source\PSoC4/CyLFClk.c ****     *******************************************************************************/
1104:Generated_Source\PSoC4/CyLFClk.c ****     void CySysWdtSetClearOnMatch(uint32 counterNum, uint32 enable)
1105:Generated_Source\PSoC4/CyLFClk.c ****     {
1106:Generated_Source\PSoC4/CyLFClk.c ****         uint32 configRegValue;
1107:Generated_Source\PSoC4/CyLFClk.c **** 
1108:Generated_Source\PSoC4/CyLFClk.c ****         CYASSERT((counterNum == CY_SYS_WDT_COUNTER0) ||
1109:Generated_Source\PSoC4/CyLFClk.c ****                  (counterNum == CY_SYS_WDT_COUNTER1));
1110:Generated_Source\PSoC4/CyLFClk.c **** 
1111:Generated_Source\PSoC4/CyLFClk.c ****         if(0u == CySysWdtGetEnabledStatus(counterNum))
1112:Generated_Source\PSoC4/CyLFClk.c ****         {
1113:Generated_Source\PSoC4/CyLFClk.c ****             configRegValue = CY_SYS_WDT_CONFIG_REG & (uint32)~((uint32)((uint32)1u << 
1114:Generated_Source\PSoC4/CyLFClk.c ****                                      ((counterNum * CY_SYS_WDT_CNT_SHIFT) + CY_SYS_WDT_CNT_MATCH_CL
ARM GAS  C:\Users\AFDHAL~1\AppData\Local\Temp\cc29CzqQ.s 			page 21


1115:Generated_Source\PSoC4/CyLFClk.c **** 
1116:Generated_Source\PSoC4/CyLFClk.c ****             configRegValue
1117:Generated_Source\PSoC4/CyLFClk.c ****                 |= (uint32)(enable << ((counterNum * CY_SYS_WDT_CNT_SHIFT) + CY_SYS_WDT_CNT_MATCH_C
1118:Generated_Source\PSoC4/CyLFClk.c **** 
1119:Generated_Source\PSoC4/CyLFClk.c ****             CY_SYS_WDT_CONFIG_REG = configRegValue;
1120:Generated_Source\PSoC4/CyLFClk.c ****         }
1121:Generated_Source\PSoC4/CyLFClk.c ****     }
1122:Generated_Source\PSoC4/CyLFClk.c **** 
1123:Generated_Source\PSoC4/CyLFClk.c **** 
1124:Generated_Source\PSoC4/CyLFClk.c ****     /*******************************************************************************
1125:Generated_Source\PSoC4/CyLFClk.c ****     * Function Name: CySysWdtGetClearOnMatch
1126:Generated_Source\PSoC4/CyLFClk.c ****     ****************************************************************************//**
1127:Generated_Source\PSoC4/CyLFClk.c ****     * \brief
1128:Generated_Source\PSoC4/CyLFClk.c ****     * Reads the "clear on match" setting for the specified counter.
1129:Generated_Source\PSoC4/CyLFClk.c ****     *
1130:Generated_Source\PSoC4/CyLFClk.c ****     * \param
1131:Generated_Source\PSoC4/CyLFClk.c ****     * counterNum Valid range [0-1]. The number of the WDT counter. The match values
1132:Generated_Source\PSoC4/CyLFClk.c ****     * are not supported by counter 2.
1133:Generated_Source\PSoC4/CyLFClk.c ****     *
1134:Generated_Source\PSoC4/CyLFClk.c ****     * \return The "clear on match" status: <br>1 if enabled <br>0 if disabled
1135:Generated_Source\PSoC4/CyLFClk.c ****     *
1136:Generated_Source\PSoC4/CyLFClk.c ****     *******************************************************************************/
1137:Generated_Source\PSoC4/CyLFClk.c ****     uint32 CySysWdtGetClearOnMatch(uint32 counterNum)
1138:Generated_Source\PSoC4/CyLFClk.c ****     {
1139:Generated_Source\PSoC4/CyLFClk.c ****         CYASSERT((counterNum == CY_SYS_WDT_COUNTER0) ||
1140:Generated_Source\PSoC4/CyLFClk.c ****                  (counterNum == CY_SYS_WDT_COUNTER1));
1141:Generated_Source\PSoC4/CyLFClk.c **** 
1142:Generated_Source\PSoC4/CyLFClk.c ****         return (uint32)((CY_SYS_WDT_CONFIG_REG >>
1143:Generated_Source\PSoC4/CyLFClk.c ****                         ((counterNum * CY_SYS_WDT_CNT_SHIFT) + CY_SYS_WDT_CNT_MATCH_CLR_SHIFT)) & 0
1144:Generated_Source\PSoC4/CyLFClk.c ****     }
1145:Generated_Source\PSoC4/CyLFClk.c **** 
1146:Generated_Source\PSoC4/CyLFClk.c **** 
1147:Generated_Source\PSoC4/CyLFClk.c ****     /*******************************************************************************
1148:Generated_Source\PSoC4/CyLFClk.c ****     * Function Name: CySysWdtEnable
1149:Generated_Source\PSoC4/CyLFClk.c ****     ****************************************************************************//**
1150:Generated_Source\PSoC4/CyLFClk.c ****     *
1151:Generated_Source\PSoC4/CyLFClk.c ****     * \brief Enables the specified WDT counters.
1152:Generated_Source\PSoC4/CyLFClk.c ****     *
1153:Generated_Source\PSoC4/CyLFClk.c ****     * All the counters specified in the mask are enabled.
1154:Generated_Source\PSoC4/CyLFClk.c ****     *
1155:Generated_Source\PSoC4/CyLFClk.c ****     * \param counterMask
1156:Generated_Source\PSoC4/CyLFClk.c ****     *  CY_SYS_WDT_COUNTER0_MASK - The mask for counter 0 to enable.<br>
1157:Generated_Source\PSoC4/CyLFClk.c ****     * CY_SYS_WDT_COUNTER1_MASK - The mask for counter 1 to enable.<br>
1158:Generated_Source\PSoC4/CyLFClk.c ****     * CY_SYS_WDT_COUNTER2_MASK - The mask for counter 2 to enable.
1159:Generated_Source\PSoC4/CyLFClk.c ****     *
1160:Generated_Source\PSoC4/CyLFClk.c ****     * \details
1161:Generated_Source\PSoC4/CyLFClk.c ****     * Enabling or disabling WDT requires 3 LFCLK cycles to come into effect.
1162:Generated_Source\PSoC4/CyLFClk.c ****     * Therefore, the WDT enable state must not be changed more than once in
1163:Generated_Source\PSoC4/CyLFClk.c ****     * that period.
1164:Generated_Source\PSoC4/CyLFClk.c ****     *
1165:Generated_Source\PSoC4/CyLFClk.c ****     * After WDT is enabled, it is illegal to write WDT configuration (WDT_CONFIG)
1166:Generated_Source\PSoC4/CyLFClk.c ****     * and control (WDT_CONTROL) registers. This means that all WDT functions that
1167:Generated_Source\PSoC4/CyLFClk.c ****     * contain 'write' in the name (with the exception of CySysWdtSetMatch()
1168:Generated_Source\PSoC4/CyLFClk.c ****     * function) are illegal to call if WDT is enabled.
1169:Generated_Source\PSoC4/CyLFClk.c ****     *
1170:Generated_Source\PSoC4/CyLFClk.c ****     * PSoC 4100 / PSoC 4200: This function enables ILO.
1171:Generated_Source\PSoC4/CyLFClk.c ****     *
ARM GAS  C:\Users\AFDHAL~1\AppData\Local\Temp\cc29CzqQ.s 			page 22


1172:Generated_Source\PSoC4/CyLFClk.c ****     * PSoC 4100 BLE / PSoC 4200 BLE / PSoC4200L / PSoC 4100M 
1173:Generated_Source\PSoC4/CyLFClk.c ****     * / PSoC 4200M:
1174:Generated_Source\PSoC4/CyLFClk.c ****     * LFLCK should be configured before calling this function. The desired
1175:Generated_Source\PSoC4/CyLFClk.c ****     * source should be enabled and configured to be the source for LFCLK.
1176:Generated_Source\PSoC4/CyLFClk.c ****     *
1177:Generated_Source\PSoC4/CyLFClk.c ****     *******************************************************************************/
1178:Generated_Source\PSoC4/CyLFClk.c ****     void CySysWdtEnable(uint32 counterMask)
1179:Generated_Source\PSoC4/CyLFClk.c ****     {
1180:Generated_Source\PSoC4/CyLFClk.c ****         #if (!CY_IP_WCO)
1181:Generated_Source\PSoC4/CyLFClk.c ****             CySysClkIloStart();
1182:Generated_Source\PSoC4/CyLFClk.c ****         #endif /* (!CY_IP_WCO) */
1183:Generated_Source\PSoC4/CyLFClk.c **** 
1184:Generated_Source\PSoC4/CyLFClk.c ****         CY_SYS_WDT_CONTROL_REG |= counterMask;
1185:Generated_Source\PSoC4/CyLFClk.c **** 
1186:Generated_Source\PSoC4/CyLFClk.c ****         if(0u != (counterMask & CY_SYS_WDT_COUNTER0_MASK))
1187:Generated_Source\PSoC4/CyLFClk.c ****         {
1188:Generated_Source\PSoC4/CyLFClk.c ****             while (0u == CySysWdtGetEnabledStatus(CY_SYS_WDT_COUNTER0))
1189:Generated_Source\PSoC4/CyLFClk.c ****             {
1190:Generated_Source\PSoC4/CyLFClk.c ****                 /* Wait for changes to come into effect */
1191:Generated_Source\PSoC4/CyLFClk.c ****             }
1192:Generated_Source\PSoC4/CyLFClk.c ****         }
1193:Generated_Source\PSoC4/CyLFClk.c **** 
1194:Generated_Source\PSoC4/CyLFClk.c ****         if(0u != (counterMask & CY_SYS_WDT_COUNTER1_MASK))
1195:Generated_Source\PSoC4/CyLFClk.c ****         {
1196:Generated_Source\PSoC4/CyLFClk.c ****             while (0u == CySysWdtGetEnabledStatus(CY_SYS_WDT_COUNTER1))
1197:Generated_Source\PSoC4/CyLFClk.c ****             {
1198:Generated_Source\PSoC4/CyLFClk.c ****                 /* Wait for changes to come into effect */
1199:Generated_Source\PSoC4/CyLFClk.c ****             }
1200:Generated_Source\PSoC4/CyLFClk.c ****         }
1201:Generated_Source\PSoC4/CyLFClk.c **** 
1202:Generated_Source\PSoC4/CyLFClk.c ****         if(0u != (counterMask & CY_SYS_WDT_COUNTER2_MASK))
1203:Generated_Source\PSoC4/CyLFClk.c ****         {
1204:Generated_Source\PSoC4/CyLFClk.c ****             while (0u == CySysWdtGetEnabledStatus(CY_SYS_WDT_COUNTER2))
1205:Generated_Source\PSoC4/CyLFClk.c ****             {
1206:Generated_Source\PSoC4/CyLFClk.c ****                 /* Wait for changes to come into effect */
1207:Generated_Source\PSoC4/CyLFClk.c ****             }
1208:Generated_Source\PSoC4/CyLFClk.c ****         }
1209:Generated_Source\PSoC4/CyLFClk.c ****     }
1210:Generated_Source\PSoC4/CyLFClk.c **** 
1211:Generated_Source\PSoC4/CyLFClk.c **** 
1212:Generated_Source\PSoC4/CyLFClk.c ****     /*******************************************************************************
1213:Generated_Source\PSoC4/CyLFClk.c ****     * Function Name: CySysWdtDisable
1214:Generated_Source\PSoC4/CyLFClk.c ****     ****************************************************************************//**
1215:Generated_Source\PSoC4/CyLFClk.c ****     *
1216:Generated_Source\PSoC4/CyLFClk.c ****     * \brief Disables the specified WDT counters.
1217:Generated_Source\PSoC4/CyLFClk.c ****     * All the counters specified in the mask are disabled. The function waits for 
1218:Generated_Source\PSoC4/CyLFClk.c ****     * the changes to come into effect.
1219:Generated_Source\PSoC4/CyLFClk.c ****     *
1220:Generated_Source\PSoC4/CyLFClk.c ****     * \param counterMask
1221:Generated_Source\PSoC4/CyLFClk.c ****     * CY_SYS_WDT_COUNTER0_MASK - The mask for counter 0 to disable. <br>
1222:Generated_Source\PSoC4/CyLFClk.c ****     * CY_SYS_WDT_COUNTER1_MASK - The mask for counter 1 to disable. <br>
1223:Generated_Source\PSoC4/CyLFClk.c ****     * CY_SYS_WDT_COUNTER2_MASK - The mask for counter 2 to disable.
1224:Generated_Source\PSoC4/CyLFClk.c ****     *
1225:Generated_Source\PSoC4/CyLFClk.c ****     *******************************************************************************/
1226:Generated_Source\PSoC4/CyLFClk.c ****     void CySysWdtDisable(uint32 counterMask)
1227:Generated_Source\PSoC4/CyLFClk.c ****     {
1228:Generated_Source\PSoC4/CyLFClk.c ****         if (0uL == CySysWdtLocked())
ARM GAS  C:\Users\AFDHAL~1\AppData\Local\Temp\cc29CzqQ.s 			page 23


1229:Generated_Source\PSoC4/CyLFClk.c ****         {
1230:Generated_Source\PSoC4/CyLFClk.c ****             CY_SYS_WDT_CONTROL_REG &= ~counterMask;
1231:Generated_Source\PSoC4/CyLFClk.c **** 
1232:Generated_Source\PSoC4/CyLFClk.c ****             if(0u != (counterMask & CY_SYS_WDT_COUNTER0_MASK))
1233:Generated_Source\PSoC4/CyLFClk.c ****             {
1234:Generated_Source\PSoC4/CyLFClk.c ****                 while (0u != CySysWdtGetEnabledStatus(CY_SYS_WDT_COUNTER0))
1235:Generated_Source\PSoC4/CyLFClk.c ****                 {
1236:Generated_Source\PSoC4/CyLFClk.c ****                     /* Wait for changes to come into effect */
1237:Generated_Source\PSoC4/CyLFClk.c ****                 }
1238:Generated_Source\PSoC4/CyLFClk.c ****             }
1239:Generated_Source\PSoC4/CyLFClk.c **** 
1240:Generated_Source\PSoC4/CyLFClk.c ****             if(0u != (counterMask & CY_SYS_WDT_COUNTER1_MASK))
1241:Generated_Source\PSoC4/CyLFClk.c ****             {
1242:Generated_Source\PSoC4/CyLFClk.c ****                 while (0u != CySysWdtGetEnabledStatus(CY_SYS_WDT_COUNTER1))
1243:Generated_Source\PSoC4/CyLFClk.c ****                 {
1244:Generated_Source\PSoC4/CyLFClk.c ****                     /* Wait for changes to come into effect */
1245:Generated_Source\PSoC4/CyLFClk.c ****                 }
1246:Generated_Source\PSoC4/CyLFClk.c ****             }
1247:Generated_Source\PSoC4/CyLFClk.c **** 
1248:Generated_Source\PSoC4/CyLFClk.c ****             if(0u != (counterMask & CY_SYS_WDT_COUNTER2_MASK))
1249:Generated_Source\PSoC4/CyLFClk.c ****             {
1250:Generated_Source\PSoC4/CyLFClk.c ****                 while (0u != CySysWdtGetEnabledStatus(CY_SYS_WDT_COUNTER2))
1251:Generated_Source\PSoC4/CyLFClk.c ****                 {
1252:Generated_Source\PSoC4/CyLFClk.c ****                     /* Wait for changes to come into effect */
1253:Generated_Source\PSoC4/CyLFClk.c ****                 }
1254:Generated_Source\PSoC4/CyLFClk.c ****             }
1255:Generated_Source\PSoC4/CyLFClk.c ****         }
1256:Generated_Source\PSoC4/CyLFClk.c ****     }
1257:Generated_Source\PSoC4/CyLFClk.c **** 
1258:Generated_Source\PSoC4/CyLFClk.c **** 
1259:Generated_Source\PSoC4/CyLFClk.c ****     /*******************************************************************************
1260:Generated_Source\PSoC4/CyLFClk.c ****     * Function Name: CySysWdtSetCascade
1261:Generated_Source\PSoC4/CyLFClk.c ****     ****************************************************************************//**
1262:Generated_Source\PSoC4/CyLFClk.c ****     * \brief
1263:Generated_Source\PSoC4/CyLFClk.c ****     * Writes the two WDT cascade values based on the combination of mask values
1264:Generated_Source\PSoC4/CyLFClk.c ****     * specified.
1265:Generated_Source\PSoC4/CyLFClk.c ****     *
1266:Generated_Source\PSoC4/CyLFClk.c ****     * \param cascadeMask The mask value used to set or clear the cascade values:
1267:Generated_Source\PSoC4/CyLFClk.c ****     * CY_SYS_WDT_CASCADE_NONE - Neither <br>
1268:Generated_Source\PSoC4/CyLFClk.c ****     * CY_SYS_WDT_CASCADE_01 - Cascade 01 <br>
1269:Generated_Source\PSoC4/CyLFClk.c ****     * CY_SYS_WDT_CASCADE_12 - Cascade 12
1270:Generated_Source\PSoC4/CyLFClk.c ****     *
1271:Generated_Source\PSoC4/CyLFClk.c ****     * If only one cascade mask is specified, the second cascade is disabled.
1272:Generated_Source\PSoC4/CyLFClk.c ****     * To set both cascade modes, two defines should be ORed:
1273:Generated_Source\PSoC4/CyLFClk.c ****     * (CY_SYS_TIMER_CASCADE_01 | CY_SYS_TIMER_CASCADE_12).
1274:Generated_Source\PSoC4/CyLFClk.c ****     * \note If CySysWdtSetCascade() was called with ORed defines it is necessary 
1275:Generated_Source\PSoC4/CyLFClk.c ****     * to call CySysWdtSetClearOnMatch(1,1). It is needed to make sure that 
1276:Generated_Source\PSoC4/CyLFClk.c ****     * Counter 2 will be updated in the expected way.
1277:Generated_Source\PSoC4/CyLFClk.c ****     *
1278:Generated_Source\PSoC4/CyLFClk.c ****     * WDT counters that are part of the specified cascade should be disabled.
1279:Generated_Source\PSoC4/CyLFClk.c ****     * Otherwise this function call has no effect. If the specified
1280:Generated_Source\PSoC4/CyLFClk.c ****     * counter is enabled, call CySysWdtDisable() function with the corresponding
1281:Generated_Source\PSoC4/CyLFClk.c ****     * parameter to disable the specified counter and wait for it to stop. This may
1282:Generated_Source\PSoC4/CyLFClk.c ****     * take up to 3 LFCLK cycles.
1283:Generated_Source\PSoC4/CyLFClk.c ****     *
1284:Generated_Source\PSoC4/CyLFClk.c ****     *******************************************************************************/
1285:Generated_Source\PSoC4/CyLFClk.c ****     void CySysWdtSetCascade(uint32 cascadeMask)
ARM GAS  C:\Users\AFDHAL~1\AppData\Local\Temp\cc29CzqQ.s 			page 24


1286:Generated_Source\PSoC4/CyLFClk.c ****     {
1287:Generated_Source\PSoC4/CyLFClk.c ****         uint32 configRegValue;
1288:Generated_Source\PSoC4/CyLFClk.c ****         uint32 countersEnableStatus;
1289:Generated_Source\PSoC4/CyLFClk.c **** 
1290:Generated_Source\PSoC4/CyLFClk.c ****         countersEnableStatus = CySysWdtGetEnabledStatus(CY_SYS_WDT_COUNTER0) |
1291:Generated_Source\PSoC4/CyLFClk.c ****                             CySysWdtGetEnabledStatus(CY_SYS_WDT_COUNTER1) |
1292:Generated_Source\PSoC4/CyLFClk.c ****                             CySysWdtGetEnabledStatus(CY_SYS_WDT_COUNTER2);
1293:Generated_Source\PSoC4/CyLFClk.c **** 
1294:Generated_Source\PSoC4/CyLFClk.c ****         if (0u == countersEnableStatus)
1295:Generated_Source\PSoC4/CyLFClk.c ****         {
1296:Generated_Source\PSoC4/CyLFClk.c ****             configRegValue = CY_SYS_WDT_CONFIG_REG;
1297:Generated_Source\PSoC4/CyLFClk.c ****             configRegValue &= ((uint32)(~(CY_SYS_WDT_CASCADE_01|CY_SYS_WDT_CASCADE_12)));
1298:Generated_Source\PSoC4/CyLFClk.c ****             configRegValue |= cascadeMask;
1299:Generated_Source\PSoC4/CyLFClk.c ****             CY_SYS_WDT_CONFIG_REG = configRegValue;
1300:Generated_Source\PSoC4/CyLFClk.c ****         }
1301:Generated_Source\PSoC4/CyLFClk.c ****     }
1302:Generated_Source\PSoC4/CyLFClk.c **** 
1303:Generated_Source\PSoC4/CyLFClk.c **** 
1304:Generated_Source\PSoC4/CyLFClk.c ****     /*******************************************************************************
1305:Generated_Source\PSoC4/CyLFClk.c ****     * Function Name: CySysWdtGetCascade
1306:Generated_Source\PSoC4/CyLFClk.c ****     ****************************************************************************//**
1307:Generated_Source\PSoC4/CyLFClk.c ****     *
1308:Generated_Source\PSoC4/CyLFClk.c ****     * \brief Reads the two WDT cascade values returning a mask of the bits set.
1309:Generated_Source\PSoC4/CyLFClk.c ****     *
1310:Generated_Source\PSoC4/CyLFClk.c ****     * \return The mask of the cascade values set.
1311:Generated_Source\PSoC4/CyLFClk.c ****     * \return CY_SYS_WDT_CASCADE_NONE - Neither
1312:Generated_Source\PSoC4/CyLFClk.c ****     * \return CY_SYS_WDT_CASCADE_01 - Cascade 01
1313:Generated_Source\PSoC4/CyLFClk.c ****     * \return CY_SYS_WDT_CASCADE_12 - Cascade 12
1314:Generated_Source\PSoC4/CyLFClk.c ****     *
1315:Generated_Source\PSoC4/CyLFClk.c ****     *******************************************************************************/
1316:Generated_Source\PSoC4/CyLFClk.c ****     uint32 CySysWdtGetCascade(void)
1317:Generated_Source\PSoC4/CyLFClk.c ****     {
1318:Generated_Source\PSoC4/CyLFClk.c ****         return (CY_SYS_WDT_CONFIG_REG & (CY_SYS_WDT_CASCADE_01 | CY_SYS_WDT_CASCADE_12));
1319:Generated_Source\PSoC4/CyLFClk.c ****     }
1320:Generated_Source\PSoC4/CyLFClk.c **** 
1321:Generated_Source\PSoC4/CyLFClk.c **** 
1322:Generated_Source\PSoC4/CyLFClk.c ****     /*******************************************************************************
1323:Generated_Source\PSoC4/CyLFClk.c ****     * Function Name: CySysWdtSetMatch
1324:Generated_Source\PSoC4/CyLFClk.c ****     ****************************************************************************//**
1325:Generated_Source\PSoC4/CyLFClk.c ****     *
1326:Generated_Source\PSoC4/CyLFClk.c ****     * \brief Configures the WDT counter match comparison value.
1327:Generated_Source\PSoC4/CyLFClk.c ****     *
1328:Generated_Source\PSoC4/CyLFClk.c ****     * \param counterNum
1329:Generated_Source\PSoC4/CyLFClk.c ****     * Valid range [0-1]. The number of the WDT counter. The match values are not
1330:Generated_Source\PSoC4/CyLFClk.c ****     * supported by counter 2.
1331:Generated_Source\PSoC4/CyLFClk.c ****     *
1332:Generated_Source\PSoC4/CyLFClk.c ****     * \param match
1333:Generated_Source\PSoC4/CyLFClk.c ****     * Valid range [0-65535]. The value to be used to match against the counter.
1334:Generated_Source\PSoC4/CyLFClk.c ****     *
1335:Generated_Source\PSoC4/CyLFClk.c ****     *******************************************************************************/
1336:Generated_Source\PSoC4/CyLFClk.c ****     void CySysWdtSetMatch(uint32 counterNum, uint32 match)
1337:Generated_Source\PSoC4/CyLFClk.c ****     {
1338:Generated_Source\PSoC4/CyLFClk.c ****         uint32 regValue;
1339:Generated_Source\PSoC4/CyLFClk.c **** 
1340:Generated_Source\PSoC4/CyLFClk.c ****         CYASSERT((counterNum == CY_SYS_WDT_COUNTER0) ||
1341:Generated_Source\PSoC4/CyLFClk.c ****                  (counterNum == CY_SYS_WDT_COUNTER1));
1342:Generated_Source\PSoC4/CyLFClk.c **** 
ARM GAS  C:\Users\AFDHAL~1\AppData\Local\Temp\cc29CzqQ.s 			page 25


1343:Generated_Source\PSoC4/CyLFClk.c ****         /* Wait for previous changes to come into effect */
1344:Generated_Source\PSoC4/CyLFClk.c ****         CyDelayUs(CY_SYS_WDT_3LFCLK_DELAY_US);
1345:Generated_Source\PSoC4/CyLFClk.c **** 
1346:Generated_Source\PSoC4/CyLFClk.c ****         regValue = CY_SYS_WDT_MATCH_REG;
1347:Generated_Source\PSoC4/CyLFClk.c ****         regValue &= (uint32)~((uint32)(CY_SYS_WDT_LOWER_16BITS_MASK << (counterNum * CY_SYS_WDT_CNT
1348:Generated_Source\PSoC4/CyLFClk.c ****         CY_SYS_WDT_MATCH_REG = (regValue | (match << (counterNum * CY_SYS_WDT_CNT_MATCH_SHIFT)));
1349:Generated_Source\PSoC4/CyLFClk.c **** 
1350:Generated_Source\PSoC4/CyLFClk.c ****         /* Make sure match synchronization has started */
1351:Generated_Source\PSoC4/CyLFClk.c ****         CyDelayUs(CY_SYS_WDT_1LFCLK_DELAY_US);
1352:Generated_Source\PSoC4/CyLFClk.c ****     }
1353:Generated_Source\PSoC4/CyLFClk.c **** 
1354:Generated_Source\PSoC4/CyLFClk.c **** 
1355:Generated_Source\PSoC4/CyLFClk.c ****     /*******************************************************************************
1356:Generated_Source\PSoC4/CyLFClk.c ****     * Function Name: CySysWdtSetToggleBit
1357:Generated_Source\PSoC4/CyLFClk.c ****     ****************************************************************************//**
1358:Generated_Source\PSoC4/CyLFClk.c ****     * \brief
1359:Generated_Source\PSoC4/CyLFClk.c ****     * Configures which bit in WDT counter 2 to monitor for a toggle.
1360:Generated_Source\PSoC4/CyLFClk.c ****     *
1361:Generated_Source\PSoC4/CyLFClk.c ****     * When that bit toggles, an interrupt is generated if the mode for counter 2 has
1362:Generated_Source\PSoC4/CyLFClk.c ****     * enabled interrupts.
1363:Generated_Source\PSoC4/CyLFClk.c ****     *
1364:Generated_Source\PSoC4/CyLFClk.c ****     * \param bits Valid range [0-31].  Counter 2 bit to monitor for a toggle.
1365:Generated_Source\PSoC4/CyLFClk.c ****     *
1366:Generated_Source\PSoC4/CyLFClk.c ****     * \details
1367:Generated_Source\PSoC4/CyLFClk.c ****     * WDT Counter 2 should be disabled. Otherwise this function call has no
1368:Generated_Source\PSoC4/CyLFClk.c ****     * effect.
1369:Generated_Source\PSoC4/CyLFClk.c ****     *
1370:Generated_Source\PSoC4/CyLFClk.c ****     * If the specified counter is enabled, call the CySysWdtDisable() function with
1371:Generated_Source\PSoC4/CyLFClk.c ****     * the corresponding parameter to disable the specified counter and wait for it to
1372:Generated_Source\PSoC4/CyLFClk.c ****     * stop. This may take up to 3 LFCLK cycles.
1373:Generated_Source\PSoC4/CyLFClk.c ****     *
1374:Generated_Source\PSoC4/CyLFClk.c ****     *******************************************************************************/
1375:Generated_Source\PSoC4/CyLFClk.c ****     void CySysWdtSetToggleBit(uint32 bits)
1376:Generated_Source\PSoC4/CyLFClk.c ****     {
1377:Generated_Source\PSoC4/CyLFClk.c ****         uint32 configRegValue;
1378:Generated_Source\PSoC4/CyLFClk.c **** 
1379:Generated_Source\PSoC4/CyLFClk.c ****         if (0u == CySysWdtGetEnabledStatus(CY_SYS_WDT_COUNTER2))
1380:Generated_Source\PSoC4/CyLFClk.c ****         {
1381:Generated_Source\PSoC4/CyLFClk.c ****             configRegValue = CY_SYS_WDT_CONFIG_REG;
1382:Generated_Source\PSoC4/CyLFClk.c ****             configRegValue &= (uint32)(~((uint32)(CY_SYS_WDT_CONFIG_BITS2_MASK << CY_SYS_WDT_CONFIG
1383:Generated_Source\PSoC4/CyLFClk.c ****             configRegValue |= ((bits & CY_SYS_WDT_CONFIG_BITS2_MASK) << CY_SYS_WDT_CONFIG_BITS2_POS
1384:Generated_Source\PSoC4/CyLFClk.c ****             CY_SYS_WDT_CONFIG_REG = configRegValue;
1385:Generated_Source\PSoC4/CyLFClk.c ****         }
1386:Generated_Source\PSoC4/CyLFClk.c ****     }
1387:Generated_Source\PSoC4/CyLFClk.c **** 
1388:Generated_Source\PSoC4/CyLFClk.c **** 
1389:Generated_Source\PSoC4/CyLFClk.c ****     /*******************************************************************************
1390:Generated_Source\PSoC4/CyLFClk.c ****     * Function Name: CySysWdtGetToggleBit
1391:Generated_Source\PSoC4/CyLFClk.c ****     ****************************************************************************//**
1392:Generated_Source\PSoC4/CyLFClk.c ****     * \brief
1393:Generated_Source\PSoC4/CyLFClk.c ****     * Reads which bit in WDT counter 2 is monitored for a toggle.
1394:Generated_Source\PSoC4/CyLFClk.c ****     *
1395:Generated_Source\PSoC4/CyLFClk.c ****     * \return The bit that is monitored (range of 0 to 31)
1396:Generated_Source\PSoC4/CyLFClk.c ****     *
1397:Generated_Source\PSoC4/CyLFClk.c ****     *******************************************************************************/
1398:Generated_Source\PSoC4/CyLFClk.c ****     uint32 CySysWdtGetToggleBit(void)
1399:Generated_Source\PSoC4/CyLFClk.c ****     {
ARM GAS  C:\Users\AFDHAL~1\AppData\Local\Temp\cc29CzqQ.s 			page 26


1400:Generated_Source\PSoC4/CyLFClk.c ****         return ((CY_SYS_WDT_CONFIG_REG >> CY_SYS_WDT_CONFIG_BITS2_POS) & CY_SYS_WDT_CONFIG_BITS2_MA
1401:Generated_Source\PSoC4/CyLFClk.c ****     }
1402:Generated_Source\PSoC4/CyLFClk.c **** 
1403:Generated_Source\PSoC4/CyLFClk.c **** 
1404:Generated_Source\PSoC4/CyLFClk.c ****     /*******************************************************************************
1405:Generated_Source\PSoC4/CyLFClk.c ****     * Function Name: CySysWdtGetMatch
1406:Generated_Source\PSoC4/CyLFClk.c ****     ****************************************************************************//**
1407:Generated_Source\PSoC4/CyLFClk.c ****     *
1408:Generated_Source\PSoC4/CyLFClk.c ****     * \brief Reads the WDT counter match comparison value.
1409:Generated_Source\PSoC4/CyLFClk.c ****     *
1410:Generated_Source\PSoC4/CyLFClk.c ****     * \param counterNum Valid range [0-1].  The number of the WDT counter. The match
1411:Generated_Source\PSoC4/CyLFClk.c ****     * values are not supported by counter 2.
1412:Generated_Source\PSoC4/CyLFClk.c ****     *
1413:Generated_Source\PSoC4/CyLFClk.c ****     * \return A 16-bit match value.
1414:Generated_Source\PSoC4/CyLFClk.c ****     *
1415:Generated_Source\PSoC4/CyLFClk.c ****     *******************************************************************************/
1416:Generated_Source\PSoC4/CyLFClk.c ****     uint32 CySysWdtGetMatch(uint32 counterNum)
1417:Generated_Source\PSoC4/CyLFClk.c ****     {
1418:Generated_Source\PSoC4/CyLFClk.c ****         CYASSERT((counterNum == CY_SYS_WDT_COUNTER0) ||
1419:Generated_Source\PSoC4/CyLFClk.c ****                  (counterNum == CY_SYS_WDT_COUNTER1));
1420:Generated_Source\PSoC4/CyLFClk.c **** 
1421:Generated_Source\PSoC4/CyLFClk.c ****         return ((uint32)(CY_SYS_WDT_MATCH_REG >> 
1422:Generated_Source\PSoC4/CyLFClk.c ****                                             (counterNum * CY_SYS_WDT_CNT_MATCH_SHIFT)) & CY_SYS_WDT
1423:Generated_Source\PSoC4/CyLFClk.c ****     }
1424:Generated_Source\PSoC4/CyLFClk.c **** 
1425:Generated_Source\PSoC4/CyLFClk.c **** 
1426:Generated_Source\PSoC4/CyLFClk.c ****     /*******************************************************************************
1427:Generated_Source\PSoC4/CyLFClk.c ****     * Function Name: CySysWdtGetCount
1428:Generated_Source\PSoC4/CyLFClk.c ****     ****************************************************************************//**
1429:Generated_Source\PSoC4/CyLFClk.c ****     *
1430:Generated_Source\PSoC4/CyLFClk.c ****     * \brief Reads the current WDT counter value.
1431:Generated_Source\PSoC4/CyLFClk.c ****     *
1432:Generated_Source\PSoC4/CyLFClk.c ****     * \param counterNum: Valid range [0-2]. The number of the WDT counter.
1433:Generated_Source\PSoC4/CyLFClk.c ****     *
1434:Generated_Source\PSoC4/CyLFClk.c ****     * \return A live counter value.  Counter 0 and Counter 1 are 16 bit counters 
1435:Generated_Source\PSoC4/CyLFClk.c ****     * and counter 2 is a 32 bit counter.
1436:Generated_Source\PSoC4/CyLFClk.c ****     *
1437:Generated_Source\PSoC4/CyLFClk.c ****     *******************************************************************************/
1438:Generated_Source\PSoC4/CyLFClk.c ****     uint32 CySysWdtGetCount(uint32 counterNum)
1439:Generated_Source\PSoC4/CyLFClk.c ****     {
1440:Generated_Source\PSoC4/CyLFClk.c ****         uint32 regValue = 0u;
1441:Generated_Source\PSoC4/CyLFClk.c **** 
1442:Generated_Source\PSoC4/CyLFClk.c ****         switch(counterNum)
1443:Generated_Source\PSoC4/CyLFClk.c ****         {
1444:Generated_Source\PSoC4/CyLFClk.c ****             /* WDT Counter 0 */
1445:Generated_Source\PSoC4/CyLFClk.c ****             case 0u:
1446:Generated_Source\PSoC4/CyLFClk.c ****                 regValue = CY_SYS_WDT_CTRLOW_REG & CY_SYS_WDT_LOWER_16BITS_MASK;
1447:Generated_Source\PSoC4/CyLFClk.c ****             break;
1448:Generated_Source\PSoC4/CyLFClk.c **** 
1449:Generated_Source\PSoC4/CyLFClk.c ****             /* WDT Counter 1 */
1450:Generated_Source\PSoC4/CyLFClk.c ****             case 1u:
1451:Generated_Source\PSoC4/CyLFClk.c ****                 regValue = (CY_SYS_WDT_CTRLOW_REG >> CY_SYS_WDT_CNT_MATCH_SHIFT) & CY_SYS_WDT_LOWER
1452:Generated_Source\PSoC4/CyLFClk.c ****             break;
1453:Generated_Source\PSoC4/CyLFClk.c **** 
1454:Generated_Source\PSoC4/CyLFClk.c ****             /* WDT Counter 2 */
1455:Generated_Source\PSoC4/CyLFClk.c ****             case 2u:
1456:Generated_Source\PSoC4/CyLFClk.c ****                 regValue = CY_SYS_WDT_CTRHIGH_REG;
ARM GAS  C:\Users\AFDHAL~1\AppData\Local\Temp\cc29CzqQ.s 			page 27


1457:Generated_Source\PSoC4/CyLFClk.c ****             break;
1458:Generated_Source\PSoC4/CyLFClk.c **** 
1459:Generated_Source\PSoC4/CyLFClk.c ****             default:
1460:Generated_Source\PSoC4/CyLFClk.c ****                 CYASSERT(0u != 0u);
1461:Generated_Source\PSoC4/CyLFClk.c ****             break;
1462:Generated_Source\PSoC4/CyLFClk.c ****         }
1463:Generated_Source\PSoC4/CyLFClk.c **** 
1464:Generated_Source\PSoC4/CyLFClk.c ****         return (regValue);
1465:Generated_Source\PSoC4/CyLFClk.c ****     }
1466:Generated_Source\PSoC4/CyLFClk.c **** 
1467:Generated_Source\PSoC4/CyLFClk.c **** 
1468:Generated_Source\PSoC4/CyLFClk.c ****     /*******************************************************************************
1469:Generated_Source\PSoC4/CyLFClk.c ****     * Function Name: CySysWdtGetInterruptSource
1470:Generated_Source\PSoC4/CyLFClk.c ****     ****************************************************************************//**
1471:Generated_Source\PSoC4/CyLFClk.c ****     * \brief
1472:Generated_Source\PSoC4/CyLFClk.c ****     * Reads a mask containing all the WDT counters interrupts that are currently
1473:Generated_Source\PSoC4/CyLFClk.c ****     * set by the hardware, if a corresponding mode is selected.
1474:Generated_Source\PSoC4/CyLFClk.c ****     *
1475:Generated_Source\PSoC4/CyLFClk.c ****     * \return The mask of interrupts set
1476:Generated_Source\PSoC4/CyLFClk.c ****     * \return CY_SYS_WDT_COUNTER0_INT - Counter 0
1477:Generated_Source\PSoC4/CyLFClk.c ****     * \return CY_SYS_WDT_COUNTER1_INT - Counter 1
1478:Generated_Source\PSoC4/CyLFClk.c ****     * \return CY_SYS_WDT_COUNTER2_INT - Counter 2
1479:Generated_Source\PSoC4/CyLFClk.c ****     *
1480:Generated_Source\PSoC4/CyLFClk.c ****     *******************************************************************************/
1481:Generated_Source\PSoC4/CyLFClk.c ****     uint32 CySysWdtGetInterruptSource(void)
1482:Generated_Source\PSoC4/CyLFClk.c ****     {
1483:Generated_Source\PSoC4/CyLFClk.c ****         return (CY_SYS_WDT_CONTROL_REG & (CY_SYS_WDT_COUNTER0_INT | CY_SYS_WDT_COUNTER1_INT | CY_SY
1484:Generated_Source\PSoC4/CyLFClk.c ****     }
1485:Generated_Source\PSoC4/CyLFClk.c **** 
1486:Generated_Source\PSoC4/CyLFClk.c **** 
1487:Generated_Source\PSoC4/CyLFClk.c ****     /*******************************************************************************
1488:Generated_Source\PSoC4/CyLFClk.c ****     * Function Name: CySysWdtClearInterrupt
1489:Generated_Source\PSoC4/CyLFClk.c ****     ****************************************************************************//**
1490:Generated_Source\PSoC4/CyLFClk.c ****     * \brief
1491:Generated_Source\PSoC4/CyLFClk.c ****     * Clears all the WDT counter interrupts set in the mask.
1492:Generated_Source\PSoC4/CyLFClk.c ****     *
1493:Generated_Source\PSoC4/CyLFClk.c ****     * Calling this function also prevents from Reset when the counter mode is set 
1494:Generated_Source\PSoC4/CyLFClk.c ****     * to generate 3 interrupts and then the device resets.
1495:Generated_Source\PSoC4/CyLFClk.c ****     *
1496:Generated_Source\PSoC4/CyLFClk.c ****     * All the WDT interrupts are to be cleared by the firmware, otherwise
1497:Generated_Source\PSoC4/CyLFClk.c ****     * interrupts are generated continuously.
1498:Generated_Source\PSoC4/CyLFClk.c ****     *
1499:Generated_Source\PSoC4/CyLFClk.c ****     * \param counterMask
1500:Generated_Source\PSoC4/CyLFClk.c ****     * CY_SYS_WDT_COUNTER0_INT - Clears counter 0 interrupts <br>
1501:Generated_Source\PSoC4/CyLFClk.c ****     * CY_SYS_WDT_COUNTER1_INT - Clears counter 1 interrupts <br>
1502:Generated_Source\PSoC4/CyLFClk.c ****     * CY_SYS_WDT_COUNTER2_INT - Clears counter 2 interrupts
1503:Generated_Source\PSoC4/CyLFClk.c ****     *
1504:Generated_Source\PSoC4/CyLFClk.c ****     * \details
1505:Generated_Source\PSoC4/CyLFClk.c ****     * This function temporary removes the watchdog lock, if it was set, and
1506:Generated_Source\PSoC4/CyLFClk.c ****     * restores the lock state after cleaning the WDT interrupts that are set in
1507:Generated_Source\PSoC4/CyLFClk.c ****     * a mask.
1508:Generated_Source\PSoC4/CyLFClk.c ****     *
1509:Generated_Source\PSoC4/CyLFClk.c ****     *******************************************************************************/
1510:Generated_Source\PSoC4/CyLFClk.c ****     void CySysWdtClearInterrupt(uint32 counterMask)
1511:Generated_Source\PSoC4/CyLFClk.c ****     {
1512:Generated_Source\PSoC4/CyLFClk.c ****         uint8 interruptState;
1513:Generated_Source\PSoC4/CyLFClk.c ****         uint32 wdtLockState;
ARM GAS  C:\Users\AFDHAL~1\AppData\Local\Temp\cc29CzqQ.s 			page 28


1514:Generated_Source\PSoC4/CyLFClk.c **** 
1515:Generated_Source\PSoC4/CyLFClk.c ****         interruptState = CyEnterCriticalSection();
1516:Generated_Source\PSoC4/CyLFClk.c **** 
1517:Generated_Source\PSoC4/CyLFClk.c ****         if (0u != CySysWdtLocked())
1518:Generated_Source\PSoC4/CyLFClk.c ****         {
1519:Generated_Source\PSoC4/CyLFClk.c ****             wdtLockState = 1u;
1520:Generated_Source\PSoC4/CyLFClk.c ****             CySysWdtUnlock();
1521:Generated_Source\PSoC4/CyLFClk.c ****         }
1522:Generated_Source\PSoC4/CyLFClk.c ****         else
1523:Generated_Source\PSoC4/CyLFClk.c ****         {
1524:Generated_Source\PSoC4/CyLFClk.c ****             wdtLockState = 0u;
1525:Generated_Source\PSoC4/CyLFClk.c ****         }
1526:Generated_Source\PSoC4/CyLFClk.c **** 
1527:Generated_Source\PSoC4/CyLFClk.c ****         /* Set new WDT control register value */
1528:Generated_Source\PSoC4/CyLFClk.c ****         counterMask &= (CY_SYS_WDT_COUNTER0_INT |
1529:Generated_Source\PSoC4/CyLFClk.c ****                         CY_SYS_WDT_COUNTER1_INT |
1530:Generated_Source\PSoC4/CyLFClk.c ****                         CY_SYS_WDT_COUNTER2_INT);
1531:Generated_Source\PSoC4/CyLFClk.c **** 
1532:Generated_Source\PSoC4/CyLFClk.c ****         CY_SYS_WDT_CONTROL_REG = counterMask | (CY_SYS_WDT_CONTROL_REG & ~(CY_SYS_WDT_COUNTER0_INT 
1533:Generated_Source\PSoC4/CyLFClk.c ****                                                                            CY_SYS_WDT_COUNTER1_INT 
1534:Generated_Source\PSoC4/CyLFClk.c ****                                                                            CY_SYS_WDT_COUNTER2_INT)
1535:Generated_Source\PSoC4/CyLFClk.c **** 
1536:Generated_Source\PSoC4/CyLFClk.c ****         /* Read the CY_SYS_WDT_CONTROL_REG to clear the interrupt request.
1537:Generated_Source\PSoC4/CyLFClk.c ****          * Cypress ID #207093, #206231
1538:Generated_Source\PSoC4/CyLFClk.c ****         */
1539:Generated_Source\PSoC4/CyLFClk.c ****         (void)CY_SYS_WDT_CONTROL_REG;
1540:Generated_Source\PSoC4/CyLFClk.c **** 
1541:Generated_Source\PSoC4/CyLFClk.c ****         if (1u == wdtLockState)
1542:Generated_Source\PSoC4/CyLFClk.c ****         {
1543:Generated_Source\PSoC4/CyLFClk.c ****             CySysWdtLock();
1544:Generated_Source\PSoC4/CyLFClk.c ****         }
1545:Generated_Source\PSoC4/CyLFClk.c **** 
1546:Generated_Source\PSoC4/CyLFClk.c ****         CyExitCriticalSection(interruptState);
1547:Generated_Source\PSoC4/CyLFClk.c ****     }
1548:Generated_Source\PSoC4/CyLFClk.c **** 
1549:Generated_Source\PSoC4/CyLFClk.c **** 
1550:Generated_Source\PSoC4/CyLFClk.c ****     /*******************************************************************************
1551:Generated_Source\PSoC4/CyLFClk.c ****     * Function Name: CySysWdtResetCounters
1552:Generated_Source\PSoC4/CyLFClk.c ****     ****************************************************************************//**
1553:Generated_Source\PSoC4/CyLFClk.c ****     * \brief
1554:Generated_Source\PSoC4/CyLFClk.c ****     * Resets all the WDT counters set in the mask.
1555:Generated_Source\PSoC4/CyLFClk.c ****     *
1556:Generated_Source\PSoC4/CyLFClk.c ****     * \param countersMask
1557:Generated_Source\PSoC4/CyLFClk.c ****     * CY_SYS_WDT_COUNTER0_RESET - Reset counter 0 <br>
1558:Generated_Source\PSoC4/CyLFClk.c ****     * CY_SYS_WDT_COUNTER1_RESET - Reset counter 1 <br>
1559:Generated_Source\PSoC4/CyLFClk.c ****     * CY_SYS_WDT_COUNTER2_RESET - Reset counter 2
1560:Generated_Source\PSoC4/CyLFClk.c ****     *
1561:Generated_Source\PSoC4/CyLFClk.c ****     * \details
1562:Generated_Source\PSoC4/CyLFClk.c ****     * This function does not reset counter values if the Watchdog is locked.
1563:Generated_Source\PSoC4/CyLFClk.c ****     * This function waits while corresponding counters will be reset. This may
1564:Generated_Source\PSoC4/CyLFClk.c ****     * take up to 3 LFCLK cycles.
1565:Generated_Source\PSoC4/CyLFClk.c ****     * The LFCLK source must be enabled. Otherwise, the function will never exit.
1566:Generated_Source\PSoC4/CyLFClk.c ****     *
1567:Generated_Source\PSoC4/CyLFClk.c ****     *******************************************************************************/
1568:Generated_Source\PSoC4/CyLFClk.c ****     void CySysWdtResetCounters(uint32 countersMask)
1569:Generated_Source\PSoC4/CyLFClk.c ****     {
1570:Generated_Source\PSoC4/CyLFClk.c ****         /* Set new WDT reset value */
ARM GAS  C:\Users\AFDHAL~1\AppData\Local\Temp\cc29CzqQ.s 			page 29


1571:Generated_Source\PSoC4/CyLFClk.c ****         CY_SYS_WDT_CONTROL_REG |= (countersMask & CY_SYS_WDT_COUNTERS_RESET);
1572:Generated_Source\PSoC4/CyLFClk.c **** 
1573:Generated_Source\PSoC4/CyLFClk.c ****         while (0uL != (CY_SYS_WDT_CONTROL_REG & CY_SYS_WDT_COUNTERS_RESET))
1574:Generated_Source\PSoC4/CyLFClk.c ****         {
1575:Generated_Source\PSoC4/CyLFClk.c ****             /* Wait for reset to come into effect */
1576:Generated_Source\PSoC4/CyLFClk.c ****         }
1577:Generated_Source\PSoC4/CyLFClk.c ****     }
1578:Generated_Source\PSoC4/CyLFClk.c **** 
1579:Generated_Source\PSoC4/CyLFClk.c **** 
1580:Generated_Source\PSoC4/CyLFClk.c ****     /*******************************************************************************
1581:Generated_Source\PSoC4/CyLFClk.c ****     * Function Name: CySysWdtSetInterruptCallback
1582:Generated_Source\PSoC4/CyLFClk.c ****     ****************************************************************************//**
1583:Generated_Source\PSoC4/CyLFClk.c ****     * \brief
1584:Generated_Source\PSoC4/CyLFClk.c ****     * Sets the ISR callback function for the particular WDT counter.
1585:Generated_Source\PSoC4/CyLFClk.c ****     * These functions are called on the WDT interrupt.
1586:Generated_Source\PSoC4/CyLFClk.c ****     *
1587:Generated_Source\PSoC4/CyLFClk.c ****     * \param counterNum The number of the WDT counter.
1588:Generated_Source\PSoC4/CyLFClk.c ****     * \param function The pointer to the callback function.
1589:Generated_Source\PSoC4/CyLFClk.c ****     *
1590:Generated_Source\PSoC4/CyLFClk.c ****     * \return The pointer to the previous callback function.
1591:Generated_Source\PSoC4/CyLFClk.c ****     * \return NULL is returned if the specified address is not set.
1592:Generated_Source\PSoC4/CyLFClk.c ****     *
1593:Generated_Source\PSoC4/CyLFClk.c ****     *******************************************************************************/
1594:Generated_Source\PSoC4/CyLFClk.c ****     cyWdtCallback CySysWdtSetInterruptCallback(uint32 counterNum, cyWdtCallback function)
1595:Generated_Source\PSoC4/CyLFClk.c ****     {
1596:Generated_Source\PSoC4/CyLFClk.c ****         cyWdtCallback prevCallback = (void *)0;
1597:Generated_Source\PSoC4/CyLFClk.c **** 
1598:Generated_Source\PSoC4/CyLFClk.c ****         if(counterNum < CY_WDT_NUM_OF_WDT)
1599:Generated_Source\PSoC4/CyLFClk.c ****         {
1600:Generated_Source\PSoC4/CyLFClk.c ****             prevCallback = cySysWdtCallback[counterNum];
1601:Generated_Source\PSoC4/CyLFClk.c ****             cySysWdtCallback[counterNum] = function;
1602:Generated_Source\PSoC4/CyLFClk.c ****         }
1603:Generated_Source\PSoC4/CyLFClk.c ****         else
1604:Generated_Source\PSoC4/CyLFClk.c ****         {
1605:Generated_Source\PSoC4/CyLFClk.c ****             CYASSERT(0u != 0u);
1606:Generated_Source\PSoC4/CyLFClk.c ****         }
1607:Generated_Source\PSoC4/CyLFClk.c **** 
1608:Generated_Source\PSoC4/CyLFClk.c ****         return((cyWdtCallback)prevCallback);
1609:Generated_Source\PSoC4/CyLFClk.c ****     }
1610:Generated_Source\PSoC4/CyLFClk.c **** 
1611:Generated_Source\PSoC4/CyLFClk.c **** 
1612:Generated_Source\PSoC4/CyLFClk.c ****     /*******************************************************************************
1613:Generated_Source\PSoC4/CyLFClk.c ****     * Function Name: CySysWdtGetInterruptCallback
1614:Generated_Source\PSoC4/CyLFClk.c ****     ****************************************************************************//**
1615:Generated_Source\PSoC4/CyLFClk.c ****     * \brief
1616:Generated_Source\PSoC4/CyLFClk.c ****     * Gets the ISR callback function for the particular WDT counter.
1617:Generated_Source\PSoC4/CyLFClk.c ****     *
1618:Generated_Source\PSoC4/CyLFClk.c ****     * \param counterNum The number of the WDT counter.
1619:Generated_Source\PSoC4/CyLFClk.c ****     *
1620:Generated_Source\PSoC4/CyLFClk.c ****     * \return The pointer to the callback function registered for a particular WDT by
1621:Generated_Source\PSoC4/CyLFClk.c ****     * a particular address that are passed through arguments.
1622:Generated_Source\PSoC4/CyLFClk.c ****     *
1623:Generated_Source\PSoC4/CyLFClk.c ****     *******************************************************************************/
1624:Generated_Source\PSoC4/CyLFClk.c ****     cyWdtCallback CySysWdtGetInterruptCallback(uint32 counterNum)
1625:Generated_Source\PSoC4/CyLFClk.c ****     {
1626:Generated_Source\PSoC4/CyLFClk.c ****         cyWdtCallback retCallback = (void *)0;
1627:Generated_Source\PSoC4/CyLFClk.c **** 
ARM GAS  C:\Users\AFDHAL~1\AppData\Local\Temp\cc29CzqQ.s 			page 30


1628:Generated_Source\PSoC4/CyLFClk.c ****         if(counterNum < CY_WDT_NUM_OF_WDT)
1629:Generated_Source\PSoC4/CyLFClk.c ****         {
1630:Generated_Source\PSoC4/CyLFClk.c ****             retCallback = (cyWdtCallback)cySysWdtCallback[counterNum];
1631:Generated_Source\PSoC4/CyLFClk.c ****         }
1632:Generated_Source\PSoC4/CyLFClk.c ****         else
1633:Generated_Source\PSoC4/CyLFClk.c ****         {
1634:Generated_Source\PSoC4/CyLFClk.c ****             CYASSERT(0u != 0u);
1635:Generated_Source\PSoC4/CyLFClk.c ****         }
1636:Generated_Source\PSoC4/CyLFClk.c **** 
1637:Generated_Source\PSoC4/CyLFClk.c ****         return(retCallback);
1638:Generated_Source\PSoC4/CyLFClk.c ****     }
1639:Generated_Source\PSoC4/CyLFClk.c **** 
1640:Generated_Source\PSoC4/CyLFClk.c **** 
1641:Generated_Source\PSoC4/CyLFClk.c ****     /*******************************************************************************
1642:Generated_Source\PSoC4/CyLFClk.c ****     * Function Name: CySysWdtEnableCounterIsr
1643:Generated_Source\PSoC4/CyLFClk.c ****     ****************************************************************************//**
1644:Generated_Source\PSoC4/CyLFClk.c ****     * \brief
1645:Generated_Source\PSoC4/CyLFClk.c ****     * Enables the ISR callback servicing for the particular WDT counter
1646:Generated_Source\PSoC4/CyLFClk.c ****     *
1647:Generated_Source\PSoC4/CyLFClk.c ****     * \param counterNum Valid range [0-2]. The number of the WDT counter.
1648:Generated_Source\PSoC4/CyLFClk.c ****     *
1649:Generated_Source\PSoC4/CyLFClk.c ****     * Value corresponds to appropriate WDT counter. For example value 1 
1650:Generated_Source\PSoC4/CyLFClk.c ****     * corresponds to second WDT counter.
1651:Generated_Source\PSoC4/CyLFClk.c ****     *
1652:Generated_Source\PSoC4/CyLFClk.c ****     *******************************************************************************/
1653:Generated_Source\PSoC4/CyLFClk.c ****     void CySysWdtEnableCounterIsr(uint32 counterNum)
1654:Generated_Source\PSoC4/CyLFClk.c ****     {
1655:Generated_Source\PSoC4/CyLFClk.c ****         if(counterNum <= CY_SYS_WDT_COUNTER2)
1656:Generated_Source\PSoC4/CyLFClk.c ****         {
1657:Generated_Source\PSoC4/CyLFClk.c ****             disableServicedIsr &= ~counterIntMaskTbl[counterNum];
1658:Generated_Source\PSoC4/CyLFClk.c ****             wdtIsrMask |= counterIntMaskTbl[counterNum];
1659:Generated_Source\PSoC4/CyLFClk.c ****         }
1660:Generated_Source\PSoC4/CyLFClk.c ****         else
1661:Generated_Source\PSoC4/CyLFClk.c ****         {
1662:Generated_Source\PSoC4/CyLFClk.c ****             CYASSERT(0u != 0u);
1663:Generated_Source\PSoC4/CyLFClk.c ****         }
1664:Generated_Source\PSoC4/CyLFClk.c ****     }
1665:Generated_Source\PSoC4/CyLFClk.c **** 
1666:Generated_Source\PSoC4/CyLFClk.c **** 
1667:Generated_Source\PSoC4/CyLFClk.c ****     /*******************************************************************************
1668:Generated_Source\PSoC4/CyLFClk.c ****     * Function Name: CySysWdtDisableCounterIsr
1669:Generated_Source\PSoC4/CyLFClk.c ****     ****************************************************************************//**
1670:Generated_Source\PSoC4/CyLFClk.c ****     * \brief
1671:Generated_Source\PSoC4/CyLFClk.c ****     * Disables the ISR callback servicing for the particular WDT counter
1672:Generated_Source\PSoC4/CyLFClk.c ****     *
1673:Generated_Source\PSoC4/CyLFClk.c ****     * \param counterNum Valid range [0-2]. The number of the WDT counter.
1674:Generated_Source\PSoC4/CyLFClk.c ****     *
1675:Generated_Source\PSoC4/CyLFClk.c ****     *******************************************************************************/
1676:Generated_Source\PSoC4/CyLFClk.c ****     void CySysWdtDisableCounterIsr(uint32 counterNum)
1677:Generated_Source\PSoC4/CyLFClk.c ****     {
1678:Generated_Source\PSoC4/CyLFClk.c ****         if(counterNum <= CY_SYS_WDT_COUNTER2)
1679:Generated_Source\PSoC4/CyLFClk.c ****         {
1680:Generated_Source\PSoC4/CyLFClk.c ****             wdtIsrMask &= ~counterIntMaskTbl[counterNum];
1681:Generated_Source\PSoC4/CyLFClk.c ****         }
1682:Generated_Source\PSoC4/CyLFClk.c ****         else
1683:Generated_Source\PSoC4/CyLFClk.c ****         {
1684:Generated_Source\PSoC4/CyLFClk.c ****             CYASSERT(0u != 0u);
ARM GAS  C:\Users\AFDHAL~1\AppData\Local\Temp\cc29CzqQ.s 			page 31


1685:Generated_Source\PSoC4/CyLFClk.c ****         }
1686:Generated_Source\PSoC4/CyLFClk.c ****     }
1687:Generated_Source\PSoC4/CyLFClk.c **** 
1688:Generated_Source\PSoC4/CyLFClk.c **** 
1689:Generated_Source\PSoC4/CyLFClk.c ****     /*******************************************************************************
1690:Generated_Source\PSoC4/CyLFClk.c ****     * Function Name: CySysWdtIsr
1691:Generated_Source\PSoC4/CyLFClk.c ****     ****************************************************************************//**
1692:Generated_Source\PSoC4/CyLFClk.c ****     * \brief
1693:Generated_Source\PSoC4/CyLFClk.c ****     * This is the handler of the WDT interrupt in CPU NVIC.
1694:Generated_Source\PSoC4/CyLFClk.c ****     *
1695:Generated_Source\PSoC4/CyLFClk.c ****     * The handler checks which WDT triggered in the interrupt and calls the 
1696:Generated_Source\PSoC4/CyLFClk.c ****     * respective callback functions configured by the user by using 
1697:Generated_Source\PSoC4/CyLFClk.c ****     * CySysWdtSetIsrCallback() API.
1698:Generated_Source\PSoC4/CyLFClk.c ****     *
1699:Generated_Source\PSoC4/CyLFClk.c ****     * The order of the callback execution is incremental. Callback-0 is
1700:Generated_Source\PSoC4/CyLFClk.c ****     * run as the first one and callback-2 is called as the last one.
1701:Generated_Source\PSoC4/CyLFClk.c ****     *
1702:Generated_Source\PSoC4/CyLFClk.c ****     * \details
1703:Generated_Source\PSoC4/CyLFClk.c ****     * This function clears the WDT interrupt every time when it is called.
1704:Generated_Source\PSoC4/CyLFClk.c ****     * Reset after the 3rd interrupt does not happen if this function is registered
1705:Generated_Source\PSoC4/CyLFClk.c ****     * as the interrupt handler even if the "Watchdog with Interrupt" mode is
1706:Generated_Source\PSoC4/CyLFClk.c ****     * selected on the "Low Frequency Clocks" tab.
1707:Generated_Source\PSoC4/CyLFClk.c ****     *
1708:Generated_Source\PSoC4/CyLFClk.c ****     *******************************************************************************/
1709:Generated_Source\PSoC4/CyLFClk.c ****     void CySysWdtIsr(void)
1710:Generated_Source\PSoC4/CyLFClk.c ****     {
1711:Generated_Source\PSoC4/CyLFClk.c ****         if(0u != (CY_SYS_WDT_COUNTER0_INT & CY_SYS_WDT_CONTROL_REG))
1712:Generated_Source\PSoC4/CyLFClk.c ****         {
1713:Generated_Source\PSoC4/CyLFClk.c ****             if(0u != (CY_SYS_WDT_COUNTER0_INT & wdtIsrMask))
1714:Generated_Source\PSoC4/CyLFClk.c ****             {
1715:Generated_Source\PSoC4/CyLFClk.c ****                 wdtIsrMask &= ~(disableServicedIsr & CY_SYS_WDT_COUNTER0_INT);
1716:Generated_Source\PSoC4/CyLFClk.c ****                 disableServicedIsr  &= ~CY_SYS_WDT_COUNTER0_INT;
1717:Generated_Source\PSoC4/CyLFClk.c ****                 if(cySysWdtCallback[CY_SYS_WDT_COUNTER0] != (void *) 0)
1718:Generated_Source\PSoC4/CyLFClk.c ****                 {
1719:Generated_Source\PSoC4/CyLFClk.c ****                     (void)(cySysWdtCallback[CY_SYS_WDT_COUNTER0])();
1720:Generated_Source\PSoC4/CyLFClk.c ****                 }
1721:Generated_Source\PSoC4/CyLFClk.c ****             }
1722:Generated_Source\PSoC4/CyLFClk.c ****             CySysWdtClearInterrupt(CY_SYS_WDT_COUNTER0_INT);
1723:Generated_Source\PSoC4/CyLFClk.c ****         }
1724:Generated_Source\PSoC4/CyLFClk.c **** 
1725:Generated_Source\PSoC4/CyLFClk.c ****         if(0u != (CY_SYS_WDT_COUNTER1_INT & CY_SYS_WDT_CONTROL_REG))
1726:Generated_Source\PSoC4/CyLFClk.c ****         {
1727:Generated_Source\PSoC4/CyLFClk.c ****             if(0u != (CY_SYS_WDT_COUNTER1_INT & wdtIsrMask))
1728:Generated_Source\PSoC4/CyLFClk.c ****             {
1729:Generated_Source\PSoC4/CyLFClk.c ****                 wdtIsrMask &= ~(disableServicedIsr & CY_SYS_WDT_COUNTER1_INT);
1730:Generated_Source\PSoC4/CyLFClk.c ****                 disableServicedIsr  &= ~CY_SYS_WDT_COUNTER1_INT;
1731:Generated_Source\PSoC4/CyLFClk.c ****                 if(cySysWdtCallback[CY_SYS_WDT_COUNTER1] != (void *) 0)
1732:Generated_Source\PSoC4/CyLFClk.c ****                 {
1733:Generated_Source\PSoC4/CyLFClk.c ****                     (void)(cySysWdtCallback[CY_SYS_WDT_COUNTER1])();
1734:Generated_Source\PSoC4/CyLFClk.c ****                 }
1735:Generated_Source\PSoC4/CyLFClk.c ****             }
1736:Generated_Source\PSoC4/CyLFClk.c ****             CySysWdtClearInterrupt(CY_SYS_WDT_COUNTER1_INT);
1737:Generated_Source\PSoC4/CyLFClk.c ****         }
1738:Generated_Source\PSoC4/CyLFClk.c **** 
1739:Generated_Source\PSoC4/CyLFClk.c ****         if(0u != (CY_SYS_WDT_COUNTER2_INT & CY_SYS_WDT_CONTROL_REG))
1740:Generated_Source\PSoC4/CyLFClk.c ****         {
1741:Generated_Source\PSoC4/CyLFClk.c ****             if(0u != (CY_SYS_WDT_COUNTER2_INT & wdtIsrMask))
ARM GAS  C:\Users\AFDHAL~1\AppData\Local\Temp\cc29CzqQ.s 			page 32


1742:Generated_Source\PSoC4/CyLFClk.c ****             {
1743:Generated_Source\PSoC4/CyLFClk.c ****                 if(cySysWdtCallback[CY_SYS_WDT_COUNTER2] != (void *) 0)
1744:Generated_Source\PSoC4/CyLFClk.c ****                 {
1745:Generated_Source\PSoC4/CyLFClk.c ****                     (void)(cySysWdtCallback[CY_SYS_WDT_COUNTER2])();
1746:Generated_Source\PSoC4/CyLFClk.c ****                 }
1747:Generated_Source\PSoC4/CyLFClk.c ****             }
1748:Generated_Source\PSoC4/CyLFClk.c ****             CySysWdtClearInterrupt(CY_SYS_WDT_COUNTER2_INT);
1749:Generated_Source\PSoC4/CyLFClk.c ****         }
1750:Generated_Source\PSoC4/CyLFClk.c ****     }
1751:Generated_Source\PSoC4/CyLFClk.c **** 
1752:Generated_Source\PSoC4/CyLFClk.c **** 
1753:Generated_Source\PSoC4/CyLFClk.c ****     /*******************************************************************************
1754:Generated_Source\PSoC4/CyLFClk.c ****     * Function Name: CySysWatchdogFeed
1755:Generated_Source\PSoC4/CyLFClk.c ****     ****************************************************************************//**
1756:Generated_Source\PSoC4/CyLFClk.c ****     * \brief
1757:Generated_Source\PSoC4/CyLFClk.c ****     * Feeds the corresponded Watchdog Counter before it causes the device reset.
1758:Generated_Source\PSoC4/CyLFClk.c ****     *
1759:Generated_Source\PSoC4/CyLFClk.c ****     * Supported only for first WDT0 and second WDT1 counters in the "Watchdog" or 
1760:Generated_Source\PSoC4/CyLFClk.c ****     * "Watchdog w/ Interrupts" modes.
1761:Generated_Source\PSoC4/CyLFClk.c ****     *
1762:Generated_Source\PSoC4/CyLFClk.c ****     * \param counterNum
1763:Generated_Source\PSoC4/CyLFClk.c ****     * CY_SYS_WDT_COUNTER0 - Feeds the Counter 0 <br>
1764:Generated_Source\PSoC4/CyLFClk.c ****     * CY_SYS_WDT_COUNTER1 - Feeds the Counter 1
1765:Generated_Source\PSoC4/CyLFClk.c ****     *
1766:Generated_Source\PSoC4/CyLFClk.c ****     * Value of counterNum corresponds to appropriate counter. For example value 1 
1767:Generated_Source\PSoC4/CyLFClk.c ****     * corresponds to second WDT1 Counter.
1768:Generated_Source\PSoC4/CyLFClk.c ****     *
1769:Generated_Source\PSoC4/CyLFClk.c ****     * \details
1770:Generated_Source\PSoC4/CyLFClk.c ****     * Clears the WDT counter in the "Watchdog" mode or clears the WDT interrupt in
1771:Generated_Source\PSoC4/CyLFClk.c ****     * "Watchdog w/ Interrupts" mode. Does nothing in other modes.
1772:Generated_Source\PSoC4/CyLFClk.c ****     *
1773:Generated_Source\PSoC4/CyLFClk.c ****     *******************************************************************************/
1774:Generated_Source\PSoC4/CyLFClk.c ****     void CySysWatchdogFeed(uint32 counterNum)
1775:Generated_Source\PSoC4/CyLFClk.c ****     {
1776:Generated_Source\PSoC4/CyLFClk.c ****         if(counterNum == CY_SYS_WDT_COUNTER0)
1777:Generated_Source\PSoC4/CyLFClk.c ****         {
1778:Generated_Source\PSoC4/CyLFClk.c ****             if(CY_SYS_WDT_MODE_INT_RESET == CySysWdtGetMode(counterNum))
1779:Generated_Source\PSoC4/CyLFClk.c ****             {
1780:Generated_Source\PSoC4/CyLFClk.c ****                 CySysWdtClearInterrupt(CY_SYS_WDT_COUNTER0_INT);
1781:Generated_Source\PSoC4/CyLFClk.c ****             }
1782:Generated_Source\PSoC4/CyLFClk.c ****             else if(CY_SYS_WDT_MODE_RESET == CySysWdtGetMode(counterNum))
1783:Generated_Source\PSoC4/CyLFClk.c ****             {
1784:Generated_Source\PSoC4/CyLFClk.c ****                 CySysWdtResetCounters(CY_SYS_WDT_COUNTER0_RESET);
1785:Generated_Source\PSoC4/CyLFClk.c ****                 CySysWdtClearInterrupt(CY_SYS_WDT_COUNTER0_INT);
1786:Generated_Source\PSoC4/CyLFClk.c ****             }
1787:Generated_Source\PSoC4/CyLFClk.c ****             else
1788:Generated_Source\PSoC4/CyLFClk.c ****             {
1789:Generated_Source\PSoC4/CyLFClk.c ****                 /* Do nothing. */
1790:Generated_Source\PSoC4/CyLFClk.c ****             }
1791:Generated_Source\PSoC4/CyLFClk.c ****         }
1792:Generated_Source\PSoC4/CyLFClk.c ****         else if(counterNum == CY_SYS_WDT_COUNTER1)
1793:Generated_Source\PSoC4/CyLFClk.c ****         {
1794:Generated_Source\PSoC4/CyLFClk.c ****             if(CY_SYS_WDT_MODE_INT_RESET == CySysWdtGetMode(counterNum))
1795:Generated_Source\PSoC4/CyLFClk.c ****             {
1796:Generated_Source\PSoC4/CyLFClk.c ****                 CySysWdtClearInterrupt(CY_SYS_WDT_COUNTER1_INT);
1797:Generated_Source\PSoC4/CyLFClk.c ****             }
1798:Generated_Source\PSoC4/CyLFClk.c ****             else if(CY_SYS_WDT_MODE_RESET == CySysWdtGetMode(counterNum))
ARM GAS  C:\Users\AFDHAL~1\AppData\Local\Temp\cc29CzqQ.s 			page 33


1799:Generated_Source\PSoC4/CyLFClk.c ****             {
1800:Generated_Source\PSoC4/CyLFClk.c ****                 CySysWdtResetCounters(CY_SYS_WDT_COUNTER1_RESET);
1801:Generated_Source\PSoC4/CyLFClk.c ****                 CySysWdtClearInterrupt(CY_SYS_WDT_COUNTER1_INT);
1802:Generated_Source\PSoC4/CyLFClk.c ****             }
1803:Generated_Source\PSoC4/CyLFClk.c ****             else
1804:Generated_Source\PSoC4/CyLFClk.c ****             {
1805:Generated_Source\PSoC4/CyLFClk.c ****                 /* Do nothing. */
1806:Generated_Source\PSoC4/CyLFClk.c ****             }
1807:Generated_Source\PSoC4/CyLFClk.c ****         }
1808:Generated_Source\PSoC4/CyLFClk.c ****         else
1809:Generated_Source\PSoC4/CyLFClk.c ****         {
1810:Generated_Source\PSoC4/CyLFClk.c ****             /* Do nothing. */
1811:Generated_Source\PSoC4/CyLFClk.c ****         }
1812:Generated_Source\PSoC4/CyLFClk.c ****     }
1813:Generated_Source\PSoC4/CyLFClk.c **** 
1814:Generated_Source\PSoC4/CyLFClk.c **** 
1815:Generated_Source\PSoC4/CyLFClk.c ****     /*******************************************************************************
1816:Generated_Source\PSoC4/CyLFClk.c ****     * Function Name: CySysClkLfclkPosedgeCatch
1817:Generated_Source\PSoC4/CyLFClk.c ****     ****************************************************************************//**
1818:Generated_Source\PSoC4/CyLFClk.c ****     * \internal
1819:Generated_Source\PSoC4/CyLFClk.c ****     * Returns once the LFCLK positive edge occurred.
1820:Generated_Source\PSoC4/CyLFClk.c ****     *
1821:Generated_Source\PSoC4/CyLFClk.c ****     * CySysClkLfclkPosedgeRestore() should be called after this function
1822:Generated_Source\PSoC4/CyLFClk.c ****     * to restore the WDT configuration.
1823:Generated_Source\PSoC4/CyLFClk.c ****     *
1824:Generated_Source\PSoC4/CyLFClk.c ****     * A pair of the CySysClkLfclkPosedgeCatch() and CySysClkLfclkPosedgeRestore()
1825:Generated_Source\PSoC4/CyLFClk.c ****     * functions is expected to be called inside a critical section.
1826:Generated_Source\PSoC4/CyLFClk.c ****     *
1827:Generated_Source\PSoC4/CyLFClk.c ****     * To ensure that the WDT counter value is read until it changes, the enabled
1828:Generated_Source\PSoC4/CyLFClk.c ****     * WDT counter is used. If no counter is enabled, counter 0 is enabled.
1829:Generated_Source\PSoC4/CyLFClk.c ****     * And after the LFCLK source is switched, the counter 0 configuration
1830:Generated_Source\PSoC4/CyLFClk.c ****     * is restored.
1831:Generated_Source\PSoC4/CyLFClk.c ****     *
1832:Generated_Source\PSoC4/CyLFClk.c ****     * Not applicable for the PSoC 4000 / PSoC 4000S / PSoC 4100S / PSoC Analog 
1833:Generated_Source\PSoC4/CyLFClk.c ****     * Coprocessor devices.
1834:Generated_Source\PSoC4/CyLFClk.c ****     *
1835:Generated_Source\PSoC4/CyLFClk.c ****     * \details
1836:Generated_Source\PSoC4/CyLFClk.c ****     * This function has no effect if WDT is locked (CySysWdtLock() is
1837:Generated_Source\PSoC4/CyLFClk.c ****     * called). Call CySysWdtUnlock() to unlock WDT.
1838:Generated_Source\PSoC4/CyLFClk.c ****     * \endinternal
1839:Generated_Source\PSoC4/CyLFClk.c ****     *******************************************************************************/
1840:Generated_Source\PSoC4/CyLFClk.c ****     static void CySysClkLfclkPosedgeCatch(void)
1841:Generated_Source\PSoC4/CyLFClk.c ****     {
  27              		.loc 1 1841 0
  28              		.cfi_startproc
  29              		@ args = 0, pretend = 0, frame = 0
  30              		@ frame_needed = 0, uses_anonymous_args = 0
  31              	.LVL0:
  32              	.LBB146:
  33              	.LBB147:
1020:Generated_Source\PSoC4/CyLFClk.c ****     }
  34              		.loc 1 1020 0
  35 0000 2D4B     		ldr	r3, .L38
  36              	.LBE147:
  37              	.LBE146:
  38              		.loc 1 1841 0
  39 0002 30B5     		push	{r4, r5, lr}
ARM GAS  C:\Users\AFDHAL~1\AppData\Local\Temp\cc29CzqQ.s 			page 34


  40              		.cfi_def_cfa_offset 12
  41              		.cfi_offset 4, -12
  42              		.cfi_offset 5, -8
  43              		.cfi_offset 14, -4
  44              	.LBB149:
  45              	.LBB148:
1020:Generated_Source\PSoC4/CyLFClk.c ****     }
  46              		.loc 1 1020 0
  47 0004 1968     		ldr	r1, [r3]
  48              	.LVL1:
  49              	.LBE148:
  50              	.LBE149:
1842:Generated_Source\PSoC4/CyLFClk.c ****         uint32 firstCount;
1843:Generated_Source\PSoC4/CyLFClk.c ****         static uint32 lfclkPosedgeEnabledWdtCounter = 0u;
1844:Generated_Source\PSoC4/CyLFClk.c **** 
1845:Generated_Source\PSoC4/CyLFClk.c ****         if (0u != CySysWdtGetEnabledStatus(CY_SYS_WDT_COUNTER0))
  51              		.loc 1 1845 0
  52 0006 0122     		movs	r2, #1
  53 0008 8907     		lsls	r1, r1, #30
  54 000a 1ED5     		bpl	.L2
1846:Generated_Source\PSoC4/CyLFClk.c ****         {
1847:Generated_Source\PSoC4/CyLFClk.c ****             lfclkPosedgeEnabledWdtCounter = CY_SYS_WDT_COUNTER0;
  55              		.loc 1 1847 0
  56 000c 0022     		movs	r2, #0
  57 000e 2B4B     		ldr	r3, .L38+4
  58 0010 1A60     		str	r2, [r3]
  59              	.LVL2:
  60              	.L3:
  61              	.LBB150:
  62              	.LBB151:
1446:Generated_Source\PSoC4/CyLFClk.c ****             break;
  63              		.loc 1 1446 0
  64 0012 0022     		movs	r2, #0
  65 0014 2A4B     		ldr	r3, .L38+8
  66 0016 1968     		ldr	r1, [r3]
  67 0018 0904     		lsls	r1, r1, #16
  68 001a 090C     		lsrs	r1, r1, #16
  69              	.LVL3:
  70              	.L10:
  71              	.LBE151:
  72              	.LBE150:
  73              	.LBB155:
  74              	.LBB156:
1451:Generated_Source\PSoC4/CyLFClk.c ****             break;
  75              		.loc 1 1451 0
  76 001c 2848     		ldr	r0, .L38+8
1456:Generated_Source\PSoC4/CyLFClk.c ****             break;
  77              		.loc 1 1456 0
  78 001e 294C     		ldr	r4, .L38+12
  79              	.LBE156:
  80              	.LBE155:
1848:Generated_Source\PSoC4/CyLFClk.c ****         }
1849:Generated_Source\PSoC4/CyLFClk.c ****         else if (0u != CySysWdtGetEnabledStatus(CY_SYS_WDT_COUNTER1))
1850:Generated_Source\PSoC4/CyLFClk.c ****         {
1851:Generated_Source\PSoC4/CyLFClk.c ****             lfclkPosedgeEnabledWdtCounter = CY_SYS_WDT_COUNTER1;
1852:Generated_Source\PSoC4/CyLFClk.c ****         }
1853:Generated_Source\PSoC4/CyLFClk.c ****         else if (0u != CySysWdtGetEnabledStatus(CY_SYS_WDT_COUNTER2))
ARM GAS  C:\Users\AFDHAL~1\AppData\Local\Temp\cc29CzqQ.s 			page 35


1854:Generated_Source\PSoC4/CyLFClk.c ****         {
1855:Generated_Source\PSoC4/CyLFClk.c ****             lfclkPosedgeEnabledWdtCounter = CY_SYS_WDT_COUNTER2;
1856:Generated_Source\PSoC4/CyLFClk.c ****         }
1857:Generated_Source\PSoC4/CyLFClk.c ****         else /* All WDT counters are disabled */
1858:Generated_Source\PSoC4/CyLFClk.c ****         {
1859:Generated_Source\PSoC4/CyLFClk.c ****             /* Configure WDT counter # 0 */
1860:Generated_Source\PSoC4/CyLFClk.c ****             lfclkPosedgeWdtCounter0Enabled = 1u;
1861:Generated_Source\PSoC4/CyLFClk.c ****             lfclkPosedgeEnabledWdtCounter = CY_SYS_WDT_COUNTER0;
1862:Generated_Source\PSoC4/CyLFClk.c **** 
1863:Generated_Source\PSoC4/CyLFClk.c ****             lfclkPosedgeWdtCounter0Mode = CySysWdtGetMode(CY_SYS_WDT_COUNTER0);
1864:Generated_Source\PSoC4/CyLFClk.c ****             CySysWdtSetMode(CY_SYS_WDT_COUNTER0, CY_SYS_WDT_MODE_NONE);
1865:Generated_Source\PSoC4/CyLFClk.c ****             CySysWdtEnable(CY_SYS_WDT_COUNTER0_MASK);
1866:Generated_Source\PSoC4/CyLFClk.c ****         }
1867:Generated_Source\PSoC4/CyLFClk.c **** 
1868:Generated_Source\PSoC4/CyLFClk.c ****         firstCount = CySysWdtGetCount(lfclkPosedgeEnabledWdtCounter);
1869:Generated_Source\PSoC4/CyLFClk.c ****         while (CySysWdtGetCount(lfclkPosedgeEnabledWdtCounter) == firstCount)
  81              		.loc 1 1869 0
  82 0020 06E0     		b	.L15
  83              	.LVL4:
  84              	.L36:
  85              	.LBB160:
  86              	.LBB157:
1442:Generated_Source\PSoC4/CyLFClk.c ****         {
  87              		.loc 1 1442 0 discriminator 1
  88 0022 002A     		cmp	r2, #0
  89 0024 0DD0     		beq	.L13
  90 0026 022A     		cmp	r2, #2
  91 0028 09D1     		bne	.L34
1456:Generated_Source\PSoC4/CyLFClk.c ****             break;
  92              		.loc 1 1456 0
  93 002a 2368     		ldr	r3, [r4]
  94              	.LVL5:
  95              	.L11:
  96              	.LBE157:
  97              	.LBE160:
  98              		.loc 1 1869 0
  99 002c 9942     		cmp	r1, r3
 100 002e 05D1     		bne	.L35
 101              	.L15:
 102              	.LVL6:
 103              	.LBB161:
 104              	.LBB158:
1442:Generated_Source\PSoC4/CyLFClk.c ****         {
 105              		.loc 1 1442 0 discriminator 1
 106 0030 012A     		cmp	r2, #1
 107 0032 F6D1     		bne	.L36
1451:Generated_Source\PSoC4/CyLFClk.c ****             break;
 108              		.loc 1 1451 0
 109 0034 0368     		ldr	r3, [r0]
 110 0036 1B0C     		lsrs	r3, r3, #16
 111              	.LVL7:
 112              	.LBE158:
 113              	.LBE161:
 114              		.loc 1 1869 0
 115 0038 9942     		cmp	r1, r3
 116 003a F9D0     		beq	.L15
 117              	.L35:
ARM GAS  C:\Users\AFDHAL~1\AppData\Local\Temp\cc29CzqQ.s 			page 36


1870:Generated_Source\PSoC4/CyLFClk.c ****         {
1871:Generated_Source\PSoC4/CyLFClk.c ****             /* Wait for counter to increment */
1872:Generated_Source\PSoC4/CyLFClk.c ****         }
1873:Generated_Source\PSoC4/CyLFClk.c ****     }
 118              		.loc 1 1873 0
 119              		@ sp needed
 120 003c 30BD     		pop	{r4, r5, pc}
 121              	.LVL8:
 122              	.L34:
 123              	.LBB162:
 124              	.LBB159:
1440:Generated_Source\PSoC4/CyLFClk.c **** 
 125              		.loc 1 1440 0
 126 003e 0023     		movs	r3, #0
 127 0040 F4E7     		b	.L11
 128              	.L13:
1446:Generated_Source\PSoC4/CyLFClk.c ****             break;
 129              		.loc 1 1446 0
 130 0042 0368     		ldr	r3, [r0]
 131 0044 1B04     		lsls	r3, r3, #16
 132 0046 1B0C     		lsrs	r3, r3, #16
 133              	.LVL9:
 134 0048 F0E7     		b	.L11
 135              	.LVL10:
 136              	.L2:
 137              	.LBE159:
 138              	.LBE162:
 139              	.LBB163:
 140              	.LBB164:
1020:Generated_Source\PSoC4/CyLFClk.c ****     }
 141              		.loc 1 1020 0
 142 004a 1968     		ldr	r1, [r3]
 143              	.LVL11:
 144              	.LBE164:
 145              	.LBE163:
1849:Generated_Source\PSoC4/CyLFClk.c ****         {
 146              		.loc 1 1849 0
 147 004c 490A     		lsrs	r1, r1, #9
 148 004e 0A42     		tst	r2, r1
 149 0050 06D0     		beq	.L4
1851:Generated_Source\PSoC4/CyLFClk.c ****         }
 150              		.loc 1 1851 0
 151 0052 1A4B     		ldr	r3, .L38+4
 152 0054 1A60     		str	r2, [r3]
 153              	.LVL12:
 154              	.L5:
 155              	.LBB165:
 156              	.LBB152:
1451:Generated_Source\PSoC4/CyLFClk.c ****             break;
 157              		.loc 1 1451 0
 158 0056 1A4B     		ldr	r3, .L38+8
 159 0058 0122     		movs	r2, #1
 160 005a 1968     		ldr	r1, [r3]
 161 005c 090C     		lsrs	r1, r1, #16
 162              	.LVL13:
 163 005e DDE7     		b	.L10
 164              	.LVL14:
ARM GAS  C:\Users\AFDHAL~1\AppData\Local\Temp\cc29CzqQ.s 			page 37


 165              	.L4:
 166              	.LBE152:
 167              	.LBE165:
 168              	.LBB166:
 169              	.LBB167:
1020:Generated_Source\PSoC4/CyLFClk.c ****     }
 170              		.loc 1 1020 0
 171 0060 1968     		ldr	r1, [r3]
 172              	.LVL15:
 173              	.LBE167:
 174              	.LBE166:
1853:Generated_Source\PSoC4/CyLFClk.c ****         {
 175              		.loc 1 1853 0
 176 0062 490C     		lsrs	r1, r1, #17
 177 0064 1140     		ands	r1, r2
 178 0066 20D1     		bne	.L37
1863:Generated_Source\PSoC4/CyLFClk.c ****             CySysWdtSetMode(CY_SYS_WDT_COUNTER0, CY_SYS_WDT_MODE_NONE);
 179              		.loc 1 1863 0
 180 0068 0325     		movs	r5, #3
1860:Generated_Source\PSoC4/CyLFClk.c ****             lfclkPosedgeEnabledWdtCounter = CY_SYS_WDT_COUNTER0;
 181              		.loc 1 1860 0
 182 006a 1448     		ldr	r0, .L38+4
 183              	.LBB168:
 184              	.LBB169:
1077:Generated_Source\PSoC4/CyLFClk.c ****     }
 185              		.loc 1 1077 0
 186 006c 164C     		ldr	r4, .L38+16
 187              	.LBE169:
 188              	.LBE168:
1860:Generated_Source\PSoC4/CyLFClk.c ****             lfclkPosedgeEnabledWdtCounter = CY_SYS_WDT_COUNTER0;
 189              		.loc 1 1860 0
 190 006e 4260     		str	r2, [r0, #4]
1861:Generated_Source\PSoC4/CyLFClk.c **** 
 191              		.loc 1 1861 0
 192 0070 0160     		str	r1, [r0]
 193              	.LVL16:
 194              	.LBB171:
 195              	.LBB170:
1077:Generated_Source\PSoC4/CyLFClk.c ****     }
 196              		.loc 1 1077 0
 197 0072 2168     		ldr	r1, [r4]
 198              	.LVL17:
 199              	.LBE170:
 200              	.LBE171:
1863:Generated_Source\PSoC4/CyLFClk.c ****             CySysWdtSetMode(CY_SYS_WDT_COUNTER0, CY_SYS_WDT_MODE_NONE);
 201              		.loc 1 1863 0
 202 0074 2940     		ands	r1, r5
 203 0076 8160     		str	r1, [r0, #8]
 204              	.LVL18:
 205              	.LBB172:
 206              	.LBB173:
 207              	.LBB174:
 208              	.LBB175:
1020:Generated_Source\PSoC4/CyLFClk.c ****     }
 209              		.loc 1 1020 0
 210 0078 1B68     		ldr	r3, [r3]
 211              	.LVL19:
ARM GAS  C:\Users\AFDHAL~1\AppData\Local\Temp\cc29CzqQ.s 			page 38


 212              	.LBE175:
 213              	.LBE174:
1053:Generated_Source\PSoC4/CyLFClk.c ****         {
 214              		.loc 1 1053 0
 215 007a 5B08     		lsrs	r3, r3, #1
 216 007c 1A42     		tst	r2, r3
 217 007e 02D1     		bne	.L8
1055:Generated_Source\PSoC4/CyLFClk.c ****                                 (uint32)~((uint32)(CY_SYS_WDT_MODE_MASK << (counterNum * CY_SYS_WDT
 218              		.loc 1 1055 0
 219 0080 2368     		ldr	r3, [r4]
 220 0082 AB43     		bics	r3, r5
 221              	.LVL20:
1058:Generated_Source\PSoC4/CyLFClk.c ****         }
 222              		.loc 1 1058 0
 223 0084 2360     		str	r3, [r4]
 224              	.LVL21:
 225              	.L8:
 226              	.LBE173:
 227              	.LBE172:
 228              	.LBB176:
 229              	.LBB177:
1184:Generated_Source\PSoC4/CyLFClk.c **** 
 230              		.loc 1 1184 0
 231 0086 0123     		movs	r3, #1
 232 0088 0B4A     		ldr	r2, .L38
 233 008a 1168     		ldr	r1, [r2]
 234 008c 0B43     		orrs	r3, r1
1188:Generated_Source\PSoC4/CyLFClk.c ****             {
 235              		.loc 1 1188 0
 236 008e 0221     		movs	r1, #2
1184:Generated_Source\PSoC4/CyLFClk.c **** 
 237              		.loc 1 1184 0
 238 0090 1360     		str	r3, [r2]
 239              	.L9:
 240              	.LVL22:
 241              	.LBB178:
 242              	.LBB179:
1020:Generated_Source\PSoC4/CyLFClk.c ****     }
 243              		.loc 1 1020 0
 244 0092 1368     		ldr	r3, [r2]
 245              	.LVL23:
 246              	.LBE179:
 247              	.LBE178:
1188:Generated_Source\PSoC4/CyLFClk.c ****             {
 248              		.loc 1 1188 0
 249 0094 1942     		tst	r1, r3
 250 0096 FCD0     		beq	.L9
 251              	.LBE177:
 252              	.LBE176:
1868:Generated_Source\PSoC4/CyLFClk.c ****         while (CySysWdtGetCount(lfclkPosedgeEnabledWdtCounter) == firstCount)
 253              		.loc 1 1868 0
 254 0098 0268     		ldr	r2, [r0]
 255              	.LVL24:
 256              	.LBB180:
 257              	.LBB153:
1442:Generated_Source\PSoC4/CyLFClk.c ****         {
 258              		.loc 1 1442 0
ARM GAS  C:\Users\AFDHAL~1\AppData\Local\Temp\cc29CzqQ.s 			page 39


 259 009a 012A     		cmp	r2, #1
 260 009c DBD0     		beq	.L5
 261 009e 002A     		cmp	r2, #0
 262 00a0 B7D0     		beq	.L3
1440:Generated_Source\PSoC4/CyLFClk.c **** 
 263              		.loc 1 1440 0
 264 00a2 0021     		movs	r1, #0
1442:Generated_Source\PSoC4/CyLFClk.c ****         {
 265              		.loc 1 1442 0
 266 00a4 022A     		cmp	r2, #2
 267 00a6 B9D1     		bne	.L10
 268 00a8 02E0     		b	.L7
 269              	.LVL25:
 270              	.L37:
 271              	.LBE153:
 272              	.LBE180:
1855:Generated_Source\PSoC4/CyLFClk.c ****         }
 273              		.loc 1 1855 0
 274 00aa 0222     		movs	r2, #2
 275 00ac 034B     		ldr	r3, .L38+4
 276 00ae 1A60     		str	r2, [r3]
 277              	.LVL26:
 278              	.L7:
 279              	.LBB181:
 280              	.LBB154:
1456:Generated_Source\PSoC4/CyLFClk.c ****             break;
 281              		.loc 1 1456 0
 282 00b0 044B     		ldr	r3, .L38+12
 283 00b2 0222     		movs	r2, #2
 284 00b4 1968     		ldr	r1, [r3]
 285              	.LVL27:
 286 00b6 B1E7     		b	.L10
 287              	.L39:
 288              		.align	2
 289              	.L38:
 290 00b8 10020B40 		.word	1074463248
 291 00bc 00000000 		.word	.LANCHOR0
 292 00c0 00020B40 		.word	1074463232
 293 00c4 04020B40 		.word	1074463236
 294 00c8 0C020B40 		.word	1074463244
 295              	.LBE154:
 296              	.LBE181:
 297              		.cfi_endproc
 298              	.LFE43:
 299              		.size	CySysClkLfclkPosedgeCatch, .-CySysClkLfclkPosedgeCatch
 300              		.section	.text.CySysClkIloStart,"ax",%progbits
 301              		.align	2
 302              		.global	CySysClkIloStart
 303              		.code	16
 304              		.thumb_func
 305              		.type	CySysClkIloStart, %function
 306              	CySysClkIloStart:
 307              	.LFB1:
  84:Generated_Source\PSoC4/CyLFClk.c ****     CY_SYS_CLK_ILO_CONFIG_REG |= CY_SYS_CLK_ILO_CONFIG_ENABLE;
 308              		.loc 1 84 0
 309              		.cfi_startproc
 310              		@ args = 0, pretend = 0, frame = 0
ARM GAS  C:\Users\AFDHAL~1\AppData\Local\Temp\cc29CzqQ.s 			page 40


 311              		@ frame_needed = 0, uses_anonymous_args = 0
 312              		@ link register save eliminated.
  85:Generated_Source\PSoC4/CyLFClk.c **** }
 313              		.loc 1 85 0
 314 0000 8021     		movs	r1, #128
 315 0002 034A     		ldr	r2, .L41
 316 0004 0906     		lsls	r1, r1, #24
 317 0006 1368     		ldr	r3, [r2]
  86:Generated_Source\PSoC4/CyLFClk.c **** 
 318              		.loc 1 86 0
 319              		@ sp needed
  85:Generated_Source\PSoC4/CyLFClk.c **** }
 320              		.loc 1 85 0
 321 0008 0B43     		orrs	r3, r1
 322 000a 1360     		str	r3, [r2]
  86:Generated_Source\PSoC4/CyLFClk.c **** 
 323              		.loc 1 86 0
 324 000c 7047     		bx	lr
 325              	.L42:
 326 000e C046     		.align	2
 327              	.L41:
 328 0010 04010B40 		.word	1074462980
 329              		.cfi_endproc
 330              	.LFE1:
 331              		.size	CySysClkIloStart, .-CySysClkIloStart
 332              		.section	.text.CySysClkIloStop,"ax",%progbits
 333              		.align	2
 334              		.global	CySysClkIloStop
 335              		.code	16
 336              		.thumb_func
 337              		.type	CySysClkIloStop, %function
 338              	CySysClkIloStop:
 339              	.LFB2:
 109:Generated_Source\PSoC4/CyLFClk.c ****     #if(CY_IP_SRSSV2)
 340              		.loc 1 109 0
 341              		.cfi_startproc
 342              		@ args = 0, pretend = 0, frame = 0
 343              		@ frame_needed = 0, uses_anonymous_args = 0
 344              	.LBB196:
 345              	.LBB197:
 972:Generated_Source\PSoC4/CyLFClk.c ****     }
 346              		.loc 1 972 0
 347 0000 1C4B     		ldr	r3, .L60
 348              	.LBE197:
 349              	.LBE196:
 109:Generated_Source\PSoC4/CyLFClk.c ****     #if(CY_IP_SRSSV2)
 350              		.loc 1 109 0
 351 0002 70B5     		push	{r4, r5, r6, lr}
 352              		.cfi_def_cfa_offset 16
 353              		.cfi_offset 4, -16
 354              		.cfi_offset 5, -12
 355              		.cfi_offset 6, -8
 356              		.cfi_offset 14, -4
 357              	.LBB199:
 358              	.LBB198:
 972:Generated_Source\PSoC4/CyLFClk.c ****     }
 359              		.loc 1 972 0
ARM GAS  C:\Users\AFDHAL~1\AppData\Local\Temp\cc29CzqQ.s 			page 41


 360 0004 1A68     		ldr	r2, [r3]
 361 0006 C023     		movs	r3, #192
 362 0008 1B02     		lsls	r3, r3, #8
 363 000a 1A42     		tst	r2, r3
 364 000c 03D1     		bne	.L43
 365              	.LBE198:
 366              	.LBE199:
 367              	.LBB200:
 368              	.LBB201:
 373:Generated_Source\PSoC4/CyLFClk.c ****             (uint32) 1u :
 369              		.loc 1 373 0
 370 000e 1A4C     		ldr	r4, .L60+4
 371 0010 2368     		ldr	r3, [r4]
 374:Generated_Source\PSoC4/CyLFClk.c ****             (uint32) 0u);
 372              		.loc 1 374 0
 373 0012 002B     		cmp	r3, #0
 374 0014 00DB     		blt	.L57
 375              	.L43:
 376              	.LBE201:
 377              	.LBE200:
 143:Generated_Source\PSoC4/CyLFClk.c **** 
 378              		.loc 1 143 0
 379              		@ sp needed
 380 0016 70BD     		pop	{r4, r5, r6, pc}
 381              	.L57:
 382              	.LBB202:
 383              	.LBB203:
 688:Generated_Source\PSoC4/CyLFClk.c ****         return (lfclkSource);
 384              		.loc 1 688 0
 385 0018 184D     		ldr	r5, .L60+8
 386 001a 2B68     		ldr	r3, [r5]
 387              	.LBE203:
 388              	.LBE202:
 120:Generated_Source\PSoC4/CyLFClk.c ****                 {
 389              		.loc 1 120 0
 390 001c 9B0F     		lsrs	r3, r3, #30
 391 001e 04D0     		beq	.L58
 134:Generated_Source\PSoC4/CyLFClk.c ****                 }
 392              		.loc 1 134 0
 393 0020 2368     		ldr	r3, [r4]
 394 0022 5B00     		lsls	r3, r3, #1
 395 0024 5B08     		lsrs	r3, r3, #1
 396 0026 2360     		str	r3, [r4]
 143:Generated_Source\PSoC4/CyLFClk.c **** 
 397              		.loc 1 143 0
 398 0028 F5E7     		b	.L43
 399              	.L58:
 124:Generated_Source\PSoC4/CyLFClk.c ****                 CySysClkLfclkPosedgeCatch();
 400              		.loc 1 124 0
 401 002a FFF7FEFF 		bl	CyEnterCriticalSection
 402              	.LVL28:
 403 002e 0600     		movs	r6, r0
 404              	.LVL29:
 125:Generated_Source\PSoC4/CyLFClk.c ****                 CY_SYS_CLK_ILO_CONFIG_REG &= (uint32) ( ~(uint32)CY_SYS_CLK_ILO_CONFIG_ENABLE);
 405              		.loc 1 125 0
 406 0030 FFF7FEFF 		bl	CySysClkLfclkPosedgeCatch
 407              	.LVL30:
ARM GAS  C:\Users\AFDHAL~1\AppData\Local\Temp\cc29CzqQ.s 			page 42


 126:Generated_Source\PSoC4/CyLFClk.c ****                 CySysClkLfclkPosedgeRestore();
 408              		.loc 1 126 0
 409 0034 2368     		ldr	r3, [r4]
 410 0036 5B00     		lsls	r3, r3, #1
 411 0038 5B08     		lsrs	r3, r3, #1
 412 003a 2360     		str	r3, [r4]
 413              	.LBB204:
 414              	.LBB205:
1874:Generated_Source\PSoC4/CyLFClk.c **** 
1875:Generated_Source\PSoC4/CyLFClk.c **** 
1876:Generated_Source\PSoC4/CyLFClk.c ****     /*******************************************************************************
1877:Generated_Source\PSoC4/CyLFClk.c ****     * Function Name: CySysClkLfclkPosedgeRestore
1878:Generated_Source\PSoC4/CyLFClk.c ****     ****************************************************************************//**
1879:Generated_Source\PSoC4/CyLFClk.c ****     * \internal
1880:Generated_Source\PSoC4/CyLFClk.c ****     *  Restores the WDT configuration after a CySysClkLfclkPosedgeCatch() call.
1881:Generated_Source\PSoC4/CyLFClk.c ****     *
1882:Generated_Source\PSoC4/CyLFClk.c ****     *  A pair of the CySysClkLfclkPosedgeCatch() and CySysClkLfclkPosedgeRestore()
1883:Generated_Source\PSoC4/CyLFClk.c ****     *  functions is expected to be called inside a critical section.
1884:Generated_Source\PSoC4/CyLFClk.c ****     *
1885:Generated_Source\PSoC4/CyLFClk.c ****     * Not applicable for the PSoC 4000/PSoC 4000S / PSoC 4100S / PSoC Analog 
1886:Generated_Source\PSoC4/CyLFClk.c ****     * Coprocessor devices.
1887:Generated_Source\PSoC4/CyLFClk.c ****     *
1888:Generated_Source\PSoC4/CyLFClk.c ****     * \details
1889:Generated_Source\PSoC4/CyLFClk.c ****     *  This function has no effect if WDT is locked (CySysWdtLock() is
1890:Generated_Source\PSoC4/CyLFClk.c ****     *  called). Call CySysWdtUnlock() to unlock WDT.
1891:Generated_Source\PSoC4/CyLFClk.c ****     *
1892:Generated_Source\PSoC4/CyLFClk.c ****     * \endinternal
1893:Generated_Source\PSoC4/CyLFClk.c ****     *******************************************************************************/
1894:Generated_Source\PSoC4/CyLFClk.c ****     static void CySysClkLfclkPosedgeRestore(void)
1895:Generated_Source\PSoC4/CyLFClk.c ****     {
1896:Generated_Source\PSoC4/CyLFClk.c ****         if (lfclkPosedgeWdtCounter0Enabled != 0u)
 415              		.loc 1 1896 0
 416 003c 104B     		ldr	r3, .L60+12
 417 003e 5A68     		ldr	r2, [r3, #4]
 418 0040 002A     		cmp	r2, #0
 419 0042 03D1     		bne	.L59
 420              	.L46:
 421              	.LBE205:
 422              	.LBE204:
 128:Generated_Source\PSoC4/CyLFClk.c **** 
 423              		.loc 1 128 0
 424 0044 3000     		movs	r0, r6
 425 0046 FFF7FEFF 		bl	CyExitCriticalSection
 426              	.LVL31:
 427 004a E4E7     		b	.L43
 428              	.L59:
 429              	.LBB212:
 430              	.LBB211:
 431              	.LBB206:
1897:Generated_Source\PSoC4/CyLFClk.c ****         {
1898:Generated_Source\PSoC4/CyLFClk.c ****             /* Restore counter # 0 configuration and force its shutdown */
1899:Generated_Source\PSoC4/CyLFClk.c ****             CY_SYS_WDT_CONTROL_REG &= (uint32)(~CY_SYS_WDT_COUNTER0_MASK);
 432              		.loc 1 1899 0
 433 004c 0120     		movs	r0, #1
 434 004e 0D4A     		ldr	r2, .L60+16
 435 0050 1168     		ldr	r1, [r2]
 436 0052 8143     		bics	r1, r0
ARM GAS  C:\Users\AFDHAL~1\AppData\Local\Temp\cc29CzqQ.s 			page 43


 437 0054 1160     		str	r1, [r2]
 438              	.LVL32:
 439              	.LBB207:
 440              	.LBB208:
 441              	.LBB209:
 442              	.LBB210:
1020:Generated_Source\PSoC4/CyLFClk.c ****     }
 443              		.loc 1 1020 0
 444 0056 1268     		ldr	r2, [r2]
 445              	.LVL33:
 446              	.LBE210:
 447              	.LBE209:
1053:Generated_Source\PSoC4/CyLFClk.c ****         {
 448              		.loc 1 1053 0
 449 0058 5208     		lsrs	r2, r2, #1
 450 005a 1042     		tst	r0, r2
 451 005c 06D1     		bne	.L47
1055:Generated_Source\PSoC4/CyLFClk.c ****                                 (uint32)~((uint32)(CY_SYS_WDT_MODE_MASK << (counterNum * CY_SYS_WDT
 452              		.loc 1 1055 0
 453 005e 0322     		movs	r2, #3
 454 0060 2968     		ldr	r1, [r5]
1057:Generated_Source\PSoC4/CyLFClk.c ****             CY_SYS_WDT_CONFIG_REG = configRegValue;
 455              		.loc 1 1057 0
 456 0062 9868     		ldr	r0, [r3, #8]
1055:Generated_Source\PSoC4/CyLFClk.c ****                                 (uint32)~((uint32)(CY_SYS_WDT_MODE_MASK << (counterNum * CY_SYS_WDT
 457              		.loc 1 1055 0
 458 0064 9143     		bics	r1, r2
 459              	.LVL34:
1057:Generated_Source\PSoC4/CyLFClk.c ****             CY_SYS_WDT_CONFIG_REG = configRegValue;
 460              		.loc 1 1057 0
 461 0066 0240     		ands	r2, r0
 462 0068 0A43     		orrs	r2, r1
 463              	.LVL35:
1058:Generated_Source\PSoC4/CyLFClk.c ****         }
 464              		.loc 1 1058 0
 465 006a 2A60     		str	r2, [r5]
 466              	.LVL36:
 467              	.L47:
 468              	.LBE208:
 469              	.LBE207:
1900:Generated_Source\PSoC4/CyLFClk.c ****             CySysWdtSetMode(CY_SYS_WDT_COUNTER0, lfclkPosedgeWdtCounter0Mode);
1901:Generated_Source\PSoC4/CyLFClk.c ****             lfclkPosedgeWdtCounter0Enabled = 0u;
 470              		.loc 1 1901 0
 471 006c 0022     		movs	r2, #0
 472 006e 5A60     		str	r2, [r3, #4]
 473 0070 E8E7     		b	.L46
 474              	.L61:
 475 0072 C046     		.align	2
 476              	.L60:
 477 0074 00010B40 		.word	1074462976
 478 0078 04010B40 		.word	1074462980
 479 007c 0C020B40 		.word	1074463244
 480 0080 00000000 		.word	.LANCHOR0
 481 0084 10020B40 		.word	1074463248
 482              	.LBE206:
 483              	.LBE211:
 484              	.LBE212:
ARM GAS  C:\Users\AFDHAL~1\AppData\Local\Temp\cc29CzqQ.s 			page 44


 485              		.cfi_endproc
 486              	.LFE2:
 487              		.size	CySysClkIloStop, .-CySysClkIloStop
 488              		.section	.text.CySysClkIloStartMeasurement,"ax",%progbits
 489              		.align	2
 490              		.global	CySysClkIloStartMeasurement
 491              		.code	16
 492              		.thumb_func
 493              		.type	CySysClkIloStartMeasurement, %function
 494              	CySysClkIloStartMeasurement:
 495              	.LFB3:
 169:Generated_Source\PSoC4/CyLFClk.c **** #if(CY_IP_SRSSV2 && (!CY_IP_CPUSS))
 496              		.loc 1 169 0
 497              		.cfi_startproc
 498              		@ args = 0, pretend = 0, frame = 0
 499              		@ frame_needed = 0, uses_anonymous_args = 0
 500              		@ link register save eliminated.
 174:Generated_Source\PSoC4/CyLFClk.c ****     {
 501              		.loc 1 174 0
 502 0000 0D4B     		ldr	r3, .L64
 503 0002 1A7B     		ldrb	r2, [r3, #12]
 504 0004 002A     		cmp	r2, #0
 505 0006 07D1     		bne	.L63
 176:Generated_Source\PSoC4/CyLFClk.c ****         iloTrimTrig = 1u;
 506              		.loc 1 176 0
 507 0008 0F21     		movs	r1, #15
 508 000a 0C4A     		ldr	r2, .L64+4
 509 000c 1268     		ldr	r2, [r2]
 510 000e 0A40     		ands	r2, r1
 511 0010 0B49     		ldr	r1, .L64+8
 512 0012 0A80     		strh	r2, [r1]
 177:Generated_Source\PSoC4/CyLFClk.c ****     }
 513              		.loc 1 177 0
 514 0014 0122     		movs	r2, #1
 515 0016 1A73     		strb	r2, [r3, #12]
 516              	.L63:
 182:Generated_Source\PSoC4/CyLFClk.c ****                             CY_SYS_CLK_SEL_ILO_DFT_SOURCE; 
 517              		.loc 1 182 0
 518 0018 0A4A     		ldr	r2, .L64+12
 519 001a 0B4B     		ldr	r3, .L64+16
 520 001c 1168     		ldr	r1, [r2]
 187:Generated_Source\PSoC4/CyLFClk.c **** 
 521              		.loc 1 187 0
 522              		@ sp needed
 182:Generated_Source\PSoC4/CyLFClk.c ****                             CY_SYS_CLK_SEL_ILO_DFT_SOURCE; 
 523              		.loc 1 182 0
 524 001e 0B40     		ands	r3, r1
 525 0020 8021     		movs	r1, #128
 526 0022 4900     		lsls	r1, r1, #1
 527 0024 0B43     		orrs	r3, r1
 528 0026 1360     		str	r3, [r2]
 185:Generated_Source\PSoC4/CyLFClk.c ****                             CY_SYS_TST_DDFT_CTRL_REG_SEL2_CLK1;
 529              		.loc 1 185 0
 530 0028 084A     		ldr	r2, .L64+20
 531 002a 094B     		ldr	r3, .L64+24
 532 002c 1168     		ldr	r1, [r2]
 533 002e 0B40     		ands	r3, r1
ARM GAS  C:\Users\AFDHAL~1\AppData\Local\Temp\cc29CzqQ.s 			page 45


 534 0030 0849     		ldr	r1, .L64+28
 535 0032 0B43     		orrs	r3, r1
 536 0034 1360     		str	r3, [r2]
 187:Generated_Source\PSoC4/CyLFClk.c **** 
 537              		.loc 1 187 0
 538 0036 7047     		bx	lr
 539              	.L65:
 540              		.align	2
 541              	.L64:
 542 0038 00000000 		.word	.LANCHOR0
 543 003c 24FF0B40 		.word	1074528036
 544 0040 00000000 		.word	.LANCHOR1
 545 0044 10010B40 		.word	1074462992
 546 0048 FFF0FFFF 		.word	-3841
 547 004c 08000340 		.word	1073938440
 548 0050 C0C0FFFF 		.word	-16192
 549 0054 0A0B0000 		.word	2826
 550              		.cfi_endproc
 551              	.LFE3:
 552              		.size	CySysClkIloStartMeasurement, .-CySysClkIloStartMeasurement
 553              		.section	.text.CySysClkIloStopMeasurement,"ax",%progbits
 554              		.align	2
 555              		.global	CySysClkIloStopMeasurement
 556              		.code	16
 557              		.thumb_func
 558              		.type	CySysClkIloStopMeasurement, %function
 559              	CySysClkIloStopMeasurement:
 560              	.LFB4:
 202:Generated_Source\PSoC4/CyLFClk.c ****     /* Set default configurations in 11...8 DFT register bits to zero */
 561              		.loc 1 202 0
 562              		.cfi_startproc
 563              		@ args = 0, pretend = 0, frame = 0
 564              		@ frame_needed = 0, uses_anonymous_args = 0
 565              		@ link register save eliminated.
 204:Generated_Source\PSoC4/CyLFClk.c ****     #if(CY_IP_SRSSLT)
 566              		.loc 1 204 0
 567 0000 024A     		ldr	r2, .L67
 568 0002 034B     		ldr	r3, .L67+4
 569 0004 1168     		ldr	r1, [r2]
 208:Generated_Source\PSoC4/CyLFClk.c **** 
 570              		.loc 1 208 0
 571              		@ sp needed
 204:Generated_Source\PSoC4/CyLFClk.c ****     #if(CY_IP_SRSSLT)
 572              		.loc 1 204 0
 573 0006 0B40     		ands	r3, r1
 574 0008 1360     		str	r3, [r2]
 208:Generated_Source\PSoC4/CyLFClk.c **** 
 575              		.loc 1 208 0
 576 000a 7047     		bx	lr
 577              	.L68:
 578              		.align	2
 579              	.L67:
 580 000c 10010B40 		.word	1074462992
 581 0010 FFF0FFFF 		.word	-3841
 582              		.cfi_endproc
 583              	.LFE4:
 584              		.size	CySysClkIloStopMeasurement, .-CySysClkIloStopMeasurement
ARM GAS  C:\Users\AFDHAL~1\AppData\Local\Temp\cc29CzqQ.s 			page 46


 585              		.global	__aeabi_uidiv
 586              		.section	.text.CySysClkIloCompensate,"ax",%progbits
 587              		.align	2
 588              		.global	CySysClkIloCompensate
 589              		.code	16
 590              		.thumb_func
 591              		.type	CySysClkIloCompensate, %function
 592              	CySysClkIloCompensate:
 593              	.LFB5:
 268:Generated_Source\PSoC4/CyLFClk.c ****     uint32 iloCompensatedCycles;
 594              		.loc 1 268 0
 595              		.cfi_startproc
 596              		@ args = 0, pretend = 0, frame = 0
 597              		@ frame_needed = 0, uses_anonymous_args = 0
 598              	.LVL37:
 275:Generated_Source\PSoC4/CyLFClk.c **** 
 599              		.loc 1 275 0
 600 0000 2F4B     		ldr	r3, .L83
 268:Generated_Source\PSoC4/CyLFClk.c ****     uint32 iloCompensatedCycles;
 601              		.loc 1 268 0
 602 0002 F0B5     		push	{r4, r5, r6, r7, lr}
 603              		.cfi_def_cfa_offset 20
 604              		.cfi_offset 4, -20
 605              		.cfi_offset 5, -16
 606              		.cfi_offset 6, -12
 607              		.cfi_offset 7, -8
 608              		.cfi_offset 14, -4
 275:Generated_Source\PSoC4/CyLFClk.c **** 
 609              		.loc 1 275 0
 610 0004 1A68     		ldr	r2, [r3]
 611              	.LVL38:
 278:Generated_Source\PSoC4/CyLFClk.c ****        (CY_SYS_TST_DDFT_CTRL_REG == CY_SYS_TST_DDFT_CTRL_REG_SEL2_CLK1) &&
 612              		.loc 1 278 0
 613 0006 2F4B     		ldr	r3, .L83+4
 268:Generated_Source\PSoC4/CyLFClk.c ****     uint32 iloCompensatedCycles;
 614              		.loc 1 268 0
 615 0008 4746     		mov	r7, r8
 278:Generated_Source\PSoC4/CyLFClk.c ****        (CY_SYS_TST_DDFT_CTRL_REG == CY_SYS_TST_DDFT_CTRL_REG_SEL2_CLK1) &&
 616              		.loc 1 278 0
 617 000a 1340     		ands	r3, r2
 618              	.LVL39:
 619 000c 8022     		movs	r2, #128
 268:Generated_Source\PSoC4/CyLFClk.c ****     uint32 iloCompensatedCycles;
 620              		.loc 1 268 0
 621 000e 0400     		movs	r4, r0
 622 0010 80B4     		push	{r7}
 623              		.cfi_def_cfa_offset 24
 624              		.cfi_offset 8, -24
 268:Generated_Source\PSoC4/CyLFClk.c ****     uint32 iloCompensatedCycles;
 625              		.loc 1 268 0
 626 0012 0D00     		movs	r5, r1
 278:Generated_Source\PSoC4/CyLFClk.c ****        (CY_SYS_TST_DDFT_CTRL_REG == CY_SYS_TST_DDFT_CTRL_REG_SEL2_CLK1) &&
 627              		.loc 1 278 0
 628 0014 5200     		lsls	r2, r2, #1
 350:Generated_Source\PSoC4/CyLFClk.c ****     }
 629              		.loc 1 350 0
 630 0016 1120     		movs	r0, #17
ARM GAS  C:\Users\AFDHAL~1\AppData\Local\Temp\cc29CzqQ.s 			page 47


 631              	.LVL40:
 278:Generated_Source\PSoC4/CyLFClk.c ****        (CY_SYS_TST_DDFT_CTRL_REG == CY_SYS_TST_DDFT_CTRL_REG_SEL2_CLK1) &&
 632              		.loc 1 278 0
 633 0018 9342     		cmp	r3, r2
 634 001a 02D0     		beq	.L81
 635              	.LVL41:
 636              	.L70:
 354:Generated_Source\PSoC4/CyLFClk.c **** 
 637              		.loc 1 354 0
 638              		@ sp needed
 639              	.LVL42:
 640 001c 04BC     		pop	{r2}
 641 001e 9046     		mov	r8, r2
 642 0020 F0BD     		pop	{r4, r5, r6, r7, pc}
 643              	.LVL43:
 644              	.L81:
 279:Generated_Source\PSoC4/CyLFClk.c ****        (CY_SYS_CLK_MAX_DELAY_US >= desiredDelay) &&
 645              		.loc 1 279 0 discriminator 1
 646 0022 294B     		ldr	r3, .L83+8
 647              	.LVL44:
 648 0024 1A68     		ldr	r2, [r3]
 278:Generated_Source\PSoC4/CyLFClk.c ****        (CY_SYS_TST_DDFT_CTRL_REG == CY_SYS_TST_DDFT_CTRL_REG_SEL2_CLK1) &&
 649              		.loc 1 278 0 discriminator 1
 650 0026 294B     		ldr	r3, .L83+12
 651 0028 9A42     		cmp	r2, r3
 652 002a F7D1     		bne	.L70
 280:Generated_Source\PSoC4/CyLFClk.c ****        (CY_SYS_CLK_MIN_DELAY_US <= desiredDelay) &&
 653              		.loc 1 280 0
 654 002c 2300     		movs	r3, r4
 655 002e 284A     		ldr	r2, .L83+16
 656 0030 643B     		subs	r3, r3, #100
 657 0032 9342     		cmp	r3, r2
 658 0034 F2D8     		bhi	.L70
 281:Generated_Source\PSoC4/CyLFClk.c ****        (compensatedCycles !=  NULL))
 659              		.loc 1 281 0
 660 0036 0029     		cmp	r1, #0
 661 0038 F0D0     		beq	.L70
 284:Generated_Source\PSoC4/CyLFClk.c ****         {
 662              		.loc 1 284 0
 663 003a 264E     		ldr	r6, .L83+20
 664 003c 3369     		ldr	r3, [r6, #16]
 665 003e 002B     		cmp	r3, #0
 666 0040 08D1     		bne	.L82
 343:Generated_Source\PSoC4/CyLFClk.c ****             compensateRunningStatus = CY_SYS_CLK_TRIM_OR_COMP_STARTED;
 667              		.loc 1 343 0
 668 0042 254B     		ldr	r3, .L83+24
 669 0044 254A     		ldr	r2, .L83+28
 670 0046 1B68     		ldr	r3, [r3]
 345:Generated_Source\PSoC4/CyLFClk.c ****         }
 671              		.loc 1 345 0
 672 0048 0720     		movs	r0, #7
 343:Generated_Source\PSoC4/CyLFClk.c ****             compensateRunningStatus = CY_SYS_CLK_TRIM_OR_COMP_STARTED;
 673              		.loc 1 343 0
 674 004a 9B0A     		lsrs	r3, r3, #10
 675 004c 1360     		str	r3, [r2]
 344:Generated_Source\PSoC4/CyLFClk.c ****             returnStatus = CYRET_STARTED;
 676              		.loc 1 344 0
ARM GAS  C:\Users\AFDHAL~1\AppData\Local\Temp\cc29CzqQ.s 			page 48


 677 004e 0123     		movs	r3, #1
 678 0050 3361     		str	r3, [r6, #16]
 679              	.LVL45:
 680 0052 E3E7     		b	.L70
 681              	.LVL46:
 682              	.L82:
 287:Generated_Source\PSoC4/CyLFClk.c ****             {
 683              		.loc 1 287 0
 684 0054 214B     		ldr	r3, .L83+28
 337:Generated_Source\PSoC4/CyLFClk.c ****             }
 685              		.loc 1 337 0
 686 0056 0A38     		subs	r0, r0, #10
 287:Generated_Source\PSoC4/CyLFClk.c ****             {
 687              		.loc 1 287 0
 688 0058 1B68     		ldr	r3, [r3]
 689 005a 002B     		cmp	r3, #0
 690 005c DEDA     		bge	.L70
 289:Generated_Source\PSoC4/CyLFClk.c ****                 {
 691              		.loc 1 289 0
 692 005e 204B     		ldr	r3, .L83+32
 350:Generated_Source\PSoC4/CyLFClk.c ****     }
 693              		.loc 1 350 0
 694 0060 0A30     		adds	r0, r0, #10
 289:Generated_Source\PSoC4/CyLFClk.c ****                 {
 695              		.loc 1 289 0
 696 0062 1A68     		ldr	r2, [r3]
 697 0064 002A     		cmp	r2, #0
 698 0066 D9D0     		beq	.L70
 293:Generated_Source\PSoC4/CyLFClk.c ****                         {
 699              		.loc 1 293 0
 700 0068 1E4A     		ldr	r2, .L83+36
 701 006a 9442     		cmp	r4, r2
 702 006c 10D9     		bls	.L72
 703              	.LVL47:
 297:Generated_Source\PSoC4/CyLFClk.c ****                                 CY_SYS_CLK_ILO_FREQ_2MSB) * (desiredDelayInCounts / CY_SYS_CLK_ILO_
 704              		.loc 1 297 0
 705 006e 1868     		ldr	r0, [r3]
 706 0070 194B     		ldr	r3, .L83+24
 707 0072 1968     		ldr	r1, [r3]
 708              	.LVL48:
 296:Generated_Source\PSoC4/CyLFClk.c ****                             (((CY_SYS_CNT_REG2_REG * cydelayFreqHz) / (cydelayFreqHz >> CY_SYS_CLK_
 709              		.loc 1 296 0
 710 0074 4843     		muls	r0, r1
 711 0076 890A     		lsrs	r1, r1, #10
 712 0078 FFF7FEFF 		bl	__aeabi_uidiv
 713              	.LVL49:
 714 007c 1A49     		ldr	r1, .L83+40
 715 007e 4709     		lsrs	r7, r0, #5
 716 0080 2000     		movs	r0, r4
 717 0082 FFF7FEFF 		bl	__aeabi_uidiv
 718              	.LVL50:
 719 0086 7843     		muls	r0, r7
 720              	.LVL51:
 721              	.L73:
 326:Generated_Source\PSoC4/CyLFClk.c ****                     compensateRunningStatus = CY_SYS_CLK_TRIM_OR_COMP_FINISHED;
 722              		.loc 1 326 0
 723 0088 2860     		str	r0, [r5]
ARM GAS  C:\Users\AFDHAL~1\AppData\Local\Temp\cc29CzqQ.s 			page 49


 327:Generated_Source\PSoC4/CyLFClk.c ****                     returnStatus = CYRET_SUCCESS;
 724              		.loc 1 327 0
 725 008a 0020     		movs	r0, #0
 726              	.LVL52:
 727 008c 3061     		str	r0, [r6, #16]
 728              	.LVL53:
 729 008e C5E7     		b	.L70
 730              	.LVL54:
 731              	.L72:
 305:Generated_Source\PSoC4/CyLFClk.c ****                                                      (cydelayFreqHz >> CY_SYS_CLK_SYS_CLK_DEVIDER))
 732              		.loc 1 305 0
 733 0090 6420     		movs	r0, #100
 734 0092 1B68     		ldr	r3, [r3]
 735 0094 4443     		muls	r4, r0
 736              	.LVL55:
 737 0096 9846     		mov	r8, r3
 738 0098 0F4B     		ldr	r3, .L83+24
 739 009a 1449     		ldr	r1, .L83+44
 740              	.LVL56:
 741 009c 1F68     		ldr	r7, [r3]
 742 009e 144B     		ldr	r3, .L83+48
 743 00a0 E018     		adds	r0, r4, r3
 744 00a2 FFF7FEFF 		bl	__aeabi_uidiv
 745              	.LVL57:
 746 00a6 0400     		movs	r4, r0
 747 00a8 4046     		mov	r0, r8
 748 00aa B90A     		lsrs	r1, r7, #10
 749 00ac 7843     		muls	r0, r7
 750 00ae FFF7FEFF 		bl	__aeabi_uidiv
 751              	.LVL58:
 752 00b2 FA21     		movs	r1, #250
 753 00b4 6043     		muls	r0, r4
 754 00b6 C901     		lsls	r1, r1, #7
 755 00b8 FFF7FEFF 		bl	__aeabi_uidiv
 756              	.LVL59:
 757 00bc E4E7     		b	.L73
 758              	.L84:
 759 00be C046     		.align	2
 760              	.L83:
 761 00c0 10010B40 		.word	1074462992
 762 00c4 3F3F0000 		.word	16191
 763 00c8 08000340 		.word	1073938440
 764 00cc 0A0B0000 		.word	2826
 765 00d0 9C276BEE 		.word	-294967396
 766 00d4 00000000 		.word	.LANCHOR0
 767 00d8 00000000 		.word	cydelayFreqHz
 768 00dc 18000340 		.word	1073938456
 769 00e0 1C000340 		.word	1073938460
 770 00e4 60D10000 		.word	53600
 771 00e8 18790000 		.word	31000
 772 00ec 350C0000 		.word	3125
 773 00f0 0D030000 		.word	781
 774              		.cfi_endproc
 775              	.LFE5:
 776              		.size	CySysClkIloCompensate, .-CySysClkIloCompensate
 777              		.global	__aeabi_idiv
 778              		.section	.text.CySysClkIloTrim,"ax",%progbits
ARM GAS  C:\Users\AFDHAL~1\AppData\Local\Temp\cc29CzqQ.s 			page 50


 779              		.align	2
 780              		.global	CySysClkIloTrim
 781              		.code	16
 782              		.thumb_func
 783              		.type	CySysClkIloTrim, %function
 784              	CySysClkIloTrim:
 785              	.LFB7:
 450:Generated_Source\PSoC4/CyLFClk.c ****     uint32 timeOutClocks = CY_SYS_CLK_TIMEOUT;
 786              		.loc 1 450 0
 787              		.cfi_startproc
 788              		@ args = 0, pretend = 0, frame = 0
 789              		@ frame_needed = 0, uses_anonymous_args = 0
 790              	.LVL60:
 791 0000 F8B5     		push	{r3, r4, r5, r6, r7, lr}
 792              		.cfi_def_cfa_offset 24
 793              		.cfi_offset 3, -24
 794              		.cfi_offset 4, -20
 795              		.cfi_offset 5, -16
 796              		.cfi_offset 6, -12
 797              		.cfi_offset 7, -8
 798              		.cfi_offset 14, -4
 457:Generated_Source\PSoC4/CyLFClk.c **** 
 799              		.loc 1 457 0
 800 0002 734B     		ldr	r3, .L133
 450:Generated_Source\PSoC4/CyLFClk.c ****     uint32 timeOutClocks = CY_SYS_CLK_TIMEOUT;
 801              		.loc 1 450 0
 802 0004 4D46     		mov	r5, r9
 457:Generated_Source\PSoC4/CyLFClk.c **** 
 803              		.loc 1 457 0
 804 0006 1A68     		ldr	r2, [r3]
 805              	.LVL61:
 460:Generated_Source\PSoC4/CyLFClk.c ****        (CY_SYS_TST_DDFT_CTRL_REG == CY_SYS_TST_DDFT_CTRL_REG_SEL2_CLK1) &&
 806              		.loc 1 460 0
 807 0008 724B     		ldr	r3, .L133+4
 450:Generated_Source\PSoC4/CyLFClk.c ****     uint32 timeOutClocks = CY_SYS_CLK_TIMEOUT;
 808              		.loc 1 450 0
 809 000a 5F46     		mov	r7, fp
 810 000c 5646     		mov	r6, r10
 811 000e 4446     		mov	r4, r8
 460:Generated_Source\PSoC4/CyLFClk.c ****        (CY_SYS_TST_DDFT_CTRL_REG == CY_SYS_TST_DDFT_CTRL_REG_SEL2_CLK1) &&
 812              		.loc 1 460 0
 813 0010 1340     		ands	r3, r2
 814              	.LVL62:
 815 0012 8022     		movs	r2, #128
 450:Generated_Source\PSoC4/CyLFClk.c ****     uint32 timeOutClocks = CY_SYS_CLK_TIMEOUT;
 816              		.loc 1 450 0
 817 0014 F0B4     		push	{r4, r5, r6, r7}
 818              		.cfi_def_cfa_offset 40
 819              		.cfi_offset 8, -40
 820              		.cfi_offset 9, -36
 821              		.cfi_offset 10, -32
 822              		.cfi_offset 11, -28
 460:Generated_Source\PSoC4/CyLFClk.c ****        (CY_SYS_TST_DDFT_CTRL_REG == CY_SYS_TST_DDFT_CTRL_REG_SEL2_CLK1) &&
 823              		.loc 1 460 0
 824 0016 5200     		lsls	r2, r2, #1
 450:Generated_Source\PSoC4/CyLFClk.c ****     uint32 timeOutClocks = CY_SYS_CLK_TIMEOUT;
 825              		.loc 1 450 0
ARM GAS  C:\Users\AFDHAL~1\AppData\Local\Temp\cc29CzqQ.s 			page 51


 826 0018 0D00     		movs	r5, r1
 460:Generated_Source\PSoC4/CyLFClk.c ****        (CY_SYS_TST_DDFT_CTRL_REG == CY_SYS_TST_DDFT_CTRL_REG_SEL2_CLK1) &&
 827              		.loc 1 460 0
 828 001a 9342     		cmp	r3, r2
 829 001c 06D0     		beq	.L86
 830              	.LVL63:
 831              	.L88:
 533:Generated_Source\PSoC4/CyLFClk.c ****     }
 832              		.loc 1 533 0
 833 001e 1120     		movs	r0, #17
 834              	.L122:
 537:Generated_Source\PSoC4/CyLFClk.c **** 
 835              		.loc 1 537 0
 836              		@ sp needed
 837              	.LVL64:
 838 0020 3CBC     		pop	{r2, r3, r4, r5}
 839 0022 9046     		mov	r8, r2
 840 0024 9946     		mov	r9, r3
 841 0026 A246     		mov	r10, r4
 842 0028 AB46     		mov	fp, r5
 843 002a F8BD     		pop	{r3, r4, r5, r6, r7, pc}
 844              	.LVL65:
 845              	.L86:
 461:Generated_Source\PSoC4/CyLFClk.c ****        (iloAccuracyInPPT != NULL))
 846              		.loc 1 461 0 discriminator 1
 847 002c 6A4B     		ldr	r3, .L133+8
 848              	.LVL66:
 849 002e 1A68     		ldr	r2, [r3]
 460:Generated_Source\PSoC4/CyLFClk.c ****        (CY_SYS_TST_DDFT_CTRL_REG == CY_SYS_TST_DDFT_CTRL_REG_SEL2_CLK1) &&
 850              		.loc 1 460 0 discriminator 1
 851 0030 6A4B     		ldr	r3, .L133+12
 852 0032 9A42     		cmp	r2, r3
 853 0034 F3D1     		bne	.L88
 461:Generated_Source\PSoC4/CyLFClk.c ****        (iloAccuracyInPPT != NULL))
 854              		.loc 1 461 0
 855 0036 0029     		cmp	r1, #0
 856 0038 F1D0     		beq	.L88
 464:Generated_Source\PSoC4/CyLFClk.c ****         {
 857              		.loc 1 464 0
 858 003a 0028     		cmp	r0, #0
 859 003c 5DD1     		bne	.L89
 860 003e 684A     		ldr	r2, .L133+16
 466:Generated_Source\PSoC4/CyLFClk.c ****             do
 861              		.loc 1 466 0
 862 0040 684B     		ldr	r3, .L133+20
 863 0042 9046     		mov	r8, r2
 864              	.LBB221:
 865              	.LBB222:
 579:Generated_Source\PSoC4/CyLFClk.c ****     {
 866              		.loc 1 579 0
 867 0044 684A     		ldr	r2, .L133+24
 868              	.LBE222:
 869              	.LBE221:
 466:Generated_Source\PSoC4/CyLFClk.c ****             do
 870              		.loc 1 466 0
 871 0046 9B46     		mov	fp, r3
 872 0048 1B68     		ldr	r3, [r3]
ARM GAS  C:\Users\AFDHAL~1\AppData\Local\Temp\cc29CzqQ.s 			page 52


 873              	.LBB239:
 874              	.LBB233:
 579:Generated_Source\PSoC4/CyLFClk.c ****     {
 875              		.loc 1 579 0
 876 004a 9246     		mov	r10, r2
 877              	.LBB223:
 878              	.LBB224:
 601:Generated_Source\PSoC4/CyLFClk.c ****             trimStep = (int32) currentIloTrimValue - trimStep;
 879              		.loc 1 601 0
 880 004c 674A     		ldr	r2, .L133+28
 881              	.LBE224:
 882              	.LBE223:
 883              	.LBE233:
 884              	.LBE239:
 466:Generated_Source\PSoC4/CyLFClk.c ****             do
 885              		.loc 1 466 0
 886 004e 9B0A     		lsrs	r3, r3, #10
 887 0050 1C00     		movs	r4, r3
 888              	.LVL67:
 889 0052 0527     		movs	r7, #5
 890              	.LBB240:
 891              	.LBB234:
 892              	.LBB229:
 893              	.LBB225:
 601:Generated_Source\PSoC4/CyLFClk.c ****             trimStep = (int32) currentIloTrimValue - trimStep;
 894              		.loc 1 601 0
 895 0054 9146     		mov	r9, r2
 896              	.LBE225:
 897              	.LBE229:
 898              	.LBE234:
 899              	.LBE240:
 470:Generated_Source\PSoC4/CyLFClk.c **** 
 900              		.loc 1 470 0
 901 0056 664E     		ldr	r6, .L133+32
 902              	.LVL68:
 903              	.L100:
 904 0058 3360     		str	r3, [r6]
 473:Generated_Source\PSoC4/CyLFClk.c ****                 {
 905              		.loc 1 473 0
 906 005a 02E0     		b	.L90
 907              	.L92:
 475:Generated_Source\PSoC4/CyLFClk.c ****                     if (0u == waitUntilCntr1Stops)
 908              		.loc 1 475 0
 909 005c 013C     		subs	r4, r4, #1
 910              	.LVL69:
 476:Generated_Source\PSoC4/CyLFClk.c ****                     {
 911              		.loc 1 476 0
 912 005e 002C     		cmp	r4, #0
 913 0060 02D0     		beq	.L91
 914              	.L90:
 473:Generated_Source\PSoC4/CyLFClk.c ****                 {
 915              		.loc 1 473 0
 916 0062 3368     		ldr	r3, [r6]
 917 0064 002B     		cmp	r3, #0
 918 0066 F9DA     		bge	.L92
 919              	.L91:
 920              	.LVL70:
ARM GAS  C:\Users\AFDHAL~1\AppData\Local\Temp\cc29CzqQ.s 			page 53


 921              	.LBB241:
 922              	.LBB235:
 579:Generated_Source\PSoC4/CyLFClk.c ****     {
 923              		.loc 1 579 0
 924 0068 5346     		mov	r3, r10
 925 006a 1B68     		ldr	r3, [r3]
 926 006c 002B     		cmp	r3, #0
 927 006e 09D1     		bne	.L129
 928              	.LVL71:
 929              	.LBE235:
 930              	.LBE241:
 481:Generated_Source\PSoC4/CyLFClk.c ****                 timeOutClocks--;
 931              		.loc 1 481 0
 932 0070 1123     		movs	r3, #17
 933 0072 4246     		mov	r2, r8
 934 0074 5361     		str	r3, [r2, #20]
 495:Generated_Source\PSoC4/CyLFClk.c ****                 {
 935              		.loc 1 495 0
 936 0076 012F     		cmp	r7, #1
 937 0078 D1D1     		bne	.L88
 938              	.L99:
 497:Generated_Source\PSoC4/CyLFClk.c ****                     returnStatus = CYRET_TIMEOUT;
 939              		.loc 1 497 0
 940 007a 0023     		movs	r3, #0
 941 007c 4246     		mov	r2, r8
 498:Generated_Source\PSoC4/CyLFClk.c ****                 }
 942              		.loc 1 498 0
 943 007e 1020     		movs	r0, #16
 497:Generated_Source\PSoC4/CyLFClk.c ****                     returnStatus = CYRET_TIMEOUT;
 944              		.loc 1 497 0
 945 0080 5361     		str	r3, [r2, #20]
 946              	.LVL72:
 947 0082 CDE7     		b	.L122
 948              	.LVL73:
 949              	.L129:
 950              	.LBB242:
 951              	.LBB236:
 952              	.LBB230:
 953              	.LBB226:
 581:Generated_Source\PSoC4/CyLFClk.c **** 
 954              		.loc 1 581 0
 955 0084 5346     		mov	r3, r10
 956 0086 1868     		ldr	r0, [r3]
 957 0088 5B46     		mov	r3, fp
 958 008a 1968     		ldr	r1, [r3]
 959              	.LVL74:
 585:Generated_Source\PSoC4/CyLFClk.c ****                             ((int32) CY_SYS_CLK_PERTHOUSAND)) / ((int32) CY_SYS_CLK_ILO_DESIRED_FRE
 960              		.loc 1 585 0
 961 008c 4843     		muls	r0, r1
 962              	.LVL75:
 963 008e 890A     		lsrs	r1, r1, #10
 964 0090 FFF7FEFF 		bl	__aeabi_uidiv
 965              	.LVL76:
 966 0094 574B     		ldr	r3, .L133+36
 967 0096 1F22     		movs	r2, #31
 968 0098 9C46     		mov	ip, r3
 969 009a 6044     		add	r0, r0, ip
ARM GAS  C:\Users\AFDHAL~1\AppData\Local\Temp\cc29CzqQ.s 			page 54


 970 009c C317     		asrs	r3, r0, #31
 971 009e 1340     		ands	r3, r2
 972 00a0 1818     		adds	r0, r3, r0
 973 00a2 4311     		asrs	r3, r0, #5
 974              	.LVL77:
 589:Generated_Source\PSoC4/CyLFClk.c ****         {
 975              		.loc 1 589 0
 976 00a4 D917     		asrs	r1, r3, #31
 977 00a6 5A18     		adds	r2, r3, r1
 978 00a8 4A40     		eors	r2, r1
 979 00aa 382A     		cmp	r2, #56
 980 00ac 34DD     		ble	.L94
 593:Generated_Source\PSoC4/CyLFClk.c ****                 CY_SYS_CLK_HALF_OF_STEP) / CY_SYS_CLK_ERROR_STEP);
 981              		.loc 1 593 0
 982 00ae 9800     		lsls	r0, r3, #2
 591:Generated_Source\PSoC4/CyLFClk.c ****             {
 983              		.loc 1 591 0
 984 00b0 002B     		cmp	r3, #0
 985 00b2 46DD     		ble	.L95
 593:Generated_Source\PSoC4/CyLFClk.c ****                 CY_SYS_CLK_HALF_OF_STEP) / CY_SYS_CLK_ERROR_STEP);
 986              		.loc 1 593 0
 987 00b4 C318     		adds	r3, r0, r3
 988              	.LVL78:
 989 00b6 5B00     		lsls	r3, r3, #1
 990 00b8 7133     		adds	r3, r3, #113
 991 00ba FF33     		adds	r3, r3, #255
 992 00bc 1800     		movs	r0, r3
 993 00be 4E49     		ldr	r1, .L133+40
 994 00c0 FFF7FEFF 		bl	__aeabi_idiv
 995              	.LVL79:
 996              	.L96:
 601:Generated_Source\PSoC4/CyLFClk.c ****             trimStep = (int32) currentIloTrimValue - trimStep;
 997              		.loc 1 601 0
 998 00c4 4B46     		mov	r3, r9
 602:Generated_Source\PSoC4/CyLFClk.c **** 
 999              		.loc 1 602 0
 1000 00c6 0F22     		movs	r2, #15
 601:Generated_Source\PSoC4/CyLFClk.c ****             trimStep = (int32) currentIloTrimValue - trimStep;
 1001              		.loc 1 601 0
 1002 00c8 1B68     		ldr	r3, [r3]
 1003              	.LVL80:
 602:Generated_Source\PSoC4/CyLFClk.c **** 
 1004              		.loc 1 602 0
 1005 00ca 1340     		ands	r3, r2
 1006              	.LVL81:
 1007 00cc 181A     		subs	r0, r3, r0
 1008              	.LVL82:
 604:Generated_Source\PSoC4/CyLFClk.c ****             {
 1009              		.loc 1 604 0
 1010 00ce 0F28     		cmp	r0, #15
 1011 00d0 02DC     		bgt	.L98
 608:Generated_Source\PSoC4/CyLFClk.c ****             {
 1012              		.loc 1 608 0
 1013 00d2 0022     		movs	r2, #0
 1014 00d4 0028     		cmp	r0, #0
 1015 00d6 3CDA     		bge	.L130
 1016              	.L98:
ARM GAS  C:\Users\AFDHAL~1\AppData\Local\Temp\cc29CzqQ.s 			page 55


 1017              	.LVL83:
 612:Generated_Source\PSoC4/CyLFClk.c ****                                                                  ((uint32) trimStep);
 1018              		.loc 1 612 0
 1019 00d8 4B46     		mov	r3, r9
 1020              	.LVL84:
 1021 00da 0F21     		movs	r1, #15
 1022 00dc 1B68     		ldr	r3, [r3]
 1023 00de 013F     		subs	r7, r7, #1
 1024 00e0 8B43     		bics	r3, r1
 1025 00e2 1343     		orrs	r3, r2
 1026 00e4 4A46     		mov	r2, r9
 1027 00e6 1360     		str	r3, [r2]
 1028              	.LVL85:
 1029              	.LBE226:
 1030              	.LBE230:
 1031              	.LBE236:
 1032              	.LBE242:
 481:Generated_Source\PSoC4/CyLFClk.c ****                 timeOutClocks--;
 1033              		.loc 1 481 0
 1034 00e8 4346     		mov	r3, r8
 1035 00ea 0722     		movs	r2, #7
 1036 00ec 5A61     		str	r2, [r3, #20]
 486:Generated_Source\PSoC4/CyLFClk.c ****                                (0u != timeOutClocks));
 1037              		.loc 1 486 0
 1038 00ee 002F     		cmp	r7, #0
 1039 00f0 C3D0     		beq	.L99
 1040 00f2 5B46     		mov	r3, fp
 1041 00f4 1B68     		ldr	r3, [r3]
 1042 00f6 9B0A     		lsrs	r3, r3, #10
 1043 00f8 AEE7     		b	.L100
 1044              	.LVL86:
 1045              	.L89:
 509:Generated_Source\PSoC4/CyLFClk.c ****             {
 1046              		.loc 1 509 0
 1047 00fa 394B     		ldr	r3, .L133+16
 1048 00fc 9846     		mov	r8, r3
 1049 00fe 5B69     		ldr	r3, [r3, #20]
 1050 0100 002B     		cmp	r3, #0
 1051 0102 0FD1     		bne	.L131
 525:Generated_Source\PSoC4/CyLFClk.c ****                 trimRunningStatus = CY_SYS_CLK_TRIM_OR_COMP_STARTED;
 1052              		.loc 1 525 0
 1053 0104 374B     		ldr	r3, .L133+20
 1054 0106 3A4A     		ldr	r2, .L133+32
 1055 0108 1B68     		ldr	r3, [r3]
 527:Generated_Source\PSoC4/CyLFClk.c ****             }
 1056              		.loc 1 527 0
 1057 010a 0720     		movs	r0, #7
 1058              	.LVL87:
 525:Generated_Source\PSoC4/CyLFClk.c ****                 trimRunningStatus = CY_SYS_CLK_TRIM_OR_COMP_STARTED;
 1059              		.loc 1 525 0
 1060 010c 9B0A     		lsrs	r3, r3, #10
 1061 010e 1360     		str	r3, [r2]
 526:Generated_Source\PSoC4/CyLFClk.c ****                 returnStatus = CYRET_STARTED;
 1062              		.loc 1 526 0
 1063 0110 0123     		movs	r3, #1
 1064 0112 4246     		mov	r2, r8
 1065 0114 5361     		str	r3, [r2, #20]
ARM GAS  C:\Users\AFDHAL~1\AppData\Local\Temp\cc29CzqQ.s 			page 56


 1066              	.LVL88:
 1067 0116 83E7     		b	.L122
 1068              	.LVL89:
 1069              	.L94:
 1070              	.LBB243:
 1071              	.LBB237:
 1072              	.LBB231:
 1073              	.LBB227:
 619:Generated_Source\PSoC4/CyLFClk.c ****             errorRangeStatus = CYRET_SUCCESS;
 1074              		.loc 1 619 0
 1075 0118 2B60     		str	r3, [r5]
 1076              	.LVL90:
 1077              	.LBE227:
 1078              	.LBE231:
 1079              	.LBE237:
 1080              	.LBE243:
 481:Generated_Source\PSoC4/CyLFClk.c ****                 timeOutClocks--;
 1081              		.loc 1 481 0
 1082 011a 4246     		mov	r2, r8
 1083 011c 0023     		movs	r3, #0
 1084              	.LVL91:
 491:Generated_Source\PSoC4/CyLFClk.c ****             }
 1085              		.loc 1 491 0
 1086 011e 0020     		movs	r0, #0
 481:Generated_Source\PSoC4/CyLFClk.c ****                 timeOutClocks--;
 1087              		.loc 1 481 0
 1088 0120 5361     		str	r3, [r2, #20]
 1089 0122 7DE7     		b	.L122
 1090              	.LVL92:
 1091              	.L131:
 512:Generated_Source\PSoC4/CyLFClk.c ****                 {
 1092              		.loc 1 512 0
 1093 0124 324B     		ldr	r3, .L133+32
 519:Generated_Source\PSoC4/CyLFClk.c ****                 }
 1094              		.loc 1 519 0
 1095 0126 0720     		movs	r0, #7
 1096              	.LVL93:
 512:Generated_Source\PSoC4/CyLFClk.c ****                 {
 1097              		.loc 1 512 0
 1098 0128 1B68     		ldr	r3, [r3]
 1099 012a 002B     		cmp	r3, #0
 1100 012c 00DB     		blt	.LCB1053
 1101 012e 77E7     		b	.L122	@long jump
 1102              	.LCB1053:
 1103              	.LVL94:
 1104              	.LBB244:
 1105              	.LBB245:
 579:Generated_Source\PSoC4/CyLFClk.c ****     {
 1106              		.loc 1 579 0
 1107 0130 2D4B     		ldr	r3, .L133+24
 625:Generated_Source\PSoC4/CyLFClk.c ****     }
 1108              		.loc 1 625 0
 1109 0132 0A30     		adds	r0, r0, #10
 579:Generated_Source\PSoC4/CyLFClk.c ****     {
 1110              		.loc 1 579 0
 1111 0134 1A68     		ldr	r2, [r3]
 1112 0136 002A     		cmp	r2, #0
ARM GAS  C:\Users\AFDHAL~1\AppData\Local\Temp\cc29CzqQ.s 			page 57


 1113 0138 0DD1     		bne	.L132
 1114              	.LVL95:
 1115              	.L102:
 1116              	.LBE245:
 1117              	.LBE244:
 515:Generated_Source\PSoC4/CyLFClk.c ****                 }
 1118              		.loc 1 515 0
 1119 013a 0023     		movs	r3, #0
 1120 013c 4246     		mov	r2, r8
 1121 013e 5361     		str	r3, [r2, #20]
 1122 0140 6EE7     		b	.L122
 1123              	.LVL96:
 1124              	.L95:
 1125              	.LBB249:
 1126              	.LBB238:
 1127              	.LBB232:
 1128              	.LBB228:
 598:Generated_Source\PSoC4/CyLFClk.c ****                 CY_SYS_CLK_HALF_OF_STEP) / CY_SYS_CLK_ERROR_STEP);
 1129              		.loc 1 598 0
 1130 0142 C018     		adds	r0, r0, r3
 1131 0144 4000     		lsls	r0, r0, #1
 1132 0146 7138     		subs	r0, r0, #113
 1133 0148 2B49     		ldr	r1, .L133+40
 1134 014a FF38     		subs	r0, r0, #255
 1135 014c FFF7FEFF 		bl	__aeabi_idiv
 1136              	.LVL97:
 1137 0150 B8E7     		b	.L96
 1138              	.LVL98:
 1139              	.L130:
 1140 0152 0200     		movs	r2, r0
 1141 0154 C0E7     		b	.L98
 1142              	.LVL99:
 1143              	.L132:
 1144              	.LBE228:
 1145              	.LBE232:
 1146              	.LBE238:
 1147              	.LBE249:
 1148              	.LBB250:
 1149              	.LBB248:
 1150              	.LBB246:
 1151              	.LBB247:
 581:Generated_Source\PSoC4/CyLFClk.c **** 
 1152              		.loc 1 581 0
 1153 0156 1868     		ldr	r0, [r3]
 1154 0158 224B     		ldr	r3, .L133+20
 1155 015a 1968     		ldr	r1, [r3]
 1156              	.LVL100:
 585:Generated_Source\PSoC4/CyLFClk.c ****                             ((int32) CY_SYS_CLK_PERTHOUSAND)) / ((int32) CY_SYS_CLK_ILO_DESIRED_FRE
 1157              		.loc 1 585 0
 1158 015c 4843     		muls	r0, r1
 1159              	.LVL101:
 1160 015e 890A     		lsrs	r1, r1, #10
 1161 0160 FFF7FEFF 		bl	__aeabi_uidiv
 1162              	.LVL102:
 1163 0164 234B     		ldr	r3, .L133+36
 1164 0166 9C46     		mov	ip, r3
 1165 0168 1F23     		movs	r3, #31
ARM GAS  C:\Users\AFDHAL~1\AppData\Local\Temp\cc29CzqQ.s 			page 58


 1166 016a 6044     		add	r0, r0, ip
 1167 016c C217     		asrs	r2, r0, #31
 1168 016e 1340     		ands	r3, r2
 1169 0170 1B18     		adds	r3, r3, r0
 1170 0172 5B11     		asrs	r3, r3, #5
 1171              	.LVL103:
 589:Generated_Source\PSoC4/CyLFClk.c ****         {
 1172              		.loc 1 589 0
 1173 0174 D917     		asrs	r1, r3, #31
 1174 0176 5A18     		adds	r2, r3, r1
 1175 0178 4A40     		eors	r2, r1
 1176 017a 382A     		cmp	r2, #56
 1177 017c 1BDD     		ble	.L103
 593:Generated_Source\PSoC4/CyLFClk.c ****                 CY_SYS_CLK_HALF_OF_STEP) / CY_SYS_CLK_ERROR_STEP);
 1178              		.loc 1 593 0
 1179 017e 0A20     		movs	r0, #10
 591:Generated_Source\PSoC4/CyLFClk.c ****             {
 1180              		.loc 1 591 0
 1181 0180 002B     		cmp	r3, #0
 1182 0182 1DDD     		ble	.L104
 593:Generated_Source\PSoC4/CyLFClk.c ****                 CY_SYS_CLK_HALF_OF_STEP) / CY_SYS_CLK_ERROR_STEP);
 1183              		.loc 1 593 0
 1184 0184 4343     		muls	r3, r0
 1185              	.LVL104:
 1186 0186 7133     		adds	r3, r3, #113
 1187 0188 FF33     		adds	r3, r3, #255
 1188 018a 1800     		movs	r0, r3
 1189 018c 1A49     		ldr	r1, .L133+40
 1190 018e FFF7FEFF 		bl	__aeabi_idiv
 1191              	.LVL105:
 1192              	.L105:
 602:Generated_Source\PSoC4/CyLFClk.c **** 
 1193              		.loc 1 602 0
 1194 0192 0F22     		movs	r2, #15
 601:Generated_Source\PSoC4/CyLFClk.c ****             trimStep = (int32) currentIloTrimValue - trimStep;
 1195              		.loc 1 601 0
 1196 0194 154B     		ldr	r3, .L133+28
 1197 0196 1B68     		ldr	r3, [r3]
 1198              	.LVL106:
 602:Generated_Source\PSoC4/CyLFClk.c **** 
 1199              		.loc 1 602 0
 1200 0198 1340     		ands	r3, r2
 1201              	.LVL107:
 1202 019a 181A     		subs	r0, r3, r0
 1203              	.LVL108:
 604:Generated_Source\PSoC4/CyLFClk.c ****             {
 1204              		.loc 1 604 0
 1205 019c 9042     		cmp	r0, r2
 1206 019e 0DDC     		bgt	.L112
 610:Generated_Source\PSoC4/CyLFClk.c ****             }
 1207              		.loc 1 610 0
 1208 01a0 C343     		mvns	r3, r0
 1209              	.LVL109:
 1210 01a2 DB17     		asrs	r3, r3, #31
 1211 01a4 1840     		ands	r0, r3
 1212              	.LVL110:
 1213              	.L107:
ARM GAS  C:\Users\AFDHAL~1\AppData\Local\Temp\cc29CzqQ.s 			page 59


 612:Generated_Source\PSoC4/CyLFClk.c ****                                                                  ((uint32) trimStep);
 1214              		.loc 1 612 0
 1215 01a6 0F21     		movs	r1, #15
 1216 01a8 104A     		ldr	r2, .L133+28
 1217 01aa 1368     		ldr	r3, [r2]
 1218 01ac 8B43     		bics	r3, r1
 1219 01ae 1843     		orrs	r0, r3
 1220              	.LVL111:
 1221 01b0 1060     		str	r0, [r2]
 1222              	.LVL112:
 614:Generated_Source\PSoC4/CyLFClk.c ****         } /* Else return success because error is in +/- 10% range*/
 1223              		.loc 1 614 0
 1224 01b2 0720     		movs	r0, #7
 1225 01b4 C1E7     		b	.L102
 1226              	.LVL113:
 1227              	.L103:
 619:Generated_Source\PSoC4/CyLFClk.c ****             errorRangeStatus = CYRET_SUCCESS;
 1228              		.loc 1 619 0
 1229 01b6 2B60     		str	r3, [r5]
 1230              	.LVL114:
 620:Generated_Source\PSoC4/CyLFClk.c ****         }
 1231              		.loc 1 620 0
 1232 01b8 0020     		movs	r0, #0
 1233 01ba BEE7     		b	.L102
 1234              	.LVL115:
 1235              	.L112:
 606:Generated_Source\PSoC4/CyLFClk.c ****             }
 1236              		.loc 1 606 0
 1237 01bc 1000     		movs	r0, r2
 1238              	.LVL116:
 1239 01be F2E7     		b	.L107
 1240              	.LVL117:
 1241              	.L104:
 598:Generated_Source\PSoC4/CyLFClk.c ****                 CY_SYS_CLK_HALF_OF_STEP) / CY_SYS_CLK_ERROR_STEP);
 1242              		.loc 1 598 0
 1243 01c0 4343     		muls	r3, r0
 1244              	.LVL118:
 1245 01c2 713B     		subs	r3, r3, #113
 1246 01c4 FF3B     		subs	r3, r3, #255
 1247 01c6 1800     		movs	r0, r3
 1248 01c8 0B49     		ldr	r1, .L133+40
 1249 01ca FFF7FEFF 		bl	__aeabi_idiv
 1250              	.LVL119:
 1251 01ce E0E7     		b	.L105
 1252              	.L134:
 1253              		.align	2
 1254              	.L133:
 1255 01d0 10010B40 		.word	1074462992
 1256 01d4 3F3F0000 		.word	16191
 1257 01d8 08000340 		.word	1073938440
 1258 01dc 0A0B0000 		.word	2826
 1259 01e0 00000000 		.word	.LANCHOR0
 1260 01e4 00000000 		.word	cydelayFreqHz
 1261 01e8 1C000340 		.word	1073938460
 1262 01ec 24FF0B40 		.word	1074528036
 1263 01f0 18000340 		.word	1073938456
 1264 01f4 0083FFFF 		.word	-32000
ARM GAS  C:\Users\AFDHAL~1\AppData\Local\Temp\cc29CzqQ.s 			page 60


 1265 01f8 E1020000 		.word	737
 1266              	.LBE247:
 1267              	.LBE246:
 1268              	.LBE248:
 1269              	.LBE250:
 1270              		.cfi_endproc
 1271              	.LFE7:
 1272              		.size	CySysClkIloTrim, .-CySysClkIloTrim
 1273              		.section	.text.CySysClkIloUpdateTrimReg,"ax",%progbits
 1274              		.align	2
 1275              		.global	CySysClkIloUpdateTrimReg
 1276              		.code	16
 1277              		.thumb_func
 1278              		.type	CySysClkIloUpdateTrimReg, %function
 1279              	CySysClkIloUpdateTrimReg:
 1280              	.LFB8:
 572:Generated_Source\PSoC4/CyLFClk.c ****     uint32 measuredIloFreq;
 1281              		.loc 1 572 0
 1282              		.cfi_startproc
 1283              		@ args = 0, pretend = 0, frame = 0
 1284              		@ frame_needed = 0, uses_anonymous_args = 0
 1285              	.LVL120:
 579:Generated_Source\PSoC4/CyLFClk.c ****     {
 1286              		.loc 1 579 0
 1287 0000 224B     		ldr	r3, .L148
 572:Generated_Source\PSoC4/CyLFClk.c ****     uint32 measuredIloFreq;
 1288              		.loc 1 572 0
 1289 0002 10B5     		push	{r4, lr}
 1290              		.cfi_def_cfa_offset 8
 1291              		.cfi_offset 4, -8
 1292              		.cfi_offset 14, -4
 579:Generated_Source\PSoC4/CyLFClk.c ****     {
 1293              		.loc 1 579 0
 1294 0004 1A68     		ldr	r2, [r3]
 572:Generated_Source\PSoC4/CyLFClk.c ****     uint32 measuredIloFreq;
 1295              		.loc 1 572 0
 1296 0006 0400     		movs	r4, r0
 625:Generated_Source\PSoC4/CyLFClk.c ****     }
 1297              		.loc 1 625 0
 1298 0008 1120     		movs	r0, #17
 1299              	.LVL121:
 579:Generated_Source\PSoC4/CyLFClk.c ****     {
 1300              		.loc 1 579 0
 1301 000a 002A     		cmp	r2, #0
 1302 000c 00D1     		bne	.L146
 1303              	.L136:
 1304              	.LVL122:
 628:Generated_Source\PSoC4/CyLFClk.c **** 
 1305              		.loc 1 628 0
 1306              		@ sp needed
 1307              	.LVL123:
 1308 000e 10BD     		pop	{r4, pc}
 1309              	.LVL124:
 1310              	.L146:
 1311              	.LBB253:
 1312              	.LBB254:
 581:Generated_Source\PSoC4/CyLFClk.c **** 
ARM GAS  C:\Users\AFDHAL~1\AppData\Local\Temp\cc29CzqQ.s 			page 61


 1313              		.loc 1 581 0
 1314 0010 1868     		ldr	r0, [r3]
 1315 0012 1F4B     		ldr	r3, .L148+4
 1316 0014 1968     		ldr	r1, [r3]
 1317              	.LVL125:
 585:Generated_Source\PSoC4/CyLFClk.c ****                             ((int32) CY_SYS_CLK_PERTHOUSAND)) / ((int32) CY_SYS_CLK_ILO_DESIRED_FRE
 1318              		.loc 1 585 0
 1319 0016 4843     		muls	r0, r1
 1320              	.LVL126:
 1321 0018 890A     		lsrs	r1, r1, #10
 1322 001a FFF7FEFF 		bl	__aeabi_uidiv
 1323              	.LVL127:
 1324 001e 1D4B     		ldr	r3, .L148+8
 1325 0020 1F22     		movs	r2, #31
 1326 0022 9C46     		mov	ip, r3
 1327 0024 6044     		add	r0, r0, ip
 1328 0026 C317     		asrs	r3, r0, #31
 1329 0028 1340     		ands	r3, r2
 1330 002a 1818     		adds	r0, r3, r0
 1331 002c 4011     		asrs	r0, r0, #5
 1332              	.LVL128:
 589:Generated_Source\PSoC4/CyLFClk.c ****         {
 1333              		.loc 1 589 0
 1334 002e C217     		asrs	r2, r0, #31
 1335 0030 8318     		adds	r3, r0, r2
 1336 0032 5340     		eors	r3, r2
 1337 0034 382B     		cmp	r3, #56
 1338 0036 24DD     		ble	.L137
 593:Generated_Source\PSoC4/CyLFClk.c ****                 CY_SYS_CLK_HALF_OF_STEP) / CY_SYS_CLK_ERROR_STEP);
 1339              		.loc 1 593 0
 1340 0038 8300     		lsls	r3, r0, #2
 591:Generated_Source\PSoC4/CyLFClk.c ****             {
 1341              		.loc 1 591 0
 1342 003a 0028     		cmp	r0, #0
 1343 003c 19DD     		ble	.L138
 593:Generated_Source\PSoC4/CyLFClk.c ****                 CY_SYS_CLK_HALF_OF_STEP) / CY_SYS_CLK_ERROR_STEP);
 1344              		.loc 1 593 0
 1345 003e 1818     		adds	r0, r3, r0
 1346              	.LVL129:
 1347 0040 4000     		lsls	r0, r0, #1
 1348 0042 7130     		adds	r0, r0, #113
 1349 0044 FF30     		adds	r0, r0, #255
 1350 0046 1449     		ldr	r1, .L148+12
 1351 0048 FFF7FEFF 		bl	__aeabi_idiv
 1352              	.LVL130:
 1353              	.L139:
 602:Generated_Source\PSoC4/CyLFClk.c **** 
 1354              		.loc 1 602 0
 1355 004c 0F22     		movs	r2, #15
 601:Generated_Source\PSoC4/CyLFClk.c ****             trimStep = (int32) currentIloTrimValue - trimStep;
 1356              		.loc 1 601 0
 1357 004e 134B     		ldr	r3, .L148+16
 1358 0050 1B68     		ldr	r3, [r3]
 1359              	.LVL131:
 602:Generated_Source\PSoC4/CyLFClk.c **** 
 1360              		.loc 1 602 0
 1361 0052 1340     		ands	r3, r2
ARM GAS  C:\Users\AFDHAL~1\AppData\Local\Temp\cc29CzqQ.s 			page 62


 1362              	.LVL132:
 1363 0054 181A     		subs	r0, r3, r0
 1364              	.LVL133:
 604:Generated_Source\PSoC4/CyLFClk.c ****             {
 1365              		.loc 1 604 0
 1366 0056 0F23     		movs	r3, #15
 1367              	.LVL134:
 1368 0058 0F28     		cmp	r0, #15
 1369 005a 02DC     		bgt	.L141
 608:Generated_Source\PSoC4/CyLFClk.c ****             {
 1370              		.loc 1 608 0
 1371 005c 0023     		movs	r3, #0
 1372 005e 0028     		cmp	r0, #0
 1373 0060 12DA     		bge	.L147
 1374              	.L141:
 1375              	.LVL135:
 612:Generated_Source\PSoC4/CyLFClk.c ****                                                                  ((uint32) trimStep);
 1376              		.loc 1 612 0
 1377 0062 0F20     		movs	r0, #15
 1378 0064 0D49     		ldr	r1, .L148+16
 1379 0066 0A68     		ldr	r2, [r1]
 1380 0068 8243     		bics	r2, r0
 1381 006a 1343     		orrs	r3, r2
 1382 006c 0B60     		str	r3, [r1]
 1383              	.LVL136:
 614:Generated_Source\PSoC4/CyLFClk.c ****         } /* Else return success because error is in +/- 10% range*/
 1384              		.loc 1 614 0
 1385 006e 0838     		subs	r0, r0, #8
 1386 0070 CDE7     		b	.L136
 1387              	.LVL137:
 1388              	.L138:
 598:Generated_Source\PSoC4/CyLFClk.c ****                 CY_SYS_CLK_HALF_OF_STEP) / CY_SYS_CLK_ERROR_STEP);
 1389              		.loc 1 598 0
 1390 0072 1818     		adds	r0, r3, r0
 1391              	.LVL138:
 1392 0074 4000     		lsls	r0, r0, #1
 1393 0076 7138     		subs	r0, r0, #113
 1394 0078 0749     		ldr	r1, .L148+12
 1395 007a FF38     		subs	r0, r0, #255
 1396 007c FFF7FEFF 		bl	__aeabi_idiv
 1397              	.LVL139:
 1398 0080 E4E7     		b	.L139
 1399              	.LVL140:
 1400              	.L137:
 619:Generated_Source\PSoC4/CyLFClk.c ****             errorRangeStatus = CYRET_SUCCESS;
 1401              		.loc 1 619 0
 1402 0082 2060     		str	r0, [r4]
 1403              	.LVL141:
 620:Generated_Source\PSoC4/CyLFClk.c ****         }
 1404              		.loc 1 620 0
 1405 0084 0020     		movs	r0, #0
 1406              	.LVL142:
 1407 0086 C2E7     		b	.L136
 1408              	.LVL143:
 1409              	.L147:
 1410 0088 0300     		movs	r3, r0
 1411 008a EAE7     		b	.L141
ARM GAS  C:\Users\AFDHAL~1\AppData\Local\Temp\cc29CzqQ.s 			page 63


 1412              	.L149:
 1413              		.align	2
 1414              	.L148:
 1415 008c 1C000340 		.word	1073938460
 1416 0090 00000000 		.word	cydelayFreqHz
 1417 0094 0083FFFF 		.word	-32000
 1418 0098 E1020000 		.word	737
 1419 009c 24FF0B40 		.word	1074528036
 1420              	.LBE254:
 1421              	.LBE253:
 1422              		.cfi_endproc
 1423              	.LFE8:
 1424              		.size	CySysClkIloUpdateTrimReg, .-CySysClkIloUpdateTrimReg
 1425              		.section	.text.CySysClkIloRestoreFactoryTrim,"ax",%progbits
 1426              		.align	2
 1427              		.global	CySysClkIloRestoreFactoryTrim
 1428              		.code	16
 1429              		.thumb_func
 1430              		.type	CySysClkIloRestoreFactoryTrim, %function
 1431              	CySysClkIloRestoreFactoryTrim:
 1432              	.LFB9:
 649:Generated_Source\PSoC4/CyLFClk.c ****     cystatus returnStatus = CYRET_SUCCESS;
 1433              		.loc 1 649 0
 1434              		.cfi_startproc
 1435              		@ args = 0, pretend = 0, frame = 0
 1436              		@ frame_needed = 0, uses_anonymous_args = 0
 1437              		@ link register save eliminated.
 1438              	.LVL144:
 653:Generated_Source\PSoC4/CyLFClk.c ****         {
 1439              		.loc 1 653 0
 1440 0000 084A     		ldr	r2, .L153
 1441 0002 1388     		ldrh	r3, [r2]
 1442 0004 F02B     		cmp	r3, #240
 1443 0006 09D0     		beq	.L152
 655:Generated_Source\PSoC4/CyLFClk.c ****                                        (defaultIloTrimRegValue & CY_SYS_CLK_ILO_TRIM_MASK));
 1444              		.loc 1 655 0
 1445 0008 0F23     		movs	r3, #15
 1446 000a 0748     		ldr	r0, .L153+4
 1447 000c 0168     		ldr	r1, [r0]
 656:Generated_Source\PSoC4/CyLFClk.c ****         }
 1448              		.loc 1 656 0
 1449 000e 1288     		ldrh	r2, [r2]
 655:Generated_Source\PSoC4/CyLFClk.c ****                                        (defaultIloTrimRegValue & CY_SYS_CLK_ILO_TRIM_MASK));
 1450              		.loc 1 655 0
 1451 0010 9943     		bics	r1, r3
 1452 0012 1340     		ands	r3, r2
 1453 0014 0B43     		orrs	r3, r1
 1454 0016 0360     		str	r3, [r0]
 650:Generated_Source\PSoC4/CyLFClk.c **** 
 1455              		.loc 1 650 0
 1456 0018 0020     		movs	r0, #0
 1457              	.L151:
 1458              	.LVL145:
 664:Generated_Source\PSoC4/CyLFClk.c **** #endif /* (CY_IP_SRSSV2 && (!CY_IP_CPUSS)) */
 1459              		.loc 1 664 0
 1460              		@ sp needed
 1461 001a 7047     		bx	lr
ARM GAS  C:\Users\AFDHAL~1\AppData\Local\Temp\cc29CzqQ.s 			page 64


 1462              	.LVL146:
 1463              	.L152:
 660:Generated_Source\PSoC4/CyLFClk.c ****         }
 1464              		.loc 1 660 0
 1465 001c 0120     		movs	r0, #1
 1466 001e 4042     		rsbs	r0, r0, #0
 1467 0020 FBE7     		b	.L151
 1468              	.L154:
 1469 0022 C046     		.align	2
 1470              	.L153:
 1471 0024 00000000 		.word	.LANCHOR1
 1472 0028 24FF0B40 		.word	1074528036
 1473              		.cfi_endproc
 1474              	.LFE9:
 1475              		.size	CySysClkIloRestoreFactoryTrim, .-CySysClkIloRestoreFactoryTrim
 1476              		.section	.text.CySysClkSetLfclkSource,"ax",%progbits
 1477              		.align	2
 1478              		.global	CySysClkSetLfclkSource
 1479              		.code	16
 1480              		.thumb_func
 1481              		.type	CySysClkSetLfclkSource, %function
 1482              	CySysClkSetLfclkSource:
 1483              	.LFB11:
 735:Generated_Source\PSoC4/CyLFClk.c ****         uint8  interruptState;
 1484              		.loc 1 735 0
 1485              		.cfi_startproc
 1486              		@ args = 0, pretend = 0, frame = 0
 1487              		@ frame_needed = 0, uses_anonymous_args = 0
 1488              	.LVL147:
 1489 0000 70B5     		push	{r4, r5, r6, lr}
 1490              		.cfi_def_cfa_offset 16
 1491              		.cfi_offset 4, -16
 1492              		.cfi_offset 5, -12
 1493              		.cfi_offset 6, -8
 1494              		.cfi_offset 14, -4
 1495              	.LBB265:
 1496              	.LBB266:
 688:Generated_Source\PSoC4/CyLFClk.c ****         return (lfclkSource);
 1497              		.loc 1 688 0
 1498 0002 174D     		ldr	r5, .L163
 1499              	.LBE266:
 1500              	.LBE265:
 735:Generated_Source\PSoC4/CyLFClk.c ****         uint8  interruptState;
 1501              		.loc 1 735 0
 1502 0004 0400     		movs	r4, r0
 1503              	.LBB268:
 1504              	.LBB267:
 688:Generated_Source\PSoC4/CyLFClk.c ****         return (lfclkSource);
 1505              		.loc 1 688 0
 1506 0006 2B68     		ldr	r3, [r5]
 1507              	.LBE267:
 1508              	.LBE268:
 738:Generated_Source\PSoC4/CyLFClk.c ****         {
 1509              		.loc 1 738 0
 1510 0008 9B0F     		lsrs	r3, r3, #30
 1511 000a 9B07     		lsls	r3, r3, #30
 1512 000c 9842     		cmp	r0, r3
ARM GAS  C:\Users\AFDHAL~1\AppData\Local\Temp\cc29CzqQ.s 			page 65


 1513 000e 12D0     		beq	.L155
 740:Generated_Source\PSoC4/CyLFClk.c ****             CySysClkLfclkPosedgeCatch();
 1514              		.loc 1 740 0
 1515 0010 FFF7FEFF 		bl	CyEnterCriticalSection
 1516              	.LVL148:
 1517 0014 0600     		movs	r6, r0
 1518              	.LVL149:
 741:Generated_Source\PSoC4/CyLFClk.c ****             CY_SYS_WDT_CONFIG_REG = (CY_SYS_WDT_CONFIG_REG & (uint32)(~CY_SYS_CLK_LFCLK_SEL_MASK)) 
 1519              		.loc 1 741 0
 1520 0016 FFF7FEFF 		bl	CySysClkLfclkPosedgeCatch
 1521              	.LVL150:
 742:Generated_Source\PSoC4/CyLFClk.c ****                                     (source & CY_SYS_CLK_LFCLK_SEL_MASK);
 1522              		.loc 1 742 0
 1523 001a 2B68     		ldr	r3, [r5]
 1524 001c A40F     		lsrs	r4, r4, #30
 1525              	.LVL151:
 1526 001e 9B00     		lsls	r3, r3, #2
 1527 0020 9B08     		lsrs	r3, r3, #2
 1528 0022 A407     		lsls	r4, r4, #30
 1529 0024 1C43     		orrs	r4, r3
 1530              	.LBB269:
 1531              	.LBB270:
1896:Generated_Source\PSoC4/CyLFClk.c ****         {
 1532              		.loc 1 1896 0
 1533 0026 0F4B     		ldr	r3, .L163+4
 1534              	.LBE270:
 1535              	.LBE269:
 742:Generated_Source\PSoC4/CyLFClk.c ****                                     (source & CY_SYS_CLK_LFCLK_SEL_MASK);
 1536              		.loc 1 742 0
 1537 0028 2C60     		str	r4, [r5]
 1538              	.LBB278:
 1539              	.LBB276:
1896:Generated_Source\PSoC4/CyLFClk.c ****         {
 1540              		.loc 1 1896 0
 1541 002a 5A68     		ldr	r2, [r3, #4]
 1542 002c 002A     		cmp	r2, #0
 1543 002e 03D1     		bne	.L162
 1544              	.L157:
 1545              	.LBE276:
 1546              	.LBE278:
 745:Generated_Source\PSoC4/CyLFClk.c ****         }
 1547              		.loc 1 745 0
 1548 0030 3000     		movs	r0, r6
 1549 0032 FFF7FEFF 		bl	CyExitCriticalSection
 1550              	.LVL152:
 1551              	.L155:
 747:Generated_Source\PSoC4/CyLFClk.c **** #endif /* (CY_IP_WCO && CY_IP_SRSSV2) */
 1552              		.loc 1 747 0
 1553              		@ sp needed
 1554 0036 70BD     		pop	{r4, r5, r6, pc}
 1555              	.LVL153:
 1556              	.L162:
 1557              	.LBB279:
 1558              	.LBB277:
 1559              	.LBB271:
1899:Generated_Source\PSoC4/CyLFClk.c ****             CySysWdtSetMode(CY_SYS_WDT_COUNTER0, lfclkPosedgeWdtCounter0Mode);
 1560              		.loc 1 1899 0
ARM GAS  C:\Users\AFDHAL~1\AppData\Local\Temp\cc29CzqQ.s 			page 66


 1561 0038 0120     		movs	r0, #1
 1562 003a 0B4A     		ldr	r2, .L163+8
 1563 003c 1168     		ldr	r1, [r2]
 1564 003e 8143     		bics	r1, r0
 1565 0040 1160     		str	r1, [r2]
 1566              	.LVL154:
 1567              	.LBB272:
 1568              	.LBB273:
 1569              	.LBB274:
 1570              	.LBB275:
1020:Generated_Source\PSoC4/CyLFClk.c ****     }
 1571              		.loc 1 1020 0
 1572 0042 1268     		ldr	r2, [r2]
 1573              	.LVL155:
 1574              	.LBE275:
 1575              	.LBE274:
1053:Generated_Source\PSoC4/CyLFClk.c ****         {
 1576              		.loc 1 1053 0
 1577 0044 5208     		lsrs	r2, r2, #1
 1578 0046 1042     		tst	r0, r2
 1579 0048 06D1     		bne	.L158
1055:Generated_Source\PSoC4/CyLFClk.c ****                                 (uint32)~((uint32)(CY_SYS_WDT_MODE_MASK << (counterNum * CY_SYS_WDT
 1580              		.loc 1 1055 0
 1581 004a 0322     		movs	r2, #3
 1582 004c 2968     		ldr	r1, [r5]
1057:Generated_Source\PSoC4/CyLFClk.c ****             CY_SYS_WDT_CONFIG_REG = configRegValue;
 1583              		.loc 1 1057 0
 1584 004e 9868     		ldr	r0, [r3, #8]
1055:Generated_Source\PSoC4/CyLFClk.c ****                                 (uint32)~((uint32)(CY_SYS_WDT_MODE_MASK << (counterNum * CY_SYS_WDT
 1585              		.loc 1 1055 0
 1586 0050 9143     		bics	r1, r2
 1587              	.LVL156:
1057:Generated_Source\PSoC4/CyLFClk.c ****             CY_SYS_WDT_CONFIG_REG = configRegValue;
 1588              		.loc 1 1057 0
 1589 0052 0240     		ands	r2, r0
 1590 0054 0A43     		orrs	r2, r1
 1591              	.LVL157:
1058:Generated_Source\PSoC4/CyLFClk.c ****         }
 1592              		.loc 1 1058 0
 1593 0056 2A60     		str	r2, [r5]
 1594              	.LVL158:
 1595              	.L158:
 1596              	.LBE273:
 1597              	.LBE272:
 1598              		.loc 1 1901 0
 1599 0058 0022     		movs	r2, #0
 1600 005a 5A60     		str	r2, [r3, #4]
 1601 005c E8E7     		b	.L157
 1602              	.L164:
 1603 005e C046     		.align	2
 1604              	.L163:
 1605 0060 0C020B40 		.word	1074463244
 1606 0064 00000000 		.word	.LANCHOR0
 1607 0068 10020B40 		.word	1074463248
 1608              	.LBE271:
 1609              	.LBE277:
 1610              	.LBE279:
ARM GAS  C:\Users\AFDHAL~1\AppData\Local\Temp\cc29CzqQ.s 			page 67


 1611              		.cfi_endproc
 1612              	.LFE11:
 1613              		.size	CySysClkSetLfclkSource, .-CySysClkSetLfclkSource
 1614              		.section	.text.CySysClkWcoStart,"ax",%progbits
 1615              		.align	2
 1616              		.global	CySysClkWcoStart
 1617              		.code	16
 1618              		.thumb_func
 1619              		.type	CySysClkWcoStart, %function
 1620              	CySysClkWcoStart:
 1621              	.LFB12:
 772:Generated_Source\PSoC4/CyLFClk.c ****         CySysClkWcoSetHighPowerMode();
 1622              		.loc 1 772 0
 1623              		.cfi_startproc
 1624              		@ args = 0, pretend = 0, frame = 0
 1625              		@ frame_needed = 0, uses_anonymous_args = 0
 1626              	.LBB280:
 1627              	.LBB281:
 1628              		.file 2 "Generated_Source\\PSoC4\\CyLFClk.h"
   1:Generated_Source\PSoC4/CyLFClk.h **** /***************************************************************************//**
   2:Generated_Source\PSoC4/CyLFClk.h **** * \file .h
   3:Generated_Source\PSoC4/CyLFClk.h **** * \version 1.20
   4:Generated_Source\PSoC4/CyLFClk.h **** *
   5:Generated_Source\PSoC4/CyLFClk.h **** * \brief
   6:Generated_Source\PSoC4/CyLFClk.h **** *  This file provides the source code to API for the lfclk and wdt.
   7:Generated_Source\PSoC4/CyLFClk.h **** *
   8:Generated_Source\PSoC4/CyLFClk.h **** ********************************************************************************
   9:Generated_Source\PSoC4/CyLFClk.h **** * \copyright
  10:Generated_Source\PSoC4/CyLFClk.h **** * Copyright 2008-2017, Cypress Semiconductor Corporation.  All rights reserved.
  11:Generated_Source\PSoC4/CyLFClk.h **** * You may use this file only in accordance with the license, terms, conditions,
  12:Generated_Source\PSoC4/CyLFClk.h **** * disclaimers, and limitations in the end user license agreement accompanying
  13:Generated_Source\PSoC4/CyLFClk.h **** * the software package with which this file was provided.
  14:Generated_Source\PSoC4/CyLFClk.h **** *******************************************************************************/
  15:Generated_Source\PSoC4/CyLFClk.h **** 
  16:Generated_Source\PSoC4/CyLFClk.h **** 
  17:Generated_Source\PSoC4/CyLFClk.h **** #if !defined(CY_LFCLK_CYLIB_H)
  18:Generated_Source\PSoC4/CyLFClk.h **** #define CY_LFCLK_CYLIB_H
  19:Generated_Source\PSoC4/CyLFClk.h **** 
  20:Generated_Source\PSoC4/CyLFClk.h **** #include "cytypes.h"
  21:Generated_Source\PSoC4/CyLFClk.h **** #include "cydevice_trm.h"
  22:Generated_Source\PSoC4/CyLFClk.h **** 
  23:Generated_Source\PSoC4/CyLFClk.h **** #define CY_IP_WCO_WDT_EN           (-1 == 1)
  24:Generated_Source\PSoC4/CyLFClk.h **** 
  25:Generated_Source\PSoC4/CyLFClk.h **** typedef enum
  26:Generated_Source\PSoC4/CyLFClk.h **** {
  27:Generated_Source\PSoC4/CyLFClk.h ****     CY_SYS_TIMER_WAIT = 0u,
  28:Generated_Source\PSoC4/CyLFClk.h ****     CY_SYS_TIMER_INTERRUPT = 1u
  29:Generated_Source\PSoC4/CyLFClk.h **** } cy_sys_timer_delaytype_enum;
  30:Generated_Source\PSoC4/CyLFClk.h **** 
  31:Generated_Source\PSoC4/CyLFClk.h **** 
  32:Generated_Source\PSoC4/CyLFClk.h **** /***************************************
  33:Generated_Source\PSoC4/CyLFClk.h **** *    Function Prototypes
  34:Generated_Source\PSoC4/CyLFClk.h **** ***************************************/
  35:Generated_Source\PSoC4/CyLFClk.h **** /**
  36:Generated_Source\PSoC4/CyLFClk.h **** * \addtogroup group_general
  37:Generated_Source\PSoC4/CyLFClk.h **** * @{
  38:Generated_Source\PSoC4/CyLFClk.h **** */
ARM GAS  C:\Users\AFDHAL~1\AppData\Local\Temp\cc29CzqQ.s 			page 68


  39:Generated_Source\PSoC4/CyLFClk.h **** /* Clocks API */
  40:Generated_Source\PSoC4/CyLFClk.h **** void CySysClkIloStart(void);
  41:Generated_Source\PSoC4/CyLFClk.h **** void CySysClkIloStop(void);
  42:Generated_Source\PSoC4/CyLFClk.h **** /** @} general */
  43:Generated_Source\PSoC4/CyLFClk.h **** 
  44:Generated_Source\PSoC4/CyLFClk.h **** /**
  45:Generated_Source\PSoC4/CyLFClk.h **** * \addtogroup group_compensate
  46:Generated_Source\PSoC4/CyLFClk.h **** * @{
  47:Generated_Source\PSoC4/CyLFClk.h **** */
  48:Generated_Source\PSoC4/CyLFClk.h **** cystatus CySysClkIloCompensate(uint32 desiredDelay, uint32 *compensatedCycles);
  49:Generated_Source\PSoC4/CyLFClk.h **** void CySysClkIloStartMeasurement(void);
  50:Generated_Source\PSoC4/CyLFClk.h **** void CySysClkIloStopMeasurement(void);
  51:Generated_Source\PSoC4/CyLFClk.h **** /** @} compensate */
  52:Generated_Source\PSoC4/CyLFClk.h **** 
  53:Generated_Source\PSoC4/CyLFClk.h **** #if(CY_IP_SRSSV2 && (!CY_IP_CPUSS))
  54:Generated_Source\PSoC4/CyLFClk.h ****     /**
  55:Generated_Source\PSoC4/CyLFClk.h ****     * \addtogroup group_compensate
  56:Generated_Source\PSoC4/CyLFClk.h ****     * @{
  57:Generated_Source\PSoC4/CyLFClk.h ****     */
  58:Generated_Source\PSoC4/CyLFClk.h ****     cystatus CySysClkIloTrim(uint32 mode, int32 *iloAccuracyInPPT);
  59:Generated_Source\PSoC4/CyLFClk.h ****     cystatus CySysClkIloRestoreFactoryTrim(void);
  60:Generated_Source\PSoC4/CyLFClk.h ****     /** @} compensate */
  61:Generated_Source\PSoC4/CyLFClk.h ****     cystatus CySysClkIloUpdateTrimReg(int32* iloAccuracyInPPT);
  62:Generated_Source\PSoC4/CyLFClk.h **** #endif /* (CY_IP_SRSSV2 && (!CY_IP_CPUSS)) */
  63:Generated_Source\PSoC4/CyLFClk.h **** 
  64:Generated_Source\PSoC4/CyLFClk.h **** #if(CY_IP_SRSSV2 && CY_IP_WCO)
  65:Generated_Source\PSoC4/CyLFClk.h ****     /**
  66:Generated_Source\PSoC4/CyLFClk.h ****     * \addtogroup group_general
  67:Generated_Source\PSoC4/CyLFClk.h ****     * @{
  68:Generated_Source\PSoC4/CyLFClk.h ****     */
  69:Generated_Source\PSoC4/CyLFClk.h ****     void CySysClkSetLfclkSource(uint32 source);
  70:Generated_Source\PSoC4/CyLFClk.h ****     /** @} group_general */
  71:Generated_Source\PSoC4/CyLFClk.h **** #endif /* (CY_IP_SRSSV2 && CY_IP_WCO) */
  72:Generated_Source\PSoC4/CyLFClk.h **** 
  73:Generated_Source\PSoC4/CyLFClk.h **** #if (CY_IP_WCO)
  74:Generated_Source\PSoC4/CyLFClk.h ****     /**
  75:Generated_Source\PSoC4/CyLFClk.h ****     * \addtogroup group_wco
  76:Generated_Source\PSoC4/CyLFClk.h ****     * @{
  77:Generated_Source\PSoC4/CyLFClk.h ****     */
  78:Generated_Source\PSoC4/CyLFClk.h ****     void   CySysClkWcoStart(void);
  79:Generated_Source\PSoC4/CyLFClk.h ****     void   CySysClkWcoStop(void);
  80:Generated_Source\PSoC4/CyLFClk.h ****     uint32 CySysClkWcoSetPowerMode(uint32 mode);
  81:Generated_Source\PSoC4/CyLFClk.h ****     void CySysClkWcoClockOutSelect(uint32 clockSel);
  82:Generated_Source\PSoC4/CyLFClk.h ****     /** @} wco */
  83:Generated_Source\PSoC4/CyLFClk.h **** 
  84:Generated_Source\PSoC4/CyLFClk.h ****     uint32 CySysClkWcoEnabled(void);
  85:Generated_Source\PSoC4/CyLFClk.h **** 
  86:Generated_Source\PSoC4/CyLFClk.h **** #endif /* (CY_IP_WCO) */
  87:Generated_Source\PSoC4/CyLFClk.h **** 
  88:Generated_Source\PSoC4/CyLFClk.h **** typedef void (*cyWdtCallback)(void);
  89:Generated_Source\PSoC4/CyLFClk.h **** 
  90:Generated_Source\PSoC4/CyLFClk.h **** #if (CY_IP_SRSSLT && CY_IP_WCO && CY_IP_WCO_WDT_EN)
  91:Generated_Source\PSoC4/CyLFClk.h **** 
  92:Generated_Source\PSoC4/CyLFClk.h ****     typedef void (*cyTimerCallback)(void);
  93:Generated_Source\PSoC4/CyLFClk.h **** #endif /* (CY_IP_SRSSLT && CY_IP_WCO && CY_IP_WCO_WDT_EN) */
  94:Generated_Source\PSoC4/CyLFClk.h **** 
  95:Generated_Source\PSoC4/CyLFClk.h **** #if(CY_IP_SRSSV2)
ARM GAS  C:\Users\AFDHAL~1\AppData\Local\Temp\cc29CzqQ.s 			page 69


  96:Generated_Source\PSoC4/CyLFClk.h ****     /**
  97:Generated_Source\PSoC4/CyLFClk.h ****     * \addtogroup group_wdtsrssv2
  98:Generated_Source\PSoC4/CyLFClk.h ****     * @{
  99:Generated_Source\PSoC4/CyLFClk.h ****     */
 100:Generated_Source\PSoC4/CyLFClk.h ****     /* WDT API */
 101:Generated_Source\PSoC4/CyLFClk.h ****     void   CySysWdtLock(void);
 102:Generated_Source\PSoC4/CyLFClk.h ****     void   CySysWdtUnlock(void);
 103:Generated_Source\PSoC4/CyLFClk.h ****     void   CySysWdtSetMode(uint32 counterNum, uint32 mode);
 104:Generated_Source\PSoC4/CyLFClk.h ****     uint32 CySysWdtGetMode(uint32 counterNum);
 105:Generated_Source\PSoC4/CyLFClk.h ****     uint32 CySysWdtGetEnabledStatus(uint32 counterNum);
 106:Generated_Source\PSoC4/CyLFClk.h ****     void   CySysWdtSetClearOnMatch(uint32 counterNum, uint32 enable);
 107:Generated_Source\PSoC4/CyLFClk.h ****     uint32 CySysWdtGetClearOnMatch(uint32 counterNum);
 108:Generated_Source\PSoC4/CyLFClk.h ****     void   CySysWdtEnable(uint32 counterMask);
 109:Generated_Source\PSoC4/CyLFClk.h ****     void   CySysWdtDisable(uint32 counterMask);
 110:Generated_Source\PSoC4/CyLFClk.h ****     void   CySysWdtSetCascade(uint32 cascadeMask);
 111:Generated_Source\PSoC4/CyLFClk.h ****     uint32 CySysWdtGetCascade(void);
 112:Generated_Source\PSoC4/CyLFClk.h ****     void   CySysWdtSetMatch(uint32 counterNum, uint32 match);
 113:Generated_Source\PSoC4/CyLFClk.h ****     void   CySysWdtSetToggleBit(uint32 bits);
 114:Generated_Source\PSoC4/CyLFClk.h ****     uint32 CySysWdtGetToggleBit(void);
 115:Generated_Source\PSoC4/CyLFClk.h ****     uint32 CySysWdtGetMatch(uint32 counterNum);
 116:Generated_Source\PSoC4/CyLFClk.h ****     uint32 CySysWdtGetCount(uint32 counterNum);
 117:Generated_Source\PSoC4/CyLFClk.h ****     uint32 CySysWdtGetInterruptSource(void);
 118:Generated_Source\PSoC4/CyLFClk.h ****     void   CySysWdtClearInterrupt(uint32 counterMask);
 119:Generated_Source\PSoC4/CyLFClk.h ****     void   CySysWdtResetCounters(uint32 countersMask);
 120:Generated_Source\PSoC4/CyLFClk.h ****     cyWdtCallback  CySysWdtSetInterruptCallback(uint32 counterNum, cyWdtCallback function);
 121:Generated_Source\PSoC4/CyLFClk.h ****     cyWdtCallback  CySysWdtGetInterruptCallback(uint32 counterNum);
 122:Generated_Source\PSoC4/CyLFClk.h ****     void   CySysTimerDelay(uint32 counterNum, cy_sys_timer_delaytype_enum delayType, uint32 delay);
 123:Generated_Source\PSoC4/CyLFClk.h ****     void   CySysTimerDelayUntilMatch(uint32 counterNum, cy_sys_timer_delaytype_enum delayType, uint
 124:Generated_Source\PSoC4/CyLFClk.h ****     void   CySysWatchdogFeed(uint32 counterNum);
 125:Generated_Source\PSoC4/CyLFClk.h ****     void   CySysWdtEnableCounterIsr(uint32 counterNum);
 126:Generated_Source\PSoC4/CyLFClk.h ****     void   CySysWdtDisableCounterIsr(uint32 counterNum);
 127:Generated_Source\PSoC4/CyLFClk.h ****     void   CySysWdtIsr(void);
 128:Generated_Source\PSoC4/CyLFClk.h ****     /** @} wdtsrssv2 */
 129:Generated_Source\PSoC4/CyLFClk.h **** #else
 130:Generated_Source\PSoC4/CyLFClk.h ****     /**
 131:Generated_Source\PSoC4/CyLFClk.h ****     * \addtogroup group_wdtsrsslite
 132:Generated_Source\PSoC4/CyLFClk.h ****     * @{
 133:Generated_Source\PSoC4/CyLFClk.h ****     */
 134:Generated_Source\PSoC4/CyLFClk.h ****     /* WDT API */
 135:Generated_Source\PSoC4/CyLFClk.h ****     uint32 CySysWdtGetEnabledStatus(void);
 136:Generated_Source\PSoC4/CyLFClk.h ****     void   CySysWdtEnable(void);
 137:Generated_Source\PSoC4/CyLFClk.h ****     void   CySysWdtDisable(void);
 138:Generated_Source\PSoC4/CyLFClk.h ****     void   CySysWdtSetMatch(uint32 match);
 139:Generated_Source\PSoC4/CyLFClk.h ****     uint32 CySysWdtGetMatch(void);
 140:Generated_Source\PSoC4/CyLFClk.h ****     uint32 CySysWdtGetCount(void);
 141:Generated_Source\PSoC4/CyLFClk.h ****     void   CySysWdtSetIgnoreBits(uint32 bitsNum);
 142:Generated_Source\PSoC4/CyLFClk.h ****     uint32 CySysWdtGetIgnoreBits(void);
 143:Generated_Source\PSoC4/CyLFClk.h ****     void   CySysWdtClearInterrupt(void);
 144:Generated_Source\PSoC4/CyLFClk.h ****     void   CySysWdtMaskInterrupt(void);
 145:Generated_Source\PSoC4/CyLFClk.h ****     void   CySysWdtUnmaskInterrupt(void);
 146:Generated_Source\PSoC4/CyLFClk.h ****     cyWdtCallback CySysWdtSetInterruptCallback(cyWdtCallback function);
 147:Generated_Source\PSoC4/CyLFClk.h ****     cyWdtCallback CySysWdtGetInterruptCallback(void);
 148:Generated_Source\PSoC4/CyLFClk.h ****     void   CySysWdtIsr(void);
 149:Generated_Source\PSoC4/CyLFClk.h ****     /** @} wdtsrsslite*/
 150:Generated_Source\PSoC4/CyLFClk.h **** #endif  /* (CY_IP_SRSSV2) */
 151:Generated_Source\PSoC4/CyLFClk.h **** 
 152:Generated_Source\PSoC4/CyLFClk.h **** 
ARM GAS  C:\Users\AFDHAL~1\AppData\Local\Temp\cc29CzqQ.s 			page 70


 153:Generated_Source\PSoC4/CyLFClk.h **** #if(CY_IP_SRSSLT && CY_IP_WCO && CY_IP_WCO_WDT_EN)
 154:Generated_Source\PSoC4/CyLFClk.h ****     /**
 155:Generated_Source\PSoC4/CyLFClk.h ****     * \addtogroup group_deepsleepwdt
 156:Generated_Source\PSoC4/CyLFClk.h ****     * @{
 157:Generated_Source\PSoC4/CyLFClk.h ****     */
 158:Generated_Source\PSoC4/CyLFClk.h ****     /* WCO WDT APIs */
 159:Generated_Source\PSoC4/CyLFClk.h ****     void   CySysClkSetTimerSource(uint32 source);
 160:Generated_Source\PSoC4/CyLFClk.h ****     void   CySysTimerSetMode(uint32 counterNum, uint32 mode);
 161:Generated_Source\PSoC4/CyLFClk.h ****     uint32 CySysTimerGetMode(uint32 counterNum);
 162:Generated_Source\PSoC4/CyLFClk.h ****     uint32 CySysTimerGetEnabledStatus(uint32 counterNum);
 163:Generated_Source\PSoC4/CyLFClk.h ****     void   CySysTimerSetClearOnMatch(uint32 counterNum, uint32 enable);
 164:Generated_Source\PSoC4/CyLFClk.h ****     uint32 CySysTimerGetClearOnMatch(uint32 counterNum);
 165:Generated_Source\PSoC4/CyLFClk.h ****     void   CySysTimerEnable(uint32 counterMask);
 166:Generated_Source\PSoC4/CyLFClk.h ****     void   CySysTimerDisable(uint32 counterMask);
 167:Generated_Source\PSoC4/CyLFClk.h ****     void   CySysTimerSetCascade(uint32 cascadeMask);
 168:Generated_Source\PSoC4/CyLFClk.h ****     uint32 CySysTimerGetCascade(void);
 169:Generated_Source\PSoC4/CyLFClk.h ****     void   CySysTimerSetMatch(uint32 counterNum, uint32 match);
 170:Generated_Source\PSoC4/CyLFClk.h ****     void   CySysTimerSetToggleBit(uint32 bits);
 171:Generated_Source\PSoC4/CyLFClk.h ****     uint32 CySysTimerGetToggleBit(void);
 172:Generated_Source\PSoC4/CyLFClk.h ****     uint32 CySysTimerGetMatch(uint32 counterNum);
 173:Generated_Source\PSoC4/CyLFClk.h ****     uint32 CySysTimerGetCount(uint32 counterNum);
 174:Generated_Source\PSoC4/CyLFClk.h ****     uint32 CySysTimerGetInterruptSource(void);
 175:Generated_Source\PSoC4/CyLFClk.h ****     void   CySysTimerClearInterrupt(uint32 counterMask);
 176:Generated_Source\PSoC4/CyLFClk.h ****     cyTimerCallback CySysTimerSetInterruptCallback(uint32 counterNum, cyTimerCallback function);
 177:Generated_Source\PSoC4/CyLFClk.h ****     cyTimerCallback CySysTimerGetInterruptCallback(uint32 counterNum);
 178:Generated_Source\PSoC4/CyLFClk.h ****     void   CySysTimerDelay(uint32 counterNum, cy_sys_timer_delaytype_enum delayType, uint32 delay);
 179:Generated_Source\PSoC4/CyLFClk.h ****     void   CySysTimerDelayUntilMatch(uint32 counterNum, cy_sys_timer_delaytype_enum delayType, uint
 180:Generated_Source\PSoC4/CyLFClk.h ****     void   CySysTimerResetCounters(uint32 countersMask);
 181:Generated_Source\PSoC4/CyLFClk.h ****     void   CySysTimerEnableIsr(uint32 counterNum);
 182:Generated_Source\PSoC4/CyLFClk.h ****     void   CySysTimerDisableIsr(uint32 counterNum);
 183:Generated_Source\PSoC4/CyLFClk.h ****     void   CySysTimerIsr(void);
 184:Generated_Source\PSoC4/CyLFClk.h ****     /** @} deepsleepwdt */
 185:Generated_Source\PSoC4/CyLFClk.h **** #endif /* (CY_IP_SRSSLT && CY_IP_WCO && CY_IP_WCO_WDT_EN) */
 186:Generated_Source\PSoC4/CyLFClk.h **** 
 187:Generated_Source\PSoC4/CyLFClk.h **** 
 188:Generated_Source\PSoC4/CyLFClk.h **** /*******************************************************************************
 189:Generated_Source\PSoC4/CyLFClk.h **** * API Constants
 190:Generated_Source\PSoC4/CyLFClk.h **** *******************************************************************************/
 191:Generated_Source\PSoC4/CyLFClk.h **** #define CY_SYS_UINT16_MAX_VAL    (0xFFFFu)
 192:Generated_Source\PSoC4/CyLFClk.h **** 
 193:Generated_Source\PSoC4/CyLFClk.h **** 
 194:Generated_Source\PSoC4/CyLFClk.h **** /*******************************************************************************
 195:Generated_Source\PSoC4/CyLFClk.h **** * Clock API Constants
 196:Generated_Source\PSoC4/CyLFClk.h **** *******************************************************************************/
 197:Generated_Source\PSoC4/CyLFClk.h **** 
 198:Generated_Source\PSoC4/CyLFClk.h **** /* CySysClkIloStart()/CySysClkIloStop() - implementation definitions */
 199:Generated_Source\PSoC4/CyLFClk.h **** #define CY_SYS_CLK_ILO_CONFIG_ENABLE                    ((uint32)(( uint32 )0x01u << 31u))
 200:Generated_Source\PSoC4/CyLFClk.h **** #define CY_SYS_CLK_DFT_SELECT_DEFAULT_MASK              ((uint32)(( uint32 )0x0fu << 8u ))
 201:Generated_Source\PSoC4/CyLFClk.h **** 
 202:Generated_Source\PSoC4/CyLFClk.h **** /* CySysClkIloCompensate() - one ILO clock in uS multiplied on thousand */
 203:Generated_Source\PSoC4/CyLFClk.h **** #if (CY_IP_SRSSV2)
 204:Generated_Source\PSoC4/CyLFClk.h ****     #define CY_SYS_CLK_ILO_PERIOD_PPH                   ((uint32) (0x0C35u))
 205:Generated_Source\PSoC4/CyLFClk.h **** #else
 206:Generated_Source\PSoC4/CyLFClk.h ****     #define CY_SYS_CLK_ILO_PERIOD_PPH                   ((uint32) (0x09C4u))
 207:Generated_Source\PSoC4/CyLFClk.h **** #endif /* (CY_IP_SRSSV2) */
 208:Generated_Source\PSoC4/CyLFClk.h **** 
 209:Generated_Source\PSoC4/CyLFClk.h **** /* CySysClkIloCompensate() - implementation definitions */
ARM GAS  C:\Users\AFDHAL~1\AppData\Local\Temp\cc29CzqQ.s 			page 71


 210:Generated_Source\PSoC4/CyLFClk.h **** #define CY_SYS_CLK_ILO_CALIBR_COMPLETE_MASK             ((uint32)(( uint32 )0x01u << 31u))
 211:Generated_Source\PSoC4/CyLFClk.h **** #define CY_SYS_CLK_ILO_DFT_LSB_MASK                     ((uint32)(0x00000FFFu))
 212:Generated_Source\PSoC4/CyLFClk.h **** #define CY_SYS_CLK_TRIM_OR_COMP_STARTED                 (1u)
 213:Generated_Source\PSoC4/CyLFClk.h **** #define CY_SYS_CLK_TRIM_OR_COMP_FINISHED                (0u)
 214:Generated_Source\PSoC4/CyLFClk.h **** #define CY_SYS_CLK_COEF_PHUNDRED                        ((uint32) (0x64u))
 215:Generated_Source\PSoC4/CyLFClk.h **** #define CY_SYS_CLK_HALF_OF_CLOCK                        ((uint32) ((uint32) CY_SYS_CLK_ILO_PERIOD_P
 216:Generated_Source\PSoC4/CyLFClk.h **** 
 217:Generated_Source\PSoC4/CyLFClk.h **** /* CySysClkIloCompensate() - maximum value of desiredDelay argument */
 218:Generated_Source\PSoC4/CyLFClk.h **** #if (CY_IP_SRSSV2)
 219:Generated_Source\PSoC4/CyLFClk.h ****     #define CY_SYS_CLK_MAX_DELAY_US                     ((uint32) (0xEE6B2800u))
 220:Generated_Source\PSoC4/CyLFClk.h ****     #define CY_SYS_CLK_ILO_PERIOD                       ((uint32) (0x1Fu))
 221:Generated_Source\PSoC4/CyLFClk.h ****     #define CY_SYS_CLK_ILO_FREQ_2MSB                    ((uint32) 5u)
 222:Generated_Source\PSoC4/CyLFClk.h **** #else
 223:Generated_Source\PSoC4/CyLFClk.h ****     #define CY_SYS_CLK_MAX_DELAY_US                     ((uint32) (0x1E8480u))
 224:Generated_Source\PSoC4/CyLFClk.h ****     #define CY_SYS_CLK_ILO_FREQ_2MSB                    ((uint32) (0x28u ))
 225:Generated_Source\PSoC4/CyLFClk.h **** 
 226:Generated_Source\PSoC4/CyLFClk.h ****     /**********************************************************************************
 227:Generated_Source\PSoC4/CyLFClk.h ****     * CySysClkIloCompensate() - value to walk over oversamling in calculations with 
 228:Generated_Source\PSoC4/CyLFClk.h ****     * srsslite. The oversample can be obtained when ilo frequency in equal 80 KHz and
 229:Generated_Source\PSoC4/CyLFClk.h ****     * desired clocks are 80 000 clocks.
 230:Generated_Source\PSoC4/CyLFClk.h ****     **********************************************************************************/
 231:Generated_Source\PSoC4/CyLFClk.h ****     #define CY_SYS_CLK_MAX_LITE_NUMBER                     ((uint32) 53600u)
 232:Generated_Source\PSoC4/CyLFClk.h **** #endif /* (CY_IP_SRSSV2) */
 233:Generated_Source\PSoC4/CyLFClk.h **** 
 234:Generated_Source\PSoC4/CyLFClk.h **** #define CY_SYS_CLK_ILO_FREQ_3LSB                       ((uint32) (0x3E8u))
 235:Generated_Source\PSoC4/CyLFClk.h **** #define CY_SYS_CLK_DELAY_COUNTS_LIMIT                  ((uint32) (0xD160u))
 236:Generated_Source\PSoC4/CyLFClk.h **** #define CY_SYS_CLK_MIN_DELAY_US                        ((uint32) (0x64u))
 237:Generated_Source\PSoC4/CyLFClk.h **** 
 238:Generated_Source\PSoC4/CyLFClk.h **** /* CySysClkSetLfclkSource() - parameter definitions */
 239:Generated_Source\PSoC4/CyLFClk.h **** #if (CY_IP_SRSSV2 && CY_IP_WCO)
 240:Generated_Source\PSoC4/CyLFClk.h **** 
 241:Generated_Source\PSoC4/CyLFClk.h ****     /** Internal Low Frequency (32 kHz) Oscillator (ILO) */
 242:Generated_Source\PSoC4/CyLFClk.h ****     #define CY_SYS_CLK_LFCLK_SRC_ILO                    (0u)
 243:Generated_Source\PSoC4/CyLFClk.h **** 
 244:Generated_Source\PSoC4/CyLFClk.h ****     /** Low Frequency Watch Crystal Oscillator (WCO) */
 245:Generated_Source\PSoC4/CyLFClk.h ****     #define CY_SYS_CLK_LFCLK_SRC_WCO                    ((uint32)(( uint32 )0x01u << 30u))
 246:Generated_Source\PSoC4/CyLFClk.h **** #endif /* (CY_IP_SRSSV2 && CY_IP_WCO) */
 247:Generated_Source\PSoC4/CyLFClk.h **** 
 248:Generated_Source\PSoC4/CyLFClk.h **** 
 249:Generated_Source\PSoC4/CyLFClk.h **** #if (CY_IP_WCO)
 250:Generated_Source\PSoC4/CyLFClk.h **** 
 251:Generated_Source\PSoC4/CyLFClk.h ****     /* CySysClkSetLfclkSource() - implementation definitions */
 252:Generated_Source\PSoC4/CyLFClk.h ****     #define CY_SYS_CLK_LFCLK_SEL_MASK                   ((uint32)(( uint32 )0x03u << 30u))
 253:Generated_Source\PSoC4/CyLFClk.h **** #endif /* (CY_IP_WCO) */
 254:Generated_Source\PSoC4/CyLFClk.h **** 
 255:Generated_Source\PSoC4/CyLFClk.h **** /* CySysClkSetTimerSource() - implementation definitions */
 256:Generated_Source\PSoC4/CyLFClk.h **** #if (CY_IP_SRSSLT && CY_IP_WCO && CY_IP_WCO_WDT_EN)
 257:Generated_Source\PSoC4/CyLFClk.h ****     #define CY_SYS_CLK_TIMER_SEL_MASK                   ((uint32)(( uint32 )0x03u << 30u))
 258:Generated_Source\PSoC4/CyLFClk.h **** #endif /* (CY_IP_SRSSLT && CY_IP_WCO && CY_IP_WCO_WDT_EN) */
 259:Generated_Source\PSoC4/CyLFClk.h **** 
 260:Generated_Source\PSoC4/CyLFClk.h **** /* CySysClkSetTimerSource() - parameter definitions */
 261:Generated_Source\PSoC4/CyLFClk.h **** #if (CY_IP_SRSSLT && CY_IP_WCO && CY_IP_WCO_WDT_EN)
 262:Generated_Source\PSoC4/CyLFClk.h **** 
 263:Generated_Source\PSoC4/CyLFClk.h ****     /** Internal Low Frequency (32 kHz) Oscillator (ILO) */
 264:Generated_Source\PSoC4/CyLFClk.h ****     #define CY_SYS_CLK_TIMER_SRC_ILO                (0u)
 265:Generated_Source\PSoC4/CyLFClk.h **** 
 266:Generated_Source\PSoC4/CyLFClk.h ****     /** Low Frequency Watch Crystal Oscillator (WCO) */
ARM GAS  C:\Users\AFDHAL~1\AppData\Local\Temp\cc29CzqQ.s 			page 72


 267:Generated_Source\PSoC4/CyLFClk.h ****     #define CY_SYS_CLK_TIMER_SRC_WCO                ((uint32)(( uint32 )0x01u << 30u))
 268:Generated_Source\PSoC4/CyLFClk.h **** #endif /* (CY_IP_SRSSLT && CY_IP_WCO && CY_IP_WCO_WDT_EN) */
 269:Generated_Source\PSoC4/CyLFClk.h **** 
 270:Generated_Source\PSoC4/CyLFClk.h **** /* CySysClkWcoClockOutSelect() - parameter definitions */
 271:Generated_Source\PSoC4/CyLFClk.h **** #if (CY_IP_WCO)
 272:Generated_Source\PSoC4/CyLFClk.h **** 
 273:Generated_Source\PSoC4/CyLFClk.h ****     /** Selects External crystal as WCOs clock source */
 274:Generated_Source\PSoC4/CyLFClk.h ****     #define CY_SYS_CLK_WCO_SEL_CRYSTAL                  (1u)
 275:Generated_Source\PSoC4/CyLFClk.h **** 
 276:Generated_Source\PSoC4/CyLFClk.h ****     /** Selects External clock input on wco_in pin as WCOs clock source */
 277:Generated_Source\PSoC4/CyLFClk.h ****     #define CY_SYS_CLK_WCO_SEL_PIN                      (0u)
 278:Generated_Source\PSoC4/CyLFClk.h **** #endif /* (CY_IP_WCO) */
 279:Generated_Source\PSoC4/CyLFClk.h **** 
 280:Generated_Source\PSoC4/CyLFClk.h **** /* CySysClkWcoClockOutSelect() - implementation definitions */
 281:Generated_Source\PSoC4/CyLFClk.h **** #if (CY_IP_WCO)
 282:Generated_Source\PSoC4/CyLFClk.h ****     #define CY_SYS_CLK_WCO_SELECT_PIN_MASK              ((uint32)(( uint32 )0x01u << 2u))
 283:Generated_Source\PSoC4/CyLFClk.h ****     #define CY_SYS_CLK_WCO_SELECT_PIN_OFFSET            ((uint32) 0x02u)
 284:Generated_Source\PSoC4/CyLFClk.h **** #endif /* (CY_IP_WCO) */
 285:Generated_Source\PSoC4/CyLFClk.h **** 
 286:Generated_Source\PSoC4/CyLFClk.h **** /* CySysClkIloRestoreFactoryTrim() - implementation definitions */
 287:Generated_Source\PSoC4/CyLFClk.h **** #if (CY_IP_SRSSV2 && CY_IP_WCO && (!CY_IP_CPUSS))
 288:Generated_Source\PSoC4/CyLFClk.h ****     #define CY_SYS_CLK_ILO_TRIM_DEFAULT_VALUE           ((uint8 )(0xF0u))
 289:Generated_Source\PSoC4/CyLFClk.h ****     #define CY_SYS_CLK_ILO_TRIM_DEFAULT_MASK            ((uint32)((uint32)0x01u << 3u))
 290:Generated_Source\PSoC4/CyLFClk.h ****     #define CY_SYS_CLK_ILO_TRIM_MASK                    ((uint32)(0x0Fu))
 291:Generated_Source\PSoC4/CyLFClk.h **** #endif /* (CY_IP_SRSSV2 && CY_IP_WCO && (!CY_IP_CPUSS)) */
 292:Generated_Source\PSoC4/CyLFClk.h **** 
 293:Generated_Source\PSoC4/CyLFClk.h **** /* CySysIloTrim() - parameter definitions and macros*/
 294:Generated_Source\PSoC4/CyLFClk.h **** #if (CY_IP_SRSSV2 && CY_IP_WCO && (!CY_IP_CPUSS))
 295:Generated_Source\PSoC4/CyLFClk.h ****     #define CY_SYS_CLK_BLOCKING                         (0u)
 296:Generated_Source\PSoC4/CyLFClk.h ****     #define CY_SYS_CLK_NON_BLOCKING                     (1u)
 297:Generated_Source\PSoC4/CyLFClk.h ****     #define CY_SYS_CLK_PERTHOUSAND                      ((uint32) 0x000003E8u )
 298:Generated_Source\PSoC4/CyLFClk.h ****     #define CY_SYS_CLK_ABS_MACRO(x)                     ((0 > (x)) ? (-(x)) : (x))
 299:Generated_Source\PSoC4/CyLFClk.h ****     #define CY_SYS_CLK_ERROR_RANGE                      ((uint32) 0x38u)
 300:Generated_Source\PSoC4/CyLFClk.h ****     #define CY_SYS_CLK_TIMEOUT                          ((uint8 ) 0x05u)
 301:Generated_Source\PSoC4/CyLFClk.h **** 
 302:Generated_Source\PSoC4/CyLFClk.h ****     /* ILO error step is 7,37 % error range */
 303:Generated_Source\PSoC4/CyLFClk.h ****     #define CY_SYS_CLK_ERROR_STEP                       (( int32) 0x02E1u)
 304:Generated_Source\PSoC4/CyLFClk.h ****     #define CY_SYS_CLK_ERROR_COEF                       ((uint32) 0x0Au)
 305:Generated_Source\PSoC4/CyLFClk.h **** #endif /* (CY_IP_SRSSV2 && CY_IP_WCO && (!CY_IP_CPUSS)) */
 306:Generated_Source\PSoC4/CyLFClk.h **** 
 307:Generated_Source\PSoC4/CyLFClk.h **** #if (CY_IP_WCO)
 308:Generated_Source\PSoC4/CyLFClk.h **** 
 309:Generated_Source\PSoC4/CyLFClk.h ****     /* WCO Configuration Register */
 310:Generated_Source\PSoC4/CyLFClk.h ****     #define CY_SYS_CLK_WCO_CONFIG_LPM_EN                (( uint32 )(( uint32 )0x01u <<  0u))
 311:Generated_Source\PSoC4/CyLFClk.h ****     #define CY_SYS_CLK_WCO_CONFIG_LPM_AUTO              (( uint32 )(( uint32 )0x01u <<  1u))
 312:Generated_Source\PSoC4/CyLFClk.h ****     #define CY_SYS_CLK_WCO_CONFIG_LPM_ENABLE            (( uint32 )(( uint32 )0x01u << 31u))
 313:Generated_Source\PSoC4/CyLFClk.h **** 
 314:Generated_Source\PSoC4/CyLFClk.h ****     /* WCO Status Register */
 315:Generated_Source\PSoC4/CyLFClk.h ****     #define CY_SYS_CLK_WCO_STATUS_OUT_BLNK_A            (( uint32 )(( uint32 )0x01u <<  0u))
 316:Generated_Source\PSoC4/CyLFClk.h **** 
 317:Generated_Source\PSoC4/CyLFClk.h ****     /* WCO Trim Register */
 318:Generated_Source\PSoC4/CyLFClk.h ****     #define CY_SYS_CLK_WCO_TRIM_XGM_MASK                (( uint32 ) 0x07u)
 319:Generated_Source\PSoC4/CyLFClk.h ****     #define CY_SYS_CLK_WCO_TRIM_XGM_SHIFT               (( uint32 ) 0x00u)
 320:Generated_Source\PSoC4/CyLFClk.h **** 
 321:Generated_Source\PSoC4/CyLFClk.h ****     #define CY_SYS_CLK_WCO_TRIM_XGM_3370NA              (( uint32 ) 0x00u)
 322:Generated_Source\PSoC4/CyLFClk.h ****     #define CY_SYS_CLK_WCO_TRIM_XGM_2620NA              (( uint32 ) 0x01u)
 323:Generated_Source\PSoC4/CyLFClk.h ****     #define CY_SYS_CLK_WCO_TRIM_XGM_2250NA              (( uint32 ) 0x02u)
ARM GAS  C:\Users\AFDHAL~1\AppData\Local\Temp\cc29CzqQ.s 			page 73


 324:Generated_Source\PSoC4/CyLFClk.h ****     #define CY_SYS_CLK_WCO_TRIM_XGM_1500NA              (( uint32 ) 0x03u)
 325:Generated_Source\PSoC4/CyLFClk.h ****     #define CY_SYS_CLK_WCO_TRIM_XGM_1870NA              (( uint32 ) 0x04u)
 326:Generated_Source\PSoC4/CyLFClk.h ****     #define CY_SYS_CLK_WCO_TRIM_XGM_1120NA              (( uint32 ) 0x05u)
 327:Generated_Source\PSoC4/CyLFClk.h ****     #define CY_SYS_CLK_WCO_TRIM_XGM_750NA               (( uint32 ) 0x06u)
 328:Generated_Source\PSoC4/CyLFClk.h ****     #define CY_SYS_CLK_WCO_TRIM_XGM_0NA                 (( uint32 ) 0x07u)
 329:Generated_Source\PSoC4/CyLFClk.h **** 
 330:Generated_Source\PSoC4/CyLFClk.h ****     #define CY_SYS_CLK_WCO_TRIM_GM_MASK                 (( uint32 )(( uint32 )0x03u << 4u))
 331:Generated_Source\PSoC4/CyLFClk.h ****     #define CY_SYS_CLK_WCO_TRIM_GM_SHIFT                (( uint32 ) 0x04u)
 332:Generated_Source\PSoC4/CyLFClk.h ****     #define CY_SYS_CLK_WCO_TRIM_GM_HPM                  (( uint32 ) 0x01u)
 333:Generated_Source\PSoC4/CyLFClk.h ****     #define CY_SYS_CLK_WCO_TRIM_GM_LPM                  (( uint32 ) 0x02u)
 334:Generated_Source\PSoC4/CyLFClk.h **** #endif  /* (CY_IP_WCO) */
 335:Generated_Source\PSoC4/CyLFClk.h **** 
 336:Generated_Source\PSoC4/CyLFClk.h **** 
 337:Generated_Source\PSoC4/CyLFClk.h **** /*******************************************************************************
 338:Generated_Source\PSoC4/CyLFClk.h **** * WDT API Constants
 339:Generated_Source\PSoC4/CyLFClk.h **** *******************************************************************************/
 340:Generated_Source\PSoC4/CyLFClk.h **** #if(CY_IP_SRSSV2)
 341:Generated_Source\PSoC4/CyLFClk.h **** 
 342:Generated_Source\PSoC4/CyLFClk.h ****     #define CY_SYS_WDT_MODE_NONE                (0u)
 343:Generated_Source\PSoC4/CyLFClk.h ****     #define CY_SYS_WDT_MODE_INT                 (1u)
 344:Generated_Source\PSoC4/CyLFClk.h ****     #define CY_SYS_WDT_MODE_RESET               (2u)
 345:Generated_Source\PSoC4/CyLFClk.h ****     #define CY_SYS_WDT_MODE_INT_RESET           (3u)
 346:Generated_Source\PSoC4/CyLFClk.h **** 
 347:Generated_Source\PSoC4/CyLFClk.h ****     #define CY_SYS_WDT_COUNTER0_MASK            ((uint32)((uint32)0x01u))           /**< Counter 0 
 348:Generated_Source\PSoC4/CyLFClk.h ****     #define CY_SYS_WDT_COUNTER1_MASK            ((uint32)((uint32)0x01u << 8u))     /**< Counter 1 
 349:Generated_Source\PSoC4/CyLFClk.h ****     #define CY_SYS_WDT_COUNTER2_MASK            ((uint32)((uint32)0x01u << 16u))    /**< Counter 2 
 350:Generated_Source\PSoC4/CyLFClk.h **** 
 351:Generated_Source\PSoC4/CyLFClk.h ****     #define CY_SYS_WDT_CASCADE_NONE             ((uint32)0x00u)             /**< Neither */
 352:Generated_Source\PSoC4/CyLFClk.h ****     #define CY_SYS_WDT_CASCADE_01               ((uint32)0x01u << 3u)       /**< Cascade 01 */
 353:Generated_Source\PSoC4/CyLFClk.h ****     #define CY_SYS_WDT_CASCADE_12               ((uint32)0x01u << 11u)      /**< Cascade 12 */
 354:Generated_Source\PSoC4/CyLFClk.h **** 
 355:Generated_Source\PSoC4/CyLFClk.h ****     #define CY_SYS_WDT_COUNTER0_INT             ((uint32)0x01u << 2u)
 356:Generated_Source\PSoC4/CyLFClk.h ****     #define CY_SYS_WDT_COUNTER1_INT             ((uint32)0x01u << 10u)
 357:Generated_Source\PSoC4/CyLFClk.h ****     #define CY_SYS_WDT_COUNTER2_INT             ((uint32)0x01u << 18u)
 358:Generated_Source\PSoC4/CyLFClk.h **** 
 359:Generated_Source\PSoC4/CyLFClk.h ****     #define CY_SYS_WDT_COUNTER0_RESET           ((uint32)0x01u << 3u)       /**< Counter 0 */
 360:Generated_Source\PSoC4/CyLFClk.h ****     #define CY_SYS_WDT_COUNTER1_RESET           ((uint32)0x01u << 11u)      /**< Counter 1 */
 361:Generated_Source\PSoC4/CyLFClk.h ****     #define CY_SYS_WDT_COUNTER2_RESET           ((uint32)0x01u << 19u)      /**< Counter 2 */
 362:Generated_Source\PSoC4/CyLFClk.h **** 
 363:Generated_Source\PSoC4/CyLFClk.h ****     #define CY_SYS_WDT_COUNTERS_RESET           (CY_SYS_WDT_COUNTER0_RESET |\
 364:Generated_Source\PSoC4/CyLFClk.h ****                                                  CY_SYS_WDT_COUNTER1_RESET |\
 365:Generated_Source\PSoC4/CyLFClk.h ****                                                  CY_SYS_WDT_COUNTER2_RESET)
 366:Generated_Source\PSoC4/CyLFClk.h **** 
 367:Generated_Source\PSoC4/CyLFClk.h ****     #define CY_SYS_WDT_COUNTER0                 (0x00u)
 368:Generated_Source\PSoC4/CyLFClk.h ****     #define CY_SYS_WDT_COUNTER1                 (0x01u)
 369:Generated_Source\PSoC4/CyLFClk.h ****     #define CY_SYS_WDT_COUNTER2                 (0x02u)
 370:Generated_Source\PSoC4/CyLFClk.h **** 
 371:Generated_Source\PSoC4/CyLFClk.h ****     #define CY_SYS_WDT_COUNTER0_OFFSET          (0x00u)
 372:Generated_Source\PSoC4/CyLFClk.h ****     #define CY_SYS_WDT_COUNTER1_OFFSET          (0x02u)
 373:Generated_Source\PSoC4/CyLFClk.h ****     #define CY_SYS_WDT_COUNTER2_OFFSET          (0x04u)
 374:Generated_Source\PSoC4/CyLFClk.h **** 
 375:Generated_Source\PSoC4/CyLFClk.h ****     #define CY_SYS_WDT_MODE_MASK                ((uint32)(0x03u))
 376:Generated_Source\PSoC4/CyLFClk.h **** 
 377:Generated_Source\PSoC4/CyLFClk.h ****     #define CY_SYS_WDT_CONFIG_BITS2_MASK        (uint32)(0x1Fu)
 378:Generated_Source\PSoC4/CyLFClk.h ****     #define CY_SYS_WDT_CONFIG_BITS2_POS         (uint32)(24u)
 379:Generated_Source\PSoC4/CyLFClk.h ****     #define CY_SYS_WDT_LOWER_16BITS_MASK        (uint32)(0x0000FFFFu)
 380:Generated_Source\PSoC4/CyLFClk.h ****     #define CY_SYS_WDT_HIGHER_16BITS_MASK       (uint32)(0xFFFF0000u)
ARM GAS  C:\Users\AFDHAL~1\AppData\Local\Temp\cc29CzqQ.s 			page 74


 381:Generated_Source\PSoC4/CyLFClk.h ****     #define CY_SYS_WDT_COUNTERS_MAX             (0x03u)
 382:Generated_Source\PSoC4/CyLFClk.h ****     #define CY_SYS_WDT_CNT_SHIFT                (0x08u)
 383:Generated_Source\PSoC4/CyLFClk.h ****     #define CY_SYS_WDT_CNT_MATCH_CLR_SHIFT      (0x02u)
 384:Generated_Source\PSoC4/CyLFClk.h ****     #define CY_SYS_WDT_CNT_STTS_SHIFT           (0x01u)
 385:Generated_Source\PSoC4/CyLFClk.h ****     #define CY_SYS_WDT_CNT_MATCH_SHIFT          (0x10u)
 386:Generated_Source\PSoC4/CyLFClk.h **** 
 387:Generated_Source\PSoC4/CyLFClk.h ****     #define CY_SYS_WDT_CLK_LOCK_BITS_MASK       ((uint32)0x03u << 14u)
 388:Generated_Source\PSoC4/CyLFClk.h ****     #define CY_SYS_WDT_CLK_LOCK_BIT0            ((uint32)0x01u << 14u)
 389:Generated_Source\PSoC4/CyLFClk.h ****     #define CY_SYS_WDT_CLK_LOCK_BIT1            ((uint32)0x01u << 15u)
 390:Generated_Source\PSoC4/CyLFClk.h **** 
 391:Generated_Source\PSoC4/CyLFClk.h ****     #define CY_WDT_NUM_OF_WDT                   (3u)
 392:Generated_Source\PSoC4/CyLFClk.h ****     #define CY_WDT_NUM_OF_CALLBACKS             (3u)
 393:Generated_Source\PSoC4/CyLFClk.h **** 
 394:Generated_Source\PSoC4/CyLFClk.h ****     #else
 395:Generated_Source\PSoC4/CyLFClk.h ****         #define CY_WDT_NUM_OF_WDT               (1u)
 396:Generated_Source\PSoC4/CyLFClk.h ****         #define CY_WDT_NUM_OF_CALLBACKS         (3u)
 397:Generated_Source\PSoC4/CyLFClk.h ****         #define CY_SYS_WDT_KEY                  ((uint32)(0xACED8865u))
 398:Generated_Source\PSoC4/CyLFClk.h ****         #define CY_SYS_WDT_MATCH_MASK           ((uint32)(0x0000FFFFu))
 399:Generated_Source\PSoC4/CyLFClk.h ****         #define CY_SYS_WDT_IGNORE_BITS_MASK     ((uint32)(0x000F0000u))
 400:Generated_Source\PSoC4/CyLFClk.h ****         #define CY_SYS_WDT_IGNORE_BITS_SHIFT    ((uint32)(16u))
 401:Generated_Source\PSoC4/CyLFClk.h ****         #define CY_SYS_WDT_LOWER_BIT_MASK       ((uint32)(0x00000001u))
 402:Generated_Source\PSoC4/CyLFClk.h **** 
 403:Generated_Source\PSoC4/CyLFClk.h ****         #define CY_SYS_WDT_COUNTER0             (0x00u)
 404:Generated_Source\PSoC4/CyLFClk.h **** 
 405:Generated_Source\PSoC4/CyLFClk.h **** #endif /* (CY_IP_SRSSV2) */
 406:Generated_Source\PSoC4/CyLFClk.h **** 
 407:Generated_Source\PSoC4/CyLFClk.h **** #if (CY_IP_SRSSV2 && CY_IP_WCO)
 408:Generated_Source\PSoC4/CyLFClk.h ****     #define CY_SYS_WDT_1LFCLK_ILO_DELAY_US    ((uint16)( 67u))
 409:Generated_Source\PSoC4/CyLFClk.h ****     #define CY_SYS_WDT_3LFCLK_ILO_DELAY_US    ((uint16)(201u))
 410:Generated_Source\PSoC4/CyLFClk.h ****     #define CY_SYS_WDT_1LFCLK_WCO_DELAY_US    ((uint16)( 31u))
 411:Generated_Source\PSoC4/CyLFClk.h ****     #define CY_SYS_WDT_3LFCLK_WCO_DELAY_US    ((uint16)( 93u))
 412:Generated_Source\PSoC4/CyLFClk.h **** 
 413:Generated_Source\PSoC4/CyLFClk.h ****     #define CY_SYS_WDT_1LFCLK_DELAY_US      \
 414:Generated_Source\PSoC4/CyLFClk.h ****         ((CY_SYS_CLK_LFCLK_SRC_ILO == (CY_SYS_WDT_CONFIG_REG & CY_SYS_CLK_LFCLK_SEL_MASK)) ? \
 415:Generated_Source\PSoC4/CyLFClk.h ****                                             (CY_SYS_WDT_1LFCLK_ILO_DELAY_US) : \
 416:Generated_Source\PSoC4/CyLFClk.h ****                                             (CY_SYS_WDT_1LFCLK_WCO_DELAY_US))
 417:Generated_Source\PSoC4/CyLFClk.h **** 
 418:Generated_Source\PSoC4/CyLFClk.h ****     #define CY_SYS_WDT_3LFCLK_DELAY_US      \
 419:Generated_Source\PSoC4/CyLFClk.h ****         ((CY_SYS_CLK_LFCLK_SRC_ILO == (CY_SYS_WDT_CONFIG_REG & CY_SYS_CLK_LFCLK_SEL_MASK)) ? \
 420:Generated_Source\PSoC4/CyLFClk.h ****                                             (CY_SYS_WDT_3LFCLK_ILO_DELAY_US) : \
 421:Generated_Source\PSoC4/CyLFClk.h ****                                             (CY_SYS_WDT_3LFCLK_WCO_DELAY_US))
 422:Generated_Source\PSoC4/CyLFClk.h ****     #else
 423:Generated_Source\PSoC4/CyLFClk.h ****         #define CY_SYS_WDT_1LFCLK_DELAY_US      ((uint16)  (67u))
 424:Generated_Source\PSoC4/CyLFClk.h ****         #define CY_SYS_WDT_3LFCLK_DELAY_US      ((uint16) (201u))
 425:Generated_Source\PSoC4/CyLFClk.h **** #endif /* (CY_IP_SRSSV2 && CY_IP_WCO) */
 426:Generated_Source\PSoC4/CyLFClk.h **** 
 427:Generated_Source\PSoC4/CyLFClk.h **** #if (CY_IP_SRSSLT && CY_IP_WCO && CY_IP_WCO_WDT_EN)
 428:Generated_Source\PSoC4/CyLFClk.h **** 
 429:Generated_Source\PSoC4/CyLFClk.h ****     #define CY_SYS_TIMER_MODE_NONE              (0u)
 430:Generated_Source\PSoC4/CyLFClk.h ****     #define CY_SYS_TIMER_MODE_INT               (1u)
 431:Generated_Source\PSoC4/CyLFClk.h **** 
 432:Generated_Source\PSoC4/CyLFClk.h ****     #define CY_SYS_TIMER0_MASK                  ((uint32)((uint32)0x01u))           /**< Counter 0 
 433:Generated_Source\PSoC4/CyLFClk.h ****     #define CY_SYS_TIMER1_MASK                  ((uint32)((uint32)0x01u << 8u))     /**< Counter 1 
 434:Generated_Source\PSoC4/CyLFClk.h ****     #define CY_SYS_TIMER2_MASK                  ((uint32)((uint32)0x01u << 16u))    /**< Counter 2 
 435:Generated_Source\PSoC4/CyLFClk.h **** 
 436:Generated_Source\PSoC4/CyLFClk.h ****     #define CY_SYS_TIMER0_RESET                 ((uint32)0x01u << 3u)       /**< Counter 0 */
 437:Generated_Source\PSoC4/CyLFClk.h ****     #define CY_SYS_TIMER1_RESET                 ((uint32)0x01u << 11u)      /**< Counter 1 */
ARM GAS  C:\Users\AFDHAL~1\AppData\Local\Temp\cc29CzqQ.s 			page 75


 438:Generated_Source\PSoC4/CyLFClk.h ****     #define CY_SYS_TIMER2_RESET                 ((uint32)0x01u << 19u)      /**< Counter 2 */
 439:Generated_Source\PSoC4/CyLFClk.h **** 
 440:Generated_Source\PSoC4/CyLFClk.h ****     #define CY_SYS_TIMER_RESET                  (CY_SYS_TIMER0_RESET |\
 441:Generated_Source\PSoC4/CyLFClk.h ****                                                  CY_SYS_TIMER1_RESET |\
 442:Generated_Source\PSoC4/CyLFClk.h ****                                                  CY_SYS_TIMER2_RESET)
 443:Generated_Source\PSoC4/CyLFClk.h **** 
 444:Generated_Source\PSoC4/CyLFClk.h ****     #define CY_SYS_TIMER_CASCADE_NONE           ((uint32)0x00u)             /**< Neither */
 445:Generated_Source\PSoC4/CyLFClk.h ****     #define CY_SYS_TIMER_CASCADE_01             ((uint32)0x01u << 3u)       /**< Cascade 01 */
 446:Generated_Source\PSoC4/CyLFClk.h ****     #define CY_SYS_TIMER_CASCADE_12             ((uint32)0x01u << 11u)      /**< Cascade 12 */
 447:Generated_Source\PSoC4/CyLFClk.h **** 
 448:Generated_Source\PSoC4/CyLFClk.h ****     #define CY_SYS_TIMER0_INT                   ((uint32)0x01u << 2u)
 449:Generated_Source\PSoC4/CyLFClk.h ****     #define CY_SYS_TIMER1_INT                   ((uint32)0x01u << 10u)
 450:Generated_Source\PSoC4/CyLFClk.h ****     #define CY_SYS_TIMER2_INT                   ((uint32)0x01u << 18u)
 451:Generated_Source\PSoC4/CyLFClk.h **** 
 452:Generated_Source\PSoC4/CyLFClk.h ****     #define CY_SYS_TIMER0                       (0x00u)
 453:Generated_Source\PSoC4/CyLFClk.h ****     #define CY_SYS_TIMER1                       (0x01u)
 454:Generated_Source\PSoC4/CyLFClk.h ****     #define CY_SYS_TIMER2                       (0x02u)
 455:Generated_Source\PSoC4/CyLFClk.h **** 
 456:Generated_Source\PSoC4/CyLFClk.h ****     #define CY_SYS_TIMER_MODE_MASK              ((uint32)(0x01u))
 457:Generated_Source\PSoC4/CyLFClk.h **** 
 458:Generated_Source\PSoC4/CyLFClk.h ****     #define CY_SYS_TIMER_CONFIG_BITS2_MASK      (uint32)(0x1Fu)
 459:Generated_Source\PSoC4/CyLFClk.h ****     #define CY_SYS_TIMER_CONFIG_BITS2_POS       (uint32)(24u)
 460:Generated_Source\PSoC4/CyLFClk.h ****     #define CY_SYS_TIMER_LOWER_16BITS_MASK      (uint32)(0x0000FFFFu)
 461:Generated_Source\PSoC4/CyLFClk.h ****     #define CY_SYS_TIMER_HIGHER_16BITS_MASK     (uint32)(0xFFFF0000u)
 462:Generated_Source\PSoC4/CyLFClk.h ****     #define CY_SYS_TIMER_COUNTERS_MAX           (0x03u)
 463:Generated_Source\PSoC4/CyLFClk.h ****     #define CY_SYS_TIMER_CNT_SHIFT              (0x08u)
 464:Generated_Source\PSoC4/CyLFClk.h ****     #define CY_SYS_TIMER_CNT_MATCH_CLR_SHIFT    (0x02u)
 465:Generated_Source\PSoC4/CyLFClk.h ****     #define CY_SYS_TIMER_CNT_STTS_SHIFT         (0x01u)
 466:Generated_Source\PSoC4/CyLFClk.h ****     #define CY_SYS_TIMER_CNT_MATCH_SHIFT        (0x10u)
 467:Generated_Source\PSoC4/CyLFClk.h **** 
 468:Generated_Source\PSoC4/CyLFClk.h ****     #define CY_SYS_NUM_OF_TIMERS                (3u)
 469:Generated_Source\PSoC4/CyLFClk.h **** 
 470:Generated_Source\PSoC4/CyLFClk.h ****     #define CY_SYS_SET_NEW_TIMER_SOURCE_ILO     ((uint16)(0x02u))
 471:Generated_Source\PSoC4/CyLFClk.h ****     #define CY_SYS_SET_NEW_TIMER_SOURCE_WCO     ((uint16)(0x01u))
 472:Generated_Source\PSoC4/CyLFClk.h ****     #define CY_SYS_WCO_WDT_CLKEN_RESET_MASK     ((uint32)(0x03u))
 473:Generated_Source\PSoC4/CyLFClk.h **** 
 474:Generated_Source\PSoC4/CyLFClk.h ****     #define CY_SYS_TIMER_1ILO_DELAY_US          ((uint16)( 67u))
 475:Generated_Source\PSoC4/CyLFClk.h ****     #define CY_SYS_TIMER_4ILO_DELAY_US          ((uint16)(268u))
 476:Generated_Source\PSoC4/CyLFClk.h ****     #define CY_SYS_TIMER_3ILO_DELAY_US          ((uint16)(201u))
 477:Generated_Source\PSoC4/CyLFClk.h **** 
 478:Generated_Source\PSoC4/CyLFClk.h ****     #define CY_SYS_TIMER_1WCO_DELAY_US          ((uint16)( 31u))
 479:Generated_Source\PSoC4/CyLFClk.h ****     #define CY_SYS_TIMER_4WCO_DELAY_US          ((uint16)(124u))
 480:Generated_Source\PSoC4/CyLFClk.h ****     #define CY_SYS_TIMER_3WCO_DELAY_US          ((uint16)( 93u))
 481:Generated_Source\PSoC4/CyLFClk.h **** 
 482:Generated_Source\PSoC4/CyLFClk.h ****     #define CY_SYS_1TIMER_DELAY_US      \
 483:Generated_Source\PSoC4/CyLFClk.h ****         ((CY_SYS_CLK_TIMER_SRC_ILO == (CY_SYS_WCO_WDT_CONFIG_REG & CY_SYS_CLK_TIMER_SEL_MASK)) ? \
 484:Generated_Source\PSoC4/CyLFClk.h ****                                             (CY_SYS_TIMER_1ILO_DELAY_US) : \
 485:Generated_Source\PSoC4/CyLFClk.h ****                                             (CY_SYS_TIMER_1WCO_DELAY_US))
 486:Generated_Source\PSoC4/CyLFClk.h **** 
 487:Generated_Source\PSoC4/CyLFClk.h ****     #define CY_SYS_4TIMER_DELAY_US      \
 488:Generated_Source\PSoC4/CyLFClk.h ****         ((CY_SYS_CLK_TIMER_SRC_ILO == (CY_SYS_WCO_WDT_CONFIG_REG & CY_SYS_CLK_TIMER_SEL_MASK)) ? \
 489:Generated_Source\PSoC4/CyLFClk.h ****                                             (CY_SYS_TIMER_4WCO_DELAY_US) : \
 490:Generated_Source\PSoC4/CyLFClk.h ****                                             (CY_SYS_TIMER_4ILO_DELAY_US))
 491:Generated_Source\PSoC4/CyLFClk.h **** 
 492:Generated_Source\PSoC4/CyLFClk.h ****     #define CY_SYS_3TIMER_DELAY_US      \
 493:Generated_Source\PSoC4/CyLFClk.h ****         ((CY_SYS_CLK_TIMER_SRC_ILO == (CY_SYS_WCO_WDT_CONFIG_REG & CY_SYS_CLK_TIMER_SEL_MASK)) ? \
 494:Generated_Source\PSoC4/CyLFClk.h ****                                             (CY_SYS_TIMER_3ILO_DELAY_US) : \
ARM GAS  C:\Users\AFDHAL~1\AppData\Local\Temp\cc29CzqQ.s 			page 76


 495:Generated_Source\PSoC4/CyLFClk.h ****                                             (CY_SYS_TIMER_3WCO_DELAY_US))
 496:Generated_Source\PSoC4/CyLFClk.h **** 
 497:Generated_Source\PSoC4/CyLFClk.h ****     #define CY_SYS_SET_CURRENT_TIMER_SOURCE_BIT      \
 498:Generated_Source\PSoC4/CyLFClk.h ****         ((CY_SYS_CLK_TIMER_SRC_ILO == (CY_SYS_WCO_WDT_CONFIG_REG & CY_SYS_CLK_TIMER_SEL_MASK)) ? \
 499:Generated_Source\PSoC4/CyLFClk.h ****                                             (CY_SYS_SET_NEW_TIMER_SOURCE_ILO) : \
 500:Generated_Source\PSoC4/CyLFClk.h ****                                             (CY_SYS_SET_NEW_TIMER_SOURCE_WCO))
 501:Generated_Source\PSoC4/CyLFClk.h **** 
 502:Generated_Source\PSoC4/CyLFClk.h **** #endif /* (CY_IP_SRSSLT && CY_IP_WCO && CY_IP_WCO_WDT_EN) */
 503:Generated_Source\PSoC4/CyLFClk.h **** 
 504:Generated_Source\PSoC4/CyLFClk.h **** /* CySysClkWcoSetPowerMode() */
 505:Generated_Source\PSoC4/CyLFClk.h **** #define CY_SYS_CLK_WCO_HPM                              (0x0u)     /**< WCO High power mode */
 506:Generated_Source\PSoC4/CyLFClk.h **** 
 507:Generated_Source\PSoC4/CyLFClk.h **** #if(CY_IP_BLESS)
 508:Generated_Source\PSoC4/CyLFClk.h ****     #define CY_SYS_CLK_WCO_LPM                          (0x1u)     /**< WCO Low power mode */
 509:Generated_Source\PSoC4/CyLFClk.h **** #endif /* (CY_IP_BLESS) */
 510:Generated_Source\PSoC4/CyLFClk.h **** 
 511:Generated_Source\PSoC4/CyLFClk.h **** 
 512:Generated_Source\PSoC4/CyLFClk.h **** /*******************************************************************************
 513:Generated_Source\PSoC4/CyLFClk.h **** *       Trim Registers Constants 
 514:Generated_Source\PSoC4/CyLFClk.h **** ********************************************************************************/
 515:Generated_Source\PSoC4/CyLFClk.h **** #define CY_SYS_CLK_SYS_CLK_DEVIDER                  ((uint32)0x0Au)
 516:Generated_Source\PSoC4/CyLFClk.h **** #define CY_SYS_CLK_SEL_ILO_DFT_SOURCE               ((uint32)0x00000100u)
 517:Generated_Source\PSoC4/CyLFClk.h **** #define CY_SYS_CLK_FOURBITS_MAX                     (( int32)0x0f)
 518:Generated_Source\PSoC4/CyLFClk.h **** #define CY_SYS_CLK_HALF_OF_STEP                     (( int32)((uint32) CY_SYS_CLK_ERROR_STEP >> 1u)
 519:Generated_Source\PSoC4/CyLFClk.h **** 
 520:Generated_Source\PSoC4/CyLFClk.h **** #if(CY_IP_SRSSV2)
 521:Generated_Source\PSoC4/CyLFClk.h ****     #define CY_SYS_CLK_ILO_DESIRED_FREQ_HZ          (32000u)
 522:Generated_Source\PSoC4/CyLFClk.h ****     #define CY_SYS_CLK_DFT_SELSIZE                  ((uint32) 0x3F)
 523:Generated_Source\PSoC4/CyLFClk.h **** #else
 524:Generated_Source\PSoC4/CyLFClk.h ****     #define CY_SYS_CLK_ILO_DESIRED_FREQ_HZ          (40000u)
 525:Generated_Source\PSoC4/CyLFClk.h ****     #define CY_SYS_CLK_DFT_SELSIZE                  ((uint32) 0x0F)
 526:Generated_Source\PSoC4/CyLFClk.h **** #endif /* (CY_IP_SRSSV2) */
 527:Generated_Source\PSoC4/CyLFClk.h **** 
 528:Generated_Source\PSoC4/CyLFClk.h **** #define CY_SYS_TST_DDFT_CTRL_REG_DEFAULT_MASK    ((uint32)((CY_SYS_CLK_DFT_SELSIZE << 8u) | (CY_SYS
 529:Generated_Source\PSoC4/CyLFClk.h **** #define CY_SYS_TST_DDFT_SELECT_CLK1              ((uint32) ((uint32) CYDEV_DFT_SELECT_CLK1 << 8u))
 530:Generated_Source\PSoC4/CyLFClk.h **** #define CY_SYS_TST_DDFT_CTRL_REG_SEL2_CLK1       ((uint32) (CY_SYS_TST_DDFT_SELECT_CLK1 | CYDEV_DFT
 531:Generated_Source\PSoC4/CyLFClk.h **** 
 532:Generated_Source\PSoC4/CyLFClk.h **** 
 533:Generated_Source\PSoC4/CyLFClk.h **** /*******************************************************************************
 534:Generated_Source\PSoC4/CyLFClk.h **** *       Trim Registers 
 535:Generated_Source\PSoC4/CyLFClk.h **** ********************************************************************************/
 536:Generated_Source\PSoC4/CyLFClk.h **** /* DFT TST Control Register*/
 537:Generated_Source\PSoC4/CyLFClk.h **** #define CY_SYS_TST_DDFT_CTRL_REG                         (*(reg32*) CYREG_TST_DDFT_CTRL)
 538:Generated_Source\PSoC4/CyLFClk.h **** #define CY_SYS_CNT_CTRL_PTR                              ( (reg32*) CYREG_TST_DDFT_CTRL)
 539:Generated_Source\PSoC4/CyLFClk.h **** 
 540:Generated_Source\PSoC4/CyLFClk.h **** /* DFT TST Counter 1 Register*/
 541:Generated_Source\PSoC4/CyLFClk.h **** #define CY_SYS_CNT_REG1_REG                              (*(reg32*) CYREG_TST_TRIM_CNTR1)
 542:Generated_Source\PSoC4/CyLFClk.h **** #define CY_SYS_CNT_REG1_PTR                              ( (reg32*) CYREG_TST_TRIM_CNTR1)
 543:Generated_Source\PSoC4/CyLFClk.h **** 
 544:Generated_Source\PSoC4/CyLFClk.h **** /* DFT TST Counter 2 Register*/
 545:Generated_Source\PSoC4/CyLFClk.h **** #define CY_SYS_CNT_REG2_REG                              (*(reg32*) CYREG_TST_TRIM_CNTR2)
 546:Generated_Source\PSoC4/CyLFClk.h **** #define CY_SYS_CNT_REG2_PTR                              ( (reg32*) CYREG_TST_TRIM_CNTR2)
 547:Generated_Source\PSoC4/CyLFClk.h **** 
 548:Generated_Source\PSoC4/CyLFClk.h **** /* DFT Muxes Configuration Register*/
 549:Generated_Source\PSoC4/CyLFClk.h **** #define CY_SYS_CLK_DFT_REG                               (*(reg32*) CYREG_CLK_DFT_SELECT)
 550:Generated_Source\PSoC4/CyLFClk.h **** #define CY_SYS_CLK_DFT_PTR                               ( (reg32*) CYREG_CLK_DFT_SELECT)
 551:Generated_Source\PSoC4/CyLFClk.h **** 
ARM GAS  C:\Users\AFDHAL~1\AppData\Local\Temp\cc29CzqQ.s 			page 77


 552:Generated_Source\PSoC4/CyLFClk.h **** /* ILO Configuration Register*/
 553:Generated_Source\PSoC4/CyLFClk.h **** #define CY_SYS_CLK_ILO_CONFIG_REG                        (*(reg32 *) CYREG_CLK_ILO_CONFIG)
 554:Generated_Source\PSoC4/CyLFClk.h **** #define CY_SYS_CLK_ILO_CONFIG_PTR                        ( (reg32 *) CYREG_CLK_ILO_CONFIG)
 555:Generated_Source\PSoC4/CyLFClk.h **** 
 556:Generated_Source\PSoC4/CyLFClk.h **** /* ILO Trim Register*/
 557:Generated_Source\PSoC4/CyLFClk.h **** #if(CY_IP_SRSSV2 && CY_IP_WCO)
 558:Generated_Source\PSoC4/CyLFClk.h ****     #define CY_SYS_CLK_ILO_TRIM_REG                      (*(reg32 *) CYREG_CLK_ILO_TRIM)
 559:Generated_Source\PSoC4/CyLFClk.h ****     #define CY_SYS_CLK_ILO_TRIM_PTR                      ( (reg32 *) CYREG_CLK_ILO_TRIM)
 560:Generated_Source\PSoC4/CyLFClk.h **** #endif  /* (CY_IP_SRSSV2) && CY_IP_WCO*/
 561:Generated_Source\PSoC4/CyLFClk.h **** 
 562:Generated_Source\PSoC4/CyLFClk.h **** #if (CY_IP_WCO)
 563:Generated_Source\PSoC4/CyLFClk.h ****     #if (CY_IP_BLESS)
 564:Generated_Source\PSoC4/CyLFClk.h **** 
 565:Generated_Source\PSoC4/CyLFClk.h ****         /* WCO Status Register */
 566:Generated_Source\PSoC4/CyLFClk.h ****         #define CY_SYS_CLK_WCO_STATUS_REG               (*(reg32 *) CYREG_BLE_BLESS_WCO_STATUS)
 567:Generated_Source\PSoC4/CyLFClk.h ****         #define CY_SYS_CLK_WCO_STATUS_PTR               ( (reg32 *) CYREG_BLE_BLESS_WCO_STATUS)
 568:Generated_Source\PSoC4/CyLFClk.h **** 
 569:Generated_Source\PSoC4/CyLFClk.h ****         /* WCO Configuration Register */
 570:Generated_Source\PSoC4/CyLFClk.h ****         #define CY_SYS_CLK_WCO_CONFIG_REG               (*(reg32 *) CYREG_BLE_BLESS_WCO_CONFIG)
 571:Generated_Source\PSoC4/CyLFClk.h ****         #define CY_SYS_CLK_WCO_CONFIG_PTR               ( (reg32 *) CYREG_BLE_BLESS_WCO_CONFIG)
 572:Generated_Source\PSoC4/CyLFClk.h **** 
 573:Generated_Source\PSoC4/CyLFClk.h ****         /* WCO Trim Register */
 574:Generated_Source\PSoC4/CyLFClk.h ****         #define CY_SYS_CLK_WCO_TRIM_REG                 (*(reg32 *) CYREG_BLE_BLESS_WCO_TRIM)
 575:Generated_Source\PSoC4/CyLFClk.h ****         #define CY_SYS_CLK_WCO_TRIM_PTR                 ( (reg32 *) CYREG_BLE_BLESS_WCO_TRIM)
 576:Generated_Source\PSoC4/CyLFClk.h ****     #else
 577:Generated_Source\PSoC4/CyLFClk.h **** 
 578:Generated_Source\PSoC4/CyLFClk.h ****         /* WCO Status Register */
 579:Generated_Source\PSoC4/CyLFClk.h ****         #define CY_SYS_CLK_WCO_STATUS_REG               (*(reg32 *) CYREG_WCO_STATUS)
 580:Generated_Source\PSoC4/CyLFClk.h ****         #define CY_SYS_CLK_WCO_STATUS_PTR               ( (reg32 *) CYREG_WCO_STATUS)
 581:Generated_Source\PSoC4/CyLFClk.h **** 
 582:Generated_Source\PSoC4/CyLFClk.h ****         /* WCO Configuration Register */
 583:Generated_Source\PSoC4/CyLFClk.h ****         #define CY_SYS_CLK_WCO_CONFIG_REG               (*(reg32 *) CYREG_WCO_CONFIG)
 584:Generated_Source\PSoC4/CyLFClk.h ****         #define CY_SYS_CLK_WCO_CONFIG_PTR               ( (reg32 *) CYREG_WCO_CONFIG)
 585:Generated_Source\PSoC4/CyLFClk.h **** 
 586:Generated_Source\PSoC4/CyLFClk.h ****         /* WCO Trim Register */
 587:Generated_Source\PSoC4/CyLFClk.h ****         #define CY_SYS_CLK_WCO_TRIM_REG                 (*(reg32 *) CYREG_WCO_TRIM)
 588:Generated_Source\PSoC4/CyLFClk.h ****         #define CY_SYS_CLK_WCO_TRIM_PTR                 ( (reg32 *) CYREG_WCO_TRIM)
 589:Generated_Source\PSoC4/CyLFClk.h ****     #endif /* (CY_IP_BLESS) */
 590:Generated_Source\PSoC4/CyLFClk.h **** #endif  /* (CY_IP_WCO) */
 591:Generated_Source\PSoC4/CyLFClk.h **** 
 592:Generated_Source\PSoC4/CyLFClk.h **** 
 593:Generated_Source\PSoC4/CyLFClk.h **** /*******************************************************************************
 594:Generated_Source\PSoC4/CyLFClk.h **** * WDT API Registers
 595:Generated_Source\PSoC4/CyLFClk.h **** *******************************************************************************/
 596:Generated_Source\PSoC4/CyLFClk.h **** #if(CY_IP_SRSSV2)
 597:Generated_Source\PSoC4/CyLFClk.h ****     #define CY_SYS_WDT_CTRLOW_REG               (*(reg32 *) CYREG_WDT_CTRLOW)
 598:Generated_Source\PSoC4/CyLFClk.h ****     #define CY_SYS_WDT_CTRLOW_PTR               ( (reg32 *) CYREG_WDT_CTRLOW)
 599:Generated_Source\PSoC4/CyLFClk.h **** 
 600:Generated_Source\PSoC4/CyLFClk.h ****     #define CY_SYS_WDT_CTRHIGH_REG              (*(reg32 *) CYREG_WDT_CTRHIGH)
 601:Generated_Source\PSoC4/CyLFClk.h ****     #define CY_SYS_WDT_CTRHIGH_PTR              ( (reg32 *) CYREG_WDT_CTRHIGH)
 602:Generated_Source\PSoC4/CyLFClk.h **** 
 603:Generated_Source\PSoC4/CyLFClk.h ****     #define CY_SYS_WDT_MATCH_REG                (*(reg32 *) CYREG_WDT_MATCH)
 604:Generated_Source\PSoC4/CyLFClk.h ****     #define CY_SYS_WDT_MATCH_PTR                ( (reg32 *) CYREG_WDT_MATCH)
 605:Generated_Source\PSoC4/CyLFClk.h **** 
 606:Generated_Source\PSoC4/CyLFClk.h ****     #define CY_SYS_WDT_CONFIG_REG               (*(reg32 *) CYREG_WDT_CONFIG)
 607:Generated_Source\PSoC4/CyLFClk.h ****     #define CY_SYS_WDT_CONFIG_PTR               ( (reg32 *) CYREG_WDT_CONFIG)
 608:Generated_Source\PSoC4/CyLFClk.h **** 
ARM GAS  C:\Users\AFDHAL~1\AppData\Local\Temp\cc29CzqQ.s 			page 78


 609:Generated_Source\PSoC4/CyLFClk.h ****     #define CY_SYS_WDT_CONTROL_REG              (*(reg32 *) CYREG_WDT_CONTROL)
 610:Generated_Source\PSoC4/CyLFClk.h ****     #define CY_SYS_WDT_CONTROL_PTR              ( (reg32 *) CYREG_WDT_CONTROL)
 611:Generated_Source\PSoC4/CyLFClk.h **** #else
 612:Generated_Source\PSoC4/CyLFClk.h ****     #define CY_SYS_WDT_DISABLE_KEY_REG          (*(reg32 *) CYREG_WDT_DISABLE_KEY)
 613:Generated_Source\PSoC4/CyLFClk.h ****     #define CY_SYS_WDT_DISABLE_KEY_PTR          ( (reg32 *) CYREG_WDT_DISABLE_KEY)
 614:Generated_Source\PSoC4/CyLFClk.h **** 
 615:Generated_Source\PSoC4/CyLFClk.h ****     #define CY_SYS_WDT_MATCH_REG                (*(reg32 *) CYREG_WDT_MATCH)
 616:Generated_Source\PSoC4/CyLFClk.h ****     #define CY_SYS_WDT_MATCH_PTR                ( (reg32 *) CYREG_WDT_MATCH)
 617:Generated_Source\PSoC4/CyLFClk.h **** 
 618:Generated_Source\PSoC4/CyLFClk.h ****     #define CY_SYS_WDT_COUNTER_REG              (*(reg32 *) CYREG_WDT_COUNTER)
 619:Generated_Source\PSoC4/CyLFClk.h ****     #define CY_SYS_WDT_COUNTER_PTR              ( (reg32 *) CYREG_WDT_COUNTER)
 620:Generated_Source\PSoC4/CyLFClk.h **** 
 621:Generated_Source\PSoC4/CyLFClk.h ****     #define CY_SYS_SRSS_INTR_REG                (*(reg32 *) CYREG_SRSS_INTR)
 622:Generated_Source\PSoC4/CyLFClk.h ****     #define CY_SYS_SRSS_INTR_PTR                ( (reg32 *) CYREG_SRSS_INTR)
 623:Generated_Source\PSoC4/CyLFClk.h **** 
 624:Generated_Source\PSoC4/CyLFClk.h ****     #define CY_SYS_SRSS_INTR_MASK_REG           (*(reg32 *) CYREG_SRSS_INTR_MASK)
 625:Generated_Source\PSoC4/CyLFClk.h ****     #define CY_SYS_SRSS_INTR_MASK_PTR           ( (reg32 *) CYREG_SRSS_INTR_MASK)
 626:Generated_Source\PSoC4/CyLFClk.h **** #endif  /* (CY_IP_SRSSV2) */
 627:Generated_Source\PSoC4/CyLFClk.h **** 
 628:Generated_Source\PSoC4/CyLFClk.h **** #if (CY_IP_SRSSLT && CY_IP_WCO && CY_IP_WCO_WDT_EN)
 629:Generated_Source\PSoC4/CyLFClk.h ****     #define CY_SYS_WCO_WDT_CTRLOW_REG           (*(reg32 *) CYREG_WCO_WDT_CTRLOW)
 630:Generated_Source\PSoC4/CyLFClk.h ****     #define CY_SYS_WCO_WDT_CTRLOW_PTR           ( (reg32 *) CYREG_WCO_WDT_CTRLOW)
 631:Generated_Source\PSoC4/CyLFClk.h **** 
 632:Generated_Source\PSoC4/CyLFClk.h ****     #define CY_SYS_WCO_WDT_CTRHIGH_REG          (*(reg32 *) CYREG_WCO_WDT_CTRHIGH)
 633:Generated_Source\PSoC4/CyLFClk.h ****     #define CY_SYS_WCO_WDT_CTRHIGH_PTR          ( (reg32 *) CYREG_WCO_WDT_CTRHIGH)
 634:Generated_Source\PSoC4/CyLFClk.h **** 
 635:Generated_Source\PSoC4/CyLFClk.h ****     #define CY_SYS_WCO_WDT_MATCH_REG            (*(reg32 *) CYREG_WCO_WDT_MATCH)
 636:Generated_Source\PSoC4/CyLFClk.h ****     #define CY_SYS_WCO_WDT_MATCH_PTR            ( (reg32 *) CYREG_WCO_WDT_MATCH)
 637:Generated_Source\PSoC4/CyLFClk.h **** 
 638:Generated_Source\PSoC4/CyLFClk.h ****     #define CY_SYS_WCO_WDT_CONFIG_REG           (*(reg32 *) CYREG_WCO_WDT_CONFIG)
 639:Generated_Source\PSoC4/CyLFClk.h ****     #define CY_SYS_WCO_WDT_CONFIG_PTR           ( (reg32 *) CYREG_WCO_WDT_CONFIG)
 640:Generated_Source\PSoC4/CyLFClk.h **** 
 641:Generated_Source\PSoC4/CyLFClk.h ****     #define CY_SYS_WCO_WDT_CONTROL_REG          (*(reg32 *) CYREG_WCO_WDT_CONTROL)
 642:Generated_Source\PSoC4/CyLFClk.h ****     #define CY_SYS_WCO_WDT_CONTROL_PTR          ( (reg32 *) CYREG_WCO_WDT_CONTROL)
 643:Generated_Source\PSoC4/CyLFClk.h **** 
 644:Generated_Source\PSoC4/CyLFClk.h ****     #define CY_SYS_WCO_WDT_CLKEN_REG            (*(reg32 *) CYREG_WCO_WDT_CLKEN)
 645:Generated_Source\PSoC4/CyLFClk.h ****     #define CY_SYS_WCO_WDT_CLKEN_PTR            ( (reg32 *) CYREG_WCO_WDT_CLKEN)
 646:Generated_Source\PSoC4/CyLFClk.h **** #endif /* (CY_IP_SRSSLT && CY_IP_WCO && CY_IP_WCO_WDT_EN) */
 647:Generated_Source\PSoC4/CyLFClk.h **** 
 648:Generated_Source\PSoC4/CyLFClk.h **** #if (CY_IP_WCO)
 649:Generated_Source\PSoC4/CyLFClk.h **** 
 650:Generated_Source\PSoC4/CyLFClk.h ****     /*******************************************************************************
 651:Generated_Source\PSoC4/CyLFClk.h ****     * Function Name: CySysClkWcoSetHighPowerMode
 652:Generated_Source\PSoC4/CyLFClk.h ****     ********************************************************************************
 653:Generated_Source\PSoC4/CyLFClk.h ****     *
 654:Generated_Source\PSoC4/CyLFClk.h ****     * Summary:
 655:Generated_Source\PSoC4/CyLFClk.h ****     *  Sets the high power mode for the 32 KHz WCO.
 656:Generated_Source\PSoC4/CyLFClk.h ****     *
 657:Generated_Source\PSoC4/CyLFClk.h ****     *******************************************************************************/
 658:Generated_Source\PSoC4/CyLFClk.h ****     static CY_INLINE void CySysClkWcoSetHighPowerMode(void)
 659:Generated_Source\PSoC4/CyLFClk.h ****     {
 660:Generated_Source\PSoC4/CyLFClk.h ****         /* Switch off low power mode for WCO */
 661:Generated_Source\PSoC4/CyLFClk.h ****         CY_SYS_CLK_WCO_CONFIG_REG &= (uint32) ~CY_SYS_CLK_WCO_CONFIG_LPM_EN;
 1629              		.loc 2 661 0
 1630 0000 0121     		movs	r1, #1
 662:Generated_Source\PSoC4/CyLFClk.h **** 
 663:Generated_Source\PSoC4/CyLFClk.h ****         /* Switch off auto low power mode in WCO */
ARM GAS  C:\Users\AFDHAL~1\AppData\Local\Temp\cc29CzqQ.s 			page 79


 664:Generated_Source\PSoC4/CyLFClk.h ****         CY_SYS_CLK_WCO_CONFIG_REG &= ((uint32)~CY_SYS_CLK_WCO_CONFIG_LPM_AUTO);
 1631              		.loc 2 664 0
 1632 0002 0220     		movs	r0, #2
 1633              	.LBE281:
 1634              	.LBE280:
 772:Generated_Source\PSoC4/CyLFClk.c ****         CySysClkWcoSetHighPowerMode();
 1635              		.loc 1 772 0
 1636 0004 10B5     		push	{r4, lr}
 1637              		.cfi_def_cfa_offset 8
 1638              		.cfi_offset 4, -8
 1639              		.cfi_offset 14, -4
 1640              	.LBB284:
 1641              	.LBB282:
 665:Generated_Source\PSoC4/CyLFClk.h **** 
 666:Generated_Source\PSoC4/CyLFClk.h ****         /* Restore WCO trim register HPM settings */
 667:Generated_Source\PSoC4/CyLFClk.h ****         CY_SYS_CLK_WCO_TRIM_REG = (CY_SYS_CLK_WCO_TRIM_REG & (uint32)(~CY_SYS_CLK_WCO_TRIM_GM_MASK)
 668:Generated_Source\PSoC4/CyLFClk.h ****                     | (uint32)(CY_SYS_CLK_WCO_TRIM_GM_HPM << CY_SYS_CLK_WCO_TRIM_GM_SHIFT);
 1642              		.loc 2 668 0
 1643 0006 3024     		movs	r4, #48
 661:Generated_Source\PSoC4/CyLFClk.h **** 
 1644              		.loc 2 661 0
 1645 0008 0B4B     		ldr	r3, .L166
 1646              	.LBE282:
 1647              	.LBE284:
 775:Generated_Source\PSoC4/CyLFClk.c **** 
 1648              		.loc 1 775 0
 1649              		@ sp needed
 1650              	.LBB285:
 1651              	.LBB283:
 661:Generated_Source\PSoC4/CyLFClk.h **** 
 1652              		.loc 2 661 0
 1653 000a 1A68     		ldr	r2, [r3]
 1654 000c 8A43     		bics	r2, r1
 1655 000e 1A60     		str	r2, [r3]
 664:Generated_Source\PSoC4/CyLFClk.h **** 
 1656              		.loc 2 664 0
 1657 0010 1A68     		ldr	r2, [r3]
 1658 0012 8243     		bics	r2, r0
 1659 0014 1A60     		str	r2, [r3]
 667:Generated_Source\PSoC4/CyLFClk.h ****                     | (uint32)(CY_SYS_CLK_WCO_TRIM_GM_HPM << CY_SYS_CLK_WCO_TRIM_GM_SHIFT);
 1660              		.loc 2 667 0
 1661 0016 094A     		ldr	r2, .L166+4
 1662 0018 1068     		ldr	r0, [r2]
 1663              		.loc 2 668 0
 1664 001a A043     		bics	r0, r4
 1665 001c 203C     		subs	r4, r4, #32
 1666 001e 2043     		orrs	r0, r4
 667:Generated_Source\PSoC4/CyLFClk.h ****                     | (uint32)(CY_SYS_CLK_WCO_TRIM_GM_HPM << CY_SYS_CLK_WCO_TRIM_GM_SHIFT);
 1667              		.loc 2 667 0
 1668 0020 1060     		str	r0, [r2]
 669:Generated_Source\PSoC4/CyLFClk.h ****         CY_SYS_CLK_WCO_TRIM_REG = (CY_SYS_CLK_WCO_TRIM_REG & (uint32)(~CY_SYS_CLK_WCO_TRIM_XGM_MASK
 1669              		.loc 2 669 0
 1670 0022 1068     		ldr	r0, [r2]
 670:Generated_Source\PSoC4/CyLFClk.h ****                     | (uint32)(CY_SYS_CLK_WCO_TRIM_XGM_2620NA << CY_SYS_CLK_WCO_TRIM_XGM_SHIFT);
 1671              		.loc 2 670 0
 1672 0024 093C     		subs	r4, r4, #9
 1673 0026 A043     		bics	r0, r4
ARM GAS  C:\Users\AFDHAL~1\AppData\Local\Temp\cc29CzqQ.s 			page 80


 1674 0028 0143     		orrs	r1, r0
 669:Generated_Source\PSoC4/CyLFClk.h ****         CY_SYS_CLK_WCO_TRIM_REG = (CY_SYS_CLK_WCO_TRIM_REG & (uint32)(~CY_SYS_CLK_WCO_TRIM_XGM_MASK
 1675              		.loc 2 669 0
 1676 002a 1160     		str	r1, [r2]
 1677              	.LBE283:
 1678              	.LBE285:
 774:Generated_Source\PSoC4/CyLFClk.c ****     }
 1679              		.loc 1 774 0
 1680 002c 8021     		movs	r1, #128
 1681 002e 1A68     		ldr	r2, [r3]
 1682 0030 0906     		lsls	r1, r1, #24
 1683 0032 0A43     		orrs	r2, r1
 1684 0034 1A60     		str	r2, [r3]
 775:Generated_Source\PSoC4/CyLFClk.c **** 
 1685              		.loc 1 775 0
 1686 0036 10BD     		pop	{r4, pc}
 1687              	.L167:
 1688              		.align	2
 1689              	.L166:
 1690 0038 00002240 		.word	1075970048
 1691 003c 000F2240 		.word	1075973888
 1692              		.cfi_endproc
 1693              	.LFE12:
 1694              		.size	CySysClkWcoStart, .-CySysClkWcoStart
 1695              		.section	.text.CySysClkWcoStop,"ax",%progbits
 1696              		.align	2
 1697              		.global	CySysClkWcoStop
 1698              		.code	16
 1699              		.thumb_func
 1700              		.type	CySysClkWcoStop, %function
 1701              	CySysClkWcoStop:
 1702              	.LFB13:
 790:Generated_Source\PSoC4/CyLFClk.c ****         #if (CY_IP_SRSSV2)
 1703              		.loc 1 790 0
 1704              		.cfi_startproc
 1705              		@ args = 0, pretend = 0, frame = 0
 1706              		@ frame_needed = 0, uses_anonymous_args = 0
 1707 0000 70B5     		push	{r4, r5, r6, lr}
 1708              		.cfi_def_cfa_offset 16
 1709              		.cfi_offset 4, -16
 1710              		.cfi_offset 5, -12
 1711              		.cfi_offset 6, -8
 1712              		.cfi_offset 14, -4
 1713              	.LBB298:
 1714              	.LBB299:
 826:Generated_Source\PSoC4/CyLFClk.c ****                 (uint32) 1u :
 1715              		.loc 1 826 0
 1716 0002 194C     		ldr	r4, .L184
 1717 0004 2368     		ldr	r3, [r4]
 827:Generated_Source\PSoC4/CyLFClk.c ****                 (uint32) 0u);
 1718              		.loc 1 827 0
 1719 0006 002B     		cmp	r3, #0
 1720 0008 00DB     		blt	.L181
 1721              	.L168:
 1722              	.LBE299:
 1723              	.LBE298:
 812:Generated_Source\PSoC4/CyLFClk.c **** 
ARM GAS  C:\Users\AFDHAL~1\AppData\Local\Temp\cc29CzqQ.s 			page 81


 1724              		.loc 1 812 0
 1725              		@ sp needed
 1726 000a 70BD     		pop	{r4, r5, r6, pc}
 1727              	.L181:
 1728              	.LBB300:
 1729              	.LBB301:
 688:Generated_Source\PSoC4/CyLFClk.c ****         return (lfclkSource);
 1730              		.loc 1 688 0
 1731 000c 174D     		ldr	r5, .L184+4
 1732 000e 2B68     		ldr	r3, [r5]
 1733              	.LBE301:
 1734              	.LBE300:
 798:Generated_Source\PSoC4/CyLFClk.c ****                 {
 1735              		.loc 1 798 0
 1736 0010 9B0F     		lsrs	r3, r3, #30
 1737 0012 012B     		cmp	r3, #1
 1738 0014 04D0     		beq	.L182
 809:Generated_Source\PSoC4/CyLFClk.c ****             }
 1739              		.loc 1 809 0
 1740 0016 2368     		ldr	r3, [r4]
 1741 0018 5B00     		lsls	r3, r3, #1
 1742 001a 5B08     		lsrs	r3, r3, #1
 1743 001c 2360     		str	r3, [r4]
 812:Generated_Source\PSoC4/CyLFClk.c **** 
 1744              		.loc 1 812 0
 1745 001e F4E7     		b	.L168
 1746              	.L182:
 800:Generated_Source\PSoC4/CyLFClk.c ****                     CySysClkLfclkPosedgeCatch();
 1747              		.loc 1 800 0
 1748 0020 FFF7FEFF 		bl	CyEnterCriticalSection
 1749              	.LVL159:
 1750 0024 0600     		movs	r6, r0
 1751              	.LVL160:
 801:Generated_Source\PSoC4/CyLFClk.c ****                     CY_SYS_CLK_WCO_CONFIG_REG &= (uint32) ~CY_SYS_CLK_WCO_CONFIG_LPM_ENABLE;
 1752              		.loc 1 801 0
 1753 0026 FFF7FEFF 		bl	CySysClkLfclkPosedgeCatch
 1754              	.LVL161:
 802:Generated_Source\PSoC4/CyLFClk.c ****                     CySysClkLfclkPosedgeRestore();
 1755              		.loc 1 802 0
 1756 002a 2368     		ldr	r3, [r4]
 1757 002c 5B00     		lsls	r3, r3, #1
 1758 002e 5B08     		lsrs	r3, r3, #1
 1759 0030 2360     		str	r3, [r4]
 1760              	.LBB302:
 1761              	.LBB303:
1896:Generated_Source\PSoC4/CyLFClk.c ****         {
 1762              		.loc 1 1896 0
 1763 0032 0F4B     		ldr	r3, .L184+8
 1764 0034 5A68     		ldr	r2, [r3, #4]
 1765 0036 002A     		cmp	r2, #0
 1766 0038 03D1     		bne	.L183
 1767              	.L171:
 1768              	.LBE303:
 1769              	.LBE302:
 804:Generated_Source\PSoC4/CyLFClk.c ****                 }
 1770              		.loc 1 804 0
 1771 003a 3000     		movs	r0, r6
ARM GAS  C:\Users\AFDHAL~1\AppData\Local\Temp\cc29CzqQ.s 			page 82


 1772 003c FFF7FEFF 		bl	CyExitCriticalSection
 1773              	.LVL162:
 1774 0040 E3E7     		b	.L168
 1775              	.L183:
 1776              	.LBB310:
 1777              	.LBB309:
 1778              	.LBB304:
1899:Generated_Source\PSoC4/CyLFClk.c ****             CySysWdtSetMode(CY_SYS_WDT_COUNTER0, lfclkPosedgeWdtCounter0Mode);
 1779              		.loc 1 1899 0
 1780 0042 0120     		movs	r0, #1
 1781 0044 0B4A     		ldr	r2, .L184+12
 1782 0046 1168     		ldr	r1, [r2]
 1783 0048 8143     		bics	r1, r0
 1784 004a 1160     		str	r1, [r2]
 1785              	.LVL163:
 1786              	.LBB305:
 1787              	.LBB306:
 1788              	.LBB307:
 1789              	.LBB308:
1020:Generated_Source\PSoC4/CyLFClk.c ****     }
 1790              		.loc 1 1020 0
 1791 004c 1268     		ldr	r2, [r2]
 1792              	.LVL164:
 1793              	.LBE308:
 1794              	.LBE307:
1053:Generated_Source\PSoC4/CyLFClk.c ****         {
 1795              		.loc 1 1053 0
 1796 004e 5208     		lsrs	r2, r2, #1
 1797 0050 1042     		tst	r0, r2
 1798 0052 06D1     		bne	.L172
1055:Generated_Source\PSoC4/CyLFClk.c ****                                 (uint32)~((uint32)(CY_SYS_WDT_MODE_MASK << (counterNum * CY_SYS_WDT
 1799              		.loc 1 1055 0
 1800 0054 0322     		movs	r2, #3
 1801 0056 2968     		ldr	r1, [r5]
1057:Generated_Source\PSoC4/CyLFClk.c ****             CY_SYS_WDT_CONFIG_REG = configRegValue;
 1802              		.loc 1 1057 0
 1803 0058 9868     		ldr	r0, [r3, #8]
1055:Generated_Source\PSoC4/CyLFClk.c ****                                 (uint32)~((uint32)(CY_SYS_WDT_MODE_MASK << (counterNum * CY_SYS_WDT
 1804              		.loc 1 1055 0
 1805 005a 9143     		bics	r1, r2
 1806              	.LVL165:
1057:Generated_Source\PSoC4/CyLFClk.c ****             CY_SYS_WDT_CONFIG_REG = configRegValue;
 1807              		.loc 1 1057 0
 1808 005c 0240     		ands	r2, r0
 1809 005e 0A43     		orrs	r2, r1
 1810              	.LVL166:
1058:Generated_Source\PSoC4/CyLFClk.c ****         }
 1811              		.loc 1 1058 0
 1812 0060 2A60     		str	r2, [r5]
 1813              	.LVL167:
 1814              	.L172:
 1815              	.LBE306:
 1816              	.LBE305:
 1817              		.loc 1 1901 0
 1818 0062 0022     		movs	r2, #0
 1819 0064 5A60     		str	r2, [r3, #4]
 1820 0066 E8E7     		b	.L171
ARM GAS  C:\Users\AFDHAL~1\AppData\Local\Temp\cc29CzqQ.s 			page 83


 1821              	.L185:
 1822              		.align	2
 1823              	.L184:
 1824 0068 00002240 		.word	1075970048
 1825 006c 0C020B40 		.word	1074463244
 1826 0070 00000000 		.word	.LANCHOR0
 1827 0074 10020B40 		.word	1074463248
 1828              	.LBE304:
 1829              	.LBE309:
 1830              	.LBE310:
 1831              		.cfi_endproc
 1832              	.LFE13:
 1833              		.size	CySysClkWcoStop, .-CySysClkWcoStop
 1834              		.section	.text.CySysClkWcoEnabled,"ax",%progbits
 1835              		.align	2
 1836              		.global	CySysClkWcoEnabled
 1837              		.code	16
 1838              		.thumb_func
 1839              		.type	CySysClkWcoEnabled, %function
 1840              	CySysClkWcoEnabled:
 1841              	.LFB14:
 825:Generated_Source\PSoC4/CyLFClk.c ****         return ((0u != (CY_SYS_CLK_WCO_CONFIG_REG & (uint32)(CY_SYS_CLK_WCO_CONFIG_LPM_ENABLE))) ?
 1842              		.loc 1 825 0
 1843              		.cfi_startproc
 1844              		@ args = 0, pretend = 0, frame = 0
 1845              		@ frame_needed = 0, uses_anonymous_args = 0
 1846              		@ link register save eliminated.
 826:Generated_Source\PSoC4/CyLFClk.c ****                 (uint32) 1u :
 1847              		.loc 1 826 0
 1848 0000 014B     		ldr	r3, .L187
 829:Generated_Source\PSoC4/CyLFClk.c **** 
 1849              		.loc 1 829 0
 1850              		@ sp needed
 826:Generated_Source\PSoC4/CyLFClk.c ****                 (uint32) 1u :
 1851              		.loc 1 826 0
 1852 0002 1868     		ldr	r0, [r3]
 1853 0004 C00F     		lsrs	r0, r0, #31
 829:Generated_Source\PSoC4/CyLFClk.c **** 
 1854              		.loc 1 829 0
 1855 0006 7047     		bx	lr
 1856              	.L188:
 1857              		.align	2
 1858              	.L187:
 1859 0008 00002240 		.word	1075970048
 1860              		.cfi_endproc
 1861              	.LFE14:
 1862              		.size	CySysClkWcoEnabled, .-CySysClkWcoEnabled
 1863              		.section	.text.CySysClkWcoSetPowerMode,"ax",%progbits
 1864              		.align	2
 1865              		.global	CySysClkWcoSetPowerMode
 1866              		.code	16
 1867              		.thumb_func
 1868              		.type	CySysClkWcoSetPowerMode, %function
 1869              	CySysClkWcoSetPowerMode:
 1870              	.LFB15:
 852:Generated_Source\PSoC4/CyLFClk.c ****         uint32 powerModeStatus;
 1871              		.loc 1 852 0
ARM GAS  C:\Users\AFDHAL~1\AppData\Local\Temp\cc29CzqQ.s 			page 84


 1872              		.cfi_startproc
 1873              		@ args = 0, pretend = 0, frame = 0
 1874              		@ frame_needed = 0, uses_anonymous_args = 0
 1875              	.LVL168:
 855:Generated_Source\PSoC4/CyLFClk.c **** 
 1876              		.loc 1 855 0
 1877 0000 0123     		movs	r3, #1
 1878 0002 0D4A     		ldr	r2, .L192
 852:Generated_Source\PSoC4/CyLFClk.c ****         uint32 powerModeStatus;
 1879              		.loc 1 852 0
 1880 0004 0100     		movs	r1, r0
 855:Generated_Source\PSoC4/CyLFClk.c **** 
 1881              		.loc 1 855 0
 1882 0006 1068     		ldr	r0, [r2]
 1883              	.LVL169:
 852:Generated_Source\PSoC4/CyLFClk.c ****         uint32 powerModeStatus;
 1884              		.loc 1 852 0
 1885 0008 10B5     		push	{r4, lr}
 1886              		.cfi_def_cfa_offset 8
 1887              		.cfi_offset 4, -8
 1888              		.cfi_offset 14, -4
 855:Generated_Source\PSoC4/CyLFClk.c **** 
 1889              		.loc 1 855 0
 1890 000a 1840     		ands	r0, r3
 1891              	.LVL170:
 857:Generated_Source\PSoC4/CyLFClk.c ****         {
 1892              		.loc 1 857 0
 1893 000c 0029     		cmp	r1, #0
 1894 000e 12D1     		bne	.L190
 1895              	.LBB311:
 1896              	.LBB312:
 664:Generated_Source\PSoC4/CyLFClk.h **** 
 1897              		.loc 2 664 0
 1898 0010 0224     		movs	r4, #2
 661:Generated_Source\PSoC4/CyLFClk.h **** 
 1899              		.loc 2 661 0
 1900 0012 1168     		ldr	r1, [r2]
 1901              	.LVL171:
 1902 0014 9943     		bics	r1, r3
 1903 0016 1160     		str	r1, [r2]
 664:Generated_Source\PSoC4/CyLFClk.h **** 
 1904              		.loc 2 664 0
 1905 0018 1168     		ldr	r1, [r2]
 1906 001a A143     		bics	r1, r4
 1907 001c 1160     		str	r1, [r2]
 667:Generated_Source\PSoC4/CyLFClk.h ****                     | (uint32)(CY_SYS_CLK_WCO_TRIM_GM_HPM << CY_SYS_CLK_WCO_TRIM_GM_SHIFT);
 1908              		.loc 2 667 0
 1909 001e 074A     		ldr	r2, .L192+4
 668:Generated_Source\PSoC4/CyLFClk.h ****         CY_SYS_CLK_WCO_TRIM_REG = (CY_SYS_CLK_WCO_TRIM_REG & (uint32)(~CY_SYS_CLK_WCO_TRIM_XGM_MASK
 1910              		.loc 2 668 0
 1911 0020 2E34     		adds	r4, r4, #46
 667:Generated_Source\PSoC4/CyLFClk.h ****                     | (uint32)(CY_SYS_CLK_WCO_TRIM_GM_HPM << CY_SYS_CLK_WCO_TRIM_GM_SHIFT);
 1912              		.loc 2 667 0
 1913 0022 1168     		ldr	r1, [r2]
 668:Generated_Source\PSoC4/CyLFClk.h ****         CY_SYS_CLK_WCO_TRIM_REG = (CY_SYS_CLK_WCO_TRIM_REG & (uint32)(~CY_SYS_CLK_WCO_TRIM_XGM_MASK
 1914              		.loc 2 668 0
 1915 0024 A143     		bics	r1, r4
ARM GAS  C:\Users\AFDHAL~1\AppData\Local\Temp\cc29CzqQ.s 			page 85


 1916 0026 203C     		subs	r4, r4, #32
 1917 0028 2143     		orrs	r1, r4
 667:Generated_Source\PSoC4/CyLFClk.h ****                     | (uint32)(CY_SYS_CLK_WCO_TRIM_GM_HPM << CY_SYS_CLK_WCO_TRIM_GM_SHIFT);
 1918              		.loc 2 667 0
 1919 002a 1160     		str	r1, [r2]
 669:Generated_Source\PSoC4/CyLFClk.h ****                     | (uint32)(CY_SYS_CLK_WCO_TRIM_XGM_2620NA << CY_SYS_CLK_WCO_TRIM_XGM_SHIFT);
 1920              		.loc 2 669 0
 1921 002c 1168     		ldr	r1, [r2]
 1922              		.loc 2 670 0
 1923 002e 093C     		subs	r4, r4, #9
 1924 0030 A143     		bics	r1, r4
 1925 0032 0B43     		orrs	r3, r1
 669:Generated_Source\PSoC4/CyLFClk.h ****                     | (uint32)(CY_SYS_CLK_WCO_TRIM_XGM_2620NA << CY_SYS_CLK_WCO_TRIM_XGM_SHIFT);
 1926              		.loc 2 669 0
 1927 0034 1360     		str	r3, [r2]
 1928              	.L190:
 1929              	.LBE312:
 1930              	.LBE311:
 875:Generated_Source\PSoC4/CyLFClk.c **** 
 1931              		.loc 1 875 0
 1932              		@ sp needed
 1933 0036 10BD     		pop	{r4, pc}
 1934              	.L193:
 1935              		.align	2
 1936              	.L192:
 1937 0038 00002240 		.word	1075970048
 1938 003c 000F2240 		.word	1075973888
 1939              		.cfi_endproc
 1940              	.LFE15:
 1941              		.size	CySysClkWcoSetPowerMode, .-CySysClkWcoSetPowerMode
 1942              		.section	.text.CySysClkWcoClockOutSelect,"ax",%progbits
 1943              		.align	2
 1944              		.global	CySysClkWcoClockOutSelect
 1945              		.code	16
 1946              		.thumb_func
 1947              		.type	CySysClkWcoClockOutSelect, %function
 1948              	CySysClkWcoClockOutSelect:
 1949              	.LFB16:
 919:Generated_Source\PSoC4/CyLFClk.c ****         if (0u != CySysClkWcoEnabled())
 1950              		.loc 1 919 0
 1951              		.cfi_startproc
 1952              		@ args = 0, pretend = 0, frame = 0
 1953              		@ frame_needed = 0, uses_anonymous_args = 0
 1954              		@ link register save eliminated.
 1955              	.LVL172:
 1956              	.LBB313:
 1957              	.LBB314:
 826:Generated_Source\PSoC4/CyLFClk.c ****                 (uint32) 1u :
 1958              		.loc 1 826 0
 1959 0000 064B     		ldr	r3, .L200
 1960 0002 1A68     		ldr	r2, [r3]
 827:Generated_Source\PSoC4/CyLFClk.c ****                 (uint32) 0u);
 1961              		.loc 1 827 0
 1962 0004 002A     		cmp	r2, #0
 1963 0006 00DB     		blt	.L199
 1964              	.LVL173:
 1965              	.L194:
ARM GAS  C:\Users\AFDHAL~1\AppData\Local\Temp\cc29CzqQ.s 			page 86


 1966              	.LBE314:
 1967              	.LBE313:
 932:Generated_Source\PSoC4/CyLFClk.c **** #endif  /* (CY_IP_WCO) */
 1968              		.loc 1 932 0
 1969              		@ sp needed
 1970 0008 7047     		bx	lr
 1971              	.LVL174:
 1972              	.L199:
 922:Generated_Source\PSoC4/CyLFClk.c ****             {
 1973              		.loc 1 922 0
 1974 000a 0128     		cmp	r0, #1
 1975 000c FCD8     		bhi	.L194
 924:Generated_Source\PSoC4/CyLFClk.c ****                                         (clockSel << CY_SYS_CLK_WCO_SELECT_PIN_OFFSET);
 1976              		.loc 1 924 0
 1977 000e 0421     		movs	r1, #4
 1978 0010 1A68     		ldr	r2, [r3]
 1979 0012 8000     		lsls	r0, r0, #2
 1980              	.LVL175:
 1981 0014 8A43     		bics	r2, r1
 1982 0016 1043     		orrs	r0, r2
 1983 0018 1860     		str	r0, [r3]
 932:Generated_Source\PSoC4/CyLFClk.c **** #endif  /* (CY_IP_WCO) */
 1984              		.loc 1 932 0
 1985 001a F5E7     		b	.L194
 1986              	.L201:
 1987              		.align	2
 1988              	.L200:
 1989 001c 00002240 		.word	1075970048
 1990              		.cfi_endproc
 1991              	.LFE16:
 1992              		.size	CySysClkWcoClockOutSelect, .-CySysClkWcoClockOutSelect
 1993              		.section	.text.CySysWdtLock,"ax",%progbits
 1994              		.align	2
 1995              		.global	CySysWdtLock
 1996              		.code	16
 1997              		.thumb_func
 1998              		.type	CySysWdtLock, %function
 1999              	CySysWdtLock:
 2000              	.LFB17:
 949:Generated_Source\PSoC4/CyLFClk.c ****         uint8 interruptState;
 2001              		.loc 1 949 0
 2002              		.cfi_startproc
 2003              		@ args = 0, pretend = 0, frame = 0
 2004              		@ frame_needed = 0, uses_anonymous_args = 0
 2005 0000 10B5     		push	{r4, lr}
 2006              		.cfi_def_cfa_offset 8
 2007              		.cfi_offset 4, -8
 2008              		.cfi_offset 14, -4
 951:Generated_Source\PSoC4/CyLFClk.c **** 
 2009              		.loc 1 951 0
 2010 0002 FFF7FEFF 		bl	CyEnterCriticalSection
 2011              	.LVL176:
 953:Generated_Source\PSoC4/CyLFClk.c ****                  CY_SYS_WDT_CLK_LOCK_BITS_MASK;
 2012              		.loc 1 953 0
 2013 0006 C021     		movs	r1, #192
 2014 0008 034A     		ldr	r2, .L203
 2015 000a 0902     		lsls	r1, r1, #8
ARM GAS  C:\Users\AFDHAL~1\AppData\Local\Temp\cc29CzqQ.s 			page 87


 2016 000c 1368     		ldr	r3, [r2]
 957:Generated_Source\PSoC4/CyLFClk.c **** 
 2017              		.loc 1 957 0
 2018              		@ sp needed
 953:Generated_Source\PSoC4/CyLFClk.c ****                  CY_SYS_WDT_CLK_LOCK_BITS_MASK;
 2019              		.loc 1 953 0
 2020 000e 0B43     		orrs	r3, r1
 2021 0010 1360     		str	r3, [r2]
 956:Generated_Source\PSoC4/CyLFClk.c ****     }
 2022              		.loc 1 956 0
 2023 0012 FFF7FEFF 		bl	CyExitCriticalSection
 2024              	.LVL177:
 957:Generated_Source\PSoC4/CyLFClk.c **** 
 2025              		.loc 1 957 0
 2026 0016 10BD     		pop	{r4, pc}
 2027              	.L204:
 2028              		.align	2
 2029              	.L203:
 2030 0018 00010B40 		.word	1074462976
 2031              		.cfi_endproc
 2032              	.LFE17:
 2033              		.size	CySysWdtLock, .-CySysWdtLock
 2034              		.section	.text.CySysWdtUnlock,"ax",%progbits
 2035              		.align	2
 2036              		.global	CySysWdtUnlock
 2037              		.code	16
 2038              		.thumb_func
 2039              		.type	CySysWdtUnlock, %function
 2040              	CySysWdtUnlock:
 2041              	.LFB19:
 984:Generated_Source\PSoC4/CyLFClk.c ****         uint8 interruptState;
 2042              		.loc 1 984 0
 2043              		.cfi_startproc
 2044              		@ args = 0, pretend = 0, frame = 0
 2045              		@ frame_needed = 0, uses_anonymous_args = 0
 2046 0000 10B5     		push	{r4, lr}
 2047              		.cfi_def_cfa_offset 8
 2048              		.cfi_offset 4, -8
 2049              		.cfi_offset 14, -4
 989:Generated_Source\PSoC4/CyLFClk.c ****                 CY_SYS_WDT_CLK_LOCK_BIT0);
 2050              		.loc 1 989 0
 2051 0002 8024     		movs	r4, #128
 986:Generated_Source\PSoC4/CyLFClk.c **** 
 2052              		.loc 1 986 0
 2053 0004 FFF7FEFF 		bl	CyEnterCriticalSection
 2054              	.LVL178:
 989:Generated_Source\PSoC4/CyLFClk.c ****                 CY_SYS_WDT_CLK_LOCK_BIT0);
 2055              		.loc 1 989 0
 2056 0008 0749     		ldr	r1, .L206
 2057 000a 084B     		ldr	r3, .L206+4
 2058 000c 0A68     		ldr	r2, [r1]
 2059 000e E401     		lsls	r4, r4, #7
 2060 0010 1A40     		ands	r2, r3
 2061 0012 2243     		orrs	r2, r4
 2062 0014 0A60     		str	r2, [r1]
 992:Generated_Source\PSoC4/CyLFClk.c ****                 CY_SYS_WDT_CLK_LOCK_BIT1);
 2063              		.loc 1 992 0
ARM GAS  C:\Users\AFDHAL~1\AppData\Local\Temp\cc29CzqQ.s 			page 88


 2064 0016 0A68     		ldr	r2, [r1]
 996:Generated_Source\PSoC4/CyLFClk.c **** 
 2065              		.loc 1 996 0
 2066              		@ sp needed
 992:Generated_Source\PSoC4/CyLFClk.c ****                 CY_SYS_WDT_CLK_LOCK_BIT1);
 2067              		.loc 1 992 0
 2068 0018 1340     		ands	r3, r2
 2069 001a 8022     		movs	r2, #128
 2070 001c 1202     		lsls	r2, r2, #8
 2071 001e 1343     		orrs	r3, r2
 2072 0020 0B60     		str	r3, [r1]
 995:Generated_Source\PSoC4/CyLFClk.c ****     }
 2073              		.loc 1 995 0
 2074 0022 FFF7FEFF 		bl	CyExitCriticalSection
 2075              	.LVL179:
 996:Generated_Source\PSoC4/CyLFClk.c **** 
 2076              		.loc 1 996 0
 2077 0026 10BD     		pop	{r4, pc}
 2078              	.L207:
 2079              		.align	2
 2080              	.L206:
 2081 0028 00010B40 		.word	1074462976
 2082 002c FF3FFFFF 		.word	-49153
 2083              		.cfi_endproc
 2084              	.LFE19:
 2085              		.size	CySysWdtUnlock, .-CySysWdtUnlock
 2086              		.section	.text.CySysWdtGetEnabledStatus,"ax",%progbits
 2087              		.align	2
 2088              		.global	CySysWdtGetEnabledStatus
 2089              		.code	16
 2090              		.thumb_func
 2091              		.type	CySysWdtGetEnabledStatus, %function
 2092              	CySysWdtGetEnabledStatus:
 2093              	.LFB20:
1018:Generated_Source\PSoC4/CyLFClk.c ****         CYASSERT(counterNum < CY_SYS_WDT_COUNTERS_MAX);
 2094              		.loc 1 1018 0
 2095              		.cfi_startproc
 2096              		@ args = 0, pretend = 0, frame = 0
 2097              		@ frame_needed = 0, uses_anonymous_args = 0
 2098              		@ link register save eliminated.
 2099              	.LVL180:
1020:Generated_Source\PSoC4/CyLFClk.c ****     }
 2100              		.loc 1 1020 0
 2101 0000 044B     		ldr	r3, .L209
 2102 0002 C000     		lsls	r0, r0, #3
 2103              	.LVL181:
 2104 0004 1B68     		ldr	r3, [r3]
 2105 0006 0130     		adds	r0, r0, #1
 2106 0008 C340     		lsrs	r3, r3, r0
 2107 000a 1800     		movs	r0, r3
 2108 000c 0123     		movs	r3, #1
1021:Generated_Source\PSoC4/CyLFClk.c **** 
 2109              		.loc 1 1021 0
 2110              		@ sp needed
1020:Generated_Source\PSoC4/CyLFClk.c ****     }
 2111              		.loc 1 1020 0
 2112 000e 1840     		ands	r0, r3
ARM GAS  C:\Users\AFDHAL~1\AppData\Local\Temp\cc29CzqQ.s 			page 89


1021:Generated_Source\PSoC4/CyLFClk.c **** 
 2113              		.loc 1 1021 0
 2114 0010 7047     		bx	lr
 2115              	.L210:
 2116 0012 C046     		.align	2
 2117              	.L209:
 2118 0014 10020B40 		.word	1074463248
 2119              		.cfi_endproc
 2120              	.LFE20:
 2121              		.size	CySysWdtGetEnabledStatus, .-CySysWdtGetEnabledStatus
 2122              		.section	.text.CySysWdtSetMode,"ax",%progbits
 2123              		.align	2
 2124              		.global	CySysWdtSetMode
 2125              		.code	16
 2126              		.thumb_func
 2127              		.type	CySysWdtSetMode, %function
 2128              	CySysWdtSetMode:
 2129              	.LFB21:
1048:Generated_Source\PSoC4/CyLFClk.c ****         uint32 configRegValue;
 2130              		.loc 1 1048 0
 2131              		.cfi_startproc
 2132              		@ args = 0, pretend = 0, frame = 0
 2133              		@ frame_needed = 0, uses_anonymous_args = 0
 2134              	.LVL182:
 2135              	.LBB315:
 2136              	.LBB316:
1020:Generated_Source\PSoC4/CyLFClk.c ****     }
 2137              		.loc 1 1020 0
 2138 0000 094B     		ldr	r3, .L213
 2139 0002 C000     		lsls	r0, r0, #3
 2140              	.LVL183:
 2141 0004 1B68     		ldr	r3, [r3]
 2142              	.LBE316:
 2143              	.LBE315:
1053:Generated_Source\PSoC4/CyLFClk.c ****         {
 2144              		.loc 1 1053 0
 2145 0006 421C     		adds	r2, r0, #1
 2146 0008 D340     		lsrs	r3, r3, r2
1048:Generated_Source\PSoC4/CyLFClk.c ****         uint32 configRegValue;
 2147              		.loc 1 1048 0
 2148 000a 30B5     		push	{r4, r5, lr}
 2149              		.cfi_def_cfa_offset 12
 2150              		.cfi_offset 4, -12
 2151              		.cfi_offset 5, -8
 2152              		.cfi_offset 14, -4
1053:Generated_Source\PSoC4/CyLFClk.c ****         {
 2153              		.loc 1 1053 0
 2154 000c DB07     		lsls	r3, r3, #31
 2155 000e 09D4     		bmi	.L211
1055:Generated_Source\PSoC4/CyLFClk.c ****                                 (uint32)~((uint32)(CY_SYS_WDT_MODE_MASK << (counterNum * CY_SYS_WDT
 2156              		.loc 1 1055 0
 2157 0010 0324     		movs	r4, #3
 2158 0012 2500     		movs	r5, r4
1057:Generated_Source\PSoC4/CyLFClk.c ****             CY_SYS_WDT_CONFIG_REG = configRegValue;
 2159              		.loc 1 1057 0
 2160 0014 2140     		ands	r1, r4
 2161              	.LVL184:
ARM GAS  C:\Users\AFDHAL~1\AppData\Local\Temp\cc29CzqQ.s 			page 90


1055:Generated_Source\PSoC4/CyLFClk.c ****                                 (uint32)~((uint32)(CY_SYS_WDT_MODE_MASK << (counterNum * CY_SYS_WDT
 2162              		.loc 1 1055 0
 2163 0016 8540     		lsls	r5, r5, r0
1057:Generated_Source\PSoC4/CyLFClk.c ****             CY_SYS_WDT_CONFIG_REG = configRegValue;
 2164              		.loc 1 1057 0
 2165 0018 8140     		lsls	r1, r1, r0
1055:Generated_Source\PSoC4/CyLFClk.c ****                                 (uint32)~((uint32)(CY_SYS_WDT_MODE_MASK << (counterNum * CY_SYS_WDT
 2166              		.loc 1 1055 0
 2167 001a 044A     		ldr	r2, .L213+4
 2168 001c 1368     		ldr	r3, [r2]
 2169 001e AB43     		bics	r3, r5
 2170              	.LVL185:
1057:Generated_Source\PSoC4/CyLFClk.c ****             CY_SYS_WDT_CONFIG_REG = configRegValue;
 2171              		.loc 1 1057 0
 2172 0020 1943     		orrs	r1, r3
 2173              	.LVL186:
1058:Generated_Source\PSoC4/CyLFClk.c ****         }
 2174              		.loc 1 1058 0
 2175 0022 1160     		str	r1, [r2]
 2176              	.LVL187:
 2177              	.L211:
1060:Generated_Source\PSoC4/CyLFClk.c **** 
 2178              		.loc 1 1060 0
 2179              		@ sp needed
 2180 0024 30BD     		pop	{r4, r5, pc}
 2181              	.L214:
 2182 0026 C046     		.align	2
 2183              	.L213:
 2184 0028 10020B40 		.word	1074463248
 2185 002c 0C020B40 		.word	1074463244
 2186              		.cfi_endproc
 2187              	.LFE21:
 2188              		.size	CySysWdtSetMode, .-CySysWdtSetMode
 2189              		.section	.text.CySysWdtGetMode,"ax",%progbits
 2190              		.align	2
 2191              		.global	CySysWdtGetMode
 2192              		.code	16
 2193              		.thumb_func
 2194              		.type	CySysWdtGetMode, %function
 2195              	CySysWdtGetMode:
 2196              	.LFB22:
1076:Generated_Source\PSoC4/CyLFClk.c ****         return ((CY_SYS_WDT_CONFIG_REG >> (counterNum * CY_SYS_WDT_CNT_SHIFT)) & CY_SYS_WDT_MODE_MA
 2197              		.loc 1 1076 0
 2198              		.cfi_startproc
 2199              		@ args = 0, pretend = 0, frame = 0
 2200              		@ frame_needed = 0, uses_anonymous_args = 0
 2201              		@ link register save eliminated.
 2202              	.LVL188:
1076:Generated_Source\PSoC4/CyLFClk.c ****         return ((CY_SYS_WDT_CONFIG_REG >> (counterNum * CY_SYS_WDT_CNT_SHIFT)) & CY_SYS_WDT_MODE_MA
 2203              		.loc 1 1076 0
 2204 0000 0300     		movs	r3, r0
1077:Generated_Source\PSoC4/CyLFClk.c ****     }
 2205              		.loc 1 1077 0
 2206 0002 034A     		ldr	r2, .L216
 2207 0004 DB00     		lsls	r3, r3, #3
 2208 0006 1068     		ldr	r0, [r2]
 2209              	.LVL189:
ARM GAS  C:\Users\AFDHAL~1\AppData\Local\Temp\cc29CzqQ.s 			page 91


1078:Generated_Source\PSoC4/CyLFClk.c **** 
 2210              		.loc 1 1078 0
 2211              		@ sp needed
1077:Generated_Source\PSoC4/CyLFClk.c ****     }
 2212              		.loc 1 1077 0
 2213 0008 D840     		lsrs	r0, r0, r3
 2214 000a 0323     		movs	r3, #3
 2215 000c 1840     		ands	r0, r3
1078:Generated_Source\PSoC4/CyLFClk.c **** 
 2216              		.loc 1 1078 0
 2217 000e 7047     		bx	lr
 2218              	.L217:
 2219              		.align	2
 2220              	.L216:
 2221 0010 0C020B40 		.word	1074463244
 2222              		.cfi_endproc
 2223              	.LFE22:
 2224              		.size	CySysWdtGetMode, .-CySysWdtGetMode
 2225              		.section	.text.CySysWdtSetClearOnMatch,"ax",%progbits
 2226              		.align	2
 2227              		.global	CySysWdtSetClearOnMatch
 2228              		.code	16
 2229              		.thumb_func
 2230              		.type	CySysWdtSetClearOnMatch, %function
 2231              	CySysWdtSetClearOnMatch:
 2232              	.LFB23:
1105:Generated_Source\PSoC4/CyLFClk.c ****         uint32 configRegValue;
 2233              		.loc 1 1105 0
 2234              		.cfi_startproc
 2235              		@ args = 0, pretend = 0, frame = 0
 2236              		@ frame_needed = 0, uses_anonymous_args = 0
 2237              	.LVL190:
 2238              	.LBB317:
 2239              	.LBB318:
1020:Generated_Source\PSoC4/CyLFClk.c ****     }
 2240              		.loc 1 1020 0
 2241 0000 084B     		ldr	r3, .L220
 2242 0002 C000     		lsls	r0, r0, #3
 2243              	.LVL191:
 2244 0004 1B68     		ldr	r3, [r3]
 2245              	.LBE318:
 2246              	.LBE317:
1111:Generated_Source\PSoC4/CyLFClk.c ****         {
 2247              		.loc 1 1111 0
 2248 0006 421C     		adds	r2, r0, #1
 2249 0008 D340     		lsrs	r3, r3, r2
 2250 000a 0122     		movs	r2, #1
1105:Generated_Source\PSoC4/CyLFClk.c ****         uint32 configRegValue;
 2251              		.loc 1 1105 0
 2252 000c 10B5     		push	{r4, lr}
 2253              		.cfi_def_cfa_offset 8
 2254              		.cfi_offset 4, -8
 2255              		.cfi_offset 14, -4
1111:Generated_Source\PSoC4/CyLFClk.c ****         {
 2256              		.loc 1 1111 0
 2257 000e 1A42     		tst	r2, r3
 2258 0010 07D1     		bne	.L218
ARM GAS  C:\Users\AFDHAL~1\AppData\Local\Temp\cc29CzqQ.s 			page 92


1114:Generated_Source\PSoC4/CyLFClk.c **** 
 2259              		.loc 1 1114 0
 2260 0012 0230     		adds	r0, r0, #2
1113:Generated_Source\PSoC4/CyLFClk.c ****                                      ((counterNum * CY_SYS_WDT_CNT_SHIFT) + CY_SYS_WDT_CNT_MATCH_CL
 2261              		.loc 1 1113 0
 2262 0014 8240     		lsls	r2, r2, r0
1117:Generated_Source\PSoC4/CyLFClk.c **** 
 2263              		.loc 1 1117 0
 2264 0016 8140     		lsls	r1, r1, r0
 2265              	.LVL192:
1113:Generated_Source\PSoC4/CyLFClk.c ****                                      ((counterNum * CY_SYS_WDT_CNT_SHIFT) + CY_SYS_WDT_CNT_MATCH_CL
 2266              		.loc 1 1113 0
 2267 0018 034C     		ldr	r4, .L220+4
 2268 001a 2368     		ldr	r3, [r4]
 2269 001c 9343     		bics	r3, r2
 2270              	.LVL193:
1117:Generated_Source\PSoC4/CyLFClk.c **** 
 2271              		.loc 1 1117 0
 2272 001e 1943     		orrs	r1, r3
 2273              	.LVL194:
1119:Generated_Source\PSoC4/CyLFClk.c ****         }
 2274              		.loc 1 1119 0
 2275 0020 2160     		str	r1, [r4]
 2276              	.LVL195:
 2277              	.L218:
1121:Generated_Source\PSoC4/CyLFClk.c **** 
 2278              		.loc 1 1121 0
 2279              		@ sp needed
 2280 0022 10BD     		pop	{r4, pc}
 2281              	.L221:
 2282              		.align	2
 2283              	.L220:
 2284 0024 10020B40 		.word	1074463248
 2285 0028 0C020B40 		.word	1074463244
 2286              		.cfi_endproc
 2287              	.LFE23:
 2288              		.size	CySysWdtSetClearOnMatch, .-CySysWdtSetClearOnMatch
 2289              		.section	.text.CySysWdtGetClearOnMatch,"ax",%progbits
 2290              		.align	2
 2291              		.global	CySysWdtGetClearOnMatch
 2292              		.code	16
 2293              		.thumb_func
 2294              		.type	CySysWdtGetClearOnMatch, %function
 2295              	CySysWdtGetClearOnMatch:
 2296              	.LFB24:
1138:Generated_Source\PSoC4/CyLFClk.c ****         CYASSERT((counterNum == CY_SYS_WDT_COUNTER0) ||
 2297              		.loc 1 1138 0
 2298              		.cfi_startproc
 2299              		@ args = 0, pretend = 0, frame = 0
 2300              		@ frame_needed = 0, uses_anonymous_args = 0
 2301              		@ link register save eliminated.
 2302              	.LVL196:
1142:Generated_Source\PSoC4/CyLFClk.c ****                         ((counterNum * CY_SYS_WDT_CNT_SHIFT) + CY_SYS_WDT_CNT_MATCH_CLR_SHIFT)) & 0
 2303              		.loc 1 1142 0
 2304 0000 044B     		ldr	r3, .L223
 2305 0002 C000     		lsls	r0, r0, #3
 2306              	.LVL197:
ARM GAS  C:\Users\AFDHAL~1\AppData\Local\Temp\cc29CzqQ.s 			page 93


 2307 0004 1B68     		ldr	r3, [r3]
 2308 0006 0230     		adds	r0, r0, #2
 2309 0008 C340     		lsrs	r3, r3, r0
 2310 000a 1800     		movs	r0, r3
 2311 000c 0123     		movs	r3, #1
1144:Generated_Source\PSoC4/CyLFClk.c **** 
 2312              		.loc 1 1144 0
 2313              		@ sp needed
1142:Generated_Source\PSoC4/CyLFClk.c ****                         ((counterNum * CY_SYS_WDT_CNT_SHIFT) + CY_SYS_WDT_CNT_MATCH_CLR_SHIFT)) & 0
 2314              		.loc 1 1142 0
 2315 000e 1840     		ands	r0, r3
1144:Generated_Source\PSoC4/CyLFClk.c **** 
 2316              		.loc 1 1144 0
 2317 0010 7047     		bx	lr
 2318              	.L224:
 2319 0012 C046     		.align	2
 2320              	.L223:
 2321 0014 0C020B40 		.word	1074463244
 2322              		.cfi_endproc
 2323              	.LFE24:
 2324              		.size	CySysWdtGetClearOnMatch, .-CySysWdtGetClearOnMatch
 2325              		.section	.text.CySysWdtEnable,"ax",%progbits
 2326              		.align	2
 2327              		.global	CySysWdtEnable
 2328              		.code	16
 2329              		.thumb_func
 2330              		.type	CySysWdtEnable, %function
 2331              	CySysWdtEnable:
 2332              	.LFB25:
1179:Generated_Source\PSoC4/CyLFClk.c ****         #if (!CY_IP_WCO)
 2333              		.loc 1 1179 0
 2334              		.cfi_startproc
 2335              		@ args = 0, pretend = 0, frame = 0
 2336              		@ frame_needed = 0, uses_anonymous_args = 0
 2337              		@ link register save eliminated.
 2338              	.LVL198:
1184:Generated_Source\PSoC4/CyLFClk.c **** 
 2339              		.loc 1 1184 0
 2340 0000 0D4A     		ldr	r2, .L250
 2341 0002 1368     		ldr	r3, [r2]
 2342 0004 0343     		orrs	r3, r0
 2343 0006 1360     		str	r3, [r2]
1186:Generated_Source\PSoC4/CyLFClk.c ****         {
 2344              		.loc 1 1186 0
 2345 0008 C307     		lsls	r3, r0, #31
 2346 000a 03D5     		bpl	.L226
1188:Generated_Source\PSoC4/CyLFClk.c ****             {
 2347              		.loc 1 1188 0 discriminator 1
 2348 000c 0221     		movs	r1, #2
 2349              	.L241:
 2350              	.LVL199:
 2351              	.LBB331:
 2352              	.LBB332:
1020:Generated_Source\PSoC4/CyLFClk.c ****     }
 2353              		.loc 1 1020 0 discriminator 1
 2354 000e 1368     		ldr	r3, [r2]
 2355              	.LVL200:
ARM GAS  C:\Users\AFDHAL~1\AppData\Local\Temp\cc29CzqQ.s 			page 94


 2356              	.LBE332:
 2357              	.LBE331:
1188:Generated_Source\PSoC4/CyLFClk.c ****             {
 2358              		.loc 1 1188 0 discriminator 1
 2359 0010 1942     		tst	r1, r3
 2360 0012 FCD0     		beq	.L241
 2361              	.L226:
1194:Generated_Source\PSoC4/CyLFClk.c ****         {
 2362              		.loc 1 1194 0
 2363 0014 C305     		lsls	r3, r0, #23
 2364 0016 05D5     		bpl	.L228
1196:Generated_Source\PSoC4/CyLFClk.c ****             {
 2365              		.loc 1 1196 0 discriminator 1
 2366 0018 8022     		movs	r2, #128
 2367              	.LBB333:
 2368              	.LBB334:
1020:Generated_Source\PSoC4/CyLFClk.c ****     }
 2369              		.loc 1 1020 0 discriminator 1
 2370 001a 0749     		ldr	r1, .L250
 2371              	.LBE334:
 2372              	.LBE333:
1196:Generated_Source\PSoC4/CyLFClk.c ****             {
 2373              		.loc 1 1196 0 discriminator 1
 2374 001c 9200     		lsls	r2, r2, #2
 2375              	.L242:
 2376              	.LVL201:
 2377              	.LBB336:
 2378              	.LBB335:
1020:Generated_Source\PSoC4/CyLFClk.c ****     }
 2379              		.loc 1 1020 0 discriminator 1
 2380 001e 0B68     		ldr	r3, [r1]
 2381              	.LVL202:
 2382              	.LBE335:
 2383              	.LBE336:
1196:Generated_Source\PSoC4/CyLFClk.c ****             {
 2384              		.loc 1 1196 0 discriminator 1
 2385 0020 1342     		tst	r3, r2
 2386 0022 FCD0     		beq	.L242
 2387              	.L228:
1202:Generated_Source\PSoC4/CyLFClk.c ****         {
 2388              		.loc 1 1202 0
 2389 0024 C303     		lsls	r3, r0, #15
 2390 0026 05D5     		bpl	.L225
 2391              	.LBB337:
 2392              	.LBB338:
1204:Generated_Source\PSoC4/CyLFClk.c ****             {
 2393              		.loc 1 1204 0
 2394 0028 8022     		movs	r2, #128
 2395              	.LBB339:
 2396              	.LBB340:
1020:Generated_Source\PSoC4/CyLFClk.c ****     }
 2397              		.loc 1 1020 0
 2398 002a 0349     		ldr	r1, .L250
 2399              	.LBE340:
 2400              	.LBE339:
1204:Generated_Source\PSoC4/CyLFClk.c ****             {
 2401              		.loc 1 1204 0
ARM GAS  C:\Users\AFDHAL~1\AppData\Local\Temp\cc29CzqQ.s 			page 95


 2402 002c 9202     		lsls	r2, r2, #10
 2403              	.L243:
 2404              	.LVL203:
 2405              	.LBB342:
 2406              	.LBB341:
1020:Generated_Source\PSoC4/CyLFClk.c ****     }
 2407              		.loc 1 1020 0
 2408 002e 0B68     		ldr	r3, [r1]
 2409              	.LVL204:
 2410              	.LBE341:
 2411              	.LBE342:
1204:Generated_Source\PSoC4/CyLFClk.c ****             {
 2412              		.loc 1 1204 0
 2413 0030 1342     		tst	r3, r2
 2414 0032 FCD0     		beq	.L243
 2415              	.L225:
 2416              	.LBE338:
 2417              	.LBE337:
1209:Generated_Source\PSoC4/CyLFClk.c **** 
 2418              		.loc 1 1209 0
 2419              		@ sp needed
 2420 0034 7047     		bx	lr
 2421              	.L251:
 2422 0036 C046     		.align	2
 2423              	.L250:
 2424 0038 10020B40 		.word	1074463248
 2425              		.cfi_endproc
 2426              	.LFE25:
 2427              		.size	CySysWdtEnable, .-CySysWdtEnable
 2428              		.section	.text.CySysWdtDisable,"ax",%progbits
 2429              		.align	2
 2430              		.global	CySysWdtDisable
 2431              		.code	16
 2432              		.thumb_func
 2433              		.type	CySysWdtDisable, %function
 2434              	CySysWdtDisable:
 2435              	.LFB26:
1227:Generated_Source\PSoC4/CyLFClk.c ****         if (0uL == CySysWdtLocked())
 2436              		.loc 1 1227 0
 2437              		.cfi_startproc
 2438              		@ args = 0, pretend = 0, frame = 0
 2439              		@ frame_needed = 0, uses_anonymous_args = 0
 2440              		@ link register save eliminated.
 2441              	.LVL205:
 2442              	.LBB343:
 2443              	.LBB344:
 972:Generated_Source\PSoC4/CyLFClk.c ****     }
 2444              		.loc 1 972 0
 2445 0000 104B     		ldr	r3, .L272
 2446 0002 1A68     		ldr	r2, [r3]
 2447 0004 C023     		movs	r3, #192
 2448 0006 1B02     		lsls	r3, r3, #8
 2449 0008 1A42     		tst	r2, r3
 2450 000a 19D1     		bne	.L252
 2451              	.LBE344:
 2452              	.LBE343:
1230:Generated_Source\PSoC4/CyLFClk.c **** 
ARM GAS  C:\Users\AFDHAL~1\AppData\Local\Temp\cc29CzqQ.s 			page 96


 2453              		.loc 1 1230 0
 2454 000c 0E4A     		ldr	r2, .L272+4
 2455 000e 1368     		ldr	r3, [r2]
 2456 0010 8343     		bics	r3, r0
 2457 0012 1360     		str	r3, [r2]
1232:Generated_Source\PSoC4/CyLFClk.c ****             {
 2458              		.loc 1 1232 0
 2459 0014 C307     		lsls	r3, r0, #31
 2460 0016 03D5     		bpl	.L259
1234:Generated_Source\PSoC4/CyLFClk.c ****                 {
 2461              		.loc 1 1234 0 discriminator 1
 2462 0018 0221     		movs	r1, #2
 2463              	.L266:
 2464              	.LVL206:
 2465              	.LBB345:
 2466              	.LBB346:
1020:Generated_Source\PSoC4/CyLFClk.c ****     }
 2467              		.loc 1 1020 0 discriminator 1
 2468 001a 1368     		ldr	r3, [r2]
 2469              	.LVL207:
 2470              	.LBE346:
 2471              	.LBE345:
1234:Generated_Source\PSoC4/CyLFClk.c ****                 {
 2472              		.loc 1 1234 0 discriminator 1
 2473 001c 1942     		tst	r1, r3
 2474 001e FCD1     		bne	.L266
 2475              	.L259:
1240:Generated_Source\PSoC4/CyLFClk.c ****             {
 2476              		.loc 1 1240 0
 2477 0020 C305     		lsls	r3, r0, #23
 2478 0022 05D5     		bpl	.L255
1242:Generated_Source\PSoC4/CyLFClk.c ****                 {
 2479              		.loc 1 1242 0 discriminator 1
 2480 0024 8022     		movs	r2, #128
 2481              	.LBB347:
 2482              	.LBB348:
1020:Generated_Source\PSoC4/CyLFClk.c ****     }
 2483              		.loc 1 1020 0 discriminator 1
 2484 0026 0849     		ldr	r1, .L272+4
 2485              	.LBE348:
 2486              	.LBE347:
1242:Generated_Source\PSoC4/CyLFClk.c ****                 {
 2487              		.loc 1 1242 0 discriminator 1
 2488 0028 9200     		lsls	r2, r2, #2
 2489              	.L265:
 2490              	.LVL208:
 2491              	.LBB350:
 2492              	.LBB349:
1020:Generated_Source\PSoC4/CyLFClk.c ****     }
 2493              		.loc 1 1020 0 discriminator 1
 2494 002a 0B68     		ldr	r3, [r1]
 2495              	.LVL209:
 2496              	.LBE349:
 2497              	.LBE350:
1242:Generated_Source\PSoC4/CyLFClk.c ****                 {
 2498              		.loc 1 1242 0 discriminator 1
 2499 002c 1342     		tst	r3, r2
ARM GAS  C:\Users\AFDHAL~1\AppData\Local\Temp\cc29CzqQ.s 			page 97


 2500 002e FCD1     		bne	.L265
 2501              	.L255:
1248:Generated_Source\PSoC4/CyLFClk.c ****             {
 2502              		.loc 1 1248 0
 2503 0030 C303     		lsls	r3, r0, #15
 2504 0032 05D5     		bpl	.L252
1250:Generated_Source\PSoC4/CyLFClk.c ****                 {
 2505              		.loc 1 1250 0 discriminator 1
 2506 0034 8022     		movs	r2, #128
 2507              	.LBB351:
 2508              	.LBB352:
1020:Generated_Source\PSoC4/CyLFClk.c ****     }
 2509              		.loc 1 1020 0 discriminator 1
 2510 0036 0449     		ldr	r1, .L272+4
 2511              	.LBE352:
 2512              	.LBE351:
1250:Generated_Source\PSoC4/CyLFClk.c ****                 {
 2513              		.loc 1 1250 0 discriminator 1
 2514 0038 9202     		lsls	r2, r2, #10
 2515              	.L264:
 2516              	.LVL210:
 2517              	.LBB354:
 2518              	.LBB353:
1020:Generated_Source\PSoC4/CyLFClk.c ****     }
 2519              		.loc 1 1020 0 discriminator 1
 2520 003a 0B68     		ldr	r3, [r1]
 2521              	.LVL211:
 2522              	.LBE353:
 2523              	.LBE354:
1250:Generated_Source\PSoC4/CyLFClk.c ****                 {
 2524              		.loc 1 1250 0 discriminator 1
 2525 003c 1342     		tst	r3, r2
 2526 003e FCD1     		bne	.L264
 2527              	.L252:
1256:Generated_Source\PSoC4/CyLFClk.c **** 
 2528              		.loc 1 1256 0
 2529              		@ sp needed
 2530 0040 7047     		bx	lr
 2531              	.L273:
 2532 0042 C046     		.align	2
 2533              	.L272:
 2534 0044 00010B40 		.word	1074462976
 2535 0048 10020B40 		.word	1074463248
 2536              		.cfi_endproc
 2537              	.LFE26:
 2538              		.size	CySysWdtDisable, .-CySysWdtDisable
 2539              		.section	.text.CySysWdtSetCascade,"ax",%progbits
 2540              		.align	2
 2541              		.global	CySysWdtSetCascade
 2542              		.code	16
 2543              		.thumb_func
 2544              		.type	CySysWdtSetCascade, %function
 2545              	CySysWdtSetCascade:
 2546              	.LFB27:
1286:Generated_Source\PSoC4/CyLFClk.c ****         uint32 configRegValue;
 2547              		.loc 1 1286 0
 2548              		.cfi_startproc
ARM GAS  C:\Users\AFDHAL~1\AppData\Local\Temp\cc29CzqQ.s 			page 98


 2549              		@ args = 0, pretend = 0, frame = 0
 2550              		@ frame_needed = 0, uses_anonymous_args = 0
 2551              	.LVL212:
 2552              	.LBB355:
 2553              	.LBB356:
1020:Generated_Source\PSoC4/CyLFClk.c ****     }
 2554              		.loc 1 1020 0
 2555 0000 094A     		ldr	r2, .L276
 2556              	.LBE356:
 2557              	.LBE355:
1286:Generated_Source\PSoC4/CyLFClk.c ****         uint32 configRegValue;
 2558              		.loc 1 1286 0
 2559 0002 10B5     		push	{r4, lr}
 2560              		.cfi_def_cfa_offset 8
 2561              		.cfi_offset 4, -8
 2562              		.cfi_offset 14, -4
 2563              	.LBB358:
 2564              	.LBB357:
1020:Generated_Source\PSoC4/CyLFClk.c ****     }
 2565              		.loc 1 1020 0
 2566 0004 1168     		ldr	r1, [r2]
 2567              	.LVL213:
 2568              	.LBE357:
 2569              	.LBE358:
 2570              	.LBB359:
 2571              	.LBB360:
 2572 0006 1368     		ldr	r3, [r2]
 2573              	.LVL214:
 2574              	.LBE360:
 2575              	.LBE359:
 2576              	.LBB361:
 2577              	.LBB362:
 2578 0008 1268     		ldr	r2, [r2]
 2579              	.LVL215:
 2580              	.LBE362:
 2581              	.LBE361:
1294:Generated_Source\PSoC4/CyLFClk.c ****         {
 2582              		.loc 1 1294 0
 2583 000a 5C0A     		lsrs	r4, r3, #9
 2584 000c 4B08     		lsrs	r3, r1, #1
 2585              	.LVL216:
 2586 000e 2343     		orrs	r3, r4
 2587 0010 520C     		lsrs	r2, r2, #17
 2588 0012 1343     		orrs	r3, r2
 2589 0014 DB07     		lsls	r3, r3, #31
 2590 0016 05D4     		bmi	.L274
1296:Generated_Source\PSoC4/CyLFClk.c ****             configRegValue &= ((uint32)(~(CY_SYS_WDT_CASCADE_01|CY_SYS_WDT_CASCADE_12)));
 2591              		.loc 1 1296 0
 2592 0018 044A     		ldr	r2, .L276+4
1297:Generated_Source\PSoC4/CyLFClk.c ****             configRegValue |= cascadeMask;
 2593              		.loc 1 1297 0
 2594 001a 054B     		ldr	r3, .L276+8
1296:Generated_Source\PSoC4/CyLFClk.c ****             configRegValue &= ((uint32)(~(CY_SYS_WDT_CASCADE_01|CY_SYS_WDT_CASCADE_12)));
 2595              		.loc 1 1296 0
 2596 001c 1168     		ldr	r1, [r2]
 2597              	.LVL217:
1297:Generated_Source\PSoC4/CyLFClk.c ****             configRegValue |= cascadeMask;
ARM GAS  C:\Users\AFDHAL~1\AppData\Local\Temp\cc29CzqQ.s 			page 99


 2598              		.loc 1 1297 0
 2599 001e 0B40     		ands	r3, r1
 2600              	.LVL218:
1298:Generated_Source\PSoC4/CyLFClk.c ****             CY_SYS_WDT_CONFIG_REG = configRegValue;
 2601              		.loc 1 1298 0
 2602 0020 1843     		orrs	r0, r3
 2603              	.LVL219:
1299:Generated_Source\PSoC4/CyLFClk.c ****         }
 2604              		.loc 1 1299 0
 2605 0022 1060     		str	r0, [r2]
 2606              	.LVL220:
 2607              	.L274:
1301:Generated_Source\PSoC4/CyLFClk.c **** 
 2608              		.loc 1 1301 0
 2609              		@ sp needed
 2610 0024 10BD     		pop	{r4, pc}
 2611              	.L277:
 2612 0026 C046     		.align	2
 2613              	.L276:
 2614 0028 10020B40 		.word	1074463248
 2615 002c 0C020B40 		.word	1074463244
 2616 0030 F7F7FFFF 		.word	-2057
 2617              		.cfi_endproc
 2618              	.LFE27:
 2619              		.size	CySysWdtSetCascade, .-CySysWdtSetCascade
 2620              		.section	.text.CySysWdtGetCascade,"ax",%progbits
 2621              		.align	2
 2622              		.global	CySysWdtGetCascade
 2623              		.code	16
 2624              		.thumb_func
 2625              		.type	CySysWdtGetCascade, %function
 2626              	CySysWdtGetCascade:
 2627              	.LFB28:
1317:Generated_Source\PSoC4/CyLFClk.c ****         return (CY_SYS_WDT_CONFIG_REG & (CY_SYS_WDT_CASCADE_01 | CY_SYS_WDT_CASCADE_12));
 2628              		.loc 1 1317 0
 2629              		.cfi_startproc
 2630              		@ args = 0, pretend = 0, frame = 0
 2631              		@ frame_needed = 0, uses_anonymous_args = 0
 2632              		@ link register save eliminated.
1318:Generated_Source\PSoC4/CyLFClk.c ****     }
 2633              		.loc 1 1318 0
 2634 0000 024B     		ldr	r3, .L279
1319:Generated_Source\PSoC4/CyLFClk.c **** 
 2635              		.loc 1 1319 0
 2636              		@ sp needed
1318:Generated_Source\PSoC4/CyLFClk.c ****     }
 2637              		.loc 1 1318 0
 2638 0002 1868     		ldr	r0, [r3]
 2639 0004 024B     		ldr	r3, .L279+4
 2640 0006 1840     		ands	r0, r3
1319:Generated_Source\PSoC4/CyLFClk.c **** 
 2641              		.loc 1 1319 0
 2642 0008 7047     		bx	lr
 2643              	.L280:
 2644 000a C046     		.align	2
 2645              	.L279:
 2646 000c 0C020B40 		.word	1074463244
ARM GAS  C:\Users\AFDHAL~1\AppData\Local\Temp\cc29CzqQ.s 			page 100


 2647 0010 08080000 		.word	2056
 2648              		.cfi_endproc
 2649              	.LFE28:
 2650              		.size	CySysWdtGetCascade, .-CySysWdtGetCascade
 2651              		.section	.text.CySysWdtSetMatch,"ax",%progbits
 2652              		.align	2
 2653              		.global	CySysWdtSetMatch
 2654              		.code	16
 2655              		.thumb_func
 2656              		.type	CySysWdtSetMatch, %function
 2657              	CySysWdtSetMatch:
 2658              	.LFB29:
1337:Generated_Source\PSoC4/CyLFClk.c ****         uint32 regValue;
 2659              		.loc 1 1337 0
 2660              		.cfi_startproc
 2661              		@ args = 0, pretend = 0, frame = 0
 2662              		@ frame_needed = 0, uses_anonymous_args = 0
 2663              	.LVL221:
1344:Generated_Source\PSoC4/CyLFClk.c **** 
 2664              		.loc 1 1344 0
 2665 0000 0E4B     		ldr	r3, .L288
1337:Generated_Source\PSoC4/CyLFClk.c ****         uint32 regValue;
 2666              		.loc 1 1337 0
 2667 0002 70B5     		push	{r4, r5, r6, lr}
 2668              		.cfi_def_cfa_offset 16
 2669              		.cfi_offset 4, -16
 2670              		.cfi_offset 5, -12
 2671              		.cfi_offset 6, -8
 2672              		.cfi_offset 14, -4
1344:Generated_Source\PSoC4/CyLFClk.c **** 
 2673              		.loc 1 1344 0
 2674 0004 1B68     		ldr	r3, [r3]
1337:Generated_Source\PSoC4/CyLFClk.c ****         uint32 regValue;
 2675              		.loc 1 1337 0
 2676 0006 0500     		movs	r5, r0
 2677 0008 0C00     		movs	r4, r1
1344:Generated_Source\PSoC4/CyLFClk.c **** 
 2678              		.loc 1 1344 0
 2679 000a 9B0F     		lsrs	r3, r3, #30
 2680 000c C920     		movs	r0, #201
 2681              	.LVL222:
 2682 000e 002B     		cmp	r3, #0
 2683 0010 00D0     		beq	.L282
 2684 0012 6C38     		subs	r0, r0, #108
 2685              	.L282:
1344:Generated_Source\PSoC4/CyLFClk.c **** 
 2686              		.loc 1 1344 0 is_stmt 0 discriminator 4
 2687 0014 FFF7FEFF 		bl	CyDelayUs
 2688              	.LVL223:
1348:Generated_Source\PSoC4/CyLFClk.c **** 
 2689              		.loc 1 1348 0 is_stmt 1 discriminator 4
 2690 0018 094A     		ldr	r2, .L288+4
1347:Generated_Source\PSoC4/CyLFClk.c ****         CY_SYS_WDT_MATCH_REG = (regValue | (match << (counterNum * CY_SYS_WDT_CNT_MATCH_SHIFT)));
 2691              		.loc 1 1347 0 discriminator 4
 2692 001a 2801     		lsls	r0, r5, #4
1348:Generated_Source\PSoC4/CyLFClk.c **** 
 2693              		.loc 1 1348 0 discriminator 4
ARM GAS  C:\Users\AFDHAL~1\AppData\Local\Temp\cc29CzqQ.s 			page 101


 2694 001c 8240     		lsls	r2, r2, r0
 2695 001e 8440     		lsls	r4, r4, r0
 2696              	.LVL224:
1346:Generated_Source\PSoC4/CyLFClk.c ****         regValue &= (uint32)~((uint32)(CY_SYS_WDT_LOWER_16BITS_MASK << (counterNum * CY_SYS_WDT_CNT
 2697              		.loc 1 1346 0 discriminator 4
 2698 0020 0849     		ldr	r1, .L288+8
1351:Generated_Source\PSoC4/CyLFClk.c ****     }
 2699              		.loc 1 1351 0 discriminator 4
 2700 0022 4320     		movs	r0, #67
1346:Generated_Source\PSoC4/CyLFClk.c ****         regValue &= (uint32)~((uint32)(CY_SYS_WDT_LOWER_16BITS_MASK << (counterNum * CY_SYS_WDT_CNT
 2701              		.loc 1 1346 0 discriminator 4
 2702 0024 0B68     		ldr	r3, [r1]
 2703              	.LVL225:
1348:Generated_Source\PSoC4/CyLFClk.c **** 
 2704              		.loc 1 1348 0 discriminator 4
 2705 0026 9343     		bics	r3, r2
 2706 0028 1C43     		orrs	r4, r3
1351:Generated_Source\PSoC4/CyLFClk.c ****     }
 2707              		.loc 1 1351 0 discriminator 4
 2708 002a 044B     		ldr	r3, .L288
1348:Generated_Source\PSoC4/CyLFClk.c **** 
 2709              		.loc 1 1348 0 discriminator 4
 2710 002c 0C60     		str	r4, [r1]
1351:Generated_Source\PSoC4/CyLFClk.c ****     }
 2711              		.loc 1 1351 0 discriminator 4
 2712 002e 1B68     		ldr	r3, [r3]
 2713 0030 9B0F     		lsrs	r3, r3, #30
 2714 0032 00D0     		beq	.L283
1351:Generated_Source\PSoC4/CyLFClk.c ****     }
 2715              		.loc 1 1351 0 is_stmt 0
 2716 0034 2438     		subs	r0, r0, #36
 2717              	.L283:
1351:Generated_Source\PSoC4/CyLFClk.c ****     }
 2718              		.loc 1 1351 0 discriminator 4
 2719 0036 FFF7FEFF 		bl	CyDelayUs
 2720              	.LVL226:
1352:Generated_Source\PSoC4/CyLFClk.c **** 
 2721              		.loc 1 1352 0 is_stmt 1 discriminator 4
 2722              		@ sp needed
 2723              	.LVL227:
 2724 003a 70BD     		pop	{r4, r5, r6, pc}
 2725              	.L289:
 2726              		.align	2
 2727              	.L288:
 2728 003c 0C020B40 		.word	1074463244
 2729 0040 FFFF0000 		.word	65535
 2730 0044 08020B40 		.word	1074463240
 2731              		.cfi_endproc
 2732              	.LFE29:
 2733              		.size	CySysWdtSetMatch, .-CySysWdtSetMatch
 2734              		.section	.text.CySysWdtSetToggleBit,"ax",%progbits
 2735              		.align	2
 2736              		.global	CySysWdtSetToggleBit
 2737              		.code	16
 2738              		.thumb_func
 2739              		.type	CySysWdtSetToggleBit, %function
 2740              	CySysWdtSetToggleBit:
ARM GAS  C:\Users\AFDHAL~1\AppData\Local\Temp\cc29CzqQ.s 			page 102


 2741              	.LFB30:
1376:Generated_Source\PSoC4/CyLFClk.c ****         uint32 configRegValue;
 2742              		.loc 1 1376 0
 2743              		.cfi_startproc
 2744              		@ args = 0, pretend = 0, frame = 0
 2745              		@ frame_needed = 0, uses_anonymous_args = 0
 2746              		@ link register save eliminated.
 2747              	.LVL228:
 2748              	.LBB363:
 2749              	.LBB364:
1020:Generated_Source\PSoC4/CyLFClk.c ****     }
 2750              		.loc 1 1020 0
 2751 0000 074B     		ldr	r3, .L292
 2752 0002 1B68     		ldr	r3, [r3]
 2753              	.LVL229:
 2754              	.LBE364:
 2755              	.LBE363:
1379:Generated_Source\PSoC4/CyLFClk.c ****         {
 2756              		.loc 1 1379 0
 2757 0004 9B03     		lsls	r3, r3, #14
 2758 0006 09D4     		bmi	.L290
1381:Generated_Source\PSoC4/CyLFClk.c ****             configRegValue &= (uint32)(~((uint32)(CY_SYS_WDT_CONFIG_BITS2_MASK << CY_SYS_WDT_CONFIG
 2759              		.loc 1 1381 0
 2760 0008 0649     		ldr	r1, .L292+4
1382:Generated_Source\PSoC4/CyLFClk.c ****             configRegValue |= ((bits & CY_SYS_WDT_CONFIG_BITS2_MASK) << CY_SYS_WDT_CONFIG_BITS2_POS
 2761              		.loc 1 1382 0
 2762 000a 074B     		ldr	r3, .L292+8
1381:Generated_Source\PSoC4/CyLFClk.c ****             configRegValue &= (uint32)(~((uint32)(CY_SYS_WDT_CONFIG_BITS2_MASK << CY_SYS_WDT_CONFIG
 2763              		.loc 1 1381 0
 2764 000c 0A68     		ldr	r2, [r1]
 2765              	.LVL230:
1383:Generated_Source\PSoC4/CyLFClk.c ****             CY_SYS_WDT_CONFIG_REG = configRegValue;
 2766              		.loc 1 1383 0
 2767 000e 0006     		lsls	r0, r0, #24
 2768              	.LVL231:
1382:Generated_Source\PSoC4/CyLFClk.c ****             configRegValue |= ((bits & CY_SYS_WDT_CONFIG_BITS2_MASK) << CY_SYS_WDT_CONFIG_BITS2_POS
 2769              		.loc 1 1382 0
 2770 0010 1340     		ands	r3, r2
 2771              	.LVL232:
1383:Generated_Source\PSoC4/CyLFClk.c ****             CY_SYS_WDT_CONFIG_REG = configRegValue;
 2772              		.loc 1 1383 0
 2773 0012 F822     		movs	r2, #248
 2774 0014 5205     		lsls	r2, r2, #21
 2775 0016 1040     		ands	r0, r2
 2776 0018 1843     		orrs	r0, r3
 2777              	.LVL233:
1384:Generated_Source\PSoC4/CyLFClk.c ****         }
 2778              		.loc 1 1384 0
 2779 001a 0860     		str	r0, [r1]
 2780              	.LVL234:
 2781              	.L290:
1386:Generated_Source\PSoC4/CyLFClk.c **** 
 2782              		.loc 1 1386 0
 2783              		@ sp needed
 2784 001c 7047     		bx	lr
 2785              	.L293:
 2786 001e C046     		.align	2
ARM GAS  C:\Users\AFDHAL~1\AppData\Local\Temp\cc29CzqQ.s 			page 103


 2787              	.L292:
 2788 0020 10020B40 		.word	1074463248
 2789 0024 0C020B40 		.word	1074463244
 2790 0028 FFFFFFE0 		.word	-520093697
 2791              		.cfi_endproc
 2792              	.LFE30:
 2793              		.size	CySysWdtSetToggleBit, .-CySysWdtSetToggleBit
 2794              		.section	.text.CySysWdtGetToggleBit,"ax",%progbits
 2795              		.align	2
 2796              		.global	CySysWdtGetToggleBit
 2797              		.code	16
 2798              		.thumb_func
 2799              		.type	CySysWdtGetToggleBit, %function
 2800              	CySysWdtGetToggleBit:
 2801              	.LFB31:
1399:Generated_Source\PSoC4/CyLFClk.c ****         return ((CY_SYS_WDT_CONFIG_REG >> CY_SYS_WDT_CONFIG_BITS2_POS) & CY_SYS_WDT_CONFIG_BITS2_MA
 2802              		.loc 1 1399 0
 2803              		.cfi_startproc
 2804              		@ args = 0, pretend = 0, frame = 0
 2805              		@ frame_needed = 0, uses_anonymous_args = 0
 2806              		@ link register save eliminated.
1400:Generated_Source\PSoC4/CyLFClk.c ****     }
 2807              		.loc 1 1400 0
 2808 0000 024B     		ldr	r3, .L295
1401:Generated_Source\PSoC4/CyLFClk.c **** 
 2809              		.loc 1 1401 0
 2810              		@ sp needed
1400:Generated_Source\PSoC4/CyLFClk.c ****     }
 2811              		.loc 1 1400 0
 2812 0002 1868     		ldr	r0, [r3]
 2813 0004 C000     		lsls	r0, r0, #3
 2814 0006 C00E     		lsrs	r0, r0, #27
1401:Generated_Source\PSoC4/CyLFClk.c **** 
 2815              		.loc 1 1401 0
 2816 0008 7047     		bx	lr
 2817              	.L296:
 2818 000a C046     		.align	2
 2819              	.L295:
 2820 000c 0C020B40 		.word	1074463244
 2821              		.cfi_endproc
 2822              	.LFE31:
 2823              		.size	CySysWdtGetToggleBit, .-CySysWdtGetToggleBit
 2824              		.section	.text.CySysWdtGetMatch,"ax",%progbits
 2825              		.align	2
 2826              		.global	CySysWdtGetMatch
 2827              		.code	16
 2828              		.thumb_func
 2829              		.type	CySysWdtGetMatch, %function
 2830              	CySysWdtGetMatch:
 2831              	.LFB32:
1417:Generated_Source\PSoC4/CyLFClk.c ****         CYASSERT((counterNum == CY_SYS_WDT_COUNTER0) ||
 2832              		.loc 1 1417 0
 2833              		.cfi_startproc
 2834              		@ args = 0, pretend = 0, frame = 0
 2835              		@ frame_needed = 0, uses_anonymous_args = 0
 2836              		@ link register save eliminated.
 2837              	.LVL235:
ARM GAS  C:\Users\AFDHAL~1\AppData\Local\Temp\cc29CzqQ.s 			page 104


1417:Generated_Source\PSoC4/CyLFClk.c ****         CYASSERT((counterNum == CY_SYS_WDT_COUNTER0) ||
 2838              		.loc 1 1417 0
 2839 0000 0300     		movs	r3, r0
1421:Generated_Source\PSoC4/CyLFClk.c ****                                             (counterNum * CY_SYS_WDT_CNT_MATCH_SHIFT)) & CY_SYS_WDT
 2840              		.loc 1 1421 0
 2841 0002 034A     		ldr	r2, .L298
 2842 0004 1B01     		lsls	r3, r3, #4
 2843 0006 1068     		ldr	r0, [r2]
 2844              	.LVL236:
1423:Generated_Source\PSoC4/CyLFClk.c **** 
 2845              		.loc 1 1423 0
 2846              		@ sp needed
1421:Generated_Source\PSoC4/CyLFClk.c ****                                             (counterNum * CY_SYS_WDT_CNT_MATCH_SHIFT)) & CY_SYS_WDT
 2847              		.loc 1 1421 0
 2848 0008 D840     		lsrs	r0, r0, r3
 2849 000a 0004     		lsls	r0, r0, #16
 2850 000c 000C     		lsrs	r0, r0, #16
1423:Generated_Source\PSoC4/CyLFClk.c **** 
 2851              		.loc 1 1423 0
 2852 000e 7047     		bx	lr
 2853              	.L299:
 2854              		.align	2
 2855              	.L298:
 2856 0010 08020B40 		.word	1074463240
 2857              		.cfi_endproc
 2858              	.LFE32:
 2859              		.size	CySysWdtGetMatch, .-CySysWdtGetMatch
 2860              		.section	.text.CySysWdtGetCount,"ax",%progbits
 2861              		.align	2
 2862              		.global	CySysWdtGetCount
 2863              		.code	16
 2864              		.thumb_func
 2865              		.type	CySysWdtGetCount, %function
 2866              	CySysWdtGetCount:
 2867              	.LFB33:
1439:Generated_Source\PSoC4/CyLFClk.c ****         uint32 regValue = 0u;
 2868              		.loc 1 1439 0
 2869              		.cfi_startproc
 2870              		@ args = 0, pretend = 0, frame = 0
 2871              		@ frame_needed = 0, uses_anonymous_args = 0
 2872              		@ link register save eliminated.
 2873              	.LVL237:
1442:Generated_Source\PSoC4/CyLFClk.c ****         {
 2874              		.loc 1 1442 0
 2875 0000 0128     		cmp	r0, #1
 2876 0002 0DD0     		beq	.L302
 2877 0004 0028     		cmp	r0, #0
 2878 0006 06D0     		beq	.L303
 2879 0008 0228     		cmp	r0, #2
 2880 000a 01D0     		beq	.L304
1440:Generated_Source\PSoC4/CyLFClk.c **** 
 2881              		.loc 1 1440 0
 2882 000c 0020     		movs	r0, #0
 2883              	.LVL238:
 2884              	.L301:
1465:Generated_Source\PSoC4/CyLFClk.c **** 
 2885              		.loc 1 1465 0
ARM GAS  C:\Users\AFDHAL~1\AppData\Local\Temp\cc29CzqQ.s 			page 105


 2886              		@ sp needed
 2887 000e 7047     		bx	lr
 2888              	.LVL239:
 2889              	.L304:
1456:Generated_Source\PSoC4/CyLFClk.c ****             break;
 2890              		.loc 1 1456 0
 2891 0010 054B     		ldr	r3, .L308
 2892 0012 1868     		ldr	r0, [r3]
 2893              	.LVL240:
1457:Generated_Source\PSoC4/CyLFClk.c **** 
 2894              		.loc 1 1457 0
 2895 0014 FBE7     		b	.L301
 2896              	.LVL241:
 2897              	.L303:
1446:Generated_Source\PSoC4/CyLFClk.c ****             break;
 2898              		.loc 1 1446 0
 2899 0016 054B     		ldr	r3, .L308+4
 2900 0018 1868     		ldr	r0, [r3]
 2901              	.LVL242:
 2902 001a 0004     		lsls	r0, r0, #16
 2903 001c 000C     		lsrs	r0, r0, #16
 2904              	.LVL243:
1447:Generated_Source\PSoC4/CyLFClk.c **** 
 2905              		.loc 1 1447 0
 2906 001e F6E7     		b	.L301
 2907              	.LVL244:
 2908              	.L302:
1451:Generated_Source\PSoC4/CyLFClk.c ****             break;
 2909              		.loc 1 1451 0
 2910 0020 024B     		ldr	r3, .L308+4
 2911 0022 1868     		ldr	r0, [r3]
 2912              	.LVL245:
 2913 0024 000C     		lsrs	r0, r0, #16
 2914              	.LVL246:
1452:Generated_Source\PSoC4/CyLFClk.c **** 
 2915              		.loc 1 1452 0
 2916 0026 F2E7     		b	.L301
 2917              	.L309:
 2918              		.align	2
 2919              	.L308:
 2920 0028 04020B40 		.word	1074463236
 2921 002c 00020B40 		.word	1074463232
 2922              		.cfi_endproc
 2923              	.LFE33:
 2924              		.size	CySysWdtGetCount, .-CySysWdtGetCount
 2925              		.section	.text.CySysWdtGetInterruptSource,"ax",%progbits
 2926              		.align	2
 2927              		.global	CySysWdtGetInterruptSource
 2928              		.code	16
 2929              		.thumb_func
 2930              		.type	CySysWdtGetInterruptSource, %function
 2931              	CySysWdtGetInterruptSource:
 2932              	.LFB34:
1482:Generated_Source\PSoC4/CyLFClk.c ****         return (CY_SYS_WDT_CONTROL_REG & (CY_SYS_WDT_COUNTER0_INT | CY_SYS_WDT_COUNTER1_INT | CY_SY
 2933              		.loc 1 1482 0
 2934              		.cfi_startproc
 2935              		@ args = 0, pretend = 0, frame = 0
ARM GAS  C:\Users\AFDHAL~1\AppData\Local\Temp\cc29CzqQ.s 			page 106


 2936              		@ frame_needed = 0, uses_anonymous_args = 0
 2937              		@ link register save eliminated.
1483:Generated_Source\PSoC4/CyLFClk.c ****     }
 2938              		.loc 1 1483 0
 2939 0000 024B     		ldr	r3, .L311
1484:Generated_Source\PSoC4/CyLFClk.c **** 
 2940              		.loc 1 1484 0
 2941              		@ sp needed
1483:Generated_Source\PSoC4/CyLFClk.c ****     }
 2942              		.loc 1 1483 0
 2943 0002 1868     		ldr	r0, [r3]
 2944 0004 024B     		ldr	r3, .L311+4
 2945 0006 1840     		ands	r0, r3
1484:Generated_Source\PSoC4/CyLFClk.c **** 
 2946              		.loc 1 1484 0
 2947 0008 7047     		bx	lr
 2948              	.L312:
 2949 000a C046     		.align	2
 2950              	.L311:
 2951 000c 10020B40 		.word	1074463248
 2952 0010 04040400 		.word	263172
 2953              		.cfi_endproc
 2954              	.LFE34:
 2955              		.size	CySysWdtGetInterruptSource, .-CySysWdtGetInterruptSource
 2956              		.section	.text.CySysWdtClearInterrupt,"ax",%progbits
 2957              		.align	2
 2958              		.global	CySysWdtClearInterrupt
 2959              		.code	16
 2960              		.thumb_func
 2961              		.type	CySysWdtClearInterrupt, %function
 2962              	CySysWdtClearInterrupt:
 2963              	.LFB35:
1511:Generated_Source\PSoC4/CyLFClk.c ****         uint8 interruptState;
 2964              		.loc 1 1511 0
 2965              		.cfi_startproc
 2966              		@ args = 0, pretend = 0, frame = 0
 2967              		@ frame_needed = 0, uses_anonymous_args = 0
 2968              	.LVL247:
 2969 0000 F8B5     		push	{r3, r4, r5, r6, r7, lr}
 2970              		.cfi_def_cfa_offset 24
 2971              		.cfi_offset 3, -24
 2972              		.cfi_offset 4, -20
 2973              		.cfi_offset 5, -16
 2974              		.cfi_offset 6, -12
 2975              		.cfi_offset 7, -8
 2976              		.cfi_offset 14, -4
 2977              	.LBB373:
 2978              	.LBB374:
 972:Generated_Source\PSoC4/CyLFClk.c ****     }
 2979              		.loc 1 972 0
 2980 0002 C026     		movs	r6, #192
 2981              	.LBE374:
 2982              	.LBE373:
1511:Generated_Source\PSoC4/CyLFClk.c ****         uint8 interruptState;
 2983              		.loc 1 1511 0
 2984 0004 0700     		movs	r7, r0
1515:Generated_Source\PSoC4/CyLFClk.c **** 
ARM GAS  C:\Users\AFDHAL~1\AppData\Local\Temp\cc29CzqQ.s 			page 107


 2985              		.loc 1 1515 0
 2986 0006 FFF7FEFF 		bl	CyEnterCriticalSection
 2987              	.LVL248:
 2988              	.LBB377:
 2989              	.LBB375:
 972:Generated_Source\PSoC4/CyLFClk.c ****     }
 2990              		.loc 1 972 0
 2991 000a 1B4C     		ldr	r4, .L318
 2992 000c 3602     		lsls	r6, r6, #8
 2993 000e 2368     		ldr	r3, [r4]
 2994              	.LBE375:
 2995              	.LBE377:
1515:Generated_Source\PSoC4/CyLFClk.c **** 
 2996              		.loc 1 1515 0
 2997 0010 0500     		movs	r5, r0
 2998              	.LVL249:
 2999              	.LBB378:
 3000              	.LBB376:
 972:Generated_Source\PSoC4/CyLFClk.c ****     }
 3001              		.loc 1 972 0
 3002 0012 3342     		tst	r3, r6
 3003 0014 25D0     		beq	.L317
 3004              	.LVL250:
 3005              	.LBE376:
 3006              	.LBE378:
 3007              	.LBB379:
 3008              	.LBB380:
 986:Generated_Source\PSoC4/CyLFClk.c **** 
 3009              		.loc 1 986 0
 3010 0016 FFF7FEFF 		bl	CyEnterCriticalSection
 3011              	.LVL251:
 989:Generated_Source\PSoC4/CyLFClk.c ****                 CY_SYS_WDT_CLK_LOCK_BIT0);
 3012              		.loc 1 989 0
 3013 001a 8021     		movs	r1, #128
 3014 001c 2268     		ldr	r2, [r4]
 3015 001e 174B     		ldr	r3, .L318+4
 3016 0020 C901     		lsls	r1, r1, #7
 3017 0022 1A40     		ands	r2, r3
 3018 0024 0A43     		orrs	r2, r1
 3019 0026 2260     		str	r2, [r4]
 992:Generated_Source\PSoC4/CyLFClk.c ****                 CY_SYS_WDT_CLK_LOCK_BIT1);
 3020              		.loc 1 992 0
 3021 0028 2268     		ldr	r2, [r4]
 3022 002a 1340     		ands	r3, r2
 3023 002c 8022     		movs	r2, #128
 3024 002e 1202     		lsls	r2, r2, #8
 3025 0030 1343     		orrs	r3, r2
 3026 0032 2360     		str	r3, [r4]
 995:Generated_Source\PSoC4/CyLFClk.c ****     }
 3027              		.loc 1 995 0
 3028 0034 FFF7FEFF 		bl	CyExitCriticalSection
 3029              	.LVL252:
 3030              	.LBE380:
 3031              	.LBE379:
1532:Generated_Source\PSoC4/CyLFClk.c ****                                                                            CY_SYS_WDT_COUNTER1_INT 
 3032              		.loc 1 1532 0
 3033 0038 1148     		ldr	r0, .L318+8
ARM GAS  C:\Users\AFDHAL~1\AppData\Local\Temp\cc29CzqQ.s 			page 108


 3034 003a 124A     		ldr	r2, .L318+12
 3035 003c 0740     		ands	r7, r0
 3036              	.LVL253:
 3037 003e 3800     		movs	r0, r7
 3038 0040 1168     		ldr	r1, [r2]
 3039 0042 114B     		ldr	r3, .L318+16
 3040 0044 0B40     		ands	r3, r1
 3041 0046 1843     		orrs	r0, r3
 3042 0048 1060     		str	r0, [r2]
1539:Generated_Source\PSoC4/CyLFClk.c **** 
 3043              		.loc 1 1539 0
 3044 004a 1368     		ldr	r3, [r2]
 3045              	.LVL254:
 3046              	.LBB381:
 3047              	.LBB382:
 951:Generated_Source\PSoC4/CyLFClk.c **** 
 3048              		.loc 1 951 0
 3049 004c FFF7FEFF 		bl	CyEnterCriticalSection
 3050              	.LVL255:
 953:Generated_Source\PSoC4/CyLFClk.c ****                  CY_SYS_WDT_CLK_LOCK_BITS_MASK;
 3051              		.loc 1 953 0
 3052 0050 2368     		ldr	r3, [r4]
 3053 0052 1E43     		orrs	r6, r3
 3054 0054 2660     		str	r6, [r4]
 956:Generated_Source\PSoC4/CyLFClk.c ****     }
 3055              		.loc 1 956 0
 3056 0056 FFF7FEFF 		bl	CyExitCriticalSection
 3057              	.LVL256:
 3058              	.L315:
 3059              	.LBE382:
 3060              	.LBE381:
1546:Generated_Source\PSoC4/CyLFClk.c ****     }
 3061              		.loc 1 1546 0
 3062 005a 2800     		movs	r0, r5
 3063 005c FFF7FEFF 		bl	CyExitCriticalSection
 3064              	.LVL257:
1547:Generated_Source\PSoC4/CyLFClk.c **** 
 3065              		.loc 1 1547 0
 3066              		@ sp needed
 3067              	.LVL258:
 3068 0060 F8BD     		pop	{r3, r4, r5, r6, r7, pc}
 3069              	.LVL259:
 3070              	.L317:
1532:Generated_Source\PSoC4/CyLFClk.c ****                                                                            CY_SYS_WDT_COUNTER1_INT 
 3071              		.loc 1 1532 0
 3072 0062 0748     		ldr	r0, .L318+8
 3073 0064 074A     		ldr	r2, .L318+12
 3074 0066 0740     		ands	r7, r0
 3075              	.LVL260:
 3076 0068 3800     		movs	r0, r7
 3077 006a 1168     		ldr	r1, [r2]
 3078 006c 064B     		ldr	r3, .L318+16
 3079 006e 0B40     		ands	r3, r1
 3080 0070 1843     		orrs	r0, r3
 3081 0072 1060     		str	r0, [r2]
1539:Generated_Source\PSoC4/CyLFClk.c **** 
 3082              		.loc 1 1539 0
ARM GAS  C:\Users\AFDHAL~1\AppData\Local\Temp\cc29CzqQ.s 			page 109


 3083 0074 1368     		ldr	r3, [r2]
 3084 0076 F0E7     		b	.L315
 3085              	.L319:
 3086              		.align	2
 3087              	.L318:
 3088 0078 00010B40 		.word	1074462976
 3089 007c FF3FFFFF 		.word	-49153
 3090 0080 04040400 		.word	263172
 3091 0084 10020B40 		.word	1074463248
 3092 0088 FBFBFBFF 		.word	-263173
 3093              		.cfi_endproc
 3094              	.LFE35:
 3095              		.size	CySysWdtClearInterrupt, .-CySysWdtClearInterrupt
 3096              		.section	.text.CySysWdtResetCounters,"ax",%progbits
 3097              		.align	2
 3098              		.global	CySysWdtResetCounters
 3099              		.code	16
 3100              		.thumb_func
 3101              		.type	CySysWdtResetCounters, %function
 3102              	CySysWdtResetCounters:
 3103              	.LFB36:
1569:Generated_Source\PSoC4/CyLFClk.c ****         /* Set new WDT reset value */
 3104              		.loc 1 1569 0
 3105              		.cfi_startproc
 3106              		@ args = 0, pretend = 0, frame = 0
 3107              		@ frame_needed = 0, uses_anonymous_args = 0
 3108              		@ link register save eliminated.
 3109              	.LVL261:
1571:Generated_Source\PSoC4/CyLFClk.c **** 
 3110              		.loc 1 1571 0
 3111 0000 044A     		ldr	r2, .L323
 3112 0002 0549     		ldr	r1, .L323+4
 3113 0004 1368     		ldr	r3, [r2]
 3114 0006 0840     		ands	r0, r1
 3115              	.LVL262:
 3116 0008 1843     		orrs	r0, r3
 3117 000a 1060     		str	r0, [r2]
 3118              	.L321:
1573:Generated_Source\PSoC4/CyLFClk.c ****         {
 3119              		.loc 1 1573 0 discriminator 1
 3120 000c 1368     		ldr	r3, [r2]
 3121 000e 0B42     		tst	r3, r1
 3122 0010 FCD1     		bne	.L321
1577:Generated_Source\PSoC4/CyLFClk.c **** 
 3123              		.loc 1 1577 0
 3124              		@ sp needed
 3125 0012 7047     		bx	lr
 3126              	.L324:
 3127              		.align	2
 3128              	.L323:
 3129 0014 10020B40 		.word	1074463248
 3130 0018 08080800 		.word	526344
 3131              		.cfi_endproc
 3132              	.LFE36:
 3133              		.size	CySysWdtResetCounters, .-CySysWdtResetCounters
 3134              		.section	.text.CySysWdtSetInterruptCallback,"ax",%progbits
 3135              		.align	2
ARM GAS  C:\Users\AFDHAL~1\AppData\Local\Temp\cc29CzqQ.s 			page 110


 3136              		.global	CySysWdtSetInterruptCallback
 3137              		.code	16
 3138              		.thumb_func
 3139              		.type	CySysWdtSetInterruptCallback, %function
 3140              	CySysWdtSetInterruptCallback:
 3141              	.LFB37:
1595:Generated_Source\PSoC4/CyLFClk.c ****         cyWdtCallback prevCallback = (void *)0;
 3142              		.loc 1 1595 0
 3143              		.cfi_startproc
 3144              		@ args = 0, pretend = 0, frame = 0
 3145              		@ frame_needed = 0, uses_anonymous_args = 0
 3146              		@ link register save eliminated.
 3147              	.LVL263:
1598:Generated_Source\PSoC4/CyLFClk.c ****         {
 3148              		.loc 1 1598 0
 3149 0000 0228     		cmp	r0, #2
 3150 0002 05D8     		bhi	.L327
1600:Generated_Source\PSoC4/CyLFClk.c ****             cySysWdtCallback[counterNum] = function;
 3151              		.loc 1 1600 0
 3152 0004 034B     		ldr	r3, .L328
 3153 0006 8000     		lsls	r0, r0, #2
 3154              	.LVL264:
 3155 0008 1B18     		adds	r3, r3, r0
 3156 000a 9869     		ldr	r0, [r3, #24]
 3157              	.LVL265:
1601:Generated_Source\PSoC4/CyLFClk.c ****         }
 3158              		.loc 1 1601 0
 3159 000c 9961     		str	r1, [r3, #24]
 3160              	.LVL266:
 3161              	.L326:
1609:Generated_Source\PSoC4/CyLFClk.c **** 
 3162              		.loc 1 1609 0
 3163              		@ sp needed
 3164 000e 7047     		bx	lr
 3165              	.LVL267:
 3166              	.L327:
1596:Generated_Source\PSoC4/CyLFClk.c **** 
 3167              		.loc 1 1596 0
 3168 0010 0020     		movs	r0, #0
 3169              	.LVL268:
 3170 0012 FCE7     		b	.L326
 3171              	.L329:
 3172              		.align	2
 3173              	.L328:
 3174 0014 00000000 		.word	.LANCHOR0
 3175              		.cfi_endproc
 3176              	.LFE37:
 3177              		.size	CySysWdtSetInterruptCallback, .-CySysWdtSetInterruptCallback
 3178              		.section	.text.CySysWdtGetInterruptCallback,"ax",%progbits
 3179              		.align	2
 3180              		.global	CySysWdtGetInterruptCallback
 3181              		.code	16
 3182              		.thumb_func
 3183              		.type	CySysWdtGetInterruptCallback, %function
 3184              	CySysWdtGetInterruptCallback:
 3185              	.LFB38:
1625:Generated_Source\PSoC4/CyLFClk.c ****         cyWdtCallback retCallback = (void *)0;
ARM GAS  C:\Users\AFDHAL~1\AppData\Local\Temp\cc29CzqQ.s 			page 111


 3186              		.loc 1 1625 0
 3187              		.cfi_startproc
 3188              		@ args = 0, pretend = 0, frame = 0
 3189              		@ frame_needed = 0, uses_anonymous_args = 0
 3190              		@ link register save eliminated.
 3191              	.LVL269:
1628:Generated_Source\PSoC4/CyLFClk.c ****         {
 3192              		.loc 1 1628 0
 3193 0000 0228     		cmp	r0, #2
 3194 0002 04D8     		bhi	.L332
1630:Generated_Source\PSoC4/CyLFClk.c ****         }
 3195              		.loc 1 1630 0
 3196 0004 034B     		ldr	r3, .L333
 3197 0006 8000     		lsls	r0, r0, #2
 3198              	.LVL270:
 3199 0008 1818     		adds	r0, r3, r0
 3200 000a 8069     		ldr	r0, [r0, #24]
 3201              	.LVL271:
 3202              	.L331:
1638:Generated_Source\PSoC4/CyLFClk.c **** 
 3203              		.loc 1 1638 0
 3204              		@ sp needed
 3205 000c 7047     		bx	lr
 3206              	.LVL272:
 3207              	.L332:
1626:Generated_Source\PSoC4/CyLFClk.c **** 
 3208              		.loc 1 1626 0
 3209 000e 0020     		movs	r0, #0
 3210              	.LVL273:
 3211 0010 FCE7     		b	.L331
 3212              	.L334:
 3213 0012 C046     		.align	2
 3214              	.L333:
 3215 0014 00000000 		.word	.LANCHOR0
 3216              		.cfi_endproc
 3217              	.LFE38:
 3218              		.size	CySysWdtGetInterruptCallback, .-CySysWdtGetInterruptCallback
 3219              		.section	.text.CySysWdtEnableCounterIsr,"ax",%progbits
 3220              		.align	2
 3221              		.global	CySysWdtEnableCounterIsr
 3222              		.code	16
 3223              		.thumb_func
 3224              		.type	CySysWdtEnableCounterIsr, %function
 3225              	CySysWdtEnableCounterIsr:
 3226              	.LFB39:
1654:Generated_Source\PSoC4/CyLFClk.c ****         if(counterNum <= CY_SYS_WDT_COUNTER2)
 3227              		.loc 1 1654 0
 3228              		.cfi_startproc
 3229              		@ args = 0, pretend = 0, frame = 0
 3230              		@ frame_needed = 0, uses_anonymous_args = 0
 3231              		@ link register save eliminated.
 3232              	.LVL274:
1655:Generated_Source\PSoC4/CyLFClk.c ****         {
 3233              		.loc 1 1655 0
 3234 0000 0228     		cmp	r0, #2
 3235 0002 0AD8     		bhi	.L335
1657:Generated_Source\PSoC4/CyLFClk.c ****             wdtIsrMask |= counterIntMaskTbl[counterNum];
ARM GAS  C:\Users\AFDHAL~1\AppData\Local\Temp\cc29CzqQ.s 			page 112


 3236              		.loc 1 1657 0
 3237 0004 054B     		ldr	r3, .L337
 3238 0006 8000     		lsls	r0, r0, #2
 3239              	.LVL275:
 3240 0008 C158     		ldr	r1, [r0, r3]
 3241 000a 054B     		ldr	r3, .L337+4
 3242 000c 5A6A     		ldr	r2, [r3, #36]
 3243 000e 8A43     		bics	r2, r1
 3244 0010 5A62     		str	r2, [r3, #36]
1658:Generated_Source\PSoC4/CyLFClk.c ****         }
 3245              		.loc 1 1658 0
 3246 0012 044A     		ldr	r2, .L337+8
 3247 0014 5368     		ldr	r3, [r2, #4]
 3248 0016 0B43     		orrs	r3, r1
 3249 0018 5360     		str	r3, [r2, #4]
 3250              	.L335:
1664:Generated_Source\PSoC4/CyLFClk.c **** 
 3251              		.loc 1 1664 0
 3252              		@ sp needed
 3253 001a 7047     		bx	lr
 3254              	.L338:
 3255              		.align	2
 3256              	.L337:
 3257 001c 00000000 		.word	.LANCHOR2
 3258 0020 00000000 		.word	.LANCHOR0
 3259 0024 00000000 		.word	.LANCHOR1
 3260              		.cfi_endproc
 3261              	.LFE39:
 3262              		.size	CySysWdtEnableCounterIsr, .-CySysWdtEnableCounterIsr
 3263              		.section	.text.CySysWdtDisableCounterIsr,"ax",%progbits
 3264              		.align	2
 3265              		.global	CySysWdtDisableCounterIsr
 3266              		.code	16
 3267              		.thumb_func
 3268              		.type	CySysWdtDisableCounterIsr, %function
 3269              	CySysWdtDisableCounterIsr:
 3270              	.LFB40:
1677:Generated_Source\PSoC4/CyLFClk.c ****         if(counterNum <= CY_SYS_WDT_COUNTER2)
 3271              		.loc 1 1677 0
 3272              		.cfi_startproc
 3273              		@ args = 0, pretend = 0, frame = 0
 3274              		@ frame_needed = 0, uses_anonymous_args = 0
 3275              		@ link register save eliminated.
 3276              	.LVL276:
1678:Generated_Source\PSoC4/CyLFClk.c ****         {
 3277              		.loc 1 1678 0
 3278 0000 0228     		cmp	r0, #2
 3279 0002 06D8     		bhi	.L339
1680:Generated_Source\PSoC4/CyLFClk.c ****         }
 3280              		.loc 1 1680 0
 3281 0004 034A     		ldr	r2, .L341
 3282 0006 0449     		ldr	r1, .L341+4
 3283 0008 8000     		lsls	r0, r0, #2
 3284              	.LVL277:
 3285 000a 5368     		ldr	r3, [r2, #4]
 3286 000c 4158     		ldr	r1, [r0, r1]
 3287 000e 8B43     		bics	r3, r1
ARM GAS  C:\Users\AFDHAL~1\AppData\Local\Temp\cc29CzqQ.s 			page 113


 3288 0010 5360     		str	r3, [r2, #4]
 3289              	.L339:
1686:Generated_Source\PSoC4/CyLFClk.c **** 
 3290              		.loc 1 1686 0
 3291              		@ sp needed
 3292 0012 7047     		bx	lr
 3293              	.L342:
 3294              		.align	2
 3295              	.L341:
 3296 0014 00000000 		.word	.LANCHOR1
 3297 0018 00000000 		.word	.LANCHOR2
 3298              		.cfi_endproc
 3299              	.LFE40:
 3300              		.size	CySysWdtDisableCounterIsr, .-CySysWdtDisableCounterIsr
 3301              		.section	.text.CySysWdtIsr,"ax",%progbits
 3302              		.align	2
 3303              		.global	CySysWdtIsr
 3304              		.code	16
 3305              		.thumb_func
 3306              		.type	CySysWdtIsr, %function
 3307              	CySysWdtIsr:
 3308              	.LFB41:
1710:Generated_Source\PSoC4/CyLFClk.c ****         if(0u != (CY_SYS_WDT_COUNTER0_INT & CY_SYS_WDT_CONTROL_REG))
 3309              		.loc 1 1710 0
 3310              		.cfi_startproc
 3311              		@ args = 0, pretend = 0, frame = 0
 3312              		@ frame_needed = 0, uses_anonymous_args = 0
1711:Generated_Source\PSoC4/CyLFClk.c ****         {
 3313              		.loc 1 1711 0
 3314 0000 714B     		ldr	r3, .L381
1710:Generated_Source\PSoC4/CyLFClk.c ****         if(0u != (CY_SYS_WDT_COUNTER0_INT & CY_SYS_WDT_CONTROL_REG))
 3315              		.loc 1 1710 0
 3316 0002 70B5     		push	{r4, r5, r6, lr}
 3317              		.cfi_def_cfa_offset 16
 3318              		.cfi_offset 4, -16
 3319              		.cfi_offset 5, -12
 3320              		.cfi_offset 6, -8
 3321              		.cfi_offset 14, -4
1711:Generated_Source\PSoC4/CyLFClk.c ****         {
 3322              		.loc 1 1711 0
 3323 0004 1A68     		ldr	r2, [r3]
 3324 0006 0423     		movs	r3, #4
 3325 0008 1342     		tst	r3, r2
 3326 000a 25D0     		beq	.L344
1713:Generated_Source\PSoC4/CyLFClk.c ****             {
 3327              		.loc 1 1713 0
 3328 000c 6F4A     		ldr	r2, .L381+4
 3329 000e 5168     		ldr	r1, [r2, #4]
 3330 0010 0B42     		tst	r3, r1
 3331 0012 0CD0     		beq	.L346
1715:Generated_Source\PSoC4/CyLFClk.c ****                 disableServicedIsr  &= ~CY_SYS_WDT_COUNTER0_INT;
 3332              		.loc 1 1715 0
 3333 0014 6E49     		ldr	r1, .L381+8
 3334 0016 4C6A     		ldr	r4, [r1, #36]
 3335 0018 5068     		ldr	r0, [r2, #4]
 3336 001a 1C40     		ands	r4, r3
 3337 001c A043     		bics	r0, r4
ARM GAS  C:\Users\AFDHAL~1\AppData\Local\Temp\cc29CzqQ.s 			page 114


 3338 001e 5060     		str	r0, [r2, #4]
1716:Generated_Source\PSoC4/CyLFClk.c ****                 if(cySysWdtCallback[CY_SYS_WDT_COUNTER0] != (void *) 0)
 3339              		.loc 1 1716 0
 3340 0020 4A6A     		ldr	r2, [r1, #36]
 3341 0022 9A43     		bics	r2, r3
1717:Generated_Source\PSoC4/CyLFClk.c ****                 {
 3342              		.loc 1 1717 0
 3343 0024 8B69     		ldr	r3, [r1, #24]
1716:Generated_Source\PSoC4/CyLFClk.c ****                 if(cySysWdtCallback[CY_SYS_WDT_COUNTER0] != (void *) 0)
 3344              		.loc 1 1716 0
 3345 0026 4A62     		str	r2, [r1, #36]
1717:Generated_Source\PSoC4/CyLFClk.c ****                 {
 3346              		.loc 1 1717 0
 3347 0028 002B     		cmp	r3, #0
 3348 002a 00D0     		beq	.L346
1719:Generated_Source\PSoC4/CyLFClk.c ****                 }
 3349              		.loc 1 1719 0
 3350 002c 9847     		blx	r3
 3351              	.LVL278:
 3352              	.L346:
 3353              	.LBB407:
 3354              	.LBB408:
 3355              	.LBB409:
 3356              	.LBB410:
 972:Generated_Source\PSoC4/CyLFClk.c ****     }
 3357              		.loc 1 972 0
 3358 002e C025     		movs	r5, #192
 3359              	.LBE410:
 3360              	.LBE409:
1515:Generated_Source\PSoC4/CyLFClk.c **** 
 3361              		.loc 1 1515 0
 3362 0030 FFF7FEFF 		bl	CyEnterCriticalSection
 3363              	.LVL279:
 3364              	.LBB413:
 3365              	.LBB411:
 972:Generated_Source\PSoC4/CyLFClk.c ****     }
 3366              		.loc 1 972 0
 3367 0034 674C     		ldr	r4, .L381+12
 3368 0036 2D02     		lsls	r5, r5, #8
 3369 0038 2368     		ldr	r3, [r4]
 3370              	.LBE411:
 3371              	.LBE413:
1515:Generated_Source\PSoC4/CyLFClk.c **** 
 3372              		.loc 1 1515 0
 3373 003a 0600     		movs	r6, r0
 3374              	.LVL280:
 3375              	.LBB414:
 3376              	.LBB412:
 972:Generated_Source\PSoC4/CyLFClk.c ****     }
 3377              		.loc 1 972 0
 3378 003c 2B42     		tst	r3, r5
 3379 003e 00D0     		beq	.LCB3094
 3380 0040 A0E0     		b	.L348	@long jump
 3381              	.LCB3094:
 3382              	.LVL281:
 3383              	.LBE412:
 3384              	.LBE414:
ARM GAS  C:\Users\AFDHAL~1\AppData\Local\Temp\cc29CzqQ.s 			page 115


1532:Generated_Source\PSoC4/CyLFClk.c ****                                                                            CY_SYS_WDT_COUNTER1_INT 
 3385              		.loc 1 1532 0
 3386 0042 614B     		ldr	r3, .L381
 3387 0044 644A     		ldr	r2, .L381+16
 3388 0046 1968     		ldr	r1, [r3]
 3389 0048 0A40     		ands	r2, r1
 3390 004a 0421     		movs	r1, #4
 3391 004c 0A43     		orrs	r2, r1
 3392 004e 1A60     		str	r2, [r3]
1539:Generated_Source\PSoC4/CyLFClk.c **** 
 3393              		.loc 1 1539 0
 3394 0050 1B68     		ldr	r3, [r3]
 3395              	.LVL282:
 3396              	.L357:
1546:Generated_Source\PSoC4/CyLFClk.c ****     }
 3397              		.loc 1 1546 0
 3398 0052 3000     		movs	r0, r6
 3399 0054 FFF7FEFF 		bl	CyExitCriticalSection
 3400              	.LVL283:
 3401              	.L344:
 3402              	.LBE408:
 3403              	.LBE407:
1725:Generated_Source\PSoC4/CyLFClk.c ****         {
 3404              		.loc 1 1725 0
 3405 0058 5B4B     		ldr	r3, .L381
 3406 005a 1A68     		ldr	r2, [r3]
 3407 005c 8023     		movs	r3, #128
 3408 005e DB00     		lsls	r3, r3, #3
 3409 0060 1A42     		tst	r2, r3
 3410 0062 26D0     		beq	.L349
1727:Generated_Source\PSoC4/CyLFClk.c ****             {
 3411              		.loc 1 1727 0
 3412 0064 594A     		ldr	r2, .L381+4
 3413 0066 5168     		ldr	r1, [r2, #4]
 3414 0068 1942     		tst	r1, r3
 3415 006a 0DD0     		beq	.L351
1729:Generated_Source\PSoC4/CyLFClk.c ****                 disableServicedIsr  &= ~CY_SYS_WDT_COUNTER1_INT;
 3416              		.loc 1 1729 0
 3417 006c 5849     		ldr	r1, .L381+8
 3418 006e 4C6A     		ldr	r4, [r1, #36]
 3419 0070 5068     		ldr	r0, [r2, #4]
 3420 0072 2340     		ands	r3, r4
 3421 0074 9843     		bics	r0, r3
 3422 0076 5060     		str	r0, [r2, #4]
1730:Generated_Source\PSoC4/CyLFClk.c ****                 if(cySysWdtCallback[CY_SYS_WDT_COUNTER1] != (void *) 0)
 3423              		.loc 1 1730 0
 3424 0078 4A6A     		ldr	r2, [r1, #36]
 3425 007a 584B     		ldr	r3, .L381+20
 3426 007c 1340     		ands	r3, r2
 3427 007e 4B62     		str	r3, [r1, #36]
1731:Generated_Source\PSoC4/CyLFClk.c ****                 {
 3428              		.loc 1 1731 0
 3429 0080 CB69     		ldr	r3, [r1, #28]
 3430 0082 002B     		cmp	r3, #0
 3431 0084 00D0     		beq	.L351
1733:Generated_Source\PSoC4/CyLFClk.c ****                 }
 3432              		.loc 1 1733 0
ARM GAS  C:\Users\AFDHAL~1\AppData\Local\Temp\cc29CzqQ.s 			page 116


 3433 0086 9847     		blx	r3
 3434              	.LVL284:
 3435              	.L351:
 3436              	.LBB420:
 3437              	.LBB421:
 3438              	.LBB422:
 3439              	.LBB423:
 972:Generated_Source\PSoC4/CyLFClk.c ****     }
 3440              		.loc 1 972 0
 3441 0088 C026     		movs	r6, #192
 3442              	.LBE423:
 3443              	.LBE422:
1515:Generated_Source\PSoC4/CyLFClk.c **** 
 3444              		.loc 1 1515 0
 3445 008a FFF7FEFF 		bl	CyEnterCriticalSection
 3446              	.LVL285:
 3447              	.LBB426:
 3448              	.LBB424:
 972:Generated_Source\PSoC4/CyLFClk.c ****     }
 3449              		.loc 1 972 0
 3450 008e 514C     		ldr	r4, .L381+12
 3451 0090 3602     		lsls	r6, r6, #8
 3452 0092 2368     		ldr	r3, [r4]
 3453              	.LBE424:
 3454              	.LBE426:
1515:Generated_Source\PSoC4/CyLFClk.c **** 
 3455              		.loc 1 1515 0
 3456 0094 0500     		movs	r5, r0
 3457              	.LVL286:
 3458              	.LBB427:
 3459              	.LBB425:
 972:Generated_Source\PSoC4/CyLFClk.c ****     }
 3460              		.loc 1 972 0
 3461 0096 3342     		tst	r3, r6
 3462 0098 52D1     		bne	.L353
 3463              	.LVL287:
 3464              	.LBE425:
 3465              	.LBE427:
1532:Generated_Source\PSoC4/CyLFClk.c ****                                                                            CY_SYS_WDT_COUNTER1_INT 
 3466              		.loc 1 1532 0
 3467 009a 4B4A     		ldr	r2, .L381
 3468 009c 4E4B     		ldr	r3, .L381+16
 3469 009e 1168     		ldr	r1, [r2]
 3470 00a0 0B40     		ands	r3, r1
 3471 00a2 8021     		movs	r1, #128
 3472 00a4 C900     		lsls	r1, r1, #3
 3473 00a6 0B43     		orrs	r3, r1
 3474 00a8 1360     		str	r3, [r2]
1539:Generated_Source\PSoC4/CyLFClk.c **** 
 3475              		.loc 1 1539 0
 3476 00aa 1368     		ldr	r3, [r2]
 3477              	.LVL288:
 3478              	.L358:
1546:Generated_Source\PSoC4/CyLFClk.c ****     }
 3479              		.loc 1 1546 0
 3480 00ac 2800     		movs	r0, r5
 3481 00ae FFF7FEFF 		bl	CyExitCriticalSection
ARM GAS  C:\Users\AFDHAL~1\AppData\Local\Temp\cc29CzqQ.s 			page 117


 3482              	.LVL289:
 3483              	.L349:
 3484              	.LBE421:
 3485              	.LBE420:
1739:Generated_Source\PSoC4/CyLFClk.c ****         {
 3486              		.loc 1 1739 0
 3487 00b2 454B     		ldr	r3, .L381
 3488 00b4 1A68     		ldr	r2, [r3]
 3489 00b6 8023     		movs	r3, #128
 3490 00b8 DB02     		lsls	r3, r3, #11
 3491 00ba 1A42     		tst	r2, r3
 3492 00bc 1DD0     		beq	.L343
1741:Generated_Source\PSoC4/CyLFClk.c ****             {
 3493              		.loc 1 1741 0
 3494 00be 434A     		ldr	r2, .L381+4
 3495 00c0 5268     		ldr	r2, [r2, #4]
 3496 00c2 1A42     		tst	r2, r3
 3497 00c4 04D0     		beq	.L355
1743:Generated_Source\PSoC4/CyLFClk.c ****                 {
 3498              		.loc 1 1743 0
 3499 00c6 424B     		ldr	r3, .L381+8
 3500 00c8 1B6A     		ldr	r3, [r3, #32]
 3501 00ca 002B     		cmp	r3, #0
 3502 00cc 00D0     		beq	.L355
1745:Generated_Source\PSoC4/CyLFClk.c ****                 }
 3503              		.loc 1 1745 0
 3504 00ce 9847     		blx	r3
 3505              	.LVL290:
 3506              	.L355:
 3507              	.LBB433:
 3508              	.LBB434:
 3509              	.LBB435:
 3510              	.LBB436:
 972:Generated_Source\PSoC4/CyLFClk.c ****     }
 3511              		.loc 1 972 0
 3512 00d0 C026     		movs	r6, #192
 3513              	.LBE436:
 3514              	.LBE435:
1515:Generated_Source\PSoC4/CyLFClk.c **** 
 3515              		.loc 1 1515 0
 3516 00d2 FFF7FEFF 		bl	CyEnterCriticalSection
 3517              	.LVL291:
 3518              	.LBB439:
 3519              	.LBB437:
 972:Generated_Source\PSoC4/CyLFClk.c ****     }
 3520              		.loc 1 972 0
 3521 00d6 3F4C     		ldr	r4, .L381+12
 3522 00d8 3602     		lsls	r6, r6, #8
 3523 00da 2368     		ldr	r3, [r4]
 3524              	.LBE437:
 3525              	.LBE439:
1515:Generated_Source\PSoC4/CyLFClk.c **** 
 3526              		.loc 1 1515 0
 3527 00dc 0500     		movs	r5, r0
 3528              	.LVL292:
 3529              	.LBB440:
 3530              	.LBB438:
ARM GAS  C:\Users\AFDHAL~1\AppData\Local\Temp\cc29CzqQ.s 			page 118


 972:Generated_Source\PSoC4/CyLFClk.c ****     }
 3531              		.loc 1 972 0
 3532 00de 3342     		tst	r3, r6
 3533 00e0 0CD1     		bne	.L356
 3534              	.LVL293:
 3535              	.LBE438:
 3536              	.LBE440:
1532:Generated_Source\PSoC4/CyLFClk.c ****                                                                            CY_SYS_WDT_COUNTER1_INT 
 3537              		.loc 1 1532 0
 3538 00e2 394A     		ldr	r2, .L381
 3539 00e4 3C4B     		ldr	r3, .L381+16
 3540 00e6 1168     		ldr	r1, [r2]
 3541 00e8 0B40     		ands	r3, r1
 3542 00ea 8021     		movs	r1, #128
 3543 00ec C902     		lsls	r1, r1, #11
 3544 00ee 0B43     		orrs	r3, r1
 3545 00f0 1360     		str	r3, [r2]
1539:Generated_Source\PSoC4/CyLFClk.c **** 
 3546              		.loc 1 1539 0
 3547 00f2 1368     		ldr	r3, [r2]
 3548              	.LVL294:
 3549              	.L359:
1546:Generated_Source\PSoC4/CyLFClk.c ****     }
 3550              		.loc 1 1546 0
 3551 00f4 2800     		movs	r0, r5
 3552 00f6 FFF7FEFF 		bl	CyExitCriticalSection
 3553              	.LVL295:
 3554              	.L343:
 3555              	.LBE434:
 3556              	.LBE433:
1750:Generated_Source\PSoC4/CyLFClk.c **** 
 3557              		.loc 1 1750 0
 3558              		@ sp needed
 3559 00fa 70BD     		pop	{r4, r5, r6, pc}
 3560              	.LVL296:
 3561              	.L356:
 3562              	.LBB446:
 3563              	.LBB445:
 3564              	.LBB441:
 3565              	.LBB442:
 986:Generated_Source\PSoC4/CyLFClk.c **** 
 3566              		.loc 1 986 0
 3567 00fc FFF7FEFF 		bl	CyEnterCriticalSection
 3568              	.LVL297:
 989:Generated_Source\PSoC4/CyLFClk.c ****                 CY_SYS_WDT_CLK_LOCK_BIT0);
 3569              		.loc 1 989 0
 3570 0100 8021     		movs	r1, #128
 3571 0102 2268     		ldr	r2, [r4]
 3572 0104 364B     		ldr	r3, .L381+24
 3573 0106 C901     		lsls	r1, r1, #7
 3574 0108 1A40     		ands	r2, r3
 3575 010a 0A43     		orrs	r2, r1
 3576 010c 2260     		str	r2, [r4]
 992:Generated_Source\PSoC4/CyLFClk.c ****                 CY_SYS_WDT_CLK_LOCK_BIT1);
 3577              		.loc 1 992 0
 3578 010e 2268     		ldr	r2, [r4]
 3579 0110 1340     		ands	r3, r2
ARM GAS  C:\Users\AFDHAL~1\AppData\Local\Temp\cc29CzqQ.s 			page 119


 3580 0112 8022     		movs	r2, #128
 3581 0114 1202     		lsls	r2, r2, #8
 3582 0116 1343     		orrs	r3, r2
 3583 0118 2360     		str	r3, [r4]
 995:Generated_Source\PSoC4/CyLFClk.c ****     }
 3584              		.loc 1 995 0
 3585 011a FFF7FEFF 		bl	CyExitCriticalSection
 3586              	.LVL298:
 3587              	.LBE442:
 3588              	.LBE441:
1532:Generated_Source\PSoC4/CyLFClk.c ****                                                                            CY_SYS_WDT_COUNTER1_INT 
 3589              		.loc 1 1532 0
 3590 011e 2A4A     		ldr	r2, .L381
 3591 0120 2D4B     		ldr	r3, .L381+16
 3592 0122 1168     		ldr	r1, [r2]
 3593 0124 0B40     		ands	r3, r1
 3594 0126 8021     		movs	r1, #128
 3595 0128 C902     		lsls	r1, r1, #11
 3596 012a 0B43     		orrs	r3, r1
 3597 012c 1360     		str	r3, [r2]
1539:Generated_Source\PSoC4/CyLFClk.c **** 
 3598              		.loc 1 1539 0
 3599 012e 1368     		ldr	r3, [r2]
 3600              	.LVL299:
 3601              	.LBB443:
 3602              	.LBB444:
 951:Generated_Source\PSoC4/CyLFClk.c **** 
 3603              		.loc 1 951 0
 3604 0130 FFF7FEFF 		bl	CyEnterCriticalSection
 3605              	.LVL300:
 953:Generated_Source\PSoC4/CyLFClk.c ****                  CY_SYS_WDT_CLK_LOCK_BITS_MASK;
 3606              		.loc 1 953 0
 3607 0134 2368     		ldr	r3, [r4]
 3608 0136 1E43     		orrs	r6, r3
 3609 0138 2660     		str	r6, [r4]
 956:Generated_Source\PSoC4/CyLFClk.c ****     }
 3610              		.loc 1 956 0
 3611 013a FFF7FEFF 		bl	CyExitCriticalSection
 3612              	.LVL301:
 3613 013e D9E7     		b	.L359
 3614              	.LVL302:
 3615              	.L353:
 3616              	.LBE444:
 3617              	.LBE443:
 3618              	.LBE445:
 3619              	.LBE446:
 3620              	.LBB447:
 3621              	.LBB432:
 3622              	.LBB428:
 3623              	.LBB429:
 986:Generated_Source\PSoC4/CyLFClk.c **** 
 3624              		.loc 1 986 0
 3625 0140 FFF7FEFF 		bl	CyEnterCriticalSection
 3626              	.LVL303:
 989:Generated_Source\PSoC4/CyLFClk.c ****                 CY_SYS_WDT_CLK_LOCK_BIT0);
 3627              		.loc 1 989 0
 3628 0144 8021     		movs	r1, #128
ARM GAS  C:\Users\AFDHAL~1\AppData\Local\Temp\cc29CzqQ.s 			page 120


 3629 0146 2268     		ldr	r2, [r4]
 3630 0148 254B     		ldr	r3, .L381+24
 3631 014a C901     		lsls	r1, r1, #7
 3632 014c 1A40     		ands	r2, r3
 3633 014e 0A43     		orrs	r2, r1
 3634 0150 2260     		str	r2, [r4]
 992:Generated_Source\PSoC4/CyLFClk.c ****                 CY_SYS_WDT_CLK_LOCK_BIT1);
 3635              		.loc 1 992 0
 3636 0152 2268     		ldr	r2, [r4]
 3637 0154 1340     		ands	r3, r2
 3638 0156 8022     		movs	r2, #128
 3639 0158 1202     		lsls	r2, r2, #8
 3640 015a 1343     		orrs	r3, r2
 3641 015c 2360     		str	r3, [r4]
 995:Generated_Source\PSoC4/CyLFClk.c ****     }
 3642              		.loc 1 995 0
 3643 015e FFF7FEFF 		bl	CyExitCriticalSection
 3644              	.LVL304:
 3645              	.LBE429:
 3646              	.LBE428:
1532:Generated_Source\PSoC4/CyLFClk.c ****                                                                            CY_SYS_WDT_COUNTER1_INT 
 3647              		.loc 1 1532 0
 3648 0162 194A     		ldr	r2, .L381
 3649 0164 1C4B     		ldr	r3, .L381+16
 3650 0166 1168     		ldr	r1, [r2]
 3651 0168 0B40     		ands	r3, r1
 3652 016a 8021     		movs	r1, #128
 3653 016c C900     		lsls	r1, r1, #3
 3654 016e 0B43     		orrs	r3, r1
 3655 0170 1360     		str	r3, [r2]
1539:Generated_Source\PSoC4/CyLFClk.c **** 
 3656              		.loc 1 1539 0
 3657 0172 1368     		ldr	r3, [r2]
 3658              	.LVL305:
 3659              	.LBB430:
 3660              	.LBB431:
 951:Generated_Source\PSoC4/CyLFClk.c **** 
 3661              		.loc 1 951 0
 3662 0174 FFF7FEFF 		bl	CyEnterCriticalSection
 3663              	.LVL306:
 953:Generated_Source\PSoC4/CyLFClk.c ****                  CY_SYS_WDT_CLK_LOCK_BITS_MASK;
 3664              		.loc 1 953 0
 3665 0178 2368     		ldr	r3, [r4]
 3666 017a 1E43     		orrs	r6, r3
 3667 017c 2660     		str	r6, [r4]
 956:Generated_Source\PSoC4/CyLFClk.c ****     }
 3668              		.loc 1 956 0
 3669 017e FFF7FEFF 		bl	CyExitCriticalSection
 3670              	.LVL307:
 3671 0182 93E7     		b	.L358
 3672              	.LVL308:
 3673              	.L348:
 3674              	.LBE431:
 3675              	.LBE430:
 3676              	.LBE432:
 3677              	.LBE447:
 3678              	.LBB448:
ARM GAS  C:\Users\AFDHAL~1\AppData\Local\Temp\cc29CzqQ.s 			page 121


 3679              	.LBB419:
 3680              	.LBB415:
 3681              	.LBB416:
 986:Generated_Source\PSoC4/CyLFClk.c **** 
 3682              		.loc 1 986 0
 3683 0184 FFF7FEFF 		bl	CyEnterCriticalSection
 3684              	.LVL309:
 989:Generated_Source\PSoC4/CyLFClk.c ****                 CY_SYS_WDT_CLK_LOCK_BIT0);
 3685              		.loc 1 989 0
 3686 0188 8021     		movs	r1, #128
 3687 018a 2268     		ldr	r2, [r4]
 3688 018c 144B     		ldr	r3, .L381+24
 3689 018e C901     		lsls	r1, r1, #7
 3690 0190 1A40     		ands	r2, r3
 3691 0192 0A43     		orrs	r2, r1
 3692 0194 2260     		str	r2, [r4]
 992:Generated_Source\PSoC4/CyLFClk.c ****                 CY_SYS_WDT_CLK_LOCK_BIT1);
 3693              		.loc 1 992 0
 3694 0196 2268     		ldr	r2, [r4]
 3695 0198 1340     		ands	r3, r2
 3696 019a 8022     		movs	r2, #128
 3697 019c 1202     		lsls	r2, r2, #8
 3698 019e 1343     		orrs	r3, r2
 3699 01a0 2360     		str	r3, [r4]
 995:Generated_Source\PSoC4/CyLFClk.c ****     }
 3700              		.loc 1 995 0
 3701 01a2 FFF7FEFF 		bl	CyExitCriticalSection
 3702              	.LVL310:
 3703              	.LBE416:
 3704              	.LBE415:
1532:Generated_Source\PSoC4/CyLFClk.c ****                                                                            CY_SYS_WDT_COUNTER1_INT 
 3705              		.loc 1 1532 0
 3706 01a6 084B     		ldr	r3, .L381
 3707 01a8 0B4A     		ldr	r2, .L381+16
 3708 01aa 1968     		ldr	r1, [r3]
 3709 01ac 0A40     		ands	r2, r1
 3710 01ae 0421     		movs	r1, #4
 3711 01b0 0A43     		orrs	r2, r1
 3712 01b2 1A60     		str	r2, [r3]
1539:Generated_Source\PSoC4/CyLFClk.c **** 
 3713              		.loc 1 1539 0
 3714 01b4 1B68     		ldr	r3, [r3]
 3715              	.LVL311:
 3716              	.LBB417:
 3717              	.LBB418:
 951:Generated_Source\PSoC4/CyLFClk.c **** 
 3718              		.loc 1 951 0
 3719 01b6 FFF7FEFF 		bl	CyEnterCriticalSection
 3720              	.LVL312:
 953:Generated_Source\PSoC4/CyLFClk.c ****                  CY_SYS_WDT_CLK_LOCK_BITS_MASK;
 3721              		.loc 1 953 0
 3722 01ba 2368     		ldr	r3, [r4]
 3723 01bc 1D43     		orrs	r5, r3
 3724 01be 2560     		str	r5, [r4]
 956:Generated_Source\PSoC4/CyLFClk.c ****     }
 3725              		.loc 1 956 0
 3726 01c0 FFF7FEFF 		bl	CyExitCriticalSection
ARM GAS  C:\Users\AFDHAL~1\AppData\Local\Temp\cc29CzqQ.s 			page 122


 3727              	.LVL313:
 3728 01c4 45E7     		b	.L357
 3729              	.L382:
 3730 01c6 C046     		.align	2
 3731              	.L381:
 3732 01c8 10020B40 		.word	1074463248
 3733 01cc 00000000 		.word	.LANCHOR1
 3734 01d0 00000000 		.word	.LANCHOR0
 3735 01d4 00010B40 		.word	1074462976
 3736 01d8 FBFBFBFF 		.word	-263173
 3737 01dc FFFBFFFF 		.word	-1025
 3738 01e0 FF3FFFFF 		.word	-49153
 3739              	.LBE418:
 3740              	.LBE417:
 3741              	.LBE419:
 3742              	.LBE448:
 3743              		.cfi_endproc
 3744              	.LFE41:
 3745              		.size	CySysWdtIsr, .-CySysWdtIsr
 3746              		.section	.text.CySysWatchdogFeed,"ax",%progbits
 3747              		.align	2
 3748              		.global	CySysWatchdogFeed
 3749              		.code	16
 3750              		.thumb_func
 3751              		.type	CySysWatchdogFeed, %function
 3752              	CySysWatchdogFeed:
 3753              	.LFB42:
1775:Generated_Source\PSoC4/CyLFClk.c ****         if(counterNum == CY_SYS_WDT_COUNTER0)
 3754              		.loc 1 1775 0
 3755              		.cfi_startproc
 3756              		@ args = 0, pretend = 0, frame = 0
 3757              		@ frame_needed = 0, uses_anonymous_args = 0
 3758              	.LVL314:
 3759 0000 F8B5     		push	{r3, r4, r5, r6, r7, lr}
 3760              		.cfi_def_cfa_offset 24
 3761              		.cfi_offset 3, -24
 3762              		.cfi_offset 4, -20
 3763              		.cfi_offset 5, -16
 3764              		.cfi_offset 6, -12
 3765              		.cfi_offset 7, -8
 3766              		.cfi_offset 14, -4
1776:Generated_Source\PSoC4/CyLFClk.c ****         {
 3767              		.loc 1 1776 0
 3768 0002 0028     		cmp	r0, #0
 3769 0004 0BD1     		bne	.L384
 3770              	.LVL315:
1778:Generated_Source\PSoC4/CyLFClk.c ****             {
 3771              		.loc 1 1778 0
 3772 0006 0322     		movs	r2, #3
 3773              	.LBB493:
 3774              	.LBB494:
1077:Generated_Source\PSoC4/CyLFClk.c ****     }
 3775              		.loc 1 1077 0
 3776 0008 8249     		ldr	r1, .L407
 3777 000a 0B68     		ldr	r3, [r1]
 3778              	.LVL316:
 3779              	.LBE494:
ARM GAS  C:\Users\AFDHAL~1\AppData\Local\Temp\cc29CzqQ.s 			page 123


 3780              	.LBE493:
1778:Generated_Source\PSoC4/CyLFClk.c ****             {
 3781              		.loc 1 1778 0
 3782 000c 1340     		ands	r3, r2
 3783 000e 032B     		cmp	r3, #3
 3784 0010 00D1     		bne	.LCB3500
 3785 0012 87E0     		b	.L400	@long jump
 3786              	.LCB3500:
 3787              	.LVL317:
 3788              	.LBB495:
 3789              	.LBB496:
1077:Generated_Source\PSoC4/CyLFClk.c ****     }
 3790              		.loc 1 1077 0
 3791 0014 0B68     		ldr	r3, [r1]
 3792              	.LVL318:
 3793              	.LBE496:
 3794              	.LBE495:
1782:Generated_Source\PSoC4/CyLFClk.c ****             {
 3795              		.loc 1 1782 0
 3796 0016 1340     		ands	r3, r2
 3797 0018 022B     		cmp	r3, #2
 3798 001a 45D0     		beq	.L401
 3799              	.LVL319:
 3800              	.L383:
1812:Generated_Source\PSoC4/CyLFClk.c **** 
 3801              		.loc 1 1812 0
 3802              		@ sp needed
 3803 001c F8BD     		pop	{r3, r4, r5, r6, r7, pc}
 3804              	.LVL320:
 3805              	.L384:
1792:Generated_Source\PSoC4/CyLFClk.c ****         {
 3806              		.loc 1 1792 0
 3807 001e 0128     		cmp	r0, #1
 3808 0020 FCD1     		bne	.L383
 3809              	.LVL321:
1794:Generated_Source\PSoC4/CyLFClk.c ****             {
 3810              		.loc 1 1794 0
 3811 0022 0322     		movs	r2, #3
 3812              	.LBB497:
 3813              	.LBB498:
1077:Generated_Source\PSoC4/CyLFClk.c ****     }
 3814              		.loc 1 1077 0
 3815 0024 7B49     		ldr	r1, .L407
 3816 0026 0B68     		ldr	r3, [r1]
 3817              	.LVL322:
 3818              	.LBE498:
 3819              	.LBE497:
1794:Generated_Source\PSoC4/CyLFClk.c ****             {
 3820              		.loc 1 1794 0
 3821 0028 1B0A     		lsrs	r3, r3, #8
 3822 002a 1340     		ands	r3, r2
 3823 002c 032B     		cmp	r3, #3
 3824 002e 00D1     		bne	.LCB3538
 3825 0030 B7E0     		b	.L402	@long jump
 3826              	.LCB3538:
 3827              	.LVL323:
 3828              	.LBB499:
ARM GAS  C:\Users\AFDHAL~1\AppData\Local\Temp\cc29CzqQ.s 			page 124


 3829              	.LBB500:
1077:Generated_Source\PSoC4/CyLFClk.c ****     }
 3830              		.loc 1 1077 0
 3831 0032 0B68     		ldr	r3, [r1]
 3832              	.LVL324:
 3833              	.LBE500:
 3834              	.LBE499:
1798:Generated_Source\PSoC4/CyLFClk.c ****             {
 3835              		.loc 1 1798 0
 3836 0034 1B0A     		lsrs	r3, r3, #8
 3837 0036 1340     		ands	r3, r2
 3838 0038 022B     		cmp	r3, #2
 3839 003a EFD1     		bne	.L383
 3840              	.LVL325:
 3841              	.LBB501:
 3842              	.LBB502:
1571:Generated_Source\PSoC4/CyLFClk.c **** 
 3843              		.loc 1 1571 0
 3844 003c 8021     		movs	r1, #128
 3845 003e 764A     		ldr	r2, .L407+4
 3846 0040 0901     		lsls	r1, r1, #4
 3847 0042 1368     		ldr	r3, [r2]
 3848 0044 0B43     		orrs	r3, r1
1573:Generated_Source\PSoC4/CyLFClk.c ****         {
 3849              		.loc 1 1573 0
 3850 0046 7549     		ldr	r1, .L407+8
1571:Generated_Source\PSoC4/CyLFClk.c **** 
 3851              		.loc 1 1571 0
 3852 0048 1360     		str	r3, [r2]
 3853              	.L392:
1573:Generated_Source\PSoC4/CyLFClk.c ****         {
 3854              		.loc 1 1573 0
 3855 004a 1368     		ldr	r3, [r2]
 3856 004c 724C     		ldr	r4, .L407+4
 3857 004e 0B42     		tst	r3, r1
 3858 0050 FBD1     		bne	.L392
 3859              	.LVL326:
 3860              	.LBE502:
 3861              	.LBE501:
 3862              	.LBB503:
 3863              	.LBB504:
 3864              	.LBB505:
 3865              	.LBB506:
 972:Generated_Source\PSoC4/CyLFClk.c ****     }
 3866              		.loc 1 972 0
 3867 0052 C027     		movs	r7, #192
 3868              	.LBE506:
 3869              	.LBE505:
1515:Generated_Source\PSoC4/CyLFClk.c **** 
 3870              		.loc 1 1515 0
 3871 0054 FFF7FEFF 		bl	CyEnterCriticalSection
 3872              	.LVL327:
 3873              	.LBB509:
 3874              	.LBB507:
 972:Generated_Source\PSoC4/CyLFClk.c ****     }
 3875              		.loc 1 972 0
 3876 0058 714D     		ldr	r5, .L407+12
ARM GAS  C:\Users\AFDHAL~1\AppData\Local\Temp\cc29CzqQ.s 			page 125


 3877 005a 3F02     		lsls	r7, r7, #8
 3878 005c 2B68     		ldr	r3, [r5]
 3879              	.LBE507:
 3880              	.LBE509:
1515:Generated_Source\PSoC4/CyLFClk.c **** 
 3881              		.loc 1 1515 0
 3882 005e 0600     		movs	r6, r0
 3883              	.LVL328:
 3884              	.LBB510:
 3885              	.LBB508:
 972:Generated_Source\PSoC4/CyLFClk.c ****     }
 3886              		.loc 1 972 0
 3887 0060 3B42     		tst	r3, r7
 3888 0062 00D1     		bne	.LCB3594
 3889 0064 8BE0     		b	.L403	@long jump
 3890              	.LCB3594:
 3891              	.LVL329:
 3892              	.LBE508:
 3893              	.LBE510:
 3894              	.LBB511:
 3895              	.LBB512:
 986:Generated_Source\PSoC4/CyLFClk.c **** 
 3896              		.loc 1 986 0
 3897 0066 FFF7FEFF 		bl	CyEnterCriticalSection
 3898              	.LVL330:
 989:Generated_Source\PSoC4/CyLFClk.c ****                 CY_SYS_WDT_CLK_LOCK_BIT0);
 3899              		.loc 1 989 0
 3900 006a 8021     		movs	r1, #128
 3901 006c 2A68     		ldr	r2, [r5]
 3902 006e 6D4B     		ldr	r3, .L407+16
 3903 0070 C901     		lsls	r1, r1, #7
 3904 0072 1A40     		ands	r2, r3
 3905 0074 0A43     		orrs	r2, r1
 3906 0076 2A60     		str	r2, [r5]
 992:Generated_Source\PSoC4/CyLFClk.c ****                 CY_SYS_WDT_CLK_LOCK_BIT1);
 3907              		.loc 1 992 0
 3908 0078 2A68     		ldr	r2, [r5]
 3909 007a 1340     		ands	r3, r2
 3910 007c 8022     		movs	r2, #128
 3911 007e 1202     		lsls	r2, r2, #8
 3912 0080 1343     		orrs	r3, r2
 3913 0082 2B60     		str	r3, [r5]
 995:Generated_Source\PSoC4/CyLFClk.c ****     }
 3914              		.loc 1 995 0
 3915 0084 FFF7FEFF 		bl	CyExitCriticalSection
 3916              	.LVL331:
 3917              	.LBE512:
 3918              	.LBE511:
1532:Generated_Source\PSoC4/CyLFClk.c ****                                                                            CY_SYS_WDT_COUNTER1_INT 
 3919              		.loc 1 1532 0
 3920 0088 2268     		ldr	r2, [r4]
 3921 008a 674B     		ldr	r3, .L407+20
 3922 008c 1340     		ands	r3, r2
 3923 008e 8022     		movs	r2, #128
 3924 0090 D200     		lsls	r2, r2, #3
 3925 0092 1343     		orrs	r3, r2
 3926 0094 2360     		str	r3, [r4]
ARM GAS  C:\Users\AFDHAL~1\AppData\Local\Temp\cc29CzqQ.s 			page 126


1539:Generated_Source\PSoC4/CyLFClk.c **** 
 3927              		.loc 1 1539 0
 3928 0096 2368     		ldr	r3, [r4]
 3929              	.LVL332:
 3930              	.LBB513:
 3931              	.LBB514:
 951:Generated_Source\PSoC4/CyLFClk.c **** 
 3932              		.loc 1 951 0
 3933 0098 FFF7FEFF 		bl	CyEnterCriticalSection
 3934              	.LVL333:
 953:Generated_Source\PSoC4/CyLFClk.c ****                  CY_SYS_WDT_CLK_LOCK_BITS_MASK;
 3935              		.loc 1 953 0
 3936 009c 2B68     		ldr	r3, [r5]
 3937 009e 1F43     		orrs	r7, r3
 3938 00a0 2F60     		str	r7, [r5]
 956:Generated_Source\PSoC4/CyLFClk.c ****     }
 3939              		.loc 1 956 0
 3940 00a2 FFF7FEFF 		bl	CyExitCriticalSection
 3941              	.LVL334:
 3942 00a6 66E0     		b	.L397
 3943              	.LVL335:
 3944              	.L401:
 3945              	.LBE514:
 3946              	.LBE513:
 3947              	.LBE504:
 3948              	.LBE503:
 3949              	.LBB517:
 3950              	.LBB518:
1571:Generated_Source\PSoC4/CyLFClk.c **** 
 3951              		.loc 1 1571 0
 3952 00a8 5B4A     		ldr	r2, .L407+4
 3953 00aa 0633     		adds	r3, r3, #6
 3954 00ac 1168     		ldr	r1, [r2]
 3955 00ae 0B43     		orrs	r3, r1
1573:Generated_Source\PSoC4/CyLFClk.c ****         {
 3956              		.loc 1 1573 0
 3957 00b0 5A49     		ldr	r1, .L407+8
1571:Generated_Source\PSoC4/CyLFClk.c **** 
 3958              		.loc 1 1571 0
 3959 00b2 1360     		str	r3, [r2]
 3960              	.L388:
1573:Generated_Source\PSoC4/CyLFClk.c ****         {
 3961              		.loc 1 1573 0
 3962 00b4 1368     		ldr	r3, [r2]
 3963 00b6 584C     		ldr	r4, .L407+4
 3964 00b8 0B42     		tst	r3, r1
 3965 00ba FBD1     		bne	.L388
 3966              	.LVL336:
 3967              	.LBE518:
 3968              	.LBE517:
 3969              	.LBB519:
 3970              	.LBB520:
 3971              	.LBB521:
 3972              	.LBB522:
 972:Generated_Source\PSoC4/CyLFClk.c ****     }
 3973              		.loc 1 972 0
 3974 00bc C026     		movs	r6, #192
ARM GAS  C:\Users\AFDHAL~1\AppData\Local\Temp\cc29CzqQ.s 			page 127


 3975              	.LBE522:
 3976              	.LBE521:
1515:Generated_Source\PSoC4/CyLFClk.c **** 
 3977              		.loc 1 1515 0
 3978 00be FFF7FEFF 		bl	CyEnterCriticalSection
 3979              	.LVL337:
 3980              	.LBB525:
 3981              	.LBB523:
 972:Generated_Source\PSoC4/CyLFClk.c ****     }
 3982              		.loc 1 972 0
 3983 00c2 574D     		ldr	r5, .L407+12
 3984 00c4 3602     		lsls	r6, r6, #8
 3985 00c6 2B68     		ldr	r3, [r5]
 3986              	.LBE523:
 3987              	.LBE525:
1515:Generated_Source\PSoC4/CyLFClk.c **** 
 3988              		.loc 1 1515 0
 3989 00c8 0700     		movs	r7, r0
 3990              	.LVL338:
 3991              	.LBB526:
 3992              	.LBB524:
 972:Generated_Source\PSoC4/CyLFClk.c ****     }
 3993              		.loc 1 972 0
 3994 00ca 3342     		tst	r3, r6
 3995 00cc 22D0     		beq	.L404
 3996              	.LVL339:
 3997              	.LBE524:
 3998              	.LBE526:
 3999              	.LBB527:
 4000              	.LBB528:
 986:Generated_Source\PSoC4/CyLFClk.c **** 
 4001              		.loc 1 986 0
 4002 00ce FFF7FEFF 		bl	CyEnterCriticalSection
 4003              	.LVL340:
 989:Generated_Source\PSoC4/CyLFClk.c ****                 CY_SYS_WDT_CLK_LOCK_BIT0);
 4004              		.loc 1 989 0
 4005 00d2 8021     		movs	r1, #128
 4006 00d4 2A68     		ldr	r2, [r5]
 4007 00d6 534B     		ldr	r3, .L407+16
 4008 00d8 C901     		lsls	r1, r1, #7
 4009 00da 1A40     		ands	r2, r3
 4010 00dc 0A43     		orrs	r2, r1
 4011 00de 2A60     		str	r2, [r5]
 992:Generated_Source\PSoC4/CyLFClk.c ****                 CY_SYS_WDT_CLK_LOCK_BIT1);
 4012              		.loc 1 992 0
 4013 00e0 2A68     		ldr	r2, [r5]
 4014 00e2 1340     		ands	r3, r2
 4015 00e4 8022     		movs	r2, #128
 4016 00e6 1202     		lsls	r2, r2, #8
 4017 00e8 1343     		orrs	r3, r2
 4018 00ea 2B60     		str	r3, [r5]
 995:Generated_Source\PSoC4/CyLFClk.c ****     }
 4019              		.loc 1 995 0
 4020 00ec FFF7FEFF 		bl	CyExitCriticalSection
 4021              	.LVL341:
 4022              	.LBE528:
 4023              	.LBE527:
ARM GAS  C:\Users\AFDHAL~1\AppData\Local\Temp\cc29CzqQ.s 			page 128


1532:Generated_Source\PSoC4/CyLFClk.c ****                                                                            CY_SYS_WDT_COUNTER1_INT 
 4024              		.loc 1 1532 0
 4025 00f0 2268     		ldr	r2, [r4]
 4026 00f2 4D4B     		ldr	r3, .L407+20
 4027 00f4 1340     		ands	r3, r2
 4028 00f6 0422     		movs	r2, #4
 4029 00f8 1343     		orrs	r3, r2
 4030 00fa 2360     		str	r3, [r4]
1539:Generated_Source\PSoC4/CyLFClk.c **** 
 4031              		.loc 1 1539 0
 4032 00fc 2368     		ldr	r3, [r4]
 4033              	.LVL342:
 4034              	.LBB529:
 4035              	.LBB530:
 951:Generated_Source\PSoC4/CyLFClk.c **** 
 4036              		.loc 1 951 0
 4037 00fe FFF7FEFF 		bl	CyEnterCriticalSection
 4038              	.LVL343:
 953:Generated_Source\PSoC4/CyLFClk.c ****                  CY_SYS_WDT_CLK_LOCK_BITS_MASK;
 4039              		.loc 1 953 0
 4040 0102 2B68     		ldr	r3, [r5]
 4041 0104 1E43     		orrs	r6, r3
 4042 0106 2E60     		str	r6, [r5]
 956:Generated_Source\PSoC4/CyLFClk.c ****     }
 4043              		.loc 1 956 0
 4044 0108 FFF7FEFF 		bl	CyExitCriticalSection
 4045              	.LVL344:
 4046              	.L395:
 4047              	.LBE530:
 4048              	.LBE529:
1546:Generated_Source\PSoC4/CyLFClk.c ****     }
 4049              		.loc 1 1546 0
 4050 010c 3800     		movs	r0, r7
 4051 010e FFF7FEFF 		bl	CyExitCriticalSection
 4052              	.LVL345:
 4053 0112 83E7     		b	.L383
 4054              	.L404:
 4055              	.LVL346:
1532:Generated_Source\PSoC4/CyLFClk.c ****                                                                            CY_SYS_WDT_COUNTER1_INT 
 4056              		.loc 1 1532 0
 4057 0114 2268     		ldr	r2, [r4]
 4058 0116 444B     		ldr	r3, .L407+20
 4059 0118 1340     		ands	r3, r2
 4060 011a 0422     		movs	r2, #4
 4061 011c 1343     		orrs	r3, r2
 4062 011e 2360     		str	r3, [r4]
1539:Generated_Source\PSoC4/CyLFClk.c **** 
 4063              		.loc 1 1539 0
 4064 0120 2368     		ldr	r3, [r4]
 4065 0122 F3E7     		b	.L395
 4066              	.LVL347:
 4067              	.L400:
 4068              	.LBE520:
 4069              	.LBE519:
 4070              	.LBB531:
 4071              	.LBB532:
 4072              	.LBB533:
ARM GAS  C:\Users\AFDHAL~1\AppData\Local\Temp\cc29CzqQ.s 			page 129


 4073              	.LBB534:
 972:Generated_Source\PSoC4/CyLFClk.c ****     }
 4074              		.loc 1 972 0
 4075 0124 C025     		movs	r5, #192
 4076              	.LBE534:
 4077              	.LBE533:
1515:Generated_Source\PSoC4/CyLFClk.c **** 
 4078              		.loc 1 1515 0
 4079 0126 FFF7FEFF 		bl	CyEnterCriticalSection
 4080              	.LVL348:
 4081              	.LBB537:
 4082              	.LBB535:
 972:Generated_Source\PSoC4/CyLFClk.c ****     }
 4083              		.loc 1 972 0
 4084 012a 3D4C     		ldr	r4, .L407+12
 4085 012c 2D02     		lsls	r5, r5, #8
 4086 012e 2368     		ldr	r3, [r4]
 4087              	.LBE535:
 4088              	.LBE537:
1515:Generated_Source\PSoC4/CyLFClk.c **** 
 4089              		.loc 1 1515 0
 4090 0130 0600     		movs	r6, r0
 4091              	.LVL349:
 4092              	.LBB538:
 4093              	.LBB536:
 972:Generated_Source\PSoC4/CyLFClk.c ****     }
 4094              		.loc 1 972 0
 4095 0132 2B42     		tst	r3, r5
 4096 0134 2CD0     		beq	.L405
 4097              	.LVL350:
 4098              	.LBE536:
 4099              	.LBE538:
 4100              	.LBB539:
 4101              	.LBB540:
 986:Generated_Source\PSoC4/CyLFClk.c **** 
 4102              		.loc 1 986 0
 4103 0136 FFF7FEFF 		bl	CyEnterCriticalSection
 4104              	.LVL351:
 989:Generated_Source\PSoC4/CyLFClk.c ****                 CY_SYS_WDT_CLK_LOCK_BIT0);
 4105              		.loc 1 989 0
 4106 013a 8021     		movs	r1, #128
 4107 013c 2268     		ldr	r2, [r4]
 4108 013e 394B     		ldr	r3, .L407+16
 4109 0140 C901     		lsls	r1, r1, #7
 4110 0142 1A40     		ands	r2, r3
 4111 0144 0A43     		orrs	r2, r1
 4112 0146 2260     		str	r2, [r4]
 992:Generated_Source\PSoC4/CyLFClk.c ****                 CY_SYS_WDT_CLK_LOCK_BIT1);
 4113              		.loc 1 992 0
 4114 0148 2268     		ldr	r2, [r4]
 4115 014a 1340     		ands	r3, r2
 4116 014c 8022     		movs	r2, #128
 4117 014e 1202     		lsls	r2, r2, #8
 4118 0150 1343     		orrs	r3, r2
 4119 0152 2360     		str	r3, [r4]
 995:Generated_Source\PSoC4/CyLFClk.c ****     }
 4120              		.loc 1 995 0
ARM GAS  C:\Users\AFDHAL~1\AppData\Local\Temp\cc29CzqQ.s 			page 130


 4121 0154 FFF7FEFF 		bl	CyExitCriticalSection
 4122              	.LVL352:
 4123              	.LBE540:
 4124              	.LBE539:
1532:Generated_Source\PSoC4/CyLFClk.c ****                                                                            CY_SYS_WDT_COUNTER1_INT 
 4125              		.loc 1 1532 0
 4126 0158 2F4B     		ldr	r3, .L407+4
 4127 015a 334A     		ldr	r2, .L407+20
 4128 015c 1968     		ldr	r1, [r3]
 4129 015e 0A40     		ands	r2, r1
 4130 0160 0421     		movs	r1, #4
 4131 0162 0A43     		orrs	r2, r1
 4132 0164 1A60     		str	r2, [r3]
1539:Generated_Source\PSoC4/CyLFClk.c **** 
 4133              		.loc 1 1539 0
 4134 0166 1B68     		ldr	r3, [r3]
 4135              	.LVL353:
 4136              	.LBB541:
 4137              	.LBB542:
 951:Generated_Source\PSoC4/CyLFClk.c **** 
 4138              		.loc 1 951 0
 4139 0168 FFF7FEFF 		bl	CyEnterCriticalSection
 4140              	.LVL354:
 953:Generated_Source\PSoC4/CyLFClk.c ****                  CY_SYS_WDT_CLK_LOCK_BITS_MASK;
 4141              		.loc 1 953 0
 4142 016c 2368     		ldr	r3, [r4]
 4143 016e 1D43     		orrs	r5, r3
 4144 0170 2560     		str	r5, [r4]
 956:Generated_Source\PSoC4/CyLFClk.c ****     }
 4145              		.loc 1 956 0
 4146 0172 FFF7FEFF 		bl	CyExitCriticalSection
 4147              	.LVL355:
 4148              	.L397:
 4149              	.LBE542:
 4150              	.LBE541:
 4151              	.LBE532:
 4152              	.LBE531:
 4153              	.LBB544:
 4154              	.LBB515:
1546:Generated_Source\PSoC4/CyLFClk.c ****     }
 4155              		.loc 1 1546 0
 4156 0176 3000     		movs	r0, r6
 4157 0178 FFF7FEFF 		bl	CyExitCriticalSection
 4158              	.LVL356:
 4159              	.LBE515:
 4160              	.LBE544:
1812:Generated_Source\PSoC4/CyLFClk.c **** 
 4161              		.loc 1 1812 0
 4162 017c 4EE7     		b	.L383
 4163              	.LVL357:
 4164              	.L403:
 4165              	.LBB545:
 4166              	.LBB516:
1532:Generated_Source\PSoC4/CyLFClk.c ****                                                                            CY_SYS_WDT_COUNTER1_INT 
 4167              		.loc 1 1532 0
 4168 017e 2268     		ldr	r2, [r4]
 4169 0180 294B     		ldr	r3, .L407+20
ARM GAS  C:\Users\AFDHAL~1\AppData\Local\Temp\cc29CzqQ.s 			page 131


 4170 0182 1340     		ands	r3, r2
 4171 0184 8022     		movs	r2, #128
 4172 0186 D200     		lsls	r2, r2, #3
 4173 0188 1343     		orrs	r3, r2
 4174 018a 2360     		str	r3, [r4]
1539:Generated_Source\PSoC4/CyLFClk.c **** 
 4175              		.loc 1 1539 0
 4176 018c 2368     		ldr	r3, [r4]
 4177 018e F2E7     		b	.L397
 4178              	.LVL358:
 4179              	.L405:
 4180              	.LBE516:
 4181              	.LBE545:
 4182              	.LBB546:
 4183              	.LBB543:
1532:Generated_Source\PSoC4/CyLFClk.c ****                                                                            CY_SYS_WDT_COUNTER1_INT 
 4184              		.loc 1 1532 0
 4185 0190 214B     		ldr	r3, .L407+4
 4186 0192 254A     		ldr	r2, .L407+20
 4187 0194 1968     		ldr	r1, [r3]
 4188 0196 0A40     		ands	r2, r1
 4189 0198 0421     		movs	r1, #4
 4190 019a 0A43     		orrs	r2, r1
 4191 019c 1A60     		str	r2, [r3]
1539:Generated_Source\PSoC4/CyLFClk.c **** 
 4192              		.loc 1 1539 0
 4193 019e 1B68     		ldr	r3, [r3]
 4194 01a0 E9E7     		b	.L397
 4195              	.LVL359:
 4196              	.L402:
 4197              	.LBE543:
 4198              	.LBE546:
 4199              	.LBB547:
 4200              	.LBB548:
 4201              	.LBB549:
 4202              	.LBB550:
 972:Generated_Source\PSoC4/CyLFClk.c ****     }
 4203              		.loc 1 972 0
 4204 01a2 C026     		movs	r6, #192
 4205              	.LBE550:
 4206              	.LBE549:
1515:Generated_Source\PSoC4/CyLFClk.c **** 
 4207              		.loc 1 1515 0
 4208 01a4 FFF7FEFF 		bl	CyEnterCriticalSection
 4209              	.LVL360:
 4210              	.LBB553:
 4211              	.LBB551:
 972:Generated_Source\PSoC4/CyLFClk.c ****     }
 4212              		.loc 1 972 0
 4213 01a8 1D4C     		ldr	r4, .L407+12
 4214 01aa 3602     		lsls	r6, r6, #8
 4215 01ac 2368     		ldr	r3, [r4]
 4216              	.LBE551:
 4217              	.LBE553:
1515:Generated_Source\PSoC4/CyLFClk.c **** 
 4218              		.loc 1 1515 0
 4219 01ae 0500     		movs	r5, r0
ARM GAS  C:\Users\AFDHAL~1\AppData\Local\Temp\cc29CzqQ.s 			page 132


 4220              	.LVL361:
 4221              	.LBB554:
 4222              	.LBB552:
 972:Generated_Source\PSoC4/CyLFClk.c ****     }
 4223              		.loc 1 972 0
 4224 01b0 3342     		tst	r3, r6
 4225 01b2 24D0     		beq	.L406
 4226              	.LVL362:
 4227              	.LBE552:
 4228              	.LBE554:
 4229              	.LBB555:
 4230              	.LBB556:
 986:Generated_Source\PSoC4/CyLFClk.c **** 
 4231              		.loc 1 986 0
 4232 01b4 FFF7FEFF 		bl	CyEnterCriticalSection
 4233              	.LVL363:
 989:Generated_Source\PSoC4/CyLFClk.c ****                 CY_SYS_WDT_CLK_LOCK_BIT0);
 4234              		.loc 1 989 0
 4235 01b8 8021     		movs	r1, #128
 4236 01ba 2268     		ldr	r2, [r4]
 4237 01bc 194B     		ldr	r3, .L407+16
 4238 01be C901     		lsls	r1, r1, #7
 4239 01c0 1A40     		ands	r2, r3
 4240 01c2 0A43     		orrs	r2, r1
 4241 01c4 2260     		str	r2, [r4]
 992:Generated_Source\PSoC4/CyLFClk.c ****                 CY_SYS_WDT_CLK_LOCK_BIT1);
 4242              		.loc 1 992 0
 4243 01c6 2268     		ldr	r2, [r4]
 4244 01c8 1340     		ands	r3, r2
 4245 01ca 8022     		movs	r2, #128
 4246 01cc 1202     		lsls	r2, r2, #8
 4247 01ce 1343     		orrs	r3, r2
 4248 01d0 2360     		str	r3, [r4]
 995:Generated_Source\PSoC4/CyLFClk.c ****     }
 4249              		.loc 1 995 0
 4250 01d2 FFF7FEFF 		bl	CyExitCriticalSection
 4251              	.LVL364:
 4252              	.LBE556:
 4253              	.LBE555:
1532:Generated_Source\PSoC4/CyLFClk.c ****                                                                            CY_SYS_WDT_COUNTER1_INT 
 4254              		.loc 1 1532 0
 4255 01d6 104A     		ldr	r2, .L407+4
 4256 01d8 134B     		ldr	r3, .L407+20
 4257 01da 1168     		ldr	r1, [r2]
 4258 01dc 0B40     		ands	r3, r1
 4259 01de 8021     		movs	r1, #128
 4260 01e0 C900     		lsls	r1, r1, #3
 4261 01e2 0B43     		orrs	r3, r1
 4262 01e4 1360     		str	r3, [r2]
1539:Generated_Source\PSoC4/CyLFClk.c **** 
 4263              		.loc 1 1539 0
 4264 01e6 1368     		ldr	r3, [r2]
 4265              	.LVL365:
 4266              	.LBB557:
 4267              	.LBB558:
 951:Generated_Source\PSoC4/CyLFClk.c **** 
 4268              		.loc 1 951 0
ARM GAS  C:\Users\AFDHAL~1\AppData\Local\Temp\cc29CzqQ.s 			page 133


 4269 01e8 FFF7FEFF 		bl	CyEnterCriticalSection
 4270              	.LVL366:
 953:Generated_Source\PSoC4/CyLFClk.c ****                  CY_SYS_WDT_CLK_LOCK_BITS_MASK;
 4271              		.loc 1 953 0
 4272 01ec 2368     		ldr	r3, [r4]
 4273 01ee 1E43     		orrs	r6, r3
 4274 01f0 2660     		str	r6, [r4]
 956:Generated_Source\PSoC4/CyLFClk.c ****     }
 4275              		.loc 1 956 0
 4276 01f2 FFF7FEFF 		bl	CyExitCriticalSection
 4277              	.LVL367:
 4278              	.L396:
 4279              	.LBE558:
 4280              	.LBE557:
1546:Generated_Source\PSoC4/CyLFClk.c ****     }
 4281              		.loc 1 1546 0
 4282 01f6 2800     		movs	r0, r5
 4283 01f8 FFF7FEFF 		bl	CyExitCriticalSection
 4284              	.LVL368:
 4285 01fc 0EE7     		b	.L383
 4286              	.L406:
 4287              	.LVL369:
1532:Generated_Source\PSoC4/CyLFClk.c ****                                                                            CY_SYS_WDT_COUNTER1_INT 
 4288              		.loc 1 1532 0
 4289 01fe 064A     		ldr	r2, .L407+4
 4290 0200 094B     		ldr	r3, .L407+20
 4291 0202 1168     		ldr	r1, [r2]
 4292 0204 0B40     		ands	r3, r1
 4293 0206 8021     		movs	r1, #128
 4294 0208 C900     		lsls	r1, r1, #3
 4295 020a 0B43     		orrs	r3, r1
 4296 020c 1360     		str	r3, [r2]
1539:Generated_Source\PSoC4/CyLFClk.c **** 
 4297              		.loc 1 1539 0
 4298 020e 1368     		ldr	r3, [r2]
 4299 0210 F1E7     		b	.L396
 4300              	.L408:
 4301 0212 C046     		.align	2
 4302              	.L407:
 4303 0214 0C020B40 		.word	1074463244
 4304 0218 10020B40 		.word	1074463248
 4305 021c 08080800 		.word	526344
 4306 0220 00010B40 		.word	1074462976
 4307 0224 FF3FFFFF 		.word	-49153
 4308 0228 FBFBFBFF 		.word	-263173
 4309              	.LBE548:
 4310              	.LBE547:
 4311              		.cfi_endproc
 4312              	.LFE42:
 4313              		.size	CySysWatchdogFeed, .-CySysWatchdogFeed
 4314              		.section	.text.CySysTimerDelay,"ax",%progbits
 4315              		.align	2
 4316              		.global	CySysTimerDelay
 4317              		.code	16
 4318              		.thumb_func
 4319              		.type	CySysTimerDelay, %function
 4320              	CySysTimerDelay:
ARM GAS  C:\Users\AFDHAL~1\AppData\Local\Temp\cc29CzqQ.s 			page 134


 4321              	.LFB45:
1902:Generated_Source\PSoC4/CyLFClk.c ****         }
1903:Generated_Source\PSoC4/CyLFClk.c ****     }
1904:Generated_Source\PSoC4/CyLFClk.c **** 
1905:Generated_Source\PSoC4/CyLFClk.c **** #else
1906:Generated_Source\PSoC4/CyLFClk.c **** 
1907:Generated_Source\PSoC4/CyLFClk.c ****     /*******************************************************************************
1908:Generated_Source\PSoC4/CyLFClk.c ****     * Function Name: CySysWdtGetEnabledStatus
1909:Generated_Source\PSoC4/CyLFClk.c ****     ****************************************************************************//**
1910:Generated_Source\PSoC4/CyLFClk.c ****     *
1911:Generated_Source\PSoC4/CyLFClk.c ****     * \brief Reads the enabled status of the WDT counter.
1912:Generated_Source\PSoC4/CyLFClk.c ****     *
1913:Generated_Source\PSoC4/CyLFClk.c ****     * \return The status of the WDT counter:
1914:Generated_Source\PSoC4/CyLFClk.c ****     * \return 0 - Counter is disabled
1915:Generated_Source\PSoC4/CyLFClk.c ****     * \return 1 - Counter is enabled
1916:Generated_Source\PSoC4/CyLFClk.c ****     *
1917:Generated_Source\PSoC4/CyLFClk.c ****     *******************************************************************************/
1918:Generated_Source\PSoC4/CyLFClk.c ****     uint32 CySysWdtGetEnabledStatus(void)
1919:Generated_Source\PSoC4/CyLFClk.c ****     {
1920:Generated_Source\PSoC4/CyLFClk.c ****         return ((CY_SYS_WDT_DISABLE_KEY_REG == CY_SYS_WDT_KEY) ? (uint32) 0u : (uint32) 1u);
1921:Generated_Source\PSoC4/CyLFClk.c ****     }
1922:Generated_Source\PSoC4/CyLFClk.c **** 
1923:Generated_Source\PSoC4/CyLFClk.c **** 
1924:Generated_Source\PSoC4/CyLFClk.c ****     /*******************************************************************************
1925:Generated_Source\PSoC4/CyLFClk.c ****     * Function Name: CySysWdtEnable
1926:Generated_Source\PSoC4/CyLFClk.c ****     ****************************************************************************//**
1927:Generated_Source\PSoC4/CyLFClk.c ****     *
1928:Generated_Source\PSoC4/CyLFClk.c ****     * \brief
1929:Generated_Source\PSoC4/CyLFClk.c ****     * Enables watchdog timer reset generation.
1930:Generated_Source\PSoC4/CyLFClk.c ****     *
1931:Generated_Source\PSoC4/CyLFClk.c ****     * CySysWdtClearInterrupt() feeds the watchdog. Two unserviced interrupts lead 
1932:Generated_Source\PSoC4/CyLFClk.c ****     * to a system reset (i.e. at the third match).
1933:Generated_Source\PSoC4/CyLFClk.c ****     *
1934:Generated_Source\PSoC4/CyLFClk.c ****     * ILO is enabled by the hardware once WDT is started.
1935:Generated_Source\PSoC4/CyLFClk.c ****     *
1936:Generated_Source\PSoC4/CyLFClk.c ****     *******************************************************************************/
1937:Generated_Source\PSoC4/CyLFClk.c ****     void CySysWdtEnable(void)
1938:Generated_Source\PSoC4/CyLFClk.c ****     {
1939:Generated_Source\PSoC4/CyLFClk.c ****         CY_SYS_WDT_DISABLE_KEY_REG = 0u;
1940:Generated_Source\PSoC4/CyLFClk.c ****     }
1941:Generated_Source\PSoC4/CyLFClk.c **** 
1942:Generated_Source\PSoC4/CyLFClk.c **** 
1943:Generated_Source\PSoC4/CyLFClk.c ****     /*******************************************************************************
1944:Generated_Source\PSoC4/CyLFClk.c ****     * Function Name: CySysWdtDisable
1945:Generated_Source\PSoC4/CyLFClk.c ****     ****************************************************************************//**
1946:Generated_Source\PSoC4/CyLFClk.c ****     *
1947:Generated_Source\PSoC4/CyLFClk.c ****     * \brief Disables the WDT reset generation.
1948:Generated_Source\PSoC4/CyLFClk.c ****     *
1949:Generated_Source\PSoC4/CyLFClk.c ****     * This function unlocks the ENABLE bit in the CLK_ILO_CONFIG registers and
1950:Generated_Source\PSoC4/CyLFClk.c ****     * enables the user to disable ILO.
1951:Generated_Source\PSoC4/CyLFClk.c ****     *
1952:Generated_Source\PSoC4/CyLFClk.c ****     *******************************************************************************/
1953:Generated_Source\PSoC4/CyLFClk.c ****     void CySysWdtDisable(void)
1954:Generated_Source\PSoC4/CyLFClk.c ****     {
1955:Generated_Source\PSoC4/CyLFClk.c ****         CY_SYS_WDT_DISABLE_KEY_REG = CY_SYS_WDT_KEY;
1956:Generated_Source\PSoC4/CyLFClk.c ****     }
1957:Generated_Source\PSoC4/CyLFClk.c **** 
ARM GAS  C:\Users\AFDHAL~1\AppData\Local\Temp\cc29CzqQ.s 			page 135


1958:Generated_Source\PSoC4/CyLFClk.c **** 
1959:Generated_Source\PSoC4/CyLFClk.c ****     /*******************************************************************************
1960:Generated_Source\PSoC4/CyLFClk.c ****     * Function Name: CySysWdtSetMatch
1961:Generated_Source\PSoC4/CyLFClk.c ****     ****************************************************************************//**
1962:Generated_Source\PSoC4/CyLFClk.c ****     *
1963:Generated_Source\PSoC4/CyLFClk.c ****     * \brief Configures the WDT counter match comparison value.
1964:Generated_Source\PSoC4/CyLFClk.c ****     *
1965:Generated_Source\PSoC4/CyLFClk.c ****     * \param match Valid range [0-65535]. The value to be used to match against 
1966:Generated_Source\PSoC4/CyLFClk.c ****     * the counter.
1967:Generated_Source\PSoC4/CyLFClk.c ****     *
1968:Generated_Source\PSoC4/CyLFClk.c ****     *******************************************************************************/
1969:Generated_Source\PSoC4/CyLFClk.c ****     void CySysWdtSetMatch(uint32 match)
1970:Generated_Source\PSoC4/CyLFClk.c ****     {
1971:Generated_Source\PSoC4/CyLFClk.c ****         match &= CY_SYS_WDT_MATCH_MASK;
1972:Generated_Source\PSoC4/CyLFClk.c ****         CY_SYS_WDT_MATCH_REG = (CY_SYS_WDT_MATCH_REG & (uint32)(~CY_SYS_WDT_MATCH_MASK)) | match;
1973:Generated_Source\PSoC4/CyLFClk.c ****     }
1974:Generated_Source\PSoC4/CyLFClk.c **** 
1975:Generated_Source\PSoC4/CyLFClk.c **** 
1976:Generated_Source\PSoC4/CyLFClk.c ****     /*******************************************************************************
1977:Generated_Source\PSoC4/CyLFClk.c ****     * Function Name: CySysWdtGetMatch
1978:Generated_Source\PSoC4/CyLFClk.c ****     ****************************************************************************//**
1979:Generated_Source\PSoC4/CyLFClk.c ****     *
1980:Generated_Source\PSoC4/CyLFClk.c ****     * \brief Reads the WDT counter match comparison value.
1981:Generated_Source\PSoC4/CyLFClk.c ****     *
1982:Generated_Source\PSoC4/CyLFClk.c ****     * \return The counter match value.
1983:Generated_Source\PSoC4/CyLFClk.c ****     *
1984:Generated_Source\PSoC4/CyLFClk.c ****     *******************************************************************************/
1985:Generated_Source\PSoC4/CyLFClk.c ****     uint32 CySysWdtGetMatch(void)
1986:Generated_Source\PSoC4/CyLFClk.c ****     {
1987:Generated_Source\PSoC4/CyLFClk.c ****         return (CY_SYS_WDT_MATCH_REG & CY_SYS_WDT_MATCH_MASK);
1988:Generated_Source\PSoC4/CyLFClk.c ****     }
1989:Generated_Source\PSoC4/CyLFClk.c **** 
1990:Generated_Source\PSoC4/CyLFClk.c **** 
1991:Generated_Source\PSoC4/CyLFClk.c ****     /*******************************************************************************
1992:Generated_Source\PSoC4/CyLFClk.c ****     * Function Name: CySysWdtGetCount
1993:Generated_Source\PSoC4/CyLFClk.c ****     ****************************************************************************//**
1994:Generated_Source\PSoC4/CyLFClk.c ****     *
1995:Generated_Source\PSoC4/CyLFClk.c ****     * \brief Reads the current WDT counter value.
1996:Generated_Source\PSoC4/CyLFClk.c ****     *
1997:Generated_Source\PSoC4/CyLFClk.c ****     * \return A live counter value.
1998:Generated_Source\PSoC4/CyLFClk.c ****     *
1999:Generated_Source\PSoC4/CyLFClk.c ****     *******************************************************************************/
2000:Generated_Source\PSoC4/CyLFClk.c ****     uint32 CySysWdtGetCount(void)
2001:Generated_Source\PSoC4/CyLFClk.c ****     {
2002:Generated_Source\PSoC4/CyLFClk.c ****         return ((uint32)CY_SYS_WDT_COUNTER_REG);
2003:Generated_Source\PSoC4/CyLFClk.c ****     }
2004:Generated_Source\PSoC4/CyLFClk.c **** 
2005:Generated_Source\PSoC4/CyLFClk.c **** 
2006:Generated_Source\PSoC4/CyLFClk.c ****     /*******************************************************************************
2007:Generated_Source\PSoC4/CyLFClk.c ****     * Function Name: CySysWdtSetIgnoreBits
2008:Generated_Source\PSoC4/CyLFClk.c ****     ****************************************************************************//**
2009:Generated_Source\PSoC4/CyLFClk.c ****     *
2010:Generated_Source\PSoC4/CyLFClk.c ****     * \brief
2011:Generated_Source\PSoC4/CyLFClk.c ****     * Configures the number of the MSB bits of the watchdog timer that are not
2012:Generated_Source\PSoC4/CyLFClk.c ****     * checked against the match.
2013:Generated_Source\PSoC4/CyLFClk.c ****     *
2014:Generated_Source\PSoC4/CyLFClk.c ****     * \param bitsNum Valid range [0-15]. The number of the MSB bits.
ARM GAS  C:\Users\AFDHAL~1\AppData\Local\Temp\cc29CzqQ.s 			page 136


2015:Generated_Source\PSoC4/CyLFClk.c ****     *
2016:Generated_Source\PSoC4/CyLFClk.c ****     * \details The value of bitsNum controls the time-to-reset of the watchdog
2017:Generated_Source\PSoC4/CyLFClk.c ****     * (which happens after 3 successive matches).
2018:Generated_Source\PSoC4/CyLFClk.c ****     *
2019:Generated_Source\PSoC4/CyLFClk.c ****     *******************************************************************************/
2020:Generated_Source\PSoC4/CyLFClk.c ****     void CySysWdtSetIgnoreBits(uint32 bitsNum)
2021:Generated_Source\PSoC4/CyLFClk.c ****     {
2022:Generated_Source\PSoC4/CyLFClk.c ****         bitsNum = ((uint32)(bitsNum << CY_SYS_WDT_IGNORE_BITS_SHIFT) & CY_SYS_WDT_IGNORE_BITS_MASK)
2023:Generated_Source\PSoC4/CyLFClk.c ****         CY_SYS_WDT_MATCH_REG = (CY_SYS_WDT_MATCH_REG & (uint32)(~CY_SYS_WDT_IGNORE_BITS_MASK)) | bi
2024:Generated_Source\PSoC4/CyLFClk.c ****     }
2025:Generated_Source\PSoC4/CyLFClk.c **** 
2026:Generated_Source\PSoC4/CyLFClk.c **** 
2027:Generated_Source\PSoC4/CyLFClk.c ****     /*******************************************************************************
2028:Generated_Source\PSoC4/CyLFClk.c ****     * Function Name: CySysWdtGetIgnoreBits
2029:Generated_Source\PSoC4/CyLFClk.c ****     ****************************************************************************//**
2030:Generated_Source\PSoC4/CyLFClk.c ****     *
2031:Generated_Source\PSoC4/CyLFClk.c ****     * \brief
2032:Generated_Source\PSoC4/CyLFClk.c ****     * Reads the number of the  MSB bits of the watchdog timer that are not
2033:Generated_Source\PSoC4/CyLFClk.c ****     * checked against the match.
2034:Generated_Source\PSoC4/CyLFClk.c ****     *
2035:Generated_Source\PSoC4/CyLFClk.c ****     * \return The number of the MSB bits.
2036:Generated_Source\PSoC4/CyLFClk.c ****     *
2037:Generated_Source\PSoC4/CyLFClk.c ****     *******************************************************************************/
2038:Generated_Source\PSoC4/CyLFClk.c ****     uint32 CySysWdtGetIgnoreBits(void)
2039:Generated_Source\PSoC4/CyLFClk.c ****     {
2040:Generated_Source\PSoC4/CyLFClk.c ****         return((uint32)((CY_SYS_WDT_MATCH_REG & CY_SYS_WDT_IGNORE_BITS_MASK) >> CY_SYS_WDT_IGNORE_B
2041:Generated_Source\PSoC4/CyLFClk.c ****     }
2042:Generated_Source\PSoC4/CyLFClk.c **** 
2043:Generated_Source\PSoC4/CyLFClk.c **** 
2044:Generated_Source\PSoC4/CyLFClk.c ****     /*******************************************************************************
2045:Generated_Source\PSoC4/CyLFClk.c ****     * Function Name: CySysWdtClearInterrupt
2046:Generated_Source\PSoC4/CyLFClk.c ****     ****************************************************************************//**
2047:Generated_Source\PSoC4/CyLFClk.c ****     *
2048:Generated_Source\PSoC4/CyLFClk.c ****     * \brief
2049:Generated_Source\PSoC4/CyLFClk.c ****     * Feeds the watchdog.
2050:Generated_Source\PSoC4/CyLFClk.c ****     * Cleans the WDT match flag which is set every time the WDT counter reaches a 
2051:Generated_Source\PSoC4/CyLFClk.c ****     * WDT match value. Two unserviced interrupts lead to a system reset 
2052:Generated_Source\PSoC4/CyLFClk.c ****     * (i.e. at the third match).
2053:Generated_Source\PSoC4/CyLFClk.c ****     *
2054:Generated_Source\PSoC4/CyLFClk.c ****     *******************************************************************************/
2055:Generated_Source\PSoC4/CyLFClk.c ****     void CySysWdtClearInterrupt(void)
2056:Generated_Source\PSoC4/CyLFClk.c ****     {
2057:Generated_Source\PSoC4/CyLFClk.c ****         CY_SYS_SRSS_INTR_REG |= CY_SYS_WDT_LOWER_BIT_MASK;
2058:Generated_Source\PSoC4/CyLFClk.c ****     }
2059:Generated_Source\PSoC4/CyLFClk.c **** 
2060:Generated_Source\PSoC4/CyLFClk.c **** 
2061:Generated_Source\PSoC4/CyLFClk.c ****     /*******************************************************************************
2062:Generated_Source\PSoC4/CyLFClk.c ****     * Function Name: CySysWdtMaskInterrupt
2063:Generated_Source\PSoC4/CyLFClk.c ****     ****************************************************************************//**
2064:Generated_Source\PSoC4/CyLFClk.c ****     *
2065:Generated_Source\PSoC4/CyLFClk.c ****     * \brief
2066:Generated_Source\PSoC4/CyLFClk.c ****     * After masking interrupts from WDT, they are not passed to CPU.
2067:Generated_Source\PSoC4/CyLFClk.c ****     * This function does not disable WDT reset generation.
2068:Generated_Source\PSoC4/CyLFClk.c ****     *
2069:Generated_Source\PSoC4/CyLFClk.c ****     *******************************************************************************/
2070:Generated_Source\PSoC4/CyLFClk.c ****     void CySysWdtMaskInterrupt(void)
2071:Generated_Source\PSoC4/CyLFClk.c ****     {
ARM GAS  C:\Users\AFDHAL~1\AppData\Local\Temp\cc29CzqQ.s 			page 137


2072:Generated_Source\PSoC4/CyLFClk.c ****         CY_SYS_SRSS_INTR_MASK_REG &= (uint32)(~ (uint32)CY_SYS_WDT_LOWER_BIT_MASK);
2073:Generated_Source\PSoC4/CyLFClk.c ****     }
2074:Generated_Source\PSoC4/CyLFClk.c **** 
2075:Generated_Source\PSoC4/CyLFClk.c **** 
2076:Generated_Source\PSoC4/CyLFClk.c ****     /*******************************************************************************
2077:Generated_Source\PSoC4/CyLFClk.c ****     * Function Name: CySysWdtUnmaskInterrupt
2078:Generated_Source\PSoC4/CyLFClk.c ****     ****************************************************************************//**
2079:Generated_Source\PSoC4/CyLFClk.c ****     *
2080:Generated_Source\PSoC4/CyLFClk.c ****     * \brief
2081:Generated_Source\PSoC4/CyLFClk.c ****     * After unmasking interrupts from WDT, they are passed to CPU.
2082:Generated_Source\PSoC4/CyLFClk.c ****     * This function does not impact the reset generation.
2083:Generated_Source\PSoC4/CyLFClk.c ****     *
2084:Generated_Source\PSoC4/CyLFClk.c ****     *******************************************************************************/
2085:Generated_Source\PSoC4/CyLFClk.c ****     void CySysWdtUnmaskInterrupt(void)
2086:Generated_Source\PSoC4/CyLFClk.c ****     {
2087:Generated_Source\PSoC4/CyLFClk.c ****         CY_SYS_SRSS_INTR_MASK_REG |= CY_SYS_WDT_LOWER_BIT_MASK;
2088:Generated_Source\PSoC4/CyLFClk.c ****     }
2089:Generated_Source\PSoC4/CyLFClk.c **** 
2090:Generated_Source\PSoC4/CyLFClk.c **** 
2091:Generated_Source\PSoC4/CyLFClk.c ****     /*******************************************************************************
2092:Generated_Source\PSoC4/CyLFClk.c ****     * Function Name: CySysWdtSetIsrCallback
2093:Generated_Source\PSoC4/CyLFClk.c ****     ****************************************************************************//**
2094:Generated_Source\PSoC4/CyLFClk.c ****     *
2095:Generated_Source\PSoC4/CyLFClk.c ****     * \brief
2096:Generated_Source\PSoC4/CyLFClk.c ****     * Sets the ISR callback function for the WDT counter
2097:Generated_Source\PSoC4/CyLFClk.c ****     *
2098:Generated_Source\PSoC4/CyLFClk.c ****     * \param function The pointer to the callback function.
2099:Generated_Source\PSoC4/CyLFClk.c ****     *
2100:Generated_Source\PSoC4/CyLFClk.c ****     * \return The pointer to a previous callback function.
2101:Generated_Source\PSoC4/CyLFClk.c ****     *
2102:Generated_Source\PSoC4/CyLFClk.c ****     *******************************************************************************/
2103:Generated_Source\PSoC4/CyLFClk.c ****     cyWdtCallback CySysWdtSetInterruptCallback(cyWdtCallback function)
2104:Generated_Source\PSoC4/CyLFClk.c ****     {
2105:Generated_Source\PSoC4/CyLFClk.c ****         cyWdtCallback prevCallback = (void *)0;
2106:Generated_Source\PSoC4/CyLFClk.c **** 
2107:Generated_Source\PSoC4/CyLFClk.c ****         prevCallback = cySysWdtCallback;
2108:Generated_Source\PSoC4/CyLFClk.c ****         cySysWdtCallback = function;
2109:Generated_Source\PSoC4/CyLFClk.c **** 
2110:Generated_Source\PSoC4/CyLFClk.c ****         return(prevCallback);
2111:Generated_Source\PSoC4/CyLFClk.c ****     }
2112:Generated_Source\PSoC4/CyLFClk.c **** 
2113:Generated_Source\PSoC4/CyLFClk.c **** 
2114:Generated_Source\PSoC4/CyLFClk.c ****     /*******************************************************************************
2115:Generated_Source\PSoC4/CyLFClk.c ****     * Function Name: CySysWdtGetIsrCallback
2116:Generated_Source\PSoC4/CyLFClk.c ****     ****************************************************************************//**
2117:Generated_Source\PSoC4/CyLFClk.c ****     *
2118:Generated_Source\PSoC4/CyLFClk.c ****     * \brief
2119:Generated_Source\PSoC4/CyLFClk.c ****     * Gets the ISR callback function for the WDT counter
2120:Generated_Source\PSoC4/CyLFClk.c ****     *
2121:Generated_Source\PSoC4/CyLFClk.c ****     * \return The pointer to the callback function registered for WDT.
2122:Generated_Source\PSoC4/CyLFClk.c ****     *
2123:Generated_Source\PSoC4/CyLFClk.c ****     *******************************************************************************/
2124:Generated_Source\PSoC4/CyLFClk.c ****     cyWdtCallback CySysWdtGetInterruptCallback(void)
2125:Generated_Source\PSoC4/CyLFClk.c ****     {
2126:Generated_Source\PSoC4/CyLFClk.c ****         return(cySysWdtCallback);
2127:Generated_Source\PSoC4/CyLFClk.c ****     }
2128:Generated_Source\PSoC4/CyLFClk.c **** 
ARM GAS  C:\Users\AFDHAL~1\AppData\Local\Temp\cc29CzqQ.s 			page 138


2129:Generated_Source\PSoC4/CyLFClk.c **** 
2130:Generated_Source\PSoC4/CyLFClk.c ****     /*******************************************************************************
2131:Generated_Source\PSoC4/CyLFClk.c ****     * Function Name: CySysWdtIsr
2132:Generated_Source\PSoC4/CyLFClk.c ****     ****************************************************************************//**
2133:Generated_Source\PSoC4/CyLFClk.c ****     *
2134:Generated_Source\PSoC4/CyLFClk.c ****     * \brief
2135:Generated_Source\PSoC4/CyLFClk.c ****     * This is the handler of the WDT interrupt in CPU NVIC.
2136:Generated_Source\PSoC4/CyLFClk.c ****     *
2137:Generated_Source\PSoC4/CyLFClk.c ****     * The handler calls the respective callback functions configured by the user 
2138:Generated_Source\PSoC4/CyLFClk.c ****     * by using CySysWdtSetIsrCallback() API.
2139:Generated_Source\PSoC4/CyLFClk.c ****     *
2140:Generated_Source\PSoC4/CyLFClk.c ****     *
2141:Generated_Source\PSoC4/CyLFClk.c ****     * \details
2142:Generated_Source\PSoC4/CyLFClk.c ****     * This function clears the WDT interrupt every time when it is called.
2143:Generated_Source\PSoC4/CyLFClk.c ****     * Reset after the 3rd interrupt does not happen if this function is registered
2144:Generated_Source\PSoC4/CyLFClk.c ****     * as the interrupt handler even if the "Watchdog with Interrupt" mode is
2145:Generated_Source\PSoC4/CyLFClk.c ****     * selected on the "Low Frequency Clocks" tab.
2146:Generated_Source\PSoC4/CyLFClk.c ****     *
2147:Generated_Source\PSoC4/CyLFClk.c ****     *******************************************************************************/
2148:Generated_Source\PSoC4/CyLFClk.c ****     void CySysWdtIsr(void)
2149:Generated_Source\PSoC4/CyLFClk.c ****     {
2150:Generated_Source\PSoC4/CyLFClk.c ****         if(cySysWdtCallback != (void *) 0)
2151:Generated_Source\PSoC4/CyLFClk.c ****         {
2152:Generated_Source\PSoC4/CyLFClk.c ****             (void)(cySysWdtCallback)();
2153:Generated_Source\PSoC4/CyLFClk.c ****         }
2154:Generated_Source\PSoC4/CyLFClk.c **** 
2155:Generated_Source\PSoC4/CyLFClk.c ****         CySysWdtClearInterrupt();
2156:Generated_Source\PSoC4/CyLFClk.c ****     }
2157:Generated_Source\PSoC4/CyLFClk.c **** 
2158:Generated_Source\PSoC4/CyLFClk.c **** #endif /* (CY_IP_SRSSV2) */
2159:Generated_Source\PSoC4/CyLFClk.c **** 
2160:Generated_Source\PSoC4/CyLFClk.c **** 
2161:Generated_Source\PSoC4/CyLFClk.c **** #if(CY_IP_SRSSLT && CY_IP_WCO && CY_IP_WCO_WDT_EN)
2162:Generated_Source\PSoC4/CyLFClk.c **** 
2163:Generated_Source\PSoC4/CyLFClk.c **** /*******************************************************************************
2164:Generated_Source\PSoC4/CyLFClk.c **** * Function Name: CySysClkGetTimerSource
2165:Generated_Source\PSoC4/CyLFClk.c **** ********************************************************************************
2166:Generated_Source\PSoC4/CyLFClk.c **** *
2167:Generated_Source\PSoC4/CyLFClk.c **** * \brief Gets the clock source for the DeepSleep Timers.
2168:Generated_Source\PSoC4/CyLFClk.c **** *
2169:Generated_Source\PSoC4/CyLFClk.c **** * The function is applicable only for PSoC 4100S / PSoC Analog Coprocessor.
2170:Generated_Source\PSoC4/CyLFClk.c **** *
2171:Generated_Source\PSoC4/CyLFClk.c **** * \return The DeepSleep Timer source
2172:Generated_Source\PSoC4/CyLFClk.c **** * CY_SYS_CLK_TIMER_SRC_ILO Internal Low Frequency (32 kHz) Oscillator (ILO)
2173:Generated_Source\PSoC4/CyLFClk.c **** * CY_SYS_CLK_TIMER_SRC_WCO Low Frequency Watch Crystal Oscillator (WCO)
2174:Generated_Source\PSoC4/CyLFClk.c **** *
2175:Generated_Source\PSoC4/CyLFClk.c **** *******************************************************************************/
2176:Generated_Source\PSoC4/CyLFClk.c ****     static uint32 CySysClkGetTimerSource(void)
2177:Generated_Source\PSoC4/CyLFClk.c ****     {
2178:Generated_Source\PSoC4/CyLFClk.c ****         uint32 timerSource;
2179:Generated_Source\PSoC4/CyLFClk.c ****         timerSource = CY_SYS_WCO_WDT_CONFIG_REG & CY_SYS_CLK_TIMER_SEL_MASK;
2180:Generated_Source\PSoC4/CyLFClk.c ****         return (timerSource);
2181:Generated_Source\PSoC4/CyLFClk.c ****     }    
2182:Generated_Source\PSoC4/CyLFClk.c **** 
2183:Generated_Source\PSoC4/CyLFClk.c **** 
2184:Generated_Source\PSoC4/CyLFClk.c **** /*******************************************************************************
2185:Generated_Source\PSoC4/CyLFClk.c **** * Function Name: CySysClkSetTimerSource
ARM GAS  C:\Users\AFDHAL~1\AppData\Local\Temp\cc29CzqQ.s 			page 139


2186:Generated_Source\PSoC4/CyLFClk.c **** ****************************************************************************//**
2187:Generated_Source\PSoC4/CyLFClk.c **** *
2188:Generated_Source\PSoC4/CyLFClk.c **** * \brief Sets the clock source for the DeepSleep Timers.
2189:Generated_Source\PSoC4/CyLFClk.c **** *
2190:Generated_Source\PSoC4/CyLFClk.c **** * The function is applicable only for PSoC 4100S / PSoC Analog Coprocessor 
2191:Generated_Source\PSoC4/CyLFClk.c **** * devices.
2192:Generated_Source\PSoC4/CyLFClk.c **** *
2193:Generated_Source\PSoC4/CyLFClk.c **** * \param source
2194:Generated_Source\PSoC4/CyLFClk.c **** *  CY_SYS_CLK_TIMER_SRC_ILO - Internal Low Frequency (32 kHz) Oscillator 
2195:Generated_Source\PSoC4/CyLFClk.c **** * (ILO).<br>
2196:Generated_Source\PSoC4/CyLFClk.c **** * CY_SYS_CLK_TIMER_SRC_WCO - Low Frequency Watch Crystal Oscillator 
2197:Generated_Source\PSoC4/CyLFClk.c **** * (WCO).
2198:Generated_Source\PSoC4/CyLFClk.c **** *
2199:Generated_Source\PSoC4/CyLFClk.c **** * \details Both the current source and the new source must be running and stable 
2200:Generated_Source\PSoC4/CyLFClk.c **** * before calling this function.
2201:Generated_Source\PSoC4/CyLFClk.c **** *
2202:Generated_Source\PSoC4/CyLFClk.c **** * \warning DeepSleep Timer reset is required if Timer source was switched while 
2203:Generated_Source\PSoC4/CyLFClk.c **** * DeepSleep Timers were running. Call CySysTimerResetCounters() API after 
2204:Generated_Source\PSoC4/CyLFClk.c **** * Timer source switching.
2205:Generated_Source\PSoC4/CyLFClk.c **** * It is highly recommended to disable DeepSleep Timers before Timer source 
2206:Generated_Source\PSoC4/CyLFClk.c **** * switching. Changing the Timer source may change the functionality that uses 
2207:Generated_Source\PSoC4/CyLFClk.c **** * this Timers as clock source.
2208:Generated_Source\PSoC4/CyLFClk.c **** *******************************************************************************/
2209:Generated_Source\PSoC4/CyLFClk.c ****     void CySysClkSetTimerSource(uint32 source)
2210:Generated_Source\PSoC4/CyLFClk.c ****     {
2211:Generated_Source\PSoC4/CyLFClk.c ****         uint8  interruptState;
2212:Generated_Source\PSoC4/CyLFClk.c **** 
2213:Generated_Source\PSoC4/CyLFClk.c ****         if (CySysClkGetTimerSource() != source)
2214:Generated_Source\PSoC4/CyLFClk.c ****         {
2215:Generated_Source\PSoC4/CyLFClk.c **** 
2216:Generated_Source\PSoC4/CyLFClk.c ****             /* Reset both _EN bits in WCO_WDT_CLKEN register */
2217:Generated_Source\PSoC4/CyLFClk.c ****             CY_SYS_WCO_WDT_CLKEN_REG &= ~CY_SYS_WCO_WDT_CLKEN_RESET_MASK;
2218:Generated_Source\PSoC4/CyLFClk.c ****             
2219:Generated_Source\PSoC4/CyLFClk.c ****             /* Wait 4 new clock source-cycles for change to come into effect */
2220:Generated_Source\PSoC4/CyLFClk.c ****             CyDelayUs(CY_SYS_4TIMER_DELAY_US);
2221:Generated_Source\PSoC4/CyLFClk.c **** 
2222:Generated_Source\PSoC4/CyLFClk.c ****             interruptState = CyEnterCriticalSection();
2223:Generated_Source\PSoC4/CyLFClk.c ****             CY_SYS_WCO_WDT_CONFIG_REG = (CY_SYS_WCO_WDT_CONFIG_REG & (uint32)(~CY_SYS_CLK_TIMER_SEL
2224:Generated_Source\PSoC4/CyLFClk.c ****                                     (source & CY_SYS_CLK_TIMER_SEL_MASK);
2225:Generated_Source\PSoC4/CyLFClk.c ****             CyExitCriticalSection(interruptState);
2226:Generated_Source\PSoC4/CyLFClk.c ****         }
2227:Generated_Source\PSoC4/CyLFClk.c **** 
2228:Generated_Source\PSoC4/CyLFClk.c ****         CY_SYS_WCO_WDT_CLKEN_REG = (CY_SYS_WCO_WDT_CLKEN_REG & (uint32)(~CY_SYS_WCO_WDT_CLKEN_RESET
2229:Generated_Source\PSoC4/CyLFClk.c ****                                     CY_SYS_SET_CURRENT_TIMER_SOURCE_BIT;
2230:Generated_Source\PSoC4/CyLFClk.c ****     }
2231:Generated_Source\PSoC4/CyLFClk.c **** 
2232:Generated_Source\PSoC4/CyLFClk.c **** 
2233:Generated_Source\PSoC4/CyLFClk.c ****     /*******************************************************************************
2234:Generated_Source\PSoC4/CyLFClk.c ****     * Function Name: CySysTimerGetEnabledStatus
2235:Generated_Source\PSoC4/CyLFClk.c ****     ****************************************************************************//**
2236:Generated_Source\PSoC4/CyLFClk.c ****     *
2237:Generated_Source\PSoC4/CyLFClk.c ****     * \brief Reads the enabled status of one of the three DeepSleep Timer 
2238:Generated_Source\PSoC4/CyLFClk.c ****     * counters.
2239:Generated_Source\PSoC4/CyLFClk.c ****     *
2240:Generated_Source\PSoC4/CyLFClk.c ****     * \param counterNum: Valid range [0-2]. The number of the DeepSleep Timer 
2241:Generated_Source\PSoC4/CyLFClk.c ****     * counter.
2242:Generated_Source\PSoC4/CyLFClk.c ****     *
ARM GAS  C:\Users\AFDHAL~1\AppData\Local\Temp\cc29CzqQ.s 			page 140


2243:Generated_Source\PSoC4/CyLFClk.c ****     * \return The status of the Timers counter:
2244:Generated_Source\PSoC4/CyLFClk.c ****     * \return 0 - If the Counter is disabled.
2245:Generated_Source\PSoC4/CyLFClk.c ****     * \return 1 - If the Counter is enabled.
2246:Generated_Source\PSoC4/CyLFClk.c ****     *
2247:Generated_Source\PSoC4/CyLFClk.c ****     * \details
2248:Generated_Source\PSoC4/CyLFClk.c ****     * This function returns an actual DeepSleep Timer counter status from the 
2249:Generated_Source\PSoC4/CyLFClk.c ****     * status register. It may take up to 3 LFCLK cycles for the Timer status 
2250:Generated_Source\PSoC4/CyLFClk.c ****     * register to contain actual data after the Timer counter is enabled.
2251:Generated_Source\PSoC4/CyLFClk.c ****     *
2252:Generated_Source\PSoC4/CyLFClk.c ****     *******************************************************************************/
2253:Generated_Source\PSoC4/CyLFClk.c ****     uint32 CySysTimerGetEnabledStatus(uint32 counterNum)
2254:Generated_Source\PSoC4/CyLFClk.c ****     {
2255:Generated_Source\PSoC4/CyLFClk.c ****         CYASSERT(counterNum < CY_SYS_TIMER_COUNTERS_MAX);
2256:Generated_Source\PSoC4/CyLFClk.c ****         return ((CY_SYS_WCO_WDT_CONTROL_REG >> ((CY_SYS_TIMER_CNT_SHIFT * counterNum) + 
2257:Generated_Source\PSoC4/CyLFClk.c ****                                                  CY_SYS_TIMER_CNT_STTS_SHIFT)) & 0x01u);
2258:Generated_Source\PSoC4/CyLFClk.c ****     }
2259:Generated_Source\PSoC4/CyLFClk.c **** 
2260:Generated_Source\PSoC4/CyLFClk.c **** 
2261:Generated_Source\PSoC4/CyLFClk.c ****     /*******************************************************************************
2262:Generated_Source\PSoC4/CyLFClk.c ****     * Function Name: CySysTimerSetMode
2263:Generated_Source\PSoC4/CyLFClk.c ****     ****************************************************************************//**
2264:Generated_Source\PSoC4/CyLFClk.c ****     *
2265:Generated_Source\PSoC4/CyLFClk.c ****     * \brief Writes the mode of one of the three DeepSleep Timer counters.
2266:Generated_Source\PSoC4/CyLFClk.c ****     *
2267:Generated_Source\PSoC4/CyLFClk.c ****     * \param counterNum: Valid range [0-2]. The number of the DeepSleep Timer 
2268:Generated_Source\PSoC4/CyLFClk.c ****     * counter.
2269:Generated_Source\PSoC4/CyLFClk.c ****     *
2270:Generated_Source\PSoC4/CyLFClk.c ****     * \param mode
2271:Generated_Source\PSoC4/CyLFClk.c ****     *  CY_SYS_TIMER_MODE_NONE - Free running.<br>
2272:Generated_Source\PSoC4/CyLFClk.c ****     * CY_SYS_TIMER_MODE_INT - The interrupt generated on match for counter 0
2273:Generated_Source\PSoC4/CyLFClk.c ****     * and 1, and on bit toggle for counter 2.
2274:Generated_Source\PSoC4/CyLFClk.c ****     *
2275:Generated_Source\PSoC4/CyLFClk.c ****     * \details
2276:Generated_Source\PSoC4/CyLFClk.c ****     * DeepSleep Timer counter counterNum should be disabled to set a mode. 
2277:Generated_Source\PSoC4/CyLFClk.c ****     * Otherwise, this function call has no effect. If the specified counter is 
2278:Generated_Source\PSoC4/CyLFClk.c ****     * enabled, call the CySysTimerDisable() function with the corresponding 
2279:Generated_Source\PSoC4/CyLFClk.c ****     * parameter to disable the specified counter and wait for it to stop.
2280:Generated_Source\PSoC4/CyLFClk.c ****     *
2281:Generated_Source\PSoC4/CyLFClk.c ****     *******************************************************************************/
2282:Generated_Source\PSoC4/CyLFClk.c ****     void CySysTimerSetMode(uint32 counterNum, uint32 mode)
2283:Generated_Source\PSoC4/CyLFClk.c ****     {
2284:Generated_Source\PSoC4/CyLFClk.c ****         uint32 configRegValue;
2285:Generated_Source\PSoC4/CyLFClk.c **** 
2286:Generated_Source\PSoC4/CyLFClk.c ****         CYASSERT(counterNum < CY_SYS_TIMER_COUNTERS_MAX);
2287:Generated_Source\PSoC4/CyLFClk.c **** 
2288:Generated_Source\PSoC4/CyLFClk.c ****         CYASSERT(mode <= CY_SYS_TIMER_MODE_MASK);
2289:Generated_Source\PSoC4/CyLFClk.c **** 
2290:Generated_Source\PSoC4/CyLFClk.c ****         if(0u == CySysTimerGetEnabledStatus(counterNum))
2291:Generated_Source\PSoC4/CyLFClk.c ****         {
2292:Generated_Source\PSoC4/CyLFClk.c ****             configRegValue = CY_SYS_WCO_WDT_CONFIG_REG &
2293:Generated_Source\PSoC4/CyLFClk.c ****                                 (uint32)~((uint32)(CY_SYS_TIMER_MODE_MASK << (counterNum * CY_SYS_T
2294:Generated_Source\PSoC4/CyLFClk.c ****             configRegValue |= (uint32)((mode & CY_SYS_TIMER_MODE_MASK) << (counterNum * CY_SYS_TIME
2295:Generated_Source\PSoC4/CyLFClk.c ****             CY_SYS_WCO_WDT_CONFIG_REG = configRegValue;
2296:Generated_Source\PSoC4/CyLFClk.c ****         }
2297:Generated_Source\PSoC4/CyLFClk.c ****     }
2298:Generated_Source\PSoC4/CyLFClk.c **** 
2299:Generated_Source\PSoC4/CyLFClk.c **** 
ARM GAS  C:\Users\AFDHAL~1\AppData\Local\Temp\cc29CzqQ.s 			page 141


2300:Generated_Source\PSoC4/CyLFClk.c ****     /*******************************************************************************
2301:Generated_Source\PSoC4/CyLFClk.c ****     * Function Name: CySysTimerGetMode
2302:Generated_Source\PSoC4/CyLFClk.c ****     ****************************************************************************//**
2303:Generated_Source\PSoC4/CyLFClk.c ****     *
2304:Generated_Source\PSoC4/CyLFClk.c ****     * \brief Reads the mode of one of the three DeepSleep Timer counters.
2305:Generated_Source\PSoC4/CyLFClk.c ****     *
2306:Generated_Source\PSoC4/CyLFClk.c ****     * \param counterNum Valid range [0-2]. The number of the Timer counter.
2307:Generated_Source\PSoC4/CyLFClk.c ****     *
2308:Generated_Source\PSoC4/CyLFClk.c ****     * \return The mode of the counter. The same enumerated values as the mode 
2309:Generated_Source\PSoC4/CyLFClk.c ****     * parameter used in CySysTimerSetMode().
2310:Generated_Source\PSoC4/CyLFClk.c ****     *
2311:Generated_Source\PSoC4/CyLFClk.c ****     *******************************************************************************/
2312:Generated_Source\PSoC4/CyLFClk.c ****     uint32 CySysTimerGetMode(uint32 counterNum)
2313:Generated_Source\PSoC4/CyLFClk.c ****     {
2314:Generated_Source\PSoC4/CyLFClk.c ****         return ((CY_SYS_WCO_WDT_CONFIG_REG >> (counterNum * CY_SYS_TIMER_CNT_SHIFT)) & CY_SYS_TIMER
2315:Generated_Source\PSoC4/CyLFClk.c ****     }
2316:Generated_Source\PSoC4/CyLFClk.c **** 
2317:Generated_Source\PSoC4/CyLFClk.c **** 
2318:Generated_Source\PSoC4/CyLFClk.c ****     /*******************************************************************************
2319:Generated_Source\PSoC4/CyLFClk.c ****     * Function Name: CySysTimerSetClearOnMatch
2320:Generated_Source\PSoC4/CyLFClk.c ****     ****************************************************************************//**
2321:Generated_Source\PSoC4/CyLFClk.c ****     *
2322:Generated_Source\PSoC4/CyLFClk.c ****     * \brief Configures the DeepSleep Timer counter "clear on match" setting.
2323:Generated_Source\PSoC4/CyLFClk.c ****     *
2324:Generated_Source\PSoC4/CyLFClk.c ****     * If configured to "clear on match", the counter counts from 0 to MatchValue 
2325:Generated_Source\PSoC4/CyLFClk.c ****     * giving it a period of (MatchValue + 1).
2326:Generated_Source\PSoC4/CyLFClk.c ****     *
2327:Generated_Source\PSoC4/CyLFClk.c ****     * \param counterNum
2328:Generated_Source\PSoC4/CyLFClk.c ****     * Valid range [0-1]. The number of the Timer counter. The match values are not
2329:Generated_Source\PSoC4/CyLFClk.c ****     * supported by counter 2.
2330:Generated_Source\PSoC4/CyLFClk.c ****     * \param enable 0 to disable appropriate counter <br>
2331:Generated_Source\PSoC4/CyLFClk.c ****     * 1 to enable appropriate counter
2332:Generated_Source\PSoC4/CyLFClk.c ****     *
2333:Generated_Source\PSoC4/CyLFClk.c ****     * \details
2334:Generated_Source\PSoC4/CyLFClk.c ****     * Timer counter counterNum should be disabled. Otherwise this function call
2335:Generated_Source\PSoC4/CyLFClk.c ****     * has no effect. If the specified counter is enabled, call the CySysTimerDisable()
2336:Generated_Source\PSoC4/CyLFClk.c ****     * function with the corresponding parameter to disable the specified counter and
2337:Generated_Source\PSoC4/CyLFClk.c ****     * wait for it to stop. This may take up to three Timer source-cycles.
2338:Generated_Source\PSoC4/CyLFClk.c ****     *
2339:Generated_Source\PSoC4/CyLFClk.c ****     *******************************************************************************/
2340:Generated_Source\PSoC4/CyLFClk.c ****     void CySysTimerSetClearOnMatch(uint32 counterNum, uint32 enable)
2341:Generated_Source\PSoC4/CyLFClk.c ****     {
2342:Generated_Source\PSoC4/CyLFClk.c ****         uint32 configRegValue;
2343:Generated_Source\PSoC4/CyLFClk.c **** 
2344:Generated_Source\PSoC4/CyLFClk.c ****         CYASSERT((counterNum == CY_SYS_TIMER0) ||
2345:Generated_Source\PSoC4/CyLFClk.c ****                  (counterNum == CY_SYS_TIMER1));
2346:Generated_Source\PSoC4/CyLFClk.c **** 
2347:Generated_Source\PSoC4/CyLFClk.c ****         if(0u == CySysTimerGetEnabledStatus(counterNum))
2348:Generated_Source\PSoC4/CyLFClk.c ****         {
2349:Generated_Source\PSoC4/CyLFClk.c ****             configRegValue = CY_SYS_WCO_WDT_CONFIG_REG & (uint32)~((uint32)((uint32)1u << 
2350:Generated_Source\PSoC4/CyLFClk.c ****              ((counterNum * CY_SYS_TIMER_CNT_SHIFT) + CY_SYS_TIMER_CNT_MATCH_CLR_SHIFT)));
2351:Generated_Source\PSoC4/CyLFClk.c **** 
2352:Generated_Source\PSoC4/CyLFClk.c ****             configRegValue
2353:Generated_Source\PSoC4/CyLFClk.c ****                 |= (uint32)(enable << ((counterNum * CY_SYS_TIMER_CNT_SHIFT) + CY_SYS_TIMER_CNT_MAT
2354:Generated_Source\PSoC4/CyLFClk.c **** 
2355:Generated_Source\PSoC4/CyLFClk.c ****             CY_SYS_WCO_WDT_CONFIG_REG = configRegValue;
2356:Generated_Source\PSoC4/CyLFClk.c ****         }
ARM GAS  C:\Users\AFDHAL~1\AppData\Local\Temp\cc29CzqQ.s 			page 142


2357:Generated_Source\PSoC4/CyLFClk.c ****     }
2358:Generated_Source\PSoC4/CyLFClk.c **** 
2359:Generated_Source\PSoC4/CyLFClk.c **** 
2360:Generated_Source\PSoC4/CyLFClk.c ****     /*******************************************************************************
2361:Generated_Source\PSoC4/CyLFClk.c ****     * Function Name: CySysTimerGetClearOnMatch
2362:Generated_Source\PSoC4/CyLFClk.c ****     ****************************************************************************//**
2363:Generated_Source\PSoC4/CyLFClk.c ****     *
2364:Generated_Source\PSoC4/CyLFClk.c ****     * \brief Reads the "clear on match" setting for the specified DeepSleep Timer 
2365:Generated_Source\PSoC4/CyLFClk.c ****     * counter.
2366:Generated_Source\PSoC4/CyLFClk.c ****     *
2367:Generated_Source\PSoC4/CyLFClk.c ****     * \param counterNum Valid range [0-1].  The number of the Timer counter. The 
2368:Generated_Source\PSoC4/CyLFClk.c ****     * match values are not supported by counter 2.
2369:Generated_Source\PSoC4/CyLFClk.c ****     *
2370:Generated_Source\PSoC4/CyLFClk.c ****     * \return The "clear on match" status: <br>1 if enabled <br>0 if disabled
2371:Generated_Source\PSoC4/CyLFClk.c ****     *
2372:Generated_Source\PSoC4/CyLFClk.c ****     *******************************************************************************/
2373:Generated_Source\PSoC4/CyLFClk.c ****     uint32 CySysTimerGetClearOnMatch(uint32 counterNum)
2374:Generated_Source\PSoC4/CyLFClk.c ****     {
2375:Generated_Source\PSoC4/CyLFClk.c ****         CYASSERT((counterNum == CY_SYS_TIMER0) ||
2376:Generated_Source\PSoC4/CyLFClk.c ****                  (counterNum == CY_SYS_TIMER1));
2377:Generated_Source\PSoC4/CyLFClk.c **** 
2378:Generated_Source\PSoC4/CyLFClk.c ****         return (uint32)((CY_SYS_WCO_WDT_CONFIG_REG >>
2379:Generated_Source\PSoC4/CyLFClk.c ****                         ((counterNum * CY_SYS_TIMER_CNT_SHIFT) + CY_SYS_TIMER_CNT_MATCH_CLR_SHIFT))
2380:Generated_Source\PSoC4/CyLFClk.c ****     }
2381:Generated_Source\PSoC4/CyLFClk.c **** 
2382:Generated_Source\PSoC4/CyLFClk.c **** 
2383:Generated_Source\PSoC4/CyLFClk.c ****     /*******************************************************************************
2384:Generated_Source\PSoC4/CyLFClk.c ****     * Function Name: CySysTimerEnable
2385:Generated_Source\PSoC4/CyLFClk.c ****     ****************************************************************************//**
2386:Generated_Source\PSoC4/CyLFClk.c ****     *
2387:Generated_Source\PSoC4/CyLFClk.c ****     * \brief Enables the specified DeepSleep Timer counters. All the counters 
2388:Generated_Source\PSoC4/CyLFClk.c ****     * specified in the mask are enabled.
2389:Generated_Source\PSoC4/CyLFClk.c ****     *
2390:Generated_Source\PSoC4/CyLFClk.c ****     * \param counterMask  CY_SYS_TIMER0_MASK - The mask for counter 0 to enable.<br>
2391:Generated_Source\PSoC4/CyLFClk.c ****     * CY_SYS_TIMER1_MASK - The mask for counter 1 to enable.<br>
2392:Generated_Source\PSoC4/CyLFClk.c ****     * CY_SYS_TIMER2_MASK - The mask for counter 2 to enable.
2393:Generated_Source\PSoC4/CyLFClk.c ****     *
2394:Generated_Source\PSoC4/CyLFClk.c ****     * \details
2395:Generated_Source\PSoC4/CyLFClk.c ****     * Enabling or disabling Timer requires 3 Timer source-cycles to come into effect.
2396:Generated_Source\PSoC4/CyLFClk.c ****     * Therefore, the Timer enable state must not be changed more than once in
2397:Generated_Source\PSoC4/CyLFClk.c ****     * that period.
2398:Generated_Source\PSoC4/CyLFClk.c ****     *
2399:Generated_Source\PSoC4/CyLFClk.c ****     * After Timer is enabled, it is illegal to write Timer configuration 
2400:Generated_Source\PSoC4/CyLFClk.c ****     * (WCO_WDT_CONFIG) and control (WCO_WDT_CONTROL) registers. This means that all
2401:Generated_Source\PSoC4/CyLFClk.c ****     * Timer functions that contain 'write' in the name (with the exception of 
2402:Generated_Source\PSoC4/CyLFClk.c ****     * CySysTimerSetMatch() function) are illegal to call once Timer enabled.
2403:Generated_Source\PSoC4/CyLFClk.c ****     *
2404:Generated_Source\PSoC4/CyLFClk.c ****     * Timer current source must be running and stable before calling this 
2405:Generated_Source\PSoC4/CyLFClk.c ****     * function.
2406:Generated_Source\PSoC4/CyLFClk.c ****     *
2407:Generated_Source\PSoC4/CyLFClk.c ****     *******************************************************************************/
2408:Generated_Source\PSoC4/CyLFClk.c ****     void CySysTimerEnable(uint32 counterMask)
2409:Generated_Source\PSoC4/CyLFClk.c ****     {
2410:Generated_Source\PSoC4/CyLFClk.c ****         CY_SYS_WCO_WDT_CONTROL_REG |= counterMask;
2411:Generated_Source\PSoC4/CyLFClk.c **** 
2412:Generated_Source\PSoC4/CyLFClk.c ****         if(0u != (counterMask & CY_SYS_TIMER0_MASK))
2413:Generated_Source\PSoC4/CyLFClk.c ****         {
ARM GAS  C:\Users\AFDHAL~1\AppData\Local\Temp\cc29CzqQ.s 			page 143


2414:Generated_Source\PSoC4/CyLFClk.c ****             while (0u == CySysTimerGetEnabledStatus(CY_SYS_TIMER0))
2415:Generated_Source\PSoC4/CyLFClk.c ****             {
2416:Generated_Source\PSoC4/CyLFClk.c ****                 /* Wait for changes to come into effect */
2417:Generated_Source\PSoC4/CyLFClk.c ****             }
2418:Generated_Source\PSoC4/CyLFClk.c ****         }
2419:Generated_Source\PSoC4/CyLFClk.c **** 
2420:Generated_Source\PSoC4/CyLFClk.c ****         if(0u != (counterMask & CY_SYS_TIMER1_MASK))
2421:Generated_Source\PSoC4/CyLFClk.c ****         {
2422:Generated_Source\PSoC4/CyLFClk.c ****             while (0u == CySysTimerGetEnabledStatus(CY_SYS_TIMER1))
2423:Generated_Source\PSoC4/CyLFClk.c ****             {
2424:Generated_Source\PSoC4/CyLFClk.c ****                 /* Wait for changes to come into effect */
2425:Generated_Source\PSoC4/CyLFClk.c ****             }
2426:Generated_Source\PSoC4/CyLFClk.c ****         }
2427:Generated_Source\PSoC4/CyLFClk.c **** 
2428:Generated_Source\PSoC4/CyLFClk.c ****         if(0u != (counterMask & CY_SYS_TIMER2_MASK))
2429:Generated_Source\PSoC4/CyLFClk.c ****         {
2430:Generated_Source\PSoC4/CyLFClk.c ****             while (0u == CySysTimerGetEnabledStatus(CY_SYS_TIMER2))
2431:Generated_Source\PSoC4/CyLFClk.c ****             {
2432:Generated_Source\PSoC4/CyLFClk.c ****                 /* Wait for changes to come into effect */
2433:Generated_Source\PSoC4/CyLFClk.c ****             }
2434:Generated_Source\PSoC4/CyLFClk.c ****         }
2435:Generated_Source\PSoC4/CyLFClk.c ****     }
2436:Generated_Source\PSoC4/CyLFClk.c **** 
2437:Generated_Source\PSoC4/CyLFClk.c **** 
2438:Generated_Source\PSoC4/CyLFClk.c ****     /*******************************************************************************
2439:Generated_Source\PSoC4/CyLFClk.c ****     * Function Name: CySysTimerDisable
2440:Generated_Source\PSoC4/CyLFClk.c ****     ****************************************************************************//**
2441:Generated_Source\PSoC4/CyLFClk.c ****     *
2442:Generated_Source\PSoC4/CyLFClk.c ****     * \brief Disables the specified DeepSleep Timer counters.
2443:Generated_Source\PSoC4/CyLFClk.c ****     *
2444:Generated_Source\PSoC4/CyLFClk.c ****     * All the counters specified in the mask are disabled. The function waits for 
2445:Generated_Source\PSoC4/CyLFClk.c ****     * the changes to come into effect.
2446:Generated_Source\PSoC4/CyLFClk.c ****     *
2447:Generated_Source\PSoC4/CyLFClk.c ****     * \param counterMask
2448:Generated_Source\PSoC4/CyLFClk.c ****     *  CY_SYS_TIMER0_MASK - The mask for Counter 0 to disable.<br>
2449:Generated_Source\PSoC4/CyLFClk.c ****     * CY_SYS_TIMER1_MASK - The mask for Counter 1 to disable.<br>
2450:Generated_Source\PSoC4/CyLFClk.c ****     * CY_SYS_TIMER2_MASK - The mask for Counter 2 to disable.
2451:Generated_Source\PSoC4/CyLFClk.c ****     *
2452:Generated_Source\PSoC4/CyLFClk.c ****     *******************************************************************************/
2453:Generated_Source\PSoC4/CyLFClk.c ****     void CySysTimerDisable(uint32 counterMask)
2454:Generated_Source\PSoC4/CyLFClk.c ****     {
2455:Generated_Source\PSoC4/CyLFClk.c **** 
2456:Generated_Source\PSoC4/CyLFClk.c ****         CY_SYS_WCO_WDT_CONTROL_REG &= ~counterMask;
2457:Generated_Source\PSoC4/CyLFClk.c **** 
2458:Generated_Source\PSoC4/CyLFClk.c ****         if(0u != (counterMask & CY_SYS_TIMER0_MASK))
2459:Generated_Source\PSoC4/CyLFClk.c ****         {
2460:Generated_Source\PSoC4/CyLFClk.c ****             while (0u != CySysTimerGetEnabledStatus(CY_SYS_TIMER0))
2461:Generated_Source\PSoC4/CyLFClk.c ****             {
2462:Generated_Source\PSoC4/CyLFClk.c ****                 /* Wait for changes to come into effect */
2463:Generated_Source\PSoC4/CyLFClk.c ****             }
2464:Generated_Source\PSoC4/CyLFClk.c ****         }
2465:Generated_Source\PSoC4/CyLFClk.c **** 
2466:Generated_Source\PSoC4/CyLFClk.c ****         if(0u != (counterMask & CY_SYS_TIMER1_MASK))
2467:Generated_Source\PSoC4/CyLFClk.c ****         {
2468:Generated_Source\PSoC4/CyLFClk.c ****             while (0u != CySysTimerGetEnabledStatus(CY_SYS_TIMER1))
2469:Generated_Source\PSoC4/CyLFClk.c ****             {
2470:Generated_Source\PSoC4/CyLFClk.c ****                 /* Wait for changes to come into effect */
ARM GAS  C:\Users\AFDHAL~1\AppData\Local\Temp\cc29CzqQ.s 			page 144


2471:Generated_Source\PSoC4/CyLFClk.c ****             }
2472:Generated_Source\PSoC4/CyLFClk.c ****         }
2473:Generated_Source\PSoC4/CyLFClk.c **** 
2474:Generated_Source\PSoC4/CyLFClk.c ****         if(0u != (counterMask & CY_SYS_TIMER2_MASK))
2475:Generated_Source\PSoC4/CyLFClk.c ****         {
2476:Generated_Source\PSoC4/CyLFClk.c ****             while (0u != CySysTimerGetEnabledStatus(CY_SYS_TIMER2))
2477:Generated_Source\PSoC4/CyLFClk.c ****             {
2478:Generated_Source\PSoC4/CyLFClk.c ****                 /* Wait for changes to come into effect */
2479:Generated_Source\PSoC4/CyLFClk.c ****             }
2480:Generated_Source\PSoC4/CyLFClk.c ****         }
2481:Generated_Source\PSoC4/CyLFClk.c **** 
2482:Generated_Source\PSoC4/CyLFClk.c ****     }
2483:Generated_Source\PSoC4/CyLFClk.c **** 
2484:Generated_Source\PSoC4/CyLFClk.c **** 
2485:Generated_Source\PSoC4/CyLFClk.c ****     /*******************************************************************************
2486:Generated_Source\PSoC4/CyLFClk.c ****     * Function Name: CySysTimerSetCascade
2487:Generated_Source\PSoC4/CyLFClk.c ****     ****************************************************************************//**
2488:Generated_Source\PSoC4/CyLFClk.c ****     *
2489:Generated_Source\PSoC4/CyLFClk.c ****     * \brief
2490:Generated_Source\PSoC4/CyLFClk.c ****     * Writes the two DeepSleep Timers cascade values based on the combination of 
2491:Generated_Source\PSoC4/CyLFClk.c ****     * mask values specified.
2492:Generated_Source\PSoC4/CyLFClk.c ****     *
2493:Generated_Source\PSoC4/CyLFClk.c ****     * \param cascadeMask The mask value used to set or clear the cascade values:
2494:Generated_Source\PSoC4/CyLFClk.c ****     * CY_SYS_TIMER_CASCADE_NONE - Neither<br>
2495:Generated_Source\PSoC4/CyLFClk.c ****     * CY_SYS_TIMER_CASCADE_01 - Cascade 01<br>
2496:Generated_Source\PSoC4/CyLFClk.c ****     * CY_SYS_TIMER_CASCADE_12 - Cascade 12
2497:Generated_Source\PSoC4/CyLFClk.c ****     *
2498:Generated_Source\PSoC4/CyLFClk.c ****     * If only one cascade mask is specified, the second cascade is disabled.
2499:Generated_Source\PSoC4/CyLFClk.c ****     * To set both cascade modes, two defines should be ORed:
2500:Generated_Source\PSoC4/CyLFClk.c ****     * (CY_SYS_TIMER_CASCADE_01 | CY_SYS_TIMER_CASCADE_12).
2501:Generated_Source\PSoC4/CyLFClk.c ****     * \note If CySysTimerSetCascade() was called with ORed defines it is necessary 
2502:Generated_Source\PSoC4/CyLFClk.c ****     * to call CySysTimeSetClearOnMatch(1,1). It is needed to make sure that 
2503:Generated_Source\PSoC4/CyLFClk.c ****     * Counter 2 will be updated in the expected way.
2504:Generated_Source\PSoC4/CyLFClk.c ****     *
2505:Generated_Source\PSoC4/CyLFClk.c ****     * Timer counters that are part of the specified cascade should be disabled.
2506:Generated_Source\PSoC4/CyLFClk.c ****     * Otherwise this function call has no effect. If the specified
2507:Generated_Source\PSoC4/CyLFClk.c ****     * counter is enabled, call CySysTimerDisable() function with the corresponding
2508:Generated_Source\PSoC4/CyLFClk.c ****     * parameter to disable the specified counter and wait for it to stop. This may
2509:Generated_Source\PSoC4/CyLFClk.c ****     * take up to 3 Timers source-cycles.
2510:Generated_Source\PSoC4/CyLFClk.c ****     *
2511:Generated_Source\PSoC4/CyLFClk.c ****     *******************************************************************************/
2512:Generated_Source\PSoC4/CyLFClk.c ****     void CySysTimerSetCascade(uint32 cascadeMask)
2513:Generated_Source\PSoC4/CyLFClk.c ****     {
2514:Generated_Source\PSoC4/CyLFClk.c ****         uint32 configRegValue;
2515:Generated_Source\PSoC4/CyLFClk.c ****         uint32 countersEnableStatus;
2516:Generated_Source\PSoC4/CyLFClk.c **** 
2517:Generated_Source\PSoC4/CyLFClk.c ****         countersEnableStatus = CySysTimerGetEnabledStatus(CY_SYS_TIMER0) |
2518:Generated_Source\PSoC4/CyLFClk.c ****                             CySysTimerGetEnabledStatus(CY_SYS_TIMER1) |
2519:Generated_Source\PSoC4/CyLFClk.c ****                             CySysTimerGetEnabledStatus(CY_SYS_TIMER2);
2520:Generated_Source\PSoC4/CyLFClk.c **** 
2521:Generated_Source\PSoC4/CyLFClk.c ****         if (0u == countersEnableStatus)
2522:Generated_Source\PSoC4/CyLFClk.c ****         {
2523:Generated_Source\PSoC4/CyLFClk.c ****             configRegValue = CY_SYS_WCO_WDT_CONFIG_REG;
2524:Generated_Source\PSoC4/CyLFClk.c ****             configRegValue &= ((uint32)(~(CY_SYS_TIMER_CASCADE_01|CY_SYS_TIMER_CASCADE_12)));
2525:Generated_Source\PSoC4/CyLFClk.c ****             configRegValue |= cascadeMask;
2526:Generated_Source\PSoC4/CyLFClk.c ****             CY_SYS_WCO_WDT_CONFIG_REG = configRegValue;
2527:Generated_Source\PSoC4/CyLFClk.c ****         }
ARM GAS  C:\Users\AFDHAL~1\AppData\Local\Temp\cc29CzqQ.s 			page 145


2528:Generated_Source\PSoC4/CyLFClk.c ****     }
2529:Generated_Source\PSoC4/CyLFClk.c **** 
2530:Generated_Source\PSoC4/CyLFClk.c **** 
2531:Generated_Source\PSoC4/CyLFClk.c ****     /*******************************************************************************
2532:Generated_Source\PSoC4/CyLFClk.c ****     * Function Name: CySysTimerGetCascade
2533:Generated_Source\PSoC4/CyLFClk.c ****     ****************************************************************************//**
2534:Generated_Source\PSoC4/CyLFClk.c ****     *
2535:Generated_Source\PSoC4/CyLFClk.c ****     * \brief Reads the two DeepSleep Timer cascade values returning a mask of the 
2536:Generated_Source\PSoC4/CyLFClk.c ****     * bits set.
2537:Generated_Source\PSoC4/CyLFClk.c ****     *
2538:Generated_Source\PSoC4/CyLFClk.c ****     * \return The mask of the cascade values set.
2539:Generated_Source\PSoC4/CyLFClk.c ****     * \return CY_SYS_TIMER_CASCADE_NONE - Neither
2540:Generated_Source\PSoC4/CyLFClk.c ****     * \return CY_SYS_TIMER_CASCADE_01 - Cascade 01
2541:Generated_Source\PSoC4/CyLFClk.c ****     * \return CY_SYS_TIMER_CASCADE_12 - Cascade 12
2542:Generated_Source\PSoC4/CyLFClk.c ****     *
2543:Generated_Source\PSoC4/CyLFClk.c ****     *******************************************************************************/
2544:Generated_Source\PSoC4/CyLFClk.c ****     uint32 CySysTimerGetCascade(void)
2545:Generated_Source\PSoC4/CyLFClk.c ****     {
2546:Generated_Source\PSoC4/CyLFClk.c ****         return (CY_SYS_WCO_WDT_CONFIG_REG & (CY_SYS_TIMER_CASCADE_01 | CY_SYS_TIMER_CASCADE_12));
2547:Generated_Source\PSoC4/CyLFClk.c ****     }
2548:Generated_Source\PSoC4/CyLFClk.c **** 
2549:Generated_Source\PSoC4/CyLFClk.c **** 
2550:Generated_Source\PSoC4/CyLFClk.c ****     /*******************************************************************************
2551:Generated_Source\PSoC4/CyLFClk.c ****     * Function Name: CySysTimerSetMatch
2552:Generated_Source\PSoC4/CyLFClk.c ****     ****************************************************************************//**
2553:Generated_Source\PSoC4/CyLFClk.c ****     *
2554:Generated_Source\PSoC4/CyLFClk.c ****     * \brief Configures the Timer counter match comparison value.
2555:Generated_Source\PSoC4/CyLFClk.c ****     *
2556:Generated_Source\PSoC4/CyLFClk.c ****     * \param counterNum Valid range [0-1]. The number of the Timer counter. The 
2557:Generated_Source\PSoC4/CyLFClk.c ****     * match values are not supported by counter 2.
2558:Generated_Source\PSoC4/CyLFClk.c ****     *
2559:Generated_Source\PSoC4/CyLFClk.c ****     * \param match Valid range [0-65535]. The value to be used to match against 
2560:Generated_Source\PSoC4/CyLFClk.c ****     * the counter.
2561:Generated_Source\PSoC4/CyLFClk.c ****     *
2562:Generated_Source\PSoC4/CyLFClk.c ****     *******************************************************************************/
2563:Generated_Source\PSoC4/CyLFClk.c ****     void CySysTimerSetMatch(uint32 counterNum, uint32 match)
2564:Generated_Source\PSoC4/CyLFClk.c ****     {
2565:Generated_Source\PSoC4/CyLFClk.c ****         uint32 regValue;
2566:Generated_Source\PSoC4/CyLFClk.c **** 
2567:Generated_Source\PSoC4/CyLFClk.c ****         CYASSERT((counterNum == CY_SYS_TIMER0) ||
2568:Generated_Source\PSoC4/CyLFClk.c ****                  (counterNum == CY_SYS_TIMER1));
2569:Generated_Source\PSoC4/CyLFClk.c **** 
2570:Generated_Source\PSoC4/CyLFClk.c ****         /* Wait for previous changes to come into effect */
2571:Generated_Source\PSoC4/CyLFClk.c ****         CyDelayUs(CY_SYS_3TIMER_DELAY_US);
2572:Generated_Source\PSoC4/CyLFClk.c **** 
2573:Generated_Source\PSoC4/CyLFClk.c ****         regValue = CY_SYS_WCO_WDT_MATCH_REG;
2574:Generated_Source\PSoC4/CyLFClk.c ****         regValue &= (uint32)~((uint32)(CY_SYS_TIMER_LOWER_16BITS_MASK << (counterNum * CY_SYS_TIMER
2575:Generated_Source\PSoC4/CyLFClk.c ****         CY_SYS_WCO_WDT_MATCH_REG = (regValue | (match << (counterNum * CY_SYS_TIMER_CNT_MATCH_SHIFT
2576:Generated_Source\PSoC4/CyLFClk.c **** 
2577:Generated_Source\PSoC4/CyLFClk.c ****         /* Make sure match synchronization has started */
2578:Generated_Source\PSoC4/CyLFClk.c ****         CyDelayUs(CY_SYS_1TIMER_DELAY_US);
2579:Generated_Source\PSoC4/CyLFClk.c ****     }
2580:Generated_Source\PSoC4/CyLFClk.c **** 
2581:Generated_Source\PSoC4/CyLFClk.c **** 
2582:Generated_Source\PSoC4/CyLFClk.c ****     /*******************************************************************************
2583:Generated_Source\PSoC4/CyLFClk.c ****     * Function Name: CySysTimerSetToggleBit
2584:Generated_Source\PSoC4/CyLFClk.c ****     ****************************************************************************//**
ARM GAS  C:\Users\AFDHAL~1\AppData\Local\Temp\cc29CzqQ.s 			page 146


2585:Generated_Source\PSoC4/CyLFClk.c ****     *
2586:Generated_Source\PSoC4/CyLFClk.c ****     * \brief Configures which bit in Timer counter 2 to monitor for a toggle.
2587:Generated_Source\PSoC4/CyLFClk.c ****     *
2588:Generated_Source\PSoC4/CyLFClk.c ****     * When that bit toggles, an interrupt is generated if mode for counter 2 has
2589:Generated_Source\PSoC4/CyLFClk.c ****     * enabled interrupts.
2590:Generated_Source\PSoC4/CyLFClk.c ****     *
2591:Generated_Source\PSoC4/CyLFClk.c ****     * \param bits Valid range [0-31]. Counter 2 bit to monitor for a toggle.
2592:Generated_Source\PSoC4/CyLFClk.c ****     *
2593:Generated_Source\PSoC4/CyLFClk.c ****     * \details Timer counter 2 should be disabled. Otherwise this function call has
2594:Generated_Source\PSoC4/CyLFClk.c ****     * no effect.
2595:Generated_Source\PSoC4/CyLFClk.c ****     *
2596:Generated_Source\PSoC4/CyLFClk.c ****     * If the specified counter is enabled, call the CySysTimerDisable() function with
2597:Generated_Source\PSoC4/CyLFClk.c ****     * the corresponding parameter to disable the specified counter and wait for it to
2598:Generated_Source\PSoC4/CyLFClk.c ****     * stop. This may take up to three Timer source-cycles.
2599:Generated_Source\PSoC4/CyLFClk.c ****     *
2600:Generated_Source\PSoC4/CyLFClk.c ****     *******************************************************************************/
2601:Generated_Source\PSoC4/CyLFClk.c ****     void CySysTimerSetToggleBit(uint32 bits)
2602:Generated_Source\PSoC4/CyLFClk.c ****     {
2603:Generated_Source\PSoC4/CyLFClk.c ****         uint32 configRegValue;
2604:Generated_Source\PSoC4/CyLFClk.c **** 
2605:Generated_Source\PSoC4/CyLFClk.c ****         if (0u == CySysTimerGetEnabledStatus(CY_SYS_TIMER2))
2606:Generated_Source\PSoC4/CyLFClk.c ****         {
2607:Generated_Source\PSoC4/CyLFClk.c ****             configRegValue = CY_SYS_WCO_WDT_CONFIG_REG;
2608:Generated_Source\PSoC4/CyLFClk.c ****             configRegValue &= (uint32)(~((uint32)(CY_SYS_TIMER_CONFIG_BITS2_MASK << CY_SYS_TIMER_CO
2609:Generated_Source\PSoC4/CyLFClk.c ****             configRegValue |= ((bits & CY_SYS_TIMER_CONFIG_BITS2_MASK) << CY_SYS_TIMER_CONFIG_BITS2
2610:Generated_Source\PSoC4/CyLFClk.c ****             CY_SYS_WCO_WDT_CONFIG_REG = configRegValue;
2611:Generated_Source\PSoC4/CyLFClk.c ****         }
2612:Generated_Source\PSoC4/CyLFClk.c ****     }
2613:Generated_Source\PSoC4/CyLFClk.c **** 
2614:Generated_Source\PSoC4/CyLFClk.c **** 
2615:Generated_Source\PSoC4/CyLFClk.c ****     /*******************************************************************************
2616:Generated_Source\PSoC4/CyLFClk.c ****     * Function Name: CySysTimerGetToggleBit
2617:Generated_Source\PSoC4/CyLFClk.c ****     ****************************************************************************//**
2618:Generated_Source\PSoC4/CyLFClk.c ****     *
2619:Generated_Source\PSoC4/CyLFClk.c ****     * \brief Reads which bit in Timer counter 2 is monitored for a toggle.
2620:Generated_Source\PSoC4/CyLFClk.c ****     *
2621:Generated_Source\PSoC4/CyLFClk.c ****     * \return The bit that is monitored (range of 0 to 31)
2622:Generated_Source\PSoC4/CyLFClk.c ****     *
2623:Generated_Source\PSoC4/CyLFClk.c ****     *******************************************************************************/
2624:Generated_Source\PSoC4/CyLFClk.c ****     uint32 CySysTimerGetToggleBit(void)
2625:Generated_Source\PSoC4/CyLFClk.c ****     {
2626:Generated_Source\PSoC4/CyLFClk.c ****         return ((CY_SYS_WCO_WDT_CONFIG_REG >> CY_SYS_TIMER_CONFIG_BITS2_POS) & CY_SYS_TIMER_CONFIG_
2627:Generated_Source\PSoC4/CyLFClk.c ****     }
2628:Generated_Source\PSoC4/CyLFClk.c **** 
2629:Generated_Source\PSoC4/CyLFClk.c **** 
2630:Generated_Source\PSoC4/CyLFClk.c ****     /*******************************************************************************
2631:Generated_Source\PSoC4/CyLFClk.c ****     * Function Name: CySysTimerGetMatch
2632:Generated_Source\PSoC4/CyLFClk.c ****     ****************************************************************************//**
2633:Generated_Source\PSoC4/CyLFClk.c ****     *
2634:Generated_Source\PSoC4/CyLFClk.c ****     * \brief Reads the Timer counter match comparison value.
2635:Generated_Source\PSoC4/CyLFClk.c ****     *
2636:Generated_Source\PSoC4/CyLFClk.c ****     * \param counterNum Valid range [0-1]. The number of the DeepSleep Timer 
2637:Generated_Source\PSoC4/CyLFClk.c ****     * counter. The match values are not supported by counter 2.
2638:Generated_Source\PSoC4/CyLFClk.c ****     *
2639:Generated_Source\PSoC4/CyLFClk.c ****     * \return A 16-bit match value.
2640:Generated_Source\PSoC4/CyLFClk.c ****     *
2641:Generated_Source\PSoC4/CyLFClk.c ****     *******************************************************************************/
ARM GAS  C:\Users\AFDHAL~1\AppData\Local\Temp\cc29CzqQ.s 			page 147


2642:Generated_Source\PSoC4/CyLFClk.c ****     uint32 CySysTimerGetMatch(uint32 counterNum)
2643:Generated_Source\PSoC4/CyLFClk.c ****     {
2644:Generated_Source\PSoC4/CyLFClk.c ****         CYASSERT((counterNum == CY_SYS_TIMER0) ||
2645:Generated_Source\PSoC4/CyLFClk.c ****                  (counterNum == CY_SYS_TIMER1));
2646:Generated_Source\PSoC4/CyLFClk.c **** 
2647:Generated_Source\PSoC4/CyLFClk.c ****         return ((uint32)(CY_SYS_WCO_WDT_MATCH_REG >> (counterNum * CY_SYS_TIMER_CNT_MATCH_SHIFT)) &
2648:Generated_Source\PSoC4/CyLFClk.c ****                                                                   CY_SYS_TIMER_LOWER_16BITS_MASK);
2649:Generated_Source\PSoC4/CyLFClk.c ****     }
2650:Generated_Source\PSoC4/CyLFClk.c **** 
2651:Generated_Source\PSoC4/CyLFClk.c **** 
2652:Generated_Source\PSoC4/CyLFClk.c ****     /*******************************************************************************
2653:Generated_Source\PSoC4/CyLFClk.c ****     * Function Name: CySysTimerGetCount
2654:Generated_Source\PSoC4/CyLFClk.c ****     ****************************************************************************//**
2655:Generated_Source\PSoC4/CyLFClk.c ****     *
2656:Generated_Source\PSoC4/CyLFClk.c ****     * \brief Reads the current DeepSleep Timer counter value.
2657:Generated_Source\PSoC4/CyLFClk.c ****     *
2658:Generated_Source\PSoC4/CyLFClk.c ****     * \param counterNum Valid range [0-2]. The number of the Timer counter.
2659:Generated_Source\PSoC4/CyLFClk.c ****     *
2660:Generated_Source\PSoC4/CyLFClk.c ****     * \return A live counter value. Counter 0 and Counter 1 are 16 bit counters 
2661:Generated_Source\PSoC4/CyLFClk.c ****     * and counter 2 is a 32 bit counter.
2662:Generated_Source\PSoC4/CyLFClk.c ****     *
2663:Generated_Source\PSoC4/CyLFClk.c ****     *******************************************************************************/
2664:Generated_Source\PSoC4/CyLFClk.c ****     uint32 CySysTimerGetCount(uint32 counterNum)
2665:Generated_Source\PSoC4/CyLFClk.c ****     {
2666:Generated_Source\PSoC4/CyLFClk.c ****         uint32 regValue = 0u;
2667:Generated_Source\PSoC4/CyLFClk.c **** 
2668:Generated_Source\PSoC4/CyLFClk.c ****         switch(counterNum)
2669:Generated_Source\PSoC4/CyLFClk.c ****         {
2670:Generated_Source\PSoC4/CyLFClk.c ****             /* Timer Counter 0 */
2671:Generated_Source\PSoC4/CyLFClk.c ****             case 0u:
2672:Generated_Source\PSoC4/CyLFClk.c ****                 regValue = CY_SYS_WCO_WDT_CTRLOW_REG & CY_SYS_TIMER_LOWER_16BITS_MASK;
2673:Generated_Source\PSoC4/CyLFClk.c ****             break;
2674:Generated_Source\PSoC4/CyLFClk.c **** 
2675:Generated_Source\PSoC4/CyLFClk.c ****             /* Timer Counter 1 */
2676:Generated_Source\PSoC4/CyLFClk.c ****             case 1u:
2677:Generated_Source\PSoC4/CyLFClk.c ****                 regValue = (CY_SYS_WCO_WDT_CTRLOW_REG >> CY_SYS_TIMER_CNT_MATCH_SHIFT) & CY_SYS_TIM
2678:Generated_Source\PSoC4/CyLFClk.c ****             break;
2679:Generated_Source\PSoC4/CyLFClk.c **** 
2680:Generated_Source\PSoC4/CyLFClk.c ****             /* Timer Counter 2 */
2681:Generated_Source\PSoC4/CyLFClk.c ****             case 2u:
2682:Generated_Source\PSoC4/CyLFClk.c ****                 regValue = CY_SYS_WCO_WDT_CTRHIGH_REG;
2683:Generated_Source\PSoC4/CyLFClk.c ****             break;
2684:Generated_Source\PSoC4/CyLFClk.c **** 
2685:Generated_Source\PSoC4/CyLFClk.c ****             default:
2686:Generated_Source\PSoC4/CyLFClk.c ****                 CYASSERT(0u != 0u);
2687:Generated_Source\PSoC4/CyLFClk.c ****             break;
2688:Generated_Source\PSoC4/CyLFClk.c ****         }
2689:Generated_Source\PSoC4/CyLFClk.c **** 
2690:Generated_Source\PSoC4/CyLFClk.c ****         return (regValue);
2691:Generated_Source\PSoC4/CyLFClk.c ****     }
2692:Generated_Source\PSoC4/CyLFClk.c **** 
2693:Generated_Source\PSoC4/CyLFClk.c **** 
2694:Generated_Source\PSoC4/CyLFClk.c ****     /*******************************************************************************
2695:Generated_Source\PSoC4/CyLFClk.c ****     * Function Name: CySysTimerGetInterruptSource
2696:Generated_Source\PSoC4/CyLFClk.c ****     ****************************************************************************//**
2697:Generated_Source\PSoC4/CyLFClk.c ****     *
2698:Generated_Source\PSoC4/CyLFClk.c ****     * \brief
ARM GAS  C:\Users\AFDHAL~1\AppData\Local\Temp\cc29CzqQ.s 			page 148


2699:Generated_Source\PSoC4/CyLFClk.c ****     * Reads a mask containing all the DeepSleep Timer counters interrupts that are 
2700:Generated_Source\PSoC4/CyLFClk.c ****     * currently set by the hardware, if a corresponding mode is selected.
2701:Generated_Source\PSoC4/CyLFClk.c ****     *
2702:Generated_Source\PSoC4/CyLFClk.c ****     * \return The mask of interrupts set
2703:Generated_Source\PSoC4/CyLFClk.c ****     * \return CY_SYS_TIMER0_INT - Set interrupt for Counter 0
2704:Generated_Source\PSoC4/CyLFClk.c ****     * \return CY_SYS_TIMER1_INT - Set interrupt for Counter 1
2705:Generated_Source\PSoC4/CyLFClk.c ****     * \return CY_SYS_TIMER2_INT - Set interrupt for Counter 2
2706:Generated_Source\PSoC4/CyLFClk.c ****     *
2707:Generated_Source\PSoC4/CyLFClk.c ****     *******************************************************************************/
2708:Generated_Source\PSoC4/CyLFClk.c ****     uint32 CySysTimerGetInterruptSource(void)
2709:Generated_Source\PSoC4/CyLFClk.c ****     {
2710:Generated_Source\PSoC4/CyLFClk.c ****         return (CY_SYS_WCO_WDT_CONTROL_REG & (CY_SYS_TIMER0_INT | CY_SYS_TIMER1_INT | CY_SYS_TIMER2
2711:Generated_Source\PSoC4/CyLFClk.c ****     }
2712:Generated_Source\PSoC4/CyLFClk.c **** 
2713:Generated_Source\PSoC4/CyLFClk.c **** 
2714:Generated_Source\PSoC4/CyLFClk.c ****     /*******************************************************************************
2715:Generated_Source\PSoC4/CyLFClk.c ****     * Function Name: CySysTimerClearInterrupt
2716:Generated_Source\PSoC4/CyLFClk.c ****     ****************************************************************************//**
2717:Generated_Source\PSoC4/CyLFClk.c ****     *
2718:Generated_Source\PSoC4/CyLFClk.c ****     * \brief Clears all the DeepSleep Timer counter interrupts set in the mask.
2719:Generated_Source\PSoC4/CyLFClk.c ****     *
2720:Generated_Source\PSoC4/CyLFClk.c ****     * All the Timer interrupts are to be cleared by the firmware, otherwise
2721:Generated_Source\PSoC4/CyLFClk.c ****     * interrupts are generated continuously.
2722:Generated_Source\PSoC4/CyLFClk.c ****     *
2723:Generated_Source\PSoC4/CyLFClk.c ****     * \param counterMask
2724:Generated_Source\PSoC4/CyLFClk.c ****     *  CY_SYS_TIMER0_INT - Clear counter 0<br>
2725:Generated_Source\PSoC4/CyLFClk.c ****     * CY_SYS_TIMER1_INT - Clear counter 1<br>
2726:Generated_Source\PSoC4/CyLFClk.c ****     * CY_SYS_TIMER2_INT - Clear counter 2
2727:Generated_Source\PSoC4/CyLFClk.c ****     *
2728:Generated_Source\PSoC4/CyLFClk.c ****     *******************************************************************************/
2729:Generated_Source\PSoC4/CyLFClk.c ****     void CySysTimerClearInterrupt(uint32 counterMask)
2730:Generated_Source\PSoC4/CyLFClk.c ****     {
2731:Generated_Source\PSoC4/CyLFClk.c ****         uint8 interruptState;
2732:Generated_Source\PSoC4/CyLFClk.c ****         interruptState = CyEnterCriticalSection();
2733:Generated_Source\PSoC4/CyLFClk.c **** 
2734:Generated_Source\PSoC4/CyLFClk.c ****         /* Set new WCO_TIMER control register value */
2735:Generated_Source\PSoC4/CyLFClk.c ****         counterMask &= (CY_SYS_TIMER0_INT |
2736:Generated_Source\PSoC4/CyLFClk.c ****                         CY_SYS_TIMER1_INT |
2737:Generated_Source\PSoC4/CyLFClk.c ****                         CY_SYS_TIMER2_INT);
2738:Generated_Source\PSoC4/CyLFClk.c **** 
2739:Generated_Source\PSoC4/CyLFClk.c ****         CY_SYS_WCO_WDT_CONTROL_REG = counterMask | (CY_SYS_WCO_WDT_CONTROL_REG & ~(CY_SYS_TIMER0_IN
2740:Generated_Source\PSoC4/CyLFClk.c ****                                                                            CY_SYS_TIMER1_INT |
2741:Generated_Source\PSoC4/CyLFClk.c ****                                                                            CY_SYS_TIMER2_INT));
2742:Generated_Source\PSoC4/CyLFClk.c **** 
2743:Generated_Source\PSoC4/CyLFClk.c ****         /* Read the CY_SYS_WDT_CONTROL_REG to clear the interrupt request.
2744:Generated_Source\PSoC4/CyLFClk.c ****          * Cypress ID #207093, #206231
2745:Generated_Source\PSoC4/CyLFClk.c ****         */
2746:Generated_Source\PSoC4/CyLFClk.c ****         (void)CY_SYS_WCO_WDT_CONTROL_REG;
2747:Generated_Source\PSoC4/CyLFClk.c **** 
2748:Generated_Source\PSoC4/CyLFClk.c ****         CyExitCriticalSection(interruptState);
2749:Generated_Source\PSoC4/CyLFClk.c ****     }
2750:Generated_Source\PSoC4/CyLFClk.c **** 
2751:Generated_Source\PSoC4/CyLFClk.c **** 
2752:Generated_Source\PSoC4/CyLFClk.c ****     /*******************************************************************************
2753:Generated_Source\PSoC4/CyLFClk.c ****     * Function Name: CySysTimerSetInterruptCallback
2754:Generated_Source\PSoC4/CyLFClk.c ****     ****************************************************************************//**
2755:Generated_Source\PSoC4/CyLFClk.c ****     *
ARM GAS  C:\Users\AFDHAL~1\AppData\Local\Temp\cc29CzqQ.s 			page 149


2756:Generated_Source\PSoC4/CyLFClk.c ****     * \brief
2757:Generated_Source\PSoC4/CyLFClk.c ****     * Sets the ISR callback function for the particular DeepSleep Timer counter.
2758:Generated_Source\PSoC4/CyLFClk.c ****     *
2759:Generated_Source\PSoC4/CyLFClk.c ****     * These functions are called on the Timer interrupt.
2760:Generated_Source\PSoC4/CyLFClk.c ****     *
2761:Generated_Source\PSoC4/CyLFClk.c ****     * \param counterNum The number of the Timer counter.
2762:Generated_Source\PSoC4/CyLFClk.c ****     * \param function The pointer to the callback function.
2763:Generated_Source\PSoC4/CyLFClk.c ****     *
2764:Generated_Source\PSoC4/CyLFClk.c ****     * \return  The pointer to the previous callback function. 
2765:Generated_Source\PSoC4/CyLFClk.c ****     * \return NULL is returned if the specified address is not set.
2766:Generated_Source\PSoC4/CyLFClk.c ****     *
2767:Generated_Source\PSoC4/CyLFClk.c ****     *******************************************************************************/
2768:Generated_Source\PSoC4/CyLFClk.c ****     cyTimerCallback CySysTimerSetInterruptCallback(uint32 counterNum, cyTimerCallback function)
2769:Generated_Source\PSoC4/CyLFClk.c ****     {
2770:Generated_Source\PSoC4/CyLFClk.c ****         cyTimerCallback prevCallback = (void *)0;
2771:Generated_Source\PSoC4/CyLFClk.c **** 
2772:Generated_Source\PSoC4/CyLFClk.c ****         if(counterNum < CY_SYS_NUM_OF_TIMERS)
2773:Generated_Source\PSoC4/CyLFClk.c ****         {
2774:Generated_Source\PSoC4/CyLFClk.c ****             prevCallback = cySysTimerCallback[counterNum];
2775:Generated_Source\PSoC4/CyLFClk.c ****             cySysTimerCallback[counterNum] = function;
2776:Generated_Source\PSoC4/CyLFClk.c ****         }
2777:Generated_Source\PSoC4/CyLFClk.c ****         else
2778:Generated_Source\PSoC4/CyLFClk.c ****         {
2779:Generated_Source\PSoC4/CyLFClk.c ****             CYASSERT(0u != 0u);
2780:Generated_Source\PSoC4/CyLFClk.c ****         }
2781:Generated_Source\PSoC4/CyLFClk.c **** 
2782:Generated_Source\PSoC4/CyLFClk.c ****         return((cyTimerCallback)prevCallback);
2783:Generated_Source\PSoC4/CyLFClk.c ****     }
2784:Generated_Source\PSoC4/CyLFClk.c **** 
2785:Generated_Source\PSoC4/CyLFClk.c **** 
2786:Generated_Source\PSoC4/CyLFClk.c ****     /*******************************************************************************
2787:Generated_Source\PSoC4/CyLFClk.c ****     * Function Name: CySysTimerGetInterruptCallback
2788:Generated_Source\PSoC4/CyLFClk.c ****     ****************************************************************************//**
2789:Generated_Source\PSoC4/CyLFClk.c ****     *
2790:Generated_Source\PSoC4/CyLFClk.c ****     * \brief Gets the ISR callback function for the particular DeepSleep Timer 
2791:Generated_Source\PSoC4/CyLFClk.c ****     * counter.
2792:Generated_Source\PSoC4/CyLFClk.c ****     *
2793:Generated_Source\PSoC4/CyLFClk.c ****     * \param counterNum The number of the Timer counter.
2794:Generated_Source\PSoC4/CyLFClk.c ****     *
2795:Generated_Source\PSoC4/CyLFClk.c ****     * \return
2796:Generated_Source\PSoC4/CyLFClk.c ****     * The pointer to the callback function registered for a particular Timer by
2797:Generated_Source\PSoC4/CyLFClk.c ****     * a particular address that are passed through arguments.
2798:Generated_Source\PSoC4/CyLFClk.c ****     *
2799:Generated_Source\PSoC4/CyLFClk.c ****     *******************************************************************************/
2800:Generated_Source\PSoC4/CyLFClk.c ****     cyTimerCallback CySysTimerGetInterruptCallback(uint32 counterNum)
2801:Generated_Source\PSoC4/CyLFClk.c ****     {
2802:Generated_Source\PSoC4/CyLFClk.c ****         cyTimerCallback retCallback = (void *)0;
2803:Generated_Source\PSoC4/CyLFClk.c **** 
2804:Generated_Source\PSoC4/CyLFClk.c ****         if(counterNum < CY_SYS_NUM_OF_TIMERS)
2805:Generated_Source\PSoC4/CyLFClk.c ****         {
2806:Generated_Source\PSoC4/CyLFClk.c ****             retCallback = (cyTimerCallback)cySysTimerCallback[counterNum];
2807:Generated_Source\PSoC4/CyLFClk.c ****         }
2808:Generated_Source\PSoC4/CyLFClk.c ****         else
2809:Generated_Source\PSoC4/CyLFClk.c ****         {
2810:Generated_Source\PSoC4/CyLFClk.c ****             CYASSERT(0u != 0u);
2811:Generated_Source\PSoC4/CyLFClk.c ****         }
2812:Generated_Source\PSoC4/CyLFClk.c **** 
ARM GAS  C:\Users\AFDHAL~1\AppData\Local\Temp\cc29CzqQ.s 			page 150


2813:Generated_Source\PSoC4/CyLFClk.c ****         return(retCallback);
2814:Generated_Source\PSoC4/CyLFClk.c ****     }
2815:Generated_Source\PSoC4/CyLFClk.c **** 
2816:Generated_Source\PSoC4/CyLFClk.c **** 
2817:Generated_Source\PSoC4/CyLFClk.c ****     /*******************************************************************************
2818:Generated_Source\PSoC4/CyLFClk.c ****     * Function Name: CySysTimerEnableIsr
2819:Generated_Source\PSoC4/CyLFClk.c ****     ****************************************************************************//**
2820:Generated_Source\PSoC4/CyLFClk.c ****     *
2821:Generated_Source\PSoC4/CyLFClk.c ****     * \brief Enables the ISR callback servicing for the particular Timer counter
2822:Generated_Source\PSoC4/CyLFClk.c ****     *
2823:Generated_Source\PSoC4/CyLFClk.c ****     * \param counterNum Valid range [0-2]. The number of the Timer counter.
2824:Generated_Source\PSoC4/CyLFClk.c ****     *
2825:Generated_Source\PSoC4/CyLFClk.c ****     * Value corresponds to appropriate Timer counter. For example value 1 
2826:Generated_Source\PSoC4/CyLFClk.c ****     * corresponds to second Timer counter.
2827:Generated_Source\PSoC4/CyLFClk.c ****     *
2828:Generated_Source\PSoC4/CyLFClk.c ****     *******************************************************************************/
2829:Generated_Source\PSoC4/CyLFClk.c ****     void CySysTimerEnableIsr(uint32 counterNum)
2830:Generated_Source\PSoC4/CyLFClk.c ****     {
2831:Generated_Source\PSoC4/CyLFClk.c ****         if(counterNum <= CY_SYS_TIMER2)
2832:Generated_Source\PSoC4/CyLFClk.c ****         {
2833:Generated_Source\PSoC4/CyLFClk.c ****             disableTimerServicedIsr &= ~counterTimerIntMaskTbl[counterNum];
2834:Generated_Source\PSoC4/CyLFClk.c ****             timerIsrMask |= counterTimerIntMaskTbl[counterNum];
2835:Generated_Source\PSoC4/CyLFClk.c ****         }
2836:Generated_Source\PSoC4/CyLFClk.c ****         else
2837:Generated_Source\PSoC4/CyLFClk.c ****         {
2838:Generated_Source\PSoC4/CyLFClk.c ****             CYASSERT(0u != 0u);
2839:Generated_Source\PSoC4/CyLFClk.c ****         }
2840:Generated_Source\PSoC4/CyLFClk.c ****     }
2841:Generated_Source\PSoC4/CyLFClk.c **** 
2842:Generated_Source\PSoC4/CyLFClk.c **** 
2843:Generated_Source\PSoC4/CyLFClk.c ****     /*******************************************************************************
2844:Generated_Source\PSoC4/CyLFClk.c ****     * Function Name: CySysTimerDisableIsr
2845:Generated_Source\PSoC4/CyLFClk.c ****     ****************************************************************************//**
2846:Generated_Source\PSoC4/CyLFClk.c ****     *
2847:Generated_Source\PSoC4/CyLFClk.c ****     * \brief Disables the ISR callback servicing for the particular Timer counter
2848:Generated_Source\PSoC4/CyLFClk.c ****     *
2849:Generated_Source\PSoC4/CyLFClk.c ****     * \param counterNum Valid range [0-2]. The number of the Timer counter.
2850:Generated_Source\PSoC4/CyLFClk.c ****     *
2851:Generated_Source\PSoC4/CyLFClk.c ****     *******************************************************************************/
2852:Generated_Source\PSoC4/CyLFClk.c ****     void CySysTimerDisableIsr(uint32 counterNum)
2853:Generated_Source\PSoC4/CyLFClk.c ****     {
2854:Generated_Source\PSoC4/CyLFClk.c ****         if(counterNum <= CY_SYS_TIMER2)
2855:Generated_Source\PSoC4/CyLFClk.c ****         {
2856:Generated_Source\PSoC4/CyLFClk.c ****             timerIsrMask &= ~counterTimerIntMaskTbl[counterNum];
2857:Generated_Source\PSoC4/CyLFClk.c ****         }
2858:Generated_Source\PSoC4/CyLFClk.c ****         else
2859:Generated_Source\PSoC4/CyLFClk.c ****         {
2860:Generated_Source\PSoC4/CyLFClk.c ****             CYASSERT(0u != 0u);
2861:Generated_Source\PSoC4/CyLFClk.c ****         }
2862:Generated_Source\PSoC4/CyLFClk.c ****     }
2863:Generated_Source\PSoC4/CyLFClk.c **** 
2864:Generated_Source\PSoC4/CyLFClk.c **** 
2865:Generated_Source\PSoC4/CyLFClk.c ****     /*******************************************************************************
2866:Generated_Source\PSoC4/CyLFClk.c ****     * Function Name: CySysTimerIsr
2867:Generated_Source\PSoC4/CyLFClk.c ****     ****************************************************************************//**
2868:Generated_Source\PSoC4/CyLFClk.c ****     *
2869:Generated_Source\PSoC4/CyLFClk.c ****     * \brief This is the handler of the DeepSleep Timer interrupt in CPU NVIC.
ARM GAS  C:\Users\AFDHAL~1\AppData\Local\Temp\cc29CzqQ.s 			page 151


2870:Generated_Source\PSoC4/CyLFClk.c ****     *
2871:Generated_Source\PSoC4/CyLFClk.c ****     * The handler checks which Timer triggered in the interrupt and calls the 
2872:Generated_Source\PSoC4/CyLFClk.c ****     * respective callback functions configured by the user by using 
2873:Generated_Source\PSoC4/CyLFClk.c ****     * CySysTimerSetIsrCallback() API.
2874:Generated_Source\PSoC4/CyLFClk.c ****     *
2875:Generated_Source\PSoC4/CyLFClk.c ****     * The order of the callback execution is incremental. Callback-0 is
2876:Generated_Source\PSoC4/CyLFClk.c ****     * run as the first one and callback-2 is called as the last one.
2877:Generated_Source\PSoC4/CyLFClk.c ****     *
2878:Generated_Source\PSoC4/CyLFClk.c ****     * \details This function clears the DeepSleep Timer interrupt every time when 
2879:Generated_Source\PSoC4/CyLFClk.c ****     * it is called.
2880:Generated_Source\PSoC4/CyLFClk.c ****     *
2881:Generated_Source\PSoC4/CyLFClk.c ****     *******************************************************************************/
2882:Generated_Source\PSoC4/CyLFClk.c ****     void CySysTimerIsr(void)
2883:Generated_Source\PSoC4/CyLFClk.c ****     {
2884:Generated_Source\PSoC4/CyLFClk.c ****         if(0u != (CY_SYS_TIMER0_INT & CY_SYS_WCO_WDT_CONTROL_REG))
2885:Generated_Source\PSoC4/CyLFClk.c ****         {
2886:Generated_Source\PSoC4/CyLFClk.c ****             if(0u != (CY_SYS_TIMER0_INT & timerIsrMask))
2887:Generated_Source\PSoC4/CyLFClk.c ****             {
2888:Generated_Source\PSoC4/CyLFClk.c ****                 timerIsrMask &= ~(disableTimerServicedIsr & CY_SYS_TIMER0_INT);
2889:Generated_Source\PSoC4/CyLFClk.c ****                 disableTimerServicedIsr  &= ~CY_SYS_TIMER0_INT;
2890:Generated_Source\PSoC4/CyLFClk.c ****                 if(cySysTimerCallback[CY_SYS_TIMER0] != (void *) 0)
2891:Generated_Source\PSoC4/CyLFClk.c ****                 {
2892:Generated_Source\PSoC4/CyLFClk.c ****                     (void)(cySysTimerCallback[CY_SYS_TIMER0])();
2893:Generated_Source\PSoC4/CyLFClk.c ****                 }
2894:Generated_Source\PSoC4/CyLFClk.c ****             }
2895:Generated_Source\PSoC4/CyLFClk.c ****             CySysTimerClearInterrupt(CY_SYS_TIMER0_INT);
2896:Generated_Source\PSoC4/CyLFClk.c ****         }
2897:Generated_Source\PSoC4/CyLFClk.c **** 
2898:Generated_Source\PSoC4/CyLFClk.c ****         if(0u != (CY_SYS_TIMER1_INT & CY_SYS_WCO_WDT_CONTROL_REG))
2899:Generated_Source\PSoC4/CyLFClk.c ****         {
2900:Generated_Source\PSoC4/CyLFClk.c ****             if(0u != (CY_SYS_TIMER1_INT & timerIsrMask))
2901:Generated_Source\PSoC4/CyLFClk.c ****             {
2902:Generated_Source\PSoC4/CyLFClk.c ****                 timerIsrMask &= ~(disableTimerServicedIsr & CY_SYS_TIMER1_INT);
2903:Generated_Source\PSoC4/CyLFClk.c ****                 disableTimerServicedIsr  &= ~CY_SYS_TIMER1_INT;
2904:Generated_Source\PSoC4/CyLFClk.c ****                 if(cySysTimerCallback[CY_SYS_TIMER1] != (void *) 0)
2905:Generated_Source\PSoC4/CyLFClk.c ****                 {
2906:Generated_Source\PSoC4/CyLFClk.c ****                     (void)(cySysTimerCallback[CY_SYS_TIMER1])();
2907:Generated_Source\PSoC4/CyLFClk.c ****                 }
2908:Generated_Source\PSoC4/CyLFClk.c ****             }
2909:Generated_Source\PSoC4/CyLFClk.c ****             CySysTimerClearInterrupt(CY_SYS_TIMER1_INT);
2910:Generated_Source\PSoC4/CyLFClk.c ****         }
2911:Generated_Source\PSoC4/CyLFClk.c **** 
2912:Generated_Source\PSoC4/CyLFClk.c ****         if(0u != (CY_SYS_TIMER2_INT & CY_SYS_WCO_WDT_CONTROL_REG))
2913:Generated_Source\PSoC4/CyLFClk.c ****         {
2914:Generated_Source\PSoC4/CyLFClk.c ****             if(0u != (CY_SYS_TIMER2_INT & timerIsrMask))
2915:Generated_Source\PSoC4/CyLFClk.c ****             {
2916:Generated_Source\PSoC4/CyLFClk.c ****                 if(cySysTimerCallback[CY_SYS_TIMER2] != (void *) 0)
2917:Generated_Source\PSoC4/CyLFClk.c ****                 {
2918:Generated_Source\PSoC4/CyLFClk.c ****                     (void)(cySysTimerCallback[CY_SYS_TIMER2])();
2919:Generated_Source\PSoC4/CyLFClk.c ****                 }
2920:Generated_Source\PSoC4/CyLFClk.c ****             }
2921:Generated_Source\PSoC4/CyLFClk.c ****             CySysTimerClearInterrupt(CY_SYS_TIMER2_INT);
2922:Generated_Source\PSoC4/CyLFClk.c ****         }
2923:Generated_Source\PSoC4/CyLFClk.c ****     }
2924:Generated_Source\PSoC4/CyLFClk.c **** 
2925:Generated_Source\PSoC4/CyLFClk.c **** 
2926:Generated_Source\PSoC4/CyLFClk.c ****     /*******************************************************************************
ARM GAS  C:\Users\AFDHAL~1\AppData\Local\Temp\cc29CzqQ.s 			page 152


2927:Generated_Source\PSoC4/CyLFClk.c ****     * Function Name: CySysTimerResetCounters
2928:Generated_Source\PSoC4/CyLFClk.c ****     ****************************************************************************//**
2929:Generated_Source\PSoC4/CyLFClk.c ****     *
2930:Generated_Source\PSoC4/CyLFClk.c ****     * \brief Resets all the Timer counters set in the mask.
2931:Generated_Source\PSoC4/CyLFClk.c ****     *
2932:Generated_Source\PSoC4/CyLFClk.c ****     * \param countersMask
2933:Generated_Source\PSoC4/CyLFClk.c ****     * CY_SYS_TIMER0_RESET - Reset the Counter 0<br>
2934:Generated_Source\PSoC4/CyLFClk.c ****     * CY_SYS_TIMER1_RESET - Reset the Counter 1<br>
2935:Generated_Source\PSoC4/CyLFClk.c ****     * CY_SYS_TIMER2_RESET - Reset the Counter 2
2936:Generated_Source\PSoC4/CyLFClk.c ****     *
2937:Generated_Source\PSoC4/CyLFClk.c ****     * \details
2938:Generated_Source\PSoC4/CyLFClk.c ****     * This function waits while corresponding counters will be reset. This may
2939:Generated_Source\PSoC4/CyLFClk.c ****     * take up to 3 DeepSleep Timer source-cycles. DeepSleep Timer source must be 
2940:Generated_Source\PSoC4/CyLFClk.c ****     * enabled. Otherwise, the function will never exit.
2941:Generated_Source\PSoC4/CyLFClk.c ****     *
2942:Generated_Source\PSoC4/CyLFClk.c ****     *******************************************************************************/
2943:Generated_Source\PSoC4/CyLFClk.c ****     void CySysTimerResetCounters(uint32 countersMask)
2944:Generated_Source\PSoC4/CyLFClk.c ****     {
2945:Generated_Source\PSoC4/CyLFClk.c ****         /* Set new Timer reset value */
2946:Generated_Source\PSoC4/CyLFClk.c ****         CY_SYS_WCO_WDT_CONTROL_REG |= (countersMask & CY_SYS_TIMER_RESET);
2947:Generated_Source\PSoC4/CyLFClk.c **** 
2948:Generated_Source\PSoC4/CyLFClk.c ****         while (0uL != (CY_SYS_WCO_WDT_CONTROL_REG & CY_SYS_TIMER_RESET))
2949:Generated_Source\PSoC4/CyLFClk.c ****         {
2950:Generated_Source\PSoC4/CyLFClk.c ****             /* Wait for reset to come into effect */
2951:Generated_Source\PSoC4/CyLFClk.c ****         }
2952:Generated_Source\PSoC4/CyLFClk.c ****     }
2953:Generated_Source\PSoC4/CyLFClk.c **** #endif /* (CY_IP_SRSSLT && CY_IP_WCO && CY_IP_WCO_WDT_EN) */
2954:Generated_Source\PSoC4/CyLFClk.c **** 
2955:Generated_Source\PSoC4/CyLFClk.c **** 
2956:Generated_Source\PSoC4/CyLFClk.c **** #if(CY_IP_SRSSV2 || (CY_IP_WCO_WDT_EN && CY_IP_SRSSLT))
2957:Generated_Source\PSoC4/CyLFClk.c ****     /*******************************************************************************
2958:Generated_Source\PSoC4/CyLFClk.c ****     * Function Name: CySysTimerDelay
2959:Generated_Source\PSoC4/CyLFClk.c ****     ****************************************************************************//**
2960:Generated_Source\PSoC4/CyLFClk.c ****     *
2961:Generated_Source\PSoC4/CyLFClk.c ****     * \brief
2962:Generated_Source\PSoC4/CyLFClk.c ****     * The function implements the delay specified in the LFCLK clock ticks.
2963:Generated_Source\PSoC4/CyLFClk.c ****     *
2964:Generated_Source\PSoC4/CyLFClk.c ****     * This API is applicable for PSoC 4100 / PSoC 4200 / PSoC 4100 BLE / 
2965:Generated_Source\PSoC4/CyLFClk.c ****     * PSoC 4200 BLE / PRoC BLE / PSoC 4200L / PSoC 4100M / PSoC 4200M devices to 
2966:Generated_Source\PSoC4/CyLFClk.c ****     * use WDT. Also this API is available to use for PSoC4100S and / PSoC Analog 
2967:Generated_Source\PSoC4/CyLFClk.c ****     * Coprocessor devices to use DeepSleep Timers.
2968:Generated_Source\PSoC4/CyLFClk.c ****     *
2969:Generated_Source\PSoC4/CyLFClk.c ****     * For PSoC 4100 / PSoC 4200 / PSoC 4100 BLE / PSoC 4200 BLE / PRoC BLE / PSoC 
2970:Generated_Source\PSoC4/CyLFClk.c ****     * 4200L / PSoC 4100M / PSoC 4200M devices:
2971:Generated_Source\PSoC4/CyLFClk.c ****     * The specified WDT counter should be configured as described below and started.
2972:Generated_Source\PSoC4/CyLFClk.c ****     *
2973:Generated_Source\PSoC4/CyLFClk.c ****     * For PSoC 4100S / PSoC Analog Coprocessor devices:
2974:Generated_Source\PSoC4/CyLFClk.c ****     * The specified DeepSleep Timer counter should be configured as described below
2975:Generated_Source\PSoC4/CyLFClk.c ****     * and started.
2976:Generated_Source\PSoC4/CyLFClk.c ****     *
2977:Generated_Source\PSoC4/CyLFClk.c ****     * This function can operate in two modes: the "WAIT" and "INTERRUPT" modes. In
2978:Generated_Source\PSoC4/CyLFClk.c ****     * the "WAIT" mode, the function waits for the specified number of ticks. In the
2979:Generated_Source\PSoC4/CyLFClk.c ****     * "INTERRUPT" mode, the interrupt is generated after the specified number of
2980:Generated_Source\PSoC4/CyLFClk.c ****     * ticks.
2981:Generated_Source\PSoC4/CyLFClk.c ****     *
2982:Generated_Source\PSoC4/CyLFClk.c ****     * For the correct function operation, the "Clear On Match" option should be
2983:Generated_Source\PSoC4/CyLFClk.c ****     * disabled for the specified WDT or DeepSleep Timer counter. Use 
ARM GAS  C:\Users\AFDHAL~1\AppData\Local\Temp\cc29CzqQ.s 			page 153


2984:Generated_Source\PSoC4/CyLFClk.c ****     * CySysWdtSetClearOnMatch() for WDT or CySysTimerSetClearOnMatch() for DeepSleep
2985:Generated_Source\PSoC4/CyLFClk.c ****     * Timer function with the "enable" parameter equal to zero for the used WDT 
2986:Generated_Source\PSoC4/CyLFClk.c ****     * counter or DeepSleep Timer counter.
2987:Generated_Source\PSoC4/CyLFClk.c ****     *
2988:Generated_Source\PSoC4/CyLFClk.c ****     * The corresponding WDT counter should be configured to match the selected
2989:Generated_Source\PSoC4/CyLFClk.c ****     * mode: "Free running Timer" for the "WAIT" mode, and
2990:Generated_Source\PSoC4/CyLFClk.c ****     * "Periodic Timer" / "Watchdog (w/Interrupt)" for the "INTERRUPT" mode.
2991:Generated_Source\PSoC4/CyLFClk.c ****     *
2992:Generated_Source\PSoC4/CyLFClk.c ****     * Or the corresponding DeepSleep Timer counter should be configured to match the
2993:Generated_Source\PSoC4/CyLFClk.c ****     * selected mode: "Free running Timer" for the "WAIT" mode, and
2994:Generated_Source\PSoC4/CyLFClk.c ****     * "Periodic Timer" for the "INTERRUPT" mode.
2995:Generated_Source\PSoC4/CyLFClk.c ****     *
2996:Generated_Source\PSoC4/CyLFClk.c ****     * This can be configured in two ways:
2997:Generated_Source\PSoC4/CyLFClk.c ****     * - Through the DWR page. Open the "Clocks" tab, click the "Edit Clocks..."
2998:Generated_Source\PSoC4/CyLFClk.c ****     * button, in the "Configure System Clocks" window click on the
2999:Generated_Source\PSoC4/CyLFClk.c ****     * "Low Frequency Clocks" tab and choose the appropriate option for the used
3000:Generated_Source\PSoC4/CyLFClk.c ****     * WDT or DeepSleep Timer counter.
3001:Generated_Source\PSoC4/CyLFClk.c ****     *
3002:Generated_Source\PSoC4/CyLFClk.c ****     * - Through the CySysWdtSetMode() for WDT or CySysTimerSetMode() for DeepSleep
3003:Generated_Source\PSoC4/CyLFClk.c ****     * Timer function. Call it with the appropriate "mode" parameter for the 
3004:Generated_Source\PSoC4/CyLFClk.c ****     * used WDT or DeepSleep Timer counter.
3005:Generated_Source\PSoC4/CyLFClk.c ****     *
3006:Generated_Source\PSoC4/CyLFClk.c ****     * For the "INTERRUPT" mode, the recommended sequence is the following:
3007:Generated_Source\PSoC4/CyLFClk.c ****     * - Call the CySysWdtDisableCounterIsr() for WDT or 
3008:Generated_Source\PSoC4/CyLFClk.c ****     * CySysTimerDisableIsr() for DeepSleep Timer function to disable servicing
3009:Generated_Source\PSoC4/CyLFClk.c ****     * interrupts of the specified WDT or DeepSleep Timer counter.
3010:Generated_Source\PSoC4/CyLFClk.c ****     *
3011:Generated_Source\PSoC4/CyLFClk.c ****     * - Call the CySysWdtSetInterruptCallback() for WDT or 
3012:Generated_Source\PSoC4/CyLFClk.c ****     * CySysTimerSetIsrCallback() for DeepSleep Timer function to register 
3013:Generated_Source\PSoC4/CyLFClk.c ****     * the callback function for the corresponding WDT or DeepSleep Timer counter.
3014:Generated_Source\PSoC4/CyLFClk.c ****     *
3015:Generated_Source\PSoC4/CyLFClk.c ****     * - Call the CySysTimerDelay() function.
3016:Generated_Source\PSoC4/CyLFClk.c ****     *
3017:Generated_Source\PSoC4/CyLFClk.c ****     * \param counterNum Valid range [0-1]. The number of the counter 
3018:Generated_Source\PSoC4/CyLFClk.c ****     * (Timer0 or Timer1).
3019:Generated_Source\PSoC4/CyLFClk.c ****     * \param delayType
3020:Generated_Source\PSoC4/CyLFClk.c ****     * CY_SYS_TIMER_WAIT - "WAIT" mode. <br>
3021:Generated_Source\PSoC4/CyLFClk.c ****     * CY_SYS_TIMER_INTERRUPT - "INTERRUPT" mode.
3022:Generated_Source\PSoC4/CyLFClk.c ****     * \param delay The delay value in the LFCLK ticks 
3023:Generated_Source\PSoC4/CyLFClk.c ****     * (allowable range - 16-bit value).
3024:Generated_Source\PSoC4/CyLFClk.c ****     *
3025:Generated_Source\PSoC4/CyLFClk.c ****     * \details
3026:Generated_Source\PSoC4/CyLFClk.c ****     * In the "INTERRUPT" mode, this function enables ISR callback servicing
3027:Generated_Source\PSoC4/CyLFClk.c ****     * from the corresponding WDT or DeepSleep Timer counter. Servicing of this ISR 
3028:Generated_Source\PSoC4/CyLFClk.c ****     * callback will be disabled after the expiration of the delay time.
3029:Generated_Source\PSoC4/CyLFClk.c ****     *
3030:Generated_Source\PSoC4/CyLFClk.c ****     *******************************************************************************/
3031:Generated_Source\PSoC4/CyLFClk.c ****     void CySysTimerDelay(uint32 counterNum, cy_sys_timer_delaytype_enum delayType, uint32 delay)
3032:Generated_Source\PSoC4/CyLFClk.c ****     {
 4322              		.loc 1 3032 0
 4323              		.cfi_startproc
 4324              		@ args = 0, pretend = 0, frame = 0
 4325              		@ frame_needed = 0, uses_anonymous_args = 0
 4326              	.LVL370:
 4327 0000 F8B5     		push	{r3, r4, r5, r6, r7, lr}
 4328              		.cfi_def_cfa_offset 24
 4329              		.cfi_offset 3, -24
ARM GAS  C:\Users\AFDHAL~1\AppData\Local\Temp\cc29CzqQ.s 			page 154


 4330              		.cfi_offset 4, -20
 4331              		.cfi_offset 5, -16
 4332              		.cfi_offset 6, -12
 4333              		.cfi_offset 7, -8
 4334              		.cfi_offset 14, -4
 4335              		.loc 1 3032 0
 4336 0002 0400     		movs	r4, r0
3033:Generated_Source\PSoC4/CyLFClk.c ****         uint32 regValue;
3034:Generated_Source\PSoC4/CyLFClk.c ****         uint32 matchValue;
3035:Generated_Source\PSoC4/CyLFClk.c **** 
3036:Generated_Source\PSoC4/CyLFClk.c ****         #if(CY_IP_SRSSV2)
3037:Generated_Source\PSoC4/CyLFClk.c ****             if((counterNum < CY_SYS_WDT_COUNTER2) && (0uL == CySysWdtGetClearOnMatch(counterNum)) &
 4337              		.loc 1 3037 0
 4338 0004 0128     		cmp	r0, #1
 4339 0006 00D9     		bls	.L432
 4340              	.LVL371:
 4341              	.L409:
3038:Generated_Source\PSoC4/CyLFClk.c ****                                                                 (delay <= CY_SYS_UINT16_MAX_VAL))
3039:Generated_Source\PSoC4/CyLFClk.c ****             {
3040:Generated_Source\PSoC4/CyLFClk.c ****                 regValue   = CySysWdtGetCount(counterNum);
3041:Generated_Source\PSoC4/CyLFClk.c ****                 matchValue = (regValue + delay) & (uint32)CY_SYS_UINT16_MAX_VAL;
3042:Generated_Source\PSoC4/CyLFClk.c **** 
3043:Generated_Source\PSoC4/CyLFClk.c ****                 CySysTimerDelayUntilMatch(counterNum, delayType, matchValue);
3044:Generated_Source\PSoC4/CyLFClk.c ****             }
3045:Generated_Source\PSoC4/CyLFClk.c ****             else
3046:Generated_Source\PSoC4/CyLFClk.c ****             {
3047:Generated_Source\PSoC4/CyLFClk.c ****                 CYASSERT(0u != 0u);
3048:Generated_Source\PSoC4/CyLFClk.c ****             }
3049:Generated_Source\PSoC4/CyLFClk.c ****         #endif /* (CY_IP_SRSSV2) */
3050:Generated_Source\PSoC4/CyLFClk.c **** 
3051:Generated_Source\PSoC4/CyLFClk.c ****         #if(CY_IP_WCO_WDT_EN && CY_IP_SRSSLT)
3052:Generated_Source\PSoC4/CyLFClk.c ****             if((counterNum < CY_SYS_TIMER2) && (0uL == CySysTimerGetClearOnMatch(counterNum)) && 
3053:Generated_Source\PSoC4/CyLFClk.c ****                                                             (delay <= CY_SYS_UINT16_MAX_VAL))
3054:Generated_Source\PSoC4/CyLFClk.c ****             {
3055:Generated_Source\PSoC4/CyLFClk.c ****                 regValue   = CySysTimerGetCount(counterNum);
3056:Generated_Source\PSoC4/CyLFClk.c ****                 matchValue = (regValue + delay) & (uint32)CY_SYS_UINT16_MAX_VAL;
3057:Generated_Source\PSoC4/CyLFClk.c **** 
3058:Generated_Source\PSoC4/CyLFClk.c ****                 CySysTimerDelayUntilMatch(counterNum, delayType, matchValue);
3059:Generated_Source\PSoC4/CyLFClk.c ****             }
3060:Generated_Source\PSoC4/CyLFClk.c ****             else
3061:Generated_Source\PSoC4/CyLFClk.c ****             {
3062:Generated_Source\PSoC4/CyLFClk.c ****                 CYASSERT(0u != 0u);
3063:Generated_Source\PSoC4/CyLFClk.c ****             }
3064:Generated_Source\PSoC4/CyLFClk.c ****         #endif /* (CY_IP_WCO_WDT_EN) */
3065:Generated_Source\PSoC4/CyLFClk.c ****     }
 4342              		.loc 1 3065 0
 4343              		@ sp needed
 4344 0008 F8BD     		pop	{r3, r4, r5, r6, r7, pc}
 4345              	.LVL372:
 4346              	.L432:
 4347              	.LBB577:
 4348              	.LBB578:
1142:Generated_Source\PSoC4/CyLFClk.c ****                         ((counterNum * CY_SYS_WDT_CNT_SHIFT) + CY_SYS_WDT_CNT_MATCH_CLR_SHIFT)) & 0
 4349              		.loc 1 1142 0
 4350 000a 2B4B     		ldr	r3, .L435
 4351 000c 1868     		ldr	r0, [r3]
 4352              	.LVL373:
ARM GAS  C:\Users\AFDHAL~1\AppData\Local\Temp\cc29CzqQ.s 			page 155


1143:Generated_Source\PSoC4/CyLFClk.c ****     }
 4353              		.loc 1 1143 0
 4354 000e E300     		lsls	r3, r4, #3
 4355 0010 0233     		adds	r3, r3, #2
 4356              	.LVL374:
 4357              	.LBE578:
 4358              	.LBE577:
3037:Generated_Source\PSoC4/CyLFClk.c ****                                                                 (delay <= CY_SYS_UINT16_MAX_VAL))
 4359              		.loc 1 3037 0
 4360 0012 D840     		lsrs	r0, r0, r3
 4361 0014 C007     		lsls	r0, r0, #31
 4362 0016 F7D4     		bmi	.L409
3037:Generated_Source\PSoC4/CyLFClk.c ****                                                                 (delay <= CY_SYS_UINT16_MAX_VAL))
 4363              		.loc 1 3037 0 is_stmt 0 discriminator 2
 4364 0018 2848     		ldr	r0, .L435+4
 4365 001a 8242     		cmp	r2, r0
 4366 001c F4D8     		bhi	.L409
 4367              	.LVL375:
 4368              	.LBB579:
 4369              	.LBB580:
1451:Generated_Source\PSoC4/CyLFClk.c ****             break;
 4370              		.loc 1 1451 0 is_stmt 1
 4371 001e 2848     		ldr	r0, .L435+8
 4372 0020 0568     		ldr	r5, [r0]
1442:Generated_Source\PSoC4/CyLFClk.c ****         {
 4373              		.loc 1 1442 0
 4374 0022 012C     		cmp	r4, #1
 4375 0024 16D1     		bne	.L433
1451:Generated_Source\PSoC4/CyLFClk.c ****             break;
 4376              		.loc 1 1451 0
 4377 0026 2D0C     		lsrs	r5, r5, #16
 4378              	.LVL376:
 4379              	.L413:
 4380              	.LBE580:
 4381              	.LBE579:
 4382              	.LBB582:
 4383              	.LBB583:
 4384              	.LBB584:
 4385              	.LBB585:
1142:Generated_Source\PSoC4/CyLFClk.c ****                         ((counterNum * CY_SYS_WDT_CNT_SHIFT) + CY_SYS_WDT_CNT_MATCH_CLR_SHIFT)) & 0
 4386              		.loc 1 1142 0
 4387 0028 234E     		ldr	r6, .L435
 4388 002a 3068     		ldr	r0, [r6]
 4389              	.LVL377:
 4390              	.LBE585:
 4391              	.LBE584:
3066:Generated_Source\PSoC4/CyLFClk.c **** 
3067:Generated_Source\PSoC4/CyLFClk.c **** 
3068:Generated_Source\PSoC4/CyLFClk.c ****     /*******************************************************************************
3069:Generated_Source\PSoC4/CyLFClk.c ****     * Function Name: CySysTimerDelayUntilMatch
3070:Generated_Source\PSoC4/CyLFClk.c ****     ****************************************************************************//**
3071:Generated_Source\PSoC4/CyLFClk.c ****     *
3072:Generated_Source\PSoC4/CyLFClk.c ****     * \brief
3073:Generated_Source\PSoC4/CyLFClk.c ****     * The function implements the delay specified as the number of WDT or DeepSleep
3074:Generated_Source\PSoC4/CyLFClk.c ****     * Timer clock source ticks between WDT or DeepSleep Timer current value and 
3075:Generated_Source\PSoC4/CyLFClk.c ****     * match" value.
3076:Generated_Source\PSoC4/CyLFClk.c ****     *
ARM GAS  C:\Users\AFDHAL~1\AppData\Local\Temp\cc29CzqQ.s 			page 156


3077:Generated_Source\PSoC4/CyLFClk.c ****     * This API is applicable for PSoC 4100 / PSoC 4200 / PRoC BLE / PSoC 4100 BLE /
3078:Generated_Source\PSoC4/CyLFClk.c ****     * PSoC 4200 BLE / PSoC 4200L / PSoC 4100M / PSoC 4200M devices to use WDT.
3079:Generated_Source\PSoC4/CyLFClk.c ****     * Also this API is available to use for PSoC4100S / Analog Coprocessor devices
3080:Generated_Source\PSoC4/CyLFClk.c ****     * to use DeepSleep Timers.
3081:Generated_Source\PSoC4/CyLFClk.c ****     * 
3082:Generated_Source\PSoC4/CyLFClk.c ****     * For PSoC 4100 / PSoC 4200 / PSoC 4100 BLE / PSoC 4200 BLE / PRoC BLE / PSoC 
3083:Generated_Source\PSoC4/CyLFClk.c ****     * 4200L / PSoC 4100M / PSoC 4200M devices:
3084:Generated_Source\PSoC4/CyLFClk.c ****     * The function implements the delay specified as the number of LFCLK ticks
3085:Generated_Source\PSoC4/CyLFClk.c ****     * between the specified WDT counter's current value and the "match"
3086:Generated_Source\PSoC4/CyLFClk.c ****     * passed as the parameter to this function. The current WDT counter value can 
3087:Generated_Source\PSoC4/CyLFClk.c ****     * be obtained using the CySysWdtGetCount() function.
3088:Generated_Source\PSoC4/CyLFClk.c ****     *
3089:Generated_Source\PSoC4/CyLFClk.c ****     * For PSoC4100 S and Analog Coprocessor devices:
3090:Generated_Source\PSoC4/CyLFClk.c ****     * The function implements the delay specified as the number of DeepSleep Timer 
3091:Generated_Source\PSoC4/CyLFClk.c ****     * input clock ticks for Timer0/Timer1 counter's current value and the "match" 
3092:Generated_Source\PSoC4/CyLFClk.c ****     * passed as the parameter to this function. The current DeepSleep Timer counter
3093:Generated_Source\PSoC4/CyLFClk.c ****     * value can be obtained using the CySysWdtGetCount() function.
3094:Generated_Source\PSoC4/CyLFClk.c ****     *
3095:Generated_Source\PSoC4/CyLFClk.c ****     * For PSoC 4100 / PSoC 4200 / PSoC 4100 BLE / PSoC 4200 BLE / PRoC BLE / PSoC 
3096:Generated_Source\PSoC4/CyLFClk.c ****     * 4200L / PSoC 4100M / PSoC 4200M devices:
3097:Generated_Source\PSoC4/CyLFClk.c ****     * The specified WDT counter should be configured as described below and started.
3098:Generated_Source\PSoC4/CyLFClk.c ****     *
3099:Generated_Source\PSoC4/CyLFClk.c ****     * For PSoC PSoC 4100S / PSoC Analog Coprocessor devices:
3100:Generated_Source\PSoC4/CyLFClk.c ****     * The specified DeepSleep Timer counter should be configured as described below
3101:Generated_Source\PSoC4/CyLFClk.c ****     * and started.
3102:Generated_Source\PSoC4/CyLFClk.c ****     *
3103:Generated_Source\PSoC4/CyLFClk.c ****     * This function can operate in two modes: the "WAIT" and "INTERRUPT" modes. In
3104:Generated_Source\PSoC4/CyLFClk.c ****     * the "WAIT" mode, the function waits for the specified number of ticks. In the
3105:Generated_Source\PSoC4/CyLFClk.c ****     * "INTERRUPT" mode, the interrupt is generated after the specified number of
3106:Generated_Source\PSoC4/CyLFClk.c ****     * ticks.
3107:Generated_Source\PSoC4/CyLFClk.c ****     *
3108:Generated_Source\PSoC4/CyLFClk.c ****     * For the correct function operation, the "Clear On Match" option should be
3109:Generated_Source\PSoC4/CyLFClk.c ****     * disabled for the specified WDT or DeepSleep Timer counter. Use 
3110:Generated_Source\PSoC4/CyLFClk.c ****     * CySysWdtSetClearOnMatch() for WDT or CySysTimerSetClearOnMatch() for DeepSleep
3111:Generated_Source\PSoC4/CyLFClk.c ****     * Timer function with the "enable" parameter equal to zero for the used WDT 
3112:Generated_Source\PSoC4/CyLFClk.c ****     * or DeepSleep Timer counter.
3113:Generated_Source\PSoC4/CyLFClk.c ****     *
3114:Generated_Source\PSoC4/CyLFClk.c ****     * For PSoC 4100 / PSoC 4200 / PSoC 4100 BLE / PSoC 4200 BLE / PRoC BLE / PSoC 
3115:Generated_Source\PSoC4/CyLFClk.c ****     * 4200L / PSoC 4100M/PSoC 4200M devices:
3116:Generated_Source\PSoC4/CyLFClk.c ****     * The corresponding WDT counter should be configured to match the selected
3117:Generated_Source\PSoC4/CyLFClk.c ****     * mode: "Free running Timer" for the "WAIT" mode, and
3118:Generated_Source\PSoC4/CyLFClk.c ****     * "Periodic Timer" / "Watchdog (w/Interrupt)" for the "INTERRUPT" mode.
3119:Generated_Source\PSoC4/CyLFClk.c ****     *
3120:Generated_Source\PSoC4/CyLFClk.c ****     * For PSoC 4100S / PSoC Analog Coprocessor devices:
3121:Generated_Source\PSoC4/CyLFClk.c ****     * Corresponding DeepSleep Timer counter should be configured to match the 
3122:Generated_Source\PSoC4/CyLFClk.c ****     * selected mode: "Free running Timer" for the "WAIT" mode, and
3123:Generated_Source\PSoC4/CyLFClk.c ****     * "Periodic Timer" for the "INTERRUPT" mode.
3124:Generated_Source\PSoC4/CyLFClk.c ****     *
3125:Generated_Source\PSoC4/CyLFClk.c ****     * This can be configured in two ways:
3126:Generated_Source\PSoC4/CyLFClk.c ****     * - Through the DWR page. Open the "Clocks" tab, click the "Edit Clocks..."
3127:Generated_Source\PSoC4/CyLFClk.c ****     * button, in the "Configure System Clocks" window click on the
3128:Generated_Source\PSoC4/CyLFClk.c ****     * "Low Frequency Clocks" tab and choose the appropriate option for the used
3129:Generated_Source\PSoC4/CyLFClk.c ****     * WDT or DeepSleep Timer counter.
3130:Generated_Source\PSoC4/CyLFClk.c ****     *
3131:Generated_Source\PSoC4/CyLFClk.c ****     * - Through the CySysWdtSetMode() for WDT or CySysTimerSetMode() for DeepSleep
3132:Generated_Source\PSoC4/CyLFClk.c ****     * Timer function. Call it with the appropriate "mode" parameter for the 
3133:Generated_Source\PSoC4/CyLFClk.c ****     * used WDT or DeepSleep Timer counter.
ARM GAS  C:\Users\AFDHAL~1\AppData\Local\Temp\cc29CzqQ.s 			page 157


3134:Generated_Source\PSoC4/CyLFClk.c ****     *
3135:Generated_Source\PSoC4/CyLFClk.c ****     * For the "INTERRUPT" mode, the recommended sequence is the following:
3136:Generated_Source\PSoC4/CyLFClk.c ****     * - Call the CySysWdtDisableCounterIsr() for WDT or 
3137:Generated_Source\PSoC4/CyLFClk.c ****     * CySysTimerDisableIsr() for DeepSleep Timer function to disable servicing
3138:Generated_Source\PSoC4/CyLFClk.c ****     * interrupts of the specified WDT or DeepSleep Timer counter.
3139:Generated_Source\PSoC4/CyLFClk.c ****     *
3140:Generated_Source\PSoC4/CyLFClk.c ****     * - Call the CySysWdtSetInterruptCallback() for WDT or 
3141:Generated_Source\PSoC4/CyLFClk.c ****     * CySysTimerSetInterruptCallback() for DeepSleep Timer function to register 
3142:Generated_Source\PSoC4/CyLFClk.c ****     * the callback function for the corresponding WDT or DeepSleep Timer counter.
3143:Generated_Source\PSoC4/CyLFClk.c ****     *
3144:Generated_Source\PSoC4/CyLFClk.c ****     * - Call the CySysTimerDelay() function.
3145:Generated_Source\PSoC4/CyLFClk.c ****     *
3146:Generated_Source\PSoC4/CyLFClk.c ****     * \param counterNum Valid range [0-1]. The number of the WDT or DeepSleep 
3147:Generated_Source\PSoC4/CyLFClk.c ****     * Timer.
3148:Generated_Source\PSoC4/CyLFClk.c ****     * counter (Timer0 or Timer1).
3149:Generated_Source\PSoC4/CyLFClk.c ****     * \param delayType  CY_SYS_TIMER_WAIT - "WAIT" mode.<br>
3150:Generated_Source\PSoC4/CyLFClk.c ****     * CY_SYS_TIMER_INTERRUPT - "INTERRUPT" mode.
3151:Generated_Source\PSoC4/CyLFClk.c ****     * \param delay The delay value in the LFCLK ticks
3152:Generated_Source\PSoC4/CyLFClk.c ****     * (allowable range - 16-bit value).
3153:Generated_Source\PSoC4/CyLFClk.c ****     *
3154:Generated_Source\PSoC4/CyLFClk.c ****     * \details
3155:Generated_Source\PSoC4/CyLFClk.c ****     * In the "INTERRUPT" mode, this function enables ISR callback servicing
3156:Generated_Source\PSoC4/CyLFClk.c ****     * from the corresponding WDT counter. Servicing of this ISR callback will be
3157:Generated_Source\PSoC4/CyLFClk.c ****     * disabled after the expiration of the delay time.
3158:Generated_Source\PSoC4/CyLFClk.c ****     *
3159:Generated_Source\PSoC4/CyLFClk.c ****     *******************************************************************************/
3160:Generated_Source\PSoC4/CyLFClk.c ****     void CySysTimerDelayUntilMatch(uint32 counterNum, cy_sys_timer_delaytype_enum delayType, uint32
3161:Generated_Source\PSoC4/CyLFClk.c ****     {
3162:Generated_Source\PSoC4/CyLFClk.c ****         uint32 tmpValue;
3163:Generated_Source\PSoC4/CyLFClk.c **** 
3164:Generated_Source\PSoC4/CyLFClk.c ****         #if(CY_IP_SRSSV2)
3165:Generated_Source\PSoC4/CyLFClk.c ****             if((counterNum < CY_SYS_WDT_COUNTER2) && (0uL == CySysWdtGetClearOnMatch(counterNum)) &
 4392              		.loc 1 3165 0
 4393 002c D840     		lsrs	r0, r0, r3
 4394 002e 0300     		movs	r3, r0
 4395 0030 DB07     		lsls	r3, r3, #31
 4396 0032 E9D4     		bmi	.L409
 4397              	.LBE583:
 4398              	.LBE582:
3041:Generated_Source\PSoC4/CyLFClk.c **** 
 4399              		.loc 1 3041 0
 4400 0034 5519     		adds	r5, r2, r5
 4401              	.LVL378:
 4402 0036 2D04     		lsls	r5, r5, #16
 4403              	.LVL379:
 4404 0038 2D0C     		lsrs	r5, r5, #16
 4405              	.LBB603:
 4406              	.LBB600:
3166:Generated_Source\PSoC4/CyLFClk.c ****                                                                 (match <= CY_SYS_UINT16_MAX_VAL))
3167:Generated_Source\PSoC4/CyLFClk.c ****             {
3168:Generated_Source\PSoC4/CyLFClk.c ****                 if(delayType == CY_SYS_TIMER_WAIT)
 4407              		.loc 1 3168 0
 4408 003a 0029     		cmp	r1, #0
 4409 003c 0DD1     		bne	.L414
 4410              	.LBB586:
 4411              	.LBB587:
 4412              	.LBB588:
ARM GAS  C:\Users\AFDHAL~1\AppData\Local\Temp\cc29CzqQ.s 			page 158


 4413              	.LBB589:
1451:Generated_Source\PSoC4/CyLFClk.c ****             break;
 4414              		.loc 1 1451 0
 4415 003e 204A     		ldr	r2, .L435+8
 4416              	.LVL380:
 4417 0040 02E0     		b	.L418
 4418              	.LVL381:
 4419              	.L416:
 4420 0042 1B0C     		lsrs	r3, r3, #16
 4421              	.LVL382:
 4422              	.L417:
 4423              	.LBE589:
 4424              	.LBE588:
3169:Generated_Source\PSoC4/CyLFClk.c ****                 {
3170:Generated_Source\PSoC4/CyLFClk.c ****                     do
3171:Generated_Source\PSoC4/CyLFClk.c ****                     {
3172:Generated_Source\PSoC4/CyLFClk.c ****                         tmpValue = CySysWdtGetCount(counterNum);
3173:Generated_Source\PSoC4/CyLFClk.c ****                     }while(tmpValue > match);
 4425              		.loc 1 3173 0
 4426 0044 9D42     		cmp	r5, r3
 4427 0046 2CD2     		bcs	.L434
 4428              	.L418:
 4429              	.LVL383:
 4430              	.LBB591:
 4431              	.LBB590:
1451:Generated_Source\PSoC4/CyLFClk.c ****             break;
 4432              		.loc 1 1451 0
 4433 0048 1368     		ldr	r3, [r2]
1442:Generated_Source\PSoC4/CyLFClk.c ****         {
 4434              		.loc 1 1442 0
 4435 004a 012C     		cmp	r4, #1
 4436 004c F9D0     		beq	.L416
1446:Generated_Source\PSoC4/CyLFClk.c ****             break;
 4437              		.loc 1 1446 0
 4438 004e 1B04     		lsls	r3, r3, #16
 4439 0050 1B0C     		lsrs	r3, r3, #16
 4440              	.LVL384:
 4441 0052 F7E7     		b	.L417
 4442              	.LVL385:
 4443              	.L433:
 4444              	.LBE590:
 4445              	.LBE591:
 4446              	.LBE587:
 4447              	.LBE586:
 4448              	.LBE600:
 4449              	.LBE603:
 4450              	.LBB604:
 4451              	.LBB581:
 4452 0054 2D04     		lsls	r5, r5, #16
 4453 0056 2D0C     		lsrs	r5, r5, #16
 4454              	.LVL386:
 4455 0058 E6E7     		b	.L413
 4456              	.LVL387:
 4457              	.L414:
 4458              	.LBE581:
 4459              	.LBE604:
 4460              	.LBB605:
ARM GAS  C:\Users\AFDHAL~1\AppData\Local\Temp\cc29CzqQ.s 			page 159


 4461              	.LBB601:
3174:Generated_Source\PSoC4/CyLFClk.c **** 
3175:Generated_Source\PSoC4/CyLFClk.c ****                     do
3176:Generated_Source\PSoC4/CyLFClk.c ****                     {
3177:Generated_Source\PSoC4/CyLFClk.c ****                         tmpValue = CySysWdtGetCount(counterNum);
3178:Generated_Source\PSoC4/CyLFClk.c ****                     }while(tmpValue < match);
3179:Generated_Source\PSoC4/CyLFClk.c ****                 }
3180:Generated_Source\PSoC4/CyLFClk.c ****                 else
3181:Generated_Source\PSoC4/CyLFClk.c ****                 {
3182:Generated_Source\PSoC4/CyLFClk.c ****                     tmpValue = counterIntMaskTbl[counterNum];
 4462              		.loc 1 3182 0
 4463 005a 1A4B     		ldr	r3, .L435+12
 4464 005c A200     		lsls	r2, r4, #2
 4465              	.LVL388:
 4466 005e D758     		ldr	r7, [r2, r3]
 4467              	.LVL389:
 4468              	.LBB597:
 4469              	.LBB598:
1344:Generated_Source\PSoC4/CyLFClk.c **** 
 4470              		.loc 1 1344 0
 4471 0060 3368     		ldr	r3, [r6]
 4472 0062 C920     		movs	r0, #201
 4473 0064 9B0F     		lsrs	r3, r3, #30
 4474 0066 00D0     		beq	.L423
 4475 0068 6C38     		subs	r0, r0, #108
 4476              	.L423:
 4477 006a FFF7FEFF 		bl	CyDelayUs
 4478              	.LVL390:
1348:Generated_Source\PSoC4/CyLFClk.c **** 
 4479              		.loc 1 1348 0
 4480 006e 134A     		ldr	r2, .L435+4
1347:Generated_Source\PSoC4/CyLFClk.c ****         CY_SYS_WDT_MATCH_REG = (regValue | (match << (counterNum * CY_SYS_WDT_CNT_MATCH_SHIFT)));
 4481              		.loc 1 1347 0
 4482 0070 2401     		lsls	r4, r4, #4
 4483              	.LVL391:
1348:Generated_Source\PSoC4/CyLFClk.c **** 
 4484              		.loc 1 1348 0
 4485 0072 A240     		lsls	r2, r2, r4
 4486 0074 A540     		lsls	r5, r5, r4
1346:Generated_Source\PSoC4/CyLFClk.c ****         regValue &= (uint32)~((uint32)(CY_SYS_WDT_LOWER_16BITS_MASK << (counterNum * CY_SYS_WDT_CNT
 4487              		.loc 1 1346 0
 4488 0076 1449     		ldr	r1, .L435+16
1351:Generated_Source\PSoC4/CyLFClk.c ****     }
 4489              		.loc 1 1351 0
 4490 0078 4320     		movs	r0, #67
1346:Generated_Source\PSoC4/CyLFClk.c ****         regValue &= (uint32)~((uint32)(CY_SYS_WDT_LOWER_16BITS_MASK << (counterNum * CY_SYS_WDT_CNT
 4491              		.loc 1 1346 0
 4492 007a 0B68     		ldr	r3, [r1]
 4493              	.LVL392:
1348:Generated_Source\PSoC4/CyLFClk.c **** 
 4494              		.loc 1 1348 0
 4495 007c 9343     		bics	r3, r2
 4496              	.LVL393:
 4497 007e 1D43     		orrs	r5, r3
1351:Generated_Source\PSoC4/CyLFClk.c ****     }
 4498              		.loc 1 1351 0
 4499 0080 0D4B     		ldr	r3, .L435
ARM GAS  C:\Users\AFDHAL~1\AppData\Local\Temp\cc29CzqQ.s 			page 160


 4500              	.LVL394:
1348:Generated_Source\PSoC4/CyLFClk.c **** 
 4501              		.loc 1 1348 0
 4502 0082 0D60     		str	r5, [r1]
1351:Generated_Source\PSoC4/CyLFClk.c ****     }
 4503              		.loc 1 1351 0
 4504 0084 1B68     		ldr	r3, [r3]
 4505 0086 9B0F     		lsrs	r3, r3, #30
 4506 0088 00D0     		beq	.L424
 4507 008a 2438     		subs	r0, r0, #36
 4508              	.L424:
 4509 008c FFF7FEFF 		bl	CyDelayUs
 4510              	.LVL395:
 4511              	.LBE598:
 4512              	.LBE597:
3183:Generated_Source\PSoC4/CyLFClk.c ****                     CySysWdtSetMatch(counterNum, match);
3184:Generated_Source\PSoC4/CyLFClk.c **** 
3185:Generated_Source\PSoC4/CyLFClk.c ****                     disableServicedIsr  |= tmpValue;
 4513              		.loc 1 3185 0
 4514 0090 0E4A     		ldr	r2, .L435+20
 4515 0092 536A     		ldr	r3, [r2, #36]
 4516 0094 3B43     		orrs	r3, r7
 4517 0096 5362     		str	r3, [r2, #36]
3186:Generated_Source\PSoC4/CyLFClk.c ****                     wdtIsrMask |= tmpValue;
 4518              		.loc 1 3186 0
 4519 0098 0D4A     		ldr	r2, .L435+24
 4520 009a 5368     		ldr	r3, [r2, #4]
 4521 009c 3B43     		orrs	r3, r7
 4522 009e 5360     		str	r3, [r2, #4]
 4523              	.LBE601:
 4524              	.LBE605:
3065:Generated_Source\PSoC4/CyLFClk.c **** 
 4525              		.loc 1 3065 0
 4526 00a0 B2E7     		b	.L409
 4527              	.LVL396:
 4528              	.L434:
 4529              	.LBB606:
 4530              	.LBB602:
 4531              	.LBB599:
 4532              	.LBB596:
 4533              	.LBB592:
 4534              	.LBB593:
1446:Generated_Source\PSoC4/CyLFClk.c ****             break;
 4535              		.loc 1 1446 0
 4536 00a2 074A     		ldr	r2, .L435+8
 4537 00a4 02E0     		b	.L427
 4538              	.LVL397:
 4539              	.L420:
1451:Generated_Source\PSoC4/CyLFClk.c ****             break;
 4540              		.loc 1 1451 0
 4541 00a6 1B0C     		lsrs	r3, r3, #16
 4542              	.LVL398:
 4543              	.L421:
 4544              	.LBE593:
 4545              	.LBE592:
3178:Generated_Source\PSoC4/CyLFClk.c ****                 }
 4546              		.loc 1 3178 0
ARM GAS  C:\Users\AFDHAL~1\AppData\Local\Temp\cc29CzqQ.s 			page 161


 4547 00a8 9D42     		cmp	r5, r3
 4548 00aa ADD9     		bls	.L409
 4549              	.L427:
 4550              	.LVL399:
 4551              	.LBB595:
 4552              	.LBB594:
1451:Generated_Source\PSoC4/CyLFClk.c ****             break;
 4553              		.loc 1 1451 0
 4554 00ac 1368     		ldr	r3, [r2]
1442:Generated_Source\PSoC4/CyLFClk.c ****         {
 4555              		.loc 1 1442 0
 4556 00ae 012C     		cmp	r4, #1
 4557 00b0 F9D0     		beq	.L420
1446:Generated_Source\PSoC4/CyLFClk.c ****             break;
 4558              		.loc 1 1446 0
 4559 00b2 1B04     		lsls	r3, r3, #16
 4560 00b4 1B0C     		lsrs	r3, r3, #16
 4561              	.LVL400:
 4562 00b6 F7E7     		b	.L421
 4563              	.L436:
 4564              		.align	2
 4565              	.L435:
 4566 00b8 0C020B40 		.word	1074463244
 4567 00bc FFFF0000 		.word	65535
 4568 00c0 00020B40 		.word	1074463232
 4569 00c4 00000000 		.word	.LANCHOR2
 4570 00c8 08020B40 		.word	1074463240
 4571 00cc 00000000 		.word	.LANCHOR0
 4572 00d0 00000000 		.word	.LANCHOR1
 4573              	.LBE594:
 4574              	.LBE595:
 4575              	.LBE596:
 4576              	.LBE599:
 4577              	.LBE602:
 4578              	.LBE606:
 4579              		.cfi_endproc
 4580              	.LFE45:
 4581              		.size	CySysTimerDelay, .-CySysTimerDelay
 4582              		.section	.text.CySysTimerDelayUntilMatch,"ax",%progbits
 4583              		.align	2
 4584              		.global	CySysTimerDelayUntilMatch
 4585              		.code	16
 4586              		.thumb_func
 4587              		.type	CySysTimerDelayUntilMatch, %function
 4588              	CySysTimerDelayUntilMatch:
 4589              	.LFB46:
3161:Generated_Source\PSoC4/CyLFClk.c ****         uint32 tmpValue;
 4590              		.loc 1 3161 0
 4591              		.cfi_startproc
 4592              		@ args = 0, pretend = 0, frame = 0
 4593              		@ frame_needed = 0, uses_anonymous_args = 0
 4594              	.LVL401:
 4595 0000 70B5     		push	{r4, r5, r6, lr}
 4596              		.cfi_def_cfa_offset 16
 4597              		.cfi_offset 4, -16
 4598              		.cfi_offset 5, -12
 4599              		.cfi_offset 6, -8
ARM GAS  C:\Users\AFDHAL~1\AppData\Local\Temp\cc29CzqQ.s 			page 162


 4600              		.cfi_offset 14, -4
3161:Generated_Source\PSoC4/CyLFClk.c ****         uint32 tmpValue;
 4601              		.loc 1 3161 0
 4602 0002 0400     		movs	r4, r0
 4603 0004 1500     		movs	r5, r2
3165:Generated_Source\PSoC4/CyLFClk.c ****                                                                 (match <= CY_SYS_UINT16_MAX_VAL))
 4604              		.loc 1 3165 0
 4605 0006 0128     		cmp	r0, #1
 4606 0008 00D9     		bls	.L457
 4607              	.LVL402:
 4608              	.L437:
3187:Generated_Source\PSoC4/CyLFClk.c ****                 }
3188:Generated_Source\PSoC4/CyLFClk.c ****             }
3189:Generated_Source\PSoC4/CyLFClk.c ****             else
3190:Generated_Source\PSoC4/CyLFClk.c ****             {
3191:Generated_Source\PSoC4/CyLFClk.c ****                 CYASSERT(0u != 0u);
3192:Generated_Source\PSoC4/CyLFClk.c ****             }
3193:Generated_Source\PSoC4/CyLFClk.c **** 
3194:Generated_Source\PSoC4/CyLFClk.c ****         #endif /* (CY_IP_SRSSV2) */  
3195:Generated_Source\PSoC4/CyLFClk.c **** 
3196:Generated_Source\PSoC4/CyLFClk.c ****         #if(CY_IP_WCO_WDT_EN && CY_IP_SRSSLT)
3197:Generated_Source\PSoC4/CyLFClk.c ****         if((counterNum < CY_SYS_TIMER2) && (0uL == CySysTimerGetClearOnMatch(counterNum)) &&
3198:Generated_Source\PSoC4/CyLFClk.c ****                                                         (match <= CY_SYS_UINT16_MAX_VAL))
3199:Generated_Source\PSoC4/CyLFClk.c ****         {
3200:Generated_Source\PSoC4/CyLFClk.c ****             if(delayType == CY_SYS_TIMER_WAIT)
3201:Generated_Source\PSoC4/CyLFClk.c ****             {
3202:Generated_Source\PSoC4/CyLFClk.c ****                 do
3203:Generated_Source\PSoC4/CyLFClk.c ****                 {
3204:Generated_Source\PSoC4/CyLFClk.c ****                     tmpValue = CySysTimerGetCount(counterNum);
3205:Generated_Source\PSoC4/CyLFClk.c ****                 }while(tmpValue > match);
3206:Generated_Source\PSoC4/CyLFClk.c **** 
3207:Generated_Source\PSoC4/CyLFClk.c ****                 do
3208:Generated_Source\PSoC4/CyLFClk.c ****                 {
3209:Generated_Source\PSoC4/CyLFClk.c ****                     tmpValue = CySysTimerGetCount(counterNum);
3210:Generated_Source\PSoC4/CyLFClk.c ****                 }while(tmpValue < match);
3211:Generated_Source\PSoC4/CyLFClk.c ****             }
3212:Generated_Source\PSoC4/CyLFClk.c ****             else
3213:Generated_Source\PSoC4/CyLFClk.c ****             {
3214:Generated_Source\PSoC4/CyLFClk.c ****                 tmpValue = counterTimerIntMaskTbl[counterNum];
3215:Generated_Source\PSoC4/CyLFClk.c ****                 CySysTimerSetMatch(counterNum, match);
3216:Generated_Source\PSoC4/CyLFClk.c **** 
3217:Generated_Source\PSoC4/CyLFClk.c ****                 disableTimerServicedIsr  |= tmpValue;
3218:Generated_Source\PSoC4/CyLFClk.c ****                 timerIsrMask |= tmpValue;
3219:Generated_Source\PSoC4/CyLFClk.c ****             }
3220:Generated_Source\PSoC4/CyLFClk.c ****         }
3221:Generated_Source\PSoC4/CyLFClk.c ****         else
3222:Generated_Source\PSoC4/CyLFClk.c ****         {
3223:Generated_Source\PSoC4/CyLFClk.c ****             CYASSERT(0u != 0u);
3224:Generated_Source\PSoC4/CyLFClk.c ****         }
3225:Generated_Source\PSoC4/CyLFClk.c ****         #endif /* (CY_IP_WCO_WDT_EN && CY_IP_SRSSLT) */
3226:Generated_Source\PSoC4/CyLFClk.c ****     }
 4609              		.loc 1 3226 0
 4610              		@ sp needed
 4611 000a 70BD     		pop	{r4, r5, r6, pc}
 4612              	.LVL403:
 4613              	.L457:
 4614              	.LBB619:
ARM GAS  C:\Users\AFDHAL~1\AppData\Local\Temp\cc29CzqQ.s 			page 163


 4615              	.LBB620:
1142:Generated_Source\PSoC4/CyLFClk.c ****                         ((counterNum * CY_SYS_WDT_CNT_SHIFT) + CY_SYS_WDT_CNT_MATCH_CLR_SHIFT)) & 0
 4616              		.loc 1 1142 0
 4617 000c 2248     		ldr	r0, .L459
 4618              	.LVL404:
 4619              	.LBE620:
 4620              	.LBE619:
3165:Generated_Source\PSoC4/CyLFClk.c ****                                                                 (match <= CY_SYS_UINT16_MAX_VAL))
 4621              		.loc 1 3165 0
 4622 000e E200     		lsls	r2, r4, #3
 4623              	.LVL405:
 4624              	.LBB622:
 4625              	.LBB621:
1142:Generated_Source\PSoC4/CyLFClk.c ****                         ((counterNum * CY_SYS_WDT_CNT_SHIFT) + CY_SYS_WDT_CNT_MATCH_CLR_SHIFT)) & 0
 4626              		.loc 1 1142 0
 4627 0010 0368     		ldr	r3, [r0]
 4628              	.LVL406:
 4629              	.LBE621:
 4630              	.LBE622:
3165:Generated_Source\PSoC4/CyLFClk.c ****                                                                 (match <= CY_SYS_UINT16_MAX_VAL))
 4631              		.loc 1 3165 0
 4632 0012 0232     		adds	r2, r2, #2
 4633 0014 D340     		lsrs	r3, r3, r2
 4634 0016 DB07     		lsls	r3, r3, #31
 4635 0018 F7D4     		bmi	.L437
3165:Generated_Source\PSoC4/CyLFClk.c ****                                                                 (match <= CY_SYS_UINT16_MAX_VAL))
 4636              		.loc 1 3165 0 is_stmt 0 discriminator 2
 4637 001a 204B     		ldr	r3, .L459+4
 4638 001c 9D42     		cmp	r5, r3
 4639 001e F4D8     		bhi	.L437
3168:Generated_Source\PSoC4/CyLFClk.c ****                 {
 4640              		.loc 1 3168 0 is_stmt 1
 4641 0020 0029     		cmp	r1, #0
 4642 0022 15D1     		bne	.L439
 4643              	.LBB623:
 4644              	.LBB624:
 4645              	.LBB625:
 4646              	.LBB626:
1451:Generated_Source\PSoC4/CyLFClk.c ****             break;
 4647              		.loc 1 1451 0
 4648 0024 1E4A     		ldr	r2, .L459+8
 4649 0026 02E0     		b	.L443
 4650              	.LVL407:
 4651              	.L441:
 4652 0028 1B0C     		lsrs	r3, r3, #16
 4653              	.LVL408:
 4654              	.L442:
 4655              	.LBE626:
 4656              	.LBE625:
3173:Generated_Source\PSoC4/CyLFClk.c **** 
 4657              		.loc 1 3173 0
 4658 002a 9D42     		cmp	r5, r3
 4659 002c 05D2     		bcs	.L458
 4660              	.L443:
 4661              	.LVL409:
 4662              	.LBB628:
 4663              	.LBB627:
ARM GAS  C:\Users\AFDHAL~1\AppData\Local\Temp\cc29CzqQ.s 			page 164


1451:Generated_Source\PSoC4/CyLFClk.c ****             break;
 4664              		.loc 1 1451 0
 4665 002e 1368     		ldr	r3, [r2]
1442:Generated_Source\PSoC4/CyLFClk.c ****         {
 4666              		.loc 1 1442 0
 4667 0030 012C     		cmp	r4, #1
 4668 0032 F9D0     		beq	.L441
1446:Generated_Source\PSoC4/CyLFClk.c ****             break;
 4669              		.loc 1 1446 0
 4670 0034 1B04     		lsls	r3, r3, #16
 4671 0036 1B0C     		lsrs	r3, r3, #16
 4672              	.LVL410:
 4673 0038 F7E7     		b	.L442
 4674              	.LVL411:
 4675              	.L458:
 4676              	.LBE627:
 4677              	.LBE628:
 4678              	.LBB629:
 4679              	.LBB630:
 4680 003a 194A     		ldr	r2, .L459+8
 4681 003c 02E0     		b	.L452
 4682              	.LVL412:
 4683              	.L445:
1451:Generated_Source\PSoC4/CyLFClk.c ****             break;
 4684              		.loc 1 1451 0
 4685 003e 1B0C     		lsrs	r3, r3, #16
 4686              	.LVL413:
 4687              	.L446:
 4688              	.LBE630:
 4689              	.LBE629:
3178:Generated_Source\PSoC4/CyLFClk.c ****                 }
 4690              		.loc 1 3178 0
 4691 0040 9D42     		cmp	r5, r3
 4692 0042 E2D9     		bls	.L437
 4693              	.L452:
 4694              	.LVL414:
 4695              	.LBB632:
 4696              	.LBB631:
1451:Generated_Source\PSoC4/CyLFClk.c ****             break;
 4697              		.loc 1 1451 0
 4698 0044 1368     		ldr	r3, [r2]
1442:Generated_Source\PSoC4/CyLFClk.c ****         {
 4699              		.loc 1 1442 0
 4700 0046 012C     		cmp	r4, #1
 4701 0048 F9D0     		beq	.L445
1446:Generated_Source\PSoC4/CyLFClk.c ****             break;
 4702              		.loc 1 1446 0
 4703 004a 1B04     		lsls	r3, r3, #16
 4704 004c 1B0C     		lsrs	r3, r3, #16
 4705              	.LVL415:
 4706 004e F7E7     		b	.L446
 4707              	.LVL416:
 4708              	.L439:
 4709              	.LBE631:
 4710              	.LBE632:
 4711              	.LBE624:
 4712              	.LBE623:
ARM GAS  C:\Users\AFDHAL~1\AppData\Local\Temp\cc29CzqQ.s 			page 165


3182:Generated_Source\PSoC4/CyLFClk.c ****                     CySysWdtSetMatch(counterNum, match);
 4713              		.loc 1 3182 0
 4714 0050 144B     		ldr	r3, .L459+12
 4715 0052 A200     		lsls	r2, r4, #2
 4716 0054 D658     		ldr	r6, [r2, r3]
 4717              	.LVL417:
 4718              	.LBB633:
 4719              	.LBB634:
1344:Generated_Source\PSoC4/CyLFClk.c **** 
 4720              		.loc 1 1344 0
 4721 0056 0368     		ldr	r3, [r0]
 4722 0058 C920     		movs	r0, #201
 4723 005a 9B0F     		lsrs	r3, r3, #30
 4724 005c 00D0     		beq	.L448
 4725 005e 6C38     		subs	r0, r0, #108
 4726              	.L448:
 4727 0060 FFF7FEFF 		bl	CyDelayUs
 4728              	.LVL418:
1348:Generated_Source\PSoC4/CyLFClk.c **** 
 4729              		.loc 1 1348 0
 4730 0064 0D4A     		ldr	r2, .L459+4
1347:Generated_Source\PSoC4/CyLFClk.c ****         CY_SYS_WDT_MATCH_REG = (regValue | (match << (counterNum * CY_SYS_WDT_CNT_MATCH_SHIFT)));
 4731              		.loc 1 1347 0
 4732 0066 2401     		lsls	r4, r4, #4
 4733              	.LVL419:
1348:Generated_Source\PSoC4/CyLFClk.c **** 
 4734              		.loc 1 1348 0
 4735 0068 A240     		lsls	r2, r2, r4
 4736 006a A540     		lsls	r5, r5, r4
 4737              	.LVL420:
1346:Generated_Source\PSoC4/CyLFClk.c ****         regValue &= (uint32)~((uint32)(CY_SYS_WDT_LOWER_16BITS_MASK << (counterNum * CY_SYS_WDT_CNT
 4738              		.loc 1 1346 0
 4739 006c 0E49     		ldr	r1, .L459+16
1351:Generated_Source\PSoC4/CyLFClk.c ****     }
 4740              		.loc 1 1351 0
 4741 006e 4320     		movs	r0, #67
1346:Generated_Source\PSoC4/CyLFClk.c ****         regValue &= (uint32)~((uint32)(CY_SYS_WDT_LOWER_16BITS_MASK << (counterNum * CY_SYS_WDT_CNT
 4742              		.loc 1 1346 0
 4743 0070 0B68     		ldr	r3, [r1]
 4744              	.LVL421:
1348:Generated_Source\PSoC4/CyLFClk.c **** 
 4745              		.loc 1 1348 0
 4746 0072 9343     		bics	r3, r2
 4747              	.LVL422:
 4748 0074 1D43     		orrs	r5, r3
1351:Generated_Source\PSoC4/CyLFClk.c ****     }
 4749              		.loc 1 1351 0
 4750 0076 084B     		ldr	r3, .L459
 4751              	.LVL423:
1348:Generated_Source\PSoC4/CyLFClk.c **** 
 4752              		.loc 1 1348 0
 4753 0078 0D60     		str	r5, [r1]
1351:Generated_Source\PSoC4/CyLFClk.c ****     }
 4754              		.loc 1 1351 0
 4755 007a 1B68     		ldr	r3, [r3]
 4756 007c 9B0F     		lsrs	r3, r3, #30
 4757 007e 00D0     		beq	.L449
ARM GAS  C:\Users\AFDHAL~1\AppData\Local\Temp\cc29CzqQ.s 			page 166


 4758 0080 2438     		subs	r0, r0, #36
 4759              	.L449:
 4760 0082 FFF7FEFF 		bl	CyDelayUs
 4761              	.LVL424:
 4762              	.LBE634:
 4763              	.LBE633:
3185:Generated_Source\PSoC4/CyLFClk.c ****                     wdtIsrMask |= tmpValue;
 4764              		.loc 1 3185 0
 4765 0086 094A     		ldr	r2, .L459+20
 4766 0088 536A     		ldr	r3, [r2, #36]
 4767 008a 3343     		orrs	r3, r6
 4768 008c 5362     		str	r3, [r2, #36]
3186:Generated_Source\PSoC4/CyLFClk.c ****                 }
 4769              		.loc 1 3186 0
 4770 008e 084A     		ldr	r2, .L459+24
 4771 0090 5368     		ldr	r3, [r2, #4]
 4772 0092 3343     		orrs	r3, r6
 4773 0094 5360     		str	r3, [r2, #4]
 4774              		.loc 1 3226 0
 4775 0096 B8E7     		b	.L437
 4776              	.L460:
 4777              		.align	2
 4778              	.L459:
 4779 0098 0C020B40 		.word	1074463244
 4780 009c FFFF0000 		.word	65535
 4781 00a0 00020B40 		.word	1074463232
 4782 00a4 00000000 		.word	.LANCHOR2
 4783 00a8 08020B40 		.word	1074463240
 4784 00ac 00000000 		.word	.LANCHOR0
 4785 00b0 00000000 		.word	.LANCHOR1
 4786              		.cfi_endproc
 4787              	.LFE46:
 4788              		.size	CySysTimerDelayUntilMatch, .-CySysTimerDelayUntilMatch
 4789              		.section	.rodata
 4790              		.align	2
 4791              		.set	.LANCHOR2,. + 0
 4792              		.type	counterIntMaskTbl, %object
 4793              		.size	counterIntMaskTbl, 12
 4794              	counterIntMaskTbl:
 4795 0000 04000000 		.word	4
 4796 0004 00040000 		.word	1024
 4797 0008 00000400 		.word	262144
 4798              		.data
 4799              		.align	2
 4800              		.set	.LANCHOR1,. + 0
 4801              		.type	defaultIloTrimRegValue, %object
 4802              		.size	defaultIloTrimRegValue, 2
 4803              	defaultIloTrimRegValue:
 4804 0000 F000     		.short	240
 4805 0002 0000     		.space	2
 4806              		.type	wdtIsrMask, %object
 4807              		.size	wdtIsrMask, 4
 4808              	wdtIsrMask:
 4809 0004 04040400 		.word	263172
 4810              		.bss
 4811              		.align	2
 4812              		.set	.LANCHOR0,. + 0
ARM GAS  C:\Users\AFDHAL~1\AppData\Local\Temp\cc29CzqQ.s 			page 167


 4813              		.type	lfclkPosedgeEnabledWdtCounter.5066, %object
 4814              		.size	lfclkPosedgeEnabledWdtCounter.5066, 4
 4815              	lfclkPosedgeEnabledWdtCounter.5066:
 4816 0000 00000000 		.space	4
 4817              		.type	lfclkPosedgeWdtCounter0Enabled, %object
 4818              		.size	lfclkPosedgeWdtCounter0Enabled, 4
 4819              	lfclkPosedgeWdtCounter0Enabled:
 4820 0004 00000000 		.space	4
 4821              		.type	lfclkPosedgeWdtCounter0Mode, %object
 4822              		.size	lfclkPosedgeWdtCounter0Mode, 4
 4823              	lfclkPosedgeWdtCounter0Mode:
 4824 0008 00000000 		.space	4
 4825              		.type	iloTrimTrig.4871, %object
 4826              		.size	iloTrimTrig.4871, 1
 4827              	iloTrimTrig.4871:
 4828 000c 00       		.space	1
 4829 000d 000000   		.space	3
 4830              		.type	compensateRunningStatus.4881, %object
 4831              		.size	compensateRunningStatus.4881, 4
 4832              	compensateRunningStatus.4881:
 4833 0010 00000000 		.space	4
 4834              		.type	trimRunningStatus.4893, %object
 4835              		.size	trimRunningStatus.4893, 4
 4836              	trimRunningStatus.4893:
 4837 0014 00000000 		.space	4
 4838              		.type	cySysWdtCallback, %object
 4839              		.size	cySysWdtCallback, 12
 4840              	cySysWdtCallback:
 4841 0018 00000000 		.space	12
 4841      00000000 
 4841      00000000 
 4842              		.type	disableServicedIsr, %object
 4843              		.size	disableServicedIsr, 4
 4844              	disableServicedIsr:
 4845 0024 00000000 		.space	4
 4846              		.text
 4847              	.Letext0:
 4848              		.file 3 "Generated_Source\\PSoC4\\cytypes.h"
 4849              		.file 4 "Generated_Source\\PSoC4\\CyLib.h"
 4850              		.section	.debug_info,"",%progbits
 4851              	.Ldebug_info0:
 4852 0000 C91B0000 		.4byte	0x1bc9
 4853 0004 0400     		.2byte	0x4
 4854 0006 00000000 		.4byte	.Ldebug_abbrev0
 4855 000a 04       		.byte	0x4
 4856 000b 01       		.uleb128 0x1
 4857 000c 99010000 		.4byte	.LASF121
 4858 0010 0C       		.byte	0xc
 4859 0011 8A070000 		.4byte	.LASF122
 4860 0015 DF030000 		.4byte	.LASF123
 4861 0019 70040000 		.4byte	.Ldebug_ranges0+0x470
 4862 001d 00000000 		.4byte	0
 4863 0021 00000000 		.4byte	.Ldebug_line0
 4864 0025 02       		.uleb128 0x2
 4865 0026 04       		.byte	0x4
 4866 0027 07       		.byte	0x7
 4867 0028 BB030000 		.4byte	.LASF0
ARM GAS  C:\Users\AFDHAL~1\AppData\Local\Temp\cc29CzqQ.s 			page 168


 4868 002c 02       		.uleb128 0x2
 4869 002d 01       		.byte	0x1
 4870 002e 06       		.byte	0x6
 4871 002f 35020000 		.4byte	.LASF1
 4872 0033 02       		.uleb128 0x2
 4873 0034 01       		.byte	0x1
 4874 0035 08       		.byte	0x8
 4875 0036 DE060000 		.4byte	.LASF2
 4876 003a 02       		.uleb128 0x2
 4877 003b 02       		.byte	0x2
 4878 003c 05       		.byte	0x5
 4879 003d 28070000 		.4byte	.LASF3
 4880 0041 02       		.uleb128 0x2
 4881 0042 02       		.byte	0x2
 4882 0043 07       		.byte	0x7
 4883 0044 BF040000 		.4byte	.LASF4
 4884 0048 02       		.uleb128 0x2
 4885 0049 04       		.byte	0x4
 4886 004a 05       		.byte	0x5
 4887 004b A9020000 		.4byte	.LASF5
 4888 004f 02       		.uleb128 0x2
 4889 0050 04       		.byte	0x4
 4890 0051 07       		.byte	0x7
 4891 0052 64040000 		.4byte	.LASF6
 4892 0056 02       		.uleb128 0x2
 4893 0057 08       		.byte	0x8
 4894 0058 05       		.byte	0x5
 4895 0059 27020000 		.4byte	.LASF7
 4896 005d 02       		.uleb128 0x2
 4897 005e 08       		.byte	0x8
 4898 005f 07       		.byte	0x7
 4899 0060 16010000 		.4byte	.LASF8
 4900 0064 03       		.uleb128 0x3
 4901 0065 04       		.byte	0x4
 4902 0066 05       		.byte	0x5
 4903 0067 696E7400 		.ascii	"int\000"
 4904 006b 04       		.uleb128 0x4
 4905 006c BB020000 		.4byte	.LASF9
 4906 0070 03       		.byte	0x3
 4907 0071 D201     		.2byte	0x1d2
 4908 0073 33000000 		.4byte	0x33
 4909 0077 04       		.uleb128 0x4
 4910 0078 00000000 		.4byte	.LASF10
 4911 007c 03       		.byte	0x3
 4912 007d D301     		.2byte	0x1d3
 4913 007f 41000000 		.4byte	0x41
 4914 0083 04       		.uleb128 0x4
 4915 0084 13030000 		.4byte	.LASF11
 4916 0088 03       		.byte	0x3
 4917 0089 D401     		.2byte	0x1d4
 4918 008b 4F000000 		.4byte	0x4f
 4919 008f 04       		.uleb128 0x4
 4920 0090 67020000 		.4byte	.LASF12
 4921 0094 03       		.byte	0x3
 4922 0095 D701     		.2byte	0x1d7
 4923 0097 48000000 		.4byte	0x48
 4924 009b 02       		.uleb128 0x2
ARM GAS  C:\Users\AFDHAL~1\AppData\Local\Temp\cc29CzqQ.s 			page 169


 4925 009c 04       		.byte	0x4
 4926 009d 04       		.byte	0x4
 4927 009e 9F060000 		.4byte	.LASF13
 4928 00a2 02       		.uleb128 0x2
 4929 00a3 08       		.byte	0x8
 4930 00a4 04       		.byte	0x4
 4931 00a5 C8020000 		.4byte	.LASF14
 4932 00a9 02       		.uleb128 0x2
 4933 00aa 01       		.byte	0x1
 4934 00ab 08       		.byte	0x8
 4935 00ac FE070000 		.4byte	.LASF15
 4936 00b0 04       		.uleb128 0x4
 4937 00b1 DE080000 		.4byte	.LASF16
 4938 00b5 03       		.byte	0x3
 4939 00b6 7402     		.2byte	0x274
 4940 00b8 4F000000 		.4byte	0x4f
 4941 00bc 05       		.uleb128 0x5
 4942 00bd 77000000 		.4byte	0x77
 4943 00c1 04       		.uleb128 0x4
 4944 00c2 75050000 		.4byte	.LASF17
 4945 00c6 03       		.byte	0x3
 4946 00c7 7E02     		.2byte	0x27e
 4947 00c9 CD000000 		.4byte	0xcd
 4948 00cd 05       		.uleb128 0x5
 4949 00ce 83000000 		.4byte	0x83
 4950 00d2 06       		.uleb128 0x6
 4951 00d3 04       		.byte	0x4
 4952 00d4 D8000000 		.4byte	0xd8
 4953 00d8 07       		.uleb128 0x7
 4954 00d9 08       		.uleb128 0x8
 4955 00da 01       		.byte	0x1
 4956 00db 33000000 		.4byte	0x33
 4957 00df 02       		.byte	0x2
 4958 00e0 1A       		.byte	0x1a
 4959 00e1 F2000000 		.4byte	0xf2
 4960 00e5 09       		.uleb128 0x9
 4961 00e6 32060000 		.4byte	.LASF18
 4962 00ea 00       		.byte	0
 4963 00eb 09       		.uleb128 0x9
 4964 00ec 1E090000 		.4byte	.LASF19
 4965 00f0 01       		.byte	0x1
 4966 00f1 00       		.byte	0
 4967 00f2 0A       		.uleb128 0xa
 4968 00f3 88020000 		.4byte	.LASF20
 4969 00f7 02       		.byte	0x2
 4970 00f8 1D       		.byte	0x1d
 4971 00f9 D9000000 		.4byte	0xd9
 4972 00fd 0A       		.uleb128 0xa
 4973 00fe 59020000 		.4byte	.LASF21
 4974 0102 02       		.byte	0x2
 4975 0103 58       		.byte	0x58
 4976 0104 D2000000 		.4byte	0xd2
 4977 0108 02       		.uleb128 0x2
 4978 0109 08       		.byte	0x8
 4979 010a 04       		.byte	0x4
 4980 010b F1050000 		.4byte	.LASF22
 4981 010f 02       		.uleb128 0x2
ARM GAS  C:\Users\AFDHAL~1\AppData\Local\Temp\cc29CzqQ.s 			page 170


 4982 0110 04       		.byte	0x4
 4983 0111 07       		.byte	0x7
 4984 0112 E8050000 		.4byte	.LASF23
 4985 0116 0B       		.uleb128 0xb
 4986 0117 14050000 		.4byte	.LASF29
 4987 011b 01       		.byte	0x1
 4988 011c 3B02     		.2byte	0x23b
 4989 011e B0000000 		.4byte	0xb0
 4990 0122 01       		.byte	0x1
 4991 0123 70010000 		.4byte	0x170
 4992 0127 0C       		.uleb128 0xc
 4993 0128 AB070000 		.4byte	.LASF31
 4994 012c 01       		.byte	0x1
 4995 012d 3B02     		.2byte	0x23b
 4996 012f 70010000 		.4byte	0x170
 4997 0133 0D       		.uleb128 0xd
 4998 0134 6B000000 		.4byte	.LASF24
 4999 0138 01       		.byte	0x1
 5000 0139 3D02     		.2byte	0x23d
 5001 013b 83000000 		.4byte	0x83
 5002 013f 0D       		.uleb128 0xd
 5003 0140 45010000 		.4byte	.LASF25
 5004 0144 01       		.byte	0x1
 5005 0145 3E02     		.2byte	0x23e
 5006 0147 83000000 		.4byte	0x83
 5007 014b 0D       		.uleb128 0xd
 5008 014c 77020000 		.4byte	.LASF26
 5009 0150 01       		.byte	0x1
 5010 0151 3F02     		.2byte	0x23f
 5011 0153 8F000000 		.4byte	0x8f
 5012 0157 0D       		.uleb128 0xd
 5013 0158 B6040000 		.4byte	.LASF27
 5014 015c 01       		.byte	0x1
 5015 015d 4002     		.2byte	0x240
 5016 015f 8F000000 		.4byte	0x8f
 5017 0163 0D       		.uleb128 0xd
 5018 0164 6C010000 		.4byte	.LASF28
 5019 0168 01       		.byte	0x1
 5020 0169 4102     		.2byte	0x241
 5021 016b B0000000 		.4byte	0xb0
 5022 016f 00       		.byte	0
 5023 0170 06       		.uleb128 0x6
 5024 0171 04       		.byte	0x4
 5025 0172 8F000000 		.4byte	0x8f
 5026 0176 0E       		.uleb128 0xe
 5027 0177 7D010000 		.4byte	.LASF35
 5028 017b 02       		.byte	0x2
 5029 017c 9202     		.2byte	0x292
 5030 017e 03       		.byte	0x3
 5031 017f 0F       		.uleb128 0xf
 5032 0180 59010000 		.4byte	.LASF124
 5033 0184 01       		.byte	0x1
 5034 0185 3803     		.2byte	0x338
 5035 0187 83000000 		.4byte	0x83
 5036 018b 01       		.byte	0x1
 5037 018c 0B       		.uleb128 0xb
 5038 018d D2040000 		.4byte	.LASF30
ARM GAS  C:\Users\AFDHAL~1\AppData\Local\Temp\cc29CzqQ.s 			page 171


 5039 0191 01       		.byte	0x1
 5040 0192 F903     		.2byte	0x3f9
 5041 0194 83000000 		.4byte	0x83
 5042 0198 01       		.byte	0x1
 5043 0199 AA010000 		.4byte	0x1aa
 5044 019d 0C       		.uleb128 0xc
 5045 019e 7B000000 		.4byte	.LASF32
 5046 01a2 01       		.byte	0x1
 5047 01a3 F903     		.2byte	0x3f9
 5048 01a5 83000000 		.4byte	0x83
 5049 01a9 00       		.byte	0
 5050 01aa 10       		.uleb128 0x10
 5051 01ab 4C000000 		.4byte	.LASF37
 5052 01af 01       		.byte	0x1
 5053 01b0 1704     		.2byte	0x417
 5054 01b2 01       		.byte	0x1
 5055 01b3 DC010000 		.4byte	0x1dc
 5056 01b7 0C       		.uleb128 0xc
 5057 01b8 7B000000 		.4byte	.LASF32
 5058 01bc 01       		.byte	0x1
 5059 01bd 1704     		.2byte	0x417
 5060 01bf 83000000 		.4byte	0x83
 5061 01c3 0C       		.uleb128 0xc
 5062 01c4 03080000 		.4byte	.LASF33
 5063 01c8 01       		.byte	0x1
 5064 01c9 1704     		.2byte	0x417
 5065 01cb 83000000 		.4byte	0x83
 5066 01cf 0D       		.uleb128 0xd
 5067 01d0 9A080000 		.4byte	.LASF34
 5068 01d4 01       		.byte	0x1
 5069 01d5 1904     		.2byte	0x419
 5070 01d7 83000000 		.4byte	0x83
 5071 01db 00       		.byte	0
 5072 01dc 0E       		.uleb128 0xe
 5073 01dd 81040000 		.4byte	.LASF36
 5074 01e1 01       		.byte	0x1
 5075 01e2 6607     		.2byte	0x766
 5076 01e4 01       		.byte	0x1
 5077 01e5 10       		.uleb128 0x10
 5078 01e6 6B030000 		.4byte	.LASF38
 5079 01ea 01       		.byte	0x1
 5080 01eb 9A04     		.2byte	0x49a
 5081 01ed 01       		.byte	0x1
 5082 01ee FF010000 		.4byte	0x1ff
 5083 01f2 0C       		.uleb128 0xc
 5084 01f3 97030000 		.4byte	.LASF39
 5085 01f7 01       		.byte	0x1
 5086 01f8 9A04     		.2byte	0x49a
 5087 01fa 83000000 		.4byte	0x83
 5088 01fe 00       		.byte	0
 5089 01ff 11       		.uleb128 0x11
 5090 0200 CF060000 		.4byte	.LASF43
 5091 0204 01       		.byte	0x1
 5092 0205 C903     		.2byte	0x3c9
 5093 0207 83000000 		.4byte	0x83
 5094 020b 01       		.byte	0x1
 5095 020c 0B       		.uleb128 0xb
ARM GAS  C:\Users\AFDHAL~1\AppData\Local\Temp\cc29CzqQ.s 			page 172


 5096 020d 75080000 		.4byte	.LASF40
 5097 0211 01       		.byte	0x1
 5098 0212 3304     		.2byte	0x433
 5099 0214 83000000 		.4byte	0x83
 5100 0218 01       		.byte	0x1
 5101 0219 2A020000 		.4byte	0x22a
 5102 021d 0C       		.uleb128 0xc
 5103 021e 7B000000 		.4byte	.LASF32
 5104 0222 01       		.byte	0x1
 5105 0223 3304     		.2byte	0x433
 5106 0225 83000000 		.4byte	0x83
 5107 0229 00       		.byte	0
 5108 022a 0B       		.uleb128 0xb
 5109 022b 08080000 		.4byte	.LASF41
 5110 022f 01       		.byte	0x1
 5111 0230 9E05     		.2byte	0x59e
 5112 0232 83000000 		.4byte	0x83
 5113 0236 01       		.byte	0x1
 5114 0237 54020000 		.4byte	0x254
 5115 023b 0C       		.uleb128 0xc
 5116 023c 7B000000 		.4byte	.LASF32
 5117 0240 01       		.byte	0x1
 5118 0241 9E05     		.2byte	0x59e
 5119 0243 83000000 		.4byte	0x83
 5120 0247 0D       		.uleb128 0xd
 5121 0248 42030000 		.4byte	.LASF42
 5122 024c 01       		.byte	0x1
 5123 024d A005     		.2byte	0x5a0
 5124 024f 83000000 		.4byte	0x83
 5125 0253 00       		.byte	0
 5126 0254 11       		.uleb128 0x11
 5127 0255 5C070000 		.4byte	.LASF44
 5128 0259 01       		.byte	0x1
 5129 025a 7201     		.2byte	0x172
 5130 025c 83000000 		.4byte	0x83
 5131 0260 01       		.byte	0x1
 5132 0261 12       		.uleb128 0x12
 5133 0262 C4000000 		.4byte	.LASF125
 5134 0266 01       		.byte	0x1
 5135 0267 AD02     		.2byte	0x2ad
 5136 0269 83000000 		.4byte	0x83
 5137 026d 01       		.byte	0x1
 5138 026e 7F020000 		.4byte	0x27f
 5139 0272 0D       		.uleb128 0xd
 5140 0273 1D000000 		.4byte	.LASF45
 5141 0277 01       		.byte	0x1
 5142 0278 AF02     		.2byte	0x2af
 5143 027a 83000000 		.4byte	0x83
 5144 027e 00       		.byte	0
 5145 027f 10       		.uleb128 0x10
 5146 0280 5E060000 		.4byte	.LASF46
 5147 0284 01       		.byte	0x1
 5148 0285 2006     		.2byte	0x620
 5149 0287 01       		.byte	0x1
 5150 0288 99020000 		.4byte	0x299
 5151 028c 0C       		.uleb128 0xc
 5152 028d 06030000 		.4byte	.LASF47
ARM GAS  C:\Users\AFDHAL~1\AppData\Local\Temp\cc29CzqQ.s 			page 173


 5153 0291 01       		.byte	0x1
 5154 0292 2006     		.2byte	0x620
 5155 0294 83000000 		.4byte	0x83
 5156 0298 00       		.byte	0
 5157 0299 0B       		.uleb128 0xb
 5158 029a A3030000 		.4byte	.LASF48
 5159 029e 01       		.byte	0x1
 5160 029f 7104     		.2byte	0x471
 5161 02a1 83000000 		.4byte	0x83
 5162 02a5 01       		.byte	0x1
 5163 02a6 B7020000 		.4byte	0x2b7
 5164 02aa 0C       		.uleb128 0xc
 5165 02ab 7B000000 		.4byte	.LASF32
 5166 02af 01       		.byte	0x1
 5167 02b0 7104     		.2byte	0x471
 5168 02b2 83000000 		.4byte	0x83
 5169 02b6 00       		.byte	0
 5170 02b7 10       		.uleb128 0x10
 5171 02b8 A5060000 		.4byte	.LASF49
 5172 02bc 01       		.byte	0x1
 5173 02bd 580C     		.2byte	0xc58
 5174 02bf 01       		.byte	0x1
 5175 02c0 F5020000 		.4byte	0x2f5
 5176 02c4 0C       		.uleb128 0xc
 5177 02c5 7B000000 		.4byte	.LASF32
 5178 02c9 01       		.byte	0x1
 5179 02ca 580C     		.2byte	0xc58
 5180 02cc 83000000 		.4byte	0x83
 5181 02d0 0C       		.uleb128 0xc
 5182 02d1 32070000 		.4byte	.LASF50
 5183 02d5 01       		.byte	0x1
 5184 02d6 580C     		.2byte	0xc58
 5185 02d8 F2000000 		.4byte	0xf2
 5186 02dc 0C       		.uleb128 0xc
 5187 02dd 0E060000 		.4byte	.LASF51
 5188 02e1 01       		.byte	0x1
 5189 02e2 580C     		.2byte	0xc58
 5190 02e4 83000000 		.4byte	0x83
 5191 02e8 0D       		.uleb128 0xd
 5192 02e9 39080000 		.4byte	.LASF52
 5193 02ed 01       		.byte	0x1
 5194 02ee 5A0C     		.2byte	0xc5a
 5195 02f0 83000000 		.4byte	0x83
 5196 02f4 00       		.byte	0
 5197 02f5 13       		.uleb128 0x13
 5198 02f6 97000000 		.4byte	.LASF126
 5199 02fa 01       		.byte	0x1
 5200 02fb 3007     		.2byte	0x730
 5201 02fd 00000000 		.4byte	.LFB43
 5202 0301 CC000000 		.4byte	.LFE43-.LFB43
 5203 0305 01       		.uleb128 0x1
 5204 0306 9C       		.byte	0x9c
 5205 0307 86040000 		.4byte	0x486
 5206 030b 14       		.uleb128 0x14
 5207 030c 40040000 		.4byte	.LASF53
 5208 0310 01       		.byte	0x1
 5209 0311 3207     		.2byte	0x732
ARM GAS  C:\Users\AFDHAL~1\AppData\Local\Temp\cc29CzqQ.s 			page 174


 5210 0313 83000000 		.4byte	0x83
 5211 0317 01       		.uleb128 0x1
 5212 0318 51       		.byte	0x51
 5213 0319 14       		.uleb128 0x14
 5214 031a 04070000 		.4byte	.LASF54
 5215 031e 01       		.byte	0x1
 5216 031f 3307     		.2byte	0x733
 5217 0321 83000000 		.4byte	0x83
 5218 0325 05       		.uleb128 0x5
 5219 0326 03       		.byte	0x3
 5220 0327 00000000 		.4byte	lfclkPosedgeEnabledWdtCounter.5066
 5221 032b 15       		.uleb128 0x15
 5222 032c 8C010000 		.4byte	0x18c
 5223 0330 00000000 		.4byte	.LBB146
 5224 0334 00000000 		.4byte	.Ldebug_ranges0+0
 5225 0338 01       		.byte	0x1
 5226 0339 3507     		.2byte	0x735
 5227 033b 49030000 		.4byte	0x349
 5228 033f 16       		.uleb128 0x16
 5229 0340 9D010000 		.4byte	0x19d
 5230 0344 00000000 		.4byte	.LLST0
 5231 0348 00       		.byte	0
 5232 0349 15       		.uleb128 0x15
 5233 034a 2A020000 		.4byte	0x22a
 5234 034e 12000000 		.4byte	.LBB150
 5235 0352 18000000 		.4byte	.Ldebug_ranges0+0x18
 5236 0356 01       		.byte	0x1
 5237 0357 4C07     		.2byte	0x74c
 5238 0359 76030000 		.4byte	0x376
 5239 035d 16       		.uleb128 0x16
 5240 035e 3B020000 		.4byte	0x23b
 5241 0362 14000000 		.4byte	.LLST1
 5242 0366 17       		.uleb128 0x17
 5243 0367 18000000 		.4byte	.Ldebug_ranges0+0x18
 5244 036b 18       		.uleb128 0x18
 5245 036c 47020000 		.4byte	0x247
 5246 0370 4B000000 		.4byte	.LLST2
 5247 0374 00       		.byte	0
 5248 0375 00       		.byte	0
 5249 0376 15       		.uleb128 0x15
 5250 0377 2A020000 		.4byte	0x22a
 5251 037b 1C000000 		.4byte	.LBB155
 5252 037f 40000000 		.4byte	.Ldebug_ranges0+0x40
 5253 0383 01       		.byte	0x1
 5254 0384 4D07     		.2byte	0x74d
 5255 0386 A3030000 		.4byte	0x3a3
 5256 038a 16       		.uleb128 0x16
 5257 038b 3B020000 		.4byte	0x23b
 5258 038f 99000000 		.4byte	.LLST3
 5259 0393 17       		.uleb128 0x17
 5260 0394 40000000 		.4byte	.Ldebug_ranges0+0x40
 5261 0398 18       		.uleb128 0x18
 5262 0399 47020000 		.4byte	0x247
 5263 039d C2000000 		.4byte	.LLST4
 5264 03a1 00       		.byte	0
 5265 03a2 00       		.byte	0
 5266 03a3 19       		.uleb128 0x19
ARM GAS  C:\Users\AFDHAL~1\AppData\Local\Temp\cc29CzqQ.s 			page 175


 5267 03a4 8C010000 		.4byte	0x18c
 5268 03a8 4A000000 		.4byte	.LBB163
 5269 03ac 02000000 		.4byte	.LBE163-.LBB163
 5270 03b0 01       		.byte	0x1
 5271 03b1 3907     		.2byte	0x739
 5272 03b3 C1030000 		.4byte	0x3c1
 5273 03b7 16       		.uleb128 0x16
 5274 03b8 9D010000 		.4byte	0x19d
 5275 03bc F9000000 		.4byte	.LLST5
 5276 03c0 00       		.byte	0
 5277 03c1 19       		.uleb128 0x19
 5278 03c2 8C010000 		.4byte	0x18c
 5279 03c6 60000000 		.4byte	.LBB166
 5280 03ca 02000000 		.4byte	.LBE166-.LBB166
 5281 03ce 01       		.byte	0x1
 5282 03cf 3D07     		.2byte	0x73d
 5283 03d1 DF030000 		.4byte	0x3df
 5284 03d5 16       		.uleb128 0x16
 5285 03d6 9D010000 		.4byte	0x19d
 5286 03da 0D010000 		.4byte	.LLST6
 5287 03de 00       		.byte	0
 5288 03df 15       		.uleb128 0x15
 5289 03e0 0C020000 		.4byte	0x20c
 5290 03e4 6C000000 		.4byte	.LBB168
 5291 03e8 68000000 		.4byte	.Ldebug_ranges0+0x68
 5292 03ec 01       		.byte	0x1
 5293 03ed 4707     		.2byte	0x747
 5294 03ef FD030000 		.4byte	0x3fd
 5295 03f3 16       		.uleb128 0x16
 5296 03f4 1D020000 		.4byte	0x21d
 5297 03f8 21010000 		.4byte	.LLST7
 5298 03fc 00       		.byte	0
 5299 03fd 19       		.uleb128 0x19
 5300 03fe AA010000 		.4byte	0x1aa
 5301 0402 78000000 		.4byte	.LBB172
 5302 0406 0E000000 		.4byte	.LBE172-.LBB172
 5303 040a 01       		.byte	0x1
 5304 040b 4807     		.2byte	0x748
 5305 040d 51040000 		.4byte	0x451
 5306 0411 16       		.uleb128 0x16
 5307 0412 C3010000 		.4byte	0x1c3
 5308 0416 35010000 		.4byte	.LLST8
 5309 041a 16       		.uleb128 0x16
 5310 041b B7010000 		.4byte	0x1b7
 5311 041f 35010000 		.4byte	.LLST8
 5312 0423 1A       		.uleb128 0x1a
 5313 0424 78000000 		.4byte	.LBB173
 5314 0428 0E000000 		.4byte	.LBE173-.LBB173
 5315 042c 18       		.uleb128 0x18
 5316 042d CF010000 		.4byte	0x1cf
 5317 0431 49010000 		.4byte	.LLST10
 5318 0435 1B       		.uleb128 0x1b
 5319 0436 8C010000 		.4byte	0x18c
 5320 043a 78000000 		.4byte	.LBB174
 5321 043e 02000000 		.4byte	.LBE174-.LBB174
 5322 0442 01       		.byte	0x1
 5323 0443 1D04     		.2byte	0x41d
ARM GAS  C:\Users\AFDHAL~1\AppData\Local\Temp\cc29CzqQ.s 			page 176


 5324 0445 16       		.uleb128 0x16
 5325 0446 9D010000 		.4byte	0x19d
 5326 044a 5C010000 		.4byte	.LLST11
 5327 044e 00       		.byte	0
 5328 044f 00       		.byte	0
 5329 0450 00       		.byte	0
 5330 0451 1B       		.uleb128 0x1b
 5331 0452 E5010000 		.4byte	0x1e5
 5332 0456 86000000 		.4byte	.LBB176
 5333 045a 12000000 		.4byte	.LBE176-.LBB176
 5334 045e 01       		.byte	0x1
 5335 045f 4907     		.2byte	0x749
 5336 0461 16       		.uleb128 0x16
 5337 0462 F2010000 		.4byte	0x1f2
 5338 0466 70010000 		.4byte	.LLST12
 5339 046a 1B       		.uleb128 0x1b
 5340 046b 8C010000 		.4byte	0x18c
 5341 046f 92000000 		.4byte	.LBB178
 5342 0473 02000000 		.4byte	.LBE178-.LBB178
 5343 0477 01       		.byte	0x1
 5344 0478 A404     		.2byte	0x4a4
 5345 047a 16       		.uleb128 0x16
 5346 047b 9D010000 		.4byte	0x19d
 5347 047f 84010000 		.4byte	.LLST13
 5348 0483 00       		.byte	0
 5349 0484 00       		.byte	0
 5350 0485 00       		.byte	0
 5351 0486 1C       		.uleb128 0x1c
 5352 0487 2D050000 		.4byte	.LASF59
 5353 048b 01       		.byte	0x1
 5354 048c 53       		.byte	0x53
 5355 048d 00000000 		.4byte	.LFB1
 5356 0491 14000000 		.4byte	.LFE1-.LFB1
 5357 0495 01       		.uleb128 0x1
 5358 0496 9C       		.byte	0x9c
 5359 0497 1D       		.uleb128 0x1d
 5360 0498 E1020000 		.4byte	.LASF56
 5361 049c 01       		.byte	0x1
 5362 049d 6C       		.byte	0x6c
 5363 049e 00000000 		.4byte	.LFB2
 5364 04a2 88000000 		.4byte	.LFE2-.LFB2
 5365 04a6 01       		.uleb128 0x1
 5366 04a7 9C       		.byte	0x9c
 5367 04a8 81050000 		.4byte	0x581
 5368 04ac 1E       		.uleb128 0x1e
 5369 04ad 4A020000 		.4byte	.LASF55
 5370 04b1 01       		.byte	0x1
 5371 04b2 6F       		.byte	0x6f
 5372 04b3 6B000000 		.4byte	0x6b
 5373 04b7 01       		.uleb128 0x1
 5374 04b8 56       		.byte	0x56
 5375 04b9 1F       		.uleb128 0x1f
 5376 04ba FF010000 		.4byte	0x1ff
 5377 04be 00000000 		.4byte	.LBB196
 5378 04c2 80000000 		.4byte	.Ldebug_ranges0+0x80
 5379 04c6 01       		.byte	0x1
 5380 04c7 72       		.byte	0x72
ARM GAS  C:\Users\AFDHAL~1\AppData\Local\Temp\cc29CzqQ.s 			page 177


 5381 04c8 20       		.uleb128 0x20
 5382 04c9 54020000 		.4byte	0x254
 5383 04cd 0E000000 		.4byte	.LBB200
 5384 04d1 08000000 		.4byte	.LBE200-.LBB200
 5385 04d5 01       		.byte	0x1
 5386 04d6 74       		.byte	0x74
 5387 04d7 21       		.uleb128 0x21
 5388 04d8 61020000 		.4byte	0x261
 5389 04dc 18000000 		.4byte	.LBB202
 5390 04e0 04000000 		.4byte	.LBE202-.LBB202
 5391 04e4 01       		.byte	0x1
 5392 04e5 78       		.byte	0x78
 5393 04e6 FA040000 		.4byte	0x4fa
 5394 04ea 1A       		.uleb128 0x1a
 5395 04eb 18000000 		.4byte	.LBB203
 5396 04ef 04000000 		.4byte	.LBE203-.LBB203
 5397 04f3 22       		.uleb128 0x22
 5398 04f4 72020000 		.4byte	0x272
 5399 04f8 00       		.byte	0
 5400 04f9 00       		.byte	0
 5401 04fa 23       		.uleb128 0x23
 5402 04fb DC010000 		.4byte	0x1dc
 5403 04ff 3C000000 		.4byte	.LBB204
 5404 0503 98000000 		.4byte	.Ldebug_ranges0+0x98
 5405 0507 01       		.byte	0x1
 5406 0508 7F       		.byte	0x7f
 5407 0509 5E050000 		.4byte	0x55e
 5408 050d 1B       		.uleb128 0x1b
 5409 050e AA010000 		.4byte	0x1aa
 5410 0512 56000000 		.4byte	.LBB207
 5411 0516 16000000 		.4byte	.LBE207-.LBB207
 5412 051a 01       		.byte	0x1
 5413 051b 6C07     		.2byte	0x76c
 5414 051d 16       		.uleb128 0x16
 5415 051e C3010000 		.4byte	0x1c3
 5416 0522 98010000 		.4byte	.LLST14
 5417 0526 16       		.uleb128 0x16
 5418 0527 B7010000 		.4byte	0x1b7
 5419 052b AF010000 		.4byte	.LLST15
 5420 052f 1A       		.uleb128 0x1a
 5421 0530 56000000 		.4byte	.LBB208
 5422 0534 16000000 		.4byte	.LBE208-.LBB208
 5423 0538 18       		.uleb128 0x18
 5424 0539 CF010000 		.4byte	0x1cf
 5425 053d C3010000 		.4byte	.LLST16
 5426 0541 1B       		.uleb128 0x1b
 5427 0542 8C010000 		.4byte	0x18c
 5428 0546 56000000 		.4byte	.LBB209
 5429 054a 02000000 		.4byte	.LBE209-.LBB209
 5430 054e 01       		.byte	0x1
 5431 054f 1D04     		.2byte	0x41d
 5432 0551 16       		.uleb128 0x16
 5433 0552 9D010000 		.4byte	0x19d
 5434 0556 E1010000 		.4byte	.LLST17
 5435 055a 00       		.byte	0
 5436 055b 00       		.byte	0
 5437 055c 00       		.byte	0
ARM GAS  C:\Users\AFDHAL~1\AppData\Local\Temp\cc29CzqQ.s 			page 178


 5438 055d 00       		.byte	0
 5439 055e 24       		.uleb128 0x24
 5440 055f 2E000000 		.4byte	.LVL28
 5441 0563 AB1B0000 		.4byte	0x1bab
 5442 0567 24       		.uleb128 0x24
 5443 0568 34000000 		.4byte	.LVL30
 5444 056c F5020000 		.4byte	0x2f5
 5445 0570 25       		.uleb128 0x25
 5446 0571 4A000000 		.4byte	.LVL31
 5447 0575 B61B0000 		.4byte	0x1bb6
 5448 0579 26       		.uleb128 0x26
 5449 057a 01       		.uleb128 0x1
 5450 057b 50       		.byte	0x50
 5451 057c 02       		.uleb128 0x2
 5452 057d 76       		.byte	0x76
 5453 057e 00       		.sleb128 0
 5454 057f 00       		.byte	0
 5455 0580 00       		.byte	0
 5456 0581 1D       		.uleb128 0x1d
 5457 0582 DB000000 		.4byte	.LASF57
 5458 0586 01       		.byte	0x1
 5459 0587 A8       		.byte	0xa8
 5460 0588 00000000 		.4byte	.LFB3
 5461 058c 58000000 		.4byte	.LFE3-.LFB3
 5462 0590 01       		.uleb128 0x1
 5463 0591 9C       		.byte	0x9c
 5464 0592 A8050000 		.4byte	0x5a8
 5465 0596 1E       		.uleb128 0x1e
 5466 0597 08050000 		.4byte	.LASF58
 5467 059b 01       		.byte	0x1
 5468 059c AB       		.byte	0xab
 5469 059d 6B000000 		.4byte	0x6b
 5470 05a1 05       		.uleb128 0x5
 5471 05a2 03       		.byte	0x3
 5472 05a3 0C000000 		.4byte	iloTrimTrig.4871
 5473 05a7 00       		.byte	0
 5474 05a8 1C       		.uleb128 0x1c
 5475 05a9 1A030000 		.4byte	.LASF60
 5476 05ad 01       		.byte	0x1
 5477 05ae C9       		.byte	0xc9
 5478 05af 00000000 		.4byte	.LFB4
 5479 05b3 14000000 		.4byte	.LFE4-.LFB4
 5480 05b7 01       		.uleb128 0x1
 5481 05b8 9C       		.byte	0x9c
 5482 05b9 27       		.uleb128 0x27
 5483 05ba 08090000 		.4byte	.LASF68
 5484 05be 01       		.byte	0x1
 5485 05bf 0B01     		.2byte	0x10b
 5486 05c1 B0000000 		.4byte	0xb0
 5487 05c5 00000000 		.4byte	.LFB5
 5488 05c9 F4000000 		.4byte	.LFE5-.LFB5
 5489 05cd 01       		.uleb128 0x1
 5490 05ce 9C       		.byte	0x9c
 5491 05cf 46060000 		.4byte	0x646
 5492 05d3 28       		.uleb128 0x28
 5493 05d4 57040000 		.4byte	.LASF61
 5494 05d8 01       		.byte	0x1
ARM GAS  C:\Users\AFDHAL~1\AppData\Local\Temp\cc29CzqQ.s 			page 179


 5495 05d9 0B01     		.2byte	0x10b
 5496 05db 83000000 		.4byte	0x83
 5497 05df F5010000 		.4byte	.LLST18
 5498 05e3 28       		.uleb128 0x28
 5499 05e4 CF020000 		.4byte	.LASF62
 5500 05e8 01       		.byte	0x1
 5501 05e9 0B01     		.2byte	0x10b
 5502 05eb 46060000 		.4byte	0x646
 5503 05ef 53020000 		.4byte	.LLST19
 5504 05f3 29       		.uleb128 0x29
 5505 05f4 F1020000 		.4byte	.LASF63
 5506 05f8 01       		.byte	0x1
 5507 05f9 0D01     		.2byte	0x10d
 5508 05fb 83000000 		.4byte	0x83
 5509 05ff AB020000 		.4byte	.LLST20
 5510 0603 29       		.uleb128 0x29
 5511 0604 85080000 		.4byte	.LASF64
 5512 0608 01       		.byte	0x1
 5513 0609 0E01     		.2byte	0x10e
 5514 060b 83000000 		.4byte	0x83
 5515 060f D5020000 		.4byte	.LLST21
 5516 0613 14       		.uleb128 0x14
 5517 0614 EC060000 		.4byte	.LASF65
 5518 0618 01       		.byte	0x1
 5519 0619 0F01     		.2byte	0x10f
 5520 061b 83000000 		.4byte	0x83
 5521 061f 05       		.uleb128 0x5
 5522 0620 03       		.byte	0x3
 5523 0621 10000000 		.4byte	compensateRunningStatus.4881
 5524 0625 29       		.uleb128 0x29
 5525 0626 44060000 		.4byte	.LASF66
 5526 062a 01       		.byte	0x1
 5527 062b 1001     		.2byte	0x110
 5528 062d 83000000 		.4byte	0x83
 5529 0631 2D030000 		.4byte	.LLST22
 5530 0635 29       		.uleb128 0x29
 5531 0636 BA050000 		.4byte	.LASF67
 5532 063a 01       		.byte	0x1
 5533 063b 1101     		.2byte	0x111
 5534 063d B0000000 		.4byte	0xb0
 5535 0641 5C030000 		.4byte	.LLST23
 5536 0645 00       		.byte	0
 5537 0646 06       		.uleb128 0x6
 5538 0647 04       		.byte	0x4
 5539 0648 83000000 		.4byte	0x83
 5540 064c 27       		.uleb128 0x27
 5541 064d 4C070000 		.4byte	.LASF69
 5542 0651 01       		.byte	0x1
 5543 0652 C101     		.2byte	0x1c1
 5544 0654 B0000000 		.4byte	0xb0
 5545 0658 00000000 		.4byte	.LFB7
 5546 065c FC010000 		.4byte	.LFE7-.LFB7
 5547 0660 01       		.uleb128 0x1
 5548 0661 9C       		.byte	0x9c
 5549 0662 DB070000 		.4byte	0x7db
 5550 0666 28       		.uleb128 0x28
 5551 0667 03080000 		.4byte	.LASF33
ARM GAS  C:\Users\AFDHAL~1\AppData\Local\Temp\cc29CzqQ.s 			page 180


 5552 066b 01       		.byte	0x1
 5553 066c C101     		.2byte	0x1c1
 5554 066e 83000000 		.4byte	0x83
 5555 0672 87030000 		.4byte	.LLST24
 5556 0676 28       		.uleb128 0x28
 5557 0677 AB070000 		.4byte	.LASF31
 5558 067b 01       		.byte	0x1
 5559 067c C101     		.2byte	0x1c1
 5560 067e 70010000 		.4byte	0x170
 5561 0682 F3030000 		.4byte	.LLST25
 5562 0686 29       		.uleb128 0x29
 5563 0687 55080000 		.4byte	.LASF70
 5564 068b 01       		.byte	0x1
 5565 068c C301     		.2byte	0x1c3
 5566 068e 83000000 		.4byte	0x83
 5567 0692 77040000 		.4byte	.LLST26
 5568 0696 29       		.uleb128 0x29
 5569 0697 74060000 		.4byte	.LASF71
 5570 069b 01       		.byte	0x1
 5571 069c C401     		.2byte	0x1c4
 5572 069e 83000000 		.4byte	0x83
 5573 06a2 BB040000 		.4byte	.LLST27
 5574 06a6 14       		.uleb128 0x14
 5575 06a7 63080000 		.4byte	.LASF72
 5576 06ab 01       		.byte	0x1
 5577 06ac C501     		.2byte	0x1c5
 5578 06ae 83000000 		.4byte	0x83
 5579 06b2 05       		.uleb128 0x5
 5580 06b3 03       		.byte	0x3
 5581 06b4 14000000 		.4byte	trimRunningStatus.4893
 5582 06b8 29       		.uleb128 0x29
 5583 06b9 44060000 		.4byte	.LASF66
 5584 06bd 01       		.byte	0x1
 5585 06be C601     		.2byte	0x1c6
 5586 06c0 83000000 		.4byte	0x83
 5587 06c4 EF040000 		.4byte	.LLST28
 5588 06c8 29       		.uleb128 0x29
 5589 06c9 BA050000 		.4byte	.LASF67
 5590 06cd 01       		.byte	0x1
 5591 06ce C701     		.2byte	0x1c7
 5592 06d0 B0000000 		.4byte	0xb0
 5593 06d4 1E050000 		.4byte	.LLST29
 5594 06d8 15       		.uleb128 0x15
 5595 06d9 16010000 		.4byte	0x116
 5596 06dd 44000000 		.4byte	.LBB221
 5597 06e1 B0000000 		.4byte	.Ldebug_ranges0+0xb0
 5598 06e5 01       		.byte	0x1
 5599 06e6 E101     		.2byte	0x1e1
 5600 06e8 57070000 		.4byte	0x757
 5601 06ec 16       		.uleb128 0x16
 5602 06ed 27010000 		.4byte	0x127
 5603 06f1 3E050000 		.4byte	.LLST30
 5604 06f5 17       		.uleb128 0x17
 5605 06f6 B0000000 		.4byte	.Ldebug_ranges0+0xb0
 5606 06fa 22       		.uleb128 0x22
 5607 06fb 33010000 		.4byte	0x133
 5608 06ff 22       		.uleb128 0x22
ARM GAS  C:\Users\AFDHAL~1\AppData\Local\Temp\cc29CzqQ.s 			page 181


 5609 0700 3F010000 		.4byte	0x13f
 5610 0704 22       		.uleb128 0x22
 5611 0705 4B010000 		.4byte	0x14b
 5612 0709 22       		.uleb128 0x22
 5613 070a 57010000 		.4byte	0x157
 5614 070e 22       		.uleb128 0x22
 5615 070f 63010000 		.4byte	0x163
 5616 0713 17       		.uleb128 0x17
 5617 0714 F0000000 		.4byte	.Ldebug_ranges0+0xf0
 5618 0718 16       		.uleb128 0x16
 5619 0719 27010000 		.4byte	0x127
 5620 071d 72050000 		.4byte	.LLST31
 5621 0721 17       		.uleb128 0x17
 5622 0722 F0000000 		.4byte	.Ldebug_ranges0+0xf0
 5623 0726 18       		.uleb128 0x18
 5624 0727 33010000 		.4byte	0x133
 5625 072b 9B050000 		.4byte	.LLST32
 5626 072f 18       		.uleb128 0x18
 5627 0730 3F010000 		.4byte	0x13f
 5628 0734 BE050000 		.4byte	.LLST33
 5629 0738 18       		.uleb128 0x18
 5630 0739 4B010000 		.4byte	0x14b
 5631 073d EB050000 		.4byte	.LLST34
 5632 0741 18       		.uleb128 0x18
 5633 0742 57010000 		.4byte	0x157
 5634 0746 20060000 		.4byte	.LLST35
 5635 074a 18       		.uleb128 0x18
 5636 074b 63010000 		.4byte	0x163
 5637 074f 3E060000 		.4byte	.LLST36
 5638 0753 00       		.byte	0
 5639 0754 00       		.byte	0
 5640 0755 00       		.byte	0
 5641 0756 00       		.byte	0
 5642 0757 2A       		.uleb128 0x2a
 5643 0758 16010000 		.4byte	0x116
 5644 075c 30010000 		.4byte	.LBB244
 5645 0760 20010000 		.4byte	.Ldebug_ranges0+0x120
 5646 0764 01       		.byte	0x1
 5647 0765 0202     		.2byte	0x202
 5648 0767 16       		.uleb128 0x16
 5649 0768 27010000 		.4byte	0x127
 5650 076c 5E060000 		.4byte	.LLST37
 5651 0770 17       		.uleb128 0x17
 5652 0771 20010000 		.4byte	.Ldebug_ranges0+0x120
 5653 0775 22       		.uleb128 0x22
 5654 0776 33010000 		.4byte	0x133
 5655 077a 22       		.uleb128 0x22
 5656 077b 3F010000 		.4byte	0x13f
 5657 077f 22       		.uleb128 0x22
 5658 0780 4B010000 		.4byte	0x14b
 5659 0784 22       		.uleb128 0x22
 5660 0785 57010000 		.4byte	0x157
 5661 0789 22       		.uleb128 0x22
 5662 078a 63010000 		.4byte	0x163
 5663 078e 1A       		.uleb128 0x1a
 5664 078f 56010000 		.4byte	.LBB246
 5665 0793 A6000000 		.4byte	.LBE246-.LBB246
ARM GAS  C:\Users\AFDHAL~1\AppData\Local\Temp\cc29CzqQ.s 			page 182


 5666 0797 16       		.uleb128 0x16
 5667 0798 27010000 		.4byte	0x127
 5668 079c 87060000 		.4byte	.LLST38
 5669 07a0 1A       		.uleb128 0x1a
 5670 07a1 56010000 		.4byte	.LBB247
 5671 07a5 A6000000 		.4byte	.LBE247-.LBB247
 5672 07a9 18       		.uleb128 0x18
 5673 07aa 33010000 		.4byte	0x133
 5674 07ae A5060000 		.4byte	.LLST39
 5675 07b2 18       		.uleb128 0x18
 5676 07b3 3F010000 		.4byte	0x13f
 5677 07b7 C8060000 		.4byte	.LLST40
 5678 07bb 18       		.uleb128 0x18
 5679 07bc 4B010000 		.4byte	0x14b
 5680 07c0 F5060000 		.4byte	.LLST41
 5681 07c4 18       		.uleb128 0x18
 5682 07c5 57010000 		.4byte	0x157
 5683 07c9 1E070000 		.4byte	.LLST42
 5684 07cd 18       		.uleb128 0x18
 5685 07ce 63010000 		.4byte	0x163
 5686 07d2 53070000 		.4byte	.LLST43
 5687 07d6 00       		.byte	0
 5688 07d7 00       		.byte	0
 5689 07d8 00       		.byte	0
 5690 07d9 00       		.byte	0
 5691 07da 00       		.byte	0
 5692 07db 2B       		.uleb128 0x2b
 5693 07dc 16010000 		.4byte	0x116
 5694 07e0 00000000 		.4byte	.LFB8
 5695 07e4 A0000000 		.4byte	.LFE8-.LFB8
 5696 07e8 01       		.uleb128 0x1
 5697 07e9 9C       		.byte	0x9c
 5698 07ea 5D080000 		.4byte	0x85d
 5699 07ee 16       		.uleb128 0x16
 5700 07ef 27010000 		.4byte	0x127
 5701 07f3 73070000 		.4byte	.LLST44
 5702 07f7 22       		.uleb128 0x22
 5703 07f8 33010000 		.4byte	0x133
 5704 07fc 22       		.uleb128 0x22
 5705 07fd 3F010000 		.4byte	0x13f
 5706 0801 22       		.uleb128 0x22
 5707 0802 4B010000 		.4byte	0x14b
 5708 0806 22       		.uleb128 0x22
 5709 0807 57010000 		.4byte	0x157
 5710 080b 18       		.uleb128 0x18
 5711 080c 63010000 		.4byte	0x163
 5712 0810 AA070000 		.4byte	.LLST45
 5713 0814 1A       		.uleb128 0x1a
 5714 0815 10000000 		.4byte	.LBB253
 5715 0819 90000000 		.4byte	.LBE253-.LBB253
 5716 081d 2C       		.uleb128 0x2c
 5717 081e 27010000 		.4byte	0x127
 5718 0822 01       		.uleb128 0x1
 5719 0823 54       		.byte	0x54
 5720 0824 1A       		.uleb128 0x1a
 5721 0825 10000000 		.4byte	.LBB254
 5722 0829 90000000 		.4byte	.LBE254-.LBB254
ARM GAS  C:\Users\AFDHAL~1\AppData\Local\Temp\cc29CzqQ.s 			page 183


 5723 082d 18       		.uleb128 0x18
 5724 082e 33010000 		.4byte	0x133
 5725 0832 BD070000 		.4byte	.LLST46
 5726 0836 18       		.uleb128 0x18
 5727 0837 3F010000 		.4byte	0x13f
 5728 083b E0070000 		.4byte	.LLST47
 5729 083f 18       		.uleb128 0x18
 5730 0840 4B010000 		.4byte	0x14b
 5731 0844 02080000 		.4byte	.LLST48
 5732 0848 18       		.uleb128 0x18
 5733 0849 57010000 		.4byte	0x157
 5734 084d 37080000 		.4byte	.LLST49
 5735 0851 18       		.uleb128 0x18
 5736 0852 63010000 		.4byte	0x163
 5737 0856 60080000 		.4byte	.LLST50
 5738 085a 00       		.byte	0
 5739 085b 00       		.byte	0
 5740 085c 00       		.byte	0
 5741 085d 2D       		.uleb128 0x2d
 5742 085e 14060000 		.4byte	.LASF73
 5743 0862 01       		.byte	0x1
 5744 0863 8802     		.2byte	0x288
 5745 0865 B0000000 		.4byte	0xb0
 5746 0869 00000000 		.4byte	.LFB9
 5747 086d 2C000000 		.4byte	.LFE9-.LFB9
 5748 0871 01       		.uleb128 0x1
 5749 0872 9C       		.byte	0x9c
 5750 0873 88080000 		.4byte	0x888
 5751 0877 29       		.uleb128 0x29
 5752 0878 BA050000 		.4byte	.LASF67
 5753 087c 01       		.byte	0x1
 5754 087d 8A02     		.2byte	0x28a
 5755 087f B0000000 		.4byte	0xb0
 5756 0883 80080000 		.4byte	.LLST51
 5757 0887 00       		.byte	0
 5758 0888 2E       		.uleb128 0x2e
 5759 0889 C8030000 		.4byte	.LASF74
 5760 088d 01       		.byte	0x1
 5761 088e DE02     		.2byte	0x2de
 5762 0890 00000000 		.4byte	.LFB11
 5763 0894 6C000000 		.4byte	.LFE11-.LFB11
 5764 0898 01       		.uleb128 0x1
 5765 0899 9C       		.byte	0x9c
 5766 089a 66090000 		.4byte	0x966
 5767 089e 28       		.uleb128 0x28
 5768 089f C7050000 		.4byte	.LASF75
 5769 08a3 01       		.byte	0x1
 5770 08a4 DE02     		.2byte	0x2de
 5771 08a6 83000000 		.4byte	0x83
 5772 08aa AB080000 		.4byte	.LLST52
 5773 08ae 29       		.uleb128 0x29
 5774 08af 4A020000 		.4byte	.LASF55
 5775 08b3 01       		.byte	0x1
 5776 08b4 E002     		.2byte	0x2e0
 5777 08b6 6B000000 		.4byte	0x6b
 5778 08ba D7080000 		.4byte	.LLST53
 5779 08be 15       		.uleb128 0x15
ARM GAS  C:\Users\AFDHAL~1\AppData\Local\Temp\cc29CzqQ.s 			page 184


 5780 08bf 61020000 		.4byte	0x261
 5781 08c3 02000000 		.4byte	.LBB265
 5782 08c7 38010000 		.4byte	.Ldebug_ranges0+0x138
 5783 08cb 01       		.byte	0x1
 5784 08cc E202     		.2byte	0x2e2
 5785 08ce DE080000 		.4byte	0x8de
 5786 08d2 17       		.uleb128 0x17
 5787 08d3 38010000 		.4byte	.Ldebug_ranges0+0x138
 5788 08d7 22       		.uleb128 0x22
 5789 08d8 72020000 		.4byte	0x272
 5790 08dc 00       		.byte	0
 5791 08dd 00       		.byte	0
 5792 08de 15       		.uleb128 0x15
 5793 08df DC010000 		.4byte	0x1dc
 5794 08e3 26000000 		.4byte	.LBB269
 5795 08e7 50010000 		.4byte	.Ldebug_ranges0+0x150
 5796 08eb 01       		.byte	0x1
 5797 08ec E802     		.2byte	0x2e8
 5798 08ee 43090000 		.4byte	0x943
 5799 08f2 1B       		.uleb128 0x1b
 5800 08f3 AA010000 		.4byte	0x1aa
 5801 08f7 42000000 		.4byte	.LBB272
 5802 08fb 16000000 		.4byte	.LBE272-.LBB272
 5803 08ff 01       		.byte	0x1
 5804 0900 6C07     		.2byte	0x76c
 5805 0902 16       		.uleb128 0x16
 5806 0903 C3010000 		.4byte	0x1c3
 5807 0907 F5080000 		.4byte	.LLST54
 5808 090b 16       		.uleb128 0x16
 5809 090c B7010000 		.4byte	0x1b7
 5810 0910 0C090000 		.4byte	.LLST55
 5811 0914 1A       		.uleb128 0x1a
 5812 0915 42000000 		.4byte	.LBB273
 5813 0919 16000000 		.4byte	.LBE273-.LBB273
 5814 091d 18       		.uleb128 0x18
 5815 091e CF010000 		.4byte	0x1cf
 5816 0922 20090000 		.4byte	.LLST56
 5817 0926 1B       		.uleb128 0x1b
 5818 0927 8C010000 		.4byte	0x18c
 5819 092b 42000000 		.4byte	.LBB274
 5820 092f 02000000 		.4byte	.LBE274-.LBB274
 5821 0933 01       		.byte	0x1
 5822 0934 1D04     		.2byte	0x41d
 5823 0936 16       		.uleb128 0x16
 5824 0937 9D010000 		.4byte	0x19d
 5825 093b 3E090000 		.4byte	.LLST57
 5826 093f 00       		.byte	0
 5827 0940 00       		.byte	0
 5828 0941 00       		.byte	0
 5829 0942 00       		.byte	0
 5830 0943 24       		.uleb128 0x24
 5831 0944 14000000 		.4byte	.LVL148
 5832 0948 AB1B0000 		.4byte	0x1bab
 5833 094c 24       		.uleb128 0x24
 5834 094d 1A000000 		.4byte	.LVL150
 5835 0951 F5020000 		.4byte	0x2f5
 5836 0955 25       		.uleb128 0x25
ARM GAS  C:\Users\AFDHAL~1\AppData\Local\Temp\cc29CzqQ.s 			page 185


 5837 0956 36000000 		.4byte	.LVL152
 5838 095a B61B0000 		.4byte	0x1bb6
 5839 095e 26       		.uleb128 0x26
 5840 095f 01       		.uleb128 0x1
 5841 0960 50       		.byte	0x50
 5842 0961 02       		.uleb128 0x2
 5843 0962 76       		.byte	0x76
 5844 0963 00       		.sleb128 0
 5845 0964 00       		.byte	0
 5846 0965 00       		.byte	0
 5847 0966 2E       		.uleb128 0x2e
 5848 0967 A9050000 		.4byte	.LASF76
 5849 096b 01       		.byte	0x1
 5850 096c 0303     		.2byte	0x303
 5851 096e 00000000 		.4byte	.LFB12
 5852 0972 40000000 		.4byte	.LFE12-.LFB12
 5853 0976 01       		.uleb128 0x1
 5854 0977 9C       		.byte	0x9c
 5855 0978 8D090000 		.4byte	0x98d
 5856 097c 2F       		.uleb128 0x2f
 5857 097d 76010000 		.4byte	0x176
 5858 0981 00000000 		.4byte	.LBB280
 5859 0985 70010000 		.4byte	.Ldebug_ranges0+0x170
 5860 0989 01       		.byte	0x1
 5861 098a 0503     		.2byte	0x305
 5862 098c 00       		.byte	0
 5863 098d 2E       		.uleb128 0x2e
 5864 098e BC070000 		.4byte	.LASF77
 5865 0992 01       		.byte	0x1
 5866 0993 1503     		.2byte	0x315
 5867 0995 00000000 		.4byte	.LFB13
 5868 0999 78000000 		.4byte	.LFE13-.LFB13
 5869 099d 01       		.uleb128 0x1
 5870 099e 9C       		.byte	0x9c
 5871 099f 6D0A0000 		.4byte	0xa6d
 5872 09a3 14       		.uleb128 0x14
 5873 09a4 4A020000 		.4byte	.LASF55
 5874 09a8 01       		.byte	0x1
 5875 09a9 1803     		.2byte	0x318
 5876 09ab 6B000000 		.4byte	0x6b
 5877 09af 01       		.uleb128 0x1
 5878 09b0 56       		.byte	0x56
 5879 09b1 30       		.uleb128 0x30
 5880 09b2 7F010000 		.4byte	0x17f
 5881 09b6 02000000 		.4byte	.LBB298
 5882 09ba 08000000 		.4byte	.LBE298-.LBB298
 5883 09be 01       		.byte	0x1
 5884 09bf 1B03     		.2byte	0x31b
 5885 09c1 19       		.uleb128 0x19
 5886 09c2 61020000 		.4byte	0x261
 5887 09c6 0C000000 		.4byte	.LBB300
 5888 09ca 04000000 		.4byte	.LBE300-.LBB300
 5889 09ce 01       		.byte	0x1
 5890 09cf 1E03     		.2byte	0x31e
 5891 09d1 E5090000 		.4byte	0x9e5
 5892 09d5 1A       		.uleb128 0x1a
 5893 09d6 0C000000 		.4byte	.LBB301
ARM GAS  C:\Users\AFDHAL~1\AppData\Local\Temp\cc29CzqQ.s 			page 186


 5894 09da 04000000 		.4byte	.LBE301-.LBB301
 5895 09de 22       		.uleb128 0x22
 5896 09df 72020000 		.4byte	0x272
 5897 09e3 00       		.byte	0
 5898 09e4 00       		.byte	0
 5899 09e5 15       		.uleb128 0x15
 5900 09e6 DC010000 		.4byte	0x1dc
 5901 09ea 32000000 		.4byte	.LBB302
 5902 09ee 90010000 		.4byte	.Ldebug_ranges0+0x190
 5903 09f2 01       		.byte	0x1
 5904 09f3 2303     		.2byte	0x323
 5905 09f5 4A0A0000 		.4byte	0xa4a
 5906 09f9 1B       		.uleb128 0x1b
 5907 09fa AA010000 		.4byte	0x1aa
 5908 09fe 4C000000 		.4byte	.LBB305
 5909 0a02 16000000 		.4byte	.LBE305-.LBB305
 5910 0a06 01       		.byte	0x1
 5911 0a07 6C07     		.2byte	0x76c
 5912 0a09 16       		.uleb128 0x16
 5913 0a0a C3010000 		.4byte	0x1c3
 5914 0a0e 52090000 		.4byte	.LLST58
 5915 0a12 16       		.uleb128 0x16
 5916 0a13 B7010000 		.4byte	0x1b7
 5917 0a17 69090000 		.4byte	.LLST59
 5918 0a1b 1A       		.uleb128 0x1a
 5919 0a1c 4C000000 		.4byte	.LBB306
 5920 0a20 16000000 		.4byte	.LBE306-.LBB306
 5921 0a24 18       		.uleb128 0x18
 5922 0a25 CF010000 		.4byte	0x1cf
 5923 0a29 7D090000 		.4byte	.LLST60
 5924 0a2d 1B       		.uleb128 0x1b
 5925 0a2e 8C010000 		.4byte	0x18c
 5926 0a32 4C000000 		.4byte	.LBB307
 5927 0a36 02000000 		.4byte	.LBE307-.LBB307
 5928 0a3a 01       		.byte	0x1
 5929 0a3b 1D04     		.2byte	0x41d
 5930 0a3d 16       		.uleb128 0x16
 5931 0a3e 9D010000 		.4byte	0x19d
 5932 0a42 9B090000 		.4byte	.LLST61
 5933 0a46 00       		.byte	0
 5934 0a47 00       		.byte	0
 5935 0a48 00       		.byte	0
 5936 0a49 00       		.byte	0
 5937 0a4a 24       		.uleb128 0x24
 5938 0a4b 24000000 		.4byte	.LVL159
 5939 0a4f AB1B0000 		.4byte	0x1bab
 5940 0a53 24       		.uleb128 0x24
 5941 0a54 2A000000 		.4byte	.LVL161
 5942 0a58 F5020000 		.4byte	0x2f5
 5943 0a5c 25       		.uleb128 0x25
 5944 0a5d 40000000 		.4byte	.LVL162
 5945 0a61 B61B0000 		.4byte	0x1bb6
 5946 0a65 26       		.uleb128 0x26
 5947 0a66 01       		.uleb128 0x1
 5948 0a67 50       		.byte	0x50
 5949 0a68 02       		.uleb128 0x2
 5950 0a69 76       		.byte	0x76
ARM GAS  C:\Users\AFDHAL~1\AppData\Local\Temp\cc29CzqQ.s 			page 187


 5951 0a6a 00       		.sleb128 0
 5952 0a6b 00       		.byte	0
 5953 0a6c 00       		.byte	0
 5954 0a6d 31       		.uleb128 0x31
 5955 0a6e 7F010000 		.4byte	0x17f
 5956 0a72 00000000 		.4byte	.LFB14
 5957 0a76 0C000000 		.4byte	.LFE14-.LFB14
 5958 0a7a 01       		.uleb128 0x1
 5959 0a7b 9C       		.byte	0x9c
 5960 0a7c 2D       		.uleb128 0x2d
 5961 0a7d CC070000 		.4byte	.LASF78
 5962 0a81 01       		.byte	0x1
 5963 0a82 5303     		.2byte	0x353
 5964 0a84 83000000 		.4byte	0x83
 5965 0a88 00000000 		.4byte	.LFB15
 5966 0a8c 40000000 		.4byte	.LFE15-.LFB15
 5967 0a90 01       		.uleb128 0x1
 5968 0a91 9C       		.byte	0x9c
 5969 0a92 C50A0000 		.4byte	0xac5
 5970 0a96 28       		.uleb128 0x28
 5971 0a97 03080000 		.4byte	.LASF33
 5972 0a9b 01       		.byte	0x1
 5973 0a9c 5303     		.2byte	0x353
 5974 0a9e 83000000 		.4byte	0x83
 5975 0aa2 AF090000 		.4byte	.LLST62
 5976 0aa6 14       		.uleb128 0x14
 5977 0aa7 53050000 		.4byte	.LASF79
 5978 0aab 01       		.byte	0x1
 5979 0aac 5503     		.2byte	0x355
 5980 0aae 83000000 		.4byte	0x83
 5981 0ab2 01       		.uleb128 0x1
 5982 0ab3 50       		.byte	0x50
 5983 0ab4 30       		.uleb128 0x30
 5984 0ab5 76010000 		.4byte	0x176
 5985 0ab9 10000000 		.4byte	.LBB311
 5986 0abd 26000000 		.4byte	.LBE311-.LBB311
 5987 0ac1 01       		.byte	0x1
 5988 0ac2 5C03     		.2byte	0x35c
 5989 0ac4 00       		.byte	0
 5990 0ac5 2E       		.uleb128 0x2e
 5991 0ac6 CE050000 		.4byte	.LASF80
 5992 0aca 01       		.byte	0x1
 5993 0acb 9603     		.2byte	0x396
 5994 0acd 00000000 		.4byte	.LFB16
 5995 0ad1 20000000 		.4byte	.LFE16-.LFB16
 5996 0ad5 01       		.uleb128 0x1
 5997 0ad6 9C       		.byte	0x9c
 5998 0ad7 FC0A0000 		.4byte	0xafc
 5999 0adb 28       		.uleb128 0x28
 6000 0adc B2020000 		.4byte	.LASF81
 6001 0ae0 01       		.byte	0x1
 6002 0ae1 9603     		.2byte	0x396
 6003 0ae3 83000000 		.4byte	0x83
 6004 0ae7 DB090000 		.4byte	.LLST63
 6005 0aeb 30       		.uleb128 0x30
 6006 0aec 7F010000 		.4byte	0x17f
 6007 0af0 00000000 		.4byte	.LBB313
ARM GAS  C:\Users\AFDHAL~1\AppData\Local\Temp\cc29CzqQ.s 			page 188


 6008 0af4 08000000 		.4byte	.LBE313-.LBB313
 6009 0af8 01       		.byte	0x1
 6010 0af9 9803     		.2byte	0x398
 6011 0afb 00       		.byte	0
 6012 0afc 10       		.uleb128 0x10
 6013 0afd 19080000 		.4byte	.LASF82
 6014 0b01 01       		.byte	0x1
 6015 0b02 B403     		.2byte	0x3b4
 6016 0b04 01       		.byte	0x1
 6017 0b05 160B0000 		.4byte	0xb16
 6018 0b09 0D       		.uleb128 0xd
 6019 0b0a 4A020000 		.4byte	.LASF55
 6020 0b0e 01       		.byte	0x1
 6021 0b0f B603     		.2byte	0x3b6
 6022 0b11 6B000000 		.4byte	0x6b
 6023 0b15 00       		.byte	0
 6024 0b16 32       		.uleb128 0x32
 6025 0b17 FC0A0000 		.4byte	0xafc
 6026 0b1b 00000000 		.4byte	.LFB17
 6027 0b1f 1C000000 		.4byte	.LFE17-.LFB17
 6028 0b23 01       		.uleb128 0x1
 6029 0b24 9C       		.byte	0x9c
 6030 0b25 450B0000 		.4byte	0xb45
 6031 0b29 18       		.uleb128 0x18
 6032 0b2a 090B0000 		.4byte	0xb09
 6033 0b2e 150A0000 		.4byte	.LLST64
 6034 0b32 24       		.uleb128 0x24
 6035 0b33 06000000 		.4byte	.LVL176
 6036 0b37 AB1B0000 		.4byte	0x1bab
 6037 0b3b 24       		.uleb128 0x24
 6038 0b3c 16000000 		.4byte	.LVL177
 6039 0b40 B61B0000 		.4byte	0x1bb6
 6040 0b44 00       		.byte	0
 6041 0b45 10       		.uleb128 0x10
 6042 0b46 5C000000 		.4byte	.LASF83
 6043 0b4a 01       		.byte	0x1
 6044 0b4b D703     		.2byte	0x3d7
 6045 0b4d 01       		.byte	0x1
 6046 0b4e 5F0B0000 		.4byte	0xb5f
 6047 0b52 0D       		.uleb128 0xd
 6048 0b53 4A020000 		.4byte	.LASF55
 6049 0b57 01       		.byte	0x1
 6050 0b58 D903     		.2byte	0x3d9
 6051 0b5a 6B000000 		.4byte	0x6b
 6052 0b5e 00       		.byte	0
 6053 0b5f 32       		.uleb128 0x32
 6054 0b60 450B0000 		.4byte	0xb45
 6055 0b64 00000000 		.4byte	.LFB19
 6056 0b68 30000000 		.4byte	.LFE19-.LFB19
 6057 0b6c 01       		.uleb128 0x1
 6058 0b6d 9C       		.byte	0x9c
 6059 0b6e 8E0B0000 		.4byte	0xb8e
 6060 0b72 18       		.uleb128 0x18
 6061 0b73 520B0000 		.4byte	0xb52
 6062 0b77 280A0000 		.4byte	.LLST65
 6063 0b7b 24       		.uleb128 0x24
 6064 0b7c 08000000 		.4byte	.LVL178
ARM GAS  C:\Users\AFDHAL~1\AppData\Local\Temp\cc29CzqQ.s 			page 189


 6065 0b80 AB1B0000 		.4byte	0x1bab
 6066 0b84 24       		.uleb128 0x24
 6067 0b85 26000000 		.4byte	.LVL179
 6068 0b89 B61B0000 		.4byte	0x1bb6
 6069 0b8d 00       		.byte	0
 6070 0b8e 32       		.uleb128 0x32
 6071 0b8f 8C010000 		.4byte	0x18c
 6072 0b93 00000000 		.4byte	.LFB20
 6073 0b97 18000000 		.4byte	.LFE20-.LFB20
 6074 0b9b 01       		.uleb128 0x1
 6075 0b9c 9C       		.byte	0x9c
 6076 0b9d AB0B0000 		.4byte	0xbab
 6077 0ba1 16       		.uleb128 0x16
 6078 0ba2 9D010000 		.4byte	0x19d
 6079 0ba6 3B0A0000 		.4byte	.LLST66
 6080 0baa 00       		.byte	0
 6081 0bab 32       		.uleb128 0x32
 6082 0bac AA010000 		.4byte	0x1aa
 6083 0bb0 00000000 		.4byte	.LFB21
 6084 0bb4 30000000 		.4byte	.LFE21-.LFB21
 6085 0bb8 01       		.uleb128 0x1
 6086 0bb9 9C       		.byte	0x9c
 6087 0bba F40B0000 		.4byte	0xbf4
 6088 0bbe 16       		.uleb128 0x16
 6089 0bbf B7010000 		.4byte	0x1b7
 6090 0bc3 5C0A0000 		.4byte	.LLST67
 6091 0bc7 16       		.uleb128 0x16
 6092 0bc8 C3010000 		.4byte	0x1c3
 6093 0bcc 7D0A0000 		.4byte	.LLST68
 6094 0bd0 18       		.uleb128 0x18
 6095 0bd1 CF010000 		.4byte	0x1cf
 6096 0bd5 9E0A0000 		.4byte	.LLST69
 6097 0bd9 1B       		.uleb128 0x1b
 6098 0bda 8C010000 		.4byte	0x18c
 6099 0bde 00000000 		.4byte	.LBB315
 6100 0be2 06000000 		.4byte	.LBE315-.LBB315
 6101 0be6 01       		.byte	0x1
 6102 0be7 1D04     		.2byte	0x41d
 6103 0be9 16       		.uleb128 0x16
 6104 0bea 9D010000 		.4byte	0x19d
 6105 0bee BC0A0000 		.4byte	.LLST70
 6106 0bf2 00       		.byte	0
 6107 0bf3 00       		.byte	0
 6108 0bf4 32       		.uleb128 0x32
 6109 0bf5 0C020000 		.4byte	0x20c
 6110 0bf9 00000000 		.4byte	.LFB22
 6111 0bfd 14000000 		.4byte	.LFE22-.LFB22
 6112 0c01 01       		.uleb128 0x1
 6113 0c02 9C       		.byte	0x9c
 6114 0c03 110C0000 		.4byte	0xc11
 6115 0c07 16       		.uleb128 0x16
 6116 0c08 1D020000 		.4byte	0x21d
 6117 0c0c CF0A0000 		.4byte	.LLST71
 6118 0c10 00       		.byte	0
 6119 0c11 2E       		.uleb128 0x2e
 6120 0c12 2D010000 		.4byte	.LASF84
 6121 0c16 01       		.byte	0x1
ARM GAS  C:\Users\AFDHAL~1\AppData\Local\Temp\cc29CzqQ.s 			page 190


 6122 0c17 5004     		.2byte	0x450
 6123 0c19 00000000 		.4byte	.LFB23
 6124 0c1d 2C000000 		.4byte	.LFE23-.LFB23
 6125 0c21 01       		.uleb128 0x1
 6126 0c22 9C       		.byte	0x9c
 6127 0c23 720C0000 		.4byte	0xc72
 6128 0c27 28       		.uleb128 0x28
 6129 0c28 7B000000 		.4byte	.LASF32
 6130 0c2c 01       		.byte	0x1
 6131 0c2d 5004     		.2byte	0x450
 6132 0c2f 83000000 		.4byte	0x83
 6133 0c33 F00A0000 		.4byte	.LLST72
 6134 0c37 28       		.uleb128 0x28
 6135 0c38 C1020000 		.4byte	.LASF85
 6136 0c3c 01       		.byte	0x1
 6137 0c3d 5004     		.2byte	0x450
 6138 0c3f 83000000 		.4byte	0x83
 6139 0c43 110B0000 		.4byte	.LLST73
 6140 0c47 29       		.uleb128 0x29
 6141 0c48 9A080000 		.4byte	.LASF34
 6142 0c4c 01       		.byte	0x1
 6143 0c4d 5204     		.2byte	0x452
 6144 0c4f 83000000 		.4byte	0x83
 6145 0c53 320B0000 		.4byte	.LLST74
 6146 0c57 1B       		.uleb128 0x1b
 6147 0c58 8C010000 		.4byte	0x18c
 6148 0c5c 00000000 		.4byte	.LBB317
 6149 0c60 06000000 		.4byte	.LBE317-.LBB317
 6150 0c64 01       		.byte	0x1
 6151 0c65 5704     		.2byte	0x457
 6152 0c67 16       		.uleb128 0x16
 6153 0c68 9D010000 		.4byte	0x19d
 6154 0c6c 500B0000 		.4byte	.LLST75
 6155 0c70 00       		.byte	0
 6156 0c71 00       		.byte	0
 6157 0c72 32       		.uleb128 0x32
 6158 0c73 99020000 		.4byte	0x299
 6159 0c77 00000000 		.4byte	.LFB24
 6160 0c7b 18000000 		.4byte	.LFE24-.LFB24
 6161 0c7f 01       		.uleb128 0x1
 6162 0c80 9C       		.byte	0x9c
 6163 0c81 8F0C0000 		.4byte	0xc8f
 6164 0c85 16       		.uleb128 0x16
 6165 0c86 AA020000 		.4byte	0x2aa
 6166 0c8a 630B0000 		.4byte	.LLST76
 6167 0c8e 00       		.byte	0
 6168 0c8f 32       		.uleb128 0x32
 6169 0c90 E5010000 		.4byte	0x1e5
 6170 0c94 00000000 		.4byte	.LFB25
 6171 0c98 3C000000 		.4byte	.LFE25-.LFB25
 6172 0c9c 01       		.uleb128 0x1
 6173 0c9d 9C       		.byte	0x9c
 6174 0c9e 0F0D0000 		.4byte	0xd0f
 6175 0ca2 2C       		.uleb128 0x2c
 6176 0ca3 F2010000 		.4byte	0x1f2
 6177 0ca7 01       		.uleb128 0x1
 6178 0ca8 50       		.byte	0x50
ARM GAS  C:\Users\AFDHAL~1\AppData\Local\Temp\cc29CzqQ.s 			page 191


 6179 0ca9 19       		.uleb128 0x19
 6180 0caa 8C010000 		.4byte	0x18c
 6181 0cae 0E000000 		.4byte	.LBB331
 6182 0cb2 02000000 		.4byte	.LBE331-.LBB331
 6183 0cb6 01       		.byte	0x1
 6184 0cb7 A404     		.2byte	0x4a4
 6185 0cb9 C70C0000 		.4byte	0xcc7
 6186 0cbd 16       		.uleb128 0x16
 6187 0cbe 9D010000 		.4byte	0x19d
 6188 0cc2 840B0000 		.4byte	.LLST77
 6189 0cc6 00       		.byte	0
 6190 0cc7 15       		.uleb128 0x15
 6191 0cc8 8C010000 		.4byte	0x18c
 6192 0ccc 1A000000 		.4byte	.LBB333
 6193 0cd0 A8010000 		.4byte	.Ldebug_ranges0+0x1a8
 6194 0cd4 01       		.byte	0x1
 6195 0cd5 AC04     		.2byte	0x4ac
 6196 0cd7 E50C0000 		.4byte	0xce5
 6197 0cdb 16       		.uleb128 0x16
 6198 0cdc 9D010000 		.4byte	0x19d
 6199 0ce0 980B0000 		.4byte	.LLST78
 6200 0ce4 00       		.byte	0
 6201 0ce5 1A       		.uleb128 0x1a
 6202 0ce6 28000000 		.4byte	.LBB337
 6203 0cea 0C000000 		.4byte	.LBE337-.LBB337
 6204 0cee 33       		.uleb128 0x33
 6205 0cef F2010000 		.4byte	0x1f2
 6206 0cf3 2A       		.uleb128 0x2a
 6207 0cf4 8C010000 		.4byte	0x18c
 6208 0cf8 2A000000 		.4byte	.LBB339
 6209 0cfc C0010000 		.4byte	.Ldebug_ranges0+0x1c0
 6210 0d00 01       		.byte	0x1
 6211 0d01 B404     		.2byte	0x4b4
 6212 0d03 16       		.uleb128 0x16
 6213 0d04 9D010000 		.4byte	0x19d
 6214 0d08 AC0B0000 		.4byte	.LLST79
 6215 0d0c 00       		.byte	0
 6216 0d0d 00       		.byte	0
 6217 0d0e 00       		.byte	0
 6218 0d0f 2E       		.uleb128 0x2e
 6219 0d10 3C070000 		.4byte	.LASF86
 6220 0d14 01       		.byte	0x1
 6221 0d15 CA04     		.2byte	0x4ca
 6222 0d17 00000000 		.4byte	.LFB26
 6223 0d1b 4C000000 		.4byte	.LFE26-.LFB26
 6224 0d1f 01       		.uleb128 0x1
 6225 0d20 9C       		.byte	0x9c
 6226 0d21 9A0D0000 		.4byte	0xd9a
 6227 0d25 34       		.uleb128 0x34
 6228 0d26 97030000 		.4byte	.LASF39
 6229 0d2a 01       		.byte	0x1
 6230 0d2b CA04     		.2byte	0x4ca
 6231 0d2d 83000000 		.4byte	0x83
 6232 0d31 01       		.uleb128 0x1
 6233 0d32 50       		.byte	0x50
 6234 0d33 30       		.uleb128 0x30
 6235 0d34 FF010000 		.4byte	0x1ff
ARM GAS  C:\Users\AFDHAL~1\AppData\Local\Temp\cc29CzqQ.s 			page 192


 6236 0d38 00000000 		.4byte	.LBB343
 6237 0d3c 0C000000 		.4byte	.LBE343-.LBB343
 6238 0d40 01       		.byte	0x1
 6239 0d41 CC04     		.2byte	0x4cc
 6240 0d43 19       		.uleb128 0x19
 6241 0d44 8C010000 		.4byte	0x18c
 6242 0d48 1A000000 		.4byte	.LBB345
 6243 0d4c 02000000 		.4byte	.LBE345-.LBB345
 6244 0d50 01       		.byte	0x1
 6245 0d51 D204     		.2byte	0x4d2
 6246 0d53 610D0000 		.4byte	0xd61
 6247 0d57 16       		.uleb128 0x16
 6248 0d58 9D010000 		.4byte	0x19d
 6249 0d5c C00B0000 		.4byte	.LLST80
 6250 0d60 00       		.byte	0
 6251 0d61 15       		.uleb128 0x15
 6252 0d62 8C010000 		.4byte	0x18c
 6253 0d66 26000000 		.4byte	.LBB347
 6254 0d6a D8010000 		.4byte	.Ldebug_ranges0+0x1d8
 6255 0d6e 01       		.byte	0x1
 6256 0d6f DA04     		.2byte	0x4da
 6257 0d71 7F0D0000 		.4byte	0xd7f
 6258 0d75 16       		.uleb128 0x16
 6259 0d76 9D010000 		.4byte	0x19d
 6260 0d7a D40B0000 		.4byte	.LLST81
 6261 0d7e 00       		.byte	0
 6262 0d7f 2A       		.uleb128 0x2a
 6263 0d80 8C010000 		.4byte	0x18c
 6264 0d84 36000000 		.4byte	.LBB351
 6265 0d88 F0010000 		.4byte	.Ldebug_ranges0+0x1f0
 6266 0d8c 01       		.byte	0x1
 6267 0d8d E204     		.2byte	0x4e2
 6268 0d8f 16       		.uleb128 0x16
 6269 0d90 9D010000 		.4byte	0x19d
 6270 0d94 E80B0000 		.4byte	.LLST82
 6271 0d98 00       		.byte	0
 6272 0d99 00       		.byte	0
 6273 0d9a 2E       		.uleb128 0x2e
 6274 0d9b 42080000 		.4byte	.LASF87
 6275 0d9f 01       		.byte	0x1
 6276 0da0 0505     		.2byte	0x505
 6277 0da2 00000000 		.4byte	.LFB27
 6278 0da6 34000000 		.4byte	.LFE27-.LFB27
 6279 0daa 01       		.uleb128 0x1
 6280 0dab 9C       		.byte	0x9c
 6281 0dac 370E0000 		.4byte	0xe37
 6282 0db0 28       		.uleb128 0x28
 6283 0db1 D2080000 		.4byte	.LASF88
 6284 0db5 01       		.byte	0x1
 6285 0db6 0505     		.2byte	0x505
 6286 0db8 83000000 		.4byte	0x83
 6287 0dbc FC0B0000 		.4byte	.LLST83
 6288 0dc0 29       		.uleb128 0x29
 6289 0dc1 9A080000 		.4byte	.LASF34
 6290 0dc5 01       		.byte	0x1
 6291 0dc6 0705     		.2byte	0x507
 6292 0dc8 83000000 		.4byte	0x83
ARM GAS  C:\Users\AFDHAL~1\AppData\Local\Temp\cc29CzqQ.s 			page 193


 6293 0dcc 1D0C0000 		.4byte	.LLST84
 6294 0dd0 29       		.uleb128 0x29
 6295 0dd1 4B030000 		.4byte	.LASF89
 6296 0dd5 01       		.byte	0x1
 6297 0dd6 0805     		.2byte	0x508
 6298 0dd8 83000000 		.4byte	0x83
 6299 0ddc 460C0000 		.4byte	.LLST85
 6300 0de0 15       		.uleb128 0x15
 6301 0de1 8C010000 		.4byte	0x18c
 6302 0de5 00000000 		.4byte	.LBB355
 6303 0de9 08020000 		.4byte	.Ldebug_ranges0+0x208
 6304 0ded 01       		.byte	0x1
 6305 0dee 0A05     		.2byte	0x50a
 6306 0df0 FE0D0000 		.4byte	0xdfe
 6307 0df4 16       		.uleb128 0x16
 6308 0df5 9D010000 		.4byte	0x19d
 6309 0df9 690C0000 		.4byte	.LLST86
 6310 0dfd 00       		.byte	0
 6311 0dfe 19       		.uleb128 0x19
 6312 0dff 8C010000 		.4byte	0x18c
 6313 0e03 06000000 		.4byte	.LBB359
 6314 0e07 02000000 		.4byte	.LBE359-.LBB359
 6315 0e0b 01       		.byte	0x1
 6316 0e0c 0B05     		.2byte	0x50b
 6317 0e0e 1C0E0000 		.4byte	0xe1c
 6318 0e12 16       		.uleb128 0x16
 6319 0e13 9D010000 		.4byte	0x19d
 6320 0e17 7D0C0000 		.4byte	.LLST87
 6321 0e1b 00       		.byte	0
 6322 0e1c 1B       		.uleb128 0x1b
 6323 0e1d 8C010000 		.4byte	0x18c
 6324 0e21 08000000 		.4byte	.LBB361
 6325 0e25 02000000 		.4byte	.LBE361-.LBB361
 6326 0e29 01       		.byte	0x1
 6327 0e2a 0C05     		.2byte	0x50c
 6328 0e2c 16       		.uleb128 0x16
 6329 0e2d 9D010000 		.4byte	0x19d
 6330 0e31 910C0000 		.4byte	.LLST88
 6331 0e35 00       		.byte	0
 6332 0e36 00       		.byte	0
 6333 0e37 35       		.uleb128 0x35
 6334 0e38 B1000000 		.4byte	.LASF93
 6335 0e3c 01       		.byte	0x1
 6336 0e3d 2405     		.2byte	0x524
 6337 0e3f 83000000 		.4byte	0x83
 6338 0e43 00000000 		.4byte	.LFB28
 6339 0e47 14000000 		.4byte	.LFE28-.LFB28
 6340 0e4b 01       		.uleb128 0x1
 6341 0e4c 9C       		.byte	0x9c
 6342 0e4d 10       		.uleb128 0x10
 6343 0e4e 86000000 		.4byte	.LASF90
 6344 0e52 01       		.byte	0x1
 6345 0e53 3805     		.2byte	0x538
 6346 0e55 01       		.byte	0x1
 6347 0e56 7F0E0000 		.4byte	0xe7f
 6348 0e5a 0C       		.uleb128 0xc
 6349 0e5b 7B000000 		.4byte	.LASF32
ARM GAS  C:\Users\AFDHAL~1\AppData\Local\Temp\cc29CzqQ.s 			page 194


 6350 0e5f 01       		.byte	0x1
 6351 0e60 3805     		.2byte	0x538
 6352 0e62 83000000 		.4byte	0x83
 6353 0e66 0C       		.uleb128 0xc
 6354 0e67 0E060000 		.4byte	.LASF51
 6355 0e6b 01       		.byte	0x1
 6356 0e6c 3805     		.2byte	0x538
 6357 0e6e 83000000 		.4byte	0x83
 6358 0e72 0D       		.uleb128 0xd
 6359 0e73 42030000 		.4byte	.LASF42
 6360 0e77 01       		.byte	0x1
 6361 0e78 3A05     		.2byte	0x53a
 6362 0e7a 83000000 		.4byte	0x83
 6363 0e7e 00       		.byte	0
 6364 0e7f 32       		.uleb128 0x32
 6365 0e80 4D0E0000 		.4byte	0xe4d
 6366 0e84 00000000 		.4byte	.LFB29
 6367 0e88 48000000 		.4byte	.LFE29-.LFB29
 6368 0e8c 01       		.uleb128 0x1
 6369 0e8d 9C       		.byte	0x9c
 6370 0e8e BC0E0000 		.4byte	0xebc
 6371 0e92 16       		.uleb128 0x16
 6372 0e93 5A0E0000 		.4byte	0xe5a
 6373 0e97 A50C0000 		.4byte	.LLST89
 6374 0e9b 16       		.uleb128 0x16
 6375 0e9c 660E0000 		.4byte	0xe66
 6376 0ea0 D10C0000 		.4byte	.LLST90
 6377 0ea4 22       		.uleb128 0x22
 6378 0ea5 720E0000 		.4byte	0xe72
 6379 0ea9 24       		.uleb128 0x24
 6380 0eaa 18000000 		.4byte	.LVL223
 6381 0eae C11B0000 		.4byte	0x1bc1
 6382 0eb2 24       		.uleb128 0x24
 6383 0eb3 3A000000 		.4byte	.LVL226
 6384 0eb7 C11B0000 		.4byte	0x1bc1
 6385 0ebb 00       		.byte	0
 6386 0ebc 2E       		.uleb128 0x2e
 6387 0ebd 3E050000 		.4byte	.LASF91
 6388 0ec1 01       		.byte	0x1
 6389 0ec2 5F05     		.2byte	0x55f
 6390 0ec4 00000000 		.4byte	.LFB30
 6391 0ec8 2C000000 		.4byte	.LFE30-.LFB30
 6392 0ecc 01       		.uleb128 0x1
 6393 0ecd 9C       		.byte	0x9c
 6394 0ece 0D0F0000 		.4byte	0xf0d
 6395 0ed2 28       		.uleb128 0x28
 6396 0ed3 A4020000 		.4byte	.LASF92
 6397 0ed7 01       		.byte	0x1
 6398 0ed8 5F05     		.2byte	0x55f
 6399 0eda 83000000 		.4byte	0x83
 6400 0ede FD0C0000 		.4byte	.LLST91
 6401 0ee2 29       		.uleb128 0x29
 6402 0ee3 9A080000 		.4byte	.LASF34
 6403 0ee7 01       		.byte	0x1
 6404 0ee8 6105     		.2byte	0x561
 6405 0eea 83000000 		.4byte	0x83
 6406 0eee 1E0D0000 		.4byte	.LLST92
ARM GAS  C:\Users\AFDHAL~1\AppData\Local\Temp\cc29CzqQ.s 			page 195


 6407 0ef2 1B       		.uleb128 0x1b
 6408 0ef3 8C010000 		.4byte	0x18c
 6409 0ef7 00000000 		.4byte	.LBB363
 6410 0efb 04000000 		.4byte	.LBE363-.LBB363
 6411 0eff 01       		.byte	0x1
 6412 0f00 6305     		.2byte	0x563
 6413 0f02 16       		.uleb128 0x16
 6414 0f03 9D010000 		.4byte	0x19d
 6415 0f07 470D0000 		.4byte	.LLST93
 6416 0f0b 00       		.byte	0
 6417 0f0c 00       		.byte	0
 6418 0f0d 35       		.uleb128 0x35
 6419 0f0e F3080000 		.4byte	.LASF94
 6420 0f12 01       		.byte	0x1
 6421 0f13 7605     		.2byte	0x576
 6422 0f15 83000000 		.4byte	0x83
 6423 0f19 00000000 		.4byte	.LFB31
 6424 0f1d 10000000 		.4byte	.LFE31-.LFB31
 6425 0f21 01       		.uleb128 0x1
 6426 0f22 9C       		.byte	0x9c
 6427 0f23 2D       		.uleb128 0x2d
 6428 0f24 FD050000 		.4byte	.LASF95
 6429 0f28 01       		.byte	0x1
 6430 0f29 8805     		.2byte	0x588
 6431 0f2b 83000000 		.4byte	0x83
 6432 0f2f 00000000 		.4byte	.LFB32
 6433 0f33 14000000 		.4byte	.LFE32-.LFB32
 6434 0f37 01       		.uleb128 0x1
 6435 0f38 9C       		.byte	0x9c
 6436 0f39 4E0F0000 		.4byte	0xf4e
 6437 0f3d 28       		.uleb128 0x28
 6438 0f3e 7B000000 		.4byte	.LASF32
 6439 0f42 01       		.byte	0x1
 6440 0f43 8805     		.2byte	0x588
 6441 0f45 83000000 		.4byte	0x83
 6442 0f49 5B0D0000 		.4byte	.LLST94
 6443 0f4d 00       		.byte	0
 6444 0f4e 32       		.uleb128 0x32
 6445 0f4f 2A020000 		.4byte	0x22a
 6446 0f53 00000000 		.4byte	.LFB33
 6447 0f57 30000000 		.4byte	.LFE33-.LFB33
 6448 0f5b 01       		.uleb128 0x1
 6449 0f5c 9C       		.byte	0x9c
 6450 0f5d 740F0000 		.4byte	0xf74
 6451 0f61 16       		.uleb128 0x16
 6452 0f62 3B020000 		.4byte	0x23b
 6453 0f66 7C0D0000 		.4byte	.LLST95
 6454 0f6a 18       		.uleb128 0x18
 6455 0f6b 47020000 		.4byte	0x247
 6456 0f6f E80D0000 		.4byte	.LLST96
 6457 0f73 00       		.byte	0
 6458 0f74 35       		.uleb128 0x35
 6459 0f75 6F070000 		.4byte	.LASF96
 6460 0f79 01       		.byte	0x1
 6461 0f7a C905     		.2byte	0x5c9
 6462 0f7c 83000000 		.4byte	0x83
 6463 0f80 00000000 		.4byte	.LFB34
ARM GAS  C:\Users\AFDHAL~1\AppData\Local\Temp\cc29CzqQ.s 			page 196


 6464 0f84 14000000 		.4byte	.LFE34-.LFB34
 6465 0f88 01       		.uleb128 0x1
 6466 0f89 9C       		.byte	0x9c
 6467 0f8a 10       		.uleb128 0x10
 6468 0f8b 88060000 		.4byte	.LASF97
 6469 0f8f 01       		.byte	0x1
 6470 0f90 E605     		.2byte	0x5e6
 6471 0f92 01       		.byte	0x1
 6472 0f93 BC0F0000 		.4byte	0xfbc
 6473 0f97 0C       		.uleb128 0xc
 6474 0f98 97030000 		.4byte	.LASF39
 6475 0f9c 01       		.byte	0x1
 6476 0f9d E605     		.2byte	0x5e6
 6477 0f9f 83000000 		.4byte	0x83
 6478 0fa3 0D       		.uleb128 0xd
 6479 0fa4 4A020000 		.4byte	.LASF55
 6480 0fa8 01       		.byte	0x1
 6481 0fa9 E805     		.2byte	0x5e8
 6482 0fab 6B000000 		.4byte	0x6b
 6483 0faf 0D       		.uleb128 0xd
 6484 0fb0 A9080000 		.4byte	.LASF98
 6485 0fb4 01       		.byte	0x1
 6486 0fb5 E905     		.2byte	0x5e9
 6487 0fb7 83000000 		.4byte	0x83
 6488 0fbb 00       		.byte	0
 6489 0fbc 32       		.uleb128 0x32
 6490 0fbd 8A0F0000 		.4byte	0xf8a
 6491 0fc1 00000000 		.4byte	.LFB35
 6492 0fc5 8C000000 		.4byte	.LFE35-.LFB35
 6493 0fc9 01       		.uleb128 0x1
 6494 0fca 9C       		.byte	0x9c
 6495 0fcb 88100000 		.4byte	0x1088
 6496 0fcf 16       		.uleb128 0x16
 6497 0fd0 970F0000 		.4byte	0xf97
 6498 0fd4 4C0E0000 		.4byte	.LLST97
 6499 0fd8 18       		.uleb128 0x18
 6500 0fd9 A30F0000 		.4byte	0xfa3
 6501 0fdd A60E0000 		.4byte	.LLST98
 6502 0fe1 18       		.uleb128 0x18
 6503 0fe2 AF0F0000 		.4byte	0xfaf
 6504 0fe6 C40E0000 		.4byte	.LLST99
 6505 0fea 2F       		.uleb128 0x2f
 6506 0feb FF010000 		.4byte	0x1ff
 6507 0fef 02000000 		.4byte	.LBB373
 6508 0ff3 20020000 		.4byte	.Ldebug_ranges0+0x220
 6509 0ff7 01       		.byte	0x1
 6510 0ff8 ED05     		.2byte	0x5ed
 6511 0ffa 19       		.uleb128 0x19
 6512 0ffb 450B0000 		.4byte	0xb45
 6513 0fff 16000000 		.4byte	.LBB379
 6514 1003 22000000 		.4byte	.LBE379-.LBB379
 6515 1007 01       		.byte	0x1
 6516 1008 F005     		.2byte	0x5f0
 6517 100a 34100000 		.4byte	0x1034
 6518 100e 1A       		.uleb128 0x1a
 6519 100f 16000000 		.4byte	.LBB380
 6520 1013 22000000 		.4byte	.LBE380-.LBB380
ARM GAS  C:\Users\AFDHAL~1\AppData\Local\Temp\cc29CzqQ.s 			page 197


 6521 1017 18       		.uleb128 0x18
 6522 1018 520B0000 		.4byte	0xb52
 6523 101c E40E0000 		.4byte	.LLST100
 6524 1020 24       		.uleb128 0x24
 6525 1021 1A000000 		.4byte	.LVL251
 6526 1025 AB1B0000 		.4byte	0x1bab
 6527 1029 24       		.uleb128 0x24
 6528 102a 38000000 		.4byte	.LVL252
 6529 102e B61B0000 		.4byte	0x1bb6
 6530 1032 00       		.byte	0
 6531 1033 00       		.byte	0
 6532 1034 19       		.uleb128 0x19
 6533 1035 FC0A0000 		.4byte	0xafc
 6534 1039 4C000000 		.4byte	.LBB381
 6535 103d 0E000000 		.4byte	.LBE381-.LBB381
 6536 1041 01       		.byte	0x1
 6537 1042 0706     		.2byte	0x607
 6538 1044 6E100000 		.4byte	0x106e
 6539 1048 1A       		.uleb128 0x1a
 6540 1049 4C000000 		.4byte	.LBB382
 6541 104d 0E000000 		.4byte	.LBE382-.LBB382
 6542 1051 18       		.uleb128 0x18
 6543 1052 090B0000 		.4byte	0xb09
 6544 1056 F70E0000 		.4byte	.LLST101
 6545 105a 24       		.uleb128 0x24
 6546 105b 50000000 		.4byte	.LVL255
 6547 105f AB1B0000 		.4byte	0x1bab
 6548 1063 24       		.uleb128 0x24
 6549 1064 5A000000 		.4byte	.LVL256
 6550 1068 B61B0000 		.4byte	0x1bb6
 6551 106c 00       		.byte	0
 6552 106d 00       		.byte	0
 6553 106e 24       		.uleb128 0x24
 6554 106f 0A000000 		.4byte	.LVL248
 6555 1073 AB1B0000 		.4byte	0x1bab
 6556 1077 25       		.uleb128 0x25
 6557 1078 60000000 		.4byte	.LVL257
 6558 107c B61B0000 		.4byte	0x1bb6
 6559 1080 26       		.uleb128 0x26
 6560 1081 01       		.uleb128 0x1
 6561 1082 50       		.byte	0x50
 6562 1083 02       		.uleb128 0x2
 6563 1084 75       		.byte	0x75
 6564 1085 00       		.sleb128 0
 6565 1086 00       		.byte	0
 6566 1087 00       		.byte	0
 6567 1088 32       		.uleb128 0x32
 6568 1089 7F020000 		.4byte	0x27f
 6569 108d 00000000 		.4byte	.LFB36
 6570 1091 1C000000 		.4byte	.LFE36-.LFB36
 6571 1095 01       		.uleb128 0x1
 6572 1096 9C       		.byte	0x9c
 6573 1097 A5100000 		.4byte	0x10a5
 6574 109b 16       		.uleb128 0x16
 6575 109c 8C020000 		.4byte	0x28c
 6576 10a0 0A0F0000 		.4byte	.LLST102
 6577 10a4 00       		.byte	0
ARM GAS  C:\Users\AFDHAL~1\AppData\Local\Temp\cc29CzqQ.s 			page 198


 6578 10a5 2D       		.uleb128 0x2d
 6579 10a6 7A030000 		.4byte	.LASF99
 6580 10aa 01       		.byte	0x1
 6581 10ab 3A06     		.2byte	0x63a
 6582 10ad FD000000 		.4byte	0xfd
 6583 10b1 00000000 		.4byte	.LFB37
 6584 10b5 18000000 		.4byte	.LFE37-.LFB37
 6585 10b9 01       		.uleb128 0x1
 6586 10ba 9C       		.byte	0x9c
 6587 10bb EE100000 		.4byte	0x10ee
 6588 10bf 28       		.uleb128 0x28
 6589 10c0 7B000000 		.4byte	.LASF32
 6590 10c4 01       		.byte	0x1
 6591 10c5 3A06     		.2byte	0x63a
 6592 10c7 83000000 		.4byte	0x83
 6593 10cb 2B0F0000 		.4byte	.LLST103
 6594 10cf 34       		.uleb128 0x34
 6595 10d0 41020000 		.4byte	.LASF100
 6596 10d4 01       		.byte	0x1
 6597 10d5 3A06     		.2byte	0x63a
 6598 10d7 FD000000 		.4byte	0xfd
 6599 10db 01       		.uleb128 0x1
 6600 10dc 51       		.byte	0x51
 6601 10dd 29       		.uleb128 0x29
 6602 10de 35030000 		.4byte	.LASF101
 6603 10e2 01       		.byte	0x1
 6604 10e3 3C06     		.2byte	0x63c
 6605 10e5 FD000000 		.4byte	0xfd
 6606 10e9 650F0000 		.4byte	.LLST104
 6607 10ed 00       		.byte	0
 6608 10ee 2D       		.uleb128 0x2d
 6609 10ef EB040000 		.4byte	.LASF102
 6610 10f3 01       		.byte	0x1
 6611 10f4 5806     		.2byte	0x658
 6612 10f6 FD000000 		.4byte	0xfd
 6613 10fa 00000000 		.4byte	.LFB38
 6614 10fe 18000000 		.4byte	.LFE38-.LFB38
 6615 1102 01       		.uleb128 0x1
 6616 1103 9C       		.byte	0x9c
 6617 1104 29110000 		.4byte	0x1129
 6618 1108 28       		.uleb128 0x28
 6619 1109 7B000000 		.4byte	.LASF32
 6620 110d 01       		.byte	0x1
 6621 110e 5806     		.2byte	0x658
 6622 1110 83000000 		.4byte	0x83
 6623 1114 900F0000 		.4byte	.LLST105
 6624 1118 29       		.uleb128 0x29
 6625 1119 4B040000 		.4byte	.LASF103
 6626 111d 01       		.byte	0x1
 6627 111e 5A06     		.2byte	0x65a
 6628 1120 FD000000 		.4byte	0xfd
 6629 1124 CA0F0000 		.4byte	.LLST106
 6630 1128 00       		.byte	0
 6631 1129 2E       		.uleb128 0x2e
 6632 112a 9D040000 		.4byte	.LASF104
 6633 112e 01       		.byte	0x1
 6634 112f 7506     		.2byte	0x675
ARM GAS  C:\Users\AFDHAL~1\AppData\Local\Temp\cc29CzqQ.s 			page 199


 6635 1131 00000000 		.4byte	.LFB39
 6636 1135 28000000 		.4byte	.LFE39-.LFB39
 6637 1139 01       		.uleb128 0x1
 6638 113a 9C       		.byte	0x9c
 6639 113b 50110000 		.4byte	0x1150
 6640 113f 28       		.uleb128 0x28
 6641 1140 7B000000 		.4byte	.LASF32
 6642 1144 01       		.byte	0x1
 6643 1145 7506     		.2byte	0x675
 6644 1147 83000000 		.4byte	0x83
 6645 114b F50F0000 		.4byte	.LLST107
 6646 114f 00       		.byte	0
 6647 1150 2E       		.uleb128 0x2e
 6648 1151 E4070000 		.4byte	.LASF105
 6649 1155 01       		.byte	0x1
 6650 1156 8C06     		.2byte	0x68c
 6651 1158 00000000 		.4byte	.LFB40
 6652 115c 1C000000 		.4byte	.LFE40-.LFB40
 6653 1160 01       		.uleb128 0x1
 6654 1161 9C       		.byte	0x9c
 6655 1162 77110000 		.4byte	0x1177
 6656 1166 28       		.uleb128 0x28
 6657 1167 7B000000 		.4byte	.LASF32
 6658 116b 01       		.byte	0x1
 6659 116c 8C06     		.2byte	0x68c
 6660 116e 83000000 		.4byte	0x83
 6661 1172 16100000 		.4byte	.LLST108
 6662 1176 00       		.byte	0
 6663 1177 36       		.uleb128 0x36
 6664 1178 E7080000 		.4byte	.LASF106
 6665 117c 01       		.byte	0x1
 6666 117d AD06     		.2byte	0x6ad
 6667 117f 00000000 		.4byte	.LFB41
 6668 1183 E4010000 		.4byte	.LFE41-.LFB41
 6669 1187 01       		.uleb128 0x1
 6670 1188 9C       		.byte	0x9c
 6671 1189 03140000 		.4byte	0x1403
 6672 118d 15       		.uleb128 0x15
 6673 118e 8A0F0000 		.4byte	0xf8a
 6674 1192 2E000000 		.4byte	.LBB407
 6675 1196 40020000 		.4byte	.Ldebug_ranges0+0x240
 6676 119a 01       		.byte	0x1
 6677 119b BA06     		.2byte	0x6ba
 6678 119d 60120000 		.4byte	0x1260
 6679 11a1 16       		.uleb128 0x16
 6680 11a2 970F0000 		.4byte	0xf97
 6681 11a6 37100000 		.4byte	.LLST109
 6682 11aa 17       		.uleb128 0x17
 6683 11ab 40020000 		.4byte	.Ldebug_ranges0+0x240
 6684 11af 18       		.uleb128 0x18
 6685 11b0 A30F0000 		.4byte	0xfa3
 6686 11b4 57100000 		.4byte	.LLST110
 6687 11b8 18       		.uleb128 0x18
 6688 11b9 AF0F0000 		.4byte	0xfaf
 6689 11bd 75100000 		.4byte	.LLST111
 6690 11c1 2F       		.uleb128 0x2f
 6691 11c2 FF010000 		.4byte	0x1ff
ARM GAS  C:\Users\AFDHAL~1\AppData\Local\Temp\cc29CzqQ.s 			page 200


 6692 11c6 2E000000 		.4byte	.LBB409
 6693 11ca 58020000 		.4byte	.Ldebug_ranges0+0x258
 6694 11ce 01       		.byte	0x1
 6695 11cf ED05     		.2byte	0x5ed
 6696 11d1 19       		.uleb128 0x19
 6697 11d2 450B0000 		.4byte	0xb45
 6698 11d6 84010000 		.4byte	.LBB415
 6699 11da 22000000 		.4byte	.LBE415-.LBB415
 6700 11de 01       		.byte	0x1
 6701 11df F005     		.2byte	0x5f0
 6702 11e1 0B120000 		.4byte	0x120b
 6703 11e5 1A       		.uleb128 0x1a
 6704 11e6 84010000 		.4byte	.LBB416
 6705 11ea 22000000 		.4byte	.LBE416-.LBB416
 6706 11ee 18       		.uleb128 0x18
 6707 11ef 520B0000 		.4byte	0xb52
 6708 11f3 95100000 		.4byte	.LLST112
 6709 11f7 24       		.uleb128 0x24
 6710 11f8 88010000 		.4byte	.LVL309
 6711 11fc AB1B0000 		.4byte	0x1bab
 6712 1200 24       		.uleb128 0x24
 6713 1201 A6010000 		.4byte	.LVL310
 6714 1205 B61B0000 		.4byte	0x1bb6
 6715 1209 00       		.byte	0
 6716 120a 00       		.byte	0
 6717 120b 19       		.uleb128 0x19
 6718 120c FC0A0000 		.4byte	0xafc
 6719 1210 B6010000 		.4byte	.LBB417
 6720 1214 2E000000 		.4byte	.LBE417-.LBB417
 6721 1218 01       		.byte	0x1
 6722 1219 0706     		.2byte	0x607
 6723 121b 45120000 		.4byte	0x1245
 6724 121f 1A       		.uleb128 0x1a
 6725 1220 B6010000 		.4byte	.LBB418
 6726 1224 2E000000 		.4byte	.LBE418-.LBB418
 6727 1228 18       		.uleb128 0x18
 6728 1229 090B0000 		.4byte	0xb09
 6729 122d A8100000 		.4byte	.LLST113
 6730 1231 24       		.uleb128 0x24
 6731 1232 BA010000 		.4byte	.LVL312
 6732 1236 AB1B0000 		.4byte	0x1bab
 6733 123a 24       		.uleb128 0x24
 6734 123b C4010000 		.4byte	.LVL313
 6735 123f B61B0000 		.4byte	0x1bb6
 6736 1243 00       		.byte	0
 6737 1244 00       		.byte	0
 6738 1245 24       		.uleb128 0x24
 6739 1246 34000000 		.4byte	.LVL279
 6740 124a AB1B0000 		.4byte	0x1bab
 6741 124e 25       		.uleb128 0x25
 6742 124f 58000000 		.4byte	.LVL283
 6743 1253 B61B0000 		.4byte	0x1bb6
 6744 1257 26       		.uleb128 0x26
 6745 1258 01       		.uleb128 0x1
 6746 1259 50       		.byte	0x50
 6747 125a 02       		.uleb128 0x2
 6748 125b 76       		.byte	0x76
ARM GAS  C:\Users\AFDHAL~1\AppData\Local\Temp\cc29CzqQ.s 			page 201


 6749 125c 00       		.sleb128 0
 6750 125d 00       		.byte	0
 6751 125e 00       		.byte	0
 6752 125f 00       		.byte	0
 6753 1260 15       		.uleb128 0x15
 6754 1261 8A0F0000 		.4byte	0xf8a
 6755 1265 88000000 		.4byte	.LBB420
 6756 1269 78020000 		.4byte	.Ldebug_ranges0+0x278
 6757 126d 01       		.byte	0x1
 6758 126e C806     		.2byte	0x6c8
 6759 1270 33130000 		.4byte	0x1333
 6760 1274 16       		.uleb128 0x16
 6761 1275 970F0000 		.4byte	0xf97
 6762 1279 BB100000 		.4byte	.LLST114
 6763 127d 17       		.uleb128 0x17
 6764 127e 78020000 		.4byte	.Ldebug_ranges0+0x278
 6765 1282 18       		.uleb128 0x18
 6766 1283 A30F0000 		.4byte	0xfa3
 6767 1287 DF100000 		.4byte	.LLST115
 6768 128b 18       		.uleb128 0x18
 6769 128c AF0F0000 		.4byte	0xfaf
 6770 1290 FD100000 		.4byte	.LLST116
 6771 1294 2F       		.uleb128 0x2f
 6772 1295 FF010000 		.4byte	0x1ff
 6773 1299 88000000 		.4byte	.LBB422
 6774 129d 90020000 		.4byte	.Ldebug_ranges0+0x290
 6775 12a1 01       		.byte	0x1
 6776 12a2 ED05     		.2byte	0x5ed
 6777 12a4 19       		.uleb128 0x19
 6778 12a5 450B0000 		.4byte	0xb45
 6779 12a9 40010000 		.4byte	.LBB428
 6780 12ad 22000000 		.4byte	.LBE428-.LBB428
 6781 12b1 01       		.byte	0x1
 6782 12b2 F005     		.2byte	0x5f0
 6783 12b4 DE120000 		.4byte	0x12de
 6784 12b8 1A       		.uleb128 0x1a
 6785 12b9 40010000 		.4byte	.LBB429
 6786 12bd 22000000 		.4byte	.LBE429-.LBB429
 6787 12c1 18       		.uleb128 0x18
 6788 12c2 520B0000 		.4byte	0xb52
 6789 12c6 1D110000 		.4byte	.LLST117
 6790 12ca 24       		.uleb128 0x24
 6791 12cb 44010000 		.4byte	.LVL303
 6792 12cf AB1B0000 		.4byte	0x1bab
 6793 12d3 24       		.uleb128 0x24
 6794 12d4 62010000 		.4byte	.LVL304
 6795 12d8 B61B0000 		.4byte	0x1bb6
 6796 12dc 00       		.byte	0
 6797 12dd 00       		.byte	0
 6798 12de 19       		.uleb128 0x19
 6799 12df FC0A0000 		.4byte	0xafc
 6800 12e3 74010000 		.4byte	.LBB430
 6801 12e7 10000000 		.4byte	.LBE430-.LBB430
 6802 12eb 01       		.byte	0x1
 6803 12ec 0706     		.2byte	0x607
 6804 12ee 18130000 		.4byte	0x1318
 6805 12f2 1A       		.uleb128 0x1a
ARM GAS  C:\Users\AFDHAL~1\AppData\Local\Temp\cc29CzqQ.s 			page 202


 6806 12f3 74010000 		.4byte	.LBB431
 6807 12f7 10000000 		.4byte	.LBE431-.LBB431
 6808 12fb 18       		.uleb128 0x18
 6809 12fc 090B0000 		.4byte	0xb09
 6810 1300 30110000 		.4byte	.LLST118
 6811 1304 24       		.uleb128 0x24
 6812 1305 78010000 		.4byte	.LVL306
 6813 1309 AB1B0000 		.4byte	0x1bab
 6814 130d 24       		.uleb128 0x24
 6815 130e 82010000 		.4byte	.LVL307
 6816 1312 B61B0000 		.4byte	0x1bb6
 6817 1316 00       		.byte	0
 6818 1317 00       		.byte	0
 6819 1318 24       		.uleb128 0x24
 6820 1319 8E000000 		.4byte	.LVL285
 6821 131d AB1B0000 		.4byte	0x1bab
 6822 1321 25       		.uleb128 0x25
 6823 1322 B2000000 		.4byte	.LVL289
 6824 1326 B61B0000 		.4byte	0x1bb6
 6825 132a 26       		.uleb128 0x26
 6826 132b 01       		.uleb128 0x1
 6827 132c 50       		.byte	0x50
 6828 132d 02       		.uleb128 0x2
 6829 132e 75       		.byte	0x75
 6830 132f 00       		.sleb128 0
 6831 1330 00       		.byte	0
 6832 1331 00       		.byte	0
 6833 1332 00       		.byte	0
 6834 1333 2A       		.uleb128 0x2a
 6835 1334 8A0F0000 		.4byte	0xf8a
 6836 1338 D0000000 		.4byte	.LBB433
 6837 133c B0020000 		.4byte	.Ldebug_ranges0+0x2b0
 6838 1340 01       		.byte	0x1
 6839 1341 D406     		.2byte	0x6d4
 6840 1343 16       		.uleb128 0x16
 6841 1344 970F0000 		.4byte	0xf97
 6842 1348 43110000 		.4byte	.LLST119
 6843 134c 17       		.uleb128 0x17
 6844 134d B0020000 		.4byte	.Ldebug_ranges0+0x2b0
 6845 1351 18       		.uleb128 0x18
 6846 1352 A30F0000 		.4byte	0xfa3
 6847 1356 67110000 		.4byte	.LLST120
 6848 135a 18       		.uleb128 0x18
 6849 135b AF0F0000 		.4byte	0xfaf
 6850 135f 85110000 		.4byte	.LLST121
 6851 1363 2F       		.uleb128 0x2f
 6852 1364 FF010000 		.4byte	0x1ff
 6853 1368 D0000000 		.4byte	.LBB435
 6854 136c C8020000 		.4byte	.Ldebug_ranges0+0x2c8
 6855 1370 01       		.byte	0x1
 6856 1371 ED05     		.2byte	0x5ed
 6857 1373 19       		.uleb128 0x19
 6858 1374 450B0000 		.4byte	0xb45
 6859 1378 FC000000 		.4byte	.LBB441
 6860 137c 22000000 		.4byte	.LBE441-.LBB441
 6861 1380 01       		.byte	0x1
 6862 1381 F005     		.2byte	0x5f0
ARM GAS  C:\Users\AFDHAL~1\AppData\Local\Temp\cc29CzqQ.s 			page 203


 6863 1383 AD130000 		.4byte	0x13ad
 6864 1387 1A       		.uleb128 0x1a
 6865 1388 FC000000 		.4byte	.LBB442
 6866 138c 22000000 		.4byte	.LBE442-.LBB442
 6867 1390 18       		.uleb128 0x18
 6868 1391 520B0000 		.4byte	0xb52
 6869 1395 A5110000 		.4byte	.LLST122
 6870 1399 24       		.uleb128 0x24
 6871 139a 00010000 		.4byte	.LVL297
 6872 139e AB1B0000 		.4byte	0x1bab
 6873 13a2 24       		.uleb128 0x24
 6874 13a3 1E010000 		.4byte	.LVL298
 6875 13a7 B61B0000 		.4byte	0x1bb6
 6876 13ab 00       		.byte	0
 6877 13ac 00       		.byte	0
 6878 13ad 19       		.uleb128 0x19
 6879 13ae FC0A0000 		.4byte	0xafc
 6880 13b2 30010000 		.4byte	.LBB443
 6881 13b6 10000000 		.4byte	.LBE443-.LBB443
 6882 13ba 01       		.byte	0x1
 6883 13bb 0706     		.2byte	0x607
 6884 13bd E7130000 		.4byte	0x13e7
 6885 13c1 1A       		.uleb128 0x1a
 6886 13c2 30010000 		.4byte	.LBB444
 6887 13c6 10000000 		.4byte	.LBE444-.LBB444
 6888 13ca 18       		.uleb128 0x18
 6889 13cb 090B0000 		.4byte	0xb09
 6890 13cf B8110000 		.4byte	.LLST123
 6891 13d3 24       		.uleb128 0x24
 6892 13d4 34010000 		.4byte	.LVL300
 6893 13d8 AB1B0000 		.4byte	0x1bab
 6894 13dc 24       		.uleb128 0x24
 6895 13dd 3E010000 		.4byte	.LVL301
 6896 13e1 B61B0000 		.4byte	0x1bb6
 6897 13e5 00       		.byte	0
 6898 13e6 00       		.byte	0
 6899 13e7 24       		.uleb128 0x24
 6900 13e8 D6000000 		.4byte	.LVL291
 6901 13ec AB1B0000 		.4byte	0x1bab
 6902 13f0 25       		.uleb128 0x25
 6903 13f1 FA000000 		.4byte	.LVL295
 6904 13f5 B61B0000 		.4byte	0x1bb6
 6905 13f9 26       		.uleb128 0x26
 6906 13fa 01       		.uleb128 0x1
 6907 13fb 50       		.byte	0x50
 6908 13fc 02       		.uleb128 0x2
 6909 13fd 75       		.byte	0x75
 6910 13fe 00       		.sleb128 0
 6911 13ff 00       		.byte	0
 6912 1400 00       		.byte	0
 6913 1401 00       		.byte	0
 6914 1402 00       		.byte	0
 6915 1403 2E       		.uleb128 0x2e
 6916 1404 63050000 		.4byte	.LASF107
 6917 1408 01       		.byte	0x1
 6918 1409 EE06     		.2byte	0x6ee
 6919 140b 00000000 		.4byte	.LFB42
ARM GAS  C:\Users\AFDHAL~1\AppData\Local\Temp\cc29CzqQ.s 			page 204


 6920 140f 2C020000 		.4byte	.LFE42-.LFB42
 6921 1413 01       		.uleb128 0x1
 6922 1414 9C       		.byte	0x9c
 6923 1415 1A180000 		.4byte	0x181a
 6924 1419 28       		.uleb128 0x28
 6925 141a 7B000000 		.4byte	.LASF32
 6926 141e 01       		.byte	0x1
 6927 141f EE06     		.2byte	0x6ee
 6928 1421 83000000 		.4byte	0x83
 6929 1425 CB110000 		.4byte	.LLST124
 6930 1429 19       		.uleb128 0x19
 6931 142a 0C020000 		.4byte	0x20c
 6932 142e 08000000 		.4byte	.LBB493
 6933 1432 04000000 		.4byte	.LBE493-.LBB493
 6934 1436 01       		.byte	0x1
 6935 1437 F206     		.2byte	0x6f2
 6936 1439 47140000 		.4byte	0x1447
 6937 143d 16       		.uleb128 0x16
 6938 143e 1D020000 		.4byte	0x21d
 6939 1442 50120000 		.4byte	.LLST125
 6940 1446 00       		.byte	0
 6941 1447 19       		.uleb128 0x19
 6942 1448 0C020000 		.4byte	0x20c
 6943 144c 14000000 		.4byte	.LBB495
 6944 1450 02000000 		.4byte	.LBE495-.LBB495
 6945 1454 01       		.byte	0x1
 6946 1455 F606     		.2byte	0x6f6
 6947 1457 65140000 		.4byte	0x1465
 6948 145b 16       		.uleb128 0x16
 6949 145c 1D020000 		.4byte	0x21d
 6950 1460 64120000 		.4byte	.LLST126
 6951 1464 00       		.byte	0
 6952 1465 19       		.uleb128 0x19
 6953 1466 0C020000 		.4byte	0x20c
 6954 146a 24000000 		.4byte	.LBB497
 6955 146e 04000000 		.4byte	.LBE497-.LBB497
 6956 1472 01       		.byte	0x1
 6957 1473 0207     		.2byte	0x702
 6958 1475 83140000 		.4byte	0x1483
 6959 1479 16       		.uleb128 0x16
 6960 147a 1D020000 		.4byte	0x21d
 6961 147e 78120000 		.4byte	.LLST127
 6962 1482 00       		.byte	0
 6963 1483 19       		.uleb128 0x19
 6964 1484 0C020000 		.4byte	0x20c
 6965 1488 32000000 		.4byte	.LBB499
 6966 148c 02000000 		.4byte	.LBE499-.LBB499
 6967 1490 01       		.byte	0x1
 6968 1491 0607     		.2byte	0x706
 6969 1493 A1140000 		.4byte	0x14a1
 6970 1497 16       		.uleb128 0x16
 6971 1498 1D020000 		.4byte	0x21d
 6972 149c 8C120000 		.4byte	.LLST128
 6973 14a0 00       		.byte	0
 6974 14a1 19       		.uleb128 0x19
 6975 14a2 7F020000 		.4byte	0x27f
 6976 14a6 3C000000 		.4byte	.LBB501
ARM GAS  C:\Users\AFDHAL~1\AppData\Local\Temp\cc29CzqQ.s 			page 205


 6977 14aa 16000000 		.4byte	.LBE501-.LBB501
 6978 14ae 01       		.byte	0x1
 6979 14af 0807     		.2byte	0x708
 6980 14b1 BF140000 		.4byte	0x14bf
 6981 14b5 16       		.uleb128 0x16
 6982 14b6 8C020000 		.4byte	0x28c
 6983 14ba A0120000 		.4byte	.LLST129
 6984 14be 00       		.byte	0
 6985 14bf 15       		.uleb128 0x15
 6986 14c0 8A0F0000 		.4byte	0xf8a
 6987 14c4 52000000 		.4byte	.LBB503
 6988 14c8 E8020000 		.4byte	.Ldebug_ranges0+0x2e8
 6989 14cc 01       		.byte	0x1
 6990 14cd 0907     		.2byte	0x709
 6991 14cf 92150000 		.4byte	0x1592
 6992 14d3 16       		.uleb128 0x16
 6993 14d4 970F0000 		.4byte	0xf97
 6994 14d8 B6120000 		.4byte	.LLST130
 6995 14dc 17       		.uleb128 0x17
 6996 14dd E8020000 		.4byte	.Ldebug_ranges0+0x2e8
 6997 14e1 18       		.uleb128 0x18
 6998 14e2 A30F0000 		.4byte	0xfa3
 6999 14e6 DA120000 		.4byte	.LLST131
 7000 14ea 18       		.uleb128 0x18
 7001 14eb AF0F0000 		.4byte	0xfaf
 7002 14ef F8120000 		.4byte	.LLST132
 7003 14f3 2F       		.uleb128 0x2f
 7004 14f4 FF010000 		.4byte	0x1ff
 7005 14f8 52000000 		.4byte	.LBB505
 7006 14fc 08030000 		.4byte	.Ldebug_ranges0+0x308
 7007 1500 01       		.byte	0x1
 7008 1501 ED05     		.2byte	0x5ed
 7009 1503 19       		.uleb128 0x19
 7010 1504 450B0000 		.4byte	0xb45
 7011 1508 66000000 		.4byte	.LBB511
 7012 150c 22000000 		.4byte	.LBE511-.LBB511
 7013 1510 01       		.byte	0x1
 7014 1511 F005     		.2byte	0x5f0
 7015 1513 3D150000 		.4byte	0x153d
 7016 1517 1A       		.uleb128 0x1a
 7017 1518 66000000 		.4byte	.LBB512
 7018 151c 22000000 		.4byte	.LBE512-.LBB512
 7019 1520 18       		.uleb128 0x18
 7020 1521 520B0000 		.4byte	0xb52
 7021 1525 18130000 		.4byte	.LLST133
 7022 1529 24       		.uleb128 0x24
 7023 152a 6A000000 		.4byte	.LVL330
 7024 152e AB1B0000 		.4byte	0x1bab
 7025 1532 24       		.uleb128 0x24
 7026 1533 88000000 		.4byte	.LVL331
 7027 1537 B61B0000 		.4byte	0x1bb6
 7028 153b 00       		.byte	0
 7029 153c 00       		.byte	0
 7030 153d 19       		.uleb128 0x19
 7031 153e FC0A0000 		.4byte	0xafc
 7032 1542 98000000 		.4byte	.LBB513
 7033 1546 10000000 		.4byte	.LBE513-.LBB513
ARM GAS  C:\Users\AFDHAL~1\AppData\Local\Temp\cc29CzqQ.s 			page 206


 7034 154a 01       		.byte	0x1
 7035 154b 0706     		.2byte	0x607
 7036 154d 77150000 		.4byte	0x1577
 7037 1551 1A       		.uleb128 0x1a
 7038 1552 98000000 		.4byte	.LBB514
 7039 1556 10000000 		.4byte	.LBE514-.LBB514
 7040 155a 18       		.uleb128 0x18
 7041 155b 090B0000 		.4byte	0xb09
 7042 155f 2B130000 		.4byte	.LLST134
 7043 1563 24       		.uleb128 0x24
 7044 1564 9C000000 		.4byte	.LVL333
 7045 1568 AB1B0000 		.4byte	0x1bab
 7046 156c 24       		.uleb128 0x24
 7047 156d A6000000 		.4byte	.LVL334
 7048 1571 B61B0000 		.4byte	0x1bb6
 7049 1575 00       		.byte	0
 7050 1576 00       		.byte	0
 7051 1577 24       		.uleb128 0x24
 7052 1578 58000000 		.4byte	.LVL327
 7053 157c AB1B0000 		.4byte	0x1bab
 7054 1580 25       		.uleb128 0x25
 7055 1581 7C010000 		.4byte	.LVL356
 7056 1585 B61B0000 		.4byte	0x1bb6
 7057 1589 26       		.uleb128 0x26
 7058 158a 01       		.uleb128 0x1
 7059 158b 50       		.byte	0x50
 7060 158c 02       		.uleb128 0x2
 7061 158d 76       		.byte	0x76
 7062 158e 00       		.sleb128 0
 7063 158f 00       		.byte	0
 7064 1590 00       		.byte	0
 7065 1591 00       		.byte	0
 7066 1592 19       		.uleb128 0x19
 7067 1593 7F020000 		.4byte	0x27f
 7068 1597 A8000000 		.4byte	.LBB517
 7069 159b 14000000 		.4byte	.LBE517-.LBB517
 7070 159f 01       		.byte	0x1
 7071 15a0 F806     		.2byte	0x6f8
 7072 15a2 B0150000 		.4byte	0x15b0
 7073 15a6 16       		.uleb128 0x16
 7074 15a7 8C020000 		.4byte	0x28c
 7075 15ab 3E130000 		.4byte	.LLST135
 7076 15af 00       		.byte	0
 7077 15b0 19       		.uleb128 0x19
 7078 15b1 8A0F0000 		.4byte	0xf8a
 7079 15b5 BC000000 		.4byte	.LBB519
 7080 15b9 68000000 		.4byte	.LBE519-.LBB519
 7081 15bd 01       		.byte	0x1
 7082 15be F906     		.2byte	0x6f9
 7083 15c0 87160000 		.4byte	0x1687
 7084 15c4 16       		.uleb128 0x16
 7085 15c5 970F0000 		.4byte	0xf97
 7086 15c9 52130000 		.4byte	.LLST136
 7087 15cd 1A       		.uleb128 0x1a
 7088 15ce BC000000 		.4byte	.LBB520
 7089 15d2 68000000 		.4byte	.LBE520-.LBB520
 7090 15d6 18       		.uleb128 0x18
ARM GAS  C:\Users\AFDHAL~1\AppData\Local\Temp\cc29CzqQ.s 			page 207


 7091 15d7 A30F0000 		.4byte	0xfa3
 7092 15db 66130000 		.4byte	.LLST137
 7093 15df 18       		.uleb128 0x18
 7094 15e0 AF0F0000 		.4byte	0xfaf
 7095 15e4 79130000 		.4byte	.LLST138
 7096 15e8 2F       		.uleb128 0x2f
 7097 15e9 FF010000 		.4byte	0x1ff
 7098 15ed BC000000 		.4byte	.LBB521
 7099 15f1 28030000 		.4byte	.Ldebug_ranges0+0x328
 7100 15f5 01       		.byte	0x1
 7101 15f6 ED05     		.2byte	0x5ed
 7102 15f8 19       		.uleb128 0x19
 7103 15f9 450B0000 		.4byte	0xb45
 7104 15fd CE000000 		.4byte	.LBB527
 7105 1601 22000000 		.4byte	.LBE527-.LBB527
 7106 1605 01       		.byte	0x1
 7107 1606 F005     		.2byte	0x5f0
 7108 1608 32160000 		.4byte	0x1632
 7109 160c 1A       		.uleb128 0x1a
 7110 160d CE000000 		.4byte	.LBB528
 7111 1611 22000000 		.4byte	.LBE528-.LBB528
 7112 1615 18       		.uleb128 0x18
 7113 1616 520B0000 		.4byte	0xb52
 7114 161a 99130000 		.4byte	.LLST139
 7115 161e 24       		.uleb128 0x24
 7116 161f D2000000 		.4byte	.LVL340
 7117 1623 AB1B0000 		.4byte	0x1bab
 7118 1627 24       		.uleb128 0x24
 7119 1628 F0000000 		.4byte	.LVL341
 7120 162c B61B0000 		.4byte	0x1bb6
 7121 1630 00       		.byte	0
 7122 1631 00       		.byte	0
 7123 1632 19       		.uleb128 0x19
 7124 1633 FC0A0000 		.4byte	0xafc
 7125 1637 FE000000 		.4byte	.LBB529
 7126 163b 0E000000 		.4byte	.LBE529-.LBB529
 7127 163f 01       		.byte	0x1
 7128 1640 0706     		.2byte	0x607
 7129 1642 6C160000 		.4byte	0x166c
 7130 1646 1A       		.uleb128 0x1a
 7131 1647 FE000000 		.4byte	.LBB530
 7132 164b 0E000000 		.4byte	.LBE530-.LBB530
 7133 164f 18       		.uleb128 0x18
 7134 1650 090B0000 		.4byte	0xb09
 7135 1654 AC130000 		.4byte	.LLST140
 7136 1658 24       		.uleb128 0x24
 7137 1659 02010000 		.4byte	.LVL343
 7138 165d AB1B0000 		.4byte	0x1bab
 7139 1661 24       		.uleb128 0x24
 7140 1662 0C010000 		.4byte	.LVL344
 7141 1666 B61B0000 		.4byte	0x1bb6
 7142 166a 00       		.byte	0
 7143 166b 00       		.byte	0
 7144 166c 24       		.uleb128 0x24
 7145 166d C2000000 		.4byte	.LVL337
 7146 1671 AB1B0000 		.4byte	0x1bab
 7147 1675 25       		.uleb128 0x25
ARM GAS  C:\Users\AFDHAL~1\AppData\Local\Temp\cc29CzqQ.s 			page 208


 7148 1676 12010000 		.4byte	.LVL345
 7149 167a B61B0000 		.4byte	0x1bb6
 7150 167e 26       		.uleb128 0x26
 7151 167f 01       		.uleb128 0x1
 7152 1680 50       		.byte	0x50
 7153 1681 02       		.uleb128 0x2
 7154 1682 77       		.byte	0x77
 7155 1683 00       		.sleb128 0
 7156 1684 00       		.byte	0
 7157 1685 00       		.byte	0
 7158 1686 00       		.byte	0
 7159 1687 15       		.uleb128 0x15
 7160 1688 8A0F0000 		.4byte	0xf8a
 7161 168c 24010000 		.4byte	.LBB531
 7162 1690 48030000 		.4byte	.Ldebug_ranges0+0x348
 7163 1694 01       		.byte	0x1
 7164 1695 F406     		.2byte	0x6f4
 7165 1697 4A170000 		.4byte	0x174a
 7166 169b 16       		.uleb128 0x16
 7167 169c 970F0000 		.4byte	0xf97
 7168 16a0 BF130000 		.4byte	.LLST141
 7169 16a4 17       		.uleb128 0x17
 7170 16a5 48030000 		.4byte	.Ldebug_ranges0+0x348
 7171 16a9 18       		.uleb128 0x18
 7172 16aa A30F0000 		.4byte	0xfa3
 7173 16ae DF130000 		.4byte	.LLST142
 7174 16b2 18       		.uleb128 0x18
 7175 16b3 AF0F0000 		.4byte	0xfaf
 7176 16b7 FD130000 		.4byte	.LLST143
 7177 16bb 2F       		.uleb128 0x2f
 7178 16bc FF010000 		.4byte	0x1ff
 7179 16c0 24010000 		.4byte	.LBB533
 7180 16c4 60030000 		.4byte	.Ldebug_ranges0+0x360
 7181 16c8 01       		.byte	0x1
 7182 16c9 ED05     		.2byte	0x5ed
 7183 16cb 19       		.uleb128 0x19
 7184 16cc 450B0000 		.4byte	0xb45
 7185 16d0 36010000 		.4byte	.LBB539
 7186 16d4 22000000 		.4byte	.LBE539-.LBB539
 7187 16d8 01       		.byte	0x1
 7188 16d9 F005     		.2byte	0x5f0
 7189 16db 05170000 		.4byte	0x1705
 7190 16df 1A       		.uleb128 0x1a
 7191 16e0 36010000 		.4byte	.LBB540
 7192 16e4 22000000 		.4byte	.LBE540-.LBB540
 7193 16e8 18       		.uleb128 0x18
 7194 16e9 520B0000 		.4byte	0xb52
 7195 16ed 1D140000 		.4byte	.LLST144
 7196 16f1 24       		.uleb128 0x24
 7197 16f2 3A010000 		.4byte	.LVL351
 7198 16f6 AB1B0000 		.4byte	0x1bab
 7199 16fa 24       		.uleb128 0x24
 7200 16fb 58010000 		.4byte	.LVL352
 7201 16ff B61B0000 		.4byte	0x1bb6
 7202 1703 00       		.byte	0
 7203 1704 00       		.byte	0
 7204 1705 19       		.uleb128 0x19
ARM GAS  C:\Users\AFDHAL~1\AppData\Local\Temp\cc29CzqQ.s 			page 209


 7205 1706 FC0A0000 		.4byte	0xafc
 7206 170a 68010000 		.4byte	.LBB541
 7207 170e 0E000000 		.4byte	.LBE541-.LBB541
 7208 1712 01       		.byte	0x1
 7209 1713 0706     		.2byte	0x607
 7210 1715 3F170000 		.4byte	0x173f
 7211 1719 1A       		.uleb128 0x1a
 7212 171a 68010000 		.4byte	.LBB542
 7213 171e 0E000000 		.4byte	.LBE542-.LBB542
 7214 1722 18       		.uleb128 0x18
 7215 1723 090B0000 		.4byte	0xb09
 7216 1727 30140000 		.4byte	.LLST145
 7217 172b 24       		.uleb128 0x24
 7218 172c 6C010000 		.4byte	.LVL354
 7219 1730 AB1B0000 		.4byte	0x1bab
 7220 1734 24       		.uleb128 0x24
 7221 1735 76010000 		.4byte	.LVL355
 7222 1739 B61B0000 		.4byte	0x1bb6
 7223 173d 00       		.byte	0
 7224 173e 00       		.byte	0
 7225 173f 24       		.uleb128 0x24
 7226 1740 2A010000 		.4byte	.LVL348
 7227 1744 AB1B0000 		.4byte	0x1bab
 7228 1748 00       		.byte	0
 7229 1749 00       		.byte	0
 7230 174a 1B       		.uleb128 0x1b
 7231 174b 8A0F0000 		.4byte	0xf8a
 7232 174f A2010000 		.4byte	.LBB547
 7233 1753 8A000000 		.4byte	.LBE547-.LBB547
 7234 1757 01       		.byte	0x1
 7235 1758 0407     		.2byte	0x704
 7236 175a 37       		.uleb128 0x37
 7237 175b 970F0000 		.4byte	0xf97
 7238 175f 0004     		.2byte	0x400
 7239 1761 1A       		.uleb128 0x1a
 7240 1762 A2010000 		.4byte	.LBB548
 7241 1766 8A000000 		.4byte	.LBE548-.LBB548
 7242 176a 38       		.uleb128 0x38
 7243 176b A30F0000 		.4byte	0xfa3
 7244 176f 01       		.uleb128 0x1
 7245 1770 55       		.byte	0x55
 7246 1771 18       		.uleb128 0x18
 7247 1772 AF0F0000 		.4byte	0xfaf
 7248 1776 43140000 		.4byte	.LLST146
 7249 177a 2F       		.uleb128 0x2f
 7250 177b FF010000 		.4byte	0x1ff
 7251 177f A2010000 		.4byte	.LBB549
 7252 1783 80030000 		.4byte	.Ldebug_ranges0+0x380
 7253 1787 01       		.byte	0x1
 7254 1788 ED05     		.2byte	0x5ed
 7255 178a 19       		.uleb128 0x19
 7256 178b 450B0000 		.4byte	0xb45
 7257 178f B4010000 		.4byte	.LBB555
 7258 1793 22000000 		.4byte	.LBE555-.LBB555
 7259 1797 01       		.byte	0x1
 7260 1798 F005     		.2byte	0x5f0
 7261 179a C4170000 		.4byte	0x17c4
ARM GAS  C:\Users\AFDHAL~1\AppData\Local\Temp\cc29CzqQ.s 			page 210


 7262 179e 1A       		.uleb128 0x1a
 7263 179f B4010000 		.4byte	.LBB556
 7264 17a3 22000000 		.4byte	.LBE556-.LBB556
 7265 17a7 18       		.uleb128 0x18
 7266 17a8 520B0000 		.4byte	0xb52
 7267 17ac 63140000 		.4byte	.LLST147
 7268 17b0 24       		.uleb128 0x24
 7269 17b1 B8010000 		.4byte	.LVL363
 7270 17b5 AB1B0000 		.4byte	0x1bab
 7271 17b9 24       		.uleb128 0x24
 7272 17ba D6010000 		.4byte	.LVL364
 7273 17be B61B0000 		.4byte	0x1bb6
 7274 17c2 00       		.byte	0
 7275 17c3 00       		.byte	0
 7276 17c4 19       		.uleb128 0x19
 7277 17c5 FC0A0000 		.4byte	0xafc
 7278 17c9 E8010000 		.4byte	.LBB557
 7279 17cd 0E000000 		.4byte	.LBE557-.LBB557
 7280 17d1 01       		.byte	0x1
 7281 17d2 0706     		.2byte	0x607
 7282 17d4 FE170000 		.4byte	0x17fe
 7283 17d8 1A       		.uleb128 0x1a
 7284 17d9 E8010000 		.4byte	.LBB558
 7285 17dd 0E000000 		.4byte	.LBE558-.LBB558
 7286 17e1 18       		.uleb128 0x18
 7287 17e2 090B0000 		.4byte	0xb09
 7288 17e6 76140000 		.4byte	.LLST148
 7289 17ea 24       		.uleb128 0x24
 7290 17eb EC010000 		.4byte	.LVL366
 7291 17ef AB1B0000 		.4byte	0x1bab
 7292 17f3 24       		.uleb128 0x24
 7293 17f4 F6010000 		.4byte	.LVL367
 7294 17f8 B61B0000 		.4byte	0x1bb6
 7295 17fc 00       		.byte	0
 7296 17fd 00       		.byte	0
 7297 17fe 24       		.uleb128 0x24
 7298 17ff A8010000 		.4byte	.LVL360
 7299 1803 AB1B0000 		.4byte	0x1bab
 7300 1807 25       		.uleb128 0x25
 7301 1808 FC010000 		.4byte	.LVL368
 7302 180c B61B0000 		.4byte	0x1bb6
 7303 1810 26       		.uleb128 0x26
 7304 1811 01       		.uleb128 0x1
 7305 1812 50       		.byte	0x50
 7306 1813 02       		.uleb128 0x2
 7307 1814 75       		.byte	0x75
 7308 1815 00       		.sleb128 0
 7309 1816 00       		.byte	0
 7310 1817 00       		.byte	0
 7311 1818 00       		.byte	0
 7312 1819 00       		.byte	0
 7313 181a 2E       		.uleb128 0x2e
 7314 181b BF060000 		.4byte	.LASF108
 7315 181f 01       		.byte	0x1
 7316 1820 D70B     		.2byte	0xbd7
 7317 1822 00000000 		.4byte	.LFB45
 7318 1826 D4000000 		.4byte	.LFE45-.LFB45
ARM GAS  C:\Users\AFDHAL~1\AppData\Local\Temp\cc29CzqQ.s 			page 211


 7319 182a 01       		.uleb128 0x1
 7320 182b 9C       		.byte	0x9c
 7321 182c E1190000 		.4byte	0x19e1
 7322 1830 28       		.uleb128 0x28
 7323 1831 7B000000 		.4byte	.LASF32
 7324 1835 01       		.byte	0x1
 7325 1836 D70B     		.2byte	0xbd7
 7326 1838 83000000 		.4byte	0x83
 7327 183c 89140000 		.4byte	.LLST149
 7328 1840 28       		.uleb128 0x28
 7329 1841 32070000 		.4byte	.LASF50
 7330 1845 01       		.byte	0x1
 7331 1846 D70B     		.2byte	0xbd7
 7332 1848 F2000000 		.4byte	0xf2
 7333 184c D9140000 		.4byte	.LLST150
 7334 1850 28       		.uleb128 0x28
 7335 1851 22070000 		.4byte	.LASF109
 7336 1855 01       		.byte	0x1
 7337 1856 D70B     		.2byte	0xbd7
 7338 1858 83000000 		.4byte	0x83
 7339 185c 1E150000 		.4byte	.LLST151
 7340 1860 14       		.uleb128 0x14
 7341 1861 42030000 		.4byte	.LASF42
 7342 1865 01       		.byte	0x1
 7343 1866 D90B     		.2byte	0xbd9
 7344 1868 83000000 		.4byte	0x83
 7345 186c 01       		.uleb128 0x1
 7346 186d 55       		.byte	0x55
 7347 186e 29       		.uleb128 0x29
 7348 186f 76040000 		.4byte	.LASF110
 7349 1873 01       		.byte	0x1
 7350 1874 DA0B     		.2byte	0xbda
 7351 1876 83000000 		.4byte	0x83
 7352 187a 71150000 		.4byte	.LLST152
 7353 187e 19       		.uleb128 0x19
 7354 187f 99020000 		.4byte	0x299
 7355 1883 0A000000 		.4byte	.LBB577
 7356 1887 08000000 		.4byte	.LBE577-.LBB577
 7357 188b 01       		.byte	0x1
 7358 188c DD0B     		.2byte	0xbdd
 7359 188e 9C180000 		.4byte	0x189c
 7360 1892 16       		.uleb128 0x16
 7361 1893 AA020000 		.4byte	0x2aa
 7362 1897 9E150000 		.4byte	.LLST153
 7363 189b 00       		.byte	0
 7364 189c 15       		.uleb128 0x15
 7365 189d 2A020000 		.4byte	0x22a
 7366 18a1 1E000000 		.4byte	.LBB579
 7367 18a5 A0030000 		.4byte	.Ldebug_ranges0+0x3a0
 7368 18a9 01       		.byte	0x1
 7369 18aa E00B     		.2byte	0xbe0
 7370 18ac C9180000 		.4byte	0x18c9
 7371 18b0 16       		.uleb128 0x16
 7372 18b1 3B020000 		.4byte	0x23b
 7373 18b5 BC150000 		.4byte	.LLST154
 7374 18b9 17       		.uleb128 0x17
 7375 18ba A0030000 		.4byte	.Ldebug_ranges0+0x3a0
ARM GAS  C:\Users\AFDHAL~1\AppData\Local\Temp\cc29CzqQ.s 			page 212


 7376 18be 18       		.uleb128 0x18
 7377 18bf 47020000 		.4byte	0x247
 7378 18c3 DA150000 		.4byte	.LLST155
 7379 18c7 00       		.byte	0
 7380 18c8 00       		.byte	0
 7381 18c9 2A       		.uleb128 0x2a
 7382 18ca B7020000 		.4byte	0x2b7
 7383 18ce 28000000 		.4byte	.LBB582
 7384 18d2 B8030000 		.4byte	.Ldebug_ranges0+0x3b8
 7385 18d6 01       		.byte	0x1
 7386 18d7 E30B     		.2byte	0xbe3
 7387 18d9 16       		.uleb128 0x16
 7388 18da DC020000 		.4byte	0x2dc
 7389 18de 71150000 		.4byte	.LLST152
 7390 18e2 16       		.uleb128 0x16
 7391 18e3 D0020000 		.4byte	0x2d0
 7392 18e7 05160000 		.4byte	.LLST157
 7393 18eb 16       		.uleb128 0x16
 7394 18ec C4020000 		.4byte	0x2c4
 7395 18f0 3C160000 		.4byte	.LLST158
 7396 18f4 17       		.uleb128 0x17
 7397 18f5 B8030000 		.4byte	.Ldebug_ranges0+0x3b8
 7398 18f9 18       		.uleb128 0x18
 7399 18fa E8020000 		.4byte	0x2e8
 7400 18fe 73160000 		.4byte	.LLST159
 7401 1902 19       		.uleb128 0x19
 7402 1903 99020000 		.4byte	0x299
 7403 1907 28000000 		.4byte	.LBB584
 7404 190b 04000000 		.4byte	.LBE584-.LBB584
 7405 190f 01       		.byte	0x1
 7406 1910 5D0C     		.2byte	0xc5d
 7407 1912 20190000 		.4byte	0x1920
 7408 1916 16       		.uleb128 0x16
 7409 1917 AA020000 		.4byte	0x2aa
 7410 191b 86160000 		.4byte	.LLST160
 7411 191f 00       		.byte	0
 7412 1920 39       		.uleb128 0x39
 7413 1921 E0030000 		.4byte	.Ldebug_ranges0+0x3e0
 7414 1925 9A190000 		.4byte	0x199a
 7415 1929 33       		.uleb128 0x33
 7416 192a D0020000 		.4byte	0x2d0
 7417 192e 33       		.uleb128 0x33
 7418 192f DC020000 		.4byte	0x2dc
 7419 1933 33       		.uleb128 0x33
 7420 1934 C4020000 		.4byte	0x2c4
 7421 1938 17       		.uleb128 0x17
 7422 1939 E0030000 		.4byte	.Ldebug_ranges0+0x3e0
 7423 193d 22       		.uleb128 0x22
 7424 193e E8020000 		.4byte	0x2e8
 7425 1942 15       		.uleb128 0x15
 7426 1943 2A020000 		.4byte	0x22a
 7427 1947 3E000000 		.4byte	.LBB588
 7428 194b F8030000 		.4byte	.Ldebug_ranges0+0x3f8
 7429 194f 01       		.byte	0x1
 7430 1950 640C     		.2byte	0xc64
 7431 1952 6F190000 		.4byte	0x196f
 7432 1956 16       		.uleb128 0x16
ARM GAS  C:\Users\AFDHAL~1\AppData\Local\Temp\cc29CzqQ.s 			page 213


 7433 1957 3B020000 		.4byte	0x23b
 7434 195b 99160000 		.4byte	.LLST161
 7435 195f 17       		.uleb128 0x17
 7436 1960 F8030000 		.4byte	.Ldebug_ranges0+0x3f8
 7437 1964 18       		.uleb128 0x18
 7438 1965 47020000 		.4byte	0x247
 7439 1969 B7160000 		.4byte	.LLST162
 7440 196d 00       		.byte	0
 7441 196e 00       		.byte	0
 7442 196f 2A       		.uleb128 0x2a
 7443 1970 2A020000 		.4byte	0x22a
 7444 1974 A2000000 		.4byte	.LBB592
 7445 1978 10040000 		.4byte	.Ldebug_ranges0+0x410
 7446 197c 01       		.byte	0x1
 7447 197d 690C     		.2byte	0xc69
 7448 197f 16       		.uleb128 0x16
 7449 1980 3B020000 		.4byte	0x23b
 7450 1984 E2160000 		.4byte	.LLST163
 7451 1988 17       		.uleb128 0x17
 7452 1989 10040000 		.4byte	.Ldebug_ranges0+0x410
 7453 198d 18       		.uleb128 0x18
 7454 198e 47020000 		.4byte	0x247
 7455 1992 01170000 		.4byte	.LLST164
 7456 1996 00       		.byte	0
 7457 1997 00       		.byte	0
 7458 1998 00       		.byte	0
 7459 1999 00       		.byte	0
 7460 199a 1B       		.uleb128 0x1b
 7461 199b 4D0E0000 		.4byte	0xe4d
 7462 199f 60000000 		.4byte	.LBB597
 7463 19a3 30000000 		.4byte	.LBE597-.LBB597
 7464 19a7 01       		.byte	0x1
 7465 19a8 6F0C     		.2byte	0xc6f
 7466 19aa 33       		.uleb128 0x33
 7467 19ab 660E0000 		.4byte	0xe66
 7468 19af 16       		.uleb128 0x16
 7469 19b0 5A0E0000 		.4byte	0xe5a
 7470 19b4 2C170000 		.4byte	.LLST165
 7471 19b8 1A       		.uleb128 0x1a
 7472 19b9 60000000 		.4byte	.LBB598
 7473 19bd 30000000 		.4byte	.LBE598-.LBB598
 7474 19c1 18       		.uleb128 0x18
 7475 19c2 720E0000 		.4byte	0xe72
 7476 19c6 4D170000 		.4byte	.LLST166
 7477 19ca 24       		.uleb128 0x24
 7478 19cb 6E000000 		.4byte	.LVL390
 7479 19cf C11B0000 		.4byte	0x1bc1
 7480 19d3 24       		.uleb128 0x24
 7481 19d4 90000000 		.4byte	.LVL395
 7482 19d8 C11B0000 		.4byte	0x1bc1
 7483 19dc 00       		.byte	0
 7484 19dd 00       		.byte	0
 7485 19de 00       		.byte	0
 7486 19df 00       		.byte	0
 7487 19e0 00       		.byte	0
 7488 19e1 32       		.uleb128 0x32
 7489 19e2 B7020000 		.4byte	0x2b7
ARM GAS  C:\Users\AFDHAL~1\AppData\Local\Temp\cc29CzqQ.s 			page 214


 7490 19e6 00000000 		.4byte	.LFB46
 7491 19ea B4000000 		.4byte	.LFE46-.LFB46
 7492 19ee 01       		.uleb128 0x1
 7493 19ef 9C       		.byte	0x9c
 7494 19f0 FF1A0000 		.4byte	0x1aff
 7495 19f4 16       		.uleb128 0x16
 7496 19f5 C4020000 		.4byte	0x2c4
 7497 19f9 75170000 		.4byte	.LLST167
 7498 19fd 16       		.uleb128 0x16
 7499 19fe D0020000 		.4byte	0x2d0
 7500 1a02 BA170000 		.4byte	.LLST168
 7501 1a06 16       		.uleb128 0x16
 7502 1a07 DC020000 		.4byte	0x2dc
 7503 1a0b F4170000 		.4byte	.LLST169
 7504 1a0f 38       		.uleb128 0x38
 7505 1a10 E8020000 		.4byte	0x2e8
 7506 1a14 01       		.uleb128 0x1
 7507 1a15 56       		.byte	0x56
 7508 1a16 15       		.uleb128 0x15
 7509 1a17 99020000 		.4byte	0x299
 7510 1a1b 0C000000 		.4byte	.LBB619
 7511 1a1f 28040000 		.4byte	.Ldebug_ranges0+0x428
 7512 1a23 01       		.byte	0x1
 7513 1a24 5D0C     		.2byte	0xc5d
 7514 1a26 341A0000 		.4byte	0x1a34
 7515 1a2a 16       		.uleb128 0x16
 7516 1a2b AA020000 		.4byte	0x2aa
 7517 1a2f 39180000 		.4byte	.LLST170
 7518 1a33 00       		.byte	0
 7519 1a34 3A       		.uleb128 0x3a
 7520 1a35 24000000 		.4byte	.LBB623
 7521 1a39 2C000000 		.4byte	.LBE623-.LBB623
 7522 1a3d B61A0000 		.4byte	0x1ab6
 7523 1a41 33       		.uleb128 0x33
 7524 1a42 D0020000 		.4byte	0x2d0
 7525 1a46 33       		.uleb128 0x33
 7526 1a47 DC020000 		.4byte	0x2dc
 7527 1a4b 33       		.uleb128 0x33
 7528 1a4c C4020000 		.4byte	0x2c4
 7529 1a50 1A       		.uleb128 0x1a
 7530 1a51 24000000 		.4byte	.LBB624
 7531 1a55 2C000000 		.4byte	.LBE624-.LBB624
 7532 1a59 22       		.uleb128 0x22
 7533 1a5a E8020000 		.4byte	0x2e8
 7534 1a5e 15       		.uleb128 0x15
 7535 1a5f 2A020000 		.4byte	0x22a
 7536 1a63 24000000 		.4byte	.LBB625
 7537 1a67 40040000 		.4byte	.Ldebug_ranges0+0x440
 7538 1a6b 01       		.byte	0x1
 7539 1a6c 640C     		.2byte	0xc64
 7540 1a6e 8B1A0000 		.4byte	0x1a8b
 7541 1a72 16       		.uleb128 0x16
 7542 1a73 3B020000 		.4byte	0x23b
 7543 1a77 57180000 		.4byte	.LLST171
 7544 1a7b 17       		.uleb128 0x17
 7545 1a7c 40040000 		.4byte	.Ldebug_ranges0+0x440
 7546 1a80 18       		.uleb128 0x18
ARM GAS  C:\Users\AFDHAL~1\AppData\Local\Temp\cc29CzqQ.s 			page 215


 7547 1a81 47020000 		.4byte	0x247
 7548 1a85 75180000 		.4byte	.LLST172
 7549 1a89 00       		.byte	0
 7550 1a8a 00       		.byte	0
 7551 1a8b 2A       		.uleb128 0x2a
 7552 1a8c 2A020000 		.4byte	0x22a
 7553 1a90 3A000000 		.4byte	.LBB629
 7554 1a94 58040000 		.4byte	.Ldebug_ranges0+0x458
 7555 1a98 01       		.byte	0x1
 7556 1a99 690C     		.2byte	0xc69
 7557 1a9b 16       		.uleb128 0x16
 7558 1a9c 3B020000 		.4byte	0x23b
 7559 1aa0 A0180000 		.4byte	.LLST173
 7560 1aa4 17       		.uleb128 0x17
 7561 1aa5 58040000 		.4byte	.Ldebug_ranges0+0x458
 7562 1aa9 18       		.uleb128 0x18
 7563 1aaa 47020000 		.4byte	0x247
 7564 1aae BF180000 		.4byte	.LLST174
 7565 1ab2 00       		.byte	0
 7566 1ab3 00       		.byte	0
 7567 1ab4 00       		.byte	0
 7568 1ab5 00       		.byte	0
 7569 1ab6 1B       		.uleb128 0x1b
 7570 1ab7 4D0E0000 		.4byte	0xe4d
 7571 1abb 56000000 		.4byte	.LBB633
 7572 1abf 30000000 		.4byte	.LBE633-.LBB633
 7573 1ac3 01       		.byte	0x1
 7574 1ac4 6F0C     		.2byte	0xc6f
 7575 1ac6 16       		.uleb128 0x16
 7576 1ac7 660E0000 		.4byte	0xe66
 7577 1acb EA180000 		.4byte	.LLST175
 7578 1acf 16       		.uleb128 0x16
 7579 1ad0 5A0E0000 		.4byte	0xe5a
 7580 1ad4 0B190000 		.4byte	.LLST176
 7581 1ad8 1A       		.uleb128 0x1a
 7582 1ad9 56000000 		.4byte	.LBB634
 7583 1add 30000000 		.4byte	.LBE634-.LBB634
 7584 1ae1 18       		.uleb128 0x18
 7585 1ae2 720E0000 		.4byte	0xe72
 7586 1ae6 2C190000 		.4byte	.LLST177
 7587 1aea 24       		.uleb128 0x24
 7588 1aeb 64000000 		.4byte	.LVL418
 7589 1aef C11B0000 		.4byte	0x1bc1
 7590 1af3 24       		.uleb128 0x24
 7591 1af4 86000000 		.4byte	.LVL424
 7592 1af8 C11B0000 		.4byte	0x1bc1
 7593 1afc 00       		.byte	0
 7594 1afd 00       		.byte	0
 7595 1afe 00       		.byte	0
 7596 1aff 1E       		.uleb128 0x1e
 7597 1b00 7B050000 		.4byte	.LASF111
 7598 1b04 01       		.byte	0x1
 7599 1b05 1D       		.byte	0x1d
 7600 1b06 BC000000 		.4byte	0xbc
 7601 1b0a 05       		.uleb128 0x5
 7602 1b0b 03       		.byte	0x3
 7603 1b0c 00000000 		.4byte	defaultIloTrimRegValue
ARM GAS  C:\Users\AFDHAL~1\AppData\Local\Temp\cc29CzqQ.s 			page 216


 7604 1b10 1E       		.uleb128 0x1e
 7605 1b11 F7000000 		.4byte	.LASF112
 7606 1b15 01       		.byte	0x1
 7607 1b16 22       		.byte	0x22
 7608 1b17 83000000 		.4byte	0x83
 7609 1b1b 05       		.uleb128 0x5
 7610 1b1c 03       		.byte	0x3
 7611 1b1d 04000000 		.4byte	lfclkPosedgeWdtCounter0Enabled
 7612 1b21 1E       		.uleb128 0x1e
 7613 1b22 B6080000 		.4byte	.LASF113
 7614 1b26 01       		.byte	0x1
 7615 1b27 23       		.byte	0x23
 7616 1b28 83000000 		.4byte	0x83
 7617 1b2c 05       		.uleb128 0x5
 7618 1b2d 03       		.byte	0x3
 7619 1b2e 08000000 		.4byte	lfclkPosedgeWdtCounter0Mode
 7620 1b32 1E       		.uleb128 0x1e
 7621 1b33 26080000 		.4byte	.LASF114
 7622 1b37 01       		.byte	0x1
 7623 1b38 25       		.byte	0x25
 7624 1b39 CD000000 		.4byte	0xcd
 7625 1b3d 05       		.uleb128 0x5
 7626 1b3e 03       		.byte	0x3
 7627 1b3f 24000000 		.4byte	disableServicedIsr
 7628 1b43 1E       		.uleb128 0x1e
 7629 1b44 60030000 		.4byte	.LASF115
 7630 1b48 01       		.byte	0x1
 7631 1b49 26       		.byte	0x26
 7632 1b4a CD000000 		.4byte	0xcd
 7633 1b4e 05       		.uleb128 0x5
 7634 1b4f 03       		.byte	0x3
 7635 1b50 04000000 		.4byte	wdtIsrMask
 7636 1b54 3B       		.uleb128 0x3b
 7637 1b55 641B0000 		.4byte	0x1b64
 7638 1b59 641B0000 		.4byte	0x1b64
 7639 1b5d 3C       		.uleb128 0x3c
 7640 1b5e 0F010000 		.4byte	0x10f
 7641 1b62 02       		.byte	0x2
 7642 1b63 00       		.byte	0
 7643 1b64 3D       		.uleb128 0x3d
 7644 1b65 83000000 		.4byte	0x83
 7645 1b69 1E       		.uleb128 0x1e
 7646 1b6a 29000000 		.4byte	.LASF116
 7647 1b6e 01       		.byte	0x1
 7648 1b6f 2A       		.byte	0x2a
 7649 1b70 7A1B0000 		.4byte	0x1b7a
 7650 1b74 05       		.uleb128 0x5
 7651 1b75 03       		.byte	0x3
 7652 1b76 00000000 		.4byte	counterIntMaskTbl
 7653 1b7a 3D       		.uleb128 0x3d
 7654 1b7b 541B0000 		.4byte	0x1b54
 7655 1b7f 3B       		.uleb128 0x3b
 7656 1b80 FD000000 		.4byte	0xfd
 7657 1b84 8F1B0000 		.4byte	0x1b8f
 7658 1b88 3C       		.uleb128 0x3c
 7659 1b89 0F010000 		.4byte	0x10f
 7660 1b8d 02       		.byte	0x2
ARM GAS  C:\Users\AFDHAL~1\AppData\Local\Temp\cc29CzqQ.s 			page 217


 7661 1b8e 00       		.byte	0
 7662 1b8f 1E       		.uleb128 0x1e
 7663 1b90 3B000000 		.4byte	.LASF117
 7664 1b94 01       		.byte	0x1
 7665 1b95 44       		.byte	0x44
 7666 1b96 7F1B0000 		.4byte	0x1b7f
 7667 1b9a 05       		.uleb128 0x5
 7668 1b9b 03       		.byte	0x3
 7669 1b9c 18000000 		.4byte	cySysWdtCallback
 7670 1ba0 3E       		.uleb128 0x3e
 7671 1ba1 50060000 		.4byte	.LASF127
 7672 1ba5 04       		.byte	0x4
 7673 1ba6 D4       		.byte	0xd4
 7674 1ba7 83000000 		.4byte	0x83
 7675 1bab 3F       		.uleb128 0x3f
 7676 1bac 92050000 		.4byte	.LASF118
 7677 1bb0 92050000 		.4byte	.LASF118
 7678 1bb4 04       		.byte	0x4
 7679 1bb5 E5       		.byte	0xe5
 7680 1bb6 3F       		.uleb128 0x3f
 7681 1bb7 07000000 		.4byte	.LASF119
 7682 1bbb 07000000 		.4byte	.LASF119
 7683 1bbf 04       		.byte	0x4
 7684 1bc0 E6       		.byte	0xe6
 7685 1bc1 3F       		.uleb128 0x3f
 7686 1bc2 6D020000 		.4byte	.LASF120
 7687 1bc6 6D020000 		.4byte	.LASF120
 7688 1bca 04       		.byte	0x4
 7689 1bcb DA       		.byte	0xda
 7690 1bcc 00       		.byte	0
 7691              		.section	.debug_abbrev,"",%progbits
 7692              	.Ldebug_abbrev0:
 7693 0000 01       		.uleb128 0x1
 7694 0001 11       		.uleb128 0x11
 7695 0002 01       		.byte	0x1
 7696 0003 25       		.uleb128 0x25
 7697 0004 0E       		.uleb128 0xe
 7698 0005 13       		.uleb128 0x13
 7699 0006 0B       		.uleb128 0xb
 7700 0007 03       		.uleb128 0x3
 7701 0008 0E       		.uleb128 0xe
 7702 0009 1B       		.uleb128 0x1b
 7703 000a 0E       		.uleb128 0xe
 7704 000b 55       		.uleb128 0x55
 7705 000c 17       		.uleb128 0x17
 7706 000d 11       		.uleb128 0x11
 7707 000e 01       		.uleb128 0x1
 7708 000f 10       		.uleb128 0x10
 7709 0010 17       		.uleb128 0x17
 7710 0011 00       		.byte	0
 7711 0012 00       		.byte	0
 7712 0013 02       		.uleb128 0x2
 7713 0014 24       		.uleb128 0x24
 7714 0015 00       		.byte	0
 7715 0016 0B       		.uleb128 0xb
 7716 0017 0B       		.uleb128 0xb
 7717 0018 3E       		.uleb128 0x3e
ARM GAS  C:\Users\AFDHAL~1\AppData\Local\Temp\cc29CzqQ.s 			page 218


 7718 0019 0B       		.uleb128 0xb
 7719 001a 03       		.uleb128 0x3
 7720 001b 0E       		.uleb128 0xe
 7721 001c 00       		.byte	0
 7722 001d 00       		.byte	0
 7723 001e 03       		.uleb128 0x3
 7724 001f 24       		.uleb128 0x24
 7725 0020 00       		.byte	0
 7726 0021 0B       		.uleb128 0xb
 7727 0022 0B       		.uleb128 0xb
 7728 0023 3E       		.uleb128 0x3e
 7729 0024 0B       		.uleb128 0xb
 7730 0025 03       		.uleb128 0x3
 7731 0026 08       		.uleb128 0x8
 7732 0027 00       		.byte	0
 7733 0028 00       		.byte	0
 7734 0029 04       		.uleb128 0x4
 7735 002a 16       		.uleb128 0x16
 7736 002b 00       		.byte	0
 7737 002c 03       		.uleb128 0x3
 7738 002d 0E       		.uleb128 0xe
 7739 002e 3A       		.uleb128 0x3a
 7740 002f 0B       		.uleb128 0xb
 7741 0030 3B       		.uleb128 0x3b
 7742 0031 05       		.uleb128 0x5
 7743 0032 49       		.uleb128 0x49
 7744 0033 13       		.uleb128 0x13
 7745 0034 00       		.byte	0
 7746 0035 00       		.byte	0
 7747 0036 05       		.uleb128 0x5
 7748 0037 35       		.uleb128 0x35
 7749 0038 00       		.byte	0
 7750 0039 49       		.uleb128 0x49
 7751 003a 13       		.uleb128 0x13
 7752 003b 00       		.byte	0
 7753 003c 00       		.byte	0
 7754 003d 06       		.uleb128 0x6
 7755 003e 0F       		.uleb128 0xf
 7756 003f 00       		.byte	0
 7757 0040 0B       		.uleb128 0xb
 7758 0041 0B       		.uleb128 0xb
 7759 0042 49       		.uleb128 0x49
 7760 0043 13       		.uleb128 0x13
 7761 0044 00       		.byte	0
 7762 0045 00       		.byte	0
 7763 0046 07       		.uleb128 0x7
 7764 0047 15       		.uleb128 0x15
 7765 0048 00       		.byte	0
 7766 0049 27       		.uleb128 0x27
 7767 004a 19       		.uleb128 0x19
 7768 004b 00       		.byte	0
 7769 004c 00       		.byte	0
 7770 004d 08       		.uleb128 0x8
 7771 004e 04       		.uleb128 0x4
 7772 004f 01       		.byte	0x1
 7773 0050 0B       		.uleb128 0xb
 7774 0051 0B       		.uleb128 0xb
ARM GAS  C:\Users\AFDHAL~1\AppData\Local\Temp\cc29CzqQ.s 			page 219


 7775 0052 49       		.uleb128 0x49
 7776 0053 13       		.uleb128 0x13
 7777 0054 3A       		.uleb128 0x3a
 7778 0055 0B       		.uleb128 0xb
 7779 0056 3B       		.uleb128 0x3b
 7780 0057 0B       		.uleb128 0xb
 7781 0058 01       		.uleb128 0x1
 7782 0059 13       		.uleb128 0x13
 7783 005a 00       		.byte	0
 7784 005b 00       		.byte	0
 7785 005c 09       		.uleb128 0x9
 7786 005d 28       		.uleb128 0x28
 7787 005e 00       		.byte	0
 7788 005f 03       		.uleb128 0x3
 7789 0060 0E       		.uleb128 0xe
 7790 0061 1C       		.uleb128 0x1c
 7791 0062 0B       		.uleb128 0xb
 7792 0063 00       		.byte	0
 7793 0064 00       		.byte	0
 7794 0065 0A       		.uleb128 0xa
 7795 0066 16       		.uleb128 0x16
 7796 0067 00       		.byte	0
 7797 0068 03       		.uleb128 0x3
 7798 0069 0E       		.uleb128 0xe
 7799 006a 3A       		.uleb128 0x3a
 7800 006b 0B       		.uleb128 0xb
 7801 006c 3B       		.uleb128 0x3b
 7802 006d 0B       		.uleb128 0xb
 7803 006e 49       		.uleb128 0x49
 7804 006f 13       		.uleb128 0x13
 7805 0070 00       		.byte	0
 7806 0071 00       		.byte	0
 7807 0072 0B       		.uleb128 0xb
 7808 0073 2E       		.uleb128 0x2e
 7809 0074 01       		.byte	0x1
 7810 0075 3F       		.uleb128 0x3f
 7811 0076 19       		.uleb128 0x19
 7812 0077 03       		.uleb128 0x3
 7813 0078 0E       		.uleb128 0xe
 7814 0079 3A       		.uleb128 0x3a
 7815 007a 0B       		.uleb128 0xb
 7816 007b 3B       		.uleb128 0x3b
 7817 007c 05       		.uleb128 0x5
 7818 007d 27       		.uleb128 0x27
 7819 007e 19       		.uleb128 0x19
 7820 007f 49       		.uleb128 0x49
 7821 0080 13       		.uleb128 0x13
 7822 0081 20       		.uleb128 0x20
 7823 0082 0B       		.uleb128 0xb
 7824 0083 01       		.uleb128 0x1
 7825 0084 13       		.uleb128 0x13
 7826 0085 00       		.byte	0
 7827 0086 00       		.byte	0
 7828 0087 0C       		.uleb128 0xc
 7829 0088 05       		.uleb128 0x5
 7830 0089 00       		.byte	0
 7831 008a 03       		.uleb128 0x3
ARM GAS  C:\Users\AFDHAL~1\AppData\Local\Temp\cc29CzqQ.s 			page 220


 7832 008b 0E       		.uleb128 0xe
 7833 008c 3A       		.uleb128 0x3a
 7834 008d 0B       		.uleb128 0xb
 7835 008e 3B       		.uleb128 0x3b
 7836 008f 05       		.uleb128 0x5
 7837 0090 49       		.uleb128 0x49
 7838 0091 13       		.uleb128 0x13
 7839 0092 00       		.byte	0
 7840 0093 00       		.byte	0
 7841 0094 0D       		.uleb128 0xd
 7842 0095 34       		.uleb128 0x34
 7843 0096 00       		.byte	0
 7844 0097 03       		.uleb128 0x3
 7845 0098 0E       		.uleb128 0xe
 7846 0099 3A       		.uleb128 0x3a
 7847 009a 0B       		.uleb128 0xb
 7848 009b 3B       		.uleb128 0x3b
 7849 009c 05       		.uleb128 0x5
 7850 009d 49       		.uleb128 0x49
 7851 009e 13       		.uleb128 0x13
 7852 009f 00       		.byte	0
 7853 00a0 00       		.byte	0
 7854 00a1 0E       		.uleb128 0xe
 7855 00a2 2E       		.uleb128 0x2e
 7856 00a3 00       		.byte	0
 7857 00a4 03       		.uleb128 0x3
 7858 00a5 0E       		.uleb128 0xe
 7859 00a6 3A       		.uleb128 0x3a
 7860 00a7 0B       		.uleb128 0xb
 7861 00a8 3B       		.uleb128 0x3b
 7862 00a9 05       		.uleb128 0x5
 7863 00aa 27       		.uleb128 0x27
 7864 00ab 19       		.uleb128 0x19
 7865 00ac 20       		.uleb128 0x20
 7866 00ad 0B       		.uleb128 0xb
 7867 00ae 00       		.byte	0
 7868 00af 00       		.byte	0
 7869 00b0 0F       		.uleb128 0xf
 7870 00b1 2E       		.uleb128 0x2e
 7871 00b2 00       		.byte	0
 7872 00b3 3F       		.uleb128 0x3f
 7873 00b4 19       		.uleb128 0x19
 7874 00b5 03       		.uleb128 0x3
 7875 00b6 0E       		.uleb128 0xe
 7876 00b7 3A       		.uleb128 0x3a
 7877 00b8 0B       		.uleb128 0xb
 7878 00b9 3B       		.uleb128 0x3b
 7879 00ba 05       		.uleb128 0x5
 7880 00bb 27       		.uleb128 0x27
 7881 00bc 19       		.uleb128 0x19
 7882 00bd 49       		.uleb128 0x49
 7883 00be 13       		.uleb128 0x13
 7884 00bf 20       		.uleb128 0x20
 7885 00c0 0B       		.uleb128 0xb
 7886 00c1 00       		.byte	0
 7887 00c2 00       		.byte	0
 7888 00c3 10       		.uleb128 0x10
ARM GAS  C:\Users\AFDHAL~1\AppData\Local\Temp\cc29CzqQ.s 			page 221


 7889 00c4 2E       		.uleb128 0x2e
 7890 00c5 01       		.byte	0x1
 7891 00c6 3F       		.uleb128 0x3f
 7892 00c7 19       		.uleb128 0x19
 7893 00c8 03       		.uleb128 0x3
 7894 00c9 0E       		.uleb128 0xe
 7895 00ca 3A       		.uleb128 0x3a
 7896 00cb 0B       		.uleb128 0xb
 7897 00cc 3B       		.uleb128 0x3b
 7898 00cd 05       		.uleb128 0x5
 7899 00ce 27       		.uleb128 0x27
 7900 00cf 19       		.uleb128 0x19
 7901 00d0 20       		.uleb128 0x20
 7902 00d1 0B       		.uleb128 0xb
 7903 00d2 01       		.uleb128 0x1
 7904 00d3 13       		.uleb128 0x13
 7905 00d4 00       		.byte	0
 7906 00d5 00       		.byte	0
 7907 00d6 11       		.uleb128 0x11
 7908 00d7 2E       		.uleb128 0x2e
 7909 00d8 00       		.byte	0
 7910 00d9 03       		.uleb128 0x3
 7911 00da 0E       		.uleb128 0xe
 7912 00db 3A       		.uleb128 0x3a
 7913 00dc 0B       		.uleb128 0xb
 7914 00dd 3B       		.uleb128 0x3b
 7915 00de 05       		.uleb128 0x5
 7916 00df 27       		.uleb128 0x27
 7917 00e0 19       		.uleb128 0x19
 7918 00e1 49       		.uleb128 0x49
 7919 00e2 13       		.uleb128 0x13
 7920 00e3 20       		.uleb128 0x20
 7921 00e4 0B       		.uleb128 0xb
 7922 00e5 00       		.byte	0
 7923 00e6 00       		.byte	0
 7924 00e7 12       		.uleb128 0x12
 7925 00e8 2E       		.uleb128 0x2e
 7926 00e9 01       		.byte	0x1
 7927 00ea 03       		.uleb128 0x3
 7928 00eb 0E       		.uleb128 0xe
 7929 00ec 3A       		.uleb128 0x3a
 7930 00ed 0B       		.uleb128 0xb
 7931 00ee 3B       		.uleb128 0x3b
 7932 00ef 05       		.uleb128 0x5
 7933 00f0 27       		.uleb128 0x27
 7934 00f1 19       		.uleb128 0x19
 7935 00f2 49       		.uleb128 0x49
 7936 00f3 13       		.uleb128 0x13
 7937 00f4 20       		.uleb128 0x20
 7938 00f5 0B       		.uleb128 0xb
 7939 00f6 01       		.uleb128 0x1
 7940 00f7 13       		.uleb128 0x13
 7941 00f8 00       		.byte	0
 7942 00f9 00       		.byte	0
 7943 00fa 13       		.uleb128 0x13
 7944 00fb 2E       		.uleb128 0x2e
 7945 00fc 01       		.byte	0x1
ARM GAS  C:\Users\AFDHAL~1\AppData\Local\Temp\cc29CzqQ.s 			page 222


 7946 00fd 03       		.uleb128 0x3
 7947 00fe 0E       		.uleb128 0xe
 7948 00ff 3A       		.uleb128 0x3a
 7949 0100 0B       		.uleb128 0xb
 7950 0101 3B       		.uleb128 0x3b
 7951 0102 05       		.uleb128 0x5
 7952 0103 27       		.uleb128 0x27
 7953 0104 19       		.uleb128 0x19
 7954 0105 11       		.uleb128 0x11
 7955 0106 01       		.uleb128 0x1
 7956 0107 12       		.uleb128 0x12
 7957 0108 06       		.uleb128 0x6
 7958 0109 40       		.uleb128 0x40
 7959 010a 18       		.uleb128 0x18
 7960 010b 9742     		.uleb128 0x2117
 7961 010d 19       		.uleb128 0x19
 7962 010e 01       		.uleb128 0x1
 7963 010f 13       		.uleb128 0x13
 7964 0110 00       		.byte	0
 7965 0111 00       		.byte	0
 7966 0112 14       		.uleb128 0x14
 7967 0113 34       		.uleb128 0x34
 7968 0114 00       		.byte	0
 7969 0115 03       		.uleb128 0x3
 7970 0116 0E       		.uleb128 0xe
 7971 0117 3A       		.uleb128 0x3a
 7972 0118 0B       		.uleb128 0xb
 7973 0119 3B       		.uleb128 0x3b
 7974 011a 05       		.uleb128 0x5
 7975 011b 49       		.uleb128 0x49
 7976 011c 13       		.uleb128 0x13
 7977 011d 02       		.uleb128 0x2
 7978 011e 18       		.uleb128 0x18
 7979 011f 00       		.byte	0
 7980 0120 00       		.byte	0
 7981 0121 15       		.uleb128 0x15
 7982 0122 1D       		.uleb128 0x1d
 7983 0123 01       		.byte	0x1
 7984 0124 31       		.uleb128 0x31
 7985 0125 13       		.uleb128 0x13
 7986 0126 52       		.uleb128 0x52
 7987 0127 01       		.uleb128 0x1
 7988 0128 55       		.uleb128 0x55
 7989 0129 17       		.uleb128 0x17
 7990 012a 58       		.uleb128 0x58
 7991 012b 0B       		.uleb128 0xb
 7992 012c 59       		.uleb128 0x59
 7993 012d 05       		.uleb128 0x5
 7994 012e 01       		.uleb128 0x1
 7995 012f 13       		.uleb128 0x13
 7996 0130 00       		.byte	0
 7997 0131 00       		.byte	0
 7998 0132 16       		.uleb128 0x16
 7999 0133 05       		.uleb128 0x5
 8000 0134 00       		.byte	0
 8001 0135 31       		.uleb128 0x31
 8002 0136 13       		.uleb128 0x13
ARM GAS  C:\Users\AFDHAL~1\AppData\Local\Temp\cc29CzqQ.s 			page 223


 8003 0137 02       		.uleb128 0x2
 8004 0138 17       		.uleb128 0x17
 8005 0139 00       		.byte	0
 8006 013a 00       		.byte	0
 8007 013b 17       		.uleb128 0x17
 8008 013c 0B       		.uleb128 0xb
 8009 013d 01       		.byte	0x1
 8010 013e 55       		.uleb128 0x55
 8011 013f 17       		.uleb128 0x17
 8012 0140 00       		.byte	0
 8013 0141 00       		.byte	0
 8014 0142 18       		.uleb128 0x18
 8015 0143 34       		.uleb128 0x34
 8016 0144 00       		.byte	0
 8017 0145 31       		.uleb128 0x31
 8018 0146 13       		.uleb128 0x13
 8019 0147 02       		.uleb128 0x2
 8020 0148 17       		.uleb128 0x17
 8021 0149 00       		.byte	0
 8022 014a 00       		.byte	0
 8023 014b 19       		.uleb128 0x19
 8024 014c 1D       		.uleb128 0x1d
 8025 014d 01       		.byte	0x1
 8026 014e 31       		.uleb128 0x31
 8027 014f 13       		.uleb128 0x13
 8028 0150 11       		.uleb128 0x11
 8029 0151 01       		.uleb128 0x1
 8030 0152 12       		.uleb128 0x12
 8031 0153 06       		.uleb128 0x6
 8032 0154 58       		.uleb128 0x58
 8033 0155 0B       		.uleb128 0xb
 8034 0156 59       		.uleb128 0x59
 8035 0157 05       		.uleb128 0x5
 8036 0158 01       		.uleb128 0x1
 8037 0159 13       		.uleb128 0x13
 8038 015a 00       		.byte	0
 8039 015b 00       		.byte	0
 8040 015c 1A       		.uleb128 0x1a
 8041 015d 0B       		.uleb128 0xb
 8042 015e 01       		.byte	0x1
 8043 015f 11       		.uleb128 0x11
 8044 0160 01       		.uleb128 0x1
 8045 0161 12       		.uleb128 0x12
 8046 0162 06       		.uleb128 0x6
 8047 0163 00       		.byte	0
 8048 0164 00       		.byte	0
 8049 0165 1B       		.uleb128 0x1b
 8050 0166 1D       		.uleb128 0x1d
 8051 0167 01       		.byte	0x1
 8052 0168 31       		.uleb128 0x31
 8053 0169 13       		.uleb128 0x13
 8054 016a 11       		.uleb128 0x11
 8055 016b 01       		.uleb128 0x1
 8056 016c 12       		.uleb128 0x12
 8057 016d 06       		.uleb128 0x6
 8058 016e 58       		.uleb128 0x58
 8059 016f 0B       		.uleb128 0xb
ARM GAS  C:\Users\AFDHAL~1\AppData\Local\Temp\cc29CzqQ.s 			page 224


 8060 0170 59       		.uleb128 0x59
 8061 0171 05       		.uleb128 0x5
 8062 0172 00       		.byte	0
 8063 0173 00       		.byte	0
 8064 0174 1C       		.uleb128 0x1c
 8065 0175 2E       		.uleb128 0x2e
 8066 0176 00       		.byte	0
 8067 0177 3F       		.uleb128 0x3f
 8068 0178 19       		.uleb128 0x19
 8069 0179 03       		.uleb128 0x3
 8070 017a 0E       		.uleb128 0xe
 8071 017b 3A       		.uleb128 0x3a
 8072 017c 0B       		.uleb128 0xb
 8073 017d 3B       		.uleb128 0x3b
 8074 017e 0B       		.uleb128 0xb
 8075 017f 27       		.uleb128 0x27
 8076 0180 19       		.uleb128 0x19
 8077 0181 11       		.uleb128 0x11
 8078 0182 01       		.uleb128 0x1
 8079 0183 12       		.uleb128 0x12
 8080 0184 06       		.uleb128 0x6
 8081 0185 40       		.uleb128 0x40
 8082 0186 18       		.uleb128 0x18
 8083 0187 9742     		.uleb128 0x2117
 8084 0189 19       		.uleb128 0x19
 8085 018a 00       		.byte	0
 8086 018b 00       		.byte	0
 8087 018c 1D       		.uleb128 0x1d
 8088 018d 2E       		.uleb128 0x2e
 8089 018e 01       		.byte	0x1
 8090 018f 3F       		.uleb128 0x3f
 8091 0190 19       		.uleb128 0x19
 8092 0191 03       		.uleb128 0x3
 8093 0192 0E       		.uleb128 0xe
 8094 0193 3A       		.uleb128 0x3a
 8095 0194 0B       		.uleb128 0xb
 8096 0195 3B       		.uleb128 0x3b
 8097 0196 0B       		.uleb128 0xb
 8098 0197 27       		.uleb128 0x27
 8099 0198 19       		.uleb128 0x19
 8100 0199 11       		.uleb128 0x11
 8101 019a 01       		.uleb128 0x1
 8102 019b 12       		.uleb128 0x12
 8103 019c 06       		.uleb128 0x6
 8104 019d 40       		.uleb128 0x40
 8105 019e 18       		.uleb128 0x18
 8106 019f 9742     		.uleb128 0x2117
 8107 01a1 19       		.uleb128 0x19
 8108 01a2 01       		.uleb128 0x1
 8109 01a3 13       		.uleb128 0x13
 8110 01a4 00       		.byte	0
 8111 01a5 00       		.byte	0
 8112 01a6 1E       		.uleb128 0x1e
 8113 01a7 34       		.uleb128 0x34
 8114 01a8 00       		.byte	0
 8115 01a9 03       		.uleb128 0x3
 8116 01aa 0E       		.uleb128 0xe
ARM GAS  C:\Users\AFDHAL~1\AppData\Local\Temp\cc29CzqQ.s 			page 225


 8117 01ab 3A       		.uleb128 0x3a
 8118 01ac 0B       		.uleb128 0xb
 8119 01ad 3B       		.uleb128 0x3b
 8120 01ae 0B       		.uleb128 0xb
 8121 01af 49       		.uleb128 0x49
 8122 01b0 13       		.uleb128 0x13
 8123 01b1 02       		.uleb128 0x2
 8124 01b2 18       		.uleb128 0x18
 8125 01b3 00       		.byte	0
 8126 01b4 00       		.byte	0
 8127 01b5 1F       		.uleb128 0x1f
 8128 01b6 1D       		.uleb128 0x1d
 8129 01b7 00       		.byte	0
 8130 01b8 31       		.uleb128 0x31
 8131 01b9 13       		.uleb128 0x13
 8132 01ba 52       		.uleb128 0x52
 8133 01bb 01       		.uleb128 0x1
 8134 01bc 55       		.uleb128 0x55
 8135 01bd 17       		.uleb128 0x17
 8136 01be 58       		.uleb128 0x58
 8137 01bf 0B       		.uleb128 0xb
 8138 01c0 59       		.uleb128 0x59
 8139 01c1 0B       		.uleb128 0xb
 8140 01c2 00       		.byte	0
 8141 01c3 00       		.byte	0
 8142 01c4 20       		.uleb128 0x20
 8143 01c5 1D       		.uleb128 0x1d
 8144 01c6 00       		.byte	0
 8145 01c7 31       		.uleb128 0x31
 8146 01c8 13       		.uleb128 0x13
 8147 01c9 11       		.uleb128 0x11
 8148 01ca 01       		.uleb128 0x1
 8149 01cb 12       		.uleb128 0x12
 8150 01cc 06       		.uleb128 0x6
 8151 01cd 58       		.uleb128 0x58
 8152 01ce 0B       		.uleb128 0xb
 8153 01cf 59       		.uleb128 0x59
 8154 01d0 0B       		.uleb128 0xb
 8155 01d1 00       		.byte	0
 8156 01d2 00       		.byte	0
 8157 01d3 21       		.uleb128 0x21
 8158 01d4 1D       		.uleb128 0x1d
 8159 01d5 01       		.byte	0x1
 8160 01d6 31       		.uleb128 0x31
 8161 01d7 13       		.uleb128 0x13
 8162 01d8 11       		.uleb128 0x11
 8163 01d9 01       		.uleb128 0x1
 8164 01da 12       		.uleb128 0x12
 8165 01db 06       		.uleb128 0x6
 8166 01dc 58       		.uleb128 0x58
 8167 01dd 0B       		.uleb128 0xb
 8168 01de 59       		.uleb128 0x59
 8169 01df 0B       		.uleb128 0xb
 8170 01e0 01       		.uleb128 0x1
 8171 01e1 13       		.uleb128 0x13
 8172 01e2 00       		.byte	0
 8173 01e3 00       		.byte	0
ARM GAS  C:\Users\AFDHAL~1\AppData\Local\Temp\cc29CzqQ.s 			page 226


 8174 01e4 22       		.uleb128 0x22
 8175 01e5 34       		.uleb128 0x34
 8176 01e6 00       		.byte	0
 8177 01e7 31       		.uleb128 0x31
 8178 01e8 13       		.uleb128 0x13
 8179 01e9 00       		.byte	0
 8180 01ea 00       		.byte	0
 8181 01eb 23       		.uleb128 0x23
 8182 01ec 1D       		.uleb128 0x1d
 8183 01ed 01       		.byte	0x1
 8184 01ee 31       		.uleb128 0x31
 8185 01ef 13       		.uleb128 0x13
 8186 01f0 52       		.uleb128 0x52
 8187 01f1 01       		.uleb128 0x1
 8188 01f2 55       		.uleb128 0x55
 8189 01f3 17       		.uleb128 0x17
 8190 01f4 58       		.uleb128 0x58
 8191 01f5 0B       		.uleb128 0xb
 8192 01f6 59       		.uleb128 0x59
 8193 01f7 0B       		.uleb128 0xb
 8194 01f8 01       		.uleb128 0x1
 8195 01f9 13       		.uleb128 0x13
 8196 01fa 00       		.byte	0
 8197 01fb 00       		.byte	0
 8198 01fc 24       		.uleb128 0x24
 8199 01fd 898201   		.uleb128 0x4109
 8200 0200 00       		.byte	0
 8201 0201 11       		.uleb128 0x11
 8202 0202 01       		.uleb128 0x1
 8203 0203 31       		.uleb128 0x31
 8204 0204 13       		.uleb128 0x13
 8205 0205 00       		.byte	0
 8206 0206 00       		.byte	0
 8207 0207 25       		.uleb128 0x25
 8208 0208 898201   		.uleb128 0x4109
 8209 020b 01       		.byte	0x1
 8210 020c 11       		.uleb128 0x11
 8211 020d 01       		.uleb128 0x1
 8212 020e 31       		.uleb128 0x31
 8213 020f 13       		.uleb128 0x13
 8214 0210 00       		.byte	0
 8215 0211 00       		.byte	0
 8216 0212 26       		.uleb128 0x26
 8217 0213 8A8201   		.uleb128 0x410a
 8218 0216 00       		.byte	0
 8219 0217 02       		.uleb128 0x2
 8220 0218 18       		.uleb128 0x18
 8221 0219 9142     		.uleb128 0x2111
 8222 021b 18       		.uleb128 0x18
 8223 021c 00       		.byte	0
 8224 021d 00       		.byte	0
 8225 021e 27       		.uleb128 0x27
 8226 021f 2E       		.uleb128 0x2e
 8227 0220 01       		.byte	0x1
 8228 0221 3F       		.uleb128 0x3f
 8229 0222 19       		.uleb128 0x19
 8230 0223 03       		.uleb128 0x3
ARM GAS  C:\Users\AFDHAL~1\AppData\Local\Temp\cc29CzqQ.s 			page 227


 8231 0224 0E       		.uleb128 0xe
 8232 0225 3A       		.uleb128 0x3a
 8233 0226 0B       		.uleb128 0xb
 8234 0227 3B       		.uleb128 0x3b
 8235 0228 05       		.uleb128 0x5
 8236 0229 27       		.uleb128 0x27
 8237 022a 19       		.uleb128 0x19
 8238 022b 49       		.uleb128 0x49
 8239 022c 13       		.uleb128 0x13
 8240 022d 11       		.uleb128 0x11
 8241 022e 01       		.uleb128 0x1
 8242 022f 12       		.uleb128 0x12
 8243 0230 06       		.uleb128 0x6
 8244 0231 40       		.uleb128 0x40
 8245 0232 18       		.uleb128 0x18
 8246 0233 9642     		.uleb128 0x2116
 8247 0235 19       		.uleb128 0x19
 8248 0236 01       		.uleb128 0x1
 8249 0237 13       		.uleb128 0x13
 8250 0238 00       		.byte	0
 8251 0239 00       		.byte	0
 8252 023a 28       		.uleb128 0x28
 8253 023b 05       		.uleb128 0x5
 8254 023c 00       		.byte	0
 8255 023d 03       		.uleb128 0x3
 8256 023e 0E       		.uleb128 0xe
 8257 023f 3A       		.uleb128 0x3a
 8258 0240 0B       		.uleb128 0xb
 8259 0241 3B       		.uleb128 0x3b
 8260 0242 05       		.uleb128 0x5
 8261 0243 49       		.uleb128 0x49
 8262 0244 13       		.uleb128 0x13
 8263 0245 02       		.uleb128 0x2
 8264 0246 17       		.uleb128 0x17
 8265 0247 00       		.byte	0
 8266 0248 00       		.byte	0
 8267 0249 29       		.uleb128 0x29
 8268 024a 34       		.uleb128 0x34
 8269 024b 00       		.byte	0
 8270 024c 03       		.uleb128 0x3
 8271 024d 0E       		.uleb128 0xe
 8272 024e 3A       		.uleb128 0x3a
 8273 024f 0B       		.uleb128 0xb
 8274 0250 3B       		.uleb128 0x3b
 8275 0251 05       		.uleb128 0x5
 8276 0252 49       		.uleb128 0x49
 8277 0253 13       		.uleb128 0x13
 8278 0254 02       		.uleb128 0x2
 8279 0255 17       		.uleb128 0x17
 8280 0256 00       		.byte	0
 8281 0257 00       		.byte	0
 8282 0258 2A       		.uleb128 0x2a
 8283 0259 1D       		.uleb128 0x1d
 8284 025a 01       		.byte	0x1
 8285 025b 31       		.uleb128 0x31
 8286 025c 13       		.uleb128 0x13
 8287 025d 52       		.uleb128 0x52
ARM GAS  C:\Users\AFDHAL~1\AppData\Local\Temp\cc29CzqQ.s 			page 228


 8288 025e 01       		.uleb128 0x1
 8289 025f 55       		.uleb128 0x55
 8290 0260 17       		.uleb128 0x17
 8291 0261 58       		.uleb128 0x58
 8292 0262 0B       		.uleb128 0xb
 8293 0263 59       		.uleb128 0x59
 8294 0264 05       		.uleb128 0x5
 8295 0265 00       		.byte	0
 8296 0266 00       		.byte	0
 8297 0267 2B       		.uleb128 0x2b
 8298 0268 2E       		.uleb128 0x2e
 8299 0269 01       		.byte	0x1
 8300 026a 31       		.uleb128 0x31
 8301 026b 13       		.uleb128 0x13
 8302 026c 11       		.uleb128 0x11
 8303 026d 01       		.uleb128 0x1
 8304 026e 12       		.uleb128 0x12
 8305 026f 06       		.uleb128 0x6
 8306 0270 40       		.uleb128 0x40
 8307 0271 18       		.uleb128 0x18
 8308 0272 9642     		.uleb128 0x2116
 8309 0274 19       		.uleb128 0x19
 8310 0275 01       		.uleb128 0x1
 8311 0276 13       		.uleb128 0x13
 8312 0277 00       		.byte	0
 8313 0278 00       		.byte	0
 8314 0279 2C       		.uleb128 0x2c
 8315 027a 05       		.uleb128 0x5
 8316 027b 00       		.byte	0
 8317 027c 31       		.uleb128 0x31
 8318 027d 13       		.uleb128 0x13
 8319 027e 02       		.uleb128 0x2
 8320 027f 18       		.uleb128 0x18
 8321 0280 00       		.byte	0
 8322 0281 00       		.byte	0
 8323 0282 2D       		.uleb128 0x2d
 8324 0283 2E       		.uleb128 0x2e
 8325 0284 01       		.byte	0x1
 8326 0285 3F       		.uleb128 0x3f
 8327 0286 19       		.uleb128 0x19
 8328 0287 03       		.uleb128 0x3
 8329 0288 0E       		.uleb128 0xe
 8330 0289 3A       		.uleb128 0x3a
 8331 028a 0B       		.uleb128 0xb
 8332 028b 3B       		.uleb128 0x3b
 8333 028c 05       		.uleb128 0x5
 8334 028d 27       		.uleb128 0x27
 8335 028e 19       		.uleb128 0x19
 8336 028f 49       		.uleb128 0x49
 8337 0290 13       		.uleb128 0x13
 8338 0291 11       		.uleb128 0x11
 8339 0292 01       		.uleb128 0x1
 8340 0293 12       		.uleb128 0x12
 8341 0294 06       		.uleb128 0x6
 8342 0295 40       		.uleb128 0x40
 8343 0296 18       		.uleb128 0x18
 8344 0297 9742     		.uleb128 0x2117
ARM GAS  C:\Users\AFDHAL~1\AppData\Local\Temp\cc29CzqQ.s 			page 229


 8345 0299 19       		.uleb128 0x19
 8346 029a 01       		.uleb128 0x1
 8347 029b 13       		.uleb128 0x13
 8348 029c 00       		.byte	0
 8349 029d 00       		.byte	0
 8350 029e 2E       		.uleb128 0x2e
 8351 029f 2E       		.uleb128 0x2e
 8352 02a0 01       		.byte	0x1
 8353 02a1 3F       		.uleb128 0x3f
 8354 02a2 19       		.uleb128 0x19
 8355 02a3 03       		.uleb128 0x3
 8356 02a4 0E       		.uleb128 0xe
 8357 02a5 3A       		.uleb128 0x3a
 8358 02a6 0B       		.uleb128 0xb
 8359 02a7 3B       		.uleb128 0x3b
 8360 02a8 05       		.uleb128 0x5
 8361 02a9 27       		.uleb128 0x27
 8362 02aa 19       		.uleb128 0x19
 8363 02ab 11       		.uleb128 0x11
 8364 02ac 01       		.uleb128 0x1
 8365 02ad 12       		.uleb128 0x12
 8366 02ae 06       		.uleb128 0x6
 8367 02af 40       		.uleb128 0x40
 8368 02b0 18       		.uleb128 0x18
 8369 02b1 9742     		.uleb128 0x2117
 8370 02b3 19       		.uleb128 0x19
 8371 02b4 01       		.uleb128 0x1
 8372 02b5 13       		.uleb128 0x13
 8373 02b6 00       		.byte	0
 8374 02b7 00       		.byte	0
 8375 02b8 2F       		.uleb128 0x2f
 8376 02b9 1D       		.uleb128 0x1d
 8377 02ba 00       		.byte	0
 8378 02bb 31       		.uleb128 0x31
 8379 02bc 13       		.uleb128 0x13
 8380 02bd 52       		.uleb128 0x52
 8381 02be 01       		.uleb128 0x1
 8382 02bf 55       		.uleb128 0x55
 8383 02c0 17       		.uleb128 0x17
 8384 02c1 58       		.uleb128 0x58
 8385 02c2 0B       		.uleb128 0xb
 8386 02c3 59       		.uleb128 0x59
 8387 02c4 05       		.uleb128 0x5
 8388 02c5 00       		.byte	0
 8389 02c6 00       		.byte	0
 8390 02c7 30       		.uleb128 0x30
 8391 02c8 1D       		.uleb128 0x1d
 8392 02c9 00       		.byte	0
 8393 02ca 31       		.uleb128 0x31
 8394 02cb 13       		.uleb128 0x13
 8395 02cc 11       		.uleb128 0x11
 8396 02cd 01       		.uleb128 0x1
 8397 02ce 12       		.uleb128 0x12
 8398 02cf 06       		.uleb128 0x6
 8399 02d0 58       		.uleb128 0x58
 8400 02d1 0B       		.uleb128 0xb
 8401 02d2 59       		.uleb128 0x59
ARM GAS  C:\Users\AFDHAL~1\AppData\Local\Temp\cc29CzqQ.s 			page 230


 8402 02d3 05       		.uleb128 0x5
 8403 02d4 00       		.byte	0
 8404 02d5 00       		.byte	0
 8405 02d6 31       		.uleb128 0x31
 8406 02d7 2E       		.uleb128 0x2e
 8407 02d8 00       		.byte	0
 8408 02d9 31       		.uleb128 0x31
 8409 02da 13       		.uleb128 0x13
 8410 02db 11       		.uleb128 0x11
 8411 02dc 01       		.uleb128 0x1
 8412 02dd 12       		.uleb128 0x12
 8413 02de 06       		.uleb128 0x6
 8414 02df 40       		.uleb128 0x40
 8415 02e0 18       		.uleb128 0x18
 8416 02e1 9742     		.uleb128 0x2117
 8417 02e3 19       		.uleb128 0x19
 8418 02e4 00       		.byte	0
 8419 02e5 00       		.byte	0
 8420 02e6 32       		.uleb128 0x32
 8421 02e7 2E       		.uleb128 0x2e
 8422 02e8 01       		.byte	0x1
 8423 02e9 31       		.uleb128 0x31
 8424 02ea 13       		.uleb128 0x13
 8425 02eb 11       		.uleb128 0x11
 8426 02ec 01       		.uleb128 0x1
 8427 02ed 12       		.uleb128 0x12
 8428 02ee 06       		.uleb128 0x6
 8429 02ef 40       		.uleb128 0x40
 8430 02f0 18       		.uleb128 0x18
 8431 02f1 9742     		.uleb128 0x2117
 8432 02f3 19       		.uleb128 0x19
 8433 02f4 01       		.uleb128 0x1
 8434 02f5 13       		.uleb128 0x13
 8435 02f6 00       		.byte	0
 8436 02f7 00       		.byte	0
 8437 02f8 33       		.uleb128 0x33
 8438 02f9 05       		.uleb128 0x5
 8439 02fa 00       		.byte	0
 8440 02fb 31       		.uleb128 0x31
 8441 02fc 13       		.uleb128 0x13
 8442 02fd 00       		.byte	0
 8443 02fe 00       		.byte	0
 8444 02ff 34       		.uleb128 0x34
 8445 0300 05       		.uleb128 0x5
 8446 0301 00       		.byte	0
 8447 0302 03       		.uleb128 0x3
 8448 0303 0E       		.uleb128 0xe
 8449 0304 3A       		.uleb128 0x3a
 8450 0305 0B       		.uleb128 0xb
 8451 0306 3B       		.uleb128 0x3b
 8452 0307 05       		.uleb128 0x5
 8453 0308 49       		.uleb128 0x49
 8454 0309 13       		.uleb128 0x13
 8455 030a 02       		.uleb128 0x2
 8456 030b 18       		.uleb128 0x18
 8457 030c 00       		.byte	0
 8458 030d 00       		.byte	0
ARM GAS  C:\Users\AFDHAL~1\AppData\Local\Temp\cc29CzqQ.s 			page 231


 8459 030e 35       		.uleb128 0x35
 8460 030f 2E       		.uleb128 0x2e
 8461 0310 00       		.byte	0
 8462 0311 3F       		.uleb128 0x3f
 8463 0312 19       		.uleb128 0x19
 8464 0313 03       		.uleb128 0x3
 8465 0314 0E       		.uleb128 0xe
 8466 0315 3A       		.uleb128 0x3a
 8467 0316 0B       		.uleb128 0xb
 8468 0317 3B       		.uleb128 0x3b
 8469 0318 05       		.uleb128 0x5
 8470 0319 27       		.uleb128 0x27
 8471 031a 19       		.uleb128 0x19
 8472 031b 49       		.uleb128 0x49
 8473 031c 13       		.uleb128 0x13
 8474 031d 11       		.uleb128 0x11
 8475 031e 01       		.uleb128 0x1
 8476 031f 12       		.uleb128 0x12
 8477 0320 06       		.uleb128 0x6
 8478 0321 40       		.uleb128 0x40
 8479 0322 18       		.uleb128 0x18
 8480 0323 9742     		.uleb128 0x2117
 8481 0325 19       		.uleb128 0x19
 8482 0326 00       		.byte	0
 8483 0327 00       		.byte	0
 8484 0328 36       		.uleb128 0x36
 8485 0329 2E       		.uleb128 0x2e
 8486 032a 01       		.byte	0x1
 8487 032b 3F       		.uleb128 0x3f
 8488 032c 19       		.uleb128 0x19
 8489 032d 03       		.uleb128 0x3
 8490 032e 0E       		.uleb128 0xe
 8491 032f 3A       		.uleb128 0x3a
 8492 0330 0B       		.uleb128 0xb
 8493 0331 3B       		.uleb128 0x3b
 8494 0332 05       		.uleb128 0x5
 8495 0333 27       		.uleb128 0x27
 8496 0334 19       		.uleb128 0x19
 8497 0335 11       		.uleb128 0x11
 8498 0336 01       		.uleb128 0x1
 8499 0337 12       		.uleb128 0x12
 8500 0338 06       		.uleb128 0x6
 8501 0339 40       		.uleb128 0x40
 8502 033a 18       		.uleb128 0x18
 8503 033b 9642     		.uleb128 0x2116
 8504 033d 19       		.uleb128 0x19
 8505 033e 01       		.uleb128 0x1
 8506 033f 13       		.uleb128 0x13
 8507 0340 00       		.byte	0
 8508 0341 00       		.byte	0
 8509 0342 37       		.uleb128 0x37
 8510 0343 05       		.uleb128 0x5
 8511 0344 00       		.byte	0
 8512 0345 31       		.uleb128 0x31
 8513 0346 13       		.uleb128 0x13
 8514 0347 1C       		.uleb128 0x1c
 8515 0348 05       		.uleb128 0x5
ARM GAS  C:\Users\AFDHAL~1\AppData\Local\Temp\cc29CzqQ.s 			page 232


 8516 0349 00       		.byte	0
 8517 034a 00       		.byte	0
 8518 034b 38       		.uleb128 0x38
 8519 034c 34       		.uleb128 0x34
 8520 034d 00       		.byte	0
 8521 034e 31       		.uleb128 0x31
 8522 034f 13       		.uleb128 0x13
 8523 0350 02       		.uleb128 0x2
 8524 0351 18       		.uleb128 0x18
 8525 0352 00       		.byte	0
 8526 0353 00       		.byte	0
 8527 0354 39       		.uleb128 0x39
 8528 0355 0B       		.uleb128 0xb
 8529 0356 01       		.byte	0x1
 8530 0357 55       		.uleb128 0x55
 8531 0358 17       		.uleb128 0x17
 8532 0359 01       		.uleb128 0x1
 8533 035a 13       		.uleb128 0x13
 8534 035b 00       		.byte	0
 8535 035c 00       		.byte	0
 8536 035d 3A       		.uleb128 0x3a
 8537 035e 0B       		.uleb128 0xb
 8538 035f 01       		.byte	0x1
 8539 0360 11       		.uleb128 0x11
 8540 0361 01       		.uleb128 0x1
 8541 0362 12       		.uleb128 0x12
 8542 0363 06       		.uleb128 0x6
 8543 0364 01       		.uleb128 0x1
 8544 0365 13       		.uleb128 0x13
 8545 0366 00       		.byte	0
 8546 0367 00       		.byte	0
 8547 0368 3B       		.uleb128 0x3b
 8548 0369 01       		.uleb128 0x1
 8549 036a 01       		.byte	0x1
 8550 036b 49       		.uleb128 0x49
 8551 036c 13       		.uleb128 0x13
 8552 036d 01       		.uleb128 0x1
 8553 036e 13       		.uleb128 0x13
 8554 036f 00       		.byte	0
 8555 0370 00       		.byte	0
 8556 0371 3C       		.uleb128 0x3c
 8557 0372 21       		.uleb128 0x21
 8558 0373 00       		.byte	0
 8559 0374 49       		.uleb128 0x49
 8560 0375 13       		.uleb128 0x13
 8561 0376 2F       		.uleb128 0x2f
 8562 0377 0B       		.uleb128 0xb
 8563 0378 00       		.byte	0
 8564 0379 00       		.byte	0
 8565 037a 3D       		.uleb128 0x3d
 8566 037b 26       		.uleb128 0x26
 8567 037c 00       		.byte	0
 8568 037d 49       		.uleb128 0x49
 8569 037e 13       		.uleb128 0x13
 8570 037f 00       		.byte	0
 8571 0380 00       		.byte	0
 8572 0381 3E       		.uleb128 0x3e
ARM GAS  C:\Users\AFDHAL~1\AppData\Local\Temp\cc29CzqQ.s 			page 233


 8573 0382 34       		.uleb128 0x34
 8574 0383 00       		.byte	0
 8575 0384 03       		.uleb128 0x3
 8576 0385 0E       		.uleb128 0xe
 8577 0386 3A       		.uleb128 0x3a
 8578 0387 0B       		.uleb128 0xb
 8579 0388 3B       		.uleb128 0x3b
 8580 0389 0B       		.uleb128 0xb
 8581 038a 49       		.uleb128 0x49
 8582 038b 13       		.uleb128 0x13
 8583 038c 3F       		.uleb128 0x3f
 8584 038d 19       		.uleb128 0x19
 8585 038e 3C       		.uleb128 0x3c
 8586 038f 19       		.uleb128 0x19
 8587 0390 00       		.byte	0
 8588 0391 00       		.byte	0
 8589 0392 3F       		.uleb128 0x3f
 8590 0393 2E       		.uleb128 0x2e
 8591 0394 00       		.byte	0
 8592 0395 3F       		.uleb128 0x3f
 8593 0396 19       		.uleb128 0x19
 8594 0397 3C       		.uleb128 0x3c
 8595 0398 19       		.uleb128 0x19
 8596 0399 6E       		.uleb128 0x6e
 8597 039a 0E       		.uleb128 0xe
 8598 039b 03       		.uleb128 0x3
 8599 039c 0E       		.uleb128 0xe
 8600 039d 3A       		.uleb128 0x3a
 8601 039e 0B       		.uleb128 0xb
 8602 039f 3B       		.uleb128 0x3b
 8603 03a0 0B       		.uleb128 0xb
 8604 03a1 00       		.byte	0
 8605 03a2 00       		.byte	0
 8606 03a3 00       		.byte	0
 8607              		.section	.debug_loc,"",%progbits
 8608              	.Ldebug_loc0:
 8609              	.LLST0:
 8610 0000 00000000 		.4byte	.LVL0
 8611 0004 06000000 		.4byte	.LVL1
 8612 0008 0200     		.2byte	0x2
 8613 000a 30       		.byte	0x30
 8614 000b 9F       		.byte	0x9f
 8615 000c 00000000 		.4byte	0
 8616 0010 00000000 		.4byte	0
 8617              	.LLST1:
 8618 0014 12000000 		.4byte	.LVL2
 8619 0018 1C000000 		.4byte	.LVL3
 8620 001c 0200     		.2byte	0x2
 8621 001e 30       		.byte	0x30
 8622 001f 9F       		.byte	0x9f
 8623 0020 56000000 		.4byte	.LVL12
 8624 0024 60000000 		.4byte	.LVL14
 8625 0028 0200     		.2byte	0x2
 8626 002a 31       		.byte	0x31
 8627 002b 9F       		.byte	0x9f
 8628 002c 9A000000 		.4byte	.LVL24
 8629 0030 AA000000 		.4byte	.LVL25
ARM GAS  C:\Users\AFDHAL~1\AppData\Local\Temp\cc29CzqQ.s 			page 234


 8630 0034 0100     		.2byte	0x1
 8631 0036 52       		.byte	0x52
 8632 0037 B0000000 		.4byte	.LVL26
 8633 003b CC000000 		.4byte	.LFE43
 8634 003f 0200     		.2byte	0x2
 8635 0041 32       		.byte	0x32
 8636 0042 9F       		.byte	0x9f
 8637 0043 00000000 		.4byte	0
 8638 0047 00000000 		.4byte	0
 8639              	.LLST2:
 8640 004b 12000000 		.4byte	.LVL2
 8641 004f 1C000000 		.4byte	.LVL3
 8642 0053 0200     		.2byte	0x2
 8643 0055 30       		.byte	0x30
 8644 0056 9F       		.byte	0x9f
 8645 0057 56000000 		.4byte	.LVL12
 8646 005b 5E000000 		.4byte	.LVL13
 8647 005f 0200     		.2byte	0x2
 8648 0061 30       		.byte	0x30
 8649 0062 9F       		.byte	0x9f
 8650 0063 5E000000 		.4byte	.LVL13
 8651 0067 60000000 		.4byte	.LVL14
 8652 006b 0100     		.2byte	0x1
 8653 006d 51       		.byte	0x51
 8654 006e 9A000000 		.4byte	.LVL24
 8655 0072 AA000000 		.4byte	.LVL25
 8656 0076 0200     		.2byte	0x2
 8657 0078 30       		.byte	0x30
 8658 0079 9F       		.byte	0x9f
 8659 007a B0000000 		.4byte	.LVL26
 8660 007e B6000000 		.4byte	.LVL27
 8661 0082 0200     		.2byte	0x2
 8662 0084 30       		.byte	0x30
 8663 0085 9F       		.byte	0x9f
 8664 0086 B6000000 		.4byte	.LVL27
 8665 008a CC000000 		.4byte	.LFE43
 8666 008e 0100     		.2byte	0x1
 8667 0090 51       		.byte	0x51
 8668 0091 00000000 		.4byte	0
 8669 0095 00000000 		.4byte	0
 8670              	.LLST3:
 8671 0099 22000000 		.4byte	.LVL4
 8672 009d 2C000000 		.4byte	.LVL5
 8673 00a1 0100     		.2byte	0x1
 8674 00a3 52       		.byte	0x52
 8675 00a4 30000000 		.4byte	.LVL6
 8676 00a8 38000000 		.4byte	.LVL7
 8677 00ac 0100     		.2byte	0x1
 8678 00ae 52       		.byte	0x52
 8679 00af 3E000000 		.4byte	.LVL8
 8680 00b3 4A000000 		.4byte	.LVL10
 8681 00b7 0100     		.2byte	0x1
 8682 00b9 52       		.byte	0x52
 8683 00ba 00000000 		.4byte	0
 8684 00be 00000000 		.4byte	0
 8685              	.LLST4:
 8686 00c2 22000000 		.4byte	.LVL4
ARM GAS  C:\Users\AFDHAL~1\AppData\Local\Temp\cc29CzqQ.s 			page 235


 8687 00c6 2C000000 		.4byte	.LVL5
 8688 00ca 0200     		.2byte	0x2
 8689 00cc 30       		.byte	0x30
 8690 00cd 9F       		.byte	0x9f
 8691 00ce 30000000 		.4byte	.LVL6
 8692 00d2 38000000 		.4byte	.LVL7
 8693 00d6 0200     		.2byte	0x2
 8694 00d8 30       		.byte	0x30
 8695 00d9 9F       		.byte	0x9f
 8696 00da 3E000000 		.4byte	.LVL8
 8697 00de 48000000 		.4byte	.LVL9
 8698 00e2 0200     		.2byte	0x2
 8699 00e4 30       		.byte	0x30
 8700 00e5 9F       		.byte	0x9f
 8701 00e6 48000000 		.4byte	.LVL9
 8702 00ea 4A000000 		.4byte	.LVL10
 8703 00ee 0100     		.2byte	0x1
 8704 00f0 53       		.byte	0x53
 8705 00f1 00000000 		.4byte	0
 8706 00f5 00000000 		.4byte	0
 8707              	.LLST5:
 8708 00f9 4A000000 		.4byte	.LVL10
 8709 00fd 4C000000 		.4byte	.LVL11
 8710 0101 0200     		.2byte	0x2
 8711 0103 31       		.byte	0x31
 8712 0104 9F       		.byte	0x9f
 8713 0105 00000000 		.4byte	0
 8714 0109 00000000 		.4byte	0
 8715              	.LLST6:
 8716 010d 60000000 		.4byte	.LVL14
 8717 0111 62000000 		.4byte	.LVL15
 8718 0115 0200     		.2byte	0x2
 8719 0117 32       		.byte	0x32
 8720 0118 9F       		.byte	0x9f
 8721 0119 00000000 		.4byte	0
 8722 011d 00000000 		.4byte	0
 8723              	.LLST7:
 8724 0121 72000000 		.4byte	.LVL16
 8725 0125 74000000 		.4byte	.LVL17
 8726 0129 0200     		.2byte	0x2
 8727 012b 30       		.byte	0x30
 8728 012c 9F       		.byte	0x9f
 8729 012d 00000000 		.4byte	0
 8730 0131 00000000 		.4byte	0
 8731              	.LLST8:
 8732 0135 78000000 		.4byte	.LVL18
 8733 0139 86000000 		.4byte	.LVL21
 8734 013d 0200     		.2byte	0x2
 8735 013f 30       		.byte	0x30
 8736 0140 9F       		.byte	0x9f
 8737 0141 00000000 		.4byte	0
 8738 0145 00000000 		.4byte	0
 8739              	.LLST10:
 8740 0149 84000000 		.4byte	.LVL20
 8741 014d 86000000 		.4byte	.LVL21
 8742 0151 0100     		.2byte	0x1
 8743 0153 53       		.byte	0x53
ARM GAS  C:\Users\AFDHAL~1\AppData\Local\Temp\cc29CzqQ.s 			page 236


 8744 0154 00000000 		.4byte	0
 8745 0158 00000000 		.4byte	0
 8746              	.LLST11:
 8747 015c 78000000 		.4byte	.LVL18
 8748 0160 7A000000 		.4byte	.LVL19
 8749 0164 0200     		.2byte	0x2
 8750 0166 30       		.byte	0x30
 8751 0167 9F       		.byte	0x9f
 8752 0168 00000000 		.4byte	0
 8753 016c 00000000 		.4byte	0
 8754              	.LLST12:
 8755 0170 86000000 		.4byte	.LVL21
 8756 0174 AA000000 		.4byte	.LVL25
 8757 0178 0200     		.2byte	0x2
 8758 017a 31       		.byte	0x31
 8759 017b 9F       		.byte	0x9f
 8760 017c 00000000 		.4byte	0
 8761 0180 00000000 		.4byte	0
 8762              	.LLST13:
 8763 0184 92000000 		.4byte	.LVL22
 8764 0188 94000000 		.4byte	.LVL23
 8765 018c 0200     		.2byte	0x2
 8766 018e 30       		.byte	0x30
 8767 018f 9F       		.byte	0x9f
 8768 0190 00000000 		.4byte	0
 8769 0194 00000000 		.4byte	0
 8770              	.LLST14:
 8771 0198 56000000 		.4byte	.LVL32
 8772 019c 6C000000 		.4byte	.LVL36
 8773 01a0 0500     		.2byte	0x5
 8774 01a2 03       		.byte	0x3
 8775 01a3 08000000 		.4byte	lfclkPosedgeWdtCounter0Mode
 8776 01a7 00000000 		.4byte	0
 8777 01ab 00000000 		.4byte	0
 8778              	.LLST15:
 8779 01af 56000000 		.4byte	.LVL32
 8780 01b3 6C000000 		.4byte	.LVL36
 8781 01b7 0200     		.2byte	0x2
 8782 01b9 30       		.byte	0x30
 8783 01ba 9F       		.byte	0x9f
 8784 01bb 00000000 		.4byte	0
 8785 01bf 00000000 		.4byte	0
 8786              	.LLST16:
 8787 01c3 66000000 		.4byte	.LVL34
 8788 01c7 6A000000 		.4byte	.LVL35
 8789 01cb 0100     		.2byte	0x1
 8790 01cd 51       		.byte	0x51
 8791 01ce 6A000000 		.4byte	.LVL35
 8792 01d2 6C000000 		.4byte	.LVL36
 8793 01d6 0100     		.2byte	0x1
 8794 01d8 52       		.byte	0x52
 8795 01d9 00000000 		.4byte	0
 8796 01dd 00000000 		.4byte	0
 8797              	.LLST17:
 8798 01e1 56000000 		.4byte	.LVL32
 8799 01e5 58000000 		.4byte	.LVL33
 8800 01e9 0200     		.2byte	0x2
ARM GAS  C:\Users\AFDHAL~1\AppData\Local\Temp\cc29CzqQ.s 			page 237


 8801 01eb 30       		.byte	0x30
 8802 01ec 9F       		.byte	0x9f
 8803 01ed 00000000 		.4byte	0
 8804 01f1 00000000 		.4byte	0
 8805              	.LLST18:
 8806 01f5 00000000 		.4byte	.LVL37
 8807 01f9 18000000 		.4byte	.LVL40
 8808 01fd 0100     		.2byte	0x1
 8809 01ff 50       		.byte	0x50
 8810 0200 18000000 		.4byte	.LVL40
 8811 0204 1C000000 		.4byte	.LVL41
 8812 0208 0100     		.2byte	0x1
 8813 020a 54       		.byte	0x54
 8814 020b 1C000000 		.4byte	.LVL41
 8815 020f 22000000 		.4byte	.LVL43
 8816 0213 0400     		.2byte	0x4
 8817 0215 F3       		.byte	0xf3
 8818 0216 01       		.uleb128 0x1
 8819 0217 50       		.byte	0x50
 8820 0218 9F       		.byte	0x9f
 8821 0219 22000000 		.4byte	.LVL43
 8822 021d 88000000 		.4byte	.LVL51
 8823 0221 0100     		.2byte	0x1
 8824 0223 54       		.byte	0x54
 8825 0224 88000000 		.4byte	.LVL51
 8826 0228 90000000 		.4byte	.LVL54
 8827 022c 0400     		.2byte	0x4
 8828 022e F3       		.byte	0xf3
 8829 022f 01       		.uleb128 0x1
 8830 0230 50       		.byte	0x50
 8831 0231 9F       		.byte	0x9f
 8832 0232 90000000 		.4byte	.LVL54
 8833 0236 96000000 		.4byte	.LVL55
 8834 023a 0100     		.2byte	0x1
 8835 023c 54       		.byte	0x54
 8836 023d 96000000 		.4byte	.LVL55
 8837 0241 F4000000 		.4byte	.LFE5
 8838 0245 0400     		.2byte	0x4
 8839 0247 F3       		.byte	0xf3
 8840 0248 01       		.uleb128 0x1
 8841 0249 50       		.byte	0x50
 8842 024a 9F       		.byte	0x9f
 8843 024b 00000000 		.4byte	0
 8844 024f 00000000 		.4byte	0
 8845              	.LLST19:
 8846 0253 00000000 		.4byte	.LVL37
 8847 0257 1C000000 		.4byte	.LVL41
 8848 025b 0100     		.2byte	0x1
 8849 025d 51       		.byte	0x51
 8850 025e 1C000000 		.4byte	.LVL41
 8851 0262 1C000000 		.4byte	.LVL42
 8852 0266 0100     		.2byte	0x1
 8853 0268 55       		.byte	0x55
 8854 0269 1C000000 		.4byte	.LVL42
 8855 026d 22000000 		.4byte	.LVL43
 8856 0271 0400     		.2byte	0x4
 8857 0273 F3       		.byte	0xf3
ARM GAS  C:\Users\AFDHAL~1\AppData\Local\Temp\cc29CzqQ.s 			page 238


 8858 0274 01       		.uleb128 0x1
 8859 0275 51       		.byte	0x51
 8860 0276 9F       		.byte	0x9f
 8861 0277 22000000 		.4byte	.LVL43
 8862 027b 74000000 		.4byte	.LVL48
 8863 027f 0100     		.2byte	0x1
 8864 0281 51       		.byte	0x51
 8865 0282 74000000 		.4byte	.LVL48
 8866 0286 90000000 		.4byte	.LVL54
 8867 028a 0100     		.2byte	0x1
 8868 028c 55       		.byte	0x55
 8869 028d 90000000 		.4byte	.LVL54
 8870 0291 9C000000 		.4byte	.LVL56
 8871 0295 0100     		.2byte	0x1
 8872 0297 51       		.byte	0x51
 8873 0298 9C000000 		.4byte	.LVL56
 8874 029c F4000000 		.4byte	.LFE5
 8875 02a0 0100     		.2byte	0x1
 8876 02a2 55       		.byte	0x55
 8877 02a3 00000000 		.4byte	0
 8878 02a7 00000000 		.4byte	0
 8879              	.LLST20:
 8880 02ab 88000000 		.4byte	.LVL51
 8881 02af 8C000000 		.4byte	.LVL52
 8882 02b3 0100     		.2byte	0x1
 8883 02b5 50       		.byte	0x50
 8884 02b6 8C000000 		.4byte	.LVL52
 8885 02ba 90000000 		.4byte	.LVL54
 8886 02be 0200     		.2byte	0x2
 8887 02c0 75       		.byte	0x75
 8888 02c1 00       		.sleb128 0
 8889 02c2 BC000000 		.4byte	.LVL59
 8890 02c6 F4000000 		.4byte	.LFE5
 8891 02ca 0100     		.2byte	0x1
 8892 02cc 50       		.byte	0x50
 8893 02cd 00000000 		.4byte	0
 8894 02d1 00000000 		.4byte	0
 8895              	.LLST21:
 8896 02d5 6E000000 		.4byte	.LVL47
 8897 02d9 88000000 		.4byte	.LVL51
 8898 02dd 0B00     		.2byte	0xb
 8899 02df 74       		.byte	0x74
 8900 02e0 00       		.sleb128 0
 8901 02e1 F7       		.byte	0xf7
 8902 02e2 25       		.uleb128 0x25
 8903 02e3 4F       		.byte	0x4f
 8904 02e4 F7       		.byte	0xf7
 8905 02e5 25       		.uleb128 0x25
 8906 02e6 1B       		.byte	0x1b
 8907 02e7 F7       		.byte	0xf7
 8908 02e8 00       		.uleb128 0
 8909 02e9 9F       		.byte	0x9f
 8910 02ea 90000000 		.4byte	.LVL54
 8911 02ee 96000000 		.4byte	.LVL55
 8912 02f2 1300     		.2byte	0x13
 8913 02f4 74       		.byte	0x74
 8914 02f5 00       		.sleb128 0
ARM GAS  C:\Users\AFDHAL~1\AppData\Local\Temp\cc29CzqQ.s 			page 239


 8915 02f6 08       		.byte	0x8
 8916 02f7 64       		.byte	0x64
 8917 02f8 1E       		.byte	0x1e
 8918 02f9 23       		.byte	0x23
 8919 02fa 8D06     		.uleb128 0x30d
 8920 02fc F7       		.byte	0xf7
 8921 02fd 25       		.uleb128 0x25
 8922 02fe 0A       		.byte	0xa
 8923 02ff 350C     		.2byte	0xc35
 8924 0301 F7       		.byte	0xf7
 8925 0302 25       		.uleb128 0x25
 8926 0303 1B       		.byte	0x1b
 8927 0304 F7       		.byte	0xf7
 8928 0305 00       		.uleb128 0
 8929 0306 9F       		.byte	0x9f
 8930 0307 96000000 		.4byte	.LVL55
 8931 030b F4000000 		.4byte	.LFE5
 8932 030f 1400     		.2byte	0x14
 8933 0311 F3       		.byte	0xf3
 8934 0312 01       		.uleb128 0x1
 8935 0313 50       		.byte	0x50
 8936 0314 08       		.byte	0x8
 8937 0315 64       		.byte	0x64
 8938 0316 1E       		.byte	0x1e
 8939 0317 23       		.byte	0x23
 8940 0318 8D06     		.uleb128 0x30d
 8941 031a F7       		.byte	0xf7
 8942 031b 25       		.uleb128 0x25
 8943 031c 0A       		.byte	0xa
 8944 031d 350C     		.2byte	0xc35
 8945 031f F7       		.byte	0xf7
 8946 0320 25       		.uleb128 0x25
 8947 0321 1B       		.byte	0x1b
 8948 0322 F7       		.byte	0xf7
 8949 0323 00       		.uleb128 0
 8950 0324 9F       		.byte	0x9f
 8951 0325 00000000 		.4byte	0
 8952 0329 00000000 		.4byte	0
 8953              	.LLST22:
 8954 032d 06000000 		.4byte	.LVL38
 8955 0331 0C000000 		.4byte	.LVL39
 8956 0335 0700     		.2byte	0x7
 8957 0337 72       		.byte	0x72
 8958 0338 00       		.sleb128 0
 8959 0339 0A       		.byte	0xa
 8960 033a 3F3F     		.2byte	0x3f3f
 8961 033c 1A       		.byte	0x1a
 8962 033d 9F       		.byte	0x9f
 8963 033e 0C000000 		.4byte	.LVL39
 8964 0342 1C000000 		.4byte	.LVL41
 8965 0346 0100     		.2byte	0x1
 8966 0348 53       		.byte	0x53
 8967 0349 22000000 		.4byte	.LVL43
 8968 034d 24000000 		.4byte	.LVL44
 8969 0351 0100     		.2byte	0x1
 8970 0353 53       		.byte	0x53
 8971 0354 00000000 		.4byte	0
ARM GAS  C:\Users\AFDHAL~1\AppData\Local\Temp\cc29CzqQ.s 			page 240


 8972 0358 00000000 		.4byte	0
 8973              	.LLST23:
 8974 035c 1C000000 		.4byte	.LVL41
 8975 0360 22000000 		.4byte	.LVL43
 8976 0364 0100     		.2byte	0x1
 8977 0366 50       		.byte	0x50
 8978 0367 52000000 		.4byte	.LVL45
 8979 036b 54000000 		.4byte	.LVL46
 8980 036f 0200     		.2byte	0x2
 8981 0371 37       		.byte	0x37
 8982 0372 9F       		.byte	0x9f
 8983 0373 8E000000 		.4byte	.LVL53
 8984 0377 90000000 		.4byte	.LVL54
 8985 037b 0200     		.2byte	0x2
 8986 037d 30       		.byte	0x30
 8987 037e 9F       		.byte	0x9f
 8988 037f 00000000 		.4byte	0
 8989 0383 00000000 		.4byte	0
 8990              	.LLST24:
 8991 0387 00000000 		.4byte	.LVL60
 8992 038b 1E000000 		.4byte	.LVL63
 8993 038f 0100     		.2byte	0x1
 8994 0391 50       		.byte	0x50
 8995 0392 1E000000 		.4byte	.LVL63
 8996 0396 2C000000 		.4byte	.LVL65
 8997 039a 0400     		.2byte	0x4
 8998 039c F3       		.byte	0xf3
 8999 039d 01       		.uleb128 0x1
 9000 039e 50       		.byte	0x50
 9001 039f 9F       		.byte	0x9f
 9002 03a0 2C000000 		.4byte	.LVL65
 9003 03a4 58000000 		.4byte	.LVL68
 9004 03a8 0100     		.2byte	0x1
 9005 03aa 50       		.byte	0x50
 9006 03ab 58000000 		.4byte	.LVL68
 9007 03af FA000000 		.4byte	.LVL86
 9008 03b3 0400     		.2byte	0x4
 9009 03b5 F3       		.byte	0xf3
 9010 03b6 01       		.uleb128 0x1
 9011 03b7 50       		.byte	0x50
 9012 03b8 9F       		.byte	0x9f
 9013 03b9 FA000000 		.4byte	.LVL86
 9014 03bd 0C010000 		.4byte	.LVL87
 9015 03c1 0100     		.2byte	0x1
 9016 03c3 50       		.byte	0x50
 9017 03c4 0C010000 		.4byte	.LVL87
 9018 03c8 24010000 		.4byte	.LVL92
 9019 03cc 0400     		.2byte	0x4
 9020 03ce F3       		.byte	0xf3
 9021 03cf 01       		.uleb128 0x1
 9022 03d0 50       		.byte	0x50
 9023 03d1 9F       		.byte	0x9f
 9024 03d2 24010000 		.4byte	.LVL92
 9025 03d6 28010000 		.4byte	.LVL93
 9026 03da 0100     		.2byte	0x1
 9027 03dc 50       		.byte	0x50
 9028 03dd 28010000 		.4byte	.LVL93
ARM GAS  C:\Users\AFDHAL~1\AppData\Local\Temp\cc29CzqQ.s 			page 241


 9029 03e1 FC010000 		.4byte	.LFE7
 9030 03e5 0400     		.2byte	0x4
 9031 03e7 F3       		.byte	0xf3
 9032 03e8 01       		.uleb128 0x1
 9033 03e9 50       		.byte	0x50
 9034 03ea 9F       		.byte	0x9f
 9035 03eb 00000000 		.4byte	0
 9036 03ef 00000000 		.4byte	0
 9037              	.LLST25:
 9038 03f3 00000000 		.4byte	.LVL60
 9039 03f7 1E000000 		.4byte	.LVL63
 9040 03fb 0100     		.2byte	0x1
 9041 03fd 51       		.byte	0x51
 9042 03fe 1E000000 		.4byte	.LVL63
 9043 0402 20000000 		.4byte	.LVL64
 9044 0406 0100     		.2byte	0x1
 9045 0408 55       		.byte	0x55
 9046 0409 20000000 		.4byte	.LVL64
 9047 040d 2C000000 		.4byte	.LVL65
 9048 0411 0400     		.2byte	0x4
 9049 0413 F3       		.byte	0xf3
 9050 0414 01       		.uleb128 0x1
 9051 0415 51       		.byte	0x51
 9052 0416 9F       		.byte	0x9f
 9053 0417 2C000000 		.4byte	.LVL65
 9054 041b 58000000 		.4byte	.LVL68
 9055 041f 0100     		.2byte	0x1
 9056 0421 51       		.byte	0x51
 9057 0422 58000000 		.4byte	.LVL68
 9058 0426 FA000000 		.4byte	.LVL86
 9059 042a 0100     		.2byte	0x1
 9060 042c 55       		.byte	0x55
 9061 042d FA000000 		.4byte	.LVL86
 9062 0431 18010000 		.4byte	.LVL89
 9063 0435 0100     		.2byte	0x1
 9064 0437 51       		.byte	0x51
 9065 0438 18010000 		.4byte	.LVL89
 9066 043c 24010000 		.4byte	.LVL92
 9067 0440 0100     		.2byte	0x1
 9068 0442 55       		.byte	0x55
 9069 0443 24010000 		.4byte	.LVL92
 9070 0447 3A010000 		.4byte	.LVL95
 9071 044b 0100     		.2byte	0x1
 9072 044d 51       		.byte	0x51
 9073 044e 3A010000 		.4byte	.LVL95
 9074 0452 56010000 		.4byte	.LVL99
 9075 0456 0100     		.2byte	0x1
 9076 0458 55       		.byte	0x55
 9077 0459 56010000 		.4byte	.LVL99
 9078 045d 5C010000 		.4byte	.LVL100
 9079 0461 0100     		.2byte	0x1
 9080 0463 51       		.byte	0x51
 9081 0464 5C010000 		.4byte	.LVL100
 9082 0468 FC010000 		.4byte	.LFE7
 9083 046c 0100     		.2byte	0x1
 9084 046e 55       		.byte	0x55
 9085 046f 00000000 		.4byte	0
ARM GAS  C:\Users\AFDHAL~1\AppData\Local\Temp\cc29CzqQ.s 			page 242


 9086 0473 00000000 		.4byte	0
 9087              	.LLST26:
 9088 0477 00000000 		.4byte	.LVL60
 9089 047b 1E000000 		.4byte	.LVL63
 9090 047f 0200     		.2byte	0x2
 9091 0481 35       		.byte	0x35
 9092 0482 9F       		.byte	0x9f
 9093 0483 2C000000 		.4byte	.LVL65
 9094 0487 58000000 		.4byte	.LVL68
 9095 048b 0200     		.2byte	0x2
 9096 048d 35       		.byte	0x35
 9097 048e 9F       		.byte	0x9f
 9098 048f FA000000 		.4byte	.LVL86
 9099 0493 18010000 		.4byte	.LVL89
 9100 0497 0200     		.2byte	0x2
 9101 0499 35       		.byte	0x35
 9102 049a 9F       		.byte	0x9f
 9103 049b 24010000 		.4byte	.LVL92
 9104 049f 42010000 		.4byte	.LVL96
 9105 04a3 0200     		.2byte	0x2
 9106 04a5 35       		.byte	0x35
 9107 04a6 9F       		.byte	0x9f
 9108 04a7 56010000 		.4byte	.LVL99
 9109 04ab FC010000 		.4byte	.LFE7
 9110 04af 0200     		.2byte	0x2
 9111 04b1 35       		.byte	0x35
 9112 04b2 9F       		.byte	0x9f
 9113 04b3 00000000 		.4byte	0
 9114 04b7 00000000 		.4byte	0
 9115              	.LLST27:
 9116 04bb 52000000 		.4byte	.LVL67
 9117 04bf 58000000 		.4byte	.LVL68
 9118 04c3 0100     		.2byte	0x1
 9119 04c5 53       		.byte	0x53
 9120 04c6 58000000 		.4byte	.LVL68
 9121 04ca FA000000 		.4byte	.LVL86
 9122 04ce 0100     		.2byte	0x1
 9123 04d0 54       		.byte	0x54
 9124 04d1 18010000 		.4byte	.LVL89
 9125 04d5 24010000 		.4byte	.LVL92
 9126 04d9 0100     		.2byte	0x1
 9127 04db 54       		.byte	0x54
 9128 04dc 42010000 		.4byte	.LVL96
 9129 04e0 56010000 		.4byte	.LVL99
 9130 04e4 0100     		.2byte	0x1
 9131 04e6 54       		.byte	0x54
 9132 04e7 00000000 		.4byte	0
 9133 04eb 00000000 		.4byte	0
 9134              	.LLST28:
 9135 04ef 08000000 		.4byte	.LVL61
 9136 04f3 12000000 		.4byte	.LVL62
 9137 04f7 0700     		.2byte	0x7
 9138 04f9 72       		.byte	0x72
 9139 04fa 00       		.sleb128 0
 9140 04fb 0A       		.byte	0xa
 9141 04fc 3F3F     		.2byte	0x3f3f
 9142 04fe 1A       		.byte	0x1a
ARM GAS  C:\Users\AFDHAL~1\AppData\Local\Temp\cc29CzqQ.s 			page 243


 9143 04ff 9F       		.byte	0x9f
 9144 0500 12000000 		.4byte	.LVL62
 9145 0504 1E000000 		.4byte	.LVL63
 9146 0508 0100     		.2byte	0x1
 9147 050a 53       		.byte	0x53
 9148 050b 2C000000 		.4byte	.LVL65
 9149 050f 2E000000 		.4byte	.LVL66
 9150 0513 0100     		.2byte	0x1
 9151 0515 53       		.byte	0x53
 9152 0516 00000000 		.4byte	0
 9153 051a 00000000 		.4byte	0
 9154              	.LLST29:
 9155 051e 82000000 		.4byte	.LVL72
 9156 0522 84000000 		.4byte	.LVL73
 9157 0526 0200     		.2byte	0x2
 9158 0528 40       		.byte	0x40
 9159 0529 9F       		.byte	0x9f
 9160 052a 16010000 		.4byte	.LVL88
 9161 052e 18010000 		.4byte	.LVL89
 9162 0532 0200     		.2byte	0x2
 9163 0534 37       		.byte	0x37
 9164 0535 9F       		.byte	0x9f
 9165 0536 00000000 		.4byte	0
 9166 053a 00000000 		.4byte	0
 9167              	.LLST30:
 9168 053e 68000000 		.4byte	.LVL70
 9169 0542 70000000 		.4byte	.LVL71
 9170 0546 0100     		.2byte	0x1
 9171 0548 55       		.byte	0x55
 9172 0549 84000000 		.4byte	.LVL73
 9173 054d E8000000 		.4byte	.LVL85
 9174 0551 0100     		.2byte	0x1
 9175 0553 55       		.byte	0x55
 9176 0554 18010000 		.4byte	.LVL89
 9177 0558 1A010000 		.4byte	.LVL90
 9178 055c 0100     		.2byte	0x1
 9179 055e 55       		.byte	0x55
 9180 055f 42010000 		.4byte	.LVL96
 9181 0563 56010000 		.4byte	.LVL99
 9182 0567 0100     		.2byte	0x1
 9183 0569 55       		.byte	0x55
 9184 056a 00000000 		.4byte	0
 9185 056e 00000000 		.4byte	0
 9186              	.LLST31:
 9187 0572 84000000 		.4byte	.LVL73
 9188 0576 FA000000 		.4byte	.LVL86
 9189 057a 0100     		.2byte	0x1
 9190 057c 55       		.byte	0x55
 9191 057d 18010000 		.4byte	.LVL89
 9192 0581 24010000 		.4byte	.LVL92
 9193 0585 0100     		.2byte	0x1
 9194 0587 55       		.byte	0x55
 9195 0588 42010000 		.4byte	.LVL96
 9196 058c 56010000 		.4byte	.LVL99
 9197 0590 0100     		.2byte	0x1
 9198 0592 55       		.byte	0x55
 9199 0593 00000000 		.4byte	0
ARM GAS  C:\Users\AFDHAL~1\AppData\Local\Temp\cc29CzqQ.s 			page 244


 9200 0597 00000000 		.4byte	0
 9201              	.LLST32:
 9202 059b 8C000000 		.4byte	.LVL74
 9203 059f 8E000000 		.4byte	.LVL75
 9204 05a3 1100     		.2byte	0x11
 9205 05a5 70       		.byte	0x70
 9206 05a6 00       		.sleb128 0
 9207 05a7 71       		.byte	0x71
 9208 05a8 00       		.sleb128 0
 9209 05a9 1E       		.byte	0x1e
 9210 05aa F7       		.byte	0xf7
 9211 05ab 25       		.uleb128 0x25
 9212 05ac 71       		.byte	0x71
 9213 05ad 00       		.sleb128 0
 9214 05ae 3A       		.byte	0x3a
 9215 05af 25       		.byte	0x25
 9216 05b0 F7       		.byte	0xf7
 9217 05b1 25       		.uleb128 0x25
 9218 05b2 1B       		.byte	0x1b
 9219 05b3 F7       		.byte	0xf7
 9220 05b4 00       		.uleb128 0
 9221 05b5 9F       		.byte	0x9f
 9222 05b6 00000000 		.4byte	0
 9223 05ba 00000000 		.4byte	0
 9224              	.LLST33:
 9225 05be CA000000 		.4byte	.LVL80
 9226 05c2 CC000000 		.4byte	.LVL81
 9227 05c6 0500     		.2byte	0x5
 9228 05c8 73       		.byte	0x73
 9229 05c9 00       		.sleb128 0
 9230 05ca 3F       		.byte	0x3f
 9231 05cb 1A       		.byte	0x1a
 9232 05cc 9F       		.byte	0x9f
 9233 05cd CC000000 		.4byte	.LVL81
 9234 05d1 DA000000 		.4byte	.LVL84
 9235 05d5 0100     		.2byte	0x1
 9236 05d7 53       		.byte	0x53
 9237 05d8 52010000 		.4byte	.LVL98
 9238 05dc 56010000 		.4byte	.LVL99
 9239 05e0 0100     		.2byte	0x1
 9240 05e2 53       		.byte	0x53
 9241 05e3 00000000 		.4byte	0
 9242 05e7 00000000 		.4byte	0
 9243              	.LLST34:
 9244 05eb A4000000 		.4byte	.LVL77
 9245 05ef B6000000 		.4byte	.LVL78
 9246 05f3 0100     		.2byte	0x1
 9247 05f5 53       		.byte	0x53
 9248 05f6 18010000 		.4byte	.LVL89
 9249 05fa 1E010000 		.4byte	.LVL91
 9250 05fe 0100     		.2byte	0x1
 9251 0600 53       		.byte	0x53
 9252 0601 1E010000 		.4byte	.LVL91
 9253 0605 24010000 		.4byte	.LVL92
 9254 0609 0200     		.2byte	0x2
 9255 060b 75       		.byte	0x75
 9256 060c 00       		.sleb128 0
ARM GAS  C:\Users\AFDHAL~1\AppData\Local\Temp\cc29CzqQ.s 			page 245


 9257 060d 42010000 		.4byte	.LVL96
 9258 0611 4F010000 		.4byte	.LVL97-1
 9259 0615 0100     		.2byte	0x1
 9260 0617 53       		.byte	0x53
 9261 0618 00000000 		.4byte	0
 9262 061c 00000000 		.4byte	0
 9263              	.LLST35:
 9264 0620 C4000000 		.4byte	.LVL79
 9265 0624 D8000000 		.4byte	.LVL83
 9266 0628 0100     		.2byte	0x1
 9267 062a 50       		.byte	0x50
 9268 062b 50010000 		.4byte	.LVL97
 9269 062f 56010000 		.4byte	.LVL99
 9270 0633 0100     		.2byte	0x1
 9271 0635 50       		.byte	0x50
 9272 0636 00000000 		.4byte	0
 9273 063a 00000000 		.4byte	0
 9274              	.LLST36:
 9275 063e E8000000 		.4byte	.LVL85
 9276 0642 FA000000 		.4byte	.LVL86
 9277 0646 0200     		.2byte	0x2
 9278 0648 37       		.byte	0x37
 9279 0649 9F       		.byte	0x9f
 9280 064a 1A010000 		.4byte	.LVL90
 9281 064e 24010000 		.4byte	.LVL92
 9282 0652 0200     		.2byte	0x2
 9283 0654 30       		.byte	0x30
 9284 0655 9F       		.byte	0x9f
 9285 0656 00000000 		.4byte	0
 9286 065a 00000000 		.4byte	0
 9287              	.LLST37:
 9288 065e 30010000 		.4byte	.LVL94
 9289 0662 3A010000 		.4byte	.LVL95
 9290 0666 0100     		.2byte	0x1
 9291 0668 51       		.byte	0x51
 9292 0669 56010000 		.4byte	.LVL99
 9293 066d 5C010000 		.4byte	.LVL100
 9294 0671 0100     		.2byte	0x1
 9295 0673 51       		.byte	0x51
 9296 0674 5C010000 		.4byte	.LVL100
 9297 0678 FC010000 		.4byte	.LFE7
 9298 067c 0100     		.2byte	0x1
 9299 067e 55       		.byte	0x55
 9300 067f 00000000 		.4byte	0
 9301 0683 00000000 		.4byte	0
 9302              	.LLST38:
 9303 0687 56010000 		.4byte	.LVL99
 9304 068b 5C010000 		.4byte	.LVL100
 9305 068f 0100     		.2byte	0x1
 9306 0691 51       		.byte	0x51
 9307 0692 5C010000 		.4byte	.LVL100
 9308 0696 FC010000 		.4byte	.LFE7
 9309 069a 0100     		.2byte	0x1
 9310 069c 55       		.byte	0x55
 9311 069d 00000000 		.4byte	0
 9312 06a1 00000000 		.4byte	0
 9313              	.LLST39:
ARM GAS  C:\Users\AFDHAL~1\AppData\Local\Temp\cc29CzqQ.s 			page 246


 9314 06a5 5C010000 		.4byte	.LVL100
 9315 06a9 5E010000 		.4byte	.LVL101
 9316 06ad 1100     		.2byte	0x11
 9317 06af 70       		.byte	0x70
 9318 06b0 00       		.sleb128 0
 9319 06b1 71       		.byte	0x71
 9320 06b2 00       		.sleb128 0
 9321 06b3 1E       		.byte	0x1e
 9322 06b4 F7       		.byte	0xf7
 9323 06b5 25       		.uleb128 0x25
 9324 06b6 71       		.byte	0x71
 9325 06b7 00       		.sleb128 0
 9326 06b8 3A       		.byte	0x3a
 9327 06b9 25       		.byte	0x25
 9328 06ba F7       		.byte	0xf7
 9329 06bb 25       		.uleb128 0x25
 9330 06bc 1B       		.byte	0x1b
 9331 06bd F7       		.byte	0xf7
 9332 06be 00       		.uleb128 0
 9333 06bf 9F       		.byte	0x9f
 9334 06c0 00000000 		.4byte	0
 9335 06c4 00000000 		.4byte	0
 9336              	.LLST40:
 9337 06c8 98010000 		.4byte	.LVL106
 9338 06cc 9A010000 		.4byte	.LVL107
 9339 06d0 0500     		.2byte	0x5
 9340 06d2 73       		.byte	0x73
 9341 06d3 00       		.sleb128 0
 9342 06d4 3F       		.byte	0x3f
 9343 06d5 1A       		.byte	0x1a
 9344 06d6 9F       		.byte	0x9f
 9345 06d7 9A010000 		.4byte	.LVL107
 9346 06db A2010000 		.4byte	.LVL109
 9347 06df 0100     		.2byte	0x1
 9348 06e1 53       		.byte	0x53
 9349 06e2 BC010000 		.4byte	.LVL115
 9350 06e6 C0010000 		.4byte	.LVL117
 9351 06ea 0100     		.2byte	0x1
 9352 06ec 53       		.byte	0x53
 9353 06ed 00000000 		.4byte	0
 9354 06f1 00000000 		.4byte	0
 9355              	.LLST41:
 9356 06f5 74010000 		.4byte	.LVL103
 9357 06f9 86010000 		.4byte	.LVL104
 9358 06fd 0100     		.2byte	0x1
 9359 06ff 53       		.byte	0x53
 9360 0700 B6010000 		.4byte	.LVL113
 9361 0704 BC010000 		.4byte	.LVL115
 9362 0708 0100     		.2byte	0x1
 9363 070a 53       		.byte	0x53
 9364 070b C0010000 		.4byte	.LVL117
 9365 070f C2010000 		.4byte	.LVL118
 9366 0713 0100     		.2byte	0x1
 9367 0715 53       		.byte	0x53
 9368 0716 00000000 		.4byte	0
 9369 071a 00000000 		.4byte	0
 9370              	.LLST42:
ARM GAS  C:\Users\AFDHAL~1\AppData\Local\Temp\cc29CzqQ.s 			page 247


 9371 071e 92010000 		.4byte	.LVL105
 9372 0722 B0010000 		.4byte	.LVL111
 9373 0726 0100     		.2byte	0x1
 9374 0728 50       		.byte	0x50
 9375 0729 BC010000 		.4byte	.LVL115
 9376 072d BE010000 		.4byte	.LVL116
 9377 0731 0100     		.2byte	0x1
 9378 0733 50       		.byte	0x50
 9379 0734 BE010000 		.4byte	.LVL116
 9380 0738 C0010000 		.4byte	.LVL117
 9381 073c 0200     		.2byte	0x2
 9382 073e 3F       		.byte	0x3f
 9383 073f 9F       		.byte	0x9f
 9384 0740 CE010000 		.4byte	.LVL119
 9385 0744 FC010000 		.4byte	.LFE7
 9386 0748 0100     		.2byte	0x1
 9387 074a 50       		.byte	0x50
 9388 074b 00000000 		.4byte	0
 9389 074f 00000000 		.4byte	0
 9390              	.LLST43:
 9391 0753 B2010000 		.4byte	.LVL112
 9392 0757 B6010000 		.4byte	.LVL113
 9393 075b 0200     		.2byte	0x2
 9394 075d 37       		.byte	0x37
 9395 075e 9F       		.byte	0x9f
 9396 075f B8010000 		.4byte	.LVL114
 9397 0763 BC010000 		.4byte	.LVL115
 9398 0767 0200     		.2byte	0x2
 9399 0769 30       		.byte	0x30
 9400 076a 9F       		.byte	0x9f
 9401 076b 00000000 		.4byte	0
 9402 076f 00000000 		.4byte	0
 9403              	.LLST44:
 9404 0773 00000000 		.4byte	.LVL120
 9405 0777 0A000000 		.4byte	.LVL121
 9406 077b 0100     		.2byte	0x1
 9407 077d 50       		.byte	0x50
 9408 077e 0A000000 		.4byte	.LVL121
 9409 0782 0E000000 		.4byte	.LVL123
 9410 0786 0100     		.2byte	0x1
 9411 0788 54       		.byte	0x54
 9412 0789 0E000000 		.4byte	.LVL123
 9413 078d 10000000 		.4byte	.LVL124
 9414 0791 0400     		.2byte	0x4
 9415 0793 F3       		.byte	0xf3
 9416 0794 01       		.uleb128 0x1
 9417 0795 50       		.byte	0x50
 9418 0796 9F       		.byte	0x9f
 9419 0797 10000000 		.4byte	.LVL124
 9420 079b A0000000 		.4byte	.LFE8
 9421 079f 0100     		.2byte	0x1
 9422 07a1 54       		.byte	0x54
 9423 07a2 00000000 		.4byte	0
 9424 07a6 00000000 		.4byte	0
 9425              	.LLST45:
 9426 07aa 0E000000 		.4byte	.LVL122
 9427 07ae 10000000 		.4byte	.LVL124
ARM GAS  C:\Users\AFDHAL~1\AppData\Local\Temp\cc29CzqQ.s 			page 248


 9428 07b2 0100     		.2byte	0x1
 9429 07b4 50       		.byte	0x50
 9430 07b5 00000000 		.4byte	0
 9431 07b9 00000000 		.4byte	0
 9432              	.LLST46:
 9433 07bd 16000000 		.4byte	.LVL125
 9434 07c1 18000000 		.4byte	.LVL126
 9435 07c5 1100     		.2byte	0x11
 9436 07c7 70       		.byte	0x70
 9437 07c8 00       		.sleb128 0
 9438 07c9 71       		.byte	0x71
 9439 07ca 00       		.sleb128 0
 9440 07cb 1E       		.byte	0x1e
 9441 07cc F7       		.byte	0xf7
 9442 07cd 25       		.uleb128 0x25
 9443 07ce 71       		.byte	0x71
 9444 07cf 00       		.sleb128 0
 9445 07d0 3A       		.byte	0x3a
 9446 07d1 25       		.byte	0x25
 9447 07d2 F7       		.byte	0xf7
 9448 07d3 25       		.uleb128 0x25
 9449 07d4 1B       		.byte	0x1b
 9450 07d5 F7       		.byte	0xf7
 9451 07d6 00       		.uleb128 0
 9452 07d7 9F       		.byte	0x9f
 9453 07d8 00000000 		.4byte	0
 9454 07dc 00000000 		.4byte	0
 9455              	.LLST47:
 9456 07e0 52000000 		.4byte	.LVL131
 9457 07e4 54000000 		.4byte	.LVL132
 9458 07e8 0500     		.2byte	0x5
 9459 07ea 73       		.byte	0x73
 9460 07eb 00       		.sleb128 0
 9461 07ec 3F       		.byte	0x3f
 9462 07ed 1A       		.byte	0x1a
 9463 07ee 9F       		.byte	0x9f
 9464 07ef 54000000 		.4byte	.LVL132
 9465 07f3 58000000 		.4byte	.LVL134
 9466 07f7 0100     		.2byte	0x1
 9467 07f9 53       		.byte	0x53
 9468 07fa 00000000 		.4byte	0
 9469 07fe 00000000 		.4byte	0
 9470              	.LLST48:
 9471 0802 2E000000 		.4byte	.LVL128
 9472 0806 40000000 		.4byte	.LVL129
 9473 080a 0100     		.2byte	0x1
 9474 080c 50       		.byte	0x50
 9475 080d 72000000 		.4byte	.LVL137
 9476 0811 74000000 		.4byte	.LVL138
 9477 0815 0100     		.2byte	0x1
 9478 0817 50       		.byte	0x50
 9479 0818 82000000 		.4byte	.LVL140
 9480 081c 86000000 		.4byte	.LVL142
 9481 0820 0100     		.2byte	0x1
 9482 0822 50       		.byte	0x50
 9483 0823 86000000 		.4byte	.LVL142
 9484 0827 88000000 		.4byte	.LVL143
ARM GAS  C:\Users\AFDHAL~1\AppData\Local\Temp\cc29CzqQ.s 			page 249


 9485 082b 0200     		.2byte	0x2
 9486 082d 74       		.byte	0x74
 9487 082e 00       		.sleb128 0
 9488 082f 00000000 		.4byte	0
 9489 0833 00000000 		.4byte	0
 9490              	.LLST49:
 9491 0837 4C000000 		.4byte	.LVL130
 9492 083b 62000000 		.4byte	.LVL135
 9493 083f 0100     		.2byte	0x1
 9494 0841 50       		.byte	0x50
 9495 0842 80000000 		.4byte	.LVL139
 9496 0846 82000000 		.4byte	.LVL140
 9497 084a 0100     		.2byte	0x1
 9498 084c 50       		.byte	0x50
 9499 084d 88000000 		.4byte	.LVL143
 9500 0851 A0000000 		.4byte	.LFE8
 9501 0855 0100     		.2byte	0x1
 9502 0857 50       		.byte	0x50
 9503 0858 00000000 		.4byte	0
 9504 085c 00000000 		.4byte	0
 9505              	.LLST50:
 9506 0860 6E000000 		.4byte	.LVL136
 9507 0864 72000000 		.4byte	.LVL137
 9508 0868 0200     		.2byte	0x2
 9509 086a 37       		.byte	0x37
 9510 086b 9F       		.byte	0x9f
 9511 086c 84000000 		.4byte	.LVL141
 9512 0870 88000000 		.4byte	.LVL143
 9513 0874 0200     		.2byte	0x2
 9514 0876 30       		.byte	0x30
 9515 0877 9F       		.byte	0x9f
 9516 0878 00000000 		.4byte	0
 9517 087c 00000000 		.4byte	0
 9518              	.LLST51:
 9519 0880 00000000 		.4byte	.LVL144
 9520 0884 1A000000 		.4byte	.LVL145
 9521 0888 0200     		.2byte	0x2
 9522 088a 30       		.byte	0x30
 9523 088b 9F       		.byte	0x9f
 9524 088c 1A000000 		.4byte	.LVL145
 9525 0890 1C000000 		.4byte	.LVL146
 9526 0894 0100     		.2byte	0x1
 9527 0896 50       		.byte	0x50
 9528 0897 1C000000 		.4byte	.LVL146
 9529 089b 2C000000 		.4byte	.LFE9
 9530 089f 0200     		.2byte	0x2
 9531 08a1 30       		.byte	0x30
 9532 08a2 9F       		.byte	0x9f
 9533 08a3 00000000 		.4byte	0
 9534 08a7 00000000 		.4byte	0
 9535              	.LLST52:
 9536 08ab 00000000 		.4byte	.LVL147
 9537 08af 13000000 		.4byte	.LVL148-1
 9538 08b3 0100     		.2byte	0x1
 9539 08b5 50       		.byte	0x50
 9540 08b6 13000000 		.4byte	.LVL148-1
 9541 08ba 1E000000 		.4byte	.LVL151
ARM GAS  C:\Users\AFDHAL~1\AppData\Local\Temp\cc29CzqQ.s 			page 250


 9542 08be 0100     		.2byte	0x1
 9543 08c0 54       		.byte	0x54
 9544 08c1 1E000000 		.4byte	.LVL151
 9545 08c5 6C000000 		.4byte	.LFE11
 9546 08c9 0400     		.2byte	0x4
 9547 08cb F3       		.byte	0xf3
 9548 08cc 01       		.uleb128 0x1
 9549 08cd 50       		.byte	0x50
 9550 08ce 9F       		.byte	0x9f
 9551 08cf 00000000 		.4byte	0
 9552 08d3 00000000 		.4byte	0
 9553              	.LLST53:
 9554 08d7 16000000 		.4byte	.LVL149
 9555 08db 36000000 		.4byte	.LVL152
 9556 08df 0100     		.2byte	0x1
 9557 08e1 56       		.byte	0x56
 9558 08e2 38000000 		.4byte	.LVL153
 9559 08e6 6C000000 		.4byte	.LFE11
 9560 08ea 0100     		.2byte	0x1
 9561 08ec 56       		.byte	0x56
 9562 08ed 00000000 		.4byte	0
 9563 08f1 00000000 		.4byte	0
 9564              	.LLST54:
 9565 08f5 42000000 		.4byte	.LVL154
 9566 08f9 58000000 		.4byte	.LVL158
 9567 08fd 0500     		.2byte	0x5
 9568 08ff 03       		.byte	0x3
 9569 0900 08000000 		.4byte	lfclkPosedgeWdtCounter0Mode
 9570 0904 00000000 		.4byte	0
 9571 0908 00000000 		.4byte	0
 9572              	.LLST55:
 9573 090c 42000000 		.4byte	.LVL154
 9574 0910 58000000 		.4byte	.LVL158
 9575 0914 0200     		.2byte	0x2
 9576 0916 30       		.byte	0x30
 9577 0917 9F       		.byte	0x9f
 9578 0918 00000000 		.4byte	0
 9579 091c 00000000 		.4byte	0
 9580              	.LLST56:
 9581 0920 52000000 		.4byte	.LVL156
 9582 0924 56000000 		.4byte	.LVL157
 9583 0928 0100     		.2byte	0x1
 9584 092a 51       		.byte	0x51
 9585 092b 56000000 		.4byte	.LVL157
 9586 092f 58000000 		.4byte	.LVL158
 9587 0933 0100     		.2byte	0x1
 9588 0935 52       		.byte	0x52
 9589 0936 00000000 		.4byte	0
 9590 093a 00000000 		.4byte	0
 9591              	.LLST57:
 9592 093e 42000000 		.4byte	.LVL154
 9593 0942 44000000 		.4byte	.LVL155
 9594 0946 0200     		.2byte	0x2
 9595 0948 30       		.byte	0x30
 9596 0949 9F       		.byte	0x9f
 9597 094a 00000000 		.4byte	0
 9598 094e 00000000 		.4byte	0
ARM GAS  C:\Users\AFDHAL~1\AppData\Local\Temp\cc29CzqQ.s 			page 251


 9599              	.LLST58:
 9600 0952 4C000000 		.4byte	.LVL163
 9601 0956 62000000 		.4byte	.LVL167
 9602 095a 0500     		.2byte	0x5
 9603 095c 03       		.byte	0x3
 9604 095d 08000000 		.4byte	lfclkPosedgeWdtCounter0Mode
 9605 0961 00000000 		.4byte	0
 9606 0965 00000000 		.4byte	0
 9607              	.LLST59:
 9608 0969 4C000000 		.4byte	.LVL163
 9609 096d 62000000 		.4byte	.LVL167
 9610 0971 0200     		.2byte	0x2
 9611 0973 30       		.byte	0x30
 9612 0974 9F       		.byte	0x9f
 9613 0975 00000000 		.4byte	0
 9614 0979 00000000 		.4byte	0
 9615              	.LLST60:
 9616 097d 5C000000 		.4byte	.LVL165
 9617 0981 60000000 		.4byte	.LVL166
 9618 0985 0100     		.2byte	0x1
 9619 0987 51       		.byte	0x51
 9620 0988 60000000 		.4byte	.LVL166
 9621 098c 62000000 		.4byte	.LVL167
 9622 0990 0100     		.2byte	0x1
 9623 0992 52       		.byte	0x52
 9624 0993 00000000 		.4byte	0
 9625 0997 00000000 		.4byte	0
 9626              	.LLST61:
 9627 099b 4C000000 		.4byte	.LVL163
 9628 099f 4E000000 		.4byte	.LVL164
 9629 09a3 0200     		.2byte	0x2
 9630 09a5 30       		.byte	0x30
 9631 09a6 9F       		.byte	0x9f
 9632 09a7 00000000 		.4byte	0
 9633 09ab 00000000 		.4byte	0
 9634              	.LLST62:
 9635 09af 00000000 		.4byte	.LVL168
 9636 09b3 08000000 		.4byte	.LVL169
 9637 09b7 0100     		.2byte	0x1
 9638 09b9 50       		.byte	0x50
 9639 09ba 08000000 		.4byte	.LVL169
 9640 09be 14000000 		.4byte	.LVL171
 9641 09c2 0100     		.2byte	0x1
 9642 09c4 51       		.byte	0x51
 9643 09c5 14000000 		.4byte	.LVL171
 9644 09c9 40000000 		.4byte	.LFE15
 9645 09cd 0400     		.2byte	0x4
 9646 09cf F3       		.byte	0xf3
 9647 09d0 01       		.uleb128 0x1
 9648 09d1 50       		.byte	0x50
 9649 09d2 9F       		.byte	0x9f
 9650 09d3 00000000 		.4byte	0
 9651 09d7 00000000 		.4byte	0
 9652              	.LLST63:
 9653 09db 00000000 		.4byte	.LVL172
 9654 09df 08000000 		.4byte	.LVL173
 9655 09e3 0100     		.2byte	0x1
ARM GAS  C:\Users\AFDHAL~1\AppData\Local\Temp\cc29CzqQ.s 			page 252


 9656 09e5 50       		.byte	0x50
 9657 09e6 08000000 		.4byte	.LVL173
 9658 09ea 0A000000 		.4byte	.LVL174
 9659 09ee 0400     		.2byte	0x4
 9660 09f0 F3       		.byte	0xf3
 9661 09f1 01       		.uleb128 0x1
 9662 09f2 50       		.byte	0x50
 9663 09f3 9F       		.byte	0x9f
 9664 09f4 0A000000 		.4byte	.LVL174
 9665 09f8 14000000 		.4byte	.LVL175
 9666 09fc 0100     		.2byte	0x1
 9667 09fe 50       		.byte	0x50
 9668 09ff 14000000 		.4byte	.LVL175
 9669 0a03 20000000 		.4byte	.LFE16
 9670 0a07 0400     		.2byte	0x4
 9671 0a09 F3       		.byte	0xf3
 9672 0a0a 01       		.uleb128 0x1
 9673 0a0b 50       		.byte	0x50
 9674 0a0c 9F       		.byte	0x9f
 9675 0a0d 00000000 		.4byte	0
 9676 0a11 00000000 		.4byte	0
 9677              	.LLST64:
 9678 0a15 06000000 		.4byte	.LVL176
 9679 0a19 15000000 		.4byte	.LVL177-1
 9680 0a1d 0100     		.2byte	0x1
 9681 0a1f 50       		.byte	0x50
 9682 0a20 00000000 		.4byte	0
 9683 0a24 00000000 		.4byte	0
 9684              	.LLST65:
 9685 0a28 08000000 		.4byte	.LVL178
 9686 0a2c 25000000 		.4byte	.LVL179-1
 9687 0a30 0100     		.2byte	0x1
 9688 0a32 50       		.byte	0x50
 9689 0a33 00000000 		.4byte	0
 9690 0a37 00000000 		.4byte	0
 9691              	.LLST66:
 9692 0a3b 00000000 		.4byte	.LVL180
 9693 0a3f 04000000 		.4byte	.LVL181
 9694 0a43 0100     		.2byte	0x1
 9695 0a45 50       		.byte	0x50
 9696 0a46 04000000 		.4byte	.LVL181
 9697 0a4a 18000000 		.4byte	.LFE20
 9698 0a4e 0400     		.2byte	0x4
 9699 0a50 F3       		.byte	0xf3
 9700 0a51 01       		.uleb128 0x1
 9701 0a52 50       		.byte	0x50
 9702 0a53 9F       		.byte	0x9f
 9703 0a54 00000000 		.4byte	0
 9704 0a58 00000000 		.4byte	0
 9705              	.LLST67:
 9706 0a5c 00000000 		.4byte	.LVL182
 9707 0a60 04000000 		.4byte	.LVL183
 9708 0a64 0100     		.2byte	0x1
 9709 0a66 50       		.byte	0x50
 9710 0a67 04000000 		.4byte	.LVL183
 9711 0a6b 30000000 		.4byte	.LFE21
 9712 0a6f 0400     		.2byte	0x4
ARM GAS  C:\Users\AFDHAL~1\AppData\Local\Temp\cc29CzqQ.s 			page 253


 9713 0a71 F3       		.byte	0xf3
 9714 0a72 01       		.uleb128 0x1
 9715 0a73 50       		.byte	0x50
 9716 0a74 9F       		.byte	0x9f
 9717 0a75 00000000 		.4byte	0
 9718 0a79 00000000 		.4byte	0
 9719              	.LLST68:
 9720 0a7d 00000000 		.4byte	.LVL182
 9721 0a81 16000000 		.4byte	.LVL184
 9722 0a85 0100     		.2byte	0x1
 9723 0a87 51       		.byte	0x51
 9724 0a88 16000000 		.4byte	.LVL184
 9725 0a8c 30000000 		.4byte	.LFE21
 9726 0a90 0400     		.2byte	0x4
 9727 0a92 F3       		.byte	0xf3
 9728 0a93 01       		.uleb128 0x1
 9729 0a94 51       		.byte	0x51
 9730 0a95 9F       		.byte	0x9f
 9731 0a96 00000000 		.4byte	0
 9732 0a9a 00000000 		.4byte	0
 9733              	.LLST69:
 9734 0a9e 20000000 		.4byte	.LVL185
 9735 0aa2 22000000 		.4byte	.LVL186
 9736 0aa6 0100     		.2byte	0x1
 9737 0aa8 53       		.byte	0x53
 9738 0aa9 22000000 		.4byte	.LVL186
 9739 0aad 24000000 		.4byte	.LVL187
 9740 0ab1 0100     		.2byte	0x1
 9741 0ab3 51       		.byte	0x51
 9742 0ab4 00000000 		.4byte	0
 9743 0ab8 00000000 		.4byte	0
 9744              	.LLST70:
 9745 0abc 00000000 		.4byte	.LVL182
 9746 0ac0 04000000 		.4byte	.LVL183
 9747 0ac4 0100     		.2byte	0x1
 9748 0ac6 50       		.byte	0x50
 9749 0ac7 00000000 		.4byte	0
 9750 0acb 00000000 		.4byte	0
 9751              	.LLST71:
 9752 0acf 00000000 		.4byte	.LVL188
 9753 0ad3 08000000 		.4byte	.LVL189
 9754 0ad7 0100     		.2byte	0x1
 9755 0ad9 50       		.byte	0x50
 9756 0ada 08000000 		.4byte	.LVL189
 9757 0ade 14000000 		.4byte	.LFE22
 9758 0ae2 0400     		.2byte	0x4
 9759 0ae4 F3       		.byte	0xf3
 9760 0ae5 01       		.uleb128 0x1
 9761 0ae6 50       		.byte	0x50
 9762 0ae7 9F       		.byte	0x9f
 9763 0ae8 00000000 		.4byte	0
 9764 0aec 00000000 		.4byte	0
 9765              	.LLST72:
 9766 0af0 00000000 		.4byte	.LVL190
 9767 0af4 04000000 		.4byte	.LVL191
 9768 0af8 0100     		.2byte	0x1
 9769 0afa 50       		.byte	0x50
ARM GAS  C:\Users\AFDHAL~1\AppData\Local\Temp\cc29CzqQ.s 			page 254


 9770 0afb 04000000 		.4byte	.LVL191
 9771 0aff 2C000000 		.4byte	.LFE23
 9772 0b03 0400     		.2byte	0x4
 9773 0b05 F3       		.byte	0xf3
 9774 0b06 01       		.uleb128 0x1
 9775 0b07 50       		.byte	0x50
 9776 0b08 9F       		.byte	0x9f
 9777 0b09 00000000 		.4byte	0
 9778 0b0d 00000000 		.4byte	0
 9779              	.LLST73:
 9780 0b11 00000000 		.4byte	.LVL190
 9781 0b15 18000000 		.4byte	.LVL192
 9782 0b19 0100     		.2byte	0x1
 9783 0b1b 51       		.byte	0x51
 9784 0b1c 18000000 		.4byte	.LVL192
 9785 0b20 2C000000 		.4byte	.LFE23
 9786 0b24 0400     		.2byte	0x4
 9787 0b26 F3       		.byte	0xf3
 9788 0b27 01       		.uleb128 0x1
 9789 0b28 51       		.byte	0x51
 9790 0b29 9F       		.byte	0x9f
 9791 0b2a 00000000 		.4byte	0
 9792 0b2e 00000000 		.4byte	0
 9793              	.LLST74:
 9794 0b32 1E000000 		.4byte	.LVL193
 9795 0b36 20000000 		.4byte	.LVL194
 9796 0b3a 0100     		.2byte	0x1
 9797 0b3c 53       		.byte	0x53
 9798 0b3d 20000000 		.4byte	.LVL194
 9799 0b41 22000000 		.4byte	.LVL195
 9800 0b45 0100     		.2byte	0x1
 9801 0b47 51       		.byte	0x51
 9802 0b48 00000000 		.4byte	0
 9803 0b4c 00000000 		.4byte	0
 9804              	.LLST75:
 9805 0b50 00000000 		.4byte	.LVL190
 9806 0b54 04000000 		.4byte	.LVL191
 9807 0b58 0100     		.2byte	0x1
 9808 0b5a 50       		.byte	0x50
 9809 0b5b 00000000 		.4byte	0
 9810 0b5f 00000000 		.4byte	0
 9811              	.LLST76:
 9812 0b63 00000000 		.4byte	.LVL196
 9813 0b67 04000000 		.4byte	.LVL197
 9814 0b6b 0100     		.2byte	0x1
 9815 0b6d 50       		.byte	0x50
 9816 0b6e 04000000 		.4byte	.LVL197
 9817 0b72 18000000 		.4byte	.LFE24
 9818 0b76 0400     		.2byte	0x4
 9819 0b78 F3       		.byte	0xf3
 9820 0b79 01       		.uleb128 0x1
 9821 0b7a 50       		.byte	0x50
 9822 0b7b 9F       		.byte	0x9f
 9823 0b7c 00000000 		.4byte	0
 9824 0b80 00000000 		.4byte	0
 9825              	.LLST77:
 9826 0b84 0E000000 		.4byte	.LVL199
ARM GAS  C:\Users\AFDHAL~1\AppData\Local\Temp\cc29CzqQ.s 			page 255


 9827 0b88 10000000 		.4byte	.LVL200
 9828 0b8c 0200     		.2byte	0x2
 9829 0b8e 30       		.byte	0x30
 9830 0b8f 9F       		.byte	0x9f
 9831 0b90 00000000 		.4byte	0
 9832 0b94 00000000 		.4byte	0
 9833              	.LLST78:
 9834 0b98 1E000000 		.4byte	.LVL201
 9835 0b9c 20000000 		.4byte	.LVL202
 9836 0ba0 0200     		.2byte	0x2
 9837 0ba2 31       		.byte	0x31
 9838 0ba3 9F       		.byte	0x9f
 9839 0ba4 00000000 		.4byte	0
 9840 0ba8 00000000 		.4byte	0
 9841              	.LLST79:
 9842 0bac 2E000000 		.4byte	.LVL203
 9843 0bb0 30000000 		.4byte	.LVL204
 9844 0bb4 0200     		.2byte	0x2
 9845 0bb6 32       		.byte	0x32
 9846 0bb7 9F       		.byte	0x9f
 9847 0bb8 00000000 		.4byte	0
 9848 0bbc 00000000 		.4byte	0
 9849              	.LLST80:
 9850 0bc0 1A000000 		.4byte	.LVL206
 9851 0bc4 1C000000 		.4byte	.LVL207
 9852 0bc8 0200     		.2byte	0x2
 9853 0bca 30       		.byte	0x30
 9854 0bcb 9F       		.byte	0x9f
 9855 0bcc 00000000 		.4byte	0
 9856 0bd0 00000000 		.4byte	0
 9857              	.LLST81:
 9858 0bd4 2A000000 		.4byte	.LVL208
 9859 0bd8 2C000000 		.4byte	.LVL209
 9860 0bdc 0200     		.2byte	0x2
 9861 0bde 31       		.byte	0x31
 9862 0bdf 9F       		.byte	0x9f
 9863 0be0 00000000 		.4byte	0
 9864 0be4 00000000 		.4byte	0
 9865              	.LLST82:
 9866 0be8 3A000000 		.4byte	.LVL210
 9867 0bec 3C000000 		.4byte	.LVL211
 9868 0bf0 0200     		.2byte	0x2
 9869 0bf2 32       		.byte	0x32
 9870 0bf3 9F       		.byte	0x9f
 9871 0bf4 00000000 		.4byte	0
 9872 0bf8 00000000 		.4byte	0
 9873              	.LLST83:
 9874 0bfc 00000000 		.4byte	.LVL212
 9875 0c00 22000000 		.4byte	.LVL219
 9876 0c04 0100     		.2byte	0x1
 9877 0c06 50       		.byte	0x50
 9878 0c07 22000000 		.4byte	.LVL219
 9879 0c0b 34000000 		.4byte	.LFE27
 9880 0c0f 0400     		.2byte	0x4
 9881 0c11 F3       		.byte	0xf3
 9882 0c12 01       		.uleb128 0x1
 9883 0c13 50       		.byte	0x50
ARM GAS  C:\Users\AFDHAL~1\AppData\Local\Temp\cc29CzqQ.s 			page 256


 9884 0c14 9F       		.byte	0x9f
 9885 0c15 00000000 		.4byte	0
 9886 0c19 00000000 		.4byte	0
 9887              	.LLST84:
 9888 0c1d 1E000000 		.4byte	.LVL217
 9889 0c21 20000000 		.4byte	.LVL218
 9890 0c25 0100     		.2byte	0x1
 9891 0c27 51       		.byte	0x51
 9892 0c28 20000000 		.4byte	.LVL218
 9893 0c2c 22000000 		.4byte	.LVL219
 9894 0c30 0100     		.2byte	0x1
 9895 0c32 53       		.byte	0x53
 9896 0c33 22000000 		.4byte	.LVL219
 9897 0c37 24000000 		.4byte	.LVL220
 9898 0c3b 0100     		.2byte	0x1
 9899 0c3d 50       		.byte	0x50
 9900 0c3e 00000000 		.4byte	0
 9901 0c42 00000000 		.4byte	0
 9902              	.LLST85:
 9903 0c46 0A000000 		.4byte	.LVL215
 9904 0c4a 0E000000 		.4byte	.LVL216
 9905 0c4e 1100     		.2byte	0x11
 9906 0c50 73       		.byte	0x73
 9907 0c51 00       		.sleb128 0
 9908 0c52 39       		.byte	0x39
 9909 0c53 25       		.byte	0x25
 9910 0c54 71       		.byte	0x71
 9911 0c55 00       		.sleb128 0
 9912 0c56 31       		.byte	0x31
 9913 0c57 25       		.byte	0x25
 9914 0c58 21       		.byte	0x21
 9915 0c59 72       		.byte	0x72
 9916 0c5a 00       		.sleb128 0
 9917 0c5b 41       		.byte	0x41
 9918 0c5c 25       		.byte	0x25
 9919 0c5d 21       		.byte	0x21
 9920 0c5e 31       		.byte	0x31
 9921 0c5f 1A       		.byte	0x1a
 9922 0c60 9F       		.byte	0x9f
 9923 0c61 00000000 		.4byte	0
 9924 0c65 00000000 		.4byte	0
 9925              	.LLST86:
 9926 0c69 00000000 		.4byte	.LVL212
 9927 0c6d 06000000 		.4byte	.LVL213
 9928 0c71 0200     		.2byte	0x2
 9929 0c73 30       		.byte	0x30
 9930 0c74 9F       		.byte	0x9f
 9931 0c75 00000000 		.4byte	0
 9932 0c79 00000000 		.4byte	0
 9933              	.LLST87:
 9934 0c7d 06000000 		.4byte	.LVL213
 9935 0c81 08000000 		.4byte	.LVL214
 9936 0c85 0200     		.2byte	0x2
 9937 0c87 31       		.byte	0x31
 9938 0c88 9F       		.byte	0x9f
 9939 0c89 00000000 		.4byte	0
 9940 0c8d 00000000 		.4byte	0
ARM GAS  C:\Users\AFDHAL~1\AppData\Local\Temp\cc29CzqQ.s 			page 257


 9941              	.LLST88:
 9942 0c91 08000000 		.4byte	.LVL214
 9943 0c95 0A000000 		.4byte	.LVL215
 9944 0c99 0200     		.2byte	0x2
 9945 0c9b 32       		.byte	0x32
 9946 0c9c 9F       		.byte	0x9f
 9947 0c9d 00000000 		.4byte	0
 9948 0ca1 00000000 		.4byte	0
 9949              	.LLST89:
 9950 0ca5 00000000 		.4byte	.LVL221
 9951 0ca9 0E000000 		.4byte	.LVL222
 9952 0cad 0100     		.2byte	0x1
 9953 0caf 50       		.byte	0x50
 9954 0cb0 0E000000 		.4byte	.LVL222
 9955 0cb4 3A000000 		.4byte	.LVL227
 9956 0cb8 0100     		.2byte	0x1
 9957 0cba 55       		.byte	0x55
 9958 0cbb 3A000000 		.4byte	.LVL227
 9959 0cbf 48000000 		.4byte	.LFE29
 9960 0cc3 0400     		.2byte	0x4
 9961 0cc5 F3       		.byte	0xf3
 9962 0cc6 01       		.uleb128 0x1
 9963 0cc7 50       		.byte	0x50
 9964 0cc8 9F       		.byte	0x9f
 9965 0cc9 00000000 		.4byte	0
 9966 0ccd 00000000 		.4byte	0
 9967              	.LLST90:
 9968 0cd1 00000000 		.4byte	.LVL221
 9969 0cd5 17000000 		.4byte	.LVL223-1
 9970 0cd9 0100     		.2byte	0x1
 9971 0cdb 51       		.byte	0x51
 9972 0cdc 17000000 		.4byte	.LVL223-1
 9973 0ce0 20000000 		.4byte	.LVL224
 9974 0ce4 0100     		.2byte	0x1
 9975 0ce6 54       		.byte	0x54
 9976 0ce7 20000000 		.4byte	.LVL224
 9977 0ceb 48000000 		.4byte	.LFE29
 9978 0cef 0400     		.2byte	0x4
 9979 0cf1 F3       		.byte	0xf3
 9980 0cf2 01       		.uleb128 0x1
 9981 0cf3 51       		.byte	0x51
 9982 0cf4 9F       		.byte	0x9f
 9983 0cf5 00000000 		.4byte	0
 9984 0cf9 00000000 		.4byte	0
 9985              	.LLST91:
 9986 0cfd 00000000 		.4byte	.LVL228
 9987 0d01 10000000 		.4byte	.LVL231
 9988 0d05 0100     		.2byte	0x1
 9989 0d07 50       		.byte	0x50
 9990 0d08 10000000 		.4byte	.LVL231
 9991 0d0c 2C000000 		.4byte	.LFE30
 9992 0d10 0400     		.2byte	0x4
 9993 0d12 F3       		.byte	0xf3
 9994 0d13 01       		.uleb128 0x1
 9995 0d14 50       		.byte	0x50
 9996 0d15 9F       		.byte	0x9f
 9997 0d16 00000000 		.4byte	0
ARM GAS  C:\Users\AFDHAL~1\AppData\Local\Temp\cc29CzqQ.s 			page 258


 9998 0d1a 00000000 		.4byte	0
 9999              	.LLST92:
 10000 0d1e 0E000000 		.4byte	.LVL230
 10001 0d22 12000000 		.4byte	.LVL232
 10002 0d26 0100     		.2byte	0x1
 10003 0d28 52       		.byte	0x52
 10004 0d29 12000000 		.4byte	.LVL232
 10005 0d2d 1A000000 		.4byte	.LVL233
 10006 0d31 0100     		.2byte	0x1
 10007 0d33 53       		.byte	0x53
 10008 0d34 1A000000 		.4byte	.LVL233
 10009 0d38 1C000000 		.4byte	.LVL234
 10010 0d3c 0100     		.2byte	0x1
 10011 0d3e 50       		.byte	0x50
 10012 0d3f 00000000 		.4byte	0
 10013 0d43 00000000 		.4byte	0
 10014              	.LLST93:
 10015 0d47 00000000 		.4byte	.LVL228
 10016 0d4b 04000000 		.4byte	.LVL229
 10017 0d4f 0200     		.2byte	0x2
 10018 0d51 32       		.byte	0x32
 10019 0d52 9F       		.byte	0x9f
 10020 0d53 00000000 		.4byte	0
 10021 0d57 00000000 		.4byte	0
 10022              	.LLST94:
 10023 0d5b 00000000 		.4byte	.LVL235
 10024 0d5f 08000000 		.4byte	.LVL236
 10025 0d63 0100     		.2byte	0x1
 10026 0d65 50       		.byte	0x50
 10027 0d66 08000000 		.4byte	.LVL236
 10028 0d6a 14000000 		.4byte	.LFE32
 10029 0d6e 0400     		.2byte	0x4
 10030 0d70 F3       		.byte	0xf3
 10031 0d71 01       		.uleb128 0x1
 10032 0d72 50       		.byte	0x50
 10033 0d73 9F       		.byte	0x9f
 10034 0d74 00000000 		.4byte	0
 10035 0d78 00000000 		.4byte	0
 10036              	.LLST95:
 10037 0d7c 00000000 		.4byte	.LVL237
 10038 0d80 0E000000 		.4byte	.LVL238
 10039 0d84 0100     		.2byte	0x1
 10040 0d86 50       		.byte	0x50
 10041 0d87 0E000000 		.4byte	.LVL238
 10042 0d8b 10000000 		.4byte	.LVL239
 10043 0d8f 0400     		.2byte	0x4
 10044 0d91 F3       		.byte	0xf3
 10045 0d92 01       		.uleb128 0x1
 10046 0d93 50       		.byte	0x50
 10047 0d94 9F       		.byte	0x9f
 10048 0d95 10000000 		.4byte	.LVL239
 10049 0d99 14000000 		.4byte	.LVL240
 10050 0d9d 0100     		.2byte	0x1
 10051 0d9f 50       		.byte	0x50
 10052 0da0 14000000 		.4byte	.LVL240
 10053 0da4 16000000 		.4byte	.LVL241
 10054 0da8 0400     		.2byte	0x4
ARM GAS  C:\Users\AFDHAL~1\AppData\Local\Temp\cc29CzqQ.s 			page 259


 10055 0daa F3       		.byte	0xf3
 10056 0dab 01       		.uleb128 0x1
 10057 0dac 50       		.byte	0x50
 10058 0dad 9F       		.byte	0x9f
 10059 0dae 16000000 		.4byte	.LVL241
 10060 0db2 1A000000 		.4byte	.LVL242
 10061 0db6 0100     		.2byte	0x1
 10062 0db8 50       		.byte	0x50
 10063 0db9 1A000000 		.4byte	.LVL242
 10064 0dbd 20000000 		.4byte	.LVL244
 10065 0dc1 0400     		.2byte	0x4
 10066 0dc3 F3       		.byte	0xf3
 10067 0dc4 01       		.uleb128 0x1
 10068 0dc5 50       		.byte	0x50
 10069 0dc6 9F       		.byte	0x9f
 10070 0dc7 20000000 		.4byte	.LVL244
 10071 0dcb 24000000 		.4byte	.LVL245
 10072 0dcf 0100     		.2byte	0x1
 10073 0dd1 50       		.byte	0x50
 10074 0dd2 24000000 		.4byte	.LVL245
 10075 0dd6 30000000 		.4byte	.LFE33
 10076 0dda 0400     		.2byte	0x4
 10077 0ddc F3       		.byte	0xf3
 10078 0ddd 01       		.uleb128 0x1
 10079 0dde 50       		.byte	0x50
 10080 0ddf 9F       		.byte	0x9f
 10081 0de0 00000000 		.4byte	0
 10082 0de4 00000000 		.4byte	0
 10083              	.LLST96:
 10084 0de8 00000000 		.4byte	.LVL237
 10085 0dec 0E000000 		.4byte	.LVL238
 10086 0df0 0200     		.2byte	0x2
 10087 0df2 30       		.byte	0x30
 10088 0df3 9F       		.byte	0x9f
 10089 0df4 0E000000 		.4byte	.LVL238
 10090 0df8 10000000 		.4byte	.LVL239
 10091 0dfc 0100     		.2byte	0x1
 10092 0dfe 50       		.byte	0x50
 10093 0dff 10000000 		.4byte	.LVL239
 10094 0e03 14000000 		.4byte	.LVL240
 10095 0e07 0200     		.2byte	0x2
 10096 0e09 30       		.byte	0x30
 10097 0e0a 9F       		.byte	0x9f
 10098 0e0b 14000000 		.4byte	.LVL240
 10099 0e0f 16000000 		.4byte	.LVL241
 10100 0e13 0100     		.2byte	0x1
 10101 0e15 50       		.byte	0x50
 10102 0e16 16000000 		.4byte	.LVL241
 10103 0e1a 1E000000 		.4byte	.LVL243
 10104 0e1e 0200     		.2byte	0x2
 10105 0e20 30       		.byte	0x30
 10106 0e21 9F       		.byte	0x9f
 10107 0e22 1E000000 		.4byte	.LVL243
 10108 0e26 20000000 		.4byte	.LVL244
 10109 0e2a 0100     		.2byte	0x1
 10110 0e2c 50       		.byte	0x50
 10111 0e2d 20000000 		.4byte	.LVL244
ARM GAS  C:\Users\AFDHAL~1\AppData\Local\Temp\cc29CzqQ.s 			page 260


 10112 0e31 26000000 		.4byte	.LVL246
 10113 0e35 0200     		.2byte	0x2
 10114 0e37 30       		.byte	0x30
 10115 0e38 9F       		.byte	0x9f
 10116 0e39 26000000 		.4byte	.LVL246
 10117 0e3d 30000000 		.4byte	.LFE33
 10118 0e41 0100     		.2byte	0x1
 10119 0e43 50       		.byte	0x50
 10120 0e44 00000000 		.4byte	0
 10121 0e48 00000000 		.4byte	0
 10122              	.LLST97:
 10123 0e4c 00000000 		.4byte	.LVL247
 10124 0e50 09000000 		.4byte	.LVL248-1
 10125 0e54 0100     		.2byte	0x1
 10126 0e56 50       		.byte	0x50
 10127 0e57 09000000 		.4byte	.LVL248-1
 10128 0e5b 38000000 		.4byte	.LVL252
 10129 0e5f 0100     		.2byte	0x1
 10130 0e61 57       		.byte	0x57
 10131 0e62 38000000 		.4byte	.LVL252
 10132 0e66 3E000000 		.4byte	.LVL253
 10133 0e6a 0900     		.2byte	0x9
 10134 0e6c 77       		.byte	0x77
 10135 0e6d 00       		.sleb128 0
 10136 0e6e 0C       		.byte	0xc
 10137 0e6f 04040400 		.4byte	0x40404
 10138 0e73 1A       		.byte	0x1a
 10139 0e74 9F       		.byte	0x9f
 10140 0e75 3E000000 		.4byte	.LVL253
 10141 0e79 4C000000 		.4byte	.LVL254
 10142 0e7d 0100     		.2byte	0x1
 10143 0e7f 57       		.byte	0x57
 10144 0e80 62000000 		.4byte	.LVL259
 10145 0e84 68000000 		.4byte	.LVL260
 10146 0e88 0900     		.2byte	0x9
 10147 0e8a 77       		.byte	0x77
 10148 0e8b 00       		.sleb128 0
 10149 0e8c 0C       		.byte	0xc
 10150 0e8d 04040400 		.4byte	0x40404
 10151 0e91 1A       		.byte	0x1a
 10152 0e92 9F       		.byte	0x9f
 10153 0e93 68000000 		.4byte	.LVL260
 10154 0e97 8C000000 		.4byte	.LFE35
 10155 0e9b 0100     		.2byte	0x1
 10156 0e9d 57       		.byte	0x57
 10157 0e9e 00000000 		.4byte	0
 10158 0ea2 00000000 		.4byte	0
 10159              	.LLST98:
 10160 0ea6 12000000 		.4byte	.LVL249
 10161 0eaa 60000000 		.4byte	.LVL258
 10162 0eae 0100     		.2byte	0x1
 10163 0eb0 55       		.byte	0x55
 10164 0eb1 62000000 		.4byte	.LVL259
 10165 0eb5 8C000000 		.4byte	.LFE35
 10166 0eb9 0100     		.2byte	0x1
 10167 0ebb 55       		.byte	0x55
 10168 0ebc 00000000 		.4byte	0
ARM GAS  C:\Users\AFDHAL~1\AppData\Local\Temp\cc29CzqQ.s 			page 261


 10169 0ec0 00000000 		.4byte	0
 10170              	.LLST99:
 10171 0ec4 16000000 		.4byte	.LVL250
 10172 0ec8 4C000000 		.4byte	.LVL254
 10173 0ecc 0200     		.2byte	0x2
 10174 0ece 31       		.byte	0x31
 10175 0ecf 9F       		.byte	0x9f
 10176 0ed0 62000000 		.4byte	.LVL259
 10177 0ed4 8C000000 		.4byte	.LFE35
 10178 0ed8 0200     		.2byte	0x2
 10179 0eda 30       		.byte	0x30
 10180 0edb 9F       		.byte	0x9f
 10181 0edc 00000000 		.4byte	0
 10182 0ee0 00000000 		.4byte	0
 10183              	.LLST100:
 10184 0ee4 1A000000 		.4byte	.LVL251
 10185 0ee8 37000000 		.4byte	.LVL252-1
 10186 0eec 0100     		.2byte	0x1
 10187 0eee 50       		.byte	0x50
 10188 0eef 00000000 		.4byte	0
 10189 0ef3 00000000 		.4byte	0
 10190              	.LLST101:
 10191 0ef7 50000000 		.4byte	.LVL255
 10192 0efb 59000000 		.4byte	.LVL256-1
 10193 0eff 0100     		.2byte	0x1
 10194 0f01 50       		.byte	0x50
 10195 0f02 00000000 		.4byte	0
 10196 0f06 00000000 		.4byte	0
 10197              	.LLST102:
 10198 0f0a 00000000 		.4byte	.LVL261
 10199 0f0e 08000000 		.4byte	.LVL262
 10200 0f12 0100     		.2byte	0x1
 10201 0f14 50       		.byte	0x50
 10202 0f15 08000000 		.4byte	.LVL262
 10203 0f19 1C000000 		.4byte	.LFE36
 10204 0f1d 0400     		.2byte	0x4
 10205 0f1f F3       		.byte	0xf3
 10206 0f20 01       		.uleb128 0x1
 10207 0f21 50       		.byte	0x50
 10208 0f22 9F       		.byte	0x9f
 10209 0f23 00000000 		.4byte	0
 10210 0f27 00000000 		.4byte	0
 10211              	.LLST103:
 10212 0f2b 00000000 		.4byte	.LVL263
 10213 0f2f 08000000 		.4byte	.LVL264
 10214 0f33 0100     		.2byte	0x1
 10215 0f35 50       		.byte	0x50
 10216 0f36 08000000 		.4byte	.LVL264
 10217 0f3a 10000000 		.4byte	.LVL267
 10218 0f3e 0400     		.2byte	0x4
 10219 0f40 F3       		.byte	0xf3
 10220 0f41 01       		.uleb128 0x1
 10221 0f42 50       		.byte	0x50
 10222 0f43 9F       		.byte	0x9f
 10223 0f44 10000000 		.4byte	.LVL267
 10224 0f48 12000000 		.4byte	.LVL268
 10225 0f4c 0100     		.2byte	0x1
ARM GAS  C:\Users\AFDHAL~1\AppData\Local\Temp\cc29CzqQ.s 			page 262


 10226 0f4e 50       		.byte	0x50
 10227 0f4f 12000000 		.4byte	.LVL268
 10228 0f53 18000000 		.4byte	.LFE37
 10229 0f57 0400     		.2byte	0x4
 10230 0f59 F3       		.byte	0xf3
 10231 0f5a 01       		.uleb128 0x1
 10232 0f5b 50       		.byte	0x50
 10233 0f5c 9F       		.byte	0x9f
 10234 0f5d 00000000 		.4byte	0
 10235 0f61 00000000 		.4byte	0
 10236              	.LLST104:
 10237 0f65 00000000 		.4byte	.LVL263
 10238 0f69 0C000000 		.4byte	.LVL265
 10239 0f6d 0200     		.2byte	0x2
 10240 0f6f 30       		.byte	0x30
 10241 0f70 9F       		.byte	0x9f
 10242 0f71 0C000000 		.4byte	.LVL265
 10243 0f75 10000000 		.4byte	.LVL267
 10244 0f79 0100     		.2byte	0x1
 10245 0f7b 50       		.byte	0x50
 10246 0f7c 10000000 		.4byte	.LVL267
 10247 0f80 18000000 		.4byte	.LFE37
 10248 0f84 0200     		.2byte	0x2
 10249 0f86 30       		.byte	0x30
 10250 0f87 9F       		.byte	0x9f
 10251 0f88 00000000 		.4byte	0
 10252 0f8c 00000000 		.4byte	0
 10253              	.LLST105:
 10254 0f90 00000000 		.4byte	.LVL269
 10255 0f94 08000000 		.4byte	.LVL270
 10256 0f98 0100     		.2byte	0x1
 10257 0f9a 50       		.byte	0x50
 10258 0f9b 08000000 		.4byte	.LVL270
 10259 0f9f 0E000000 		.4byte	.LVL272
 10260 0fa3 0400     		.2byte	0x4
 10261 0fa5 F3       		.byte	0xf3
 10262 0fa6 01       		.uleb128 0x1
 10263 0fa7 50       		.byte	0x50
 10264 0fa8 9F       		.byte	0x9f
 10265 0fa9 0E000000 		.4byte	.LVL272
 10266 0fad 10000000 		.4byte	.LVL273
 10267 0fb1 0100     		.2byte	0x1
 10268 0fb3 50       		.byte	0x50
 10269 0fb4 10000000 		.4byte	.LVL273
 10270 0fb8 18000000 		.4byte	.LFE38
 10271 0fbc 0400     		.2byte	0x4
 10272 0fbe F3       		.byte	0xf3
 10273 0fbf 01       		.uleb128 0x1
 10274 0fc0 50       		.byte	0x50
 10275 0fc1 9F       		.byte	0x9f
 10276 0fc2 00000000 		.4byte	0
 10277 0fc6 00000000 		.4byte	0
 10278              	.LLST106:
 10279 0fca 00000000 		.4byte	.LVL269
 10280 0fce 0C000000 		.4byte	.LVL271
 10281 0fd2 0200     		.2byte	0x2
 10282 0fd4 30       		.byte	0x30
ARM GAS  C:\Users\AFDHAL~1\AppData\Local\Temp\cc29CzqQ.s 			page 263


 10283 0fd5 9F       		.byte	0x9f
 10284 0fd6 0C000000 		.4byte	.LVL271
 10285 0fda 0E000000 		.4byte	.LVL272
 10286 0fde 0100     		.2byte	0x1
 10287 0fe0 50       		.byte	0x50
 10288 0fe1 0E000000 		.4byte	.LVL272
 10289 0fe5 18000000 		.4byte	.LFE38
 10290 0fe9 0200     		.2byte	0x2
 10291 0feb 30       		.byte	0x30
 10292 0fec 9F       		.byte	0x9f
 10293 0fed 00000000 		.4byte	0
 10294 0ff1 00000000 		.4byte	0
 10295              	.LLST107:
 10296 0ff5 00000000 		.4byte	.LVL274
 10297 0ff9 08000000 		.4byte	.LVL275
 10298 0ffd 0100     		.2byte	0x1
 10299 0fff 50       		.byte	0x50
 10300 1000 08000000 		.4byte	.LVL275
 10301 1004 28000000 		.4byte	.LFE39
 10302 1008 0400     		.2byte	0x4
 10303 100a F3       		.byte	0xf3
 10304 100b 01       		.uleb128 0x1
 10305 100c 50       		.byte	0x50
 10306 100d 9F       		.byte	0x9f
 10307 100e 00000000 		.4byte	0
 10308 1012 00000000 		.4byte	0
 10309              	.LLST108:
 10310 1016 00000000 		.4byte	.LVL276
 10311 101a 0A000000 		.4byte	.LVL277
 10312 101e 0100     		.2byte	0x1
 10313 1020 50       		.byte	0x50
 10314 1021 0A000000 		.4byte	.LVL277
 10315 1025 1C000000 		.4byte	.LFE40
 10316 1029 0400     		.2byte	0x4
 10317 102b F3       		.byte	0xf3
 10318 102c 01       		.uleb128 0x1
 10319 102d 50       		.byte	0x50
 10320 102e 9F       		.byte	0x9f
 10321 102f 00000000 		.4byte	0
 10322 1033 00000000 		.4byte	0
 10323              	.LLST109:
 10324 1037 2E000000 		.4byte	.LVL278
 10325 103b 58000000 		.4byte	.LVL283
 10326 103f 0200     		.2byte	0x2
 10327 1041 34       		.byte	0x34
 10328 1042 9F       		.byte	0x9f
 10329 1043 84010000 		.4byte	.LVL308
 10330 1047 E4010000 		.4byte	.LFE41
 10331 104b 0200     		.2byte	0x2
 10332 104d 34       		.byte	0x34
 10333 104e 9F       		.byte	0x9f
 10334 104f 00000000 		.4byte	0
 10335 1053 00000000 		.4byte	0
 10336              	.LLST110:
 10337 1057 3C000000 		.4byte	.LVL280
 10338 105b 58000000 		.4byte	.LVL283
 10339 105f 0100     		.2byte	0x1
ARM GAS  C:\Users\AFDHAL~1\AppData\Local\Temp\cc29CzqQ.s 			page 264


 10340 1061 56       		.byte	0x56
 10341 1062 84010000 		.4byte	.LVL308
 10342 1066 E4010000 		.4byte	.LFE41
 10343 106a 0100     		.2byte	0x1
 10344 106c 56       		.byte	0x56
 10345 106d 00000000 		.4byte	0
 10346 1071 00000000 		.4byte	0
 10347              	.LLST111:
 10348 1075 42000000 		.4byte	.LVL281
 10349 1079 52000000 		.4byte	.LVL282
 10350 107d 0200     		.2byte	0x2
 10351 107f 30       		.byte	0x30
 10352 1080 9F       		.byte	0x9f
 10353 1081 84010000 		.4byte	.LVL308
 10354 1085 B6010000 		.4byte	.LVL311
 10355 1089 0200     		.2byte	0x2
 10356 108b 31       		.byte	0x31
 10357 108c 9F       		.byte	0x9f
 10358 108d 00000000 		.4byte	0
 10359 1091 00000000 		.4byte	0
 10360              	.LLST112:
 10361 1095 88010000 		.4byte	.LVL309
 10362 1099 A5010000 		.4byte	.LVL310-1
 10363 109d 0100     		.2byte	0x1
 10364 109f 50       		.byte	0x50
 10365 10a0 00000000 		.4byte	0
 10366 10a4 00000000 		.4byte	0
 10367              	.LLST113:
 10368 10a8 BA010000 		.4byte	.LVL312
 10369 10ac C3010000 		.4byte	.LVL313-1
 10370 10b0 0100     		.2byte	0x1
 10371 10b2 50       		.byte	0x50
 10372 10b3 00000000 		.4byte	0
 10373 10b7 00000000 		.4byte	0
 10374              	.LLST114:
 10375 10bb 88000000 		.4byte	.LVL284
 10376 10bf B2000000 		.4byte	.LVL289
 10377 10c3 0400     		.2byte	0x4
 10378 10c5 0A       		.byte	0xa
 10379 10c6 0004     		.2byte	0x400
 10380 10c8 9F       		.byte	0x9f
 10381 10c9 40010000 		.4byte	.LVL302
 10382 10cd 84010000 		.4byte	.LVL308
 10383 10d1 0400     		.2byte	0x4
 10384 10d3 0A       		.byte	0xa
 10385 10d4 0004     		.2byte	0x400
 10386 10d6 9F       		.byte	0x9f
 10387 10d7 00000000 		.4byte	0
 10388 10db 00000000 		.4byte	0
 10389              	.LLST115:
 10390 10df 96000000 		.4byte	.LVL286
 10391 10e3 B2000000 		.4byte	.LVL289
 10392 10e7 0100     		.2byte	0x1
 10393 10e9 55       		.byte	0x55
 10394 10ea 40010000 		.4byte	.LVL302
 10395 10ee 84010000 		.4byte	.LVL308
 10396 10f2 0100     		.2byte	0x1
ARM GAS  C:\Users\AFDHAL~1\AppData\Local\Temp\cc29CzqQ.s 			page 265


 10397 10f4 55       		.byte	0x55
 10398 10f5 00000000 		.4byte	0
 10399 10f9 00000000 		.4byte	0
 10400              	.LLST116:
 10401 10fd 9A000000 		.4byte	.LVL287
 10402 1101 AC000000 		.4byte	.LVL288
 10403 1105 0200     		.2byte	0x2
 10404 1107 30       		.byte	0x30
 10405 1108 9F       		.byte	0x9f
 10406 1109 40010000 		.4byte	.LVL302
 10407 110d 74010000 		.4byte	.LVL305
 10408 1111 0200     		.2byte	0x2
 10409 1113 31       		.byte	0x31
 10410 1114 9F       		.byte	0x9f
 10411 1115 00000000 		.4byte	0
 10412 1119 00000000 		.4byte	0
 10413              	.LLST117:
 10414 111d 44010000 		.4byte	.LVL303
 10415 1121 61010000 		.4byte	.LVL304-1
 10416 1125 0100     		.2byte	0x1
 10417 1127 50       		.byte	0x50
 10418 1128 00000000 		.4byte	0
 10419 112c 00000000 		.4byte	0
 10420              	.LLST118:
 10421 1130 78010000 		.4byte	.LVL306
 10422 1134 81010000 		.4byte	.LVL307-1
 10423 1138 0100     		.2byte	0x1
 10424 113a 50       		.byte	0x50
 10425 113b 00000000 		.4byte	0
 10426 113f 00000000 		.4byte	0
 10427              	.LLST119:
 10428 1143 D0000000 		.4byte	.LVL290
 10429 1147 FA000000 		.4byte	.LVL295
 10430 114b 0400     		.2byte	0x4
 10431 114d 40       		.byte	0x40
 10432 114e 3E       		.byte	0x3e
 10433 114f 24       		.byte	0x24
 10434 1150 9F       		.byte	0x9f
 10435 1151 FC000000 		.4byte	.LVL296
 10436 1155 40010000 		.4byte	.LVL302
 10437 1159 0400     		.2byte	0x4
 10438 115b 40       		.byte	0x40
 10439 115c 3E       		.byte	0x3e
 10440 115d 24       		.byte	0x24
 10441 115e 9F       		.byte	0x9f
 10442 115f 00000000 		.4byte	0
 10443 1163 00000000 		.4byte	0
 10444              	.LLST120:
 10445 1167 DE000000 		.4byte	.LVL292
 10446 116b FA000000 		.4byte	.LVL295
 10447 116f 0100     		.2byte	0x1
 10448 1171 55       		.byte	0x55
 10449 1172 FC000000 		.4byte	.LVL296
 10450 1176 40010000 		.4byte	.LVL302
 10451 117a 0100     		.2byte	0x1
 10452 117c 55       		.byte	0x55
 10453 117d 00000000 		.4byte	0
ARM GAS  C:\Users\AFDHAL~1\AppData\Local\Temp\cc29CzqQ.s 			page 266


 10454 1181 00000000 		.4byte	0
 10455              	.LLST121:
 10456 1185 E2000000 		.4byte	.LVL293
 10457 1189 F4000000 		.4byte	.LVL294
 10458 118d 0200     		.2byte	0x2
 10459 118f 30       		.byte	0x30
 10460 1190 9F       		.byte	0x9f
 10461 1191 FC000000 		.4byte	.LVL296
 10462 1195 30010000 		.4byte	.LVL299
 10463 1199 0200     		.2byte	0x2
 10464 119b 31       		.byte	0x31
 10465 119c 9F       		.byte	0x9f
 10466 119d 00000000 		.4byte	0
 10467 11a1 00000000 		.4byte	0
 10468              	.LLST122:
 10469 11a5 00010000 		.4byte	.LVL297
 10470 11a9 1D010000 		.4byte	.LVL298-1
 10471 11ad 0100     		.2byte	0x1
 10472 11af 50       		.byte	0x50
 10473 11b0 00000000 		.4byte	0
 10474 11b4 00000000 		.4byte	0
 10475              	.LLST123:
 10476 11b8 34010000 		.4byte	.LVL300
 10477 11bc 3D010000 		.4byte	.LVL301-1
 10478 11c0 0100     		.2byte	0x1
 10479 11c2 50       		.byte	0x50
 10480 11c3 00000000 		.4byte	0
 10481 11c7 00000000 		.4byte	0
 10482              	.LLST124:
 10483 11cb 00000000 		.4byte	.LVL314
 10484 11cf 1C000000 		.4byte	.LVL319
 10485 11d3 0100     		.2byte	0x1
 10486 11d5 50       		.byte	0x50
 10487 11d6 1C000000 		.4byte	.LVL319
 10488 11da 1E000000 		.4byte	.LVL320
 10489 11de 0400     		.2byte	0x4
 10490 11e0 F3       		.byte	0xf3
 10491 11e1 01       		.uleb128 0x1
 10492 11e2 50       		.byte	0x50
 10493 11e3 9F       		.byte	0x9f
 10494 11e4 1E000000 		.4byte	.LVL320
 10495 11e8 57000000 		.4byte	.LVL327-1
 10496 11ec 0100     		.2byte	0x1
 10497 11ee 50       		.byte	0x50
 10498 11ef 57000000 		.4byte	.LVL327-1
 10499 11f3 A8000000 		.4byte	.LVL335
 10500 11f7 0400     		.2byte	0x4
 10501 11f9 F3       		.byte	0xf3
 10502 11fa 01       		.uleb128 0x1
 10503 11fb 50       		.byte	0x50
 10504 11fc 9F       		.byte	0x9f
 10505 11fd A8000000 		.4byte	.LVL335
 10506 1201 C1000000 		.4byte	.LVL337-1
 10507 1205 0100     		.2byte	0x1
 10508 1207 50       		.byte	0x50
 10509 1208 C1000000 		.4byte	.LVL337-1
 10510 120c 24010000 		.4byte	.LVL347
ARM GAS  C:\Users\AFDHAL~1\AppData\Local\Temp\cc29CzqQ.s 			page 267


 10511 1210 0400     		.2byte	0x4
 10512 1212 F3       		.byte	0xf3
 10513 1213 01       		.uleb128 0x1
 10514 1214 50       		.byte	0x50
 10515 1215 9F       		.byte	0x9f
 10516 1216 24010000 		.4byte	.LVL347
 10517 121a 29010000 		.4byte	.LVL348-1
 10518 121e 0100     		.2byte	0x1
 10519 1220 50       		.byte	0x50
 10520 1221 29010000 		.4byte	.LVL348-1
 10521 1225 A2010000 		.4byte	.LVL359
 10522 1229 0400     		.2byte	0x4
 10523 122b F3       		.byte	0xf3
 10524 122c 01       		.uleb128 0x1
 10525 122d 50       		.byte	0x50
 10526 122e 9F       		.byte	0x9f
 10527 122f A2010000 		.4byte	.LVL359
 10528 1233 A7010000 		.4byte	.LVL360-1
 10529 1237 0100     		.2byte	0x1
 10530 1239 50       		.byte	0x50
 10531 123a A7010000 		.4byte	.LVL360-1
 10532 123e 2C020000 		.4byte	.LFE42
 10533 1242 0400     		.2byte	0x4
 10534 1244 F3       		.byte	0xf3
 10535 1245 01       		.uleb128 0x1
 10536 1246 50       		.byte	0x50
 10537 1247 9F       		.byte	0x9f
 10538 1248 00000000 		.4byte	0
 10539 124c 00000000 		.4byte	0
 10540              	.LLST125:
 10541 1250 06000000 		.4byte	.LVL315
 10542 1254 0C000000 		.4byte	.LVL316
 10543 1258 0200     		.2byte	0x2
 10544 125a 30       		.byte	0x30
 10545 125b 9F       		.byte	0x9f
 10546 125c 00000000 		.4byte	0
 10547 1260 00000000 		.4byte	0
 10548              	.LLST126:
 10549 1264 14000000 		.4byte	.LVL317
 10550 1268 16000000 		.4byte	.LVL318
 10551 126c 0200     		.2byte	0x2
 10552 126e 30       		.byte	0x30
 10553 126f 9F       		.byte	0x9f
 10554 1270 00000000 		.4byte	0
 10555 1274 00000000 		.4byte	0
 10556              	.LLST127:
 10557 1278 22000000 		.4byte	.LVL321
 10558 127c 28000000 		.4byte	.LVL322
 10559 1280 0200     		.2byte	0x2
 10560 1282 31       		.byte	0x31
 10561 1283 9F       		.byte	0x9f
 10562 1284 00000000 		.4byte	0
 10563 1288 00000000 		.4byte	0
 10564              	.LLST128:
 10565 128c 32000000 		.4byte	.LVL323
 10566 1290 34000000 		.4byte	.LVL324
 10567 1294 0200     		.2byte	0x2
ARM GAS  C:\Users\AFDHAL~1\AppData\Local\Temp\cc29CzqQ.s 			page 268


 10568 1296 31       		.byte	0x31
 10569 1297 9F       		.byte	0x9f
 10570 1298 00000000 		.4byte	0
 10571 129c 00000000 		.4byte	0
 10572              	.LLST129:
 10573 12a0 3C000000 		.4byte	.LVL325
 10574 12a4 52000000 		.4byte	.LVL326
 10575 12a8 0400     		.2byte	0x4
 10576 12aa 0A       		.byte	0xa
 10577 12ab 0008     		.2byte	0x800
 10578 12ad 9F       		.byte	0x9f
 10579 12ae 00000000 		.4byte	0
 10580 12b2 00000000 		.4byte	0
 10581              	.LLST130:
 10582 12b6 52000000 		.4byte	.LVL326
 10583 12ba A8000000 		.4byte	.LVL335
 10584 12be 0400     		.2byte	0x4
 10585 12c0 0A       		.byte	0xa
 10586 12c1 0004     		.2byte	0x400
 10587 12c3 9F       		.byte	0x9f
 10588 12c4 7E010000 		.4byte	.LVL357
 10589 12c8 90010000 		.4byte	.LVL358
 10590 12cc 0400     		.2byte	0x4
 10591 12ce 0A       		.byte	0xa
 10592 12cf 0004     		.2byte	0x400
 10593 12d1 9F       		.byte	0x9f
 10594 12d2 00000000 		.4byte	0
 10595 12d6 00000000 		.4byte	0
 10596              	.LLST131:
 10597 12da 60000000 		.4byte	.LVL328
 10598 12de A8000000 		.4byte	.LVL335
 10599 12e2 0100     		.2byte	0x1
 10600 12e4 56       		.byte	0x56
 10601 12e5 7E010000 		.4byte	.LVL357
 10602 12e9 90010000 		.4byte	.LVL358
 10603 12ed 0100     		.2byte	0x1
 10604 12ef 56       		.byte	0x56
 10605 12f0 00000000 		.4byte	0
 10606 12f4 00000000 		.4byte	0
 10607              	.LLST132:
 10608 12f8 66000000 		.4byte	.LVL329
 10609 12fc 98000000 		.4byte	.LVL332
 10610 1300 0200     		.2byte	0x2
 10611 1302 31       		.byte	0x31
 10612 1303 9F       		.byte	0x9f
 10613 1304 7E010000 		.4byte	.LVL357
 10614 1308 90010000 		.4byte	.LVL358
 10615 130c 0200     		.2byte	0x2
 10616 130e 30       		.byte	0x30
 10617 130f 9F       		.byte	0x9f
 10618 1310 00000000 		.4byte	0
 10619 1314 00000000 		.4byte	0
 10620              	.LLST133:
 10621 1318 6A000000 		.4byte	.LVL330
 10622 131c 87000000 		.4byte	.LVL331-1
 10623 1320 0100     		.2byte	0x1
 10624 1322 50       		.byte	0x50
ARM GAS  C:\Users\AFDHAL~1\AppData\Local\Temp\cc29CzqQ.s 			page 269


 10625 1323 00000000 		.4byte	0
 10626 1327 00000000 		.4byte	0
 10627              	.LLST134:
 10628 132b 9C000000 		.4byte	.LVL333
 10629 132f A5000000 		.4byte	.LVL334-1
 10630 1333 0100     		.2byte	0x1
 10631 1335 50       		.byte	0x50
 10632 1336 00000000 		.4byte	0
 10633 133a 00000000 		.4byte	0
 10634              	.LLST135:
 10635 133e A8000000 		.4byte	.LVL335
 10636 1342 BC000000 		.4byte	.LVL336
 10637 1346 0200     		.2byte	0x2
 10638 1348 38       		.byte	0x38
 10639 1349 9F       		.byte	0x9f
 10640 134a 00000000 		.4byte	0
 10641 134e 00000000 		.4byte	0
 10642              	.LLST136:
 10643 1352 BC000000 		.4byte	.LVL336
 10644 1356 24010000 		.4byte	.LVL347
 10645 135a 0200     		.2byte	0x2
 10646 135c 34       		.byte	0x34
 10647 135d 9F       		.byte	0x9f
 10648 135e 00000000 		.4byte	0
 10649 1362 00000000 		.4byte	0
 10650              	.LLST137:
 10651 1366 CA000000 		.4byte	.LVL338
 10652 136a 24010000 		.4byte	.LVL347
 10653 136e 0100     		.2byte	0x1
 10654 1370 57       		.byte	0x57
 10655 1371 00000000 		.4byte	0
 10656 1375 00000000 		.4byte	0
 10657              	.LLST138:
 10658 1379 CE000000 		.4byte	.LVL339
 10659 137d FE000000 		.4byte	.LVL342
 10660 1381 0200     		.2byte	0x2
 10661 1383 31       		.byte	0x31
 10662 1384 9F       		.byte	0x9f
 10663 1385 14010000 		.4byte	.LVL346
 10664 1389 24010000 		.4byte	.LVL347
 10665 138d 0200     		.2byte	0x2
 10666 138f 30       		.byte	0x30
 10667 1390 9F       		.byte	0x9f
 10668 1391 00000000 		.4byte	0
 10669 1395 00000000 		.4byte	0
 10670              	.LLST139:
 10671 1399 D2000000 		.4byte	.LVL340
 10672 139d EF000000 		.4byte	.LVL341-1
 10673 13a1 0100     		.2byte	0x1
 10674 13a3 50       		.byte	0x50
 10675 13a4 00000000 		.4byte	0
 10676 13a8 00000000 		.4byte	0
 10677              	.LLST140:
 10678 13ac 02010000 		.4byte	.LVL343
 10679 13b0 0B010000 		.4byte	.LVL344-1
 10680 13b4 0100     		.2byte	0x1
 10681 13b6 50       		.byte	0x50
ARM GAS  C:\Users\AFDHAL~1\AppData\Local\Temp\cc29CzqQ.s 			page 270


 10682 13b7 00000000 		.4byte	0
 10683 13bb 00000000 		.4byte	0
 10684              	.LLST141:
 10685 13bf 24010000 		.4byte	.LVL347
 10686 13c3 76010000 		.4byte	.LVL355
 10687 13c7 0200     		.2byte	0x2
 10688 13c9 34       		.byte	0x34
 10689 13ca 9F       		.byte	0x9f
 10690 13cb 90010000 		.4byte	.LVL358
 10691 13cf A2010000 		.4byte	.LVL359
 10692 13d3 0200     		.2byte	0x2
 10693 13d5 34       		.byte	0x34
 10694 13d6 9F       		.byte	0x9f
 10695 13d7 00000000 		.4byte	0
 10696 13db 00000000 		.4byte	0
 10697              	.LLST142:
 10698 13df 32010000 		.4byte	.LVL349
 10699 13e3 76010000 		.4byte	.LVL355
 10700 13e7 0100     		.2byte	0x1
 10701 13e9 56       		.byte	0x56
 10702 13ea 90010000 		.4byte	.LVL358
 10703 13ee A2010000 		.4byte	.LVL359
 10704 13f2 0100     		.2byte	0x1
 10705 13f4 56       		.byte	0x56
 10706 13f5 00000000 		.4byte	0
 10707 13f9 00000000 		.4byte	0
 10708              	.LLST143:
 10709 13fd 36010000 		.4byte	.LVL350
 10710 1401 68010000 		.4byte	.LVL353
 10711 1405 0200     		.2byte	0x2
 10712 1407 31       		.byte	0x31
 10713 1408 9F       		.byte	0x9f
 10714 1409 90010000 		.4byte	.LVL358
 10715 140d A2010000 		.4byte	.LVL359
 10716 1411 0200     		.2byte	0x2
 10717 1413 30       		.byte	0x30
 10718 1414 9F       		.byte	0x9f
 10719 1415 00000000 		.4byte	0
 10720 1419 00000000 		.4byte	0
 10721              	.LLST144:
 10722 141d 3A010000 		.4byte	.LVL351
 10723 1421 57010000 		.4byte	.LVL352-1
 10724 1425 0100     		.2byte	0x1
 10725 1427 50       		.byte	0x50
 10726 1428 00000000 		.4byte	0
 10727 142c 00000000 		.4byte	0
 10728              	.LLST145:
 10729 1430 6C010000 		.4byte	.LVL354
 10730 1434 75010000 		.4byte	.LVL355-1
 10731 1438 0100     		.2byte	0x1
 10732 143a 50       		.byte	0x50
 10733 143b 00000000 		.4byte	0
 10734 143f 00000000 		.4byte	0
 10735              	.LLST146:
 10736 1443 B4010000 		.4byte	.LVL362
 10737 1447 E8010000 		.4byte	.LVL365
 10738 144b 0200     		.2byte	0x2
ARM GAS  C:\Users\AFDHAL~1\AppData\Local\Temp\cc29CzqQ.s 			page 271


 10739 144d 31       		.byte	0x31
 10740 144e 9F       		.byte	0x9f
 10741 144f FE010000 		.4byte	.LVL369
 10742 1453 2C020000 		.4byte	.LFE42
 10743 1457 0200     		.2byte	0x2
 10744 1459 30       		.byte	0x30
 10745 145a 9F       		.byte	0x9f
 10746 145b 00000000 		.4byte	0
 10747 145f 00000000 		.4byte	0
 10748              	.LLST147:
 10749 1463 B8010000 		.4byte	.LVL363
 10750 1467 D5010000 		.4byte	.LVL364-1
 10751 146b 0100     		.2byte	0x1
 10752 146d 50       		.byte	0x50
 10753 146e 00000000 		.4byte	0
 10754 1472 00000000 		.4byte	0
 10755              	.LLST148:
 10756 1476 EC010000 		.4byte	.LVL366
 10757 147a F5010000 		.4byte	.LVL367-1
 10758 147e 0100     		.2byte	0x1
 10759 1480 50       		.byte	0x50
 10760 1481 00000000 		.4byte	0
 10761 1485 00000000 		.4byte	0
 10762              	.LLST149:
 10763 1489 00000000 		.4byte	.LVL370
 10764 148d 08000000 		.4byte	.LVL371
 10765 1491 0100     		.2byte	0x1
 10766 1493 50       		.byte	0x50
 10767 1494 08000000 		.4byte	.LVL371
 10768 1498 0A000000 		.4byte	.LVL372
 10769 149c 0400     		.2byte	0x4
 10770 149e F3       		.byte	0xf3
 10771 149f 01       		.uleb128 0x1
 10772 14a0 50       		.byte	0x50
 10773 14a1 9F       		.byte	0x9f
 10774 14a2 0A000000 		.4byte	.LVL372
 10775 14a6 0E000000 		.4byte	.LVL373
 10776 14aa 0100     		.2byte	0x1
 10777 14ac 50       		.byte	0x50
 10778 14ad 0E000000 		.4byte	.LVL373
 10779 14b1 72000000 		.4byte	.LVL391
 10780 14b5 0100     		.2byte	0x1
 10781 14b7 54       		.byte	0x54
 10782 14b8 72000000 		.4byte	.LVL391
 10783 14bc A2000000 		.4byte	.LVL396
 10784 14c0 0400     		.2byte	0x4
 10785 14c2 F3       		.byte	0xf3
 10786 14c3 01       		.uleb128 0x1
 10787 14c4 50       		.byte	0x50
 10788 14c5 9F       		.byte	0x9f
 10789 14c6 A2000000 		.4byte	.LVL396
 10790 14ca D4000000 		.4byte	.LFE45
 10791 14ce 0100     		.2byte	0x1
 10792 14d0 54       		.byte	0x54
 10793 14d1 00000000 		.4byte	0
 10794 14d5 00000000 		.4byte	0
 10795              	.LLST150:
ARM GAS  C:\Users\AFDHAL~1\AppData\Local\Temp\cc29CzqQ.s 			page 272


 10796 14d9 00000000 		.4byte	.LVL370
 10797 14dd 08000000 		.4byte	.LVL371
 10798 14e1 0100     		.2byte	0x1
 10799 14e3 51       		.byte	0x51
 10800 14e4 08000000 		.4byte	.LVL371
 10801 14e8 0A000000 		.4byte	.LVL372
 10802 14ec 0400     		.2byte	0x4
 10803 14ee F3       		.byte	0xf3
 10804 14ef 01       		.uleb128 0x1
 10805 14f0 51       		.byte	0x51
 10806 14f1 9F       		.byte	0x9f
 10807 14f2 0A000000 		.4byte	.LVL372
 10808 14f6 6D000000 		.4byte	.LVL390-1
 10809 14fa 0100     		.2byte	0x1
 10810 14fc 51       		.byte	0x51
 10811 14fd 6D000000 		.4byte	.LVL390-1
 10812 1501 A2000000 		.4byte	.LVL396
 10813 1505 0400     		.2byte	0x4
 10814 1507 F3       		.byte	0xf3
 10815 1508 01       		.uleb128 0x1
 10816 1509 51       		.byte	0x51
 10817 150a 9F       		.byte	0x9f
 10818 150b A2000000 		.4byte	.LVL396
 10819 150f D4000000 		.4byte	.LFE45
 10820 1513 0100     		.2byte	0x1
 10821 1515 51       		.byte	0x51
 10822 1516 00000000 		.4byte	0
 10823 151a 00000000 		.4byte	0
 10824              	.LLST151:
 10825 151e 00000000 		.4byte	.LVL370
 10826 1522 08000000 		.4byte	.LVL371
 10827 1526 0100     		.2byte	0x1
 10828 1528 52       		.byte	0x52
 10829 1529 08000000 		.4byte	.LVL371
 10830 152d 0A000000 		.4byte	.LVL372
 10831 1531 0400     		.2byte	0x4
 10832 1533 F3       		.byte	0xf3
 10833 1534 01       		.uleb128 0x1
 10834 1535 52       		.byte	0x52
 10835 1536 9F       		.byte	0x9f
 10836 1537 0A000000 		.4byte	.LVL372
 10837 153b 40000000 		.4byte	.LVL380
 10838 153f 0100     		.2byte	0x1
 10839 1541 52       		.byte	0x52
 10840 1542 40000000 		.4byte	.LVL380
 10841 1546 54000000 		.4byte	.LVL385
 10842 154a 0400     		.2byte	0x4
 10843 154c F3       		.byte	0xf3
 10844 154d 01       		.uleb128 0x1
 10845 154e 52       		.byte	0x52
 10846 154f 9F       		.byte	0x9f
 10847 1550 54000000 		.4byte	.LVL385
 10848 1554 5E000000 		.4byte	.LVL388
 10849 1558 0100     		.2byte	0x1
 10850 155a 52       		.byte	0x52
 10851 155b 5E000000 		.4byte	.LVL388
 10852 155f D4000000 		.4byte	.LFE45
ARM GAS  C:\Users\AFDHAL~1\AppData\Local\Temp\cc29CzqQ.s 			page 273


 10853 1563 0400     		.2byte	0x4
 10854 1565 F3       		.byte	0xf3
 10855 1566 01       		.uleb128 0x1
 10856 1567 52       		.byte	0x52
 10857 1568 9F       		.byte	0x9f
 10858 1569 00000000 		.4byte	0
 10859 156d 00000000 		.4byte	0
 10860              	.LLST152:
 10861 1571 28000000 		.4byte	.LVL376
 10862 1575 36000000 		.4byte	.LVL378
 10863 1579 0A00     		.2byte	0xa
 10864 157b 72       		.byte	0x72
 10865 157c 00       		.sleb128 0
 10866 157d 75       		.byte	0x75
 10867 157e 00       		.sleb128 0
 10868 157f 22       		.byte	0x22
 10869 1580 0A       		.byte	0xa
 10870 1581 FFFF     		.2byte	0xffff
 10871 1583 1A       		.byte	0x1a
 10872 1584 9F       		.byte	0x9f
 10873 1585 36000000 		.4byte	.LVL378
 10874 1589 38000000 		.4byte	.LVL379
 10875 158d 0700     		.2byte	0x7
 10876 158f 75       		.byte	0x75
 10877 1590 00       		.sleb128 0
 10878 1591 0A       		.byte	0xa
 10879 1592 FFFF     		.2byte	0xffff
 10880 1594 1A       		.byte	0x1a
 10881 1595 9F       		.byte	0x9f
 10882 1596 00000000 		.4byte	0
 10883 159a 00000000 		.4byte	0
 10884              	.LLST153:
 10885 159e 0A000000 		.4byte	.LVL372
 10886 15a2 0E000000 		.4byte	.LVL373
 10887 15a6 0100     		.2byte	0x1
 10888 15a8 50       		.byte	0x50
 10889 15a9 0E000000 		.4byte	.LVL373
 10890 15ad 12000000 		.4byte	.LVL374
 10891 15b1 0100     		.2byte	0x1
 10892 15b3 54       		.byte	0x54
 10893 15b4 00000000 		.4byte	0
 10894 15b8 00000000 		.4byte	0
 10895              	.LLST154:
 10896 15bc 1E000000 		.4byte	.LVL375
 10897 15c0 28000000 		.4byte	.LVL376
 10898 15c4 0100     		.2byte	0x1
 10899 15c6 54       		.byte	0x54
 10900 15c7 54000000 		.4byte	.LVL385
 10901 15cb 5A000000 		.4byte	.LVL387
 10902 15cf 0100     		.2byte	0x1
 10903 15d1 54       		.byte	0x54
 10904 15d2 00000000 		.4byte	0
 10905 15d6 00000000 		.4byte	0
 10906              	.LLST155:
 10907 15da 1E000000 		.4byte	.LVL375
 10908 15de 28000000 		.4byte	.LVL376
 10909 15e2 0200     		.2byte	0x2
ARM GAS  C:\Users\AFDHAL~1\AppData\Local\Temp\cc29CzqQ.s 			page 274


 10910 15e4 30       		.byte	0x30
 10911 15e5 9F       		.byte	0x9f
 10912 15e6 54000000 		.4byte	.LVL385
 10913 15ea 58000000 		.4byte	.LVL386
 10914 15ee 0200     		.2byte	0x2
 10915 15f0 30       		.byte	0x30
 10916 15f1 9F       		.byte	0x9f
 10917 15f2 58000000 		.4byte	.LVL386
 10918 15f6 5A000000 		.4byte	.LVL387
 10919 15fa 0100     		.2byte	0x1
 10920 15fc 55       		.byte	0x55
 10921 15fd 00000000 		.4byte	0
 10922 1601 00000000 		.4byte	0
 10923              	.LLST157:
 10924 1605 28000000 		.4byte	.LVL376
 10925 1609 54000000 		.4byte	.LVL385
 10926 160d 0100     		.2byte	0x1
 10927 160f 51       		.byte	0x51
 10928 1610 5A000000 		.4byte	.LVL387
 10929 1614 6D000000 		.4byte	.LVL390-1
 10930 1618 0100     		.2byte	0x1
 10931 161a 51       		.byte	0x51
 10932 161b 6D000000 		.4byte	.LVL390-1
 10933 161f A2000000 		.4byte	.LVL396
 10934 1623 0400     		.2byte	0x4
 10935 1625 F3       		.byte	0xf3
 10936 1626 01       		.uleb128 0x1
 10937 1627 51       		.byte	0x51
 10938 1628 9F       		.byte	0x9f
 10939 1629 A2000000 		.4byte	.LVL396
 10940 162d D4000000 		.4byte	.LFE45
 10941 1631 0100     		.2byte	0x1
 10942 1633 51       		.byte	0x51
 10943 1634 00000000 		.4byte	0
 10944 1638 00000000 		.4byte	0
 10945              	.LLST158:
 10946 163c 28000000 		.4byte	.LVL376
 10947 1640 54000000 		.4byte	.LVL385
 10948 1644 0100     		.2byte	0x1
 10949 1646 54       		.byte	0x54
 10950 1647 5A000000 		.4byte	.LVL387
 10951 164b 72000000 		.4byte	.LVL391
 10952 164f 0100     		.2byte	0x1
 10953 1651 54       		.byte	0x54
 10954 1652 72000000 		.4byte	.LVL391
 10955 1656 A2000000 		.4byte	.LVL396
 10956 165a 0400     		.2byte	0x4
 10957 165c F3       		.byte	0xf3
 10958 165d 01       		.uleb128 0x1
 10959 165e 50       		.byte	0x50
 10960 165f 9F       		.byte	0x9f
 10961 1660 A2000000 		.4byte	.LVL396
 10962 1664 D4000000 		.4byte	.LFE45
 10963 1668 0100     		.2byte	0x1
 10964 166a 54       		.byte	0x54
 10965 166b 00000000 		.4byte	0
 10966 166f 00000000 		.4byte	0
ARM GAS  C:\Users\AFDHAL~1\AppData\Local\Temp\cc29CzqQ.s 			page 275


 10967              	.LLST159:
 10968 1673 60000000 		.4byte	.LVL389
 10969 1677 A2000000 		.4byte	.LVL396
 10970 167b 0100     		.2byte	0x1
 10971 167d 57       		.byte	0x57
 10972 167e 00000000 		.4byte	0
 10973 1682 00000000 		.4byte	0
 10974              	.LLST160:
 10975 1686 28000000 		.4byte	.LVL376
 10976 168a 2C000000 		.4byte	.LVL377
 10977 168e 0100     		.2byte	0x1
 10978 1690 54       		.byte	0x54
 10979 1691 00000000 		.4byte	0
 10980 1695 00000000 		.4byte	0
 10981              	.LLST161:
 10982 1699 42000000 		.4byte	.LVL381
 10983 169d 44000000 		.4byte	.LVL382
 10984 16a1 0100     		.2byte	0x1
 10985 16a3 54       		.byte	0x54
 10986 16a4 48000000 		.4byte	.LVL383
 10987 16a8 54000000 		.4byte	.LVL385
 10988 16ac 0100     		.2byte	0x1
 10989 16ae 54       		.byte	0x54
 10990 16af 00000000 		.4byte	0
 10991 16b3 00000000 		.4byte	0
 10992              	.LLST162:
 10993 16b7 42000000 		.4byte	.LVL381
 10994 16bb 44000000 		.4byte	.LVL382
 10995 16bf 0200     		.2byte	0x2
 10996 16c1 30       		.byte	0x30
 10997 16c2 9F       		.byte	0x9f
 10998 16c3 48000000 		.4byte	.LVL383
 10999 16c7 52000000 		.4byte	.LVL384
 11000 16cb 0200     		.2byte	0x2
 11001 16cd 30       		.byte	0x30
 11002 16ce 9F       		.byte	0x9f
 11003 16cf 52000000 		.4byte	.LVL384
 11004 16d3 54000000 		.4byte	.LVL385
 11005 16d7 0100     		.2byte	0x1
 11006 16d9 53       		.byte	0x53
 11007 16da 00000000 		.4byte	0
 11008 16de 00000000 		.4byte	0
 11009              	.LLST163:
 11010 16e2 A6000000 		.4byte	.LVL397
 11011 16e6 A8000000 		.4byte	.LVL398
 11012 16ea 0200     		.2byte	0x2
 11013 16ec 31       		.byte	0x31
 11014 16ed 9F       		.byte	0x9f
 11015 16ee AC000000 		.4byte	.LVL399
 11016 16f2 D4000000 		.4byte	.LFE45
 11017 16f6 0100     		.2byte	0x1
 11018 16f8 54       		.byte	0x54
 11019 16f9 00000000 		.4byte	0
 11020 16fd 00000000 		.4byte	0
 11021              	.LLST164:
 11022 1701 A6000000 		.4byte	.LVL397
 11023 1705 A8000000 		.4byte	.LVL398
ARM GAS  C:\Users\AFDHAL~1\AppData\Local\Temp\cc29CzqQ.s 			page 276


 11024 1709 0200     		.2byte	0x2
 11025 170b 30       		.byte	0x30
 11026 170c 9F       		.byte	0x9f
 11027 170d AC000000 		.4byte	.LVL399
 11028 1711 B6000000 		.4byte	.LVL400
 11029 1715 0200     		.2byte	0x2
 11030 1717 30       		.byte	0x30
 11031 1718 9F       		.byte	0x9f
 11032 1719 B6000000 		.4byte	.LVL400
 11033 171d D4000000 		.4byte	.LFE45
 11034 1721 0100     		.2byte	0x1
 11035 1723 53       		.byte	0x53
 11036 1724 00000000 		.4byte	0
 11037 1728 00000000 		.4byte	0
 11038              	.LLST165:
 11039 172c 60000000 		.4byte	.LVL389
 11040 1730 72000000 		.4byte	.LVL391
 11041 1734 0100     		.2byte	0x1
 11042 1736 54       		.byte	0x54
 11043 1737 72000000 		.4byte	.LVL391
 11044 173b 90000000 		.4byte	.LVL395
 11045 173f 0400     		.2byte	0x4
 11046 1741 F3       		.byte	0xf3
 11047 1742 01       		.uleb128 0x1
 11048 1743 50       		.byte	0x50
 11049 1744 9F       		.byte	0x9f
 11050 1745 00000000 		.4byte	0
 11051 1749 00000000 		.4byte	0
 11052              	.LLST166:
 11053 174d 7C000000 		.4byte	.LVL392
 11054 1751 7E000000 		.4byte	.LVL393
 11055 1755 0B00     		.2byte	0xb
 11056 1757 0A       		.byte	0xa
 11057 1758 FFFF     		.2byte	0xffff
 11058 175a 74       		.byte	0x74
 11059 175b 00       		.sleb128 0
 11060 175c 24       		.byte	0x24
 11061 175d 20       		.byte	0x20
 11062 175e 73       		.byte	0x73
 11063 175f 00       		.sleb128 0
 11064 1760 1A       		.byte	0x1a
 11065 1761 9F       		.byte	0x9f
 11066 1762 7E000000 		.4byte	.LVL393
 11067 1766 82000000 		.4byte	.LVL394
 11068 176a 0100     		.2byte	0x1
 11069 176c 53       		.byte	0x53
 11070 176d 00000000 		.4byte	0
 11071 1771 00000000 		.4byte	0
 11072              	.LLST167:
 11073 1775 00000000 		.4byte	.LVL401
 11074 1779 0A000000 		.4byte	.LVL402
 11075 177d 0100     		.2byte	0x1
 11076 177f 50       		.byte	0x50
 11077 1780 0A000000 		.4byte	.LVL402
 11078 1784 0C000000 		.4byte	.LVL403
 11079 1788 0400     		.2byte	0x4
 11080 178a F3       		.byte	0xf3
ARM GAS  C:\Users\AFDHAL~1\AppData\Local\Temp\cc29CzqQ.s 			page 277


 11081 178b 01       		.uleb128 0x1
 11082 178c 50       		.byte	0x50
 11083 178d 9F       		.byte	0x9f
 11084 178e 0C000000 		.4byte	.LVL403
 11085 1792 0E000000 		.4byte	.LVL404
 11086 1796 0100     		.2byte	0x1
 11087 1798 50       		.byte	0x50
 11088 1799 0E000000 		.4byte	.LVL404
 11089 179d 68000000 		.4byte	.LVL419
 11090 17a1 0100     		.2byte	0x1
 11091 17a3 54       		.byte	0x54
 11092 17a4 68000000 		.4byte	.LVL419
 11093 17a8 B4000000 		.4byte	.LFE46
 11094 17ac 0400     		.2byte	0x4
 11095 17ae F3       		.byte	0xf3
 11096 17af 01       		.uleb128 0x1
 11097 17b0 50       		.byte	0x50
 11098 17b1 9F       		.byte	0x9f
 11099 17b2 00000000 		.4byte	0
 11100 17b6 00000000 		.4byte	0
 11101              	.LLST168:
 11102 17ba 00000000 		.4byte	.LVL401
 11103 17be 0A000000 		.4byte	.LVL402
 11104 17c2 0100     		.2byte	0x1
 11105 17c4 51       		.byte	0x51
 11106 17c5 0A000000 		.4byte	.LVL402
 11107 17c9 0C000000 		.4byte	.LVL403
 11108 17cd 0400     		.2byte	0x4
 11109 17cf F3       		.byte	0xf3
 11110 17d0 01       		.uleb128 0x1
 11111 17d1 51       		.byte	0x51
 11112 17d2 9F       		.byte	0x9f
 11113 17d3 0C000000 		.4byte	.LVL403
 11114 17d7 63000000 		.4byte	.LVL418-1
 11115 17db 0100     		.2byte	0x1
 11116 17dd 51       		.byte	0x51
 11117 17de 63000000 		.4byte	.LVL418-1
 11118 17e2 B4000000 		.4byte	.LFE46
 11119 17e6 0400     		.2byte	0x4
 11120 17e8 F3       		.byte	0xf3
 11121 17e9 01       		.uleb128 0x1
 11122 17ea 51       		.byte	0x51
 11123 17eb 9F       		.byte	0x9f
 11124 17ec 00000000 		.4byte	0
 11125 17f0 00000000 		.4byte	0
 11126              	.LLST169:
 11127 17f4 00000000 		.4byte	.LVL401
 11128 17f8 0A000000 		.4byte	.LVL402
 11129 17fc 0100     		.2byte	0x1
 11130 17fe 52       		.byte	0x52
 11131 17ff 0A000000 		.4byte	.LVL402
 11132 1803 0C000000 		.4byte	.LVL403
 11133 1807 0400     		.2byte	0x4
 11134 1809 F3       		.byte	0xf3
 11135 180a 01       		.uleb128 0x1
 11136 180b 52       		.byte	0x52
 11137 180c 9F       		.byte	0x9f
ARM GAS  C:\Users\AFDHAL~1\AppData\Local\Temp\cc29CzqQ.s 			page 278


 11138 180d 0C000000 		.4byte	.LVL403
 11139 1811 10000000 		.4byte	.LVL405
 11140 1815 0100     		.2byte	0x1
 11141 1817 52       		.byte	0x52
 11142 1818 10000000 		.4byte	.LVL405
 11143 181c 6C000000 		.4byte	.LVL420
 11144 1820 0100     		.2byte	0x1
 11145 1822 55       		.byte	0x55
 11146 1823 6C000000 		.4byte	.LVL420
 11147 1827 B4000000 		.4byte	.LFE46
 11148 182b 0400     		.2byte	0x4
 11149 182d F3       		.byte	0xf3
 11150 182e 01       		.uleb128 0x1
 11151 182f 52       		.byte	0x52
 11152 1830 9F       		.byte	0x9f
 11153 1831 00000000 		.4byte	0
 11154 1835 00000000 		.4byte	0
 11155              	.LLST170:
 11156 1839 0C000000 		.4byte	.LVL403
 11157 183d 0E000000 		.4byte	.LVL404
 11158 1841 0100     		.2byte	0x1
 11159 1843 50       		.byte	0x50
 11160 1844 0E000000 		.4byte	.LVL404
 11161 1848 12000000 		.4byte	.LVL406
 11162 184c 0100     		.2byte	0x1
 11163 184e 54       		.byte	0x54
 11164 184f 00000000 		.4byte	0
 11165 1853 00000000 		.4byte	0
 11166              	.LLST171:
 11167 1857 28000000 		.4byte	.LVL407
 11168 185b 2A000000 		.4byte	.LVL408
 11169 185f 0100     		.2byte	0x1
 11170 1861 54       		.byte	0x54
 11171 1862 2E000000 		.4byte	.LVL409
 11172 1866 3A000000 		.4byte	.LVL411
 11173 186a 0100     		.2byte	0x1
 11174 186c 54       		.byte	0x54
 11175 186d 00000000 		.4byte	0
 11176 1871 00000000 		.4byte	0
 11177              	.LLST172:
 11178 1875 28000000 		.4byte	.LVL407
 11179 1879 2A000000 		.4byte	.LVL408
 11180 187d 0200     		.2byte	0x2
 11181 187f 30       		.byte	0x30
 11182 1880 9F       		.byte	0x9f
 11183 1881 2E000000 		.4byte	.LVL409
 11184 1885 38000000 		.4byte	.LVL410
 11185 1889 0200     		.2byte	0x2
 11186 188b 30       		.byte	0x30
 11187 188c 9F       		.byte	0x9f
 11188 188d 38000000 		.4byte	.LVL410
 11189 1891 3A000000 		.4byte	.LVL411
 11190 1895 0100     		.2byte	0x1
 11191 1897 53       		.byte	0x53
 11192 1898 00000000 		.4byte	0
 11193 189c 00000000 		.4byte	0
 11194              	.LLST173:
ARM GAS  C:\Users\AFDHAL~1\AppData\Local\Temp\cc29CzqQ.s 			page 279


 11195 18a0 3E000000 		.4byte	.LVL412
 11196 18a4 40000000 		.4byte	.LVL413
 11197 18a8 0200     		.2byte	0x2
 11198 18aa 31       		.byte	0x31
 11199 18ab 9F       		.byte	0x9f
 11200 18ac 44000000 		.4byte	.LVL414
 11201 18b0 50000000 		.4byte	.LVL416
 11202 18b4 0100     		.2byte	0x1
 11203 18b6 54       		.byte	0x54
 11204 18b7 00000000 		.4byte	0
 11205 18bb 00000000 		.4byte	0
 11206              	.LLST174:
 11207 18bf 3E000000 		.4byte	.LVL412
 11208 18c3 40000000 		.4byte	.LVL413
 11209 18c7 0200     		.2byte	0x2
 11210 18c9 30       		.byte	0x30
 11211 18ca 9F       		.byte	0x9f
 11212 18cb 44000000 		.4byte	.LVL414
 11213 18cf 4E000000 		.4byte	.LVL415
 11214 18d3 0200     		.2byte	0x2
 11215 18d5 30       		.byte	0x30
 11216 18d6 9F       		.byte	0x9f
 11217 18d7 4E000000 		.4byte	.LVL415
 11218 18db 50000000 		.4byte	.LVL416
 11219 18df 0100     		.2byte	0x1
 11220 18e1 53       		.byte	0x53
 11221 18e2 00000000 		.4byte	0
 11222 18e6 00000000 		.4byte	0
 11223              	.LLST175:
 11224 18ea 56000000 		.4byte	.LVL417
 11225 18ee 6C000000 		.4byte	.LVL420
 11226 18f2 0100     		.2byte	0x1
 11227 18f4 55       		.byte	0x55
 11228 18f5 6C000000 		.4byte	.LVL420
 11229 18f9 86000000 		.4byte	.LVL424
 11230 18fd 0400     		.2byte	0x4
 11231 18ff F3       		.byte	0xf3
 11232 1900 01       		.uleb128 0x1
 11233 1901 52       		.byte	0x52
 11234 1902 9F       		.byte	0x9f
 11235 1903 00000000 		.4byte	0
 11236 1907 00000000 		.4byte	0
 11237              	.LLST176:
 11238 190b 56000000 		.4byte	.LVL417
 11239 190f 68000000 		.4byte	.LVL419
 11240 1913 0100     		.2byte	0x1
 11241 1915 54       		.byte	0x54
 11242 1916 68000000 		.4byte	.LVL419
 11243 191a 86000000 		.4byte	.LVL424
 11244 191e 0400     		.2byte	0x4
 11245 1920 F3       		.byte	0xf3
 11246 1921 01       		.uleb128 0x1
 11247 1922 50       		.byte	0x50
 11248 1923 9F       		.byte	0x9f
 11249 1924 00000000 		.4byte	0
 11250 1928 00000000 		.4byte	0
 11251              	.LLST177:
ARM GAS  C:\Users\AFDHAL~1\AppData\Local\Temp\cc29CzqQ.s 			page 280


 11252 192c 72000000 		.4byte	.LVL421
 11253 1930 74000000 		.4byte	.LVL422
 11254 1934 0B00     		.2byte	0xb
 11255 1936 0A       		.byte	0xa
 11256 1937 FFFF     		.2byte	0xffff
 11257 1939 74       		.byte	0x74
 11258 193a 00       		.sleb128 0
 11259 193b 24       		.byte	0x24
 11260 193c 20       		.byte	0x20
 11261 193d 73       		.byte	0x73
 11262 193e 00       		.sleb128 0
 11263 193f 1A       		.byte	0x1a
 11264 1940 9F       		.byte	0x9f
 11265 1941 74000000 		.4byte	.LVL422
 11266 1945 78000000 		.4byte	.LVL423
 11267 1949 0100     		.2byte	0x1
 11268 194b 53       		.byte	0x53
 11269 194c 00000000 		.4byte	0
 11270 1950 00000000 		.4byte	0
 11271              		.section	.debug_aranges,"",%progbits
 11272 0000 64010000 		.4byte	0x164
 11273 0004 0200     		.2byte	0x2
 11274 0006 00000000 		.4byte	.Ldebug_info0
 11275 000a 04       		.byte	0x4
 11276 000b 00       		.byte	0
 11277 000c 0000     		.2byte	0
 11278 000e 0000     		.2byte	0
 11279 0010 00000000 		.4byte	.LFB43
 11280 0014 CC000000 		.4byte	.LFE43-.LFB43
 11281 0018 00000000 		.4byte	.LFB1
 11282 001c 14000000 		.4byte	.LFE1-.LFB1
 11283 0020 00000000 		.4byte	.LFB2
 11284 0024 88000000 		.4byte	.LFE2-.LFB2
 11285 0028 00000000 		.4byte	.LFB3
 11286 002c 58000000 		.4byte	.LFE3-.LFB3
 11287 0030 00000000 		.4byte	.LFB4
 11288 0034 14000000 		.4byte	.LFE4-.LFB4
 11289 0038 00000000 		.4byte	.LFB5
 11290 003c F4000000 		.4byte	.LFE5-.LFB5
 11291 0040 00000000 		.4byte	.LFB7
 11292 0044 FC010000 		.4byte	.LFE7-.LFB7
 11293 0048 00000000 		.4byte	.LFB8
 11294 004c A0000000 		.4byte	.LFE8-.LFB8
 11295 0050 00000000 		.4byte	.LFB9
 11296 0054 2C000000 		.4byte	.LFE9-.LFB9
 11297 0058 00000000 		.4byte	.LFB11
 11298 005c 6C000000 		.4byte	.LFE11-.LFB11
 11299 0060 00000000 		.4byte	.LFB12
 11300 0064 40000000 		.4byte	.LFE12-.LFB12
 11301 0068 00000000 		.4byte	.LFB13
 11302 006c 78000000 		.4byte	.LFE13-.LFB13
 11303 0070 00000000 		.4byte	.LFB14
 11304 0074 0C000000 		.4byte	.LFE14-.LFB14
 11305 0078 00000000 		.4byte	.LFB15
 11306 007c 40000000 		.4byte	.LFE15-.LFB15
 11307 0080 00000000 		.4byte	.LFB16
 11308 0084 20000000 		.4byte	.LFE16-.LFB16
ARM GAS  C:\Users\AFDHAL~1\AppData\Local\Temp\cc29CzqQ.s 			page 281


 11309 0088 00000000 		.4byte	.LFB17
 11310 008c 1C000000 		.4byte	.LFE17-.LFB17
 11311 0090 00000000 		.4byte	.LFB19
 11312 0094 30000000 		.4byte	.LFE19-.LFB19
 11313 0098 00000000 		.4byte	.LFB20
 11314 009c 18000000 		.4byte	.LFE20-.LFB20
 11315 00a0 00000000 		.4byte	.LFB21
 11316 00a4 30000000 		.4byte	.LFE21-.LFB21
 11317 00a8 00000000 		.4byte	.LFB22
 11318 00ac 14000000 		.4byte	.LFE22-.LFB22
 11319 00b0 00000000 		.4byte	.LFB23
 11320 00b4 2C000000 		.4byte	.LFE23-.LFB23
 11321 00b8 00000000 		.4byte	.LFB24
 11322 00bc 18000000 		.4byte	.LFE24-.LFB24
 11323 00c0 00000000 		.4byte	.LFB25
 11324 00c4 3C000000 		.4byte	.LFE25-.LFB25
 11325 00c8 00000000 		.4byte	.LFB26
 11326 00cc 4C000000 		.4byte	.LFE26-.LFB26
 11327 00d0 00000000 		.4byte	.LFB27
 11328 00d4 34000000 		.4byte	.LFE27-.LFB27
 11329 00d8 00000000 		.4byte	.LFB28
 11330 00dc 14000000 		.4byte	.LFE28-.LFB28
 11331 00e0 00000000 		.4byte	.LFB29
 11332 00e4 48000000 		.4byte	.LFE29-.LFB29
 11333 00e8 00000000 		.4byte	.LFB30
 11334 00ec 2C000000 		.4byte	.LFE30-.LFB30
 11335 00f0 00000000 		.4byte	.LFB31
 11336 00f4 10000000 		.4byte	.LFE31-.LFB31
 11337 00f8 00000000 		.4byte	.LFB32
 11338 00fc 14000000 		.4byte	.LFE32-.LFB32
 11339 0100 00000000 		.4byte	.LFB33
 11340 0104 30000000 		.4byte	.LFE33-.LFB33
 11341 0108 00000000 		.4byte	.LFB34
 11342 010c 14000000 		.4byte	.LFE34-.LFB34
 11343 0110 00000000 		.4byte	.LFB35
 11344 0114 8C000000 		.4byte	.LFE35-.LFB35
 11345 0118 00000000 		.4byte	.LFB36
 11346 011c 1C000000 		.4byte	.LFE36-.LFB36
 11347 0120 00000000 		.4byte	.LFB37
 11348 0124 18000000 		.4byte	.LFE37-.LFB37
 11349 0128 00000000 		.4byte	.LFB38
 11350 012c 18000000 		.4byte	.LFE38-.LFB38
 11351 0130 00000000 		.4byte	.LFB39
 11352 0134 28000000 		.4byte	.LFE39-.LFB39
 11353 0138 00000000 		.4byte	.LFB40
 11354 013c 1C000000 		.4byte	.LFE40-.LFB40
 11355 0140 00000000 		.4byte	.LFB41
 11356 0144 E4010000 		.4byte	.LFE41-.LFB41
 11357 0148 00000000 		.4byte	.LFB42
 11358 014c 2C020000 		.4byte	.LFE42-.LFB42
 11359 0150 00000000 		.4byte	.LFB45
 11360 0154 D4000000 		.4byte	.LFE45-.LFB45
 11361 0158 00000000 		.4byte	.LFB46
 11362 015c B4000000 		.4byte	.LFE46-.LFB46
 11363 0160 00000000 		.4byte	0
 11364 0164 00000000 		.4byte	0
 11365              		.section	.debug_ranges,"",%progbits
ARM GAS  C:\Users\AFDHAL~1\AppData\Local\Temp\cc29CzqQ.s 			page 282


 11366              	.Ldebug_ranges0:
 11367 0000 00000000 		.4byte	.LBB146
 11368 0004 02000000 		.4byte	.LBE146
 11369 0008 04000000 		.4byte	.LBB149
 11370 000c 06000000 		.4byte	.LBE149
 11371 0010 00000000 		.4byte	0
 11372 0014 00000000 		.4byte	0
 11373 0018 12000000 		.4byte	.LBB150
 11374 001c 1C000000 		.4byte	.LBE150
 11375 0020 56000000 		.4byte	.LBB165
 11376 0024 60000000 		.4byte	.LBE165
 11377 0028 9A000000 		.4byte	.LBB180
 11378 002c AA000000 		.4byte	.LBE180
 11379 0030 B0000000 		.4byte	.LBB181
 11380 0034 CC000000 		.4byte	.LBE181
 11381 0038 00000000 		.4byte	0
 11382 003c 00000000 		.4byte	0
 11383 0040 1C000000 		.4byte	.LBB155
 11384 0044 20000000 		.4byte	.LBE155
 11385 0048 22000000 		.4byte	.LBB160
 11386 004c 2C000000 		.4byte	.LBE160
 11387 0050 30000000 		.4byte	.LBB161
 11388 0054 38000000 		.4byte	.LBE161
 11389 0058 3E000000 		.4byte	.LBB162
 11390 005c 4A000000 		.4byte	.LBE162
 11391 0060 00000000 		.4byte	0
 11392 0064 00000000 		.4byte	0
 11393 0068 6C000000 		.4byte	.LBB168
 11394 006c 6E000000 		.4byte	.LBE168
 11395 0070 72000000 		.4byte	.LBB171
 11396 0074 74000000 		.4byte	.LBE171
 11397 0078 00000000 		.4byte	0
 11398 007c 00000000 		.4byte	0
 11399 0080 00000000 		.4byte	.LBB196
 11400 0084 02000000 		.4byte	.LBE196
 11401 0088 04000000 		.4byte	.LBB199
 11402 008c 0E000000 		.4byte	.LBE199
 11403 0090 00000000 		.4byte	0
 11404 0094 00000000 		.4byte	0
 11405 0098 3C000000 		.4byte	.LBB204
 11406 009c 44000000 		.4byte	.LBE204
 11407 00a0 4C000000 		.4byte	.LBB212
 11408 00a4 88000000 		.4byte	.LBE212
 11409 00a8 00000000 		.4byte	0
 11410 00ac 00000000 		.4byte	0
 11411 00b0 44000000 		.4byte	.LBB221
 11412 00b4 46000000 		.4byte	.LBE221
 11413 00b8 4A000000 		.4byte	.LBB239
 11414 00bc 4E000000 		.4byte	.LBE239
 11415 00c0 54000000 		.4byte	.LBB240
 11416 00c4 56000000 		.4byte	.LBE240
 11417 00c8 68000000 		.4byte	.LBB241
 11418 00cc 70000000 		.4byte	.LBE241
 11419 00d0 84000000 		.4byte	.LBB242
 11420 00d4 E8000000 		.4byte	.LBE242
 11421 00d8 18010000 		.4byte	.LBB243
 11422 00dc 1A010000 		.4byte	.LBE243
ARM GAS  C:\Users\AFDHAL~1\AppData\Local\Temp\cc29CzqQ.s 			page 283


 11423 00e0 42010000 		.4byte	.LBB249
 11424 00e4 56010000 		.4byte	.LBE249
 11425 00e8 00000000 		.4byte	0
 11426 00ec 00000000 		.4byte	0
 11427 00f0 4C000000 		.4byte	.LBB223
 11428 00f4 4E000000 		.4byte	.LBE223
 11429 00f8 54000000 		.4byte	.LBB229
 11430 00fc 56000000 		.4byte	.LBE229
 11431 0100 84000000 		.4byte	.LBB230
 11432 0104 E8000000 		.4byte	.LBE230
 11433 0108 18010000 		.4byte	.LBB231
 11434 010c 1A010000 		.4byte	.LBE231
 11435 0110 42010000 		.4byte	.LBB232
 11436 0114 56010000 		.4byte	.LBE232
 11437 0118 00000000 		.4byte	0
 11438 011c 00000000 		.4byte	0
 11439 0120 30010000 		.4byte	.LBB244
 11440 0124 3A010000 		.4byte	.LBE244
 11441 0128 56010000 		.4byte	.LBB250
 11442 012c FC010000 		.4byte	.LBE250
 11443 0130 00000000 		.4byte	0
 11444 0134 00000000 		.4byte	0
 11445 0138 02000000 		.4byte	.LBB265
 11446 013c 04000000 		.4byte	.LBE265
 11447 0140 06000000 		.4byte	.LBB268
 11448 0144 08000000 		.4byte	.LBE268
 11449 0148 00000000 		.4byte	0
 11450 014c 00000000 		.4byte	0
 11451 0150 26000000 		.4byte	.LBB269
 11452 0154 28000000 		.4byte	.LBE269
 11453 0158 2A000000 		.4byte	.LBB278
 11454 015c 30000000 		.4byte	.LBE278
 11455 0160 38000000 		.4byte	.LBB279
 11456 0164 6C000000 		.4byte	.LBE279
 11457 0168 00000000 		.4byte	0
 11458 016c 00000000 		.4byte	0
 11459 0170 00000000 		.4byte	.LBB280
 11460 0174 04000000 		.4byte	.LBE280
 11461 0178 06000000 		.4byte	.LBB284
 11462 017c 0A000000 		.4byte	.LBE284
 11463 0180 0A000000 		.4byte	.LBB285
 11464 0184 2C000000 		.4byte	.LBE285
 11465 0188 00000000 		.4byte	0
 11466 018c 00000000 		.4byte	0
 11467 0190 32000000 		.4byte	.LBB302
 11468 0194 3A000000 		.4byte	.LBE302
 11469 0198 42000000 		.4byte	.LBB310
 11470 019c 78000000 		.4byte	.LBE310
 11471 01a0 00000000 		.4byte	0
 11472 01a4 00000000 		.4byte	0
 11473 01a8 1A000000 		.4byte	.LBB333
 11474 01ac 1C000000 		.4byte	.LBE333
 11475 01b0 1E000000 		.4byte	.LBB336
 11476 01b4 20000000 		.4byte	.LBE336
 11477 01b8 00000000 		.4byte	0
 11478 01bc 00000000 		.4byte	0
 11479 01c0 2A000000 		.4byte	.LBB339
ARM GAS  C:\Users\AFDHAL~1\AppData\Local\Temp\cc29CzqQ.s 			page 284


 11480 01c4 2C000000 		.4byte	.LBE339
 11481 01c8 2E000000 		.4byte	.LBB342
 11482 01cc 30000000 		.4byte	.LBE342
 11483 01d0 00000000 		.4byte	0
 11484 01d4 00000000 		.4byte	0
 11485 01d8 26000000 		.4byte	.LBB347
 11486 01dc 28000000 		.4byte	.LBE347
 11487 01e0 2A000000 		.4byte	.LBB350
 11488 01e4 2C000000 		.4byte	.LBE350
 11489 01e8 00000000 		.4byte	0
 11490 01ec 00000000 		.4byte	0
 11491 01f0 36000000 		.4byte	.LBB351
 11492 01f4 38000000 		.4byte	.LBE351
 11493 01f8 3A000000 		.4byte	.LBB354
 11494 01fc 3C000000 		.4byte	.LBE354
 11495 0200 00000000 		.4byte	0
 11496 0204 00000000 		.4byte	0
 11497 0208 00000000 		.4byte	.LBB355
 11498 020c 02000000 		.4byte	.LBE355
 11499 0210 04000000 		.4byte	.LBB358
 11500 0214 06000000 		.4byte	.LBE358
 11501 0218 00000000 		.4byte	0
 11502 021c 00000000 		.4byte	0
 11503 0220 02000000 		.4byte	.LBB373
 11504 0224 04000000 		.4byte	.LBE373
 11505 0228 0A000000 		.4byte	.LBB377
 11506 022c 10000000 		.4byte	.LBE377
 11507 0230 12000000 		.4byte	.LBB378
 11508 0234 16000000 		.4byte	.LBE378
 11509 0238 00000000 		.4byte	0
 11510 023c 00000000 		.4byte	0
 11511 0240 2E000000 		.4byte	.LBB407
 11512 0244 58000000 		.4byte	.LBE407
 11513 0248 84010000 		.4byte	.LBB448
 11514 024c E4010000 		.4byte	.LBE448
 11515 0250 00000000 		.4byte	0
 11516 0254 00000000 		.4byte	0
 11517 0258 2E000000 		.4byte	.LBB409
 11518 025c 30000000 		.4byte	.LBE409
 11519 0260 34000000 		.4byte	.LBB413
 11520 0264 3A000000 		.4byte	.LBE413
 11521 0268 3C000000 		.4byte	.LBB414
 11522 026c 42000000 		.4byte	.LBE414
 11523 0270 00000000 		.4byte	0
 11524 0274 00000000 		.4byte	0
 11525 0278 88000000 		.4byte	.LBB420
 11526 027c B2000000 		.4byte	.LBE420
 11527 0280 40010000 		.4byte	.LBB447
 11528 0284 84010000 		.4byte	.LBE447
 11529 0288 00000000 		.4byte	0
 11530 028c 00000000 		.4byte	0
 11531 0290 88000000 		.4byte	.LBB422
 11532 0294 8A000000 		.4byte	.LBE422
 11533 0298 8E000000 		.4byte	.LBB426
 11534 029c 94000000 		.4byte	.LBE426
 11535 02a0 96000000 		.4byte	.LBB427
 11536 02a4 9A000000 		.4byte	.LBE427
ARM GAS  C:\Users\AFDHAL~1\AppData\Local\Temp\cc29CzqQ.s 			page 285


 11537 02a8 00000000 		.4byte	0
 11538 02ac 00000000 		.4byte	0
 11539 02b0 D0000000 		.4byte	.LBB433
 11540 02b4 FA000000 		.4byte	.LBE433
 11541 02b8 FC000000 		.4byte	.LBB446
 11542 02bc 40010000 		.4byte	.LBE446
 11543 02c0 00000000 		.4byte	0
 11544 02c4 00000000 		.4byte	0
 11545 02c8 D0000000 		.4byte	.LBB435
 11546 02cc D2000000 		.4byte	.LBE435
 11547 02d0 D6000000 		.4byte	.LBB439
 11548 02d4 DC000000 		.4byte	.LBE439
 11549 02d8 DE000000 		.4byte	.LBB440
 11550 02dc E2000000 		.4byte	.LBE440
 11551 02e0 00000000 		.4byte	0
 11552 02e4 00000000 		.4byte	0
 11553 02e8 52000000 		.4byte	.LBB503
 11554 02ec A8000000 		.4byte	.LBE503
 11555 02f0 76010000 		.4byte	.LBB544
 11556 02f4 7C010000 		.4byte	.LBE544
 11557 02f8 7E010000 		.4byte	.LBB545
 11558 02fc 90010000 		.4byte	.LBE545
 11559 0300 00000000 		.4byte	0
 11560 0304 00000000 		.4byte	0
 11561 0308 52000000 		.4byte	.LBB505
 11562 030c 54000000 		.4byte	.LBE505
 11563 0310 58000000 		.4byte	.LBB509
 11564 0314 5E000000 		.4byte	.LBE509
 11565 0318 60000000 		.4byte	.LBB510
 11566 031c 66000000 		.4byte	.LBE510
 11567 0320 00000000 		.4byte	0
 11568 0324 00000000 		.4byte	0
 11569 0328 BC000000 		.4byte	.LBB521
 11570 032c BE000000 		.4byte	.LBE521
 11571 0330 C2000000 		.4byte	.LBB525
 11572 0334 C8000000 		.4byte	.LBE525
 11573 0338 CA000000 		.4byte	.LBB526
 11574 033c CE000000 		.4byte	.LBE526
 11575 0340 00000000 		.4byte	0
 11576 0344 00000000 		.4byte	0
 11577 0348 24010000 		.4byte	.LBB531
 11578 034c 76010000 		.4byte	.LBE531
 11579 0350 90010000 		.4byte	.LBB546
 11580 0354 A2010000 		.4byte	.LBE546
 11581 0358 00000000 		.4byte	0
 11582 035c 00000000 		.4byte	0
 11583 0360 24010000 		.4byte	.LBB533
 11584 0364 26010000 		.4byte	.LBE533
 11585 0368 2A010000 		.4byte	.LBB537
 11586 036c 30010000 		.4byte	.LBE537
 11587 0370 32010000 		.4byte	.LBB538
 11588 0374 36010000 		.4byte	.LBE538
 11589 0378 00000000 		.4byte	0
 11590 037c 00000000 		.4byte	0
 11591 0380 A2010000 		.4byte	.LBB549
 11592 0384 A4010000 		.4byte	.LBE549
 11593 0388 A8010000 		.4byte	.LBB553
ARM GAS  C:\Users\AFDHAL~1\AppData\Local\Temp\cc29CzqQ.s 			page 286


 11594 038c AE010000 		.4byte	.LBE553
 11595 0390 B0010000 		.4byte	.LBB554
 11596 0394 B4010000 		.4byte	.LBE554
 11597 0398 00000000 		.4byte	0
 11598 039c 00000000 		.4byte	0
 11599 03a0 1E000000 		.4byte	.LBB579
 11600 03a4 28000000 		.4byte	.LBE579
 11601 03a8 54000000 		.4byte	.LBB604
 11602 03ac 5A000000 		.4byte	.LBE604
 11603 03b0 00000000 		.4byte	0
 11604 03b4 00000000 		.4byte	0
 11605 03b8 28000000 		.4byte	.LBB582
 11606 03bc 34000000 		.4byte	.LBE582
 11607 03c0 3A000000 		.4byte	.LBB603
 11608 03c4 54000000 		.4byte	.LBE603
 11609 03c8 5A000000 		.4byte	.LBB605
 11610 03cc A0000000 		.4byte	.LBE605
 11611 03d0 A2000000 		.4byte	.LBB606
 11612 03d4 D4000000 		.4byte	.LBE606
 11613 03d8 00000000 		.4byte	0
 11614 03dc 00000000 		.4byte	0
 11615 03e0 3E000000 		.4byte	.LBB586
 11616 03e4 54000000 		.4byte	.LBE586
 11617 03e8 A2000000 		.4byte	.LBB599
 11618 03ec D4000000 		.4byte	.LBE599
 11619 03f0 00000000 		.4byte	0
 11620 03f4 00000000 		.4byte	0
 11621 03f8 3E000000 		.4byte	.LBB588
 11622 03fc 44000000 		.4byte	.LBE588
 11623 0400 48000000 		.4byte	.LBB591
 11624 0404 54000000 		.4byte	.LBE591
 11625 0408 00000000 		.4byte	0
 11626 040c 00000000 		.4byte	0
 11627 0410 A2000000 		.4byte	.LBB592
 11628 0414 A8000000 		.4byte	.LBE592
 11629 0418 AC000000 		.4byte	.LBB595
 11630 041c D4000000 		.4byte	.LBE595
 11631 0420 00000000 		.4byte	0
 11632 0424 00000000 		.4byte	0
 11633 0428 0C000000 		.4byte	.LBB619
 11634 042c 0E000000 		.4byte	.LBE619
 11635 0430 10000000 		.4byte	.LBB622
 11636 0434 12000000 		.4byte	.LBE622
 11637 0438 00000000 		.4byte	0
 11638 043c 00000000 		.4byte	0
 11639 0440 24000000 		.4byte	.LBB625
 11640 0444 2A000000 		.4byte	.LBE625
 11641 0448 2E000000 		.4byte	.LBB628
 11642 044c 3A000000 		.4byte	.LBE628
 11643 0450 00000000 		.4byte	0
 11644 0454 00000000 		.4byte	0
 11645 0458 3A000000 		.4byte	.LBB629
 11646 045c 40000000 		.4byte	.LBE629
 11647 0460 44000000 		.4byte	.LBB632
 11648 0464 50000000 		.4byte	.LBE632
 11649 0468 00000000 		.4byte	0
 11650 046c 00000000 		.4byte	0
ARM GAS  C:\Users\AFDHAL~1\AppData\Local\Temp\cc29CzqQ.s 			page 287


 11651 0470 00000000 		.4byte	.LFB43
 11652 0474 CC000000 		.4byte	.LFE43
 11653 0478 00000000 		.4byte	.LFB1
 11654 047c 14000000 		.4byte	.LFE1
 11655 0480 00000000 		.4byte	.LFB2
 11656 0484 88000000 		.4byte	.LFE2
 11657 0488 00000000 		.4byte	.LFB3
 11658 048c 58000000 		.4byte	.LFE3
 11659 0490 00000000 		.4byte	.LFB4
 11660 0494 14000000 		.4byte	.LFE4
 11661 0498 00000000 		.4byte	.LFB5
 11662 049c F4000000 		.4byte	.LFE5
 11663 04a0 00000000 		.4byte	.LFB7
 11664 04a4 FC010000 		.4byte	.LFE7
 11665 04a8 00000000 		.4byte	.LFB8
 11666 04ac A0000000 		.4byte	.LFE8
 11667 04b0 00000000 		.4byte	.LFB9
 11668 04b4 2C000000 		.4byte	.LFE9
 11669 04b8 00000000 		.4byte	.LFB11
 11670 04bc 6C000000 		.4byte	.LFE11
 11671 04c0 00000000 		.4byte	.LFB12
 11672 04c4 40000000 		.4byte	.LFE12
 11673 04c8 00000000 		.4byte	.LFB13
 11674 04cc 78000000 		.4byte	.LFE13
 11675 04d0 00000000 		.4byte	.LFB14
 11676 04d4 0C000000 		.4byte	.LFE14
 11677 04d8 00000000 		.4byte	.LFB15
 11678 04dc 40000000 		.4byte	.LFE15
 11679 04e0 00000000 		.4byte	.LFB16
 11680 04e4 20000000 		.4byte	.LFE16
 11681 04e8 00000000 		.4byte	.LFB17
 11682 04ec 1C000000 		.4byte	.LFE17
 11683 04f0 00000000 		.4byte	.LFB19
 11684 04f4 30000000 		.4byte	.LFE19
 11685 04f8 00000000 		.4byte	.LFB20
 11686 04fc 18000000 		.4byte	.LFE20
 11687 0500 00000000 		.4byte	.LFB21
 11688 0504 30000000 		.4byte	.LFE21
 11689 0508 00000000 		.4byte	.LFB22
 11690 050c 14000000 		.4byte	.LFE22
 11691 0510 00000000 		.4byte	.LFB23
 11692 0514 2C000000 		.4byte	.LFE23
 11693 0518 00000000 		.4byte	.LFB24
 11694 051c 18000000 		.4byte	.LFE24
 11695 0520 00000000 		.4byte	.LFB25
 11696 0524 3C000000 		.4byte	.LFE25
 11697 0528 00000000 		.4byte	.LFB26
 11698 052c 4C000000 		.4byte	.LFE26
 11699 0530 00000000 		.4byte	.LFB27
 11700 0534 34000000 		.4byte	.LFE27
 11701 0538 00000000 		.4byte	.LFB28
 11702 053c 14000000 		.4byte	.LFE28
 11703 0540 00000000 		.4byte	.LFB29
 11704 0544 48000000 		.4byte	.LFE29
 11705 0548 00000000 		.4byte	.LFB30
 11706 054c 2C000000 		.4byte	.LFE30
 11707 0550 00000000 		.4byte	.LFB31
ARM GAS  C:\Users\AFDHAL~1\AppData\Local\Temp\cc29CzqQ.s 			page 288


 11708 0554 10000000 		.4byte	.LFE31
 11709 0558 00000000 		.4byte	.LFB32
 11710 055c 14000000 		.4byte	.LFE32
 11711 0560 00000000 		.4byte	.LFB33
 11712 0564 30000000 		.4byte	.LFE33
 11713 0568 00000000 		.4byte	.LFB34
 11714 056c 14000000 		.4byte	.LFE34
 11715 0570 00000000 		.4byte	.LFB35
 11716 0574 8C000000 		.4byte	.LFE35
 11717 0578 00000000 		.4byte	.LFB36
 11718 057c 1C000000 		.4byte	.LFE36
 11719 0580 00000000 		.4byte	.LFB37
 11720 0584 18000000 		.4byte	.LFE37
 11721 0588 00000000 		.4byte	.LFB38
 11722 058c 18000000 		.4byte	.LFE38
 11723 0590 00000000 		.4byte	.LFB39
 11724 0594 28000000 		.4byte	.LFE39
 11725 0598 00000000 		.4byte	.LFB40
 11726 059c 1C000000 		.4byte	.LFE40
 11727 05a0 00000000 		.4byte	.LFB41
 11728 05a4 E4010000 		.4byte	.LFE41
 11729 05a8 00000000 		.4byte	.LFB42
 11730 05ac 2C020000 		.4byte	.LFE42
 11731 05b0 00000000 		.4byte	.LFB45
 11732 05b4 D4000000 		.4byte	.LFE45
 11733 05b8 00000000 		.4byte	.LFB46
 11734 05bc B4000000 		.4byte	.LFE46
 11735 05c0 00000000 		.4byte	0
 11736 05c4 00000000 		.4byte	0
 11737              		.section	.debug_line,"",%progbits
 11738              	.Ldebug_line0:
 11739 0000 080A0000 		.section	.debug_str,"MS",%progbits,1
 11739      02005C00 
 11739      00000201 
 11739      FB0E0D00 
 11739      01010101 
 11740              	.LASF10:
 11741 0000 75696E74 		.ascii	"uint16\000"
 11741      313600
 11742              	.LASF119:
 11743 0007 43794578 		.ascii	"CyExitCriticalSection\000"
 11743      69744372 
 11743      69746963 
 11743      616C5365 
 11743      6374696F 
 11744              	.LASF45:
 11745 001d 6C66636C 		.ascii	"lfclkSource\000"
 11745      6B536F75 
 11745      72636500 
 11746              	.LASF116:
 11747 0029 636F756E 		.ascii	"counterIntMaskTbl\000"
 11747      74657249 
 11747      6E744D61 
 11747      736B5462 
 11747      6C00
 11748              	.LASF117:
 11749 003b 63795379 		.ascii	"cySysWdtCallback\000"
ARM GAS  C:\Users\AFDHAL~1\AppData\Local\Temp\cc29CzqQ.s 			page 289


 11749      73576474 
 11749      43616C6C 
 11749      6261636B 
 11749      00
 11750              	.LASF37:
 11751 004c 43795379 		.ascii	"CySysWdtSetMode\000"
 11751      73576474 
 11751      5365744D 
 11751      6F646500 
 11752              	.LASF83:
 11753 005c 43795379 		.ascii	"CySysWdtUnlock\000"
 11753      73576474 
 11753      556E6C6F 
 11753      636B00
 11754              	.LASF24:
 11755 006b 6D656173 		.ascii	"measuredIloFreq\000"
 11755      75726564 
 11755      496C6F46 
 11755      72657100 
 11756              	.LASF32:
 11757 007b 636F756E 		.ascii	"counterNum\000"
 11757      7465724E 
 11757      756D00
 11758              	.LASF90:
 11759 0086 43795379 		.ascii	"CySysWdtSetMatch\000"
 11759      73576474 
 11759      5365744D 
 11759      61746368 
 11759      00
 11760              	.LASF126:
 11761 0097 43795379 		.ascii	"CySysClkLfclkPosedgeCatch\000"
 11761      73436C6B 
 11761      4C66636C 
 11761      6B506F73 
 11761      65646765 
 11762              	.LASF93:
 11763 00b1 43795379 		.ascii	"CySysWdtGetCascade\000"
 11763      73576474 
 11763      47657443 
 11763      61736361 
 11763      646500
 11764              	.LASF125:
 11765 00c4 43795379 		.ascii	"CySysClkGetLfclkSource\000"
 11765      73436C6B 
 11765      4765744C 
 11765      66636C6B 
 11765      536F7572 
 11766              	.LASF57:
 11767 00db 43795379 		.ascii	"CySysClkIloStartMeasurement\000"
 11767      73436C6B 
 11767      496C6F53 
 11767      74617274 
 11767      4D656173 
 11768              	.LASF112:
 11769 00f7 6C66636C 		.ascii	"lfclkPosedgeWdtCounter0Enabled\000"
 11769      6B506F73 
 11769      65646765 
ARM GAS  C:\Users\AFDHAL~1\AppData\Local\Temp\cc29CzqQ.s 			page 290


 11769      57647443 
 11769      6F756E74 
 11770              	.LASF8:
 11771 0116 6C6F6E67 		.ascii	"long long unsigned int\000"
 11771      206C6F6E 
 11771      6720756E 
 11771      7369676E 
 11771      65642069 
 11772              	.LASF84:
 11773 012d 43795379 		.ascii	"CySysWdtSetClearOnMatch\000"
 11773      73576474 
 11773      53657443 
 11773      6C656172 
 11773      4F6E4D61 
 11774              	.LASF25:
 11775 0145 63757272 		.ascii	"currentIloTrimValue\000"
 11775      656E7449 
 11775      6C6F5472 
 11775      696D5661 
 11775      6C756500 
 11776              	.LASF124:
 11777 0159 43795379 		.ascii	"CySysClkWcoEnabled\000"
 11777      73436C6B 
 11777      57636F45 
 11777      6E61626C 
 11777      656400
 11778              	.LASF28:
 11779 016c 6572726F 		.ascii	"errorRangeStatus\000"
 11779      7252616E 
 11779      67655374 
 11779      61747573 
 11779      00
 11780              	.LASF35:
 11781 017d 43795379 		.ascii	"CySysClkWcoSetHighPowerMode\000"
 11781      73436C6B 
 11781      57636F53 
 11781      65744869 
 11781      6768506F 
 11782              	.LASF121:
 11783 0199 474E5520 		.ascii	"GNU C11 5.4.1 20160609 (release) [ARM/embedded-5-br"
 11783      43313120 
 11783      352E342E 
 11783      31203230 
 11783      31363036 
 11784 01cc 616E6368 		.ascii	"anch revision 237715] -mcpu=cortex-m0 -mthumb -g -O"
 11784      20726576 
 11784      6973696F 
 11784      6E203233 
 11784      37373135 
 11785 01ff 33202D66 		.ascii	"3 -ffunction-sections -ffat-lto-objects\000"
 11785      66756E63 
 11785      74696F6E 
 11785      2D736563 
 11785      74696F6E 
 11786              	.LASF7:
 11787 0227 6C6F6E67 		.ascii	"long long int\000"
 11787      206C6F6E 
ARM GAS  C:\Users\AFDHAL~1\AppData\Local\Temp\cc29CzqQ.s 			page 291


 11787      6720696E 
 11787      7400
 11788              	.LASF1:
 11789 0235 7369676E 		.ascii	"signed char\000"
 11789      65642063 
 11789      68617200 
 11790              	.LASF100:
 11791 0241 66756E63 		.ascii	"function\000"
 11791      74696F6E 
 11791      00
 11792              	.LASF55:
 11793 024a 696E7465 		.ascii	"interruptState\000"
 11793      72727570 
 11793      74537461 
 11793      746500
 11794              	.LASF21:
 11795 0259 63795764 		.ascii	"cyWdtCallback\000"
 11795      7443616C 
 11795      6C626163 
 11795      6B00
 11796              	.LASF12:
 11797 0267 696E7433 		.ascii	"int32\000"
 11797      3200
 11798              	.LASF120:
 11799 026d 43794465 		.ascii	"CyDelayUs\000"
 11799      6C617955 
 11799      7300
 11800              	.LASF26:
 11801 0277 696C6F41 		.ascii	"iloAccuracyValue\000"
 11801      63637572 
 11801      61637956 
 11801      616C7565 
 11801      00
 11802              	.LASF20:
 11803 0288 63795F73 		.ascii	"cy_sys_timer_delaytype_enum\000"
 11803      79735F74 
 11803      696D6572 
 11803      5F64656C 
 11803      61797479 
 11804              	.LASF92:
 11805 02a4 62697473 		.ascii	"bits\000"
 11805      00
 11806              	.LASF5:
 11807 02a9 6C6F6E67 		.ascii	"long int\000"
 11807      20696E74 
 11807      00
 11808              	.LASF81:
 11809 02b2 636C6F63 		.ascii	"clockSel\000"
 11809      6B53656C 
 11809      00
 11810              	.LASF9:
 11811 02bb 75696E74 		.ascii	"uint8\000"
 11811      3800
 11812              	.LASF85:
 11813 02c1 656E6162 		.ascii	"enable\000"
 11813      6C6500
 11814              	.LASF14:
ARM GAS  C:\Users\AFDHAL~1\AppData\Local\Temp\cc29CzqQ.s 			page 292


 11815 02c8 646F7562 		.ascii	"double\000"
 11815      6C6500
 11816              	.LASF62:
 11817 02cf 636F6D70 		.ascii	"compensatedCycles\000"
 11817      656E7361 
 11817      74656443 
 11817      79636C65 
 11817      7300
 11818              	.LASF56:
 11819 02e1 43795379 		.ascii	"CySysClkIloStop\000"
 11819      73436C6B 
 11819      496C6F53 
 11819      746F7000 
 11820              	.LASF63:
 11821 02f1 696C6F43 		.ascii	"iloCompensatedCycles\000"
 11821      6F6D7065 
 11821      6E736174 
 11821      65644379 
 11821      636C6573 
 11822              	.LASF47:
 11823 0306 636F756E 		.ascii	"countersMask\000"
 11823      74657273 
 11823      4D61736B 
 11823      00
 11824              	.LASF11:
 11825 0313 75696E74 		.ascii	"uint32\000"
 11825      333200
 11826              	.LASF60:
 11827 031a 43795379 		.ascii	"CySysClkIloStopMeasurement\000"
 11827      73436C6B 
 11827      496C6F53 
 11827      746F704D 
 11827      65617375 
 11828              	.LASF101:
 11829 0335 70726576 		.ascii	"prevCallback\000"
 11829      43616C6C 
 11829      6261636B 
 11829      00
 11830              	.LASF42:
 11831 0342 72656756 		.ascii	"regValue\000"
 11831      616C7565 
 11831      00
 11832              	.LASF89:
 11833 034b 636F756E 		.ascii	"countersEnableStatus\000"
 11833      74657273 
 11833      456E6162 
 11833      6C655374 
 11833      61747573 
 11834              	.LASF115:
 11835 0360 77647449 		.ascii	"wdtIsrMask\000"
 11835      73724D61 
 11835      736B00
 11836              	.LASF38:
 11837 036b 43795379 		.ascii	"CySysWdtEnable\000"
 11837      73576474 
 11837      456E6162 
 11837      6C6500
ARM GAS  C:\Users\AFDHAL~1\AppData\Local\Temp\cc29CzqQ.s 			page 293


 11838              	.LASF99:
 11839 037a 43795379 		.ascii	"CySysWdtSetInterruptCallback\000"
 11839      73576474 
 11839      53657449 
 11839      6E746572 
 11839      72757074 
 11840              	.LASF39:
 11841 0397 636F756E 		.ascii	"counterMask\000"
 11841      7465724D 
 11841      61736B00 
 11842              	.LASF48:
 11843 03a3 43795379 		.ascii	"CySysWdtGetClearOnMatch\000"
 11843      73576474 
 11843      47657443 
 11843      6C656172 
 11843      4F6E4D61 
 11844              	.LASF0:
 11845 03bb 756E7369 		.ascii	"unsigned int\000"
 11845      676E6564 
 11845      20696E74 
 11845      00
 11846              	.LASF74:
 11847 03c8 43795379 		.ascii	"CySysClkSetLfclkSource\000"
 11847      73436C6B 
 11847      5365744C 
 11847      66636C6B 
 11847      536F7572 
 11848              	.LASF123:
 11849 03df 433A5C55 		.ascii	"C:\\Users\\AfdhalAtiffTan\\Documents\\PSoC Creator\\"
 11849      73657273 
 11849      5C416664 
 11849      68616C41 
 11849      74696666 
 11850 040e 736D6172 		.ascii	"smart_winch_prototype\\Workspace01\\Prototype.cydsn"
 11850      745F7769 
 11850      6E63685F 
 11850      70726F74 
 11850      6F747970 
 11851 043f 00       		.ascii	"\000"
 11852              	.LASF53:
 11853 0440 66697273 		.ascii	"firstCount\000"
 11853      74436F75 
 11853      6E7400
 11854              	.LASF103:
 11855 044b 72657443 		.ascii	"retCallback\000"
 11855      616C6C62 
 11855      61636B00 
 11856              	.LASF61:
 11857 0457 64657369 		.ascii	"desiredDelay\000"
 11857      72656444 
 11857      656C6179 
 11857      00
 11858              	.LASF6:
 11859 0464 6C6F6E67 		.ascii	"long unsigned int\000"
 11859      20756E73 
 11859      69676E65 
 11859      6420696E 
ARM GAS  C:\Users\AFDHAL~1\AppData\Local\Temp\cc29CzqQ.s 			page 294


 11859      7400
 11860              	.LASF110:
 11861 0476 6D617463 		.ascii	"matchValue\000"
 11861      6856616C 
 11861      756500
 11862              	.LASF36:
 11863 0481 43795379 		.ascii	"CySysClkLfclkPosedgeRestore\000"
 11863      73436C6B 
 11863      4C66636C 
 11863      6B506F73 
 11863      65646765 
 11864              	.LASF104:
 11865 049d 43795379 		.ascii	"CySysWdtEnableCounterIsr\000"
 11865      73576474 
 11865      456E6162 
 11865      6C65436F 
 11865      756E7465 
 11866              	.LASF27:
 11867 04b6 7472696D 		.ascii	"trimStep\000"
 11867      53746570 
 11867      00
 11868              	.LASF4:
 11869 04bf 73686F72 		.ascii	"short unsigned int\000"
 11869      7420756E 
 11869      7369676E 
 11869      65642069 
 11869      6E7400
 11870              	.LASF30:
 11871 04d2 43795379 		.ascii	"CySysWdtGetEnabledStatus\000"
 11871      73576474 
 11871      47657445 
 11871      6E61626C 
 11871      65645374 
 11872              	.LASF102:
 11873 04eb 43795379 		.ascii	"CySysWdtGetInterruptCallback\000"
 11873      73576474 
 11873      47657449 
 11873      6E746572 
 11873      72757074 
 11874              	.LASF58:
 11875 0508 696C6F54 		.ascii	"iloTrimTrig\000"
 11875      72696D54 
 11875      72696700 
 11876              	.LASF29:
 11877 0514 43795379 		.ascii	"CySysClkIloUpdateTrimReg\000"
 11877      73436C6B 
 11877      496C6F55 
 11877      70646174 
 11877      65547269 
 11878              	.LASF59:
 11879 052d 43795379 		.ascii	"CySysClkIloStart\000"
 11879      73436C6B 
 11879      496C6F53 
 11879      74617274 
 11879      00
 11880              	.LASF91:
 11881 053e 43795379 		.ascii	"CySysWdtSetToggleBit\000"
ARM GAS  C:\Users\AFDHAL~1\AppData\Local\Temp\cc29CzqQ.s 			page 295


 11881      73576474 
 11881      53657454 
 11881      6F67676C 
 11881      65426974 
 11882              	.LASF79:
 11883 0553 706F7765 		.ascii	"powerModeStatus\000"
 11883      724D6F64 
 11883      65537461 
 11883      74757300 
 11884              	.LASF107:
 11885 0563 43795379 		.ascii	"CySysWatchdogFeed\000"
 11885      73576174 
 11885      6368646F 
 11885      67466565 
 11885      6400
 11886              	.LASF17:
 11887 0575 72656733 		.ascii	"reg32\000"
 11887      3200
 11888              	.LASF111:
 11889 057b 64656661 		.ascii	"defaultIloTrimRegValue\000"
 11889      756C7449 
 11889      6C6F5472 
 11889      696D5265 
 11889      6756616C 
 11890              	.LASF118:
 11891 0592 4379456E 		.ascii	"CyEnterCriticalSection\000"
 11891      74657243 
 11891      72697469 
 11891      63616C53 
 11891      65637469 
 11892              	.LASF76:
 11893 05a9 43795379 		.ascii	"CySysClkWcoStart\000"
 11893      73436C6B 
 11893      57636F53 
 11893      74617274 
 11893      00
 11894              	.LASF67:
 11895 05ba 72657475 		.ascii	"returnStatus\000"
 11895      726E5374 
 11895      61747573 
 11895      00
 11896              	.LASF75:
 11897 05c7 736F7572 		.ascii	"source\000"
 11897      636500
 11898              	.LASF80:
 11899 05ce 43795379 		.ascii	"CySysClkWcoClockOutSelect\000"
 11899      73436C6B 
 11899      57636F43 
 11899      6C6F636B 
 11899      4F757453 
 11900              	.LASF23:
 11901 05e8 73697A65 		.ascii	"sizetype\000"
 11901      74797065 
 11901      00
 11902              	.LASF22:
 11903 05f1 6C6F6E67 		.ascii	"long double\000"
 11903      20646F75 
ARM GAS  C:\Users\AFDHAL~1\AppData\Local\Temp\cc29CzqQ.s 			page 296


 11903      626C6500 
 11904              	.LASF95:
 11905 05fd 43795379 		.ascii	"CySysWdtGetMatch\000"
 11905      73576474 
 11905      4765744D 
 11905      61746368 
 11905      00
 11906              	.LASF51:
 11907 060e 6D617463 		.ascii	"match\000"
 11907      6800
 11908              	.LASF73:
 11909 0614 43795379 		.ascii	"CySysClkIloRestoreFactoryTrim\000"
 11909      73436C6B 
 11909      496C6F52 
 11909      6573746F 
 11909      72654661 
 11910              	.LASF18:
 11911 0632 43595F53 		.ascii	"CY_SYS_TIMER_WAIT\000"
 11911      59535F54 
 11911      494D4552 
 11911      5F574149 
 11911      5400
 11912              	.LASF66:
 11913 0644 63686563 		.ascii	"checkStatus\000"
 11913      6B537461 
 11913      74757300 
 11914              	.LASF127:
 11915 0650 63796465 		.ascii	"cydelayFreqHz\000"
 11915      6C617946 
 11915      72657148 
 11915      7A00
 11916              	.LASF46:
 11917 065e 43795379 		.ascii	"CySysWdtResetCounters\000"
 11917      73576474 
 11917      52657365 
 11917      74436F75 
 11917      6E746572 
 11918              	.LASF71:
 11919 0674 77616974 		.ascii	"waitUntilCntr1Stops\000"
 11919      556E7469 
 11919      6C436E74 
 11919      72315374 
 11919      6F707300 
 11920              	.LASF97:
 11921 0688 43795379 		.ascii	"CySysWdtClearInterrupt\000"
 11921      73576474 
 11921      436C6561 
 11921      72496E74 
 11921      65727275 
 11922              	.LASF13:
 11923 069f 666C6F61 		.ascii	"float\000"
 11923      7400
 11924              	.LASF49:
 11925 06a5 43795379 		.ascii	"CySysTimerDelayUntilMatch\000"
 11925      7354696D 
 11925      65724465 
 11925      6C617955 
ARM GAS  C:\Users\AFDHAL~1\AppData\Local\Temp\cc29CzqQ.s 			page 297


 11925      6E74696C 
 11926              	.LASF108:
 11927 06bf 43795379 		.ascii	"CySysTimerDelay\000"
 11927      7354696D 
 11927      65724465 
 11927      6C617900 
 11928              	.LASF43:
 11929 06cf 43795379 		.ascii	"CySysWdtLocked\000"
 11929      73576474 
 11929      4C6F636B 
 11929      656400
 11930              	.LASF2:
 11931 06de 756E7369 		.ascii	"unsigned char\000"
 11931      676E6564 
 11931      20636861 
 11931      7200
 11932              	.LASF65:
 11933 06ec 636F6D70 		.ascii	"compensateRunningStatus\000"
 11933      656E7361 
 11933      74655275 
 11933      6E6E696E 
 11933      67537461 
 11934              	.LASF54:
 11935 0704 6C66636C 		.ascii	"lfclkPosedgeEnabledWdtCounter\000"
 11935      6B506F73 
 11935      65646765 
 11935      456E6162 
 11935      6C656457 
 11936              	.LASF109:
 11937 0722 64656C61 		.ascii	"delay\000"
 11937      7900
 11938              	.LASF3:
 11939 0728 73686F72 		.ascii	"short int\000"
 11939      7420696E 
 11939      7400
 11940              	.LASF50:
 11941 0732 64656C61 		.ascii	"delayType\000"
 11941      79547970 
 11941      6500
 11942              	.LASF86:
 11943 073c 43795379 		.ascii	"CySysWdtDisable\000"
 11943      73576474 
 11943      44697361 
 11943      626C6500 
 11944              	.LASF69:
 11945 074c 43795379 		.ascii	"CySysClkIloTrim\000"
 11945      73436C6B 
 11945      496C6F54 
 11945      72696D00 
 11946              	.LASF44:
 11947 075c 43795379 		.ascii	"CySysClkIloEnabled\000"
 11947      73436C6B 
 11947      496C6F45 
 11947      6E61626C 
 11947      656400
 11948              	.LASF96:
 11949 076f 43795379 		.ascii	"CySysWdtGetInterruptSource\000"
ARM GAS  C:\Users\AFDHAL~1\AppData\Local\Temp\cc29CzqQ.s 			page 298


 11949      73576474 
 11949      47657449 
 11949      6E746572 
 11949      72757074 
 11950              	.LASF122:
 11951 078a 47656E65 		.ascii	"Generated_Source\\PSoC4\\CyLFClk.c\000"
 11951      72617465 
 11951      645F536F 
 11951      75726365 
 11951      5C50536F 
 11952              	.LASF31:
 11953 07ab 696C6F41 		.ascii	"iloAccuracyInPPT\000"
 11953      63637572 
 11953      61637949 
 11953      6E505054 
 11953      00
 11954              	.LASF77:
 11955 07bc 43795379 		.ascii	"CySysClkWcoStop\000"
 11955      73436C6B 
 11955      57636F53 
 11955      746F7000 
 11956              	.LASF78:
 11957 07cc 43795379 		.ascii	"CySysClkWcoSetPowerMode\000"
 11957      73436C6B 
 11957      57636F53 
 11957      6574506F 
 11957      7765724D 
 11958              	.LASF105:
 11959 07e4 43795379 		.ascii	"CySysWdtDisableCounterIsr\000"
 11959      73576474 
 11959      44697361 
 11959      626C6543 
 11959      6F756E74 
 11960              	.LASF15:
 11961 07fe 63686172 		.ascii	"char\000"
 11961      00
 11962              	.LASF33:
 11963 0803 6D6F6465 		.ascii	"mode\000"
 11963      00
 11964              	.LASF41:
 11965 0808 43795379 		.ascii	"CySysWdtGetCount\000"
 11965      73576474 
 11965      47657443 
 11965      6F756E74 
 11965      00
 11966              	.LASF82:
 11967 0819 43795379 		.ascii	"CySysWdtLock\000"
 11967      73576474 
 11967      4C6F636B 
 11967      00
 11968              	.LASF114:
 11969 0826 64697361 		.ascii	"disableServicedIsr\000"
 11969      626C6553 
 11969      65727669 
 11969      63656449 
 11969      737200
 11970              	.LASF52:
ARM GAS  C:\Users\AFDHAL~1\AppData\Local\Temp\cc29CzqQ.s 			page 299


 11971 0839 746D7056 		.ascii	"tmpValue\000"
 11971      616C7565 
 11971      00
 11972              	.LASF87:
 11973 0842 43795379 		.ascii	"CySysWdtSetCascade\000"
 11973      73576474 
 11973      53657443 
 11973      61736361 
 11973      646500
 11974              	.LASF70:
 11975 0855 74696D65 		.ascii	"timeOutClocks\000"
 11975      4F757443 
 11975      6C6F636B 
 11975      7300
 11976              	.LASF72:
 11977 0863 7472696D 		.ascii	"trimRunningStatus\000"
 11977      52756E6E 
 11977      696E6753 
 11977      74617475 
 11977      7300
 11978              	.LASF40:
 11979 0875 43795379 		.ascii	"CySysWdtGetMode\000"
 11979      73576474 
 11979      4765744D 
 11979      6F646500 
 11980              	.LASF64:
 11981 0885 64657369 		.ascii	"desiredDelayInCounts\000"
 11981      72656444 
 11981      656C6179 
 11981      496E436F 
 11981      756E7473 
 11982              	.LASF34:
 11983 089a 636F6E66 		.ascii	"configRegValue\000"
 11983      69675265 
 11983      6756616C 
 11983      756500
 11984              	.LASF98:
 11985 08a9 7764744C 		.ascii	"wdtLockState\000"
 11985      6F636B53 
 11985      74617465 
 11985      00
 11986              	.LASF113:
 11987 08b6 6C66636C 		.ascii	"lfclkPosedgeWdtCounter0Mode\000"
 11987      6B506F73 
 11987      65646765 
 11987      57647443 
 11987      6F756E74 
 11988              	.LASF88:
 11989 08d2 63617363 		.ascii	"cascadeMask\000"
 11989      6164654D 
 11989      61736B00 
 11990              	.LASF16:
 11991 08de 63797374 		.ascii	"cystatus\000"
 11991      61747573 
 11991      00
 11992              	.LASF106:
 11993 08e7 43795379 		.ascii	"CySysWdtIsr\000"
ARM GAS  C:\Users\AFDHAL~1\AppData\Local\Temp\cc29CzqQ.s 			page 300


 11993      73576474 
 11993      49737200 
 11994              	.LASF94:
 11995 08f3 43795379 		.ascii	"CySysWdtGetToggleBit\000"
 11995      73576474 
 11995      47657454 
 11995      6F67676C 
 11995      65426974 
 11996              	.LASF68:
 11997 0908 43795379 		.ascii	"CySysClkIloCompensate\000"
 11997      73436C6B 
 11997      496C6F43 
 11997      6F6D7065 
 11997      6E736174 
 11998              	.LASF19:
 11999 091e 43595F53 		.ascii	"CY_SYS_TIMER_INTERRUPT\000"
 11999      59535F54 
 11999      494D4552 
 11999      5F494E54 
 11999      45525255 
 12000              		.ident	"GCC: (GNU Tools for ARM Embedded Processors) 5.4.1 20160609 (release) [ARM/embedded-5-bran
