ARM GAS  C:\Users\AFDHAL~1\AppData\Local\Temp\cc2WzABC.s 			page 1


   1              		.syntax unified
   2              		.cpu cortex-m0
   3              		.fpu softvfp
   4              		.eabi_attribute 20, 1
   5              		.eabi_attribute 21, 1
   6              		.eabi_attribute 23, 3
   7              		.eabi_attribute 24, 1
   8              		.eabi_attribute 25, 1
   9              		.eabi_attribute 26, 1
  10              		.eabi_attribute 30, 2
  11              		.eabi_attribute 34, 0
  12              		.eabi_attribute 18, 4
  13              		.thumb
  14              		.syntax unified
  15              		.file	"main.c"
  16              		.text
  17              	.Ltext0:
  18              		.cfi_sections	.debug_frame
  19              		.section	.text.handle_rf,"ax",%progbits
  20              		.align	2
  21              		.global	handle_rf
  22              		.code	16
  23              		.thumb_func
  24              		.type	handle_rf, %function
  25              	handle_rf:
  26              	.LFB36:
  27              		.file 1 "main.c"
   1:main.c        **** /* ========================================
   2:main.c        ****  *
   3:main.c        ****  * Copyright YOUR COMPANY, THE YEAR
   4:main.c        ****  * All Rights Reserved
   5:main.c        ****  * UNPUBLISHED, LICENSED SOFTWARE.
   6:main.c        ****  *
   7:main.c        ****  * CONFIDENTIAL AND PROPRIETARY INFORMATION
   8:main.c        ****  * WHICH IS THE PROPERTY OF your company.
   9:main.c        ****  *
  10:main.c        ****  * ========================================
  11:main.c        **** */
  12:main.c        **** #include <stdio.h>
  13:main.c        **** #include "project.h"
  14:main.c        **** #include "pid.h"
  15:main.c        **** #include "motor.h"
  16:main.c        **** #include "modbusRTU.h"
  17:main.c        **** #include "modbus_regs.h"
  18:main.c        **** #include "millis.h"
  19:main.c        **** #include "nRF24_Adapter.h"
  20:main.c        **** 
  21:main.c        **** float motor_pwm, setpoint, pid_fb;
  22:main.c        **** 
  23:main.c        **** uint8_t station_id = 0;
  24:main.c        **** const uint8_t A2M[] = {':', ')', 'A', '2', 'M'};
  25:main.c        **** const uint8_t M2A[] = {':', ')', 'M', '2', 'A'};
  26:main.c        **** const uint8_t A2B[] = {':', ')', 'A', '2', 'B'};
  27:main.c        **** const uint8_t B2A[] = {':', ')', 'B', '2', 'A'};
  28:main.c        **** 
  29:main.c        **** 
  30:main.c        **** 
ARM GAS  C:\Users\AFDHAL~1\AppData\Local\Temp\cc2WzABC.s 			page 2


  31:main.c        **** extern volatile nrf_irq nRF24_Adapter_Flags;
  32:main.c        **** 
  33:main.c        **** void handle_rf();
  34:main.c        **** 
  35:main.c        **** int main(void)
  36:main.c        **** {
  37:main.c        ****     CyGlobalIntEnable; /* Enable global interrupts. */
  38:main.c        **** 
  39:main.c        ****     /* Place your initialization/startup code here (e.g. MyInst_Start()) */
  40:main.c        ****     LED_Write(0); //on board led off
  41:main.c        ****     
  42:main.c        ****     //read device id
  43:main.c        ****     station_id = ID_Read();
  44:main.c        ****     
  45:main.c        ****     //init nRF24L01 module
  46:main.c        ****     nRF24_Adapter_Start();    
  47:main.c        ****     nRF24_set_mode(NRF_MODE_RX);
  48:main.c        ****     nRF24_set_rx_mode();
  49:main.c        ****     nRF24_set_channel(120);    
  50:main.c        ****     
  51:main.c        ****     switch (station_id)
  52:main.c        ****     {
  53:main.c        ****         //master, node 0, A
  54:main.c        ****         case 0:
  55:main.c        ****         {
  56:main.c        ****             nRF24_set_tx_address(A2B, 5);
  57:main.c        ****             nRF24_set_rx_pipe_0_address(M2A, 5);
  58:main.c        ****             //nRF24_set_rx_pipe_1_address(B2A, 5);
  59:main.c        ****             break;
  60:main.c        ****         }
  61:main.c        ****         
  62:main.c        ****         //slave, node 1, B
  63:main.c        ****         case 1:
  64:main.c        ****         {
  65:main.c        ****             nRF24_set_tx_address(B2A, 5);
  66:main.c        ****             nRF24_set_rx_pipe_0_address(A2B, 5);
  67:main.c        ****             break;
  68:main.c        ****         }
  69:main.c        ****         default:
  70:main.c        ****         {
  71:main.c        ****             //error condition, should never reach here
  72:main.c        ****             while(1)
  73:main.c        ****             {
  74:main.c        ****                 LED_Write(~LED_Read());
  75:main.c        ****                 CyDelay(50);                
  76:main.c        ****             }
  77:main.c        ****         }
  78:main.c        ****     }
  79:main.c        ****     
  80:main.c        ****     nRF24_start_listening();
  81:main.c        ****     
  82:main.c        ****     
  83:main.c        ****     
  84:main.c        ****     //used mainly for modbus
  85:main.c        ****     USB_UART_Start();
  86:main.c        ****     
  87:main.c        ****     //for current measurement
ARM GAS  C:\Users\AFDHAL~1\AppData\Local\Temp\cc2WzABC.s 			page 3


  88:main.c        ****     ADC_Start();
  89:main.c        ****     ADC_StartConvert();
  90:main.c        ****     
  91:main.c        ****     //arduino-like millis
  92:main.c        ****     Millis_Start();
  93:main.c        ****            
  94:main.c        ****     QuadDec_Start(); //quadrature decoder module (to sense cable distance)
  95:main.c        ****     QuadDec_WriteCounter(0x8000); //reset measure cable distance (it resets to 32768)
  96:main.c        ****         
  97:main.c        ****     Motor_Start();            
  98:main.c        ****     
  99:main.c        ****     PID_Init();
 100:main.c        ****     PID_Set_Setpoint(&setpoint); //set the address of setpoint variable
 101:main.c        ****     PID_Set_Input(&pid_fb); //set the address of feedback variable
 102:main.c        ****     PID_Set_Output(&motor_pwm); //set the address of output variable
 103:main.c        ****     PID_Set_Output_Limits(-65536*.5, 65536*.5); //pwm resolution reduced to 15-bits due to acoustic
 104:main.c        ****     
 105:main.c        ****     PID_ISR_StartEx(PID_Tick); //pid ticker routine is defined in pid.c
 106:main.c        ****     PID_Tick_Timer_Start(); //start 12.5Hz PID timer 
 107:main.c        ****       
 108:main.c        ****     //reset setpoint on startup
 109:main.c        ****     modbus_holding_regs[PID_Setpoint] = 0;
 110:main.c        ****     
 111:main.c        ****     //Enable Watchdog
 112:main.c        ****     CySysWdtEnable(CY_SYS_WDT_COUNTER0_MASK);
 113:main.c        ****     
 114:main.c        ****     //Find the reset source
 115:main.c        ****     //0     = master reset
 116:main.c        ****     //1     = wdt reset
 117:main.c        ****     //8     = program fault reset
 118:main.c        ****     //16    = software reset
 119:main.c        ****     modbus_holding_regs[Reset_Source] = CySysGetResetReason(CY_SYS_RESET_WDT | CY_SYS_RESET_PROTFAU
 120:main.c        ****                
 121:main.c        ****            
 122:main.c        ****     for(;;)
 123:main.c        ****     {        
 124:main.c        ****         //Feed the dog (512ms)
 125:main.c        ****         CySysWatchdogFeed(CY_SYS_WDT_COUNTER0);                 
 126:main.c        ****         
 127:main.c        ****         //service modbus request if available
 128:main.c        ****         modbusRTU_Update(1, modbus_holding_regs, MB_HREGS);
 129:main.c        ****         
 130:main.c        ****         //read current position
 131:main.c        ****         pid_fb = (int)QuadDec_ReadCounter() - 0x8000;
 132:main.c        ****         
 133:main.c        ****         //send pid output to motor
 134:main.c        ****         Motor_Bidirectional((int)motor_pwm); 
 135:main.c        ****         
 136:main.c        ****         //current pwm sent to motor in percentage
 137:main.c        ****         modbus_holding_regs[Current_PWM] = (int)(motor_pwm/65536.0*100.0);
 138:main.c        ****                    
 139:main.c        ****         //send the current reading to holding register so that it can be monitored via modbus link
 140:main.c        ****         modbus_holding_regs[Current_Encoder_Position] = (int)pid_fb;
 141:main.c        ****         
 142:main.c        ****         //fetch the latest settings from hregs
 143:main.c        ****         setpoint = (float)(short)modbus_holding_regs[PID_Setpoint];       
 144:main.c        ****         
ARM GAS  C:\Users\AFDHAL~1\AppData\Local\Temp\cc2WzABC.s 			page 4


 145:main.c        ****         //define pid gains (take from hregs)
 146:main.c        ****         PID_Set_Gains((float)modbus_holding_regs[Kp], (float)modbus_holding_regs[Ki], (float)modbus
 147:main.c        ****         
 148:main.c        ****         //Current measurement
 149:main.c        ****         modbus_holding_regs[CurrSense_A] = ADC_GetResult16(0); 
 150:main.c        ****         modbus_holding_regs[CurrSense_B] = ADC_GetResult16(1);         
 151:main.c        ****         
 152:main.c        ****         //Emergency Stop
 153:main.c        ****         if(modbus_holding_regs[Soft_Reset] != 0)
 154:main.c        ****         {     
 155:main.c        ****             if(station_id==0)
 156:main.c        ****             {
 157:main.c        ****                 static uint8_t dataToSend[4];
 158:main.c        ****                 nRF24_set_tx_mode();            
 159:main.c        ****                 
 160:main.c        ****                 dataToSend[0] = Soft_Reset;
 161:main.c        ****                 dataToSend[1] = modbus_holding_regs[Soft_Reset]>>8; //msb
 162:main.c        ****                 dataToSend[2] = modbus_holding_regs[Soft_Reset]&0xff; //lsb
 163:main.c        ****                 dataToSend[3] = 0;
 164:main.c        ****                 
 165:main.c        ****                 nRF24_transmit(dataToSend, 4); 
 166:main.c        ****                 CyDelay(10);
 167:main.c        ****                 nRF24_transmit(dataToSend, 4); 
 168:main.c        ****                 CyDelay(10);
 169:main.c        ****                 nRF24_transmit(dataToSend, 4); 
 170:main.c        ****                 CyDelay(10);
 171:main.c        ****                 nRF24_transmit(dataToSend, 4); 
 172:main.c        ****                 CyDelay(10);
 173:main.c        ****                 nRF24_transmit(dataToSend, 4); 
 174:main.c        ****                 CyDelay(10);
 175:main.c        ****             }
 176:main.c        ****                                     
 177:main.c        ****             Motor_Bidirectional(0); 
 178:main.c        ****             PID_Set_Gains(0.0, 0.0, 0.0);   
 179:main.c        ****             QuadDec_WriteCounter(0x8000); //reset measure cable distance (it resets to 32768)
 180:main.c        ****             CySoftwareReset();
 181:main.c        ****         }                
 182:main.c        ****         
 183:main.c        ****         handle_rf();
 184:main.c        ****     }
 185:main.c        **** }
 186:main.c        **** 
 187:main.c        **** void handle_rf()
 188:main.c        **** {
  28              		.loc 1 188 0
  29              		.cfi_startproc
  30              		@ args = 0, pretend = 0, frame = 0
  31              		@ frame_needed = 0, uses_anonymous_args = 0
  32 0000 F0B5     		push	{r4, r5, r6, r7, lr}
  33              		.cfi_def_cfa_offset 20
  34              		.cfi_offset 4, -20
  35              		.cfi_offset 5, -16
  36              		.cfi_offset 6, -12
  37              		.cfi_offset 7, -8
  38              		.cfi_offset 14, -4
  39 0002 4746     		mov	r7, r8
  40 0004 80B4     		push	{r7}
ARM GAS  C:\Users\AFDHAL~1\AppData\Local\Temp\cc2WzABC.s 			page 5


  41              		.cfi_def_cfa_offset 24
  42              		.cfi_offset 8, -24
 189:main.c        ****     //buffers
 190:main.c        ****     static uint8_t rcv0[16];
 191:main.c        ****     static uint8_t rcv1[16];
 192:main.c        ****     static uint8_t dataToSend[16];
 193:main.c        ****     
 194:main.c        ****     //reception flag
 195:main.c        ****     static uint8_t updated_input = 0;
 196:main.c        ****     
 197:main.c        ****     if(station_id == 0)
  43              		.loc 1 197 0
  44 0006 B24C     		ldr	r4, .L57
  45 0008 2578     		ldrb	r5, [r4]
  46 000a 002D     		cmp	r5, #0
  47 000c 07D1     		bne	.L3
 198:main.c        ****     {                
 199:main.c        ****         if(modbusRTU_Written == 1)
  48              		.loc 1 199 0
  49 000e B14F     		ldr	r7, .L57+4
  50 0010 3E78     		ldrb	r6, [r7]
  51 0012 012E     		cmp	r6, #1
  52 0014 53D0     		beq	.L54
 200:main.c        ****         {    
 201:main.c        ****             nRF24_stop_listening();
 202:main.c        ****             nRF24_set_tx_mode();            
 203:main.c        ****             
 204:main.c        ****             if((modbusRTU_written_register_flags)&(1<<Kp))
 205:main.c        ****             {
 206:main.c        ****                 dataToSend[0] = Kp;
 207:main.c        ****                 dataToSend[1] = modbus_holding_regs[Kp]>>8; //msb
 208:main.c        ****                 dataToSend[2] = modbus_holding_regs[Kp]&0xff; //lsb
 209:main.c        ****                 dataToSend[3] = 0;
 210:main.c        ****                 modbusRTU_written_register_flags &= ~(1<<Kp);
 211:main.c        ****                 
 212:main.c        ****             }
 213:main.c        ****             else if((modbusRTU_written_register_flags)&(1<<Ki))
 214:main.c        ****             {
 215:main.c        ****                 dataToSend[0] = Ki;
 216:main.c        ****                 dataToSend[1] = modbus_holding_regs[Ki]>>8; //msb
 217:main.c        ****                 dataToSend[2] = modbus_holding_regs[Ki]&0xff; //lsb
 218:main.c        ****                 dataToSend[3] = 0;
 219:main.c        ****                 modbusRTU_written_register_flags &= ~(1<<Ki);
 220:main.c        ****             }
 221:main.c        ****             else if((modbusRTU_written_register_flags)&(1<<Kd))
 222:main.c        ****             {
 223:main.c        ****                 dataToSend[0] = Kd;
 224:main.c        ****                 dataToSend[1] = modbus_holding_regs[Kd]>>8; //msb
 225:main.c        ****                 dataToSend[2] = modbus_holding_regs[Kd]&0xff; //lsb
 226:main.c        ****                 dataToSend[3] = 0;
 227:main.c        ****                 modbusRTU_written_register_flags &= ~(1<<Kd);
 228:main.c        ****             }
 229:main.c        ****             else if((modbusRTU_written_register_flags)&(1<<PID_Setpoint1))
 230:main.c        ****             {
 231:main.c        ****                 dataToSend[0] = PID_Setpoint;
 232:main.c        ****                 dataToSend[1] = modbus_holding_regs[PID_Setpoint1]>>8; //msb
 233:main.c        ****                 dataToSend[2] = modbus_holding_regs[PID_Setpoint1]&0xff; //lsb
ARM GAS  C:\Users\AFDHAL~1\AppData\Local\Temp\cc2WzABC.s 			page 6


 234:main.c        ****                 dataToSend[3] = 0;
 235:main.c        ****                 modbusRTU_written_register_flags &= ~(1<<PID_Setpoint1);
 236:main.c        ****             }
 237:main.c        ****             
 238:main.c        ****             else if((modbusRTU_written_register_flags)&(1<<Soft_Reset))
 239:main.c        ****             {
 240:main.c        ****                 dataToSend[0] = Soft_Reset;
 241:main.c        ****                 dataToSend[1] = modbus_holding_regs[Soft_Reset]>>8; //msb
 242:main.c        ****                 dataToSend[2] = modbus_holding_regs[Soft_Reset]&0xff; //lsb
 243:main.c        ****                 dataToSend[3] = 0;
 244:main.c        ****                 modbusRTU_written_register_flags &= ~(1<<Soft_Reset);
 245:main.c        ****             }
 246:main.c        ****                         
 247:main.c        ****             nRF24_transmit(dataToSend, 4); 
 248:main.c        ****             CyDelay(10);
 249:main.c        ****             nRF24_transmit(dataToSend, 4); 
 250:main.c        ****             CyDelay(10);
 251:main.c        ****             nRF24_transmit(dataToSend, 4); 
 252:main.c        ****             CyDelay(10);
 253:main.c        ****             nRF24_transmit(dataToSend, 4); 
 254:main.c        ****             CyDelay(10);
 255:main.c        ****             nRF24_transmit(dataToSend, 4); 
 256:main.c        ****             CyDelay(10);
 257:main.c        ****             
 258:main.c        ****             
 259:main.c        ****             nRF24_clear_all_irqs();
 260:main.c        ****             LED_Write(~LED_Read());
 261:main.c        ****             
 262:main.c        **** //            if (!nRF24_is_tx_fifo_full())
 263:main.c        **** //            {
 264:main.c        **** //                nRF24_transmit(dataToSend, 4); 
 265:main.c        **** //            }
 266:main.c        **** //            else //retransmitting packet
 267:main.c        **** //            {
 268:main.c        **** //                nRF24_reuse_last_transmitted_payload();
 269:main.c        **** //                nRF24_clear_irq_flag(NRF_MAX_RT_IRQ); //acknowledge failed retransmission
 270:main.c        **** //            }
 271:main.c        **** //                
 272:main.c        **** //            //if transmit sucessful
 273:main.c        **** //            if(NRF_STATUS_TX_DS_MASK & nRF24_get_status())
 274:main.c        **** //            {
 275:main.c        **** //                LED_Write(~LED_Read());
 276:main.c        **** //                
 277:main.c        **** //                nRF24_set_rx_mode();
 278:main.c        **** //                nRF24_start_listening();
 279:main.c        **** //                
 280:main.c        **** //                nRF24_clear_irq_flag(NRF_TX_DS_IRQ);
 281:main.c        **** //            }  
 282:main.c        ****             
 283:main.c        ****             //clear flag when all changes acknowledged            
 284:main.c        ****             if((modbusRTU_written_register_flags&0x00000407) == 0)
 285:main.c        ****                 modbusRTU_Written = 0;    
 286:main.c        ****         }   
 287:main.c        ****         else
 288:main.c        ****         {
 289:main.c        ****             nRF24_set_rx_mode();
  53              		.loc 1 289 0
ARM GAS  C:\Users\AFDHAL~1\AppData\Local\Temp\cc2WzABC.s 			page 7


  54 0016 FFF7FEFF 		bl	nRF24_set_rx_mode
  55              	.LVL0:
 290:main.c        ****             //nRF24_set_mode(NRF_MODE_RX);
 291:main.c        ****             
 292:main.c        ****             nRF24_start_listening();
  56              		.loc 1 292 0
  57 001a FFF7FEFF 		bl	nRF24_start_listening
  58              	.LVL1:
  59              	.L3:
 293:main.c        ****         }
 294:main.c        ****     }
 295:main.c        ****     
 296:main.c        ****     
 297:main.c        ****     //future: use interrupt
 298:main.c        ****     if(nRF24_is_data_ready())
  60              		.loc 1 298 0
  61 001e FFF7FEFF 		bl	nRF24_is_data_ready
  62              	.LVL2:
  63 0022 0028     		cmp	r0, #0
  64 0024 02D1     		bne	.L55
  65              	.L1:
 299:main.c        ****     {
 300:main.c        ****         LED_Write(~LED_Read());        
 301:main.c        ****         nRF24_clear_irq_flag(NRF_RX_DR_IRQ);
 302:main.c        ****         
 303:main.c        ****         uint8_t full_rx_fifo_address = nRF24_get_data_pipe_with_payload();
 304:main.c        ****         
 305:main.c        ****         while(full_rx_fifo_address != 7)
 306:main.c        ****         {
 307:main.c        ****             switch(full_rx_fifo_address)
 308:main.c        ****             {
 309:main.c        ****                 case 0:
 310:main.c        ****                 {
 311:main.c        ****                     nRF24_get_rx_payload(rcv0, 4);
 312:main.c        ****                     updated_input |= 1 << 0;
 313:main.c        ****                     break;
 314:main.c        ****                 }
 315:main.c        ****                 case 1:
 316:main.c        ****                 {
 317:main.c        ****                     nRF24_get_rx_payload(rcv1, 4);
 318:main.c        ****                     updated_input |= 1 << 1;
 319:main.c        ****                     break;
 320:main.c        ****                 }
 321:main.c        ****             }
 322:main.c        ****             
 323:main.c        ****             full_rx_fifo_address = nRF24_get_data_pipe_with_payload();
 324:main.c        ****         }
 325:main.c        ****         
 326:main.c        ****         //Node A
 327:main.c        ****         if (station_id == 0)
 328:main.c        ****         {
 329:main.c        ****             if(updated_input&(1<<0))
 330:main.c        ****             {                                
 331:main.c        ****                 switch(rcv0[0])
 332:main.c        ****                 {
 333:main.c        ****                     case Kp:
 334:main.c        ****                     {
ARM GAS  C:\Users\AFDHAL~1\AppData\Local\Temp\cc2WzABC.s 			page 8


 335:main.c        ****                         modbus_holding_regs[Kp] = (rcv0[1]<<8) | rcv0[2];
 336:main.c        ****                         modbusRTU_Written |= 1;
 337:main.c        ****                         modbusRTU_written_register_flags |= (1<<Kp);                        
 338:main.c        ****                         break;
 339:main.c        ****                     }
 340:main.c        ****                     case Ki:
 341:main.c        ****                     {
 342:main.c        ****                         modbus_holding_regs[Ki] = (rcv0[1]<<8) | rcv0[2];
 343:main.c        ****                         modbusRTU_Written |= 1;
 344:main.c        ****                         modbusRTU_written_register_flags |= (1<<Ki);
 345:main.c        ****                         break;
 346:main.c        ****                     }
 347:main.c        ****                     case Kd:
 348:main.c        ****                     {
 349:main.c        ****                         modbus_holding_regs[Kd] = (rcv0[1]<<8) | rcv0[2];
 350:main.c        ****                         modbusRTU_Written |= 1;
 351:main.c        ****                         modbusRTU_written_register_flags |= (1<<Kd);
 352:main.c        ****                         break;
 353:main.c        ****                     }
 354:main.c        ****                     case PID_Setpoint:
 355:main.c        ****                     {
 356:main.c        ****                         modbus_holding_regs[PID_Setpoint] = (rcv0[1]<<8) | rcv0[2];                
 357:main.c        ****                         break;
 358:main.c        ****                     }
 359:main.c        ****                     case PID_Setpoint1:
 360:main.c        ****                     {
 361:main.c        ****                         modbus_holding_regs[PID_Setpoint1] = (rcv0[1]<<8) | rcv0[2];
 362:main.c        ****                         modbusRTU_Written |= 1;
 363:main.c        ****                         modbusRTU_written_register_flags |= (1<<PID_Setpoint1);
 364:main.c        ****                         break;
 365:main.c        ****                     }
 366:main.c        ****                     case Soft_Reset:
 367:main.c        ****                     {
 368:main.c        ****                         modbus_holding_regs[Soft_Reset] = (rcv0[1]<<8) | rcv0[2];
 369:main.c        ****                         modbusRTU_Written |= 1;
 370:main.c        ****                         modbusRTU_written_register_flags |= (1<<Soft_Reset);
 371:main.c        ****                         break;
 372:main.c        ****                     }
 373:main.c        ****                 }
 374:main.c        ****                 //clear flag
 375:main.c        ****                 updated_input &= ~(1<<0);
 376:main.c        ****             }
 377:main.c        ****         }
 378:main.c        ****         
 379:main.c        ****         //Node B
 380:main.c        ****         if (station_id == 1)
 381:main.c        ****         {
 382:main.c        ****             if(updated_input&(1<<0))
 383:main.c        ****             {                                
 384:main.c        ****                 switch(rcv0[0])
 385:main.c        ****                 {
 386:main.c        ****                     case Kp:
 387:main.c        ****                     {
 388:main.c        ****                         modbus_holding_regs[Kp] = (rcv0[1]<<8) | rcv0[2];
 389:main.c        ****                         break;
 390:main.c        ****                     }
 391:main.c        ****                     case Ki:
ARM GAS  C:\Users\AFDHAL~1\AppData\Local\Temp\cc2WzABC.s 			page 9


 392:main.c        ****                     {
 393:main.c        ****                         modbus_holding_regs[Ki] = (rcv0[1]<<8) | rcv0[2];
 394:main.c        ****                         break;
 395:main.c        ****                     }
 396:main.c        ****                     case Kd:
 397:main.c        ****                     {
 398:main.c        ****                         modbus_holding_regs[Kd] = (rcv0[1]<<8) | rcv0[2];
 399:main.c        ****                         break;
 400:main.c        ****                     }
 401:main.c        ****                     case PID_Setpoint:
 402:main.c        ****                     {
 403:main.c        ****                         modbus_holding_regs[PID_Setpoint] = (rcv0[1]<<8) | rcv0[2];
 404:main.c        ****                         break;
 405:main.c        ****                     }
 406:main.c        ****                     case Soft_Reset:
 407:main.c        ****                     {
 408:main.c        ****                         modbus_holding_regs[Soft_Reset] = (rcv0[1]<<8) | rcv0[2];
 409:main.c        ****                         break;
 410:main.c        ****                     }
 411:main.c        ****                 }
 412:main.c        ****                 //clear flag
 413:main.c        ****                 updated_input &= ~(1<<0);
 414:main.c        ****             }
 415:main.c        ****         }                                        
 416:main.c        ****     }
 417:main.c        **** }
  66              		.loc 1 417 0
  67              		@ sp needed
  68 0026 04BC     		pop	{r2}
  69 0028 9046     		mov	r8, r2
  70 002a F0BD     		pop	{r4, r5, r6, r7, pc}
  71              	.L55:
  72              	.LBB2:
 300:main.c        ****         nRF24_clear_irq_flag(NRF_RX_DR_IRQ);
  73              		.loc 1 300 0
  74 002c FFF7FEFF 		bl	LED_Read
  75              	.LVL3:
  76 0030 C043     		mvns	r0, r0
  77 0032 C0B2     		uxtb	r0, r0
  78 0034 FFF7FEFF 		bl	LED_Write
  79              	.LVL4:
 301:main.c        ****         
  80              		.loc 1 301 0
  81 0038 0620     		movs	r0, #6
  82 003a FFF7FEFF 		bl	nRF24_clear_irq_flag
  83              	.LVL5:
 303:main.c        ****         
  84              		.loc 1 303 0
  85 003e FFF7FEFF 		bl	nRF24_get_data_pipe_with_payload
  86              	.LVL6:
 305:main.c        ****         {
  87              		.loc 1 305 0
  88 0042 0728     		cmp	r0, #7
  89 0044 20D0     		beq	.L19
 317:main.c        ****                     updated_input |= 1 << 1;
  90              		.loc 1 317 0
  91 0046 2700     		movs	r7, r4
ARM GAS  C:\Users\AFDHAL~1\AppData\Local\Temp\cc2WzABC.s 			page 10


 318:main.c        ****                     break;
  92              		.loc 1 318 0
  93 0048 2425     		movs	r5, #36
 317:main.c        ****                     updated_input |= 1 << 1;
  94              		.loc 1 317 0
  95 004a 2837     		adds	r7, r7, #40
 318:main.c        ****                     break;
  96              		.loc 1 318 0
  97 004c 0226     		movs	r6, #2
  98 004e 0CE0     		b	.L44
  99              	.L56:
 307:main.c        ****             {
 100              		.loc 1 307 0
 101 0050 0128     		cmp	r0, #1
 102 0052 06D1     		bne	.L15
 317:main.c        ****                     updated_input |= 1 << 1;
 103              		.loc 1 317 0
 104 0054 0421     		movs	r1, #4
 105 0056 3800     		movs	r0, r7
 106              	.LVL7:
 107 0058 FFF7FEFF 		bl	nRF24_get_rx_payload
 108              	.LVL8:
 318:main.c        ****                     break;
 109              		.loc 1 318 0
 110 005c 635D     		ldrb	r3, [r4, r5]
 111 005e 3343     		orrs	r3, r6
 112 0060 6355     		strb	r3, [r4, r5]
 113              	.L15:
 323:main.c        ****         }
 114              		.loc 1 323 0
 115 0062 FFF7FEFF 		bl	nRF24_get_data_pipe_with_payload
 116              	.LVL9:
 305:main.c        ****         {
 117              		.loc 1 305 0
 118 0066 0728     		cmp	r0, #7
 119 0068 0ED0     		beq	.L19
 120              	.LVL10:
 121              	.L44:
 307:main.c        ****             {
 122              		.loc 1 307 0
 123 006a 0028     		cmp	r0, #0
 124 006c F0D1     		bne	.L56
 311:main.c        ****                     updated_input |= 1 << 0;
 125              		.loc 1 311 0
 126 006e 2000     		movs	r0, r4
 127              	.LVL11:
 128 0070 0421     		movs	r1, #4
 129 0072 1430     		adds	r0, r0, #20
 130 0074 FFF7FEFF 		bl	nRF24_get_rx_payload
 131              	.LVL12:
 312:main.c        ****                     break;
 132              		.loc 1 312 0
 133 0078 0123     		movs	r3, #1
 134 007a 625D     		ldrb	r2, [r4, r5]
 135 007c 1343     		orrs	r3, r2
 136 007e 6355     		strb	r3, [r4, r5]
 323:main.c        ****         }
ARM GAS  C:\Users\AFDHAL~1\AppData\Local\Temp\cc2WzABC.s 			page 11


 137              		.loc 1 323 0
 138 0080 FFF7FEFF 		bl	nRF24_get_data_pipe_with_payload
 139              	.LVL13:
 305:main.c        ****         {
 140              		.loc 1 305 0
 141 0084 0728     		cmp	r0, #7
 142 0086 F0D1     		bne	.L44
 143              	.LVL14:
 144              	.L19:
 327:main.c        ****         {
 145              		.loc 1 327 0
 146 0088 2378     		ldrb	r3, [r4]
 147 008a 002B     		cmp	r3, #0
 148 008c 0CD0     		beq	.L13
 380:main.c        ****         {
 149              		.loc 1 380 0
 150 008e 012B     		cmp	r3, #1
 151 0090 C9D1     		bne	.L1
 382:main.c        ****             {                                
 152              		.loc 1 382 0
 153 0092 2422     		movs	r2, #36
 154 0094 A25C     		ldrb	r2, [r4, r2]
 155 0096 1342     		tst	r3, r2
 156 0098 C5D0     		beq	.L1
 384:main.c        ****                 {
 157              		.loc 1 384 0
 158 009a 237D     		ldrb	r3, [r4, #20]
 159 009c 072B     		cmp	r3, #7
 160 009e 5CD8     		bhi	.L28
 161 00a0 8D49     		ldr	r1, .L57+8
 162 00a2 9B00     		lsls	r3, r3, #2
 163 00a4 CB58     		ldr	r3, [r1, r3]
 164 00a6 9F46     		mov	pc, r3
 165              		.section	.rodata
 166              		.align	2
 167              	.L30:
 168 0000 E0010000 		.word	.L29
 169 0004 D2010000 		.word	.L31
 170 0008 4E010000 		.word	.L32
 171 000c C4010000 		.word	.L33
 172 0010 5A010000 		.word	.L28
 173 0014 5A010000 		.word	.L28
 174 0018 5A010000 		.word	.L28
 175 001c B6010000 		.word	.L34
 176              		.section	.text.handle_rf
 177              	.L13:
 329:main.c        ****             {                                
 178              		.loc 1 329 0
 179 00a8 2423     		movs	r3, #36
 180 00aa E35C     		ldrb	r3, [r4, r3]
 181 00ac DA07     		lsls	r2, r3, #31
 182 00ae BAD5     		bpl	.L1
 331:main.c        ****                 {
 183              		.loc 1 331 0
 184 00b0 227D     		ldrb	r2, [r4, #20]
 185 00b2 0A2A     		cmp	r2, #10
 186 00b4 5CD8     		bhi	.L20
ARM GAS  C:\Users\AFDHAL~1\AppData\Local\Temp\cc2WzABC.s 			page 12


 187 00b6 8949     		ldr	r1, .L57+12
 188 00b8 9200     		lsls	r2, r2, #2
 189 00ba 8A58     		ldr	r2, [r1, r2]
 190 00bc 9746     		mov	pc, r2
 191              		.section	.rodata
 192              		.align	2
 193              	.L22:
 194 0020 EE010000 		.word	.L21
 195 0024 32020000 		.word	.L23
 196 0028 10020000 		.word	.L24
 197 002c 64010000 		.word	.L25
 198 0030 70010000 		.word	.L20
 199 0034 70010000 		.word	.L20
 200 0038 70010000 		.word	.L20
 201 003c 54020000 		.word	.L26
 202 0040 70010000 		.word	.L20
 203 0044 70010000 		.word	.L20
 204 0048 76020000 		.word	.L27
 205              		.section	.text.handle_rf
 206              	.L54:
 207              	.LBE2:
 201:main.c        ****             nRF24_set_tx_mode();            
 208              		.loc 1 201 0
 209 00be FFF7FEFF 		bl	nRF24_stop_listening
 210              	.LVL15:
 202:main.c        ****             
 211              		.loc 1 202 0
 212 00c2 FFF7FEFF 		bl	nRF24_set_tx_mode
 213              	.LVL16:
 204:main.c        ****             {
 214              		.loc 1 204 0
 215 00c6 3200     		movs	r2, r6
 216 00c8 854B     		ldr	r3, .L57+16
 217 00ca 9846     		mov	r8, r3
 218 00cc 1B68     		ldr	r3, [r3]
 219 00ce 1A40     		ands	r2, r3
 220 00d0 53D0     		beq	.L5
 207:main.c        ****                 dataToSend[2] = modbus_holding_regs[Kp]&0xff; //lsb
 221              		.loc 1 207 0
 222 00d2 844A     		ldr	r2, .L57+20
 210:main.c        ****                 
 223              		.loc 1 210 0
 224 00d4 B343     		bics	r3, r6
 207:main.c        ****                 dataToSend[2] = modbus_holding_regs[Kp]&0xff; //lsb
 225              		.loc 1 207 0
 226 00d6 1268     		ldr	r2, [r2]
 206:main.c        ****                 dataToSend[1] = modbus_holding_regs[Kp]>>8; //msb
 227              		.loc 1 206 0
 228 00d8 2571     		strb	r5, [r4, #4]
 207:main.c        ****                 dataToSend[2] = modbus_holding_regs[Kp]&0xff; //lsb
 229              		.loc 1 207 0
 230 00da 1112     		asrs	r1, r2, #8
 208:main.c        ****                 dataToSend[3] = 0;
 231              		.loc 1 208 0
 232 00dc A271     		strb	r2, [r4, #6]
 210:main.c        ****                 
 233              		.loc 1 210 0
ARM GAS  C:\Users\AFDHAL~1\AppData\Local\Temp\cc2WzABC.s 			page 13


 234 00de 4246     		mov	r2, r8
 207:main.c        ****                 dataToSend[2] = modbus_holding_regs[Kp]&0xff; //lsb
 235              		.loc 1 207 0
 236 00e0 6171     		strb	r1, [r4, #5]
 209:main.c        ****                 modbusRTU_written_register_flags &= ~(1<<Kp);
 237              		.loc 1 209 0
 238 00e2 E571     		strb	r5, [r4, #7]
 210:main.c        ****                 
 239              		.loc 1 210 0
 240 00e4 1360     		str	r3, [r2]
 241              	.L6:
 247:main.c        ****             CyDelay(10);
 242              		.loc 1 247 0
 243 00e6 251D     		adds	r5, r4, #4
 244 00e8 0421     		movs	r1, #4
 245 00ea 2800     		movs	r0, r5
 246 00ec FFF7FEFF 		bl	nRF24_transmit
 247              	.LVL17:
 248:main.c        ****             nRF24_transmit(dataToSend, 4); 
 248              		.loc 1 248 0
 249 00f0 0A20     		movs	r0, #10
 250 00f2 FFF7FEFF 		bl	CyDelay
 251              	.LVL18:
 249:main.c        ****             CyDelay(10);
 252              		.loc 1 249 0
 253 00f6 0421     		movs	r1, #4
 254 00f8 2800     		movs	r0, r5
 255 00fa FFF7FEFF 		bl	nRF24_transmit
 256              	.LVL19:
 250:main.c        ****             nRF24_transmit(dataToSend, 4); 
 257              		.loc 1 250 0
 258 00fe 0A20     		movs	r0, #10
 259 0100 FFF7FEFF 		bl	CyDelay
 260              	.LVL20:
 251:main.c        ****             CyDelay(10);
 261              		.loc 1 251 0
 262 0104 0421     		movs	r1, #4
 263 0106 2800     		movs	r0, r5
 264 0108 FFF7FEFF 		bl	nRF24_transmit
 265              	.LVL21:
 252:main.c        ****             nRF24_transmit(dataToSend, 4); 
 266              		.loc 1 252 0
 267 010c 0A20     		movs	r0, #10
 268 010e FFF7FEFF 		bl	CyDelay
 269              	.LVL22:
 253:main.c        ****             CyDelay(10);
 270              		.loc 1 253 0
 271 0112 0421     		movs	r1, #4
 272 0114 2800     		movs	r0, r5
 273 0116 FFF7FEFF 		bl	nRF24_transmit
 274              	.LVL23:
 254:main.c        ****             nRF24_transmit(dataToSend, 4); 
 275              		.loc 1 254 0
 276 011a 0A20     		movs	r0, #10
 277 011c FFF7FEFF 		bl	CyDelay
 278              	.LVL24:
 255:main.c        ****             CyDelay(10);
ARM GAS  C:\Users\AFDHAL~1\AppData\Local\Temp\cc2WzABC.s 			page 14


 279              		.loc 1 255 0
 280 0120 0421     		movs	r1, #4
 281 0122 2800     		movs	r0, r5
 282 0124 FFF7FEFF 		bl	nRF24_transmit
 283              	.LVL25:
 256:main.c        ****             
 284              		.loc 1 256 0
 285 0128 0A20     		movs	r0, #10
 286 012a FFF7FEFF 		bl	CyDelay
 287              	.LVL26:
 259:main.c        ****             LED_Write(~LED_Read());
 288              		.loc 1 259 0
 289 012e FFF7FEFF 		bl	nRF24_clear_all_irqs
 290              	.LVL27:
 260:main.c        ****             
 291              		.loc 1 260 0
 292 0132 FFF7FEFF 		bl	LED_Read
 293              	.LVL28:
 294 0136 C043     		mvns	r0, r0
 295 0138 C0B2     		uxtb	r0, r0
 296 013a FFF7FEFF 		bl	LED_Write
 297              	.LVL29:
 284:main.c        ****                 modbusRTU_Written = 0;    
 298              		.loc 1 284 0
 299 013e 4346     		mov	r3, r8
 300 0140 1A68     		ldr	r2, [r3]
 301 0142 694B     		ldr	r3, .L57+24
 302 0144 1340     		ands	r3, r2
 303 0146 00D0     		beq	.LCB227
 304 0148 69E7     		b	.L3	@long jump
 305              	.LCB227:
 285:main.c        ****         }   
 306              		.loc 1 285 0
 307 014a 3B70     		strb	r3, [r7]
 308 014c 67E7     		b	.L3
 309              	.L32:
 310              	.LBB3:
 398:main.c        ****                         break;
 311              		.loc 1 398 0
 312 014e 637D     		ldrb	r3, [r4, #21]
 313 0150 1902     		lsls	r1, r3, #8
 314 0152 A37D     		ldrb	r3, [r4, #22]
 315 0154 0B43     		orrs	r3, r1
 316 0156 6349     		ldr	r1, .L57+20
 317 0158 8B60     		str	r3, [r1, #8]
 318              	.L28:
 413:main.c        ****             }
 319              		.loc 1 413 0
 320 015a 0123     		movs	r3, #1
 321 015c 9A43     		bics	r2, r3
 322 015e 2333     		adds	r3, r3, #35
 323 0160 E254     		strb	r2, [r4, r3]
 324              	.LBE3:
 325              		.loc 1 417 0
 326 0162 60E7     		b	.L1
 327              	.L25:
 328              	.LBB4:
ARM GAS  C:\Users\AFDHAL~1\AppData\Local\Temp\cc2WzABC.s 			page 15


 356:main.c        ****                         break;
 329              		.loc 1 356 0
 330 0164 627D     		ldrb	r2, [r4, #21]
 331 0166 1102     		lsls	r1, r2, #8
 332 0168 A27D     		ldrb	r2, [r4, #22]
 333 016a 0A43     		orrs	r2, r1
 334 016c 5D49     		ldr	r1, .L57+20
 335 016e CA60     		str	r2, [r1, #12]
 336              	.L20:
 375:main.c        ****             }
 337              		.loc 1 375 0
 338 0170 0122     		movs	r2, #1
 339 0172 9343     		bics	r3, r2
 340 0174 2332     		adds	r2, r2, #35
 341 0176 A354     		strb	r3, [r4, r2]
 342 0178 55E7     		b	.L1
 343              	.L5:
 344              	.LBE4:
 213:main.c        ****             {
 345              		.loc 1 213 0
 346 017a 0221     		movs	r1, #2
 347 017c 0800     		movs	r0, r1
 348 017e 1840     		ands	r0, r3
 349 0180 0AD0     		beq	.L7
 216:main.c        ****                 dataToSend[2] = modbus_holding_regs[Ki]&0xff; //lsb
 350              		.loc 1 216 0
 351 0182 5848     		ldr	r0, .L57+20
 215:main.c        ****                 dataToSend[1] = modbus_holding_regs[Ki]>>8; //msb
 352              		.loc 1 215 0
 353 0184 2671     		strb	r6, [r4, #4]
 216:main.c        ****                 dataToSend[2] = modbus_holding_regs[Ki]&0xff; //lsb
 354              		.loc 1 216 0
 355 0186 4068     		ldr	r0, [r0, #4]
 356              	.L51:
 243:main.c        ****                 modbusRTU_written_register_flags &= ~(1<<Soft_Reset);
 357              		.loc 1 243 0
 358 0188 E271     		strb	r2, [r4, #7]
 244:main.c        ****             }
 359              		.loc 1 244 0
 360 018a 4246     		mov	r2, r8
 241:main.c        ****                 dataToSend[2] = modbus_holding_regs[Soft_Reset]&0xff; //lsb
 361              		.loc 1 241 0
 362 018c 0512     		asrs	r5, r0, #8
 244:main.c        ****             }
 363              		.loc 1 244 0
 364 018e 8B43     		bics	r3, r1
 241:main.c        ****                 dataToSend[2] = modbus_holding_regs[Soft_Reset]&0xff; //lsb
 365              		.loc 1 241 0
 366 0190 6571     		strb	r5, [r4, #5]
 242:main.c        ****                 dataToSend[3] = 0;
 367              		.loc 1 242 0
 368 0192 A071     		strb	r0, [r4, #6]
 244:main.c        ****             }
 369              		.loc 1 244 0
 370 0194 1360     		str	r3, [r2]
 371 0196 A6E7     		b	.L6
 372              	.L7:
ARM GAS  C:\Users\AFDHAL~1\AppData\Local\Temp\cc2WzABC.s 			page 16


 221:main.c        ****             {
 373              		.loc 1 221 0
 374 0198 0422     		movs	r2, #4
 375 019a 1500     		movs	r5, r2
 376 019c 1D40     		ands	r5, r3
 377 019e 7CD0     		beq	.L8
 227:main.c        ****             }
 378              		.loc 1 227 0
 379 01a0 9343     		bics	r3, r2
 380 01a2 4246     		mov	r2, r8
 223:main.c        ****                 dataToSend[1] = modbus_holding_regs[Kd]>>8; //msb
 381              		.loc 1 223 0
 382 01a4 2171     		strb	r1, [r4, #4]
 224:main.c        ****                 dataToSend[2] = modbus_holding_regs[Kd]&0xff; //lsb
 383              		.loc 1 224 0
 384 01a6 4F49     		ldr	r1, .L57+20
 226:main.c        ****                 modbusRTU_written_register_flags &= ~(1<<Kd);
 385              		.loc 1 226 0
 386 01a8 E071     		strb	r0, [r4, #7]
 224:main.c        ****                 dataToSend[2] = modbus_holding_regs[Kd]&0xff; //lsb
 387              		.loc 1 224 0
 388 01aa 8968     		ldr	r1, [r1, #8]
 227:main.c        ****             }
 389              		.loc 1 227 0
 390 01ac 1360     		str	r3, [r2]
 224:main.c        ****                 dataToSend[2] = modbus_holding_regs[Kd]&0xff; //lsb
 391              		.loc 1 224 0
 392 01ae 0D12     		asrs	r5, r1, #8
 393 01b0 6571     		strb	r5, [r4, #5]
 225:main.c        ****                 dataToSend[3] = 0;
 394              		.loc 1 225 0
 395 01b2 A171     		strb	r1, [r4, #6]
 396 01b4 97E7     		b	.L6
 397              	.L34:
 398              	.LBB5:
 408:main.c        ****                         break;
 399              		.loc 1 408 0
 400 01b6 637D     		ldrb	r3, [r4, #21]
 401 01b8 1902     		lsls	r1, r3, #8
 402 01ba A37D     		ldrb	r3, [r4, #22]
 403 01bc 0B43     		orrs	r3, r1
 404 01be 4949     		ldr	r1, .L57+20
 405 01c0 CB61     		str	r3, [r1, #28]
 409:main.c        ****                     }
 406              		.loc 1 409 0
 407 01c2 CAE7     		b	.L28
 408              	.L33:
 403:main.c        ****                         break;
 409              		.loc 1 403 0
 410 01c4 637D     		ldrb	r3, [r4, #21]
 411 01c6 1902     		lsls	r1, r3, #8
 412 01c8 A37D     		ldrb	r3, [r4, #22]
 413 01ca 0B43     		orrs	r3, r1
 414 01cc 4549     		ldr	r1, .L57+20
 415 01ce CB60     		str	r3, [r1, #12]
 404:main.c        ****                     }
 416              		.loc 1 404 0
ARM GAS  C:\Users\AFDHAL~1\AppData\Local\Temp\cc2WzABC.s 			page 17


 417 01d0 C3E7     		b	.L28
 418              	.L31:
 393:main.c        ****                         break;
 419              		.loc 1 393 0
 420 01d2 637D     		ldrb	r3, [r4, #21]
 421 01d4 1902     		lsls	r1, r3, #8
 422 01d6 A37D     		ldrb	r3, [r4, #22]
 423 01d8 0B43     		orrs	r3, r1
 424 01da 4249     		ldr	r1, .L57+20
 425 01dc 4B60     		str	r3, [r1, #4]
 394:main.c        ****                     }
 426              		.loc 1 394 0
 427 01de BCE7     		b	.L28
 428              	.L29:
 388:main.c        ****                         break;
 429              		.loc 1 388 0
 430 01e0 637D     		ldrb	r3, [r4, #21]
 431 01e2 1902     		lsls	r1, r3, #8
 432 01e4 A37D     		ldrb	r3, [r4, #22]
 433 01e6 0B43     		orrs	r3, r1
 434 01e8 3E49     		ldr	r1, .L57+20
 435 01ea 0B60     		str	r3, [r1]
 389:main.c        ****                     }
 436              		.loc 1 389 0
 437 01ec B5E7     		b	.L28
 438              	.L21:
 335:main.c        ****                         modbusRTU_Written |= 1;
 439              		.loc 1 335 0
 440 01ee 627D     		ldrb	r2, [r4, #21]
 441 01f0 1102     		lsls	r1, r2, #8
 442 01f2 A27D     		ldrb	r2, [r4, #22]
 443 01f4 0A43     		orrs	r2, r1
 444 01f6 3B49     		ldr	r1, .L57+20
 445 01f8 0A60     		str	r2, [r1]
 336:main.c        ****                         modbusRTU_written_register_flags |= (1<<Kp);                        
 446              		.loc 1 336 0
 447 01fa 0122     		movs	r2, #1
 448 01fc 3549     		ldr	r1, .L57+4
 449 01fe 0878     		ldrb	r0, [r1]
 450 0200 0243     		orrs	r2, r0
 451 0202 0A70     		strb	r2, [r1]
 337:main.c        ****                         break;
 452              		.loc 1 337 0
 453 0204 0122     		movs	r2, #1
 454 0206 3649     		ldr	r1, .L57+16
 455 0208 0868     		ldr	r0, [r1]
 456 020a 0243     		orrs	r2, r0
 457 020c 0A60     		str	r2, [r1]
 338:main.c        ****                     }
 458              		.loc 1 338 0
 459 020e AFE7     		b	.L20
 460              	.L24:
 349:main.c        ****                         modbusRTU_Written |= 1;
 461              		.loc 1 349 0
 462 0210 627D     		ldrb	r2, [r4, #21]
 463 0212 1102     		lsls	r1, r2, #8
 464 0214 A27D     		ldrb	r2, [r4, #22]
ARM GAS  C:\Users\AFDHAL~1\AppData\Local\Temp\cc2WzABC.s 			page 18


 465 0216 0A43     		orrs	r2, r1
 466 0218 3249     		ldr	r1, .L57+20
 467 021a 8A60     		str	r2, [r1, #8]
 350:main.c        ****                         modbusRTU_written_register_flags |= (1<<Kd);
 468              		.loc 1 350 0
 469 021c 0122     		movs	r2, #1
 470 021e 2D49     		ldr	r1, .L57+4
 471 0220 0878     		ldrb	r0, [r1]
 472 0222 0243     		orrs	r2, r0
 473 0224 0A70     		strb	r2, [r1]
 351:main.c        ****                         break;
 474              		.loc 1 351 0
 475 0226 0422     		movs	r2, #4
 476 0228 2D49     		ldr	r1, .L57+16
 477 022a 0868     		ldr	r0, [r1]
 478 022c 0243     		orrs	r2, r0
 479 022e 0A60     		str	r2, [r1]
 352:main.c        ****                     }
 480              		.loc 1 352 0
 481 0230 9EE7     		b	.L20
 482              	.L23:
 342:main.c        ****                         modbusRTU_Written |= 1;
 483              		.loc 1 342 0
 484 0232 627D     		ldrb	r2, [r4, #21]
 485 0234 1102     		lsls	r1, r2, #8
 486 0236 A27D     		ldrb	r2, [r4, #22]
 487 0238 0A43     		orrs	r2, r1
 488 023a 2A49     		ldr	r1, .L57+20
 489 023c 4A60     		str	r2, [r1, #4]
 343:main.c        ****                         modbusRTU_written_register_flags |= (1<<Ki);
 490              		.loc 1 343 0
 491 023e 0122     		movs	r2, #1
 492 0240 2449     		ldr	r1, .L57+4
 493 0242 0878     		ldrb	r0, [r1]
 494 0244 0243     		orrs	r2, r0
 495 0246 0A70     		strb	r2, [r1]
 344:main.c        ****                         break;
 496              		.loc 1 344 0
 497 0248 0222     		movs	r2, #2
 498 024a 2549     		ldr	r1, .L57+16
 499 024c 0868     		ldr	r0, [r1]
 500 024e 0243     		orrs	r2, r0
 501 0250 0A60     		str	r2, [r1]
 345:main.c        ****                     }
 502              		.loc 1 345 0
 503 0252 8DE7     		b	.L20
 504              	.L26:
 368:main.c        ****                         modbusRTU_Written |= 1;
 505              		.loc 1 368 0
 506 0254 627D     		ldrb	r2, [r4, #21]
 507 0256 1102     		lsls	r1, r2, #8
 508 0258 A27D     		ldrb	r2, [r4, #22]
 509 025a 0A43     		orrs	r2, r1
 510 025c 2149     		ldr	r1, .L57+20
 511 025e CA61     		str	r2, [r1, #28]
 369:main.c        ****                         modbusRTU_written_register_flags |= (1<<Soft_Reset);
 512              		.loc 1 369 0
ARM GAS  C:\Users\AFDHAL~1\AppData\Local\Temp\cc2WzABC.s 			page 19


 513 0260 0122     		movs	r2, #1
 514 0262 1C49     		ldr	r1, .L57+4
 515 0264 0878     		ldrb	r0, [r1]
 516 0266 0243     		orrs	r2, r0
 517 0268 0A70     		strb	r2, [r1]
 370:main.c        ****                         break;
 518              		.loc 1 370 0
 519 026a 8022     		movs	r2, #128
 520 026c 1C49     		ldr	r1, .L57+16
 521 026e 0868     		ldr	r0, [r1]
 522 0270 0243     		orrs	r2, r0
 523 0272 0A60     		str	r2, [r1]
 371:main.c        ****                     }
 524              		.loc 1 371 0
 525 0274 7CE7     		b	.L20
 526              	.L27:
 361:main.c        ****                         modbusRTU_Written |= 1;
 527              		.loc 1 361 0
 528 0276 627D     		ldrb	r2, [r4, #21]
 529 0278 1102     		lsls	r1, r2, #8
 530 027a A27D     		ldrb	r2, [r4, #22]
 531 027c 0A43     		orrs	r2, r1
 532 027e 1949     		ldr	r1, .L57+20
 533 0280 8A62     		str	r2, [r1, #40]
 362:main.c        ****                         modbusRTU_written_register_flags |= (1<<PID_Setpoint1);
 534              		.loc 1 362 0
 535 0282 0122     		movs	r2, #1
 536 0284 1349     		ldr	r1, .L57+4
 537 0286 0878     		ldrb	r0, [r1]
 538 0288 0243     		orrs	r2, r0
 539 028a 0A70     		strb	r2, [r1]
 363:main.c        ****                         break;
 540              		.loc 1 363 0
 541 028c 8022     		movs	r2, #128
 542 028e 1449     		ldr	r1, .L57+16
 543 0290 D200     		lsls	r2, r2, #3
 544 0292 0868     		ldr	r0, [r1]
 545 0294 0243     		orrs	r2, r0
 546 0296 0A60     		str	r2, [r1]
 364:main.c        ****                     }
 547              		.loc 1 364 0
 548 0298 6AE7     		b	.L20
 549              	.L8:
 550              	.LBE5:
 229:main.c        ****             {
 551              		.loc 1 229 0
 552 029a 8022     		movs	r2, #128
 553 029c D200     		lsls	r2, r2, #3
 554 029e 1A40     		ands	r2, r3
 555 02a0 0CD0     		beq	.L9
 231:main.c        ****                 dataToSend[1] = modbus_holding_regs[PID_Setpoint1]>>8; //msb
 556              		.loc 1 231 0
 557 02a2 0322     		movs	r2, #3
 558 02a4 2271     		strb	r2, [r4, #4]
 232:main.c        ****                 dataToSend[2] = modbus_holding_regs[PID_Setpoint1]&0xff; //lsb
 559              		.loc 1 232 0
 560 02a6 0F4A     		ldr	r2, .L57+20
ARM GAS  C:\Users\AFDHAL~1\AppData\Local\Temp\cc2WzABC.s 			page 20


 234:main.c        ****                 modbusRTU_written_register_flags &= ~(1<<PID_Setpoint1);
 561              		.loc 1 234 0
 562 02a8 E571     		strb	r5, [r4, #7]
 232:main.c        ****                 dataToSend[2] = modbus_holding_regs[PID_Setpoint1]&0xff; //lsb
 563              		.loc 1 232 0
 564 02aa 926A     		ldr	r2, [r2, #40]
 565 02ac 1112     		asrs	r1, r2, #8
 233:main.c        ****                 dataToSend[3] = 0;
 566              		.loc 1 233 0
 567 02ae A271     		strb	r2, [r4, #6]
 235:main.c        ****             }
 568              		.loc 1 235 0
 569 02b0 0E4A     		ldr	r2, .L57+28
 232:main.c        ****                 dataToSend[2] = modbus_holding_regs[PID_Setpoint1]&0xff; //lsb
 570              		.loc 1 232 0
 571 02b2 6171     		strb	r1, [r4, #5]
 235:main.c        ****             }
 572              		.loc 1 235 0
 573 02b4 1340     		ands	r3, r2
 574 02b6 4246     		mov	r2, r8
 575 02b8 1360     		str	r3, [r2]
 576 02ba 14E7     		b	.L6
 577              	.L9:
 238:main.c        ****             {
 578              		.loc 1 238 0
 579 02bc 8021     		movs	r1, #128
 580 02be 1942     		tst	r1, r3
 581 02c0 00D1     		bne	.LCB481
 582 02c2 10E7     		b	.L6	@long jump
 583              	.LCB481:
 240:main.c        ****                 dataToSend[1] = modbus_holding_regs[Soft_Reset]>>8; //msb
 584              		.loc 1 240 0
 585 02c4 0720     		movs	r0, #7
 586 02c6 2071     		strb	r0, [r4, #4]
 241:main.c        ****                 dataToSend[2] = modbus_holding_regs[Soft_Reset]&0xff; //lsb
 587              		.loc 1 241 0
 588 02c8 0648     		ldr	r0, .L57+20
 589 02ca C069     		ldr	r0, [r0, #28]
 590 02cc 5CE7     		b	.L51
 591              	.L58:
 592 02ce C046     		.align	2
 593              	.L57:
 594 02d0 00000000 		.word	.LANCHOR0
 595 02d4 00000000 		.word	modbusRTU_Written
 596 02d8 00000000 		.word	.L30
 597 02dc 20000000 		.word	.L22
 598 02e0 00000000 		.word	modbusRTU_written_register_flags
 599 02e4 00000000 		.word	modbus_holding_regs
 600 02e8 07040000 		.word	1031
 601 02ec FFFBFFFF 		.word	-1025
 602              		.cfi_endproc
 603              	.LFE36:
 604              		.size	handle_rf, .-handle_rf
 605              		.global	__aeabi_i2f
 606              		.global	__aeabi_f2iz
 607              		.global	__aeabi_f2d
 608              		.global	__aeabi_dmul
ARM GAS  C:\Users\AFDHAL~1\AppData\Local\Temp\cc2WzABC.s 			page 21


 609              		.global	__aeabi_d2iz
 610              		.section	.text.startup.main,"ax",%progbits
 611              		.align	2
 612              		.global	main
 613              		.code	16
 614              		.thumb_func
 615              		.type	main, %function
 616              	main:
 617              	.LFB35:
  36:main.c        ****     CyGlobalIntEnable; /* Enable global interrupts. */
 618              		.loc 1 36 0
 619              		.cfi_startproc
 620              		@ Volatile: function does not return.
 621              		@ args = 0, pretend = 0, frame = 0
 622              		@ frame_needed = 0, uses_anonymous_args = 0
 623 0000 F0B5     		push	{r4, r5, r6, r7, lr}
 624              		.cfi_def_cfa_offset 20
 625              		.cfi_offset 4, -20
 626              		.cfi_offset 5, -16
 627              		.cfi_offset 6, -12
 628              		.cfi_offset 7, -8
 629              		.cfi_offset 14, -4
 630 0002 5746     		mov	r7, r10
 631 0004 4E46     		mov	r6, r9
 632 0006 4546     		mov	r5, r8
 633 0008 E0B4     		push	{r5, r6, r7}
 634              		.cfi_def_cfa_offset 32
 635              		.cfi_offset 8, -32
 636              		.cfi_offset 9, -28
 637              		.cfi_offset 10, -24
  37:main.c        **** 
 638              		.loc 1 37 0
 639              		.syntax divided
 640              	@ 37 "main.c" 1
 641 000a 62B6     		CPSIE   i
 642              	@ 0 "" 2
  40:main.c        ****     
 643              		.loc 1 40 0
 644              		.thumb
 645              		.syntax unified
 646 000c 0020     		movs	r0, #0
 647 000e FFF7FEFF 		bl	LED_Write
 648              	.LVL30:
  43:main.c        ****     
 649              		.loc 1 43 0
 650 0012 FFF7FEFF 		bl	ID_Read
 651              	.LVL31:
 652 0016 7C4B     		ldr	r3, .L70
 653 0018 9846     		mov	r8, r3
 654 001a 1870     		strb	r0, [r3]
  46:main.c        ****     nRF24_set_mode(NRF_MODE_RX);
 655              		.loc 1 46 0
 656 001c FFF7FEFF 		bl	nRF24_Adapter_Start
 657              	.LVL32:
  47:main.c        ****     nRF24_set_rx_mode();
 658              		.loc 1 47 0
 659 0020 0120     		movs	r0, #1
ARM GAS  C:\Users\AFDHAL~1\AppData\Local\Temp\cc2WzABC.s 			page 22


 660 0022 FFF7FEFF 		bl	nRF24_set_mode
 661              	.LVL33:
  48:main.c        ****     nRF24_set_channel(120);    
 662              		.loc 1 48 0
 663 0026 FFF7FEFF 		bl	nRF24_set_rx_mode
 664              	.LVL34:
  49:main.c        ****     
 665              		.loc 1 49 0
 666 002a 7820     		movs	r0, #120
 667 002c FFF7FEFF 		bl	nRF24_set_channel
 668              	.LVL35:
  51:main.c        ****     {
 669              		.loc 1 51 0
 670 0030 4346     		mov	r3, r8
 671 0032 1B78     		ldrb	r3, [r3]
 672 0034 002B     		cmp	r3, #0
 673 0036 00D1     		bne	.LCB544
 674 0038 DAE0     		b	.L61	@long jump
 675              	.LCB544:
 676 003a 012B     		cmp	r3, #1
 677 003c 00D0     		beq	.LCB546
 678 003e CDE0     		b	.L60	@long jump
 679              	.LCB546:
  65:main.c        ****             nRF24_set_rx_pipe_0_address(A2B, 5);
 680              		.loc 1 65 0
 681 0040 724C     		ldr	r4, .L70+4
 682 0042 0521     		movs	r1, #5
 683 0044 2000     		movs	r0, r4
 684 0046 1030     		adds	r0, r0, #16
 685 0048 FFF7FEFF 		bl	nRF24_set_tx_address
 686              	.LVL36:
  66:main.c        ****             break;
 687              		.loc 1 66 0
 688 004c 0521     		movs	r1, #5
 689 004e 2000     		movs	r0, r4
 690 0050 FFF7FEFF 		bl	nRF24_set_rx_pipe_0_address
 691              	.LVL37:
 692              	.L63:
  80:main.c        ****     
 693              		.loc 1 80 0
 694 0054 FFF7FEFF 		bl	nRF24_start_listening
 695              	.LVL38:
  85:main.c        ****     
 696              		.loc 1 85 0
 697 0058 FFF7FEFF 		bl	USB_UART_Start
 698              	.LVL39:
  88:main.c        ****     ADC_StartConvert();
 699              		.loc 1 88 0
 700 005c FFF7FEFF 		bl	ADC_Start
 701              	.LVL40:
  89:main.c        ****     
 702              		.loc 1 89 0
 703 0060 FFF7FEFF 		bl	ADC_StartConvert
 704              	.LVL41:
  92:main.c        ****            
 705              		.loc 1 92 0
 706 0064 FFF7FEFF 		bl	Millis_Start
ARM GAS  C:\Users\AFDHAL~1\AppData\Local\Temp\cc2WzABC.s 			page 23


 707              	.LVL42:
  94:main.c        ****     QuadDec_WriteCounter(0x8000); //reset measure cable distance (it resets to 32768)
 708              		.loc 1 94 0
 709 0068 FFF7FEFF 		bl	QuadDec_Start
 710              	.LVL43:
  95:main.c        ****         
 711              		.loc 1 95 0
 712 006c 8020     		movs	r0, #128
 713 006e 0002     		lsls	r0, r0, #8
 714 0070 FFF7FEFF 		bl	QuadDec_WriteCounter
 715              	.LVL44:
  97:main.c        ****     
 716              		.loc 1 97 0
 717 0074 FFF7FEFF 		bl	Motor_Start
 718              	.LVL45:
  99:main.c        ****     PID_Set_Setpoint(&setpoint); //set the address of setpoint variable
 719              		.loc 1 99 0
 720 0078 FFF7FEFF 		bl	PID_Init
 721              	.LVL46:
 100:main.c        ****     PID_Set_Input(&pid_fb); //set the address of feedback variable
 722              		.loc 1 100 0
 723 007c 644F     		ldr	r7, .L70+8
 724 007e 3800     		movs	r0, r7
 725 0080 FFF7FEFF 		bl	PID_Set_Setpoint
 726              	.LVL47:
 101:main.c        ****     PID_Set_Output(&motor_pwm); //set the address of output variable
 727              		.loc 1 101 0
 728 0084 634E     		ldr	r6, .L70+12
 729 0086 3000     		movs	r0, r6
 730 0088 FFF7FEFF 		bl	PID_Set_Input
 731              	.LVL48:
 102:main.c        ****     PID_Set_Output_Limits(-65536*.5, 65536*.5); //pwm resolution reduced to 15-bits due to acoustic
 732              		.loc 1 102 0
 733 008c 624D     		ldr	r5, .L70+16
 734 008e 2800     		movs	r0, r5
 735 0090 FFF7FEFF 		bl	PID_Set_Output
 736              	.LVL49:
 103:main.c        ****     
 737              		.loc 1 103 0
 738 0094 8E21     		movs	r1, #142
 739 0096 C720     		movs	r0, #199
 740 0098 C905     		lsls	r1, r1, #23
 741 009a 0006     		lsls	r0, r0, #24
 742 009c FFF7FEFF 		bl	PID_Set_Output_Limits
 743              	.LVL50:
 105:main.c        ****     PID_Tick_Timer_Start(); //start 12.5Hz PID timer 
 744              		.loc 1 105 0
 745 00a0 5E48     		ldr	r0, .L70+20
 746 00a2 FFF7FEFF 		bl	PID_ISR_StartEx
 747              	.LVL51:
 106:main.c        ****       
 748              		.loc 1 106 0
 749 00a6 FFF7FEFF 		bl	PID_Tick_Timer_Start
 750              	.LVL52:
 109:main.c        ****     
 751              		.loc 1 109 0
 752 00aa 0023     		movs	r3, #0
ARM GAS  C:\Users\AFDHAL~1\AppData\Local\Temp\cc2WzABC.s 			page 24


 753 00ac 5C4C     		ldr	r4, .L70+24
 112:main.c        ****     
 754              		.loc 1 112 0
 755 00ae 0120     		movs	r0, #1
 109:main.c        ****     
 756              		.loc 1 109 0
 757 00b0 E360     		str	r3, [r4, #12]
 112:main.c        ****     
 758              		.loc 1 112 0
 759 00b2 FFF7FEFF 		bl	CySysWdtEnable
 760              	.LVL53:
 119:main.c        ****                
 761              		.loc 1 119 0
 762 00b6 1920     		movs	r0, #25
 763 00b8 FFF7FEFF 		bl	CySysGetResetReason
 764              	.LVL54:
 765 00bc A061     		str	r0, [r4, #24]
 766 00be 0FE0     		b	.L66
 767              	.L65:
 177:main.c        ****             PID_Set_Gains(0.0, 0.0, 0.0);   
 768              		.loc 1 177 0
 769 00c0 0020     		movs	r0, #0
 770 00c2 FFF7FEFF 		bl	Motor_Bidirectional
 771              	.LVL55:
 178:main.c        ****             QuadDec_WriteCounter(0x8000); //reset measure cable distance (it resets to 32768)
 772              		.loc 1 178 0
 773 00c6 0022     		movs	r2, #0
 774 00c8 101C     		adds	r0, r2, #0
 775 00ca 111C     		adds	r1, r2, #0
 776 00cc FFF7FEFF 		bl	PID_Set_Gains
 777              	.LVL56:
 179:main.c        ****             CySoftwareReset();
 778              		.loc 1 179 0
 779 00d0 8020     		movs	r0, #128
 780 00d2 0002     		lsls	r0, r0, #8
 781 00d4 FFF7FEFF 		bl	QuadDec_WriteCounter
 782              	.LVL57:
 180:main.c        ****         }                
 783              		.loc 1 180 0
 784 00d8 FFF7FEFF 		bl	CySoftwareReset
 785              	.LVL58:
 786              	.L64:
 183:main.c        ****     }
 787              		.loc 1 183 0
 788 00dc FFF7FEFF 		bl	handle_rf
 789              	.LVL59:
 790              	.L66:
 125:main.c        ****         
 791              		.loc 1 125 0
 792 00e0 0020     		movs	r0, #0
 793 00e2 FFF7FEFF 		bl	CySysWatchdogFeed
 794              	.LVL60:
 128:main.c        ****         
 795              		.loc 1 128 0
 796 00e6 0D22     		movs	r2, #13
 797 00e8 2100     		movs	r1, r4
 798 00ea 0120     		movs	r0, #1
ARM GAS  C:\Users\AFDHAL~1\AppData\Local\Temp\cc2WzABC.s 			page 25


 799 00ec FFF7FEFF 		bl	modbusRTU_Update
 800              	.LVL61:
 131:main.c        ****         
 801              		.loc 1 131 0
 802 00f0 FFF7FEFF 		bl	QuadDec_ReadCounter
 803              	.LVL62:
 804 00f4 4B4B     		ldr	r3, .L70+28
 805 00f6 9C46     		mov	ip, r3
 806 00f8 6044     		add	r0, r0, ip
 807 00fa FFF7FEFF 		bl	__aeabi_i2f
 808              	.LVL63:
 809 00fe 3060     		str	r0, [r6]
 134:main.c        ****         
 810              		.loc 1 134 0
 811 0100 2868     		ldr	r0, [r5]
 812 0102 FFF7FEFF 		bl	__aeabi_f2iz
 813              	.LVL64:
 814 0106 FFF7FEFF 		bl	Motor_Bidirectional
 815              	.LVL65:
 137:main.c        ****                    
 816              		.loc 1 137 0
 817 010a 2868     		ldr	r0, [r5]
 818 010c FFF7FEFF 		bl	__aeabi_f2d
 819              	.LVL66:
 820 0110 0022     		movs	r2, #0
 821 0112 454B     		ldr	r3, .L70+32
 822 0114 FFF7FEFF 		bl	__aeabi_dmul
 823              	.LVL67:
 824 0118 444B     		ldr	r3, .L70+36
 825 011a 0022     		movs	r2, #0
 826 011c FFF7FEFF 		bl	__aeabi_dmul
 827              	.LVL68:
 828 0120 FFF7FEFF 		bl	__aeabi_d2iz
 829              	.LVL69:
 830 0124 6061     		str	r0, [r4, #20]
 140:main.c        ****         
 831              		.loc 1 140 0
 832 0126 3068     		ldr	r0, [r6]
 833 0128 FFF7FEFF 		bl	__aeabi_f2iz
 834              	.LVL70:
 835 012c 2061     		str	r0, [r4, #16]
 143:main.c        ****         
 836              		.loc 1 143 0
 837 012e 0C23     		movs	r3, #12
 838 0130 E05E     		ldrsh	r0, [r4, r3]
 839 0132 FFF7FEFF 		bl	__aeabi_i2f
 840              	.LVL71:
 841 0136 3860     		str	r0, [r7]
 146:main.c        ****         
 842              		.loc 1 146 0
 843 0138 A068     		ldr	r0, [r4, #8]
 844 013a FFF7FEFF 		bl	__aeabi_i2f
 845              	.LVL72:
 846 013e 8246     		mov	r10, r0
 847 0140 6068     		ldr	r0, [r4, #4]
 848 0142 FFF7FEFF 		bl	__aeabi_i2f
 849              	.LVL73:
ARM GAS  C:\Users\AFDHAL~1\AppData\Local\Temp\cc2WzABC.s 			page 26


 850 0146 8146     		mov	r9, r0
 851 0148 2068     		ldr	r0, [r4]
 852 014a FFF7FEFF 		bl	__aeabi_i2f
 853              	.LVL74:
 854 014e 5246     		mov	r2, r10
 855 0150 4946     		mov	r1, r9
 856 0152 FFF7FEFF 		bl	PID_Set_Gains
 857              	.LVL75:
 149:main.c        ****         modbus_holding_regs[CurrSense_B] = ADC_GetResult16(1);         
 858              		.loc 1 149 0
 859 0156 0020     		movs	r0, #0
 860 0158 FFF7FEFF 		bl	ADC_GetResult16
 861              	.LVL76:
 862 015c 2062     		str	r0, [r4, #32]
 150:main.c        ****         
 863              		.loc 1 150 0
 864 015e 0120     		movs	r0, #1
 865 0160 FFF7FEFF 		bl	ADC_GetResult16
 866              	.LVL77:
 153:main.c        ****         {     
 867              		.loc 1 153 0
 868 0164 E369     		ldr	r3, [r4, #28]
 150:main.c        ****         
 869              		.loc 1 150 0
 870 0166 6062     		str	r0, [r4, #36]
 153:main.c        ****         {     
 871              		.loc 1 153 0
 872 0168 002B     		cmp	r3, #0
 873 016a B7D0     		beq	.L64
 155:main.c        ****             {
 874              		.loc 1 155 0
 875 016c 4346     		mov	r3, r8
 876 016e 1B78     		ldrb	r3, [r3]
 877 0170 9A46     		mov	r10, r3
 878 0172 002B     		cmp	r3, #0
 879 0174 A4D1     		bne	.L65
 880              	.LBB6:
 158:main.c        ****                 
 881              		.loc 1 158 0
 882 0176 FFF7FEFF 		bl	nRF24_set_tx_mode
 883              	.LVL78:
 160:main.c        ****                 dataToSend[1] = modbus_holding_regs[Soft_Reset]>>8; //msb
 884              		.loc 1 160 0
 885 017a 4146     		mov	r1, r8
 886 017c 0722     		movs	r2, #7
 887 017e 3823     		movs	r3, #56
 888 0180 CA54     		strb	r2, [r1, r3]
 161:main.c        ****                 dataToSend[2] = modbus_holding_regs[Soft_Reset]&0xff; //lsb
 889              		.loc 1 161 0
 890 0182 3821     		movs	r1, #56
 891 0184 E369     		ldr	r3, [r4, #28]
 892 0186 4144     		add	r1, r1, r8
 893 0188 1A12     		asrs	r2, r3, #8
 894 018a 8946     		mov	r9, r1
 895 018c 4A70     		strb	r2, [r1, #1]
 163:main.c        ****                 
 896              		.loc 1 163 0
ARM GAS  C:\Users\AFDHAL~1\AppData\Local\Temp\cc2WzABC.s 			page 27


 897 018e 5246     		mov	r2, r10
 162:main.c        ****                 dataToSend[3] = 0;
 898              		.loc 1 162 0
 899 0190 8B70     		strb	r3, [r1, #2]
 163:main.c        ****                 
 900              		.loc 1 163 0
 901 0192 CA70     		strb	r2, [r1, #3]
 165:main.c        ****                 CyDelay(10);
 902              		.loc 1 165 0
 903 0194 4846     		mov	r0, r9
 904 0196 0421     		movs	r1, #4
 905 0198 FFF7FEFF 		bl	nRF24_transmit
 906              	.LVL79:
 166:main.c        ****                 nRF24_transmit(dataToSend, 4); 
 907              		.loc 1 166 0
 908 019c 0A20     		movs	r0, #10
 909 019e FFF7FEFF 		bl	CyDelay
 910              	.LVL80:
 167:main.c        ****                 CyDelay(10);
 911              		.loc 1 167 0
 912 01a2 0421     		movs	r1, #4
 913 01a4 4846     		mov	r0, r9
 914 01a6 FFF7FEFF 		bl	nRF24_transmit
 915              	.LVL81:
 168:main.c        ****                 nRF24_transmit(dataToSend, 4); 
 916              		.loc 1 168 0
 917 01aa 0A20     		movs	r0, #10
 918 01ac FFF7FEFF 		bl	CyDelay
 919              	.LVL82:
 169:main.c        ****                 CyDelay(10);
 920              		.loc 1 169 0
 921 01b0 0421     		movs	r1, #4
 922 01b2 4846     		mov	r0, r9
 923 01b4 FFF7FEFF 		bl	nRF24_transmit
 924              	.LVL83:
 170:main.c        ****                 nRF24_transmit(dataToSend, 4); 
 925              		.loc 1 170 0
 926 01b8 0A20     		movs	r0, #10
 927 01ba FFF7FEFF 		bl	CyDelay
 928              	.LVL84:
 171:main.c        ****                 CyDelay(10);
 929              		.loc 1 171 0
 930 01be 0421     		movs	r1, #4
 931 01c0 4846     		mov	r0, r9
 932 01c2 FFF7FEFF 		bl	nRF24_transmit
 933              	.LVL85:
 172:main.c        ****                 nRF24_transmit(dataToSend, 4); 
 934              		.loc 1 172 0
 935 01c6 0A20     		movs	r0, #10
 936 01c8 FFF7FEFF 		bl	CyDelay
 937              	.LVL86:
 173:main.c        ****                 CyDelay(10);
 938              		.loc 1 173 0
 939 01cc 4846     		mov	r0, r9
 940 01ce 0421     		movs	r1, #4
 941 01d0 FFF7FEFF 		bl	nRF24_transmit
 942              	.LVL87:
ARM GAS  C:\Users\AFDHAL~1\AppData\Local\Temp\cc2WzABC.s 			page 28


 174:main.c        ****             }
 943              		.loc 1 174 0
 944 01d4 0A20     		movs	r0, #10
 945 01d6 FFF7FEFF 		bl	CyDelay
 946              	.LVL88:
 947 01da 71E7     		b	.L65
 948              	.L60:
 949              	.LBE6:
  74:main.c        ****                 CyDelay(50);                
 950              		.loc 1 74 0 discriminator 1
 951 01dc FFF7FEFF 		bl	LED_Read
 952              	.LVL89:
 953 01e0 C043     		mvns	r0, r0
 954 01e2 C0B2     		uxtb	r0, r0
 955 01e4 FFF7FEFF 		bl	LED_Write
 956              	.LVL90:
  75:main.c        ****             }
 957              		.loc 1 75 0 discriminator 1
 958 01e8 3220     		movs	r0, #50
 959 01ea FFF7FEFF 		bl	CyDelay
 960              	.LVL91:
 961 01ee F5E7     		b	.L60
 962              	.L61:
  56:main.c        ****             nRF24_set_rx_pipe_0_address(M2A, 5);
 963              		.loc 1 56 0
 964 01f0 064C     		ldr	r4, .L70+4
 965 01f2 0521     		movs	r1, #5
 966 01f4 2000     		movs	r0, r4
 967 01f6 FFF7FEFF 		bl	nRF24_set_tx_address
 968              	.LVL92:
  57:main.c        ****             //nRF24_set_rx_pipe_1_address(B2A, 5);
 969              		.loc 1 57 0
 970 01fa 2000     		movs	r0, r4
 971 01fc 0521     		movs	r1, #5
 972 01fe 0830     		adds	r0, r0, #8
 973 0200 FFF7FEFF 		bl	nRF24_set_rx_pipe_0_address
 974              	.LVL93:
  59:main.c        ****         }
 975              		.loc 1 59 0
 976 0204 26E7     		b	.L63
 977              	.L71:
 978 0206 C046     		.align	2
 979              	.L70:
 980 0208 00000000 		.word	.LANCHOR0
 981 020c 4C000000 		.word	.LANCHOR1
 982 0210 00000000 		.word	setpoint
 983 0214 00000000 		.word	pid_fb
 984 0218 00000000 		.word	motor_pwm
 985 021c 00000000 		.word	PID_Tick
 986 0220 00000000 		.word	modbus_holding_regs
 987 0224 0080FFFF 		.word	-32768
 988 0228 0000F03E 		.word	1055916032
 989 022c 00005940 		.word	1079574528
 990              		.cfi_endproc
 991              	.LFE35:
 992              		.size	main, .-main
 993              		.global	B2A
ARM GAS  C:\Users\AFDHAL~1\AppData\Local\Temp\cc2WzABC.s 			page 29


 994              		.global	A2B
 995              		.global	M2A
 996              		.global	A2M
 997              		.global	station_id
 998              		.comm	pid_fb,4,4
 999              		.comm	setpoint,4,4
 1000              		.comm	motor_pwm,4,4
 1001              		.comm	nRF24_Adapter_Flags,1,1
 1002              		.comm	modbus_holding_regs,52,4
 1003              		.comm	modbusRTU_written_register_flags,4,4
 1004              		.comm	modbusRTU_Written,1,1
 1005              		.section	.rodata
 1006              		.align	2
 1007              		.set	.LANCHOR1,. + 0
 1008              		.type	A2B, %object
 1009              		.size	A2B, 5
 1010              	A2B:
 1011 004c 3A       		.byte	58
 1012 004d 29       		.byte	41
 1013 004e 41       		.byte	65
 1014 004f 32       		.byte	50
 1015 0050 42       		.byte	66
 1016 0051 000000   		.space	3
 1017              		.type	M2A, %object
 1018              		.size	M2A, 5
 1019              	M2A:
 1020 0054 3A       		.byte	58
 1021 0055 29       		.byte	41
 1022 0056 4D       		.byte	77
 1023 0057 32       		.byte	50
 1024 0058 41       		.byte	65
 1025 0059 000000   		.space	3
 1026              		.type	B2A, %object
 1027              		.size	B2A, 5
 1028              	B2A:
 1029 005c 3A       		.byte	58
 1030 005d 29       		.byte	41
 1031 005e 42       		.byte	66
 1032 005f 32       		.byte	50
 1033 0060 41       		.byte	65
 1034 0061 000000   		.space	3
 1035              		.type	A2M, %object
 1036              		.size	A2M, 5
 1037              	A2M:
 1038 0064 3A       		.byte	58
 1039 0065 29       		.byte	41
 1040 0066 41       		.byte	65
 1041 0067 32       		.byte	50
 1042 0068 4D       		.byte	77
 1043              		.bss
 1044              		.align	2
 1045              		.set	.LANCHOR0,. + 0
 1046              		.type	station_id, %object
 1047              		.size	station_id, 1
 1048              	station_id:
 1049 0000 00       		.space	1
 1050 0001 000000   		.space	3
ARM GAS  C:\Users\AFDHAL~1\AppData\Local\Temp\cc2WzABC.s 			page 30


 1051              		.type	dataToSend.7766, %object
 1052              		.size	dataToSend.7766, 16
 1053              	dataToSend.7766:
 1054 0004 00000000 		.space	16
 1054      00000000 
 1054      00000000 
 1054      00000000 
 1055              		.type	rcv0.7764, %object
 1056              		.size	rcv0.7764, 16
 1057              	rcv0.7764:
 1058 0014 00000000 		.space	16
 1058      00000000 
 1058      00000000 
 1058      00000000 
 1059              		.type	updated_input.7767, %object
 1060              		.size	updated_input.7767, 1
 1061              	updated_input.7767:
 1062 0024 00       		.space	1
 1063 0025 000000   		.space	3
 1064              		.type	rcv1.7765, %object
 1065              		.size	rcv1.7765, 16
 1066              	rcv1.7765:
 1067 0028 00000000 		.space	16
 1067      00000000 
 1067      00000000 
 1067      00000000 
 1068              		.type	dataToSend.7760, %object
 1069              		.size	dataToSend.7760, 4
 1070              	dataToSend.7760:
 1071 0038 00000000 		.space	4
 1072              		.text
 1073              	.Letext0:
 1074              		.file 2 "c:\\program files (x86)\\cypress\\psoc creator\\4.1\\psoc creator\\import\\gnu\\arm\\5.4.
 1075              		.file 3 "c:\\program files (x86)\\cypress\\psoc creator\\4.1\\psoc creator\\import\\gnu\\arm\\5.4.
 1076              		.file 4 "Generated_Source\\PSoC4/cytypes.h"
 1077              		.file 5 "Generated_Source\\PSoC4/nRF24_REGS.h"
 1078              		.file 6 "modbus_regs.h"
 1079              		.file 7 "modbusRTU.h"
 1080              		.file 8 "Generated_Source\\PSoC4/LED.h"
 1081              		.file 9 "Generated_Source\\PSoC4/nRF24_FUNCS.h"
 1082              		.file 10 "Generated_Source\\PSoC4/CyLib.h"
 1083              		.file 11 "Generated_Source\\PSoC4/ID.h"
 1084              		.file 12 "nRF24_Adapter.h"
 1085              		.file 13 "Generated_Source\\PSoC4/USB_UART.h"
 1086              		.file 14 "Generated_Source\\PSoC4/ADC.h"
 1087              		.file 15 "millis.h"
 1088              		.file 16 "Generated_Source\\PSoC4/QuadDec.h"
 1089              		.file 17 "motor.h"
 1090              		.file 18 "pid.h"
 1091              		.file 19 "Generated_Source\\PSoC4/PID_ISR.h"
 1092              		.file 20 "Generated_Source\\PSoC4/PID_Tick_Timer.h"
 1093              		.file 21 "Generated_Source\\PSoC4/CyLFClk.h"