ARM GAS  C:\Users\AFDHAL~1\AppData\Local\Temp\ccq9fedl.s 			page 1


   1              		.syntax unified
   2              		.cpu cortex-m0
   3              		.fpu softvfp
   4              		.eabi_attribute 20, 1
   5              		.eabi_attribute 21, 1
   6              		.eabi_attribute 23, 3
   7              		.eabi_attribute 24, 1
   8              		.eabi_attribute 25, 1
   9              		.eabi_attribute 26, 1
  10              		.eabi_attribute 30, 2
  11              		.eabi_attribute 34, 0
  12              		.eabi_attribute 18, 4
  13              		.thumb
  14              		.syntax unified
  15              		.file	"Millis_ISR.c"
  16              		.text
  17              	.Ltext0:
  18              		.cfi_sections	.debug_frame
  19              		.section	.text.Millis_ISR_Interrupt,"ax",%progbits
  20              		.align	2
  21              		.global	Millis_ISR_Interrupt
  22              		.code	16
  23              		.thumb_func
  24              		.type	Millis_ISR_Interrupt, %function
  25              	Millis_ISR_Interrupt:
  26              	.LFB4:
  27              		.file 1 "Generated_Source\\PSoC4\\Millis_ISR.c"
   1:Generated_Source\PSoC4/Millis_ISR.c **** /*******************************************************************************
   2:Generated_Source\PSoC4/Millis_ISR.c **** * File Name: Millis_ISR.c  
   3:Generated_Source\PSoC4/Millis_ISR.c **** * Version 1.70
   4:Generated_Source\PSoC4/Millis_ISR.c **** *
   5:Generated_Source\PSoC4/Millis_ISR.c **** *  Description:
   6:Generated_Source\PSoC4/Millis_ISR.c **** *   API for controlling the state of an interrupt.
   7:Generated_Source\PSoC4/Millis_ISR.c **** *
   8:Generated_Source\PSoC4/Millis_ISR.c **** *
   9:Generated_Source\PSoC4/Millis_ISR.c **** *  Note:
  10:Generated_Source\PSoC4/Millis_ISR.c **** *
  11:Generated_Source\PSoC4/Millis_ISR.c **** ********************************************************************************
  12:Generated_Source\PSoC4/Millis_ISR.c **** * Copyright 2008-2015, Cypress Semiconductor Corporation.  All rights reserved.
  13:Generated_Source\PSoC4/Millis_ISR.c **** * You may use this file only in accordance with the license, terms, conditions, 
  14:Generated_Source\PSoC4/Millis_ISR.c **** * disclaimers, and limitations in the end user license agreement accompanying 
  15:Generated_Source\PSoC4/Millis_ISR.c **** * the software package with which this file was provided.
  16:Generated_Source\PSoC4/Millis_ISR.c **** *******************************************************************************/
  17:Generated_Source\PSoC4/Millis_ISR.c **** 
  18:Generated_Source\PSoC4/Millis_ISR.c **** 
  19:Generated_Source\PSoC4/Millis_ISR.c **** #include <cydevice_trm.h>
  20:Generated_Source\PSoC4/Millis_ISR.c **** #include <CyLib.h>
  21:Generated_Source\PSoC4/Millis_ISR.c **** #include <Millis_ISR.h>
  22:Generated_Source\PSoC4/Millis_ISR.c **** #include "cyapicallbacks.h"
  23:Generated_Source\PSoC4/Millis_ISR.c **** 
  24:Generated_Source\PSoC4/Millis_ISR.c **** #if !defined(Millis_ISR__REMOVED) /* Check for removal by optimization */
  25:Generated_Source\PSoC4/Millis_ISR.c **** 
  26:Generated_Source\PSoC4/Millis_ISR.c **** /*******************************************************************************
  27:Generated_Source\PSoC4/Millis_ISR.c **** *  Place your includes, defines and code here 
  28:Generated_Source\PSoC4/Millis_ISR.c **** ********************************************************************************/
  29:Generated_Source\PSoC4/Millis_ISR.c **** /* `#START Millis_ISR_intc` */
  30:Generated_Source\PSoC4/Millis_ISR.c **** 
ARM GAS  C:\Users\AFDHAL~1\AppData\Local\Temp\ccq9fedl.s 			page 2


  31:Generated_Source\PSoC4/Millis_ISR.c **** /* `#END` */
  32:Generated_Source\PSoC4/Millis_ISR.c **** 
  33:Generated_Source\PSoC4/Millis_ISR.c **** extern cyisraddress CyRamVectors[CYINT_IRQ_BASE + CY_NUM_INTERRUPTS];
  34:Generated_Source\PSoC4/Millis_ISR.c **** 
  35:Generated_Source\PSoC4/Millis_ISR.c **** /* Declared in startup, used to set unused interrupts to. */
  36:Generated_Source\PSoC4/Millis_ISR.c **** CY_ISR_PROTO(IntDefaultHandler);
  37:Generated_Source\PSoC4/Millis_ISR.c **** 
  38:Generated_Source\PSoC4/Millis_ISR.c **** 
  39:Generated_Source\PSoC4/Millis_ISR.c **** /*******************************************************************************
  40:Generated_Source\PSoC4/Millis_ISR.c **** * Function Name: Millis_ISR_Start
  41:Generated_Source\PSoC4/Millis_ISR.c **** ********************************************************************************
  42:Generated_Source\PSoC4/Millis_ISR.c **** *
  43:Generated_Source\PSoC4/Millis_ISR.c **** * Summary:
  44:Generated_Source\PSoC4/Millis_ISR.c **** *  Set up the interrupt and enable it. This function disables the interrupt, 
  45:Generated_Source\PSoC4/Millis_ISR.c **** *  sets the default interrupt vector, sets the priority from the value in the
  46:Generated_Source\PSoC4/Millis_ISR.c **** *  Design Wide Resources Interrupt Editor, then enables the interrupt to the 
  47:Generated_Source\PSoC4/Millis_ISR.c **** *  interrupt controller.
  48:Generated_Source\PSoC4/Millis_ISR.c **** *
  49:Generated_Source\PSoC4/Millis_ISR.c **** * Parameters:  
  50:Generated_Source\PSoC4/Millis_ISR.c **** *   None
  51:Generated_Source\PSoC4/Millis_ISR.c **** *
  52:Generated_Source\PSoC4/Millis_ISR.c **** * Return:
  53:Generated_Source\PSoC4/Millis_ISR.c **** *   None
  54:Generated_Source\PSoC4/Millis_ISR.c **** *
  55:Generated_Source\PSoC4/Millis_ISR.c **** *******************************************************************************/
  56:Generated_Source\PSoC4/Millis_ISR.c **** void Millis_ISR_Start(void)
  57:Generated_Source\PSoC4/Millis_ISR.c **** {
  58:Generated_Source\PSoC4/Millis_ISR.c ****     /* For all we know the interrupt is active. */
  59:Generated_Source\PSoC4/Millis_ISR.c ****     Millis_ISR_Disable();
  60:Generated_Source\PSoC4/Millis_ISR.c **** 
  61:Generated_Source\PSoC4/Millis_ISR.c ****     /* Set the ISR to point to the Millis_ISR Interrupt. */
  62:Generated_Source\PSoC4/Millis_ISR.c ****     Millis_ISR_SetVector(&Millis_ISR_Interrupt);
  63:Generated_Source\PSoC4/Millis_ISR.c **** 
  64:Generated_Source\PSoC4/Millis_ISR.c ****     /* Set the priority. */
  65:Generated_Source\PSoC4/Millis_ISR.c ****     Millis_ISR_SetPriority((uint8)Millis_ISR_INTC_PRIOR_NUMBER);
  66:Generated_Source\PSoC4/Millis_ISR.c **** 
  67:Generated_Source\PSoC4/Millis_ISR.c ****     /* Enable it. */
  68:Generated_Source\PSoC4/Millis_ISR.c ****     Millis_ISR_Enable();
  69:Generated_Source\PSoC4/Millis_ISR.c **** }
  70:Generated_Source\PSoC4/Millis_ISR.c **** 
  71:Generated_Source\PSoC4/Millis_ISR.c **** 
  72:Generated_Source\PSoC4/Millis_ISR.c **** /*******************************************************************************
  73:Generated_Source\PSoC4/Millis_ISR.c **** * Function Name: Millis_ISR_StartEx
  74:Generated_Source\PSoC4/Millis_ISR.c **** ********************************************************************************
  75:Generated_Source\PSoC4/Millis_ISR.c **** *
  76:Generated_Source\PSoC4/Millis_ISR.c **** * Summary:
  77:Generated_Source\PSoC4/Millis_ISR.c **** *  Sets up the interrupt and enables it. This function disables the interrupt,
  78:Generated_Source\PSoC4/Millis_ISR.c **** *  sets the interrupt vector based on the address passed in, sets the priority 
  79:Generated_Source\PSoC4/Millis_ISR.c **** *  from the value in the Design Wide Resources Interrupt Editor, then enables 
  80:Generated_Source\PSoC4/Millis_ISR.c **** *  the interrupt to the interrupt controller.
  81:Generated_Source\PSoC4/Millis_ISR.c **** *  
  82:Generated_Source\PSoC4/Millis_ISR.c **** *  When defining ISR functions, the CY_ISR and CY_ISR_PROTO macros should be 
  83:Generated_Source\PSoC4/Millis_ISR.c **** *  used to provide consistent definition across compilers:
  84:Generated_Source\PSoC4/Millis_ISR.c **** *  
  85:Generated_Source\PSoC4/Millis_ISR.c **** *  Function definition example:
  86:Generated_Source\PSoC4/Millis_ISR.c **** *   CY_ISR(MyISR)
  87:Generated_Source\PSoC4/Millis_ISR.c **** *   {
ARM GAS  C:\Users\AFDHAL~1\AppData\Local\Temp\ccq9fedl.s 			page 3


  88:Generated_Source\PSoC4/Millis_ISR.c **** *   }
  89:Generated_Source\PSoC4/Millis_ISR.c **** *   Function prototype example:
  90:Generated_Source\PSoC4/Millis_ISR.c **** *   CY_ISR_PROTO(MyISR);
  91:Generated_Source\PSoC4/Millis_ISR.c **** *
  92:Generated_Source\PSoC4/Millis_ISR.c **** * Parameters:  
  93:Generated_Source\PSoC4/Millis_ISR.c **** *   address: Address of the ISR to set in the interrupt vector table.
  94:Generated_Source\PSoC4/Millis_ISR.c **** *
  95:Generated_Source\PSoC4/Millis_ISR.c **** * Return:
  96:Generated_Source\PSoC4/Millis_ISR.c **** *   None
  97:Generated_Source\PSoC4/Millis_ISR.c **** *
  98:Generated_Source\PSoC4/Millis_ISR.c **** *******************************************************************************/
  99:Generated_Source\PSoC4/Millis_ISR.c **** void Millis_ISR_StartEx(cyisraddress address)
 100:Generated_Source\PSoC4/Millis_ISR.c **** {
 101:Generated_Source\PSoC4/Millis_ISR.c ****     /* For all we know the interrupt is active. */
 102:Generated_Source\PSoC4/Millis_ISR.c ****     Millis_ISR_Disable();
 103:Generated_Source\PSoC4/Millis_ISR.c **** 
 104:Generated_Source\PSoC4/Millis_ISR.c ****     /* Set the ISR to point to the Millis_ISR Interrupt. */
 105:Generated_Source\PSoC4/Millis_ISR.c ****     Millis_ISR_SetVector(address);
 106:Generated_Source\PSoC4/Millis_ISR.c **** 
 107:Generated_Source\PSoC4/Millis_ISR.c ****     /* Set the priority. */
 108:Generated_Source\PSoC4/Millis_ISR.c ****     Millis_ISR_SetPriority((uint8)Millis_ISR_INTC_PRIOR_NUMBER);
 109:Generated_Source\PSoC4/Millis_ISR.c **** 
 110:Generated_Source\PSoC4/Millis_ISR.c ****     /* Enable it. */
 111:Generated_Source\PSoC4/Millis_ISR.c ****     Millis_ISR_Enable();
 112:Generated_Source\PSoC4/Millis_ISR.c **** }
 113:Generated_Source\PSoC4/Millis_ISR.c **** 
 114:Generated_Source\PSoC4/Millis_ISR.c **** 
 115:Generated_Source\PSoC4/Millis_ISR.c **** /*******************************************************************************
 116:Generated_Source\PSoC4/Millis_ISR.c **** * Function Name: Millis_ISR_Stop
 117:Generated_Source\PSoC4/Millis_ISR.c **** ********************************************************************************
 118:Generated_Source\PSoC4/Millis_ISR.c **** *
 119:Generated_Source\PSoC4/Millis_ISR.c **** * Summary:
 120:Generated_Source\PSoC4/Millis_ISR.c **** *   Disables and removes the interrupt.
 121:Generated_Source\PSoC4/Millis_ISR.c **** *
 122:Generated_Source\PSoC4/Millis_ISR.c **** * Parameters:  
 123:Generated_Source\PSoC4/Millis_ISR.c **** *   None
 124:Generated_Source\PSoC4/Millis_ISR.c **** *
 125:Generated_Source\PSoC4/Millis_ISR.c **** * Return:
 126:Generated_Source\PSoC4/Millis_ISR.c **** *   None
 127:Generated_Source\PSoC4/Millis_ISR.c **** *
 128:Generated_Source\PSoC4/Millis_ISR.c **** *******************************************************************************/
 129:Generated_Source\PSoC4/Millis_ISR.c **** void Millis_ISR_Stop(void)
 130:Generated_Source\PSoC4/Millis_ISR.c **** {
 131:Generated_Source\PSoC4/Millis_ISR.c ****     /* Disable this interrupt. */
 132:Generated_Source\PSoC4/Millis_ISR.c ****     Millis_ISR_Disable();
 133:Generated_Source\PSoC4/Millis_ISR.c **** 
 134:Generated_Source\PSoC4/Millis_ISR.c ****     /* Set the ISR to point to the passive one. */
 135:Generated_Source\PSoC4/Millis_ISR.c ****     Millis_ISR_SetVector(&IntDefaultHandler);
 136:Generated_Source\PSoC4/Millis_ISR.c **** }
 137:Generated_Source\PSoC4/Millis_ISR.c **** 
 138:Generated_Source\PSoC4/Millis_ISR.c **** 
 139:Generated_Source\PSoC4/Millis_ISR.c **** /*******************************************************************************
 140:Generated_Source\PSoC4/Millis_ISR.c **** * Function Name: Millis_ISR_Interrupt
 141:Generated_Source\PSoC4/Millis_ISR.c **** ********************************************************************************
 142:Generated_Source\PSoC4/Millis_ISR.c **** *
 143:Generated_Source\PSoC4/Millis_ISR.c **** * Summary:
 144:Generated_Source\PSoC4/Millis_ISR.c **** *   The default Interrupt Service Routine for Millis_ISR.
ARM GAS  C:\Users\AFDHAL~1\AppData\Local\Temp\ccq9fedl.s 			page 4


 145:Generated_Source\PSoC4/Millis_ISR.c **** *
 146:Generated_Source\PSoC4/Millis_ISR.c **** *   Add custom code between the START and END comments to keep the next version
 147:Generated_Source\PSoC4/Millis_ISR.c **** *   of this file from over-writing your code.
 148:Generated_Source\PSoC4/Millis_ISR.c **** *
 149:Generated_Source\PSoC4/Millis_ISR.c **** *   Note You may use either the default ISR by using this API, or you may define
 150:Generated_Source\PSoC4/Millis_ISR.c **** *   your own separate ISR through ISR_StartEx().
 151:Generated_Source\PSoC4/Millis_ISR.c **** *
 152:Generated_Source\PSoC4/Millis_ISR.c **** * Parameters:  
 153:Generated_Source\PSoC4/Millis_ISR.c **** *   None
 154:Generated_Source\PSoC4/Millis_ISR.c **** *
 155:Generated_Source\PSoC4/Millis_ISR.c **** * Return:
 156:Generated_Source\PSoC4/Millis_ISR.c **** *   None
 157:Generated_Source\PSoC4/Millis_ISR.c **** *
 158:Generated_Source\PSoC4/Millis_ISR.c **** *******************************************************************************/
 159:Generated_Source\PSoC4/Millis_ISR.c **** CY_ISR(Millis_ISR_Interrupt)
 160:Generated_Source\PSoC4/Millis_ISR.c **** {
  28              		.loc 1 160 0
  29              		.cfi_startproc
  30              		@ args = 0, pretend = 0, frame = 0
  31              		@ frame_needed = 0, uses_anonymous_args = 0
  32              		@ link register save eliminated.
 161:Generated_Source\PSoC4/Millis_ISR.c ****     #ifdef Millis_ISR_INTERRUPT_INTERRUPT_CALLBACK
 162:Generated_Source\PSoC4/Millis_ISR.c ****         Millis_ISR_Interrupt_InterruptCallback();
 163:Generated_Source\PSoC4/Millis_ISR.c ****     #endif /* Millis_ISR_INTERRUPT_INTERRUPT_CALLBACK */ 
 164:Generated_Source\PSoC4/Millis_ISR.c **** 
 165:Generated_Source\PSoC4/Millis_ISR.c ****     /*  Place your Interrupt code here. */
 166:Generated_Source\PSoC4/Millis_ISR.c ****     /* `#START Millis_ISR_Interrupt` */
 167:Generated_Source\PSoC4/Millis_ISR.c **** 
 168:Generated_Source\PSoC4/Millis_ISR.c ****     /* `#END` */
 169:Generated_Source\PSoC4/Millis_ISR.c **** }
  33              		.loc 1 169 0
  34              		@ sp needed
  35 0000 7047     		bx	lr
  36              		.cfi_endproc
  37              	.LFE4:
  38              		.size	Millis_ISR_Interrupt, .-Millis_ISR_Interrupt
  39 0002 C046     		.section	.text.Millis_ISR_Start,"ax",%progbits
  40              		.align	2
  41              		.global	Millis_ISR_Start
  42              		.code	16
  43              		.thumb_func
  44              		.type	Millis_ISR_Start, %function
  45              	Millis_ISR_Start:
  46              	.LFB1:
  57:Generated_Source\PSoC4/Millis_ISR.c ****     /* For all we know the interrupt is active. */
  47              		.loc 1 57 0
  48              		.cfi_startproc
  49              		@ args = 0, pretend = 0, frame = 0
  50              		@ frame_needed = 0, uses_anonymous_args = 0
  51 0000 10B5     		push	{r4, lr}
  52              		.cfi_def_cfa_offset 8
  53              		.cfi_offset 4, -8
  54              		.cfi_offset 14, -4
  55              	.LBB26:
  56              	.LBB27:
 170:Generated_Source\PSoC4/Millis_ISR.c **** 
 171:Generated_Source\PSoC4/Millis_ISR.c **** 
ARM GAS  C:\Users\AFDHAL~1\AppData\Local\Temp\ccq9fedl.s 			page 5


 172:Generated_Source\PSoC4/Millis_ISR.c **** /*******************************************************************************
 173:Generated_Source\PSoC4/Millis_ISR.c **** * Function Name: Millis_ISR_SetVector
 174:Generated_Source\PSoC4/Millis_ISR.c **** ********************************************************************************
 175:Generated_Source\PSoC4/Millis_ISR.c **** *
 176:Generated_Source\PSoC4/Millis_ISR.c **** * Summary:
 177:Generated_Source\PSoC4/Millis_ISR.c **** *   Change the ISR vector for the Interrupt. Note calling Millis_ISR_Start
 178:Generated_Source\PSoC4/Millis_ISR.c **** *   will override any effect this method would have had. To set the vector 
 179:Generated_Source\PSoC4/Millis_ISR.c **** *   before the component has been started use Millis_ISR_StartEx instead.
 180:Generated_Source\PSoC4/Millis_ISR.c **** * 
 181:Generated_Source\PSoC4/Millis_ISR.c **** *   When defining ISR functions, the CY_ISR and CY_ISR_PROTO macros should be 
 182:Generated_Source\PSoC4/Millis_ISR.c **** *   used to provide consistent definition across compilers:
 183:Generated_Source\PSoC4/Millis_ISR.c **** *
 184:Generated_Source\PSoC4/Millis_ISR.c **** *   Function definition example:
 185:Generated_Source\PSoC4/Millis_ISR.c **** *   CY_ISR(MyISR)
 186:Generated_Source\PSoC4/Millis_ISR.c **** *   {
 187:Generated_Source\PSoC4/Millis_ISR.c **** *   }
 188:Generated_Source\PSoC4/Millis_ISR.c **** *
 189:Generated_Source\PSoC4/Millis_ISR.c **** *   Function prototype example:
 190:Generated_Source\PSoC4/Millis_ISR.c **** *     CY_ISR_PROTO(MyISR);
 191:Generated_Source\PSoC4/Millis_ISR.c **** *
 192:Generated_Source\PSoC4/Millis_ISR.c **** * Parameters:
 193:Generated_Source\PSoC4/Millis_ISR.c **** *   address: Address of the ISR to set in the interrupt vector table.
 194:Generated_Source\PSoC4/Millis_ISR.c **** *
 195:Generated_Source\PSoC4/Millis_ISR.c **** * Return:
 196:Generated_Source\PSoC4/Millis_ISR.c **** *   None
 197:Generated_Source\PSoC4/Millis_ISR.c **** *
 198:Generated_Source\PSoC4/Millis_ISR.c **** *******************************************************************************/
 199:Generated_Source\PSoC4/Millis_ISR.c **** void Millis_ISR_SetVector(cyisraddress address)
 200:Generated_Source\PSoC4/Millis_ISR.c **** {
 201:Generated_Source\PSoC4/Millis_ISR.c ****     CyRamVectors[CYINT_IRQ_BASE + Millis_ISR__INTC_NUMBER] = address;
 202:Generated_Source\PSoC4/Millis_ISR.c **** }
 203:Generated_Source\PSoC4/Millis_ISR.c **** 
 204:Generated_Source\PSoC4/Millis_ISR.c **** 
 205:Generated_Source\PSoC4/Millis_ISR.c **** /*******************************************************************************
 206:Generated_Source\PSoC4/Millis_ISR.c **** * Function Name: Millis_ISR_GetVector
 207:Generated_Source\PSoC4/Millis_ISR.c **** ********************************************************************************
 208:Generated_Source\PSoC4/Millis_ISR.c **** *
 209:Generated_Source\PSoC4/Millis_ISR.c **** * Summary:
 210:Generated_Source\PSoC4/Millis_ISR.c **** *   Gets the "address" of the current ISR vector for the Interrupt.
 211:Generated_Source\PSoC4/Millis_ISR.c **** *
 212:Generated_Source\PSoC4/Millis_ISR.c **** * Parameters:
 213:Generated_Source\PSoC4/Millis_ISR.c **** *   None
 214:Generated_Source\PSoC4/Millis_ISR.c **** *
 215:Generated_Source\PSoC4/Millis_ISR.c **** * Return:
 216:Generated_Source\PSoC4/Millis_ISR.c **** *   Address of the ISR in the interrupt vector table.
 217:Generated_Source\PSoC4/Millis_ISR.c **** *
 218:Generated_Source\PSoC4/Millis_ISR.c **** *******************************************************************************/
 219:Generated_Source\PSoC4/Millis_ISR.c **** cyisraddress Millis_ISR_GetVector(void)
 220:Generated_Source\PSoC4/Millis_ISR.c **** {
 221:Generated_Source\PSoC4/Millis_ISR.c ****     return CyRamVectors[CYINT_IRQ_BASE + Millis_ISR__INTC_NUMBER];
 222:Generated_Source\PSoC4/Millis_ISR.c **** }
 223:Generated_Source\PSoC4/Millis_ISR.c **** 
 224:Generated_Source\PSoC4/Millis_ISR.c **** 
 225:Generated_Source\PSoC4/Millis_ISR.c **** /*******************************************************************************
 226:Generated_Source\PSoC4/Millis_ISR.c **** * Function Name: Millis_ISR_SetPriority
 227:Generated_Source\PSoC4/Millis_ISR.c **** ********************************************************************************
 228:Generated_Source\PSoC4/Millis_ISR.c **** *
ARM GAS  C:\Users\AFDHAL~1\AppData\Local\Temp\ccq9fedl.s 			page 6


 229:Generated_Source\PSoC4/Millis_ISR.c **** * Summary:
 230:Generated_Source\PSoC4/Millis_ISR.c **** *   Sets the Priority of the Interrupt. 
 231:Generated_Source\PSoC4/Millis_ISR.c **** *
 232:Generated_Source\PSoC4/Millis_ISR.c **** *   Note calling Millis_ISR_Start or Millis_ISR_StartEx will 
 233:Generated_Source\PSoC4/Millis_ISR.c **** *   override any effect this API would have had. This API should only be called
 234:Generated_Source\PSoC4/Millis_ISR.c **** *   after Millis_ISR_Start or Millis_ISR_StartEx has been called. 
 235:Generated_Source\PSoC4/Millis_ISR.c **** *   To set the initial priority for the component, use the Design-Wide Resources
 236:Generated_Source\PSoC4/Millis_ISR.c **** *   Interrupt Editor.
 237:Generated_Source\PSoC4/Millis_ISR.c **** *
 238:Generated_Source\PSoC4/Millis_ISR.c **** *   Note This API has no effect on Non-maskable interrupt NMI).
 239:Generated_Source\PSoC4/Millis_ISR.c **** *
 240:Generated_Source\PSoC4/Millis_ISR.c **** * Parameters:
 241:Generated_Source\PSoC4/Millis_ISR.c **** *   priority: Priority of the interrupt, 0 being the highest priority
 242:Generated_Source\PSoC4/Millis_ISR.c **** *             PSoC 3 and PSoC 5LP: Priority is from 0 to 7.
 243:Generated_Source\PSoC4/Millis_ISR.c **** *             PSoC 4: Priority is from 0 to 3.
 244:Generated_Source\PSoC4/Millis_ISR.c **** *
 245:Generated_Source\PSoC4/Millis_ISR.c **** * Return:
 246:Generated_Source\PSoC4/Millis_ISR.c **** *   None
 247:Generated_Source\PSoC4/Millis_ISR.c **** *
 248:Generated_Source\PSoC4/Millis_ISR.c **** *******************************************************************************/
 249:Generated_Source\PSoC4/Millis_ISR.c **** void Millis_ISR_SetPriority(uint8 priority)
 250:Generated_Source\PSoC4/Millis_ISR.c **** {
 251:Generated_Source\PSoC4/Millis_ISR.c **** 	uint8 interruptState;
 252:Generated_Source\PSoC4/Millis_ISR.c ****     uint32 priorityOffset = ((Millis_ISR__INTC_NUMBER % 4u) * 8u) + 6u;
 253:Generated_Source\PSoC4/Millis_ISR.c ****     
 254:Generated_Source\PSoC4/Millis_ISR.c **** 	interruptState = CyEnterCriticalSection();
 255:Generated_Source\PSoC4/Millis_ISR.c ****     *Millis_ISR_INTC_PRIOR = (*Millis_ISR_INTC_PRIOR & (uint32)(~Millis_ISR__INTC_PRIOR_MASK)) |
 256:Generated_Source\PSoC4/Millis_ISR.c ****                                     ((uint32)priority << priorityOffset);
 257:Generated_Source\PSoC4/Millis_ISR.c **** 	CyExitCriticalSection(interruptState);
 258:Generated_Source\PSoC4/Millis_ISR.c **** }
 259:Generated_Source\PSoC4/Millis_ISR.c **** 
 260:Generated_Source\PSoC4/Millis_ISR.c **** 
 261:Generated_Source\PSoC4/Millis_ISR.c **** /*******************************************************************************
 262:Generated_Source\PSoC4/Millis_ISR.c **** * Function Name: Millis_ISR_GetPriority
 263:Generated_Source\PSoC4/Millis_ISR.c **** ********************************************************************************
 264:Generated_Source\PSoC4/Millis_ISR.c **** *
 265:Generated_Source\PSoC4/Millis_ISR.c **** * Summary:
 266:Generated_Source\PSoC4/Millis_ISR.c **** *   Gets the Priority of the Interrupt.
 267:Generated_Source\PSoC4/Millis_ISR.c **** *
 268:Generated_Source\PSoC4/Millis_ISR.c **** * Parameters:
 269:Generated_Source\PSoC4/Millis_ISR.c **** *   None
 270:Generated_Source\PSoC4/Millis_ISR.c **** *
 271:Generated_Source\PSoC4/Millis_ISR.c **** * Return:
 272:Generated_Source\PSoC4/Millis_ISR.c **** *   Priority of the interrupt, 0 being the highest priority
 273:Generated_Source\PSoC4/Millis_ISR.c **** *    PSoC 3 and PSoC 5LP: Priority is from 0 to 7.
 274:Generated_Source\PSoC4/Millis_ISR.c **** *    PSoC 4: Priority is from 0 to 3.
 275:Generated_Source\PSoC4/Millis_ISR.c **** *
 276:Generated_Source\PSoC4/Millis_ISR.c **** *******************************************************************************/
 277:Generated_Source\PSoC4/Millis_ISR.c **** uint8 Millis_ISR_GetPriority(void)
 278:Generated_Source\PSoC4/Millis_ISR.c **** {
 279:Generated_Source\PSoC4/Millis_ISR.c ****     uint32 priority;
 280:Generated_Source\PSoC4/Millis_ISR.c **** 	uint32 priorityOffset = ((Millis_ISR__INTC_NUMBER % 4u) * 8u) + 6u;
 281:Generated_Source\PSoC4/Millis_ISR.c **** 
 282:Generated_Source\PSoC4/Millis_ISR.c ****     priority = (*Millis_ISR_INTC_PRIOR & Millis_ISR__INTC_PRIOR_MASK) >> priorityOffset;
 283:Generated_Source\PSoC4/Millis_ISR.c **** 
 284:Generated_Source\PSoC4/Millis_ISR.c ****     return (uint8)priority;
 285:Generated_Source\PSoC4/Millis_ISR.c **** }
ARM GAS  C:\Users\AFDHAL~1\AppData\Local\Temp\ccq9fedl.s 			page 7


 286:Generated_Source\PSoC4/Millis_ISR.c **** 
 287:Generated_Source\PSoC4/Millis_ISR.c **** 
 288:Generated_Source\PSoC4/Millis_ISR.c **** /*******************************************************************************
 289:Generated_Source\PSoC4/Millis_ISR.c **** * Function Name: Millis_ISR_Enable
 290:Generated_Source\PSoC4/Millis_ISR.c **** ********************************************************************************
 291:Generated_Source\PSoC4/Millis_ISR.c **** *
 292:Generated_Source\PSoC4/Millis_ISR.c **** * Summary:
 293:Generated_Source\PSoC4/Millis_ISR.c **** *   Enables the interrupt to the interrupt controller. Do not call this function
 294:Generated_Source\PSoC4/Millis_ISR.c **** *   unless ISR_Start() has been called or the functionality of the ISR_Start() 
 295:Generated_Source\PSoC4/Millis_ISR.c **** *   function, which sets the vector and the priority, has been called.
 296:Generated_Source\PSoC4/Millis_ISR.c **** *
 297:Generated_Source\PSoC4/Millis_ISR.c **** * Parameters:
 298:Generated_Source\PSoC4/Millis_ISR.c **** *   None
 299:Generated_Source\PSoC4/Millis_ISR.c **** *
 300:Generated_Source\PSoC4/Millis_ISR.c **** * Return:
 301:Generated_Source\PSoC4/Millis_ISR.c **** *   None
 302:Generated_Source\PSoC4/Millis_ISR.c **** *
 303:Generated_Source\PSoC4/Millis_ISR.c **** *******************************************************************************/
 304:Generated_Source\PSoC4/Millis_ISR.c **** void Millis_ISR_Enable(void)
 305:Generated_Source\PSoC4/Millis_ISR.c **** {
 306:Generated_Source\PSoC4/Millis_ISR.c ****     /* Enable the general interrupt. */
 307:Generated_Source\PSoC4/Millis_ISR.c ****     *Millis_ISR_INTC_SET_EN = Millis_ISR__INTC_MASK;
 308:Generated_Source\PSoC4/Millis_ISR.c **** }
 309:Generated_Source\PSoC4/Millis_ISR.c **** 
 310:Generated_Source\PSoC4/Millis_ISR.c **** 
 311:Generated_Source\PSoC4/Millis_ISR.c **** /*******************************************************************************
 312:Generated_Source\PSoC4/Millis_ISR.c **** * Function Name: Millis_ISR_GetState
 313:Generated_Source\PSoC4/Millis_ISR.c **** ********************************************************************************
 314:Generated_Source\PSoC4/Millis_ISR.c **** *
 315:Generated_Source\PSoC4/Millis_ISR.c **** * Summary:
 316:Generated_Source\PSoC4/Millis_ISR.c **** *   Gets the state (enabled, disabled) of the Interrupt.
 317:Generated_Source\PSoC4/Millis_ISR.c **** *
 318:Generated_Source\PSoC4/Millis_ISR.c **** * Parameters:
 319:Generated_Source\PSoC4/Millis_ISR.c **** *   None
 320:Generated_Source\PSoC4/Millis_ISR.c **** *
 321:Generated_Source\PSoC4/Millis_ISR.c **** * Return:
 322:Generated_Source\PSoC4/Millis_ISR.c **** *   1 if enabled, 0 if disabled.
 323:Generated_Source\PSoC4/Millis_ISR.c **** *
 324:Generated_Source\PSoC4/Millis_ISR.c **** *******************************************************************************/
 325:Generated_Source\PSoC4/Millis_ISR.c **** uint8 Millis_ISR_GetState(void)
 326:Generated_Source\PSoC4/Millis_ISR.c **** {
 327:Generated_Source\PSoC4/Millis_ISR.c ****     /* Get the state of the general interrupt. */
 328:Generated_Source\PSoC4/Millis_ISR.c ****     return ((*Millis_ISR_INTC_SET_EN & (uint32)Millis_ISR__INTC_MASK) != 0u) ? 1u:0u;
 329:Generated_Source\PSoC4/Millis_ISR.c **** }
 330:Generated_Source\PSoC4/Millis_ISR.c **** 
 331:Generated_Source\PSoC4/Millis_ISR.c **** 
 332:Generated_Source\PSoC4/Millis_ISR.c **** /*******************************************************************************
 333:Generated_Source\PSoC4/Millis_ISR.c **** * Function Name: Millis_ISR_Disable
 334:Generated_Source\PSoC4/Millis_ISR.c **** ********************************************************************************
 335:Generated_Source\PSoC4/Millis_ISR.c **** *
 336:Generated_Source\PSoC4/Millis_ISR.c **** * Summary:
 337:Generated_Source\PSoC4/Millis_ISR.c **** *   Disables the Interrupt in the interrupt controller.
 338:Generated_Source\PSoC4/Millis_ISR.c **** *
 339:Generated_Source\PSoC4/Millis_ISR.c **** * Parameters:
 340:Generated_Source\PSoC4/Millis_ISR.c **** *   None
 341:Generated_Source\PSoC4/Millis_ISR.c **** *
 342:Generated_Source\PSoC4/Millis_ISR.c **** * Return:
ARM GAS  C:\Users\AFDHAL~1\AppData\Local\Temp\ccq9fedl.s 			page 8


 343:Generated_Source\PSoC4/Millis_ISR.c **** *   None
 344:Generated_Source\PSoC4/Millis_ISR.c **** *
 345:Generated_Source\PSoC4/Millis_ISR.c **** *******************************************************************************/
 346:Generated_Source\PSoC4/Millis_ISR.c **** void Millis_ISR_Disable(void)
 347:Generated_Source\PSoC4/Millis_ISR.c **** {
 348:Generated_Source\PSoC4/Millis_ISR.c ****     /* Disable the general interrupt. */
 349:Generated_Source\PSoC4/Millis_ISR.c ****     *Millis_ISR_INTC_CLR_EN = Millis_ISR__INTC_MASK;
  57              		.loc 1 349 0
  58 0002 8024     		movs	r4, #128
  59 0004 094B     		ldr	r3, .L3
  60 0006 A403     		lsls	r4, r4, #14
  61 0008 1C60     		str	r4, [r3]
  62              	.LVL0:
  63              	.LBE27:
  64              	.LBE26:
  65              	.LBB28:
  66              	.LBB29:
 201:Generated_Source\PSoC4/Millis_ISR.c **** }
  67              		.loc 1 201 0
  68 000a 9423     		movs	r3, #148
  69 000c 0849     		ldr	r1, .L3+4
  70 000e 094A     		ldr	r2, .L3+8
  71              	.LBE29:
  72              	.LBE28:
  69:Generated_Source\PSoC4/Millis_ISR.c **** 
  73              		.loc 1 69 0
  74              		@ sp needed
  75              	.LBB31:
  76              	.LBB30:
 201:Generated_Source\PSoC4/Millis_ISR.c **** }
  77              		.loc 1 201 0
  78 0010 D150     		str	r1, [r2, r3]
  79              	.LVL1:
  80              	.LBE30:
  81              	.LBE31:
  82              	.LBB32:
  83              	.LBB33:
 254:Generated_Source\PSoC4/Millis_ISR.c ****     *Millis_ISR_INTC_PRIOR = (*Millis_ISR_INTC_PRIOR & (uint32)(~Millis_ISR__INTC_PRIOR_MASK)) |
  84              		.loc 1 254 0
  85 0012 FFF7FEFF 		bl	CyEnterCriticalSection
  86              	.LVL2:
 255:Generated_Source\PSoC4/Millis_ISR.c ****                                     ((uint32)priority << priorityOffset);
  87              		.loc 1 255 0
  88 0016 C023     		movs	r3, #192
  89 0018 074A     		ldr	r2, .L3+12
  90 001a 1B02     		lsls	r3, r3, #8
  91 001c 1168     		ldr	r1, [r2]
  92 001e 0B43     		orrs	r3, r1
  93 0020 1360     		str	r3, [r2]
 257:Generated_Source\PSoC4/Millis_ISR.c **** }
  94              		.loc 1 257 0
  95 0022 FFF7FEFF 		bl	CyExitCriticalSection
  96              	.LVL3:
  97              	.LBE33:
  98              	.LBE32:
  99              	.LBB34:
 100              	.LBB35:
ARM GAS  C:\Users\AFDHAL~1\AppData\Local\Temp\ccq9fedl.s 			page 9


 307:Generated_Source\PSoC4/Millis_ISR.c **** }
 101              		.loc 1 307 0
 102 0026 054B     		ldr	r3, .L3+16
 103 0028 1C60     		str	r4, [r3]
 104              	.LBE35:
 105              	.LBE34:
  69:Generated_Source\PSoC4/Millis_ISR.c **** 
 106              		.loc 1 69 0
 107 002a 10BD     		pop	{r4, pc}
 108              	.L4:
 109              		.align	2
 110              	.L3:
 111 002c 80E100E0 		.word	-536813184
 112 0030 00000000 		.word	Millis_ISR_Interrupt
 113 0034 00000000 		.word	CyRamVectors
 114 0038 14E400E0 		.word	-536812524
 115 003c 00E100E0 		.word	-536813312
 116              		.cfi_endproc
 117              	.LFE1:
 118              		.size	Millis_ISR_Start, .-Millis_ISR_Start
 119              		.section	.text.Millis_ISR_StartEx,"ax",%progbits
 120              		.align	2
 121              		.global	Millis_ISR_StartEx
 122              		.code	16
 123              		.thumb_func
 124              		.type	Millis_ISR_StartEx, %function
 125              	Millis_ISR_StartEx:
 126              	.LFB2:
 100:Generated_Source\PSoC4/Millis_ISR.c ****     /* For all we know the interrupt is active. */
 127              		.loc 1 100 0
 128              		.cfi_startproc
 129              		@ args = 0, pretend = 0, frame = 0
 130              		@ frame_needed = 0, uses_anonymous_args = 0
 131              	.LVL4:
 132 0000 10B5     		push	{r4, lr}
 133              		.cfi_def_cfa_offset 8
 134              		.cfi_offset 4, -8
 135              		.cfi_offset 14, -4
 136              	.LBB44:
 137              	.LBB45:
 138              		.loc 1 349 0
 139 0002 8024     		movs	r4, #128
 140 0004 094B     		ldr	r3, .L6
 141 0006 A403     		lsls	r4, r4, #14
 142 0008 1C60     		str	r4, [r3]
 143              	.LVL5:
 144              	.LBE45:
 145              	.LBE44:
 146              	.LBB46:
 147              	.LBB47:
 201:Generated_Source\PSoC4/Millis_ISR.c **** }
 148              		.loc 1 201 0
 149 000a 9423     		movs	r3, #148
 150 000c 084A     		ldr	r2, .L6+4
 151              	.LBE47:
 152              	.LBE46:
 112:Generated_Source\PSoC4/Millis_ISR.c **** 
ARM GAS  C:\Users\AFDHAL~1\AppData\Local\Temp\ccq9fedl.s 			page 10


 153              		.loc 1 112 0
 154              		@ sp needed
 155              	.LBB49:
 156              	.LBB48:
 201:Generated_Source\PSoC4/Millis_ISR.c **** }
 157              		.loc 1 201 0
 158 000e D050     		str	r0, [r2, r3]
 159              	.LVL6:
 160              	.LBE48:
 161              	.LBE49:
 162              	.LBB50:
 163              	.LBB51:
 254:Generated_Source\PSoC4/Millis_ISR.c ****     *Millis_ISR_INTC_PRIOR = (*Millis_ISR_INTC_PRIOR & (uint32)(~Millis_ISR__INTC_PRIOR_MASK)) |
 164              		.loc 1 254 0
 165 0010 FFF7FEFF 		bl	CyEnterCriticalSection
 166              	.LVL7:
 255:Generated_Source\PSoC4/Millis_ISR.c ****                                     ((uint32)priority << priorityOffset);
 167              		.loc 1 255 0
 168 0014 C023     		movs	r3, #192
 169 0016 074A     		ldr	r2, .L6+8
 170 0018 1B02     		lsls	r3, r3, #8
 171 001a 1168     		ldr	r1, [r2]
 172 001c 0B43     		orrs	r3, r1
 173 001e 1360     		str	r3, [r2]
 257:Generated_Source\PSoC4/Millis_ISR.c **** }
 174              		.loc 1 257 0
 175 0020 FFF7FEFF 		bl	CyExitCriticalSection
 176              	.LVL8:
 177              	.LBE51:
 178              	.LBE50:
 179              	.LBB52:
 180              	.LBB53:
 307:Generated_Source\PSoC4/Millis_ISR.c **** }
 181              		.loc 1 307 0
 182 0024 044B     		ldr	r3, .L6+12
 183 0026 1C60     		str	r4, [r3]
 184              	.LBE53:
 185              	.LBE52:
 112:Generated_Source\PSoC4/Millis_ISR.c **** 
 186              		.loc 1 112 0
 187 0028 10BD     		pop	{r4, pc}
 188              	.L7:
 189 002a C046     		.align	2
 190              	.L6:
 191 002c 80E100E0 		.word	-536813184
 192 0030 00000000 		.word	CyRamVectors
 193 0034 14E400E0 		.word	-536812524
 194 0038 00E100E0 		.word	-536813312
 195              		.cfi_endproc
 196              	.LFE2:
 197              		.size	Millis_ISR_StartEx, .-Millis_ISR_StartEx
 198              		.section	.text.Millis_ISR_Stop,"ax",%progbits
 199              		.align	2
 200              		.global	Millis_ISR_Stop
 201              		.code	16
 202              		.thumb_func
 203              		.type	Millis_ISR_Stop, %function
ARM GAS  C:\Users\AFDHAL~1\AppData\Local\Temp\ccq9fedl.s 			page 11


 204              	Millis_ISR_Stop:
 205              	.LFB3:
 130:Generated_Source\PSoC4/Millis_ISR.c ****     /* Disable this interrupt. */
 206              		.loc 1 130 0
 207              		.cfi_startproc
 208              		@ args = 0, pretend = 0, frame = 0
 209              		@ frame_needed = 0, uses_anonymous_args = 0
 210              		@ link register save eliminated.
 211              	.LBB54:
 212              	.LBB55:
 213              		.loc 1 349 0
 214 0000 8022     		movs	r2, #128
 215 0002 044B     		ldr	r3, .L9
 216 0004 9203     		lsls	r2, r2, #14
 217 0006 1A60     		str	r2, [r3]
 218              	.LVL9:
 219              	.LBE55:
 220              	.LBE54:
 221              	.LBB56:
 222              	.LBB57:
 201:Generated_Source\PSoC4/Millis_ISR.c **** }
 223              		.loc 1 201 0
 224 0008 9423     		movs	r3, #148
 225 000a 0349     		ldr	r1, .L9+4
 226 000c 034A     		ldr	r2, .L9+8
 227              	.LBE57:
 228              	.LBE56:
 136:Generated_Source\PSoC4/Millis_ISR.c **** 
 229              		.loc 1 136 0
 230              		@ sp needed
 231              	.LBB59:
 232              	.LBB58:
 201:Generated_Source\PSoC4/Millis_ISR.c **** }
 233              		.loc 1 201 0
 234 000e D150     		str	r1, [r2, r3]
 235              	.LVL10:
 236              	.LBE58:
 237              	.LBE59:
 136:Generated_Source\PSoC4/Millis_ISR.c **** 
 238              		.loc 1 136 0
 239 0010 7047     		bx	lr
 240              	.L10:
 241 0012 C046     		.align	2
 242              	.L9:
 243 0014 80E100E0 		.word	-536813184
 244 0018 00000000 		.word	IntDefaultHandler
 245 001c 00000000 		.word	CyRamVectors
 246              		.cfi_endproc
 247              	.LFE3:
 248              		.size	Millis_ISR_Stop, .-Millis_ISR_Stop
 249              		.section	.text.Millis_ISR_SetVector,"ax",%progbits
 250              		.align	2
 251              		.global	Millis_ISR_SetVector
 252              		.code	16
 253              		.thumb_func
 254              		.type	Millis_ISR_SetVector, %function
 255              	Millis_ISR_SetVector:
ARM GAS  C:\Users\AFDHAL~1\AppData\Local\Temp\ccq9fedl.s 			page 12


 256              	.LFB5:
 200:Generated_Source\PSoC4/Millis_ISR.c ****     CyRamVectors[CYINT_IRQ_BASE + Millis_ISR__INTC_NUMBER] = address;
 257              		.loc 1 200 0
 258              		.cfi_startproc
 259              		@ args = 0, pretend = 0, frame = 0
 260              		@ frame_needed = 0, uses_anonymous_args = 0
 261              		@ link register save eliminated.
 262              	.LVL11:
 201:Generated_Source\PSoC4/Millis_ISR.c **** }
 263              		.loc 1 201 0
 264 0000 9423     		movs	r3, #148
 265 0002 014A     		ldr	r2, .L12
 202:Generated_Source\PSoC4/Millis_ISR.c **** 
 266              		.loc 1 202 0
 267              		@ sp needed
 201:Generated_Source\PSoC4/Millis_ISR.c **** }
 268              		.loc 1 201 0
 269 0004 D050     		str	r0, [r2, r3]
 202:Generated_Source\PSoC4/Millis_ISR.c **** 
 270              		.loc 1 202 0
 271 0006 7047     		bx	lr
 272              	.L13:
 273              		.align	2
 274              	.L12:
 275 0008 00000000 		.word	CyRamVectors
 276              		.cfi_endproc
 277              	.LFE5:
 278              		.size	Millis_ISR_SetVector, .-Millis_ISR_SetVector
 279              		.section	.text.Millis_ISR_GetVector,"ax",%progbits
 280              		.align	2
 281              		.global	Millis_ISR_GetVector
 282              		.code	16
 283              		.thumb_func
 284              		.type	Millis_ISR_GetVector, %function
 285              	Millis_ISR_GetVector:
 286              	.LFB6:
 220:Generated_Source\PSoC4/Millis_ISR.c ****     return CyRamVectors[CYINT_IRQ_BASE + Millis_ISR__INTC_NUMBER];
 287              		.loc 1 220 0
 288              		.cfi_startproc
 289              		@ args = 0, pretend = 0, frame = 0
 290              		@ frame_needed = 0, uses_anonymous_args = 0
 291              		@ link register save eliminated.
 221:Generated_Source\PSoC4/Millis_ISR.c **** }
 292              		.loc 1 221 0
 293 0000 9423     		movs	r3, #148
 294 0002 014A     		ldr	r2, .L15
 222:Generated_Source\PSoC4/Millis_ISR.c **** 
 295              		.loc 1 222 0
 296              		@ sp needed
 221:Generated_Source\PSoC4/Millis_ISR.c **** }
 297              		.loc 1 221 0
 298 0004 D058     		ldr	r0, [r2, r3]
 222:Generated_Source\PSoC4/Millis_ISR.c **** 
 299              		.loc 1 222 0
 300 0006 7047     		bx	lr
 301              	.L16:
 302              		.align	2
ARM GAS  C:\Users\AFDHAL~1\AppData\Local\Temp\ccq9fedl.s 			page 13


 303              	.L15:
 304 0008 00000000 		.word	CyRamVectors
 305              		.cfi_endproc
 306              	.LFE6:
 307              		.size	Millis_ISR_GetVector, .-Millis_ISR_GetVector
 308              		.section	.text.Millis_ISR_SetPriority,"ax",%progbits
 309              		.align	2
 310              		.global	Millis_ISR_SetPriority
 311              		.code	16
 312              		.thumb_func
 313              		.type	Millis_ISR_SetPriority, %function
 314              	Millis_ISR_SetPriority:
 315              	.LFB7:
 250:Generated_Source\PSoC4/Millis_ISR.c **** 	uint8 interruptState;
 316              		.loc 1 250 0
 317              		.cfi_startproc
 318              		@ args = 0, pretend = 0, frame = 0
 319              		@ frame_needed = 0, uses_anonymous_args = 0
 320              	.LVL12:
 321 0000 10B5     		push	{r4, lr}
 322              		.cfi_def_cfa_offset 8
 323              		.cfi_offset 4, -8
 324              		.cfi_offset 14, -4
 250:Generated_Source\PSoC4/Millis_ISR.c **** 	uint8 interruptState;
 325              		.loc 1 250 0
 326 0002 0400     		movs	r4, r0
 254:Generated_Source\PSoC4/Millis_ISR.c ****     *Millis_ISR_INTC_PRIOR = (*Millis_ISR_INTC_PRIOR & (uint32)(~Millis_ISR__INTC_PRIOR_MASK)) |
 327              		.loc 1 254 0
 328 0004 FFF7FEFF 		bl	CyEnterCriticalSection
 329              	.LVL13:
 255:Generated_Source\PSoC4/Millis_ISR.c ****                                     ((uint32)priority << priorityOffset);
 330              		.loc 1 255 0
 331 0008 044A     		ldr	r2, .L18
 332 000a 054B     		ldr	r3, .L18+4
 333 000c 1168     		ldr	r1, [r2]
 334 000e A403     		lsls	r4, r4, #14
 335 0010 0B40     		ands	r3, r1
 336 0012 1C43     		orrs	r4, r3
 337 0014 1460     		str	r4, [r2]
 257:Generated_Source\PSoC4/Millis_ISR.c **** }
 338              		.loc 1 257 0
 339 0016 FFF7FEFF 		bl	CyExitCriticalSection
 340              	.LVL14:
 258:Generated_Source\PSoC4/Millis_ISR.c **** 
 341              		.loc 1 258 0
 342              		@ sp needed
 343 001a 10BD     		pop	{r4, pc}
 344              	.L19:
 345              		.align	2
 346              	.L18:
 347 001c 14E400E0 		.word	-536812524
 348 0020 FF3FFFFF 		.word	-49153
 349              		.cfi_endproc
 350              	.LFE7:
 351              		.size	Millis_ISR_SetPriority, .-Millis_ISR_SetPriority
 352              		.section	.text.Millis_ISR_GetPriority,"ax",%progbits
 353              		.align	2
ARM GAS  C:\Users\AFDHAL~1\AppData\Local\Temp\ccq9fedl.s 			page 14


 354              		.global	Millis_ISR_GetPriority
 355              		.code	16
 356              		.thumb_func
 357              		.type	Millis_ISR_GetPriority, %function
 358              	Millis_ISR_GetPriority:
 359              	.LFB8:
 278:Generated_Source\PSoC4/Millis_ISR.c ****     uint32 priority;
 360              		.loc 1 278 0
 361              		.cfi_startproc
 362              		@ args = 0, pretend = 0, frame = 0
 363              		@ frame_needed = 0, uses_anonymous_args = 0
 364              		@ link register save eliminated.
 365              	.LVL15:
 282:Generated_Source\PSoC4/Millis_ISR.c **** 
 366              		.loc 1 282 0
 367 0000 024B     		ldr	r3, .L21
 285:Generated_Source\PSoC4/Millis_ISR.c **** 
 368              		.loc 1 285 0
 369              		@ sp needed
 282:Generated_Source\PSoC4/Millis_ISR.c **** 
 370              		.loc 1 282 0
 371 0002 1868     		ldr	r0, [r3]
 372              	.LVL16:
 284:Generated_Source\PSoC4/Millis_ISR.c **** }
 373              		.loc 1 284 0
 374 0004 0004     		lsls	r0, r0, #16
 375              	.LVL17:
 376 0006 800F     		lsrs	r0, r0, #30
 285:Generated_Source\PSoC4/Millis_ISR.c **** 
 377              		.loc 1 285 0
 378 0008 7047     		bx	lr
 379              	.L22:
 380 000a C046     		.align	2
 381              	.L21:
 382 000c 14E400E0 		.word	-536812524
 383              		.cfi_endproc
 384              	.LFE8:
 385              		.size	Millis_ISR_GetPriority, .-Millis_ISR_GetPriority
 386              		.section	.text.Millis_ISR_Enable,"ax",%progbits
 387              		.align	2
 388              		.global	Millis_ISR_Enable
 389              		.code	16
 390              		.thumb_func
 391              		.type	Millis_ISR_Enable, %function
 392              	Millis_ISR_Enable:
 393              	.LFB9:
 305:Generated_Source\PSoC4/Millis_ISR.c ****     /* Enable the general interrupt. */
 394              		.loc 1 305 0
 395              		.cfi_startproc
 396              		@ args = 0, pretend = 0, frame = 0
 397              		@ frame_needed = 0, uses_anonymous_args = 0
 398              		@ link register save eliminated.
 307:Generated_Source\PSoC4/Millis_ISR.c **** }
 399              		.loc 1 307 0
 400 0000 8022     		movs	r2, #128
 401 0002 024B     		ldr	r3, .L24
 402 0004 9203     		lsls	r2, r2, #14
ARM GAS  C:\Users\AFDHAL~1\AppData\Local\Temp\ccq9fedl.s 			page 15


 403 0006 1A60     		str	r2, [r3]
 308:Generated_Source\PSoC4/Millis_ISR.c **** 
 404              		.loc 1 308 0
 405              		@ sp needed
 406 0008 7047     		bx	lr
 407              	.L25:
 408 000a C046     		.align	2
 409              	.L24:
 410 000c 00E100E0 		.word	-536813312
 411              		.cfi_endproc
 412              	.LFE9:
 413              		.size	Millis_ISR_Enable, .-Millis_ISR_Enable
 414              		.section	.text.Millis_ISR_GetState,"ax",%progbits
 415              		.align	2
 416              		.global	Millis_ISR_GetState
 417              		.code	16
 418              		.thumb_func
 419              		.type	Millis_ISR_GetState, %function
 420              	Millis_ISR_GetState:
 421              	.LFB10:
 326:Generated_Source\PSoC4/Millis_ISR.c ****     /* Get the state of the general interrupt. */
 422              		.loc 1 326 0
 423              		.cfi_startproc
 424              		@ args = 0, pretend = 0, frame = 0
 425              		@ frame_needed = 0, uses_anonymous_args = 0
 426              		@ link register save eliminated.
 328:Generated_Source\PSoC4/Millis_ISR.c **** }
 427              		.loc 1 328 0
 428 0000 024B     		ldr	r3, .L27
 329:Generated_Source\PSoC4/Millis_ISR.c **** 
 429              		.loc 1 329 0
 430              		@ sp needed
 328:Generated_Source\PSoC4/Millis_ISR.c **** }
 431              		.loc 1 328 0
 432 0002 1868     		ldr	r0, [r3]
 433 0004 8002     		lsls	r0, r0, #10
 434 0006 C00F     		lsrs	r0, r0, #31
 329:Generated_Source\PSoC4/Millis_ISR.c **** 
 435              		.loc 1 329 0
 436 0008 7047     		bx	lr
 437              	.L28:
 438 000a C046     		.align	2
 439              	.L27:
 440 000c 00E100E0 		.word	-536813312
 441              		.cfi_endproc
 442              	.LFE10:
 443              		.size	Millis_ISR_GetState, .-Millis_ISR_GetState
 444              		.section	.text.Millis_ISR_Disable,"ax",%progbits
 445              		.align	2
 446              		.global	Millis_ISR_Disable
 447              		.code	16
 448              		.thumb_func
 449              		.type	Millis_ISR_Disable, %function
 450              	Millis_ISR_Disable:
 451              	.LFB11:
 347:Generated_Source\PSoC4/Millis_ISR.c ****     /* Disable the general interrupt. */
 452              		.loc 1 347 0
ARM GAS  C:\Users\AFDHAL~1\AppData\Local\Temp\ccq9fedl.s 			page 16


 453              		.cfi_startproc
 454              		@ args = 0, pretend = 0, frame = 0
 455              		@ frame_needed = 0, uses_anonymous_args = 0
 456              		@ link register save eliminated.
 457              		.loc 1 349 0
 458 0000 8022     		movs	r2, #128
 459 0002 024B     		ldr	r3, .L30
 460 0004 9203     		lsls	r2, r2, #14
 461 0006 1A60     		str	r2, [r3]
 350:Generated_Source\PSoC4/Millis_ISR.c **** }
 462              		.loc 1 350 0
 463              		@ sp needed
 464 0008 7047     		bx	lr
 465              	.L31:
 466 000a C046     		.align	2
 467              	.L30:
 468 000c 80E100E0 		.word	-536813184
 469              		.cfi_endproc
 470              	.LFE11:
 471              		.size	Millis_ISR_Disable, .-Millis_ISR_Disable
 472              		.section	.text.Millis_ISR_SetPending,"ax",%progbits
 473              		.align	2
 474              		.global	Millis_ISR_SetPending
 475              		.code	16
 476              		.thumb_func
 477              		.type	Millis_ISR_SetPending, %function
 478              	Millis_ISR_SetPending:
 479              	.LFB12:
 351:Generated_Source\PSoC4/Millis_ISR.c **** 
 352:Generated_Source\PSoC4/Millis_ISR.c **** 
 353:Generated_Source\PSoC4/Millis_ISR.c **** /*******************************************************************************
 354:Generated_Source\PSoC4/Millis_ISR.c **** * Function Name: Millis_ISR_SetPending
 355:Generated_Source\PSoC4/Millis_ISR.c **** ********************************************************************************
 356:Generated_Source\PSoC4/Millis_ISR.c **** *
 357:Generated_Source\PSoC4/Millis_ISR.c **** * Summary:
 358:Generated_Source\PSoC4/Millis_ISR.c **** *   Causes the Interrupt to enter the pending state, a software method of
 359:Generated_Source\PSoC4/Millis_ISR.c **** *   generating the interrupt.
 360:Generated_Source\PSoC4/Millis_ISR.c **** *
 361:Generated_Source\PSoC4/Millis_ISR.c **** * Parameters:
 362:Generated_Source\PSoC4/Millis_ISR.c **** *   None
 363:Generated_Source\PSoC4/Millis_ISR.c **** *
 364:Generated_Source\PSoC4/Millis_ISR.c **** * Return:
 365:Generated_Source\PSoC4/Millis_ISR.c **** *   None
 366:Generated_Source\PSoC4/Millis_ISR.c **** *
 367:Generated_Source\PSoC4/Millis_ISR.c **** * Side Effects:
 368:Generated_Source\PSoC4/Millis_ISR.c **** *   If interrupts are enabled and the interrupt is set up properly, the ISR is
 369:Generated_Source\PSoC4/Millis_ISR.c **** *   entered (depending on the priority of this interrupt and other pending 
 370:Generated_Source\PSoC4/Millis_ISR.c **** *   interrupts).
 371:Generated_Source\PSoC4/Millis_ISR.c **** *
 372:Generated_Source\PSoC4/Millis_ISR.c **** *******************************************************************************/
 373:Generated_Source\PSoC4/Millis_ISR.c **** void Millis_ISR_SetPending(void)
 374:Generated_Source\PSoC4/Millis_ISR.c **** {
 480              		.loc 1 374 0
 481              		.cfi_startproc
 482              		@ args = 0, pretend = 0, frame = 0
 483              		@ frame_needed = 0, uses_anonymous_args = 0
 484              		@ link register save eliminated.
ARM GAS  C:\Users\AFDHAL~1\AppData\Local\Temp\ccq9fedl.s 			page 17


 375:Generated_Source\PSoC4/Millis_ISR.c ****     *Millis_ISR_INTC_SET_PD = Millis_ISR__INTC_MASK;
 485              		.loc 1 375 0
 486 0000 8022     		movs	r2, #128
 487 0002 024B     		ldr	r3, .L33
 488 0004 9203     		lsls	r2, r2, #14
 489 0006 1A60     		str	r2, [r3]
 376:Generated_Source\PSoC4/Millis_ISR.c **** }
 490              		.loc 1 376 0
 491              		@ sp needed
 492 0008 7047     		bx	lr
 493              	.L34:
 494 000a C046     		.align	2
 495              	.L33:
 496 000c 00E200E0 		.word	-536813056
 497              		.cfi_endproc
 498              	.LFE12:
 499              		.size	Millis_ISR_SetPending, .-Millis_ISR_SetPending
 500              		.section	.text.Millis_ISR_ClearPending,"ax",%progbits
 501              		.align	2
 502              		.global	Millis_ISR_ClearPending
 503              		.code	16
 504              		.thumb_func
 505              		.type	Millis_ISR_ClearPending, %function
 506              	Millis_ISR_ClearPending:
 507              	.LFB13:
 377:Generated_Source\PSoC4/Millis_ISR.c **** 
 378:Generated_Source\PSoC4/Millis_ISR.c **** 
 379:Generated_Source\PSoC4/Millis_ISR.c **** /*******************************************************************************
 380:Generated_Source\PSoC4/Millis_ISR.c **** * Function Name: Millis_ISR_ClearPending
 381:Generated_Source\PSoC4/Millis_ISR.c **** ********************************************************************************
 382:Generated_Source\PSoC4/Millis_ISR.c **** *
 383:Generated_Source\PSoC4/Millis_ISR.c **** * Summary:
 384:Generated_Source\PSoC4/Millis_ISR.c **** *   Clears a pending interrupt in the interrupt controller.
 385:Generated_Source\PSoC4/Millis_ISR.c **** *
 386:Generated_Source\PSoC4/Millis_ISR.c **** *   Note Some interrupt sources are clear-on-read and require the block 
 387:Generated_Source\PSoC4/Millis_ISR.c **** *   interrupt/status register to be read/cleared with the appropriate block API 
 388:Generated_Source\PSoC4/Millis_ISR.c **** *   (GPIO, UART, and so on). Otherwise the ISR will continue to remain in 
 389:Generated_Source\PSoC4/Millis_ISR.c **** *   pending state even though the interrupt itself is cleared using this API.
 390:Generated_Source\PSoC4/Millis_ISR.c **** *
 391:Generated_Source\PSoC4/Millis_ISR.c **** * Parameters:
 392:Generated_Source\PSoC4/Millis_ISR.c **** *   None
 393:Generated_Source\PSoC4/Millis_ISR.c **** *
 394:Generated_Source\PSoC4/Millis_ISR.c **** * Return:
 395:Generated_Source\PSoC4/Millis_ISR.c **** *   None
 396:Generated_Source\PSoC4/Millis_ISR.c **** *
 397:Generated_Source\PSoC4/Millis_ISR.c **** *******************************************************************************/
 398:Generated_Source\PSoC4/Millis_ISR.c **** void Millis_ISR_ClearPending(void)
 399:Generated_Source\PSoC4/Millis_ISR.c **** {
 508              		.loc 1 399 0
 509              		.cfi_startproc
 510              		@ args = 0, pretend = 0, frame = 0
 511              		@ frame_needed = 0, uses_anonymous_args = 0
 512              		@ link register save eliminated.
 400:Generated_Source\PSoC4/Millis_ISR.c ****     *Millis_ISR_INTC_CLR_PD = Millis_ISR__INTC_MASK;
 513              		.loc 1 400 0
 514 0000 8022     		movs	r2, #128
 515 0002 024B     		ldr	r3, .L36
ARM GAS  C:\Users\AFDHAL~1\AppData\Local\Temp\ccq9fedl.s 			page 18


 516 0004 9203     		lsls	r2, r2, #14
 517 0006 1A60     		str	r2, [r3]
 401:Generated_Source\PSoC4/Millis_ISR.c **** }
 518              		.loc 1 401 0
 519              		@ sp needed
 520 0008 7047     		bx	lr
 521              	.L37:
 522 000a C046     		.align	2
 523              	.L36:
 524 000c 80E200E0 		.word	-536812928
 525              		.cfi_endproc
 526              	.LFE13:
 527              		.size	Millis_ISR_ClearPending, .-Millis_ISR_ClearPending
 528              		.text
 529              	.Letext0:
 530              		.file 2 "Generated_Source\\PSoC4/cytypes.h"
 531              		.file 3 "Generated_Source\\PSoC4/CyLib.h"