ARM GAS  C:\Users\AFDHAL~1\AppData\Local\Temp\ccyyO4Re.s 			page 1


   1              		.syntax unified
   2              		.cpu cortex-m0
   3              		.fpu softvfp
   4              		.eabi_attribute 20, 1
   5              		.eabi_attribute 21, 1
   6              		.eabi_attribute 23, 3
   7              		.eabi_attribute 24, 1
   8              		.eabi_attribute 25, 1
   9              		.eabi_attribute 26, 1
  10              		.eabi_attribute 30, 2
  11              		.eabi_attribute 34, 0
  12              		.eabi_attribute 18, 4
  13              		.thumb
  14              		.syntax unified
  15              		.file	"millis.c"
  16              		.text
  17              	.Ltext0:
  18              		.cfi_sections	.debug_frame
  19              		.section	.text.Millis_Tick,"ax",%progbits
  20              		.align	2
  21              		.global	Millis_Tick
  22              		.code	16
  23              		.thumb_func
  24              		.type	Millis_Tick, %function
  25              	Millis_Tick:
  26              	.LFB34:
  27              		.file 1 "millis.c"
   1:millis.c      **** /*
   2:millis.c      ****  * File:   millis.c
   3:millis.c      ****  * Author: Afdhal Tan
   4:millis.c      ****  *
   5:millis.c      ****  * Created on 21 October 2016, 13:32
   6:millis.c      ****  */
   7:millis.c      **** 
   8:millis.c      **** #include "millis.h"
   9:millis.c      **** volatile unsigned long long long_millis=0;
  10:millis.c      **** 
  11:millis.c      **** CY_ISR(Millis_Tick)
  12:millis.c      **** {
  28              		.loc 1 12 0
  29              		.cfi_startproc
  30              		@ args = 0, pretend = 0, frame = 0
  31              		@ frame_needed = 0, uses_anonymous_args = 0
  13:millis.c      ****     long_millis+=1;
  32              		.loc 1 13 0
  33 0000 0122     		movs	r2, #1
  34 0002 0023     		movs	r3, #0
  35 0004 0649     		ldr	r1, .L2
  12:millis.c      ****     long_millis+=1;
  36              		.loc 1 12 0
  37 0006 70B5     		push	{r4, r5, r6, lr}
  38              		.cfi_def_cfa_offset 16
  39              		.cfi_offset 4, -16
  40              		.cfi_offset 5, -12
  41              		.cfi_offset 6, -8
  42              		.cfi_offset 14, -4
  43              		.loc 1 13 0
ARM GAS  C:\Users\AFDHAL~1\AppData\Local\Temp\ccyyO4Re.s 			page 2


  44 0008 0C68     		ldr	r4, [r1]
  45 000a 4D68     		ldr	r5, [r1, #4]
  46 000c 1219     		adds	r2, r2, r4
  47 000e 6B41     		adcs	r3, r3, r5
  14:millis.c      **** 
  15:millis.c      **** //    for debug use    
  16:millis.c      **** //    static int cnt=0;
  17:millis.c      **** //     
  18:millis.c      **** //    //heartbeat on led
  19:millis.c      **** //    if(cnt++>100)
  20:millis.c      **** //    {
  21:millis.c      **** //        cnt=0;
  22:millis.c      **** //        LED_Write(~LED_Read());
  23:millis.c      **** //    } 
  24:millis.c      ****     
  25:millis.c      ****     //clear flags before exiting isr
  26:millis.c      ****     Millis_TMR_ClearInterrupt(Millis_TMR_INTR_MASK_TC);
  48              		.loc 1 26 0
  49 0010 0120     		movs	r0, #1
  13:millis.c      **** 
  50              		.loc 1 13 0
  51 0012 0A60     		str	r2, [r1]
  52 0014 4B60     		str	r3, [r1, #4]
  27:millis.c      ****     Millis_ISR_ClearPending();
  28:millis.c      **** }
  53              		.loc 1 28 0
  54              		@ sp needed
  26:millis.c      ****     Millis_ISR_ClearPending();
  55              		.loc 1 26 0
  56 0016 FFF7FEFF 		bl	Millis_TMR_ClearInterrupt
  57              	.LVL0:
  27:millis.c      ****     Millis_ISR_ClearPending();
  58              		.loc 1 27 0
  59 001a FFF7FEFF 		bl	Millis_ISR_ClearPending
  60              	.LVL1:
  61              		.loc 1 28 0
  62 001e 70BD     		pop	{r4, r5, r6, pc}
  63              	.L3:
  64              		.align	2
  65              	.L2:
  66 0020 00000000 		.word	.LANCHOR0
  67              		.cfi_endproc
  68              	.LFE34:
  69              		.size	Millis_Tick, .-Millis_Tick
  70              		.section	.text.Millis_Start,"ax",%progbits
  71              		.align	2
  72              		.global	Millis_Start
  73              		.code	16
  74              		.thumb_func
  75              		.type	Millis_Start, %function
  76              	Millis_Start:
  77              	.LFB35:
  29:millis.c      **** 
  30:millis.c      **** void Millis_Start()
  31:millis.c      **** {
  78              		.loc 1 31 0
  79              		.cfi_startproc
ARM GAS  C:\Users\AFDHAL~1\AppData\Local\Temp\ccyyO4Re.s 			page 3


  80              		@ args = 0, pretend = 0, frame = 0
  81              		@ frame_needed = 0, uses_anonymous_args = 0
  82 0000 10B5     		push	{r4, lr}
  83              		.cfi_def_cfa_offset 8
  84              		.cfi_offset 4, -8
  85              		.cfi_offset 14, -4
  32:millis.c      ****     Millis_ISR_StartEx(Millis_Tick);
  86              		.loc 1 32 0
  87 0002 0348     		ldr	r0, .L5
  88 0004 FFF7FEFF 		bl	Millis_ISR_StartEx
  89              	.LVL2:
  33:millis.c      ****     Millis_TMR_Start();
  34:millis.c      **** }
  90              		.loc 1 34 0
  91              		@ sp needed
  33:millis.c      ****     Millis_TMR_Start();
  92              		.loc 1 33 0
  93 0008 FFF7FEFF 		bl	Millis_TMR_Start
  94              	.LVL3:
  95              		.loc 1 34 0
  96 000c 10BD     		pop	{r4, pc}
  97              	.L6:
  98 000e C046     		.align	2
  99              	.L5:
 100 0010 00000000 		.word	Millis_Tick
 101              		.cfi_endproc
 102              	.LFE35:
 103              		.size	Millis_Start, .-Millis_Start
 104              		.global	long_millis
 105              		.bss
 106              		.align	3
 107              		.set	.LANCHOR0,. + 0
 108              		.type	long_millis, %object
 109              		.size	long_millis, 8
 110              	long_millis:
 111 0000 00000000 		.space	8
 111      00000000 
 112              		.text
 113              	.Letext0:
 114              		.file 2 "Generated_Source\\PSoC4/Millis_TMR.h"
 115              		.file 3 "Generated_Source\\PSoC4/Millis_ISR.h"
 116              		.file 4 "Generated_Source\\PSoC4/cytypes.h"
 117              		.file 5 "Generated_Source\\PSoC4/nRF24_REGS.h"