ARM GAS  C:\Users\AFDHAL~1\AppData\Local\Temp\ccKZJoZj.s 			page 1


   1              		.syntax unified
   2              		.cpu cortex-m0
   3              		.fpu softvfp
   4              		.eabi_attribute 20, 1
   5              		.eabi_attribute 21, 1
   6              		.eabi_attribute 23, 3
   7              		.eabi_attribute 24, 1
   8              		.eabi_attribute 25, 1
   9              		.eabi_attribute 26, 1
  10              		.eabi_attribute 30, 2
  11              		.eabi_attribute 34, 0
  12              		.eabi_attribute 18, 4
  13              		.thumb
  14              		.syntax unified
  15              		.file	"modbusRTU.c"
  16              		.text
  17              	.Ltext0:
  18              		.cfi_sections	.debug_frame
  19              		.section	.text.crc,"ax",%progbits
  20              		.align	2
  21              		.global	crc
  22              		.code	16
  23              		.thumb_func
  24              		.type	crc, %function
  25              	crc:
  26              	.LFB34:
  27              		.file 1 "modbusRTU.c"
   1:modbusRTU.c   **** /*
   2:modbusRTU.c   ****  * This library was taken from https://www.cooking-hacks.com/documentation/tutorials/modbus-module-
   3:modbusRTU.c   ****  * Ported from C++ to C by Afdhal Atiff Tan on 8th November 2017.
   4:modbusRTU.c   **** */
   5:modbusRTU.c   **** 
   6:modbusRTU.c   **** /* 		
   7:modbusRTU.c   ****  Modbus over serial line - RTU Slave Arduino Sketch 
   8:modbusRTU.c   ****  
   9:modbusRTU.c   ****  By Juan Pablo Zometa : jpmzometa@gmail.com
  10:modbusRTU.c   ****  http://sites.google.com/site/jpmzometa/
  11:modbusRTU.c   ****  Samuel Marco: sammarcoarmengol@gmail.com
  12:modbusRTU.c   ****  and Andras Tucsni.
  13:modbusRTU.c   ****  
  14:modbusRTU.c   ****  These functions implement functions 3, 6, and 16 (read holding registers,
  15:modbusRTU.c   ****  preset single register and preset multiple registers) of the 
  16:modbusRTU.c   ****  Modbus RTU Protocol, to be used over the Arduino serial connection.
  17:modbusRTU.c   ****  
  18:modbusRTU.c   ****  This implementation DOES NOT fully comply with the Modbus specifications.
  19:modbusRTU.c   ****  
  20:modbusRTU.c   ****  This Arduino adaptation is derived from the work
  21:modbusRTU.c   ****  By P.Costigan email: phil@pcscada.com.au http://pcscada.com.au
  22:modbusRTU.c   ****  
  23:modbusRTU.c   ****  These library of functions are designed to enable a program send and
  24:modbusRTU.c   ****  receive data from a device that communicates using the Modbus protocol.
  25:modbusRTU.c   ****  
  26:modbusRTU.c   ****  Copyright (C) 2000 Philip Costigan  P.C. SCADA LINK PTY. LTD.
  27:modbusRTU.c   ****  
  28:modbusRTU.c   ****  This program is free software; you can redistribute it and/or modify
  29:modbusRTU.c   ****  it under the terms of the GNU General Public License as published by
  30:modbusRTU.c   ****  the Free Software Foundation; either version 2 of the License, or
ARM GAS  C:\Users\AFDHAL~1\AppData\Local\Temp\ccKZJoZj.s 			page 2


  31:modbusRTU.c   ****  (at your option) any later version.
  32:modbusRTU.c   ****  
  33:modbusRTU.c   ****  This program is distributed in the hope that it will be useful,
  34:modbusRTU.c   ****  but WITHOUT ANY WARRANTY; without even the implied warranty of
  35:modbusRTU.c   ****  MERCHANTABILITY or FITNESS FOR A PARTICULAR PURPOSE.  See the
  36:modbusRTU.c   ****  GNU General Public License for more details.
  37:modbusRTU.c   ****  
  38:modbusRTU.c   ****  You should have received a copy of the GNU General Public License
  39:modbusRTU.c   ****  along with this program; if not, write to the Free Software
  40:modbusRTU.c   ****  Foundation, Inc., 675 Mass Ave, Cambridge, MA 02139, USA.
  41:modbusRTU.c   ****  
  42:modbusRTU.c   ****  The functions included here have been derived from the 
  43:modbusRTU.c   ****  Modicon Modbus Protocol Reference Guide
  44:modbusRTU.c   ****  which can be obtained from Schneider at www.schneiderautomation.com.
  45:modbusRTU.c   ****  
  46:modbusRTU.c   ****  This code has its origins with 
  47:modbusRTU.c   ****  paul@pmcrae.freeserve.co.uk (http://www.pmcrae.freeserve.co.uk)
  48:modbusRTU.c   ****  who wrote a small program to read 100 registers from a modbus slave.
  49:modbusRTU.c   ****  
  50:modbusRTU.c   ****  I have used his code as a catalist to produce this more functional set
  51:modbusRTU.c   ****  of functions. Thanks paul.
  52:modbusRTU.c   ****  */
  53:modbusRTU.c   **** 
  54:modbusRTU.c   **** #ifndef modbusRTU_H
  55:modbusRTU.c   **** 	#include "modbusRTU.h"
  56:modbusRTU.c   **** #endif
  57:modbusRTU.c   **** 
  58:modbusRTU.c   **** //Private prototypes and vars
  59:modbusRTU.c   ****   unsigned char slave;
  60:modbusRTU.c   ****   unsigned char modbusRTU_Written = 0;  
  61:modbusRTU.c   ****   unsigned long modbusRTU_written_register_flags = 0;
  62:modbusRTU.c   ****   unsigned int crc(unsigned char *buf, unsigned char start, unsigned char cnt);
  63:modbusRTU.c   ****   void build_read_packet(unsigned char function, unsigned char count, unsigned char *packet);
  64:modbusRTU.c   ****   void build_write_packet(unsigned char function, unsigned int start_addr, unsigned char count, uns
  65:modbusRTU.c   ****   void build_write_single_packet(unsigned char function, unsigned int write_addr, unsigned int reg_
  66:modbusRTU.c   ****   void build_error_packet(unsigned char function,unsigned char exception, unsigned char *packet);
  67:modbusRTU.c   ****   void modbus_reply(unsigned char *packet, unsigned char string_length);
  68:modbusRTU.c   ****   int send_reply(unsigned char *query, unsigned char string_length);
  69:modbusRTU.c   ****   int receive_request(unsigned char *received_string);
  70:modbusRTU.c   ****   int modbus_request(unsigned char *data);
  71:modbusRTU.c   ****   int validate_request(unsigned char *data, unsigned char length, unsigned int regs_size);
  72:modbusRTU.c   ****   int write_regs(unsigned int start_addr, unsigned char *query, int *regs);
  73:modbusRTU.c   ****   int preset_multiple_registers(unsigned int start_addr,unsigned char count,unsigned char *query,in
  74:modbusRTU.c   ****   int read_holding_registers(unsigned int start_addr, unsigned char reg_count, int *regs);
  75:modbusRTU.c   ****   int write_single_register(unsigned int write_addr, unsigned char *query, int *regs);  
  76:modbusRTU.c   **** 
  77:modbusRTU.c   **** 
  78:modbusRTU.c   **** /****************************************************************************
  79:modbusRTU.c   ****  * BEGIN MODBUS RTU SLAVE FUNCTIONS
  80:modbusRTU.c   ****  ****************************************************************************/
  81:modbusRTU.c   **** 
  82:modbusRTU.c   **** /* constants */
  83:modbusRTU.c   **** enum { 
  84:modbusRTU.c   ****         MAX_READ_REGS = 0x7D, 
  85:modbusRTU.c   ****         MAX_WRITE_REGS = 0x7B, 
  86:modbusRTU.c   ****         MAX_MESSAGE_LENGTH = 256 
  87:modbusRTU.c   **** };
ARM GAS  C:\Users\AFDHAL~1\AppData\Local\Temp\ccKZJoZj.s 			page 3


  88:modbusRTU.c   **** 
  89:modbusRTU.c   **** 
  90:modbusRTU.c   **** enum { 
  91:modbusRTU.c   ****         RESPONSE_SIZE = 6, 
  92:modbusRTU.c   ****         EXCEPTION_SIZE = 3, 
  93:modbusRTU.c   ****         CHECKSUM_SIZE = 2 
  94:modbusRTU.c   **** };
  95:modbusRTU.c   **** 
  96:modbusRTU.c   **** /* exceptions code */
  97:modbusRTU.c   **** enum { 
  98:modbusRTU.c   ****         NO_REPLY = -1, 
  99:modbusRTU.c   ****         EXC_FUNC_CODE = 1, 
 100:modbusRTU.c   ****         EXC_ADDR_RANGE = 2, 
 101:modbusRTU.c   ****         EXC_REGS_QUANT = 3, 
 102:modbusRTU.c   ****         EXC_EXECUTE = 4 
 103:modbusRTU.c   **** };
 104:modbusRTU.c   **** 
 105:modbusRTU.c   **** /* positions inside the query/response array */
 106:modbusRTU.c   **** enum { 
 107:modbusRTU.c   ****         SLAVE = 0, 
 108:modbusRTU.c   ****         FUNC, 
 109:modbusRTU.c   ****         START_H, 
 110:modbusRTU.c   ****         START_L, 
 111:modbusRTU.c   ****         REGS_H, 
 112:modbusRTU.c   ****         REGS_L, 
 113:modbusRTU.c   ****         BYTE_CNT 
 114:modbusRTU.c   **** };
 115:modbusRTU.c   **** 
 116:modbusRTU.c   **** 
 117:modbusRTU.c   **** /* enum of supported modbus function codes. If you implement a new one, put its function code here 
 118:modbusRTU.c   **** enum { 
 119:modbusRTU.c   ****         FC_READ_REGS  = 0x03,   //Read contiguous block of holding register
 120:modbusRTU.c   ****         FC_WRITE_REG  = 0x06,   //Write single holding register
 121:modbusRTU.c   ****         FC_WRITE_REGS = 0x10    //Write block of contiguous registers
 122:modbusRTU.c   **** };
 123:modbusRTU.c   **** 
 124:modbusRTU.c   **** /* supported functions. If you implement a new one, put its function code into this array! */
 125:modbusRTU.c   **** const unsigned char fsupported[] = { FC_READ_REGS, FC_WRITE_REG, FC_WRITE_REGS };
 126:modbusRTU.c   **** 
 127:modbusRTU.c   **** 
 128:modbusRTU.c   **** /*
 129:modbusRTU.c   **** CRC
 130:modbusRTU.c   ****  
 131:modbusRTU.c   ****  INPUTS:
 132:modbusRTU.c   ****  	buf   ->  Array containing message to be sent to controller.            
 133:modbusRTU.c   ****  	start ->  Start of loop in crc counter, usually 0.
 134:modbusRTU.c   ****  	cnt   ->  Amount of bytes in message being sent to controller/
 135:modbusRTU.c   ****  OUTPUTS:
 136:modbusRTU.c   ****  	temp  ->  Returns crc byte for message.
 137:modbusRTU.c   ****  COMMENTS:
 138:modbusRTU.c   ****  	This routine calculates the crc high and low byte of a message.
 139:modbusRTU.c   ****  	Note that this crc is only used for Modbus, not Modbus+ etc. 
 140:modbusRTU.c   ****  ****************************************************************************/
 141:modbusRTU.c   **** 
 142:modbusRTU.c   **** unsigned int crc(unsigned char *buf, unsigned char start,
 143:modbusRTU.c   **** unsigned char cnt) 
 144:modbusRTU.c   **** {
ARM GAS  C:\Users\AFDHAL~1\AppData\Local\Temp\ccKZJoZj.s 			page 4


  28              		.loc 1 144 0
  29              		.cfi_startproc
  30              		@ args = 0, pretend = 0, frame = 0
  31              		@ frame_needed = 0, uses_anonymous_args = 0
  32              	.LVL0:
  33 0000 F0B5     		push	{r4, r5, r6, r7, lr}
  34              		.cfi_def_cfa_offset 20
  35              		.cfi_offset 4, -20
  36              		.cfi_offset 5, -16
  37              		.cfi_offset 6, -12
  38              		.cfi_offset 7, -8
  39              		.cfi_offset 14, -4
 145:modbusRTU.c   ****         unsigned char i, j;
 146:modbusRTU.c   ****         unsigned temp, temp2, flag;
 147:modbusRTU.c   **** 
 148:modbusRTU.c   ****         temp = 0xFFFF;
 149:modbusRTU.c   **** 
 150:modbusRTU.c   ****         for (i = start; i < cnt; i++) {
  40              		.loc 1 150 0
  41 0002 9142     		cmp	r1, r2
  42 0004 3FD2     		bcs	.L20
 151:modbusRTU.c   ****                 temp = temp ^ buf[i];
 152:modbusRTU.c   **** 
 153:modbusRTU.c   ****                 for (j = 1; j <= 8; j++) {
 154:modbusRTU.c   ****                         flag = temp & 0x0001;
  43              		.loc 1 154 0
  44 0006 0124     		movs	r4, #1
 150:modbusRTU.c   ****                 temp = temp ^ buf[i];
  45              		.loc 1 150 0
  46 0008 204D     		ldr	r5, .L23
 155:modbusRTU.c   ****                         temp = temp >> 1;
 156:modbusRTU.c   ****                         if (flag)
 157:modbusRTU.c   ****                                 temp = temp ^ 0xA001;
  47              		.loc 1 157 0
  48 000a 214B     		ldr	r3, .L23+4
  49              	.LVL1:
  50              	.L19:
  51 000c 1F00     		movs	r7, r3
 151:modbusRTU.c   **** 
  52              		.loc 1 151 0
  53 000e 465C     		ldrb	r6, [r0, r1]
  54 0010 7540     		eors	r5, r6
 155:modbusRTU.c   ****                         temp = temp >> 1;
  55              		.loc 1 155 0
  56 0012 6E08     		lsrs	r6, r5, #1
  57              		.loc 1 157 0
  58 0014 7740     		eors	r7, r6
  59 0016 2C42     		tst	r4, r5
  60 0018 00D1     		bne	.L4
  61 001a 3700     		movs	r7, r6
  62              	.L4:
  63 001c 1E00     		movs	r6, r3
 155:modbusRTU.c   ****                         temp = temp >> 1;
  64              		.loc 1 155 0
  65 001e 7D08     		lsrs	r5, r7, #1
  66              		.loc 1 157 0
  67 0020 6E40     		eors	r6, r5
ARM GAS  C:\Users\AFDHAL~1\AppData\Local\Temp\ccKZJoZj.s 			page 5


  68 0022 3C42     		tst	r4, r7
  69 0024 00D1     		bne	.L6
  70 0026 2E00     		movs	r6, r5
  71              	.L6:
  72 0028 1D00     		movs	r5, r3
 155:modbusRTU.c   ****                         temp = temp >> 1;
  73              		.loc 1 155 0
  74 002a 7708     		lsrs	r7, r6, #1
  75              		.loc 1 157 0
  76 002c 7D40     		eors	r5, r7
  77 002e 3442     		tst	r4, r6
  78 0030 00D1     		bne	.L8
  79 0032 3D00     		movs	r5, r7
  80              	.L8:
  81 0034 1E00     		movs	r6, r3
 155:modbusRTU.c   ****                         temp = temp >> 1;
  82              		.loc 1 155 0
  83 0036 6F08     		lsrs	r7, r5, #1
  84              		.loc 1 157 0
  85 0038 7E40     		eors	r6, r7
  86 003a 2C42     		tst	r4, r5
  87 003c 00D1     		bne	.L10
  88 003e 3E00     		movs	r6, r7
  89              	.L10:
  90 0040 1D00     		movs	r5, r3
 155:modbusRTU.c   ****                         temp = temp >> 1;
  91              		.loc 1 155 0
  92 0042 7708     		lsrs	r7, r6, #1
  93              		.loc 1 157 0
  94 0044 7D40     		eors	r5, r7
  95 0046 3442     		tst	r4, r6
  96 0048 00D1     		bne	.L12
  97 004a 3D00     		movs	r5, r7
  98              	.L12:
  99 004c 1E00     		movs	r6, r3
 155:modbusRTU.c   ****                         temp = temp >> 1;
 100              		.loc 1 155 0
 101 004e 6F08     		lsrs	r7, r5, #1
 102              		.loc 1 157 0
 103 0050 7E40     		eors	r6, r7
 104 0052 2C42     		tst	r4, r5
 105 0054 00D1     		bne	.L14
 106 0056 3E00     		movs	r6, r7
 107              	.L14:
 108 0058 1D00     		movs	r5, r3
 155:modbusRTU.c   ****                         temp = temp >> 1;
 109              		.loc 1 155 0
 110 005a 7708     		lsrs	r7, r6, #1
 111              		.loc 1 157 0
 112 005c 7D40     		eors	r5, r7
 113 005e 3442     		tst	r4, r6
 114 0060 00D1     		bne	.L16
 115 0062 3D00     		movs	r5, r7
 116              	.L16:
 117 0064 1E00     		movs	r6, r3
 155:modbusRTU.c   ****                         temp = temp >> 1;
 118              		.loc 1 155 0
ARM GAS  C:\Users\AFDHAL~1\AppData\Local\Temp\ccKZJoZj.s 			page 6


 119 0066 6F08     		lsrs	r7, r5, #1
 120              		.loc 1 157 0
 121 0068 7E40     		eors	r6, r7
 122 006a 2C42     		tst	r4, r5
 123 006c 00D1     		bne	.L18
 124 006e 3E00     		movs	r6, r7
 125              	.L18:
 150:modbusRTU.c   ****                 temp = temp ^ buf[i];
 126              		.loc 1 150 0
 127 0070 0131     		adds	r1, r1, #1
 128 0072 C9B2     		uxtb	r1, r1
 129 0074 3500     		movs	r5, r6
 130              	.LVL2:
 131 0076 8A42     		cmp	r2, r1
 132 0078 C8D1     		bne	.L19
 133 007a 3002     		lsls	r0, r6, #8
 134              	.LVL3:
 135 007c 360A     		lsrs	r6, r6, #8
 136 007e 3043     		orrs	r0, r6
 137 0080 0004     		lsls	r0, r0, #16
 138 0082 000C     		lsrs	r0, r0, #16
 139              	.LVL4:
 140              	.L2:
 158:modbusRTU.c   ****                 }
 159:modbusRTU.c   ****         }
 160:modbusRTU.c   **** 
 161:modbusRTU.c   ****         /* Reverse byte order. */
 162:modbusRTU.c   ****         temp2 = temp >> 8;
 163:modbusRTU.c   ****         temp = (temp << 8) | temp2;
 164:modbusRTU.c   ****         temp &= 0xFFFF;
 165:modbusRTU.c   **** 
 166:modbusRTU.c   ****         return (temp);
 167:modbusRTU.c   **** }
 141              		.loc 1 167 0
 142              		@ sp needed
 143 0084 F0BD     		pop	{r4, r5, r6, r7, pc}
 144              	.LVL5:
 145              	.L20:
 150:modbusRTU.c   ****                 temp = temp ^ buf[i];
 146              		.loc 1 150 0
 147 0086 0148     		ldr	r0, .L23
 148              	.LVL6:
 149 0088 FCE7     		b	.L2
 150              	.L24:
 151 008a C046     		.align	2
 152              	.L23:
 153 008c FFFF0000 		.word	65535
 154 0090 01A00000 		.word	40961
 155              		.cfi_endproc
 156              	.LFE34:
 157              		.size	crc, .-crc
 158              		.section	.text.build_read_packet,"ax",%progbits
 159              		.align	2
 160              		.global	build_read_packet
 161              		.code	16
 162              		.thumb_func
 163              		.type	build_read_packet, %function
ARM GAS  C:\Users\AFDHAL~1\AppData\Local\Temp\ccKZJoZj.s 			page 7


 164              	build_read_packet:
 165              	.LFB35:
 168:modbusRTU.c   **** 
 169:modbusRTU.c   **** 
 170:modbusRTU.c   **** 
 171:modbusRTU.c   **** 
 172:modbusRTU.c   **** /***********************************************************************
 173:modbusRTU.c   ****  * 
 174:modbusRTU.c   ****  * 	The following functions construct the required query into
 175:modbusRTU.c   ****  * 	a modbus query packet.
 176:modbusRTU.c   ****  * 
 177:modbusRTU.c   ****  ***********************************************************************/
 178:modbusRTU.c   **** 
 179:modbusRTU.c   **** /* 
 180:modbusRTU.c   ****  * Start of the packet of a read_holding_register response 
 181:modbusRTU.c   ****  */
 182:modbusRTU.c   **** void build_read_packet(unsigned char function,
 183:modbusRTU.c   **** unsigned char count, unsigned char *packet) 
 184:modbusRTU.c   **** {
 166              		.loc 1 184 0
 167              		.cfi_startproc
 168              		@ args = 0, pretend = 0, frame = 0
 169              		@ frame_needed = 0, uses_anonymous_args = 0
 170              		@ link register save eliminated.
 171              	.LVL7:
 185:modbusRTU.c   ****         packet[SLAVE] = slave;
 172              		.loc 1 185 0
 173 0000 034B     		ldr	r3, .L26
 186:modbusRTU.c   ****         packet[FUNC] = function;
 187:modbusRTU.c   ****         packet[2] = count * 2;
 174              		.loc 1 187 0
 175 0002 4900     		lsls	r1, r1, #1
 176              	.LVL8:
 185:modbusRTU.c   ****         packet[SLAVE] = slave;
 177              		.loc 1 185 0
 178 0004 1B78     		ldrb	r3, [r3]
 186:modbusRTU.c   ****         packet[FUNC] = function;
 179              		.loc 1 186 0
 180 0006 5070     		strb	r0, [r2, #1]
 185:modbusRTU.c   ****         packet[SLAVE] = slave;
 181              		.loc 1 185 0
 182 0008 1370     		strb	r3, [r2]
 183              		.loc 1 187 0
 184 000a 9170     		strb	r1, [r2, #2]
 188:modbusRTU.c   **** } 
 185              		.loc 1 188 0
 186              		@ sp needed
 187 000c 7047     		bx	lr
 188              	.L27:
 189 000e C046     		.align	2
 190              	.L26:
 191 0010 00000000 		.word	slave
 192              		.cfi_endproc
 193              	.LFE35:
 194              		.size	build_read_packet, .-build_read_packet
 195              		.section	.text.build_write_packet,"ax",%progbits
 196              		.align	2
ARM GAS  C:\Users\AFDHAL~1\AppData\Local\Temp\ccKZJoZj.s 			page 8


 197              		.global	build_write_packet
 198              		.code	16
 199              		.thumb_func
 200              		.type	build_write_packet, %function
 201              	build_write_packet:
 202              	.LFB36:
 189:modbusRTU.c   **** 
 190:modbusRTU.c   **** /* 
 191:modbusRTU.c   ****  * Start of the packet of a preset_multiple_register response 
 192:modbusRTU.c   ****  */
 193:modbusRTU.c   **** void build_write_packet(unsigned char function,
 194:modbusRTU.c   **** unsigned int start_addr, 
 195:modbusRTU.c   **** unsigned char count,
 196:modbusRTU.c   **** unsigned char *packet) 
 197:modbusRTU.c   **** {
 203              		.loc 1 197 0
 204              		.cfi_startproc
 205              		@ args = 0, pretend = 0, frame = 0
 206              		@ frame_needed = 0, uses_anonymous_args = 0
 207              	.LVL9:
 198:modbusRTU.c   ****         packet[SLAVE] = slave;
 199:modbusRTU.c   ****         packet[FUNC] = function;
 208              		.loc 1 199 0
 209 0000 5870     		strb	r0, [r3, #1]
 200:modbusRTU.c   ****         packet[START_H] = start_addr >> 8;
 201:modbusRTU.c   ****         packet[START_L] = start_addr & 0x00ff;
 210              		.loc 1 201 0
 211 0002 D970     		strb	r1, [r3, #3]
 200:modbusRTU.c   ****         packet[START_H] = start_addr >> 8;
 212              		.loc 1 200 0
 213 0004 080A     		lsrs	r0, r1, #8
 214              	.LVL10:
 202:modbusRTU.c   ****         packet[REGS_H] = 0x00;
 215              		.loc 1 202 0
 216 0006 0021     		movs	r1, #0
 217              	.LVL11:
 197:modbusRTU.c   ****         packet[SLAVE] = slave;
 218              		.loc 1 197 0
 219 0008 10B5     		push	{r4, lr}
 220              		.cfi_def_cfa_offset 8
 221              		.cfi_offset 4, -8
 222              		.cfi_offset 14, -4
 198:modbusRTU.c   ****         packet[FUNC] = function;
 223              		.loc 1 198 0
 224 000a 034C     		ldr	r4, .L29
 200:modbusRTU.c   ****         packet[START_L] = start_addr & 0x00ff;
 225              		.loc 1 200 0
 226 000c 9870     		strb	r0, [r3, #2]
 198:modbusRTU.c   ****         packet[FUNC] = function;
 227              		.loc 1 198 0
 228 000e 2478     		ldrb	r4, [r4]
 229              		.loc 1 202 0
 230 0010 1971     		strb	r1, [r3, #4]
 198:modbusRTU.c   ****         packet[FUNC] = function;
 231              		.loc 1 198 0
 232 0012 1C70     		strb	r4, [r3]
 203:modbusRTU.c   ****         packet[REGS_L] = count;
ARM GAS  C:\Users\AFDHAL~1\AppData\Local\Temp\ccKZJoZj.s 			page 9


 233              		.loc 1 203 0
 234 0014 5A71     		strb	r2, [r3, #5]
 204:modbusRTU.c   **** } 
 235              		.loc 1 204 0
 236              		@ sp needed
 237 0016 10BD     		pop	{r4, pc}
 238              	.L30:
 239              		.align	2
 240              	.L29:
 241 0018 00000000 		.word	slave
 242              		.cfi_endproc
 243              	.LFE36:
 244              		.size	build_write_packet, .-build_write_packet
 245              		.section	.text.build_write_single_packet,"ax",%progbits
 246              		.align	2
 247              		.global	build_write_single_packet
 248              		.code	16
 249              		.thumb_func
 250              		.type	build_write_single_packet, %function
 251              	build_write_single_packet:
 252              	.LFB37:
 205:modbusRTU.c   **** 
 206:modbusRTU.c   **** /* 
 207:modbusRTU.c   ****  * Start of the packet of a write_single_register response 
 208:modbusRTU.c   ****  */
 209:modbusRTU.c   **** void build_write_single_packet(unsigned char function,
 210:modbusRTU.c   ****         unsigned int write_addr, unsigned int reg_val, unsigned char* packet) 
 211:modbusRTU.c   **** {
 253              		.loc 1 211 0
 254              		.cfi_startproc
 255              		@ args = 0, pretend = 0, frame = 0
 256              		@ frame_needed = 0, uses_anonymous_args = 0
 257              	.LVL12:
 258 0000 10B5     		push	{r4, lr}
 259              		.cfi_def_cfa_offset 8
 260              		.cfi_offset 4, -8
 261              		.cfi_offset 14, -4
 212:modbusRTU.c   ****         packet[SLAVE] = slave;
 262              		.loc 1 212 0
 263 0002 054C     		ldr	r4, .L32
 213:modbusRTU.c   ****         packet[FUNC] = function;
 264              		.loc 1 213 0
 265 0004 5870     		strb	r0, [r3, #1]
 212:modbusRTU.c   ****         packet[SLAVE] = slave;
 266              		.loc 1 212 0
 267 0006 2478     		ldrb	r4, [r4]
 214:modbusRTU.c   ****         packet[START_H] = write_addr >> 8;
 268              		.loc 1 214 0
 269 0008 080A     		lsrs	r0, r1, #8
 270              	.LVL13:
 215:modbusRTU.c   ****         packet[START_L] = write_addr & 0x00ff;
 271              		.loc 1 215 0
 272 000a D970     		strb	r1, [r3, #3]
 216:modbusRTU.c   ****         packet[REGS_H] = reg_val >> 8;
 273              		.loc 1 216 0
 274 000c 110A     		lsrs	r1, r2, #8
 275              	.LVL14:
ARM GAS  C:\Users\AFDHAL~1\AppData\Local\Temp\ccKZJoZj.s 			page 10


 212:modbusRTU.c   ****         packet[FUNC] = function;
 276              		.loc 1 212 0
 277 000e 1C70     		strb	r4, [r3]
 214:modbusRTU.c   ****         packet[START_L] = write_addr & 0x00ff;
 278              		.loc 1 214 0
 279 0010 9870     		strb	r0, [r3, #2]
 280              		.loc 1 216 0
 281 0012 1971     		strb	r1, [r3, #4]
 217:modbusRTU.c   ****         packet[REGS_L] = reg_val & 0x00ff;
 282              		.loc 1 217 0
 283 0014 5A71     		strb	r2, [r3, #5]
 218:modbusRTU.c   **** } 
 284              		.loc 1 218 0
 285              		@ sp needed
 286 0016 10BD     		pop	{r4, pc}
 287              	.L33:
 288              		.align	2
 289              	.L32:
 290 0018 00000000 		.word	slave
 291              		.cfi_endproc
 292              	.LFE37:
 293              		.size	build_write_single_packet, .-build_write_single_packet
 294              		.section	.text.build_error_packet,"ax",%progbits
 295              		.align	2
 296              		.global	build_error_packet
 297              		.code	16
 298              		.thumb_func
 299              		.type	build_error_packet, %function
 300              	build_error_packet:
 301              	.LFB38:
 219:modbusRTU.c   **** 
 220:modbusRTU.c   **** 
 221:modbusRTU.c   **** /* 
 222:modbusRTU.c   ****  * Start of the packet of an exception response 
 223:modbusRTU.c   ****  */
 224:modbusRTU.c   **** void build_error_packet( unsigned char function,
 225:modbusRTU.c   **** unsigned char exception, unsigned char *packet) 
 226:modbusRTU.c   **** {
 302              		.loc 1 226 0
 303              		.cfi_startproc
 304              		@ args = 0, pretend = 0, frame = 0
 305              		@ frame_needed = 0, uses_anonymous_args = 0
 306              		@ link register save eliminated.
 307              	.LVL15:
 227:modbusRTU.c   ****         packet[SLAVE] = slave;
 308              		.loc 1 227 0
 309 0000 034B     		ldr	r3, .L35
 228:modbusRTU.c   ****         packet[FUNC] = function + 0x80;
 310              		.loc 1 228 0
 311 0002 8038     		subs	r0, r0, #128
 312              	.LVL16:
 227:modbusRTU.c   ****         packet[SLAVE] = slave;
 313              		.loc 1 227 0
 314 0004 1B78     		ldrb	r3, [r3]
 315              		.loc 1 228 0
 316 0006 5070     		strb	r0, [r2, #1]
 227:modbusRTU.c   ****         packet[SLAVE] = slave;
ARM GAS  C:\Users\AFDHAL~1\AppData\Local\Temp\ccKZJoZj.s 			page 11


 317              		.loc 1 227 0
 318 0008 1370     		strb	r3, [r2]
 229:modbusRTU.c   ****         packet[2] = exception;
 319              		.loc 1 229 0
 320 000a 9170     		strb	r1, [r2, #2]
 230:modbusRTU.c   **** } 
 321              		.loc 1 230 0
 322              		@ sp needed
 323 000c 7047     		bx	lr
 324              	.L36:
 325 000e C046     		.align	2
 326              	.L35:
 327 0010 00000000 		.word	slave
 328              		.cfi_endproc
 329              	.LFE38:
 330              		.size	build_error_packet, .-build_error_packet
 331              		.section	.text.modbus_reply,"ax",%progbits
 332              		.align	2
 333              		.global	modbus_reply
 334              		.code	16
 335              		.thumb_func
 336              		.type	modbus_reply, %function
 337              	modbus_reply:
 338              	.LFB39:
 231:modbusRTU.c   **** 
 232:modbusRTU.c   **** 
 233:modbusRTU.c   **** /*************************************************************************
 234:modbusRTU.c   ****  * 
 235:modbusRTU.c   ****  * modbus_query( packet, length)
 236:modbusRTU.c   ****  * 
 237:modbusRTU.c   ****  * Function to add a checksum to the end of a packet.
 238:modbusRTU.c   ****  * Please note that the packet array must be at least 2 fields longer than
 239:modbusRTU.c   ****  * string_length.
 240:modbusRTU.c   ****  **************************************************************************/
 241:modbusRTU.c   **** 
 242:modbusRTU.c   **** void modbus_reply(unsigned char *packet, unsigned char string_length) 
 243:modbusRTU.c   **** {
 339              		.loc 1 243 0
 340              		.cfi_startproc
 341              		@ args = 0, pretend = 0, frame = 0
 342              		@ frame_needed = 0, uses_anonymous_args = 0
 343              	.LVL17:
 344 0000 F0B5     		push	{r4, r5, r6, r7, lr}
 345              		.cfi_def_cfa_offset 20
 346              		.cfi_offset 4, -20
 347              		.cfi_offset 5, -16
 348              		.cfi_offset 6, -12
 349              		.cfi_offset 7, -8
 350              		.cfi_offset 14, -4
 351              		.loc 1 243 0
 352 0002 8446     		mov	ip, r0
 353              	.LBB21:
 354              	.LBB22:
 150:modbusRTU.c   ****                 temp = temp ^ buf[i];
 355              		.loc 1 150 0
 356 0004 0029     		cmp	r1, #0
 357 0006 4AD0     		beq	.L56
ARM GAS  C:\Users\AFDHAL~1\AppData\Local\Temp\ccKZJoZj.s 			page 12


 358 0008 0500     		movs	r5, r0
 154:modbusRTU.c   ****                         temp = temp >> 1;
 359              		.loc 1 154 0
 360 000a 0122     		movs	r2, #1
 361 000c 4F1E     		subs	r7, r1, #1
 362 000e FFB2     		uxtb	r7, r7
 363 0010 0137     		adds	r7, r7, #1
 150:modbusRTU.c   ****                 temp = temp ^ buf[i];
 364              		.loc 1 150 0
 365 0012 244C     		ldr	r4, .L58
 157:modbusRTU.c   ****                 }
 366              		.loc 1 157 0
 367 0014 244B     		ldr	r3, .L58+4
 368 0016 6744     		add	r7, r7, ip
 369              	.LVL18:
 370              	.L55:
 371 0018 1800     		movs	r0, r3
 151:modbusRTU.c   **** 
 372              		.loc 1 151 0
 373 001a 2E78     		ldrb	r6, [r5]
 374 001c 7440     		eors	r4, r6
 155:modbusRTU.c   ****                         if (flag)
 375              		.loc 1 155 0
 376 001e 6608     		lsrs	r6, r4, #1
 157:modbusRTU.c   ****                 }
 377              		.loc 1 157 0
 378 0020 7040     		eors	r0, r6
 379 0022 2242     		tst	r2, r4
 380 0024 00D1     		bne	.L40
 381 0026 3000     		movs	r0, r6
 382              	.L40:
 383 0028 1E00     		movs	r6, r3
 155:modbusRTU.c   ****                         if (flag)
 384              		.loc 1 155 0
 385 002a 4408     		lsrs	r4, r0, #1
 157:modbusRTU.c   ****                 }
 386              		.loc 1 157 0
 387 002c 6640     		eors	r6, r4
 388 002e 0242     		tst	r2, r0
 389 0030 00D1     		bne	.L42
 390 0032 2600     		movs	r6, r4
 391              	.L42:
 392 0034 1C00     		movs	r4, r3
 155:modbusRTU.c   ****                         if (flag)
 393              		.loc 1 155 0
 394 0036 7008     		lsrs	r0, r6, #1
 157:modbusRTU.c   ****                 }
 395              		.loc 1 157 0
 396 0038 4440     		eors	r4, r0
 397 003a 3242     		tst	r2, r6
 398 003c 00D1     		bne	.L44
 399 003e 0400     		movs	r4, r0
 400              	.L44:
 401 0040 1E00     		movs	r6, r3
 155:modbusRTU.c   ****                         if (flag)
 402              		.loc 1 155 0
 403 0042 6008     		lsrs	r0, r4, #1
ARM GAS  C:\Users\AFDHAL~1\AppData\Local\Temp\ccKZJoZj.s 			page 13


 157:modbusRTU.c   ****                 }
 404              		.loc 1 157 0
 405 0044 4640     		eors	r6, r0
 406 0046 2242     		tst	r2, r4
 407 0048 00D1     		bne	.L46
 408 004a 0600     		movs	r6, r0
 409              	.L46:
 410 004c 1C00     		movs	r4, r3
 155:modbusRTU.c   ****                         if (flag)
 411              		.loc 1 155 0
 412 004e 7008     		lsrs	r0, r6, #1
 157:modbusRTU.c   ****                 }
 413              		.loc 1 157 0
 414 0050 4440     		eors	r4, r0
 415 0052 3242     		tst	r2, r6
 416 0054 00D1     		bne	.L48
 417 0056 0400     		movs	r4, r0
 418              	.L48:
 419 0058 1E00     		movs	r6, r3
 155:modbusRTU.c   ****                         if (flag)
 420              		.loc 1 155 0
 421 005a 6008     		lsrs	r0, r4, #1
 157:modbusRTU.c   ****                 }
 422              		.loc 1 157 0
 423 005c 4640     		eors	r6, r0
 424 005e 2242     		tst	r2, r4
 425 0060 00D1     		bne	.L50
 426 0062 0600     		movs	r6, r0
 427              	.L50:
 428 0064 1C00     		movs	r4, r3
 155:modbusRTU.c   ****                         if (flag)
 429              		.loc 1 155 0
 430 0066 7008     		lsrs	r0, r6, #1
 157:modbusRTU.c   ****                 }
 431              		.loc 1 157 0
 432 0068 4440     		eors	r4, r0
 433 006a 3242     		tst	r2, r6
 434 006c 00D1     		bne	.L52
 435 006e 0400     		movs	r4, r0
 436              	.L52:
 437 0070 1E00     		movs	r6, r3
 155:modbusRTU.c   ****                         if (flag)
 438              		.loc 1 155 0
 439 0072 6008     		lsrs	r0, r4, #1
 157:modbusRTU.c   ****                 }
 440              		.loc 1 157 0
 441 0074 4640     		eors	r6, r0
 442 0076 2242     		tst	r2, r4
 443 0078 00D1     		bne	.L54
 444 007a 0600     		movs	r6, r0
 445              	.L54:
 446 007c 0135     		adds	r5, r5, #1
 447 007e 3400     		movs	r4, r6
 448              	.LVL19:
 150:modbusRTU.c   ****                 temp = temp ^ buf[i];
 449              		.loc 1 150 0
 450 0080 AF42     		cmp	r7, r5
ARM GAS  C:\Users\AFDHAL~1\AppData\Local\Temp\ccKZJoZj.s 			page 14


 451 0082 C9D1     		bne	.L55
 452 0084 3302     		lsls	r3, r6, #8
 453 0086 360A     		lsrs	r6, r6, #8
 454 0088 3343     		orrs	r3, r6
 455 008a 1B04     		lsls	r3, r3, #16
 456 008c 1B0C     		lsrs	r3, r3, #16
 457 008e 1A0A     		lsrs	r2, r3, #8
 458 0090 DBB2     		uxtb	r3, r3
 459              	.LVL20:
 460              	.L38:
 461              	.LBE22:
 462              	.LBE21:
 244:modbusRTU.c   ****         int temp_crc;
 245:modbusRTU.c   **** 
 246:modbusRTU.c   ****         temp_crc = crc(packet, 0, string_length);
 247:modbusRTU.c   ****         packet[string_length] = temp_crc >> 8;
 463              		.loc 1 247 0
 464 0092 6046     		mov	r0, ip
 465 0094 4254     		strb	r2, [r0, r1]
 466              	.LVL21:
 248:modbusRTU.c   ****         string_length++;
 249:modbusRTU.c   ****         packet[string_length] = temp_crc & 0x00FF;
 467              		.loc 1 249 0
 468 0096 0131     		adds	r1, r1, #1
 469              	.LVL22:
 470 0098 C9B2     		uxtb	r1, r1
 471 009a 4354     		strb	r3, [r0, r1]
 250:modbusRTU.c   **** } 
 472              		.loc 1 250 0
 473              		@ sp needed
 474 009c F0BD     		pop	{r4, r5, r6, r7, pc}
 475              	.LVL23:
 476              	.L56:
 477              	.LBB24:
 478              	.LBB23:
 150:modbusRTU.c   ****                 temp = temp ^ buf[i];
 479              		.loc 1 150 0
 480 009e FF23     		movs	r3, #255
 481 00a0 FF22     		movs	r2, #255
 482 00a2 F6E7     		b	.L38
 483              	.L59:
 484              		.align	2
 485              	.L58:
 486 00a4 FFFF0000 		.word	65535
 487 00a8 01A00000 		.word	40961
 488              	.LBE23:
 489              	.LBE24:
 490              		.cfi_endproc
 491              	.LFE39:
 492              		.size	modbus_reply, .-modbus_reply
 493              		.section	.text.send_reply,"ax",%progbits
 494              		.align	2
 495              		.global	send_reply
 496              		.code	16
 497              		.thumb_func
 498              		.type	send_reply, %function
 499              	send_reply:
ARM GAS  C:\Users\AFDHAL~1\AppData\Local\Temp\ccKZJoZj.s 			page 15


 500              	.LFB40:
 251:modbusRTU.c   **** 
 252:modbusRTU.c   **** 
 253:modbusRTU.c   **** 
 254:modbusRTU.c   **** /***********************************************************************
 255:modbusRTU.c   ****  * 
 256:modbusRTU.c   ****  * send_reply( query_string, query_length )
 257:modbusRTU.c   ****  * 
 258:modbusRTU.c   ****  * Function to send a reply to a modbus master.
 259:modbusRTU.c   ****  * Returns: total number of characters sent
 260:modbusRTU.c   ****  ************************************************************************/
 261:modbusRTU.c   **** 
 262:modbusRTU.c   **** int send_reply(unsigned char *query, unsigned char string_length) 
 263:modbusRTU.c   **** {
 501              		.loc 1 263 0
 502              		.cfi_startproc
 503              		@ args = 0, pretend = 0, frame = 0
 504              		@ frame_needed = 0, uses_anonymous_args = 0
 505              	.LVL24:
 506 0000 F8B5     		push	{r3, r4, r5, r6, r7, lr}
 507              		.cfi_def_cfa_offset 24
 508              		.cfi_offset 3, -24
 509              		.cfi_offset 4, -20
 510              		.cfi_offset 5, -16
 511              		.cfi_offset 6, -12
 512              		.cfi_offset 7, -8
 513              		.cfi_offset 14, -4
 514              		.loc 1 263 0
 515 0002 8C46     		mov	ip, r1
 516              	.LBB29:
 517              	.LBB30:
 518              	.LBB31:
 519              	.LBB32:
 150:modbusRTU.c   ****                 temp = temp ^ buf[i];
 520              		.loc 1 150 0
 521 0004 0029     		cmp	r1, #0
 522 0006 57D0     		beq	.L61
 523 0008 0500     		movs	r5, r0
 154:modbusRTU.c   ****                         temp = temp >> 1;
 524              		.loc 1 154 0
 525 000a 0122     		movs	r2, #1
 526 000c 4F1E     		subs	r7, r1, #1
 527 000e FFB2     		uxtb	r7, r7
 528 0010 0137     		adds	r7, r7, #1
 150:modbusRTU.c   ****                 temp = temp ^ buf[i];
 529              		.loc 1 150 0
 530 0012 2D4C     		ldr	r4, .L86
 157:modbusRTU.c   ****                 }
 531              		.loc 1 157 0
 532 0014 2D4B     		ldr	r3, .L86+4
 533 0016 C719     		adds	r7, r0, r7
 534              	.LVL25:
 535              	.L78:
 536 0018 1900     		movs	r1, r3
 151:modbusRTU.c   **** 
 537              		.loc 1 151 0
 538 001a 2E78     		ldrb	r6, [r5]
ARM GAS  C:\Users\AFDHAL~1\AppData\Local\Temp\ccKZJoZj.s 			page 16


 539 001c 7440     		eors	r4, r6
 155:modbusRTU.c   ****                         if (flag)
 540              		.loc 1 155 0
 541 001e 6608     		lsrs	r6, r4, #1
 157:modbusRTU.c   ****                 }
 542              		.loc 1 157 0
 543 0020 7140     		eors	r1, r6
 544 0022 2242     		tst	r2, r4
 545 0024 00D1     		bne	.L63
 546 0026 3100     		movs	r1, r6
 547              	.L63:
 548 0028 1E00     		movs	r6, r3
 155:modbusRTU.c   ****                         if (flag)
 549              		.loc 1 155 0
 550 002a 4C08     		lsrs	r4, r1, #1
 157:modbusRTU.c   ****                 }
 551              		.loc 1 157 0
 552 002c 6640     		eors	r6, r4
 553 002e 0A42     		tst	r2, r1
 554 0030 00D1     		bne	.L65
 555 0032 2600     		movs	r6, r4
 556              	.L65:
 557 0034 1C00     		movs	r4, r3
 155:modbusRTU.c   ****                         if (flag)
 558              		.loc 1 155 0
 559 0036 7108     		lsrs	r1, r6, #1
 157:modbusRTU.c   ****                 }
 560              		.loc 1 157 0
 561 0038 4C40     		eors	r4, r1
 562 003a 3242     		tst	r2, r6
 563 003c 00D1     		bne	.L67
 564 003e 0C00     		movs	r4, r1
 565              	.L67:
 566 0040 1E00     		movs	r6, r3
 155:modbusRTU.c   ****                         if (flag)
 567              		.loc 1 155 0
 568 0042 6108     		lsrs	r1, r4, #1
 157:modbusRTU.c   ****                 }
 569              		.loc 1 157 0
 570 0044 4E40     		eors	r6, r1
 571 0046 2242     		tst	r2, r4
 572 0048 00D1     		bne	.L69
 573 004a 0E00     		movs	r6, r1
 574              	.L69:
 575 004c 1C00     		movs	r4, r3
 155:modbusRTU.c   ****                         if (flag)
 576              		.loc 1 155 0
 577 004e 7108     		lsrs	r1, r6, #1
 157:modbusRTU.c   ****                 }
 578              		.loc 1 157 0
 579 0050 4C40     		eors	r4, r1
 580 0052 3242     		tst	r2, r6
 581 0054 00D1     		bne	.L71
 582 0056 0C00     		movs	r4, r1
 583              	.L71:
 584 0058 1E00     		movs	r6, r3
 155:modbusRTU.c   ****                         if (flag)
ARM GAS  C:\Users\AFDHAL~1\AppData\Local\Temp\ccKZJoZj.s 			page 17


 585              		.loc 1 155 0
 586 005a 6108     		lsrs	r1, r4, #1
 157:modbusRTU.c   ****                 }
 587              		.loc 1 157 0
 588 005c 4E40     		eors	r6, r1
 589 005e 2242     		tst	r2, r4
 590 0060 00D1     		bne	.L73
 591 0062 0E00     		movs	r6, r1
 592              	.L73:
 593 0064 1C00     		movs	r4, r3
 155:modbusRTU.c   ****                         if (flag)
 594              		.loc 1 155 0
 595 0066 7108     		lsrs	r1, r6, #1
 157:modbusRTU.c   ****                 }
 596              		.loc 1 157 0
 597 0068 4C40     		eors	r4, r1
 598 006a 3242     		tst	r2, r6
 599 006c 00D1     		bne	.L75
 600 006e 0C00     		movs	r4, r1
 601              	.L75:
 602 0070 1E00     		movs	r6, r3
 155:modbusRTU.c   ****                         if (flag)
 603              		.loc 1 155 0
 604 0072 6108     		lsrs	r1, r4, #1
 157:modbusRTU.c   ****                 }
 605              		.loc 1 157 0
 606 0074 4E40     		eors	r6, r1
 607 0076 2242     		tst	r2, r4
 608 0078 00D1     		bne	.L77
 609 007a 0E00     		movs	r6, r1
 610              	.L77:
 611 007c 0135     		adds	r5, r5, #1
 612 007e 3400     		movs	r4, r6
 613              	.LVL26:
 150:modbusRTU.c   ****                 temp = temp ^ buf[i];
 614              		.loc 1 150 0
 615 0080 BD42     		cmp	r5, r7
 616 0082 C9D1     		bne	.L78
 617              	.LBE32:
 618              	.LBE31:
 247:modbusRTU.c   ****         string_length++;
 619              		.loc 1 247 0
 620 0084 6146     		mov	r1, ip
 621 0086 330A     		lsrs	r3, r6, #8
 622 0088 3602     		lsls	r6, r6, #8
 623 008a 3343     		orrs	r3, r6
 624 008c 1B04     		lsls	r3, r3, #16
 625 008e 1B0C     		lsrs	r3, r3, #16
 626              	.LVL27:
 627 0090 1A12     		asrs	r2, r3, #8
 628 0092 4254     		strb	r2, [r0, r1]
 629              	.LVL28:
 249:modbusRTU.c   **** } 
 630              		.loc 1 249 0
 631 0094 4D1C     		adds	r5, r1, #1
 632              	.LBE30:
 633              	.LBE29:
ARM GAS  C:\Users\AFDHAL~1\AppData\Local\Temp\ccKZJoZj.s 			page 18


 264:modbusRTU.c   ****         unsigned char i;
 265:modbusRTU.c   **** 
 266:modbusRTU.c   ****         modbus_reply(query, string_length);
 267:modbusRTU.c   ****         string_length += 2;
 634              		.loc 1 267 0
 635 0096 0231     		adds	r1, r1, #2
 636              	.LBB36:
 637              	.LBB33:
 249:modbusRTU.c   **** } 
 638              		.loc 1 249 0
 639 0098 EDB2     		uxtb	r5, r5
 640              	.LBE33:
 641              	.LBE36:
 642              		.loc 1 267 0
 643 009a CEB2     		uxtb	r6, r1
 644              	.LBB37:
 645              	.LBB34:
 249:modbusRTU.c   **** } 
 646              		.loc 1 249 0
 647 009c 4355     		strb	r3, [r0, r5]
 648              	.LVL29:
 649              	.LBE34:
 650              	.LBE37:
 268:modbusRTU.c   **** 
 269:modbusRTU.c   ****         //used for portability
 270:modbusRTU.c   ****         for (i = 0; i < string_length; i++) {
 651              		.loc 1 270 0
 652 009e 002E     		cmp	r6, #0
 653 00a0 10D0     		beq	.L82
 654              	.LVL30:
 655              	.L81:
 656 00a2 0400     		movs	r4, r0
 657 00a4 0135     		adds	r5, r5, #1
 658 00a6 4519     		adds	r5, r0, r5
 659              	.LVL31:
 660              	.L80:
 271:modbusRTU.c   ****                 //Serial.print(char(query[i]));
 272:modbusRTU.c   ****                 USB_UART_SpiUartWriteTxData((char)query[i]);
 661              		.loc 1 272 0 discriminator 3
 662 00a8 2078     		ldrb	r0, [r4]
 663 00aa 0134     		adds	r4, r4, #1
 664              	.LVL32:
 665 00ac FFF7FEFF 		bl	USB_UART_SpiUartWriteTxData
 666              	.LVL33:
 270:modbusRTU.c   ****                 //Serial.print(char(query[i]));
 667              		.loc 1 270 0 discriminator 3
 668 00b0 A542     		cmp	r5, r4
 669 00b2 F9D1     		bne	.L80
 670 00b4 3000     		movs	r0, r6
 671              	.L85:
 273:modbusRTU.c   ****         }
 274:modbusRTU.c   ****         
 275:modbusRTU.c   ****         //experimental
 276:modbusRTU.c   ****         //USB_UART_SpiUartPutArray(query, string_length);
 277:modbusRTU.c   **** 
 278:modbusRTU.c   ****         return i; 		/* it does not mean that the write was succesful, though */
 279:modbusRTU.c   **** }
ARM GAS  C:\Users\AFDHAL~1\AppData\Local\Temp\ccKZJoZj.s 			page 19


 672              		.loc 1 279 0
 673              		@ sp needed
 674              	.LVL34:
 675 00b6 F8BD     		pop	{r3, r4, r5, r6, r7, pc}
 676              	.LVL35:
 677              	.L61:
 678              	.LBB38:
 679              	.LBB35:
 247:modbusRTU.c   ****         string_length++;
 680              		.loc 1 247 0
 681 00b8 FF23     		movs	r3, #255
 249:modbusRTU.c   **** } 
 682              		.loc 1 249 0
 683 00ba 0125     		movs	r5, #1
 247:modbusRTU.c   ****         string_length++;
 684              		.loc 1 247 0
 685 00bc 0370     		strb	r3, [r0]
 686              	.LVL36:
 249:modbusRTU.c   **** } 
 687              		.loc 1 249 0
 688 00be 4370     		strb	r3, [r0, #1]
 689              	.LVL37:
 690              	.LBE35:
 691              	.LBE38:
 267:modbusRTU.c   **** 
 692              		.loc 1 267 0
 693 00c0 0226     		movs	r6, #2
 694 00c2 EEE7     		b	.L81
 695              	.LVL38:
 696              	.L82:
 270:modbusRTU.c   ****                 //Serial.print(char(query[i]));
 697              		.loc 1 270 0
 698 00c4 0020     		movs	r0, #0
 699              	.LVL39:
 278:modbusRTU.c   **** }
 700              		.loc 1 278 0
 701 00c6 F6E7     		b	.L85
 702              	.L87:
 703              		.align	2
 704              	.L86:
 705 00c8 FFFF0000 		.word	65535
 706 00cc 01A00000 		.word	40961
 707              		.cfi_endproc
 708              	.LFE40:
 709              		.size	send_reply, .-send_reply
 710              		.section	.text.receive_request,"ax",%progbits
 711              		.align	2
 712              		.global	receive_request
 713              		.code	16
 714              		.thumb_func
 715              		.type	receive_request, %function
 716              	receive_request:
 717              	.LFB41:
 280:modbusRTU.c   **** 
 281:modbusRTU.c   **** /***********************************************************************
 282:modbusRTU.c   ****  * 
 283:modbusRTU.c   ****  * 	receive_request( array_for_data )
ARM GAS  C:\Users\AFDHAL~1\AppData\Local\Temp\ccKZJoZj.s 			page 20


 284:modbusRTU.c   ****  * 
 285:modbusRTU.c   ****  * Function to monitor for a request from the modbus master.
 286:modbusRTU.c   ****  * 
 287:modbusRTU.c   ****  * Returns:	Total number of characters received if OK
 288:modbusRTU.c   ****  * 0 if there is no request 
 289:modbusRTU.c   ****  * A negative error code on failure
 290:modbusRTU.c   ****  ***********************************************************************/
 291:modbusRTU.c   **** 
 292:modbusRTU.c   **** int receive_request(unsigned char *received_string) 
 293:modbusRTU.c   **** {
 718              		.loc 1 293 0
 719              		.cfi_startproc
 720              		@ args = 0, pretend = 0, frame = 0
 721              		@ frame_needed = 0, uses_anonymous_args = 0
 722              	.LVL40:
 723 0000 70B5     		push	{r4, r5, r6, lr}
 724              		.cfi_def_cfa_offset 16
 725              		.cfi_offset 4, -16
 726              		.cfi_offset 5, -12
 727              		.cfi_offset 6, -8
 728              		.cfi_offset 14, -4
 294:modbusRTU.c   ****         int bytes_received = 0;
 295:modbusRTU.c   **** 
 296:modbusRTU.c   ****         /* FIXME: does Serial.available wait 1.5T or 3.5T before exiting the loop? */
 297:modbusRTU.c   ****         //while (Serial.available()) {
 298:modbusRTU.c   ****         while (USB_UART_SpiUartGetRxBufferSize()) {
 299:modbusRTU.c   ****                 //received_string[bytes_received] = Serial.read();
 300:modbusRTU.c   ****                 received_string[bytes_received] = USB_UART_UartGetByte();
 301:modbusRTU.c   ****                 //Serial.print(received_string[bytes_received], DEC);
 302:modbusRTU.c   ****                 bytes_received++;
 303:modbusRTU.c   ****                 if (bytes_received >= MAX_MESSAGE_LENGTH)
 729              		.loc 1 303 0
 730 0002 8025     		movs	r5, #128
 293:modbusRTU.c   ****         int bytes_received = 0;
 731              		.loc 1 293 0
 732 0004 0600     		movs	r6, r0
 294:modbusRTU.c   ****         int bytes_received = 0;
 733              		.loc 1 294 0
 734 0006 0024     		movs	r4, #0
 735              		.loc 1 303 0
 736 0008 6D00     		lsls	r5, r5, #1
 298:modbusRTU.c   ****                 //received_string[bytes_received] = Serial.read();
 737              		.loc 1 298 0
 738 000a 05E0     		b	.L89
 739              	.LVL41:
 740              	.L91:
 300:modbusRTU.c   ****                 //Serial.print(received_string[bytes_received], DEC);
 741              		.loc 1 300 0
 742 000c FFF7FEFF 		bl	USB_UART_UartGetByte
 743              	.LVL42:
 744 0010 3055     		strb	r0, [r6, r4]
 302:modbusRTU.c   ****                 if (bytes_received >= MAX_MESSAGE_LENGTH)
 745              		.loc 1 302 0
 746 0012 0134     		adds	r4, r4, #1
 747              	.LVL43:
 748              		.loc 1 303 0
 749 0014 AC42     		cmp	r4, r5
ARM GAS  C:\Users\AFDHAL~1\AppData\Local\Temp\ccKZJoZj.s 			page 21


 750 0016 05D0     		beq	.L92
 751              	.LVL44:
 752              	.L89:
 298:modbusRTU.c   ****                 //received_string[bytes_received] = Serial.read();
 753              		.loc 1 298 0
 754 0018 FFF7FEFF 		bl	USB_UART_SpiUartGetRxBufferSize
 755              	.LVL45:
 756 001c 0028     		cmp	r0, #0
 757 001e F5D1     		bne	.L91
 758 0020 2000     		movs	r0, r4
 759              	.L90:
 304:modbusRTU.c   ****                         return NO_REPLY; 	/* port error */
 305:modbusRTU.c   ****         }
 306:modbusRTU.c   **** 
 307:modbusRTU.c   ****         return (bytes_received);
 308:modbusRTU.c   **** }
 760              		.loc 1 308 0
 761              		@ sp needed
 762              	.LVL46:
 763              	.LVL47:
 764 0022 70BD     		pop	{r4, r5, r6, pc}
 765              	.LVL48:
 766              	.L92:
 304:modbusRTU.c   ****                         return NO_REPLY; 	/* port error */
 767              		.loc 1 304 0
 768 0024 0120     		movs	r0, #1
 769 0026 4042     		rsbs	r0, r0, #0
 770 0028 FBE7     		b	.L90
 771              		.cfi_endproc
 772              	.LFE41:
 773              		.size	receive_request, .-receive_request
 774 002a C046     		.section	.text.modbus_request,"ax",%progbits
 775              		.align	2
 776              		.global	modbus_request
 777              		.code	16
 778              		.thumb_func
 779              		.type	modbus_request, %function
 780              	modbus_request:
 781              	.LFB42:
 309:modbusRTU.c   **** 
 310:modbusRTU.c   **** 
 311:modbusRTU.c   **** /*********************************************************************
 312:modbusRTU.c   ****  * 
 313:modbusRTU.c   ****  * 	modbus_request(request_data_array)
 314:modbusRTU.c   ****  * 
 315:modbusRTU.c   ****  * Function to the correct request is returned and that the checksum
 316:modbusRTU.c   ****  * is correct.
 317:modbusRTU.c   ****  * 
 318:modbusRTU.c   ****  * Returns:	string_length if OK
 319:modbusRTU.c   ****  * 		0 if failed
 320:modbusRTU.c   ****  * 		Less than 0 for exception errors
 321:modbusRTU.c   ****  * 
 322:modbusRTU.c   ****  * 	Note: All functions used for sending or receiving data via
 323:modbusRTU.c   ****  * 	      modbus return these return values.
 324:modbusRTU.c   ****  * 
 325:modbusRTU.c   ****  **********************************************************************/
 326:modbusRTU.c   **** 
ARM GAS  C:\Users\AFDHAL~1\AppData\Local\Temp\ccKZJoZj.s 			page 22


 327:modbusRTU.c   **** int modbus_request(unsigned char *data) 
 328:modbusRTU.c   **** {
 782              		.loc 1 328 0
 783              		.cfi_startproc
 784              		@ args = 0, pretend = 0, frame = 0
 785              		@ frame_needed = 0, uses_anonymous_args = 0
 786              	.LVL49:
 787 0000 F8B5     		push	{r3, r4, r5, r6, r7, lr}
 788              		.cfi_def_cfa_offset 24
 789              		.cfi_offset 3, -24
 790              		.cfi_offset 4, -20
 791              		.cfi_offset 5, -16
 792              		.cfi_offset 6, -12
 793              		.cfi_offset 7, -8
 794              		.cfi_offset 14, -4
 795              	.LBB43:
 796              	.LBB44:
 303:modbusRTU.c   ****                         return NO_REPLY; 	/* port error */
 797              		.loc 1 303 0
 798 0002 8026     		movs	r6, #128
 799              	.LBE44:
 800              	.LBE43:
 801              		.loc 1 328 0
 802 0004 0500     		movs	r5, r0
 803              	.LVL50:
 804              	.LBB47:
 805              	.LBB45:
 294:modbusRTU.c   **** 
 806              		.loc 1 294 0
 807 0006 0024     		movs	r4, #0
 303:modbusRTU.c   ****                         return NO_REPLY; 	/* port error */
 808              		.loc 1 303 0
 809 0008 7600     		lsls	r6, r6, #1
 810 000a 05E0     		b	.L94
 811              	.LVL51:
 812              	.L96:
 300:modbusRTU.c   ****                 //Serial.print(received_string[bytes_received], DEC);
 813              		.loc 1 300 0
 814 000c FFF7FEFF 		bl	USB_UART_UartGetByte
 815              	.LVL52:
 816 0010 2855     		strb	r0, [r5, r4]
 302:modbusRTU.c   ****                 if (bytes_received >= MAX_MESSAGE_LENGTH)
 817              		.loc 1 302 0
 818 0012 0134     		adds	r4, r4, #1
 819              	.LVL53:
 303:modbusRTU.c   ****                         return NO_REPLY; 	/* port error */
 820              		.loc 1 303 0
 821 0014 B442     		cmp	r4, r6
 822 0016 5CD0     		beq	.L115
 823              	.LVL54:
 824              	.L94:
 298:modbusRTU.c   ****                 //received_string[bytes_received] = Serial.read();
 825              		.loc 1 298 0
 826 0018 FFF7FEFF 		bl	USB_UART_SpiUartGetRxBufferSize
 827              	.LVL55:
 828 001c 0028     		cmp	r0, #0
 829 001e F5D1     		bne	.L96
ARM GAS  C:\Users\AFDHAL~1\AppData\Local\Temp\ccKZJoZj.s 			page 23


 830              	.LVL56:
 831              	.LBE45:
 832              	.LBE47:
 329:modbusRTU.c   ****         int response_length;
 330:modbusRTU.c   ****         unsigned int crc_calc = 0;
 331:modbusRTU.c   ****         unsigned int crc_received = 0;
 332:modbusRTU.c   ****         //unsigned char recv_crc_hi;
 333:modbusRTU.c   ****         //unsigned char recv_crc_lo;
 334:modbusRTU.c   **** 
 335:modbusRTU.c   ****         response_length = receive_request(data);
 336:modbusRTU.c   **** 
 337:modbusRTU.c   ****         if (response_length > 0) {
 833              		.loc 1 337 0
 834 0020 002C     		cmp	r4, #0
 835 0022 5BD0     		beq	.L116
 338:modbusRTU.c   ****                 crc_calc = crc(data, 0, response_length - 2);
 836              		.loc 1 338 0
 837 0024 E3B2     		uxtb	r3, r4
 838              	.LVL57:
 839              	.LBB48:
 840              	.LBB49:
 150:modbusRTU.c   ****                 temp = temp ^ buf[i];
 841              		.loc 1 150 0
 842 0026 022B     		cmp	r3, #2
 843 0028 56D0     		beq	.L117
 844 002a 033B     		subs	r3, r3, #3
 845              	.LVL58:
 846 002c DFB2     		uxtb	r7, r3
 847 002e 0137     		adds	r7, r7, #1
 848 0030 BC46     		mov	ip, r7
 849 0032 2800     		movs	r0, r5
 154:modbusRTU.c   ****                         temp = temp >> 1;
 850              		.loc 1 154 0
 851 0034 0122     		movs	r2, #1
 150:modbusRTU.c   ****                 temp = temp ^ buf[i];
 852              		.loc 1 150 0
 853 0036 2A49     		ldr	r1, .L120
 157:modbusRTU.c   ****                 }
 854              		.loc 1 157 0
 855 0038 2A4B     		ldr	r3, .L120+4
 856              	.LVL59:
 857 003a AC44     		add	ip, ip, r5
 858              	.LVL60:
 859              	.L114:
 860 003c 1F00     		movs	r7, r3
 151:modbusRTU.c   **** 
 861              		.loc 1 151 0
 862 003e 0678     		ldrb	r6, [r0]
 863 0040 7140     		eors	r1, r6
 155:modbusRTU.c   ****                         if (flag)
 864              		.loc 1 155 0
 865 0042 4E08     		lsrs	r6, r1, #1
 157:modbusRTU.c   ****                 }
 866              		.loc 1 157 0
 867 0044 7740     		eors	r7, r6
 868 0046 0A42     		tst	r2, r1
 869 0048 00D1     		bne	.L99
ARM GAS  C:\Users\AFDHAL~1\AppData\Local\Temp\ccKZJoZj.s 			page 24


 870 004a 3700     		movs	r7, r6
 871              	.L99:
 872 004c 1E00     		movs	r6, r3
 155:modbusRTU.c   ****                         if (flag)
 873              		.loc 1 155 0
 874 004e 7908     		lsrs	r1, r7, #1
 157:modbusRTU.c   ****                 }
 875              		.loc 1 157 0
 876 0050 4E40     		eors	r6, r1
 877 0052 3A42     		tst	r2, r7
 878 0054 00D1     		bne	.L101
 879 0056 0E00     		movs	r6, r1
 880              	.L101:
 881 0058 1900     		movs	r1, r3
 155:modbusRTU.c   ****                         if (flag)
 882              		.loc 1 155 0
 883 005a 7708     		lsrs	r7, r6, #1
 157:modbusRTU.c   ****                 }
 884              		.loc 1 157 0
 885 005c 7940     		eors	r1, r7
 886 005e 3242     		tst	r2, r6
 887 0060 00D1     		bne	.L103
 888 0062 3900     		movs	r1, r7
 889              	.L103:
 890 0064 1E00     		movs	r6, r3
 155:modbusRTU.c   ****                         if (flag)
 891              		.loc 1 155 0
 892 0066 4F08     		lsrs	r7, r1, #1
 157:modbusRTU.c   ****                 }
 893              		.loc 1 157 0
 894 0068 7E40     		eors	r6, r7
 895 006a 0A42     		tst	r2, r1
 896 006c 00D1     		bne	.L105
 897 006e 3E00     		movs	r6, r7
 898              	.L105:
 899 0070 1900     		movs	r1, r3
 155:modbusRTU.c   ****                         if (flag)
 900              		.loc 1 155 0
 901 0072 7708     		lsrs	r7, r6, #1
 157:modbusRTU.c   ****                 }
 902              		.loc 1 157 0
 903 0074 7940     		eors	r1, r7
 904 0076 3242     		tst	r2, r6
 905 0078 00D1     		bne	.L107
 906 007a 3900     		movs	r1, r7
 907              	.L107:
 908 007c 1E00     		movs	r6, r3
 155:modbusRTU.c   ****                         if (flag)
 909              		.loc 1 155 0
 910 007e 4F08     		lsrs	r7, r1, #1
 157:modbusRTU.c   ****                 }
 911              		.loc 1 157 0
 912 0080 7E40     		eors	r6, r7
 913 0082 0A42     		tst	r2, r1
 914 0084 00D1     		bne	.L109
 915 0086 3E00     		movs	r6, r7
 916              	.L109:
ARM GAS  C:\Users\AFDHAL~1\AppData\Local\Temp\ccKZJoZj.s 			page 25


 917 0088 1900     		movs	r1, r3
 155:modbusRTU.c   ****                         if (flag)
 918              		.loc 1 155 0
 919 008a 7708     		lsrs	r7, r6, #1
 157:modbusRTU.c   ****                 }
 920              		.loc 1 157 0
 921 008c 7940     		eors	r1, r7
 922 008e 3242     		tst	r2, r6
 923 0090 00D1     		bne	.L111
 924 0092 3900     		movs	r1, r7
 925              	.L111:
 926 0094 1E00     		movs	r6, r3
 155:modbusRTU.c   ****                         if (flag)
 927              		.loc 1 155 0
 928 0096 4F08     		lsrs	r7, r1, #1
 157:modbusRTU.c   ****                 }
 929              		.loc 1 157 0
 930 0098 7E40     		eors	r6, r7
 931 009a 0A42     		tst	r2, r1
 932 009c 00D1     		bne	.L113
 933 009e 3E00     		movs	r6, r7
 934              	.L113:
 935 00a0 0130     		adds	r0, r0, #1
 936 00a2 3100     		movs	r1, r6
 937              	.LVL61:
 150:modbusRTU.c   ****                 temp = temp ^ buf[i];
 938              		.loc 1 150 0
 939 00a4 8445     		cmp	ip, r0
 940 00a6 C9D1     		bne	.L114
 941 00a8 3302     		lsls	r3, r6, #8
 942 00aa 360A     		lsrs	r6, r6, #8
 943 00ac 3343     		orrs	r3, r6
 944 00ae 1B04     		lsls	r3, r3, #16
 945 00b0 1B0C     		lsrs	r3, r3, #16
 946              	.LVL62:
 947              	.L97:
 948              	.LBE49:
 949              	.LBE48:
 339:modbusRTU.c   ****                 //recv_crc_hi = (unsigned) data[response_length - 2];
 340:modbusRTU.c   ****                 //recv_crc_lo = (unsigned) data[response_length - 1];
 341:modbusRTU.c   ****                 crc_received = data[response_length - 2];
 950              		.loc 1 341 0
 951 00b2 2919     		adds	r1, r5, r4
 952 00b4 8A1E     		subs	r2, r1, #2
 953 00b6 1278     		ldrb	r2, [r2]
 954              	.LVL63:
 342:modbusRTU.c   ****                 crc_received = (unsigned) crc_received << 8;
 343:modbusRTU.c   ****                 crc_received =
 344:modbusRTU.c   ****                         crc_received | (unsigned) data[response_length - 1];
 955              		.loc 1 344 0
 956 00b8 0139     		subs	r1, r1, #1
 345:modbusRTU.c   **** 
 346:modbusRTU.c   ****                 /*********** check CRC of response ************/
 347:modbusRTU.c   ****                 if (crc_calc != crc_received) {
 957              		.loc 1 347 0
 958 00ba 0978     		ldrb	r1, [r1]
 342:modbusRTU.c   ****                 crc_received = (unsigned) crc_received << 8;
ARM GAS  C:\Users\AFDHAL~1\AppData\Local\Temp\ccKZJoZj.s 			page 26


 959              		.loc 1 342 0
 960 00bc 1202     		lsls	r2, r2, #8
 961              	.LVL64:
 962              		.loc 1 347 0
 963 00be 0A43     		orrs	r2, r1
 964              	.LVL65:
 965 00c0 9A42     		cmp	r2, r3
 966 00c2 06D1     		bne	.L115
 348:modbusRTU.c   ****                         return NO_REPLY;
 349:modbusRTU.c   ****                 }
 350:modbusRTU.c   **** 
 351:modbusRTU.c   ****                 /* check for slave id */
 352:modbusRTU.c   ****                 if (slave != data[SLAVE]) {
 967              		.loc 1 352 0
 968 00c4 084B     		ldr	r3, .L120+8
 969 00c6 2A78     		ldrb	r2, [r5]
 970 00c8 1B78     		ldrb	r3, [r3]
 971 00ca 9A42     		cmp	r2, r3
 972 00cc 01D1     		bne	.L115
 973 00ce 2000     		movs	r0, r4
 974              	.LVL66:
 975              	.L95:
 353:modbusRTU.c   ****                         return NO_REPLY;
 354:modbusRTU.c   ****                 }
 355:modbusRTU.c   ****         }
 356:modbusRTU.c   ****         return (response_length);
 357:modbusRTU.c   **** }
 976              		.loc 1 357 0
 977              		@ sp needed
 978              	.LVL67:
 979 00d0 F8BD     		pop	{r3, r4, r5, r6, r7, pc}
 980              	.LVL68:
 981              	.L115:
 982              	.LBB51:
 983              	.LBB46:
 304:modbusRTU.c   ****         }
 984              		.loc 1 304 0
 985 00d2 0120     		movs	r0, #1
 986 00d4 4042     		rsbs	r0, r0, #0
 987 00d6 FBE7     		b	.L95
 988              	.LVL69:
 989              	.L117:
 990              	.LBE46:
 991              	.LBE51:
 992              	.LBB52:
 993              	.LBB50:
 150:modbusRTU.c   ****                 temp = temp ^ buf[i];
 994              		.loc 1 150 0
 995 00d8 014B     		ldr	r3, .L120
 996              	.LVL70:
 997 00da EAE7     		b	.L97
 998              	.LVL71:
 999              	.L116:
 1000              	.LBE50:
 1001              	.LBE52:
 1002 00dc 0020     		movs	r0, #0
 1003 00de F7E7     		b	.L95
ARM GAS  C:\Users\AFDHAL~1\AppData\Local\Temp\ccKZJoZj.s 			page 27


 1004              	.L121:
 1005              		.align	2
 1006              	.L120:
 1007 00e0 FFFF0000 		.word	65535
 1008 00e4 01A00000 		.word	40961
 1009 00e8 00000000 		.word	slave
 1010              		.cfi_endproc
 1011              	.LFE42:
 1012              		.size	modbus_request, .-modbus_request
 1013              		.section	.text.validate_request,"ax",%progbits
 1014              		.align	2
 1015              		.global	validate_request
 1016              		.code	16
 1017              		.thumb_func
 1018              		.type	validate_request, %function
 1019              	validate_request:
 1020              	.LFB43:
 358:modbusRTU.c   **** 
 359:modbusRTU.c   **** /*********************************************************************
 360:modbusRTU.c   ****  * 
 361:modbusRTU.c   ****  * 	validate_request(request_data_array, request_length, available_regs)
 362:modbusRTU.c   ****  * 
 363:modbusRTU.c   ****  * Function to check that the request can be processed by the slave.
 364:modbusRTU.c   ****  * 
 365:modbusRTU.c   ****  * Returns:	0 if OK
 366:modbusRTU.c   ****  * 		A negative exception code on error
 367:modbusRTU.c   ****  * 
 368:modbusRTU.c   ****  **********************************************************************/
 369:modbusRTU.c   **** 
 370:modbusRTU.c   **** int validate_request(unsigned char *data, unsigned char length,
 371:modbusRTU.c   **** unsigned int regs_size) 
 372:modbusRTU.c   **** {
 1021              		.loc 1 372 0
 1022              		.cfi_startproc
 1023              		@ args = 0, pretend = 0, frame = 0
 1024              		@ frame_needed = 0, uses_anonymous_args = 0
 1025              	.LVL72:
 1026 0000 10B5     		push	{r4, lr}
 1027              		.cfi_def_cfa_offset 8
 1028              		.cfi_offset 4, -8
 1029              		.cfi_offset 14, -4
 373:modbusRTU.c   ****         int i, fcnt = 0;
 374:modbusRTU.c   ****         unsigned int regs_num = 0;
 375:modbusRTU.c   ****         unsigned int start_addr = 0;
 376:modbusRTU.c   ****         unsigned char max_regs_num;
 377:modbusRTU.c   **** 
 378:modbusRTU.c   ****         /* check function code */
 379:modbusRTU.c   ****         for (i = 0; i < sizeof(fsupported); i++) {
 380:modbusRTU.c   ****                 if (fsupported[i] == data[FUNC]) {
 1030              		.loc 1 380 0
 1031 0002 4378     		ldrb	r3, [r0, #1]
 372:modbusRTU.c   ****         int i, fcnt = 0;
 1032              		.loc 1 372 0
 1033 0004 0100     		movs	r1, r0
 1034              	.LVL73:
 1035              		.loc 1 380 0
 1036 0006 032B     		cmp	r3, #3
ARM GAS  C:\Users\AFDHAL~1\AppData\Local\Temp\ccKZJoZj.s 			page 28


 1037 0008 0ED0     		beq	.L123
 1038              	.LVL74:
 1039 000a 062B     		cmp	r3, #6
 1040 000c 03D0     		beq	.L124
 1041              	.LVL75:
 1042 000e 102B     		cmp	r3, #16
 1043 0010 1ED0     		beq	.L125
 381:modbusRTU.c   ****                         fcnt = 1;
 382:modbusRTU.c   ****                         break;
 383:modbusRTU.c   ****                 }
 384:modbusRTU.c   ****         }
 385:modbusRTU.c   ****         if (0 == fcnt)
 386:modbusRTU.c   ****                 return EXC_FUNC_CODE;
 1044              		.loc 1 386 0
 1045 0012 0120     		movs	r0, #1
 1046              	.LVL76:
 1047              	.L132:
 387:modbusRTU.c   ****                 
 388:modbusRTU.c   ****         if (FC_WRITE_REG == data[FUNC]) {
 389:modbusRTU.c   ****                 /* For function write single reg, this is the target reg.*/
 390:modbusRTU.c   ****                 regs_num = ((int) data[START_H] << 8) + (int) data[START_L];
 391:modbusRTU.c   ****                 if (regs_num >= regs_size)
 392:modbusRTU.c   ****                         return EXC_ADDR_RANGE;
 393:modbusRTU.c   ****                 return 0;
 394:modbusRTU.c   ****         }                
 395:modbusRTU.c   **** 
 396:modbusRTU.c   ****         /* For functions read/write regs, this is the range. */
 397:modbusRTU.c   ****         regs_num = ((int) data[REGS_H] << 8) + (int) data[REGS_L];
 398:modbusRTU.c   **** 
 399:modbusRTU.c   ****         /* check quantity of registers */
 400:modbusRTU.c   ****         if (FC_READ_REGS == data[FUNC])
 401:modbusRTU.c   ****                 max_regs_num = MAX_READ_REGS;
 402:modbusRTU.c   ****         else if (FC_WRITE_REGS == data[FUNC])
 403:modbusRTU.c   ****                 max_regs_num = MAX_WRITE_REGS;
 404:modbusRTU.c   **** 
 405:modbusRTU.c   ****         if ((regs_num < 1) || (regs_num > max_regs_num))
 406:modbusRTU.c   ****                 return EXC_REGS_QUANT;
 407:modbusRTU.c   **** 
 408:modbusRTU.c   ****         /* check registers range, start address is 0 */
 409:modbusRTU.c   ****         start_addr = ((int) data[START_H] << 8) + (int) data[START_L];
 410:modbusRTU.c   ****         if ((start_addr + regs_num) > regs_size)
 411:modbusRTU.c   ****                 return EXC_ADDR_RANGE;
 412:modbusRTU.c   **** 
 413:modbusRTU.c   ****         return 0; 		/* OK, no exception */
 414:modbusRTU.c   **** }
 1048              		.loc 1 414 0
 1049              		@ sp needed
 1050 0014 10BD     		pop	{r4, pc}
 1051              	.LVL77:
 1052              	.L124:
 1053              	.LBB55:
 1054              	.LBB56:
 391:modbusRTU.c   ****                         return EXC_ADDR_RANGE;
 1055              		.loc 1 391 0
 1056 0016 8378     		ldrb	r3, [r0, #2]
 1057 0018 C178     		ldrb	r1, [r0, #3]
 392:modbusRTU.c   ****                 return 0;
ARM GAS  C:\Users\AFDHAL~1\AppData\Local\Temp\ccKZJoZj.s 			page 29


 1058              		.loc 1 392 0
 1059 001a 0020     		movs	r0, #0
 1060              	.LVL78:
 391:modbusRTU.c   ****                         return EXC_ADDR_RANGE;
 1061              		.loc 1 391 0
 1062 001c 1B02     		lsls	r3, r3, #8
 1063 001e 5B18     		adds	r3, r3, r1
 392:modbusRTU.c   ****                 return 0;
 1064              		.loc 1 392 0
 1065 0020 9342     		cmp	r3, r2
 1066 0022 4041     		adcs	r0, r0, r0
 1067 0024 4000     		lsls	r0, r0, #1
 1068 0026 F5E7     		b	.L132
 1069              	.LVL79:
 1070              	.L123:
 1071              	.LBE56:
 1072              	.LBE55:
 401:modbusRTU.c   ****         else if (FC_WRITE_REGS == data[FUNC])
 1073              		.loc 1 401 0
 1074 0028 7D24     		movs	r4, #125
 397:modbusRTU.c   **** 
 1075              		.loc 1 397 0
 1076 002a 0379     		ldrb	r3, [r0, #4]
 1077 002c 4079     		ldrb	r0, [r0, #5]
 1078              	.LVL80:
 1079 002e 1B02     		lsls	r3, r3, #8
 1080 0030 1B18     		adds	r3, r3, r0
 1081              	.LVL81:
 1082              	.L127:
 406:modbusRTU.c   **** 
 1083              		.loc 1 406 0
 1084 0032 0320     		movs	r0, #3
 405:modbusRTU.c   ****                 return EXC_REGS_QUANT;
 1085              		.loc 1 405 0
 1086 0034 002B     		cmp	r3, #0
 1087 0036 EDD0     		beq	.L132
 405:modbusRTU.c   ****                 return EXC_REGS_QUANT;
 1088              		.loc 1 405 0 is_stmt 0 discriminator 1
 1089 0038 A342     		cmp	r3, r4
 1090 003a EBD8     		bhi	.L132
 1091              	.LVL82:
 410:modbusRTU.c   ****                 return EXC_ADDR_RANGE;
 1092              		.loc 1 410 0 is_stmt 1
 1093 003c 8878     		ldrb	r0, [r1, #2]
 1094 003e C978     		ldrb	r1, [r1, #3]
 1095              	.LVL83:
 1096 0040 0002     		lsls	r0, r0, #8
 1097 0042 4018     		adds	r0, r0, r1
 1098 0044 C318     		adds	r3, r0, r3
 1099              	.LVL84:
 1100              	.LBB58:
 1101              	.LBB57:
 392:modbusRTU.c   ****                 return 0;
 1102              		.loc 1 392 0
 1103 0046 9A42     		cmp	r2, r3
 1104 0048 8041     		sbcs	r0, r0, r0
 1105 004a 4042     		rsbs	r0, r0, #0
ARM GAS  C:\Users\AFDHAL~1\AppData\Local\Temp\ccKZJoZj.s 			page 30


 1106 004c 4000     		lsls	r0, r0, #1
 1107              	.LBE57:
 1108              	.LBE58:
 1109 004e E1E7     		b	.L132
 1110              	.LVL85:
 1111              	.L125:
 397:modbusRTU.c   **** 
 1112              		.loc 1 397 0
 1113 0050 0379     		ldrb	r3, [r0, #4]
 1114 0052 4079     		ldrb	r0, [r0, #5]
 1115              	.LVL86:
 1116 0054 1B02     		lsls	r3, r3, #8
 1117 0056 1B18     		adds	r3, r3, r0
 1118              	.LVL87:
 403:modbusRTU.c   **** 
 1119              		.loc 1 403 0
 1120 0058 7B24     		movs	r4, #123
 1121 005a EAE7     		b	.L127
 1122              		.cfi_endproc
 1123              	.LFE43:
 1124              		.size	validate_request, .-validate_request
 1125              		.section	.text.write_regs,"ax",%progbits
 1126              		.align	2
 1127              		.global	write_regs
 1128              		.code	16
 1129              		.thumb_func
 1130              		.type	write_regs, %function
 1131              	write_regs:
 1132              	.LFB44:
 415:modbusRTU.c   **** 
 416:modbusRTU.c   **** 
 417:modbusRTU.c   **** 
 418:modbusRTU.c   **** /************************************************************************
 419:modbusRTU.c   ****  * 
 420:modbusRTU.c   ****  * 	write_regs(first_register, data_array, registers_array)
 421:modbusRTU.c   ****  * 
 422:modbusRTU.c   ****  * 	writes into the slave's holding registers the data in query, 
 423:modbusRTU.c   ****  * starting at start_addr.
 424:modbusRTU.c   ****  * 
 425:modbusRTU.c   ****  * Returns:   the number of registers written
 426:modbusRTU.c   ****  ************************************************************************/
 427:modbusRTU.c   **** 
 428:modbusRTU.c   **** int write_regs(unsigned int start_addr, unsigned char *query, int *regs) 
 429:modbusRTU.c   **** {
 1133              		.loc 1 429 0
 1134              		.cfi_startproc
 1135              		@ args = 0, pretend = 0, frame = 0
 1136              		@ frame_needed = 0, uses_anonymous_args = 0
 1137              	.LVL88:
 430:modbusRTU.c   ****         int temp;
 431:modbusRTU.c   ****         unsigned int i;
 432:modbusRTU.c   **** 
 433:modbusRTU.c   ****         for (i = 0; i < query[REGS_L]; i++) {
 1138              		.loc 1 433 0
 1139 0000 4B79     		ldrb	r3, [r1, #5]
 429:modbusRTU.c   ****         int temp;
 1140              		.loc 1 429 0
ARM GAS  C:\Users\AFDHAL~1\AppData\Local\Temp\ccKZJoZj.s 			page 31


 1141 0002 30B5     		push	{r4, r5, lr}
 1142              		.cfi_def_cfa_offset 12
 1143              		.cfi_offset 4, -12
 1144              		.cfi_offset 5, -8
 1145              		.cfi_offset 14, -4
 1146              		.loc 1 433 0
 1147 0004 002B     		cmp	r3, #0
 1148 0006 0ED0     		beq	.L137
 1149 0008 8000     		lsls	r0, r0, #2
 1150              	.LVL89:
 1151 000a 1218     		adds	r2, r2, r0
 1152              	.LVL90:
 1153              		.loc 1 433 0 is_stmt 0 discriminator 3
 1154 000c 0020     		movs	r0, #0
 1155 000e CC1D     		adds	r4, r1, #7
 1156              	.LVL91:
 1157              	.L136:
 434:modbusRTU.c   ****                 /* shift reg hi_byte to temp */
 435:modbusRTU.c   ****                 temp = (int) query[(BYTE_CNT + 1) + i * 2] << 8;
 1158              		.loc 1 435 0 is_stmt 1 discriminator 3
 1159 0010 2378     		ldrb	r3, [r4]
 436:modbusRTU.c   ****                 /* OR with lo_byte           */
 437:modbusRTU.c   ****                 temp = temp | (int) query[(BYTE_CNT + 2) + i * 2];
 438:modbusRTU.c   **** 
 439:modbusRTU.c   ****                 regs[start_addr + i] = temp;
 1160              		.loc 1 439 0 discriminator 3
 1161 0012 6578     		ldrb	r5, [r4, #1]
 435:modbusRTU.c   ****                 /* OR with lo_byte           */
 1162              		.loc 1 435 0 discriminator 3
 1163 0014 1B02     		lsls	r3, r3, #8
 1164              	.LVL92:
 1165              		.loc 1 439 0 discriminator 3
 1166 0016 2B43     		orrs	r3, r5
 1167              	.LVL93:
 1168 0018 08C2     		stmia	r2!, {r3}
 433:modbusRTU.c   ****                 /* shift reg hi_byte to temp */
 1169              		.loc 1 433 0 discriminator 3
 1170 001a 4B79     		ldrb	r3, [r1, #5]
 1171              	.LVL94:
 1172 001c 0130     		adds	r0, r0, #1
 1173              	.LVL95:
 1174 001e 0234     		adds	r4, r4, #2
 1175 0020 8342     		cmp	r3, r0
 1176 0022 F5D8     		bhi	.L136
 1177              	.LVL96:
 1178              	.L135:
 440:modbusRTU.c   ****         } 
 441:modbusRTU.c   ****         return i;
 442:modbusRTU.c   **** }
 1179              		.loc 1 442 0
 1180              		@ sp needed
 1181 0024 30BD     		pop	{r4, r5, pc}
 1182              	.LVL97:
 1183              	.L137:
 433:modbusRTU.c   ****                 /* shift reg hi_byte to temp */
 1184              		.loc 1 433 0
 1185 0026 0020     		movs	r0, #0
ARM GAS  C:\Users\AFDHAL~1\AppData\Local\Temp\ccKZJoZj.s 			page 32


 1186              	.LVL98:
 1187 0028 FCE7     		b	.L135
 1188              		.cfi_endproc
 1189              	.LFE44:
 1190              		.size	write_regs, .-write_regs
 1191 002a C046     		.section	.text.preset_multiple_registers,"ax",%progbits
 1192              		.align	2
 1193              		.global	preset_multiple_registers
 1194              		.code	16
 1195              		.thumb_func
 1196              		.type	preset_multiple_registers, %function
 1197              	preset_multiple_registers:
 1198              	.LFB45:
 443:modbusRTU.c   **** 
 444:modbusRTU.c   **** /************************************************************************
 445:modbusRTU.c   ****  * 
 446:modbusRTU.c   ****  * 	preset_multiple_registers(first_register, number_of_registers,
 447:modbusRTU.c   ****  * data_array, registers_array)
 448:modbusRTU.c   ****  * 
 449:modbusRTU.c   ****  * 	Write the data from an array into the holding registers of the slave. 
 450:modbusRTU.c   ****  * 
 451:modbusRTU.c   ****  *************************************************************************/
 452:modbusRTU.c   **** 
 453:modbusRTU.c   **** int preset_multiple_registers(unsigned int start_addr,
 454:modbusRTU.c   **** unsigned char count, 
 455:modbusRTU.c   **** unsigned char *query,
 456:modbusRTU.c   **** int *regs) 
 457:modbusRTU.c   **** {
 1199              		.loc 1 457 0
 1200              		.cfi_startproc
 1201              		@ args = 0, pretend = 0, frame = 8
 1202              		@ frame_needed = 0, uses_anonymous_args = 0
 1203              	.LVL99:
 1204 0000 F0B5     		push	{r4, r5, r6, r7, lr}
 1205              		.cfi_def_cfa_offset 20
 1206              		.cfi_offset 4, -20
 1207              		.cfi_offset 5, -16
 1208              		.cfi_offset 6, -12
 1209              		.cfi_offset 7, -8
 1210              		.cfi_offset 14, -4
 1211 0002 4746     		mov	r7, r8
 1212 0004 80B4     		push	{r7}
 1213              		.cfi_def_cfa_offset 24
 1214              		.cfi_offset 8, -24
 1215              	.LBB69:
 1216              	.LBB70:
 198:modbusRTU.c   ****         packet[FUNC] = function;
 1217              		.loc 1 198 0
 1218 0006 CA4C     		ldr	r4, .L306
 1219              	.LBE70:
 1220              	.LBE69:
 1221              		.loc 1 457 0
 1222 0008 82B0     		sub	sp, sp, #8
 1223              		.cfi_def_cfa_offset 32
 1224              	.LVL100:
 1225              	.LBB73:
 1226              	.LBB71:
ARM GAS  C:\Users\AFDHAL~1\AppData\Local\Temp\ccKZJoZj.s 			page 33


 198:modbusRTU.c   ****         packet[FUNC] = function;
 1227              		.loc 1 198 0
 1228 000a 2478     		ldrb	r4, [r4]
 1229 000c A046     		mov	r8, r4
 1230 000e 6C46     		mov	r4, sp
 1231 0010 4546     		mov	r5, r8
 1232 0012 2570     		strb	r5, [r4]
 199:modbusRTU.c   ****         packet[START_H] = start_addr >> 8;
 1233              		.loc 1 199 0
 1234 0014 1024     		movs	r4, #16
 1235 0016 6D46     		mov	r5, sp
 1236 0018 6C70     		strb	r4, [r5, #1]
 200:modbusRTU.c   ****         packet[START_L] = start_addr & 0x00ff;
 1237              		.loc 1 200 0
 1238 001a 040A     		lsrs	r4, r0, #8
 1239 001c A446     		mov	ip, r4
 1240 001e 6C46     		mov	r4, sp
 1241 0020 6546     		mov	r5, ip
 201:modbusRTU.c   ****         packet[REGS_H] = 0x00;
 1242              		.loc 1 201 0
 1243 0022 E070     		strb	r0, [r4, #3]
 200:modbusRTU.c   ****         packet[START_L] = start_addr & 0x00ff;
 1244              		.loc 1 200 0
 1245 0024 A570     		strb	r5, [r4, #2]
 202:modbusRTU.c   ****         packet[REGS_L] = count;
 1246              		.loc 1 202 0
 1247 0026 0024     		movs	r4, #0
 1248 0028 6D46     		mov	r5, sp
 1249 002a 2C71     		strb	r4, [r5, #4]
 1250              	.LBE71:
 1251              	.LBE73:
 1252              	.LBB74:
 1253              	.LBB75:
 433:modbusRTU.c   ****                 /* shift reg hi_byte to temp */
 1254              		.loc 1 433 0
 1255 002c 5479     		ldrb	r4, [r2, #5]
 1256              	.LBE75:
 1257              	.LBE74:
 1258              	.LBB77:
 1259              	.LBB72:
 203:modbusRTU.c   **** } 
 1260              		.loc 1 203 0
 1261 002e 6971     		strb	r1, [r5, #5]
 1262              	.LVL101:
 1263              	.LBE72:
 1264              	.LBE77:
 1265              	.LBB78:
 1266              	.LBB76:
 433:modbusRTU.c   ****                 /* shift reg hi_byte to temp */
 1267              		.loc 1 433 0
 1268 0030 002C     		cmp	r4, #0
 1269 0032 00D1     		bne	.LCB1287
 1270 0034 C2E2     		b	.L239	@long jump
 1271              	.LCB1287:
 1272 0036 0026     		movs	r6, #0
 1273 0038 8400     		lsls	r4, r0, #2
 1274 003a D51D     		adds	r5, r2, #7
ARM GAS  C:\Users\AFDHAL~1\AppData\Local\Temp\ccKZJoZj.s 			page 34


 1275 003c 1B19     		adds	r3, r3, r4
 1276              	.LVL102:
 1277              	.L141:
 435:modbusRTU.c   ****                 /* OR with lo_byte           */
 1278              		.loc 1 435 0
 1279 003e 2C78     		ldrb	r4, [r5]
 439:modbusRTU.c   ****         } 
 1280              		.loc 1 439 0
 1281 0040 6F78     		ldrb	r7, [r5, #1]
 435:modbusRTU.c   ****                 /* OR with lo_byte           */
 1282              		.loc 1 435 0
 1283 0042 2402     		lsls	r4, r4, #8
 1284              	.LVL103:
 439:modbusRTU.c   ****         } 
 1285              		.loc 1 439 0
 1286 0044 3C43     		orrs	r4, r7
 1287              	.LVL104:
 1288 0046 10C3     		stmia	r3!, {r4}
 433:modbusRTU.c   ****                 /* shift reg hi_byte to temp */
 1289              		.loc 1 433 0
 1290 0048 5479     		ldrb	r4, [r2, #5]
 1291              	.LVL105:
 1292 004a 0136     		adds	r6, r6, #1
 1293              	.LVL106:
 1294 004c 0235     		adds	r5, r5, #2
 1295 004e A642     		cmp	r6, r4
 1296 0050 F5D3     		bcc	.L141
 1297              	.LVL107:
 1298              	.LBE76:
 1299              	.LBE78:
 1300              	.LBB79:
 1301              	.LBB80:
 1302              	.LBB81:
 1303              	.LBB82:
 1304              	.LBB83:
 1305              	.LBB84:
 151:modbusRTU.c   **** 
 1306              		.loc 1 151 0
 1307 0052 4746     		mov	r7, r8
 1308 0054 B74B     		ldr	r3, .L306+4
 157:modbusRTU.c   ****                 }
 1309              		.loc 1 157 0
 1310 0056 B84A     		ldr	r2, .L306+8
 1311              	.LVL108:
 151:modbusRTU.c   **** 
 1312              		.loc 1 151 0
 1313 0058 5F40     		eors	r7, r3
 155:modbusRTU.c   ****                         if (flag)
 1314              		.loc 1 155 0
 1315 005a 7B08     		lsrs	r3, r7, #1
 157:modbusRTU.c   ****                 }
 1316              		.loc 1 157 0
 1317 005c 5A40     		eors	r2, r3
 1318 005e FC07     		lsls	r4, r7, #31
 1319 0060 00D5     		bpl	.LCB1332
 1320 0062 A3E2     		b	.L258	@long jump
 1321              	.LCB1332:
ARM GAS  C:\Users\AFDHAL~1\AppData\Local\Temp\ccKZJoZj.s 			page 35


 1322 0064 B44C     		ldr	r4, .L306+8
 155:modbusRTU.c   ****                         if (flag)
 1323              		.loc 1 155 0
 1324 0066 5A08     		lsrs	r2, r3, #1
 157:modbusRTU.c   ****                 }
 1325              		.loc 1 157 0
 1326 0068 5440     		eors	r4, r2
 1327 006a DB07     		lsls	r3, r3, #31
 1328 006c 00D5     		bpl	.LCB1339
 1329 006e 95E2     		b	.L259	@long jump
 1330              	.LCB1339:
 1331              	.L145:
 1332 0070 B14C     		ldr	r4, .L306+8
 155:modbusRTU.c   ****                         if (flag)
 1333              		.loc 1 155 0
 1334 0072 5308     		lsrs	r3, r2, #1
 157:modbusRTU.c   ****                 }
 1335              		.loc 1 157 0
 1336 0074 5C40     		eors	r4, r3
 1337 0076 D207     		lsls	r2, r2, #31
 1338 0078 00D5     		bpl	.LCB1347
 1339 007a 87E2     		b	.L260	@long jump
 1340              	.LCB1347:
 1341              	.L147:
 1342 007c AE4C     		ldr	r4, .L306+8
 155:modbusRTU.c   ****                         if (flag)
 1343              		.loc 1 155 0
 1344 007e 5A08     		lsrs	r2, r3, #1
 157:modbusRTU.c   ****                 }
 1345              		.loc 1 157 0
 1346 0080 5440     		eors	r4, r2
 1347 0082 DB07     		lsls	r3, r3, #31
 1348 0084 00D5     		bpl	.LCB1355
 1349 0086 79E2     		b	.L261	@long jump
 1350              	.LCB1355:
 1351              	.L149:
 1352 0088 AB4C     		ldr	r4, .L306+8
 155:modbusRTU.c   ****                         if (flag)
 1353              		.loc 1 155 0
 1354 008a 5308     		lsrs	r3, r2, #1
 157:modbusRTU.c   ****                 }
 1355              		.loc 1 157 0
 1356 008c 5C40     		eors	r4, r3
 1357 008e D207     		lsls	r2, r2, #31
 1358 0090 00D5     		bpl	.LCB1363
 1359 0092 6BE2     		b	.L262	@long jump
 1360              	.LCB1363:
 1361              	.L151:
 1362 0094 A84C     		ldr	r4, .L306+8
 155:modbusRTU.c   ****                         if (flag)
 1363              		.loc 1 155 0
 1364 0096 5A08     		lsrs	r2, r3, #1
 157:modbusRTU.c   ****                 }
 1365              		.loc 1 157 0
 1366 0098 5440     		eors	r4, r2
 1367 009a DB07     		lsls	r3, r3, #31
 1368 009c 00D5     		bpl	.LCB1371
ARM GAS  C:\Users\AFDHAL~1\AppData\Local\Temp\ccKZJoZj.s 			page 36


 1369 009e 5DE2     		b	.L263	@long jump
 1370              	.LCB1371:
 1371              	.L153:
 1372 00a0 A54C     		ldr	r4, .L306+8
 155:modbusRTU.c   ****                         if (flag)
 1373              		.loc 1 155 0
 1374 00a2 5308     		lsrs	r3, r2, #1
 157:modbusRTU.c   ****                 }
 1375              		.loc 1 157 0
 1376 00a4 5C40     		eors	r4, r3
 1377 00a6 D207     		lsls	r2, r2, #31
 1378 00a8 00D5     		bpl	.LCB1379
 1379 00aa 4FE2     		b	.L264	@long jump
 1380              	.LCB1379:
 1381              	.L155:
 1382 00ac A24C     		ldr	r4, .L306+8
 155:modbusRTU.c   ****                         if (flag)
 1383              		.loc 1 155 0
 1384 00ae 5A08     		lsrs	r2, r3, #1
 157:modbusRTU.c   ****                 }
 1385              		.loc 1 157 0
 1386 00b0 5440     		eors	r4, r2
 1387 00b2 DB07     		lsls	r3, r3, #31
 1388 00b4 00D5     		bpl	.LCB1387
 1389 00b6 3FE2     		b	.L265	@long jump
 1390              	.LCB1387:
 1391              	.L157:
 1392              	.LVL109:
 151:modbusRTU.c   **** 
 1393              		.loc 1 151 0
 1394 00b8 1023     		movs	r3, #16
 157:modbusRTU.c   ****                 }
 1395              		.loc 1 157 0
 1396 00ba 9F4C     		ldr	r4, .L306+8
 151:modbusRTU.c   **** 
 1397              		.loc 1 151 0
 1398 00bc 5340     		eors	r3, r2
 1399              	.LVL110:
 155:modbusRTU.c   ****                         if (flag)
 1400              		.loc 1 155 0
 1401 00be 5A08     		lsrs	r2, r3, #1
 157:modbusRTU.c   ****                 }
 1402              		.loc 1 157 0
 1403 00c0 5440     		eors	r4, r2
 1404 00c2 DB07     		lsls	r3, r3, #31
 1405 00c4 00D5     		bpl	.LCB1399
 1406 00c6 2FE2     		b	.L266	@long jump
 1407              	.LCB1399:
 1408              	.L159:
 1409 00c8 9B4C     		ldr	r4, .L306+8
 155:modbusRTU.c   ****                         if (flag)
 1410              		.loc 1 155 0
 1411 00ca 5308     		lsrs	r3, r2, #1
 157:modbusRTU.c   ****                 }
 1412              		.loc 1 157 0
 1413 00cc 5C40     		eors	r4, r3
 1414 00ce D207     		lsls	r2, r2, #31
ARM GAS  C:\Users\AFDHAL~1\AppData\Local\Temp\ccKZJoZj.s 			page 37


 1415 00d0 00D5     		bpl	.LCB1407
 1416 00d2 21E2     		b	.L267	@long jump
 1417              	.LCB1407:
 1418              	.L161:
 1419 00d4 984C     		ldr	r4, .L306+8
 155:modbusRTU.c   ****                         if (flag)
 1420              		.loc 1 155 0
 1421 00d6 5A08     		lsrs	r2, r3, #1
 157:modbusRTU.c   ****                 }
 1422              		.loc 1 157 0
 1423 00d8 5440     		eors	r4, r2
 1424 00da DB07     		lsls	r3, r3, #31
 1425 00dc 00D5     		bpl	.LCB1415
 1426 00de 13E2     		b	.L268	@long jump
 1427              	.LCB1415:
 1428              	.L163:
 1429 00e0 954C     		ldr	r4, .L306+8
 155:modbusRTU.c   ****                         if (flag)
 1430              		.loc 1 155 0
 1431 00e2 5308     		lsrs	r3, r2, #1
 157:modbusRTU.c   ****                 }
 1432              		.loc 1 157 0
 1433 00e4 5C40     		eors	r4, r3
 1434 00e6 D207     		lsls	r2, r2, #31
 1435 00e8 00D5     		bpl	.LCB1423
 1436 00ea 05E2     		b	.L269	@long jump
 1437              	.LCB1423:
 1438              	.L165:
 1439 00ec 924C     		ldr	r4, .L306+8
 155:modbusRTU.c   ****                         if (flag)
 1440              		.loc 1 155 0
 1441 00ee 5A08     		lsrs	r2, r3, #1
 157:modbusRTU.c   ****                 }
 1442              		.loc 1 157 0
 1443 00f0 5440     		eors	r4, r2
 1444 00f2 DB07     		lsls	r3, r3, #31
 1445 00f4 00D5     		bpl	.LCB1431
 1446 00f6 F7E1     		b	.L270	@long jump
 1447              	.LCB1431:
 1448              	.L167:
 1449 00f8 8F4C     		ldr	r4, .L306+8
 155:modbusRTU.c   ****                         if (flag)
 1450              		.loc 1 155 0
 1451 00fa 5308     		lsrs	r3, r2, #1
 157:modbusRTU.c   ****                 }
 1452              		.loc 1 157 0
 1453 00fc 5C40     		eors	r4, r3
 1454 00fe D207     		lsls	r2, r2, #31
 1455 0100 00D5     		bpl	.LCB1439
 1456 0102 E9E1     		b	.L271	@long jump
 1457              	.LCB1439:
 1458              	.L169:
 1459 0104 8C4C     		ldr	r4, .L306+8
 155:modbusRTU.c   ****                         if (flag)
 1460              		.loc 1 155 0
 1461 0106 5A08     		lsrs	r2, r3, #1
 157:modbusRTU.c   ****                 }
ARM GAS  C:\Users\AFDHAL~1\AppData\Local\Temp\ccKZJoZj.s 			page 38


 1462              		.loc 1 157 0
 1463 0108 5440     		eors	r4, r2
 1464 010a DB07     		lsls	r3, r3, #31
 1465 010c 00D5     		bpl	.LCB1447
 1466 010e DBE1     		b	.L272	@long jump
 1467              	.LCB1447:
 1468              	.L171:
 1469 0110 894C     		ldr	r4, .L306+8
 155:modbusRTU.c   ****                         if (flag)
 1470              		.loc 1 155 0
 1471 0112 5308     		lsrs	r3, r2, #1
 157:modbusRTU.c   ****                 }
 1472              		.loc 1 157 0
 1473 0114 5C40     		eors	r4, r3
 1474 0116 D207     		lsls	r2, r2, #31
 1475 0118 00D5     		bpl	.LCB1455
 1476 011a D3E1     		b	.L273	@long jump
 1477              	.LCB1455:
 1478              	.L173:
 1479              	.LVL111:
 1480 011c 6446     		mov	r4, ip
 1481 011e FF22     		movs	r2, #255
 1482 0120 2240     		ands	r2, r4
 151:modbusRTU.c   **** 
 1483              		.loc 1 151 0
 1484 0122 5340     		eors	r3, r2
 1485              	.LVL112:
 157:modbusRTU.c   ****                 }
 1486              		.loc 1 157 0
 1487 0124 844A     		ldr	r2, .L306+8
 155:modbusRTU.c   ****                         if (flag)
 1488              		.loc 1 155 0
 1489 0126 5C08     		lsrs	r4, r3, #1
 157:modbusRTU.c   ****                 }
 1490              		.loc 1 157 0
 1491 0128 6240     		eors	r2, r4
 1492 012a DB07     		lsls	r3, r3, #31
 1493 012c 00D4     		bmi	.LCB1469
 1494 012e C1E1     		b	.L274	@long jump
 1495              	.LCB1469:
 1496 0130 814B     		ldr	r3, .L306+8
 155:modbusRTU.c   ****                         if (flag)
 1497              		.loc 1 155 0
 1498 0132 5408     		lsrs	r4, r2, #1
 157:modbusRTU.c   ****                 }
 1499              		.loc 1 157 0
 1500 0134 6340     		eors	r3, r4
 1501 0136 D207     		lsls	r2, r2, #31
 1502 0138 00D4     		bmi	.LCB1476
 1503 013a B3E1     		b	.L275	@long jump
 1504              	.LCB1476:
 1505              	.L177:
 1506 013c 7E4A     		ldr	r2, .L306+8
 155:modbusRTU.c   ****                         if (flag)
 1507              		.loc 1 155 0
 1508 013e 5C08     		lsrs	r4, r3, #1
 157:modbusRTU.c   ****                 }
ARM GAS  C:\Users\AFDHAL~1\AppData\Local\Temp\ccKZJoZj.s 			page 39


 1509              		.loc 1 157 0
 1510 0140 6240     		eors	r2, r4
 1511 0142 DB07     		lsls	r3, r3, #31
 1512 0144 00D4     		bmi	.LCB1484
 1513 0146 A5E1     		b	.L276	@long jump
 1514              	.LCB1484:
 1515              	.L179:
 1516 0148 7B4B     		ldr	r3, .L306+8
 155:modbusRTU.c   ****                         if (flag)
 1517              		.loc 1 155 0
 1518 014a 5408     		lsrs	r4, r2, #1
 157:modbusRTU.c   ****                 }
 1519              		.loc 1 157 0
 1520 014c 6340     		eors	r3, r4
 1521 014e D207     		lsls	r2, r2, #31
 1522 0150 00D4     		bmi	.LCB1492
 1523 0152 97E1     		b	.L277	@long jump
 1524              	.LCB1492:
 1525              	.L181:
 1526 0154 784A     		ldr	r2, .L306+8
 155:modbusRTU.c   ****                         if (flag)
 1527              		.loc 1 155 0
 1528 0156 5C08     		lsrs	r4, r3, #1
 157:modbusRTU.c   ****                 }
 1529              		.loc 1 157 0
 1530 0158 6240     		eors	r2, r4
 1531 015a DB07     		lsls	r3, r3, #31
 1532 015c 00D4     		bmi	.LCB1500
 1533 015e 89E1     		b	.L278	@long jump
 1534              	.LCB1500:
 1535              	.L183:
 1536 0160 754B     		ldr	r3, .L306+8
 155:modbusRTU.c   ****                         if (flag)
 1537              		.loc 1 155 0
 1538 0162 5408     		lsrs	r4, r2, #1
 157:modbusRTU.c   ****                 }
 1539              		.loc 1 157 0
 1540 0164 6340     		eors	r3, r4
 1541 0166 D207     		lsls	r2, r2, #31
 1542 0168 00D4     		bmi	.LCB1508
 1543 016a 7BE1     		b	.L279	@long jump
 1544              	.LCB1508:
 1545              	.L185:
 1546 016c 724A     		ldr	r2, .L306+8
 155:modbusRTU.c   ****                         if (flag)
 1547              		.loc 1 155 0
 1548 016e 5C08     		lsrs	r4, r3, #1
 157:modbusRTU.c   ****                 }
 1549              		.loc 1 157 0
 1550 0170 6240     		eors	r2, r4
 1551 0172 DB07     		lsls	r3, r3, #31
 1552 0174 00D4     		bmi	.LCB1516
 1553 0176 6DE1     		b	.L280	@long jump
 1554              	.LCB1516:
 1555              	.L187:
 1556 0178 6F4B     		ldr	r3, .L306+8
 155:modbusRTU.c   ****                         if (flag)
ARM GAS  C:\Users\AFDHAL~1\AppData\Local\Temp\ccKZJoZj.s 			page 40


 1557              		.loc 1 155 0
 1558 017a 5408     		lsrs	r4, r2, #1
 157:modbusRTU.c   ****                 }
 1559              		.loc 1 157 0
 1560 017c 6340     		eors	r3, r4
 1561 017e D207     		lsls	r2, r2, #31
 1562 0180 00D4     		bmi	.LCB1524
 1563 0182 5CE1     		b	.L281	@long jump
 1564              	.LCB1524:
 1565              	.L189:
 1566              	.LVL113:
 1567 0184 FF22     		movs	r2, #255
 1568 0186 1040     		ands	r0, r2
 1569              	.LVL114:
 151:modbusRTU.c   **** 
 1570              		.loc 1 151 0
 1571 0188 5840     		eors	r0, r3
 1572              	.LVL115:
 157:modbusRTU.c   ****                 }
 1573              		.loc 1 157 0
 1574 018a 6B4A     		ldr	r2, .L306+8
 155:modbusRTU.c   ****                         if (flag)
 1575              		.loc 1 155 0
 1576 018c 4308     		lsrs	r3, r0, #1
 157:modbusRTU.c   ****                 }
 1577              		.loc 1 157 0
 1578 018e 5A40     		eors	r2, r3
 1579 0190 C007     		lsls	r0, r0, #31
 1580 0192 00D4     		bmi	.LCB1539
 1581 0194 4BE1     		b	.L282	@long jump
 1582              	.LCB1539:
 1583              	.L191:
 1584 0196 684B     		ldr	r3, .L306+8
 155:modbusRTU.c   ****                         if (flag)
 1585              		.loc 1 155 0
 1586 0198 5008     		lsrs	r0, r2, #1
 157:modbusRTU.c   ****                 }
 1587              		.loc 1 157 0
 1588 019a 4340     		eors	r3, r0
 1589 019c D207     		lsls	r2, r2, #31
 1590 019e 00D4     		bmi	.LCB1549
 1591 01a0 3DE1     		b	.L283	@long jump
 1592              	.LCB1549:
 1593              	.L193:
 1594 01a2 654A     		ldr	r2, .L306+8
 155:modbusRTU.c   ****                         if (flag)
 1595              		.loc 1 155 0
 1596 01a4 5808     		lsrs	r0, r3, #1
 157:modbusRTU.c   ****                 }
 1597              		.loc 1 157 0
 1598 01a6 4240     		eors	r2, r0
 1599 01a8 DB07     		lsls	r3, r3, #31
 1600 01aa 00D4     		bmi	.LCB1557
 1601 01ac 2FE1     		b	.L284	@long jump
 1602              	.LCB1557:
 1603              	.L195:
 1604 01ae 624B     		ldr	r3, .L306+8
ARM GAS  C:\Users\AFDHAL~1\AppData\Local\Temp\ccKZJoZj.s 			page 41


 155:modbusRTU.c   ****                         if (flag)
 1605              		.loc 1 155 0
 1606 01b0 5008     		lsrs	r0, r2, #1
 157:modbusRTU.c   ****                 }
 1607              		.loc 1 157 0
 1608 01b2 4340     		eors	r3, r0
 1609 01b4 D207     		lsls	r2, r2, #31
 1610 01b6 00D4     		bmi	.LCB1565
 1611 01b8 21E1     		b	.L285	@long jump
 1612              	.LCB1565:
 1613              	.L197:
 1614 01ba 5F4A     		ldr	r2, .L306+8
 155:modbusRTU.c   ****                         if (flag)
 1615              		.loc 1 155 0
 1616 01bc 5808     		lsrs	r0, r3, #1
 157:modbusRTU.c   ****                 }
 1617              		.loc 1 157 0
 1618 01be 4240     		eors	r2, r0
 1619 01c0 DB07     		lsls	r3, r3, #31
 1620 01c2 00D4     		bmi	.LCB1573
 1621 01c4 13E1     		b	.L286	@long jump
 1622              	.LCB1573:
 1623              	.L199:
 1624 01c6 5C4B     		ldr	r3, .L306+8
 155:modbusRTU.c   ****                         if (flag)
 1625              		.loc 1 155 0
 1626 01c8 5008     		lsrs	r0, r2, #1
 157:modbusRTU.c   ****                 }
 1627              		.loc 1 157 0
 1628 01ca 4340     		eors	r3, r0
 1629 01cc D207     		lsls	r2, r2, #31
 1630 01ce 00D4     		bmi	.LCB1581
 1631 01d0 05E1     		b	.L287	@long jump
 1632              	.LCB1581:
 1633              	.L201:
 1634 01d2 594A     		ldr	r2, .L306+8
 155:modbusRTU.c   ****                         if (flag)
 1635              		.loc 1 155 0
 1636 01d4 5808     		lsrs	r0, r3, #1
 157:modbusRTU.c   ****                 }
 1637              		.loc 1 157 0
 1638 01d6 4240     		eors	r2, r0
 1639 01d8 DB07     		lsls	r3, r3, #31
 1640 01da 00D4     		bmi	.LCB1589
 1641 01dc F7E0     		b	.L288	@long jump
 1642              	.LCB1589:
 1643              	.L203:
 1644 01de 564B     		ldr	r3, .L306+8
 155:modbusRTU.c   ****                         if (flag)
 1645              		.loc 1 155 0
 1646 01e0 5008     		lsrs	r0, r2, #1
 157:modbusRTU.c   ****                 }
 1647              		.loc 1 157 0
 1648 01e2 4340     		eors	r3, r0
 1649 01e4 D207     		lsls	r2, r2, #31
 1650 01e6 00D4     		bmi	.LCB1597
 1651 01e8 E9E0     		b	.L289	@long jump
ARM GAS  C:\Users\AFDHAL~1\AppData\Local\Temp\ccKZJoZj.s 			page 42


 1652              	.LCB1597:
 1653              	.L205:
 1654 01ea 534A     		ldr	r2, .L306+8
 155:modbusRTU.c   ****                         if (flag)
 1655              		.loc 1 155 0
 1656 01ec 5808     		lsrs	r0, r3, #1
 157:modbusRTU.c   ****                 }
 1657              		.loc 1 157 0
 1658 01ee 4240     		eors	r2, r0
 1659 01f0 DB07     		lsls	r3, r3, #31
 1660 01f2 00D4     		bmi	.LCB1605
 1661 01f4 DBE0     		b	.L290	@long jump
 1662              	.LCB1605:
 1663              	.L207:
 1664 01f6 504B     		ldr	r3, .L306+8
 155:modbusRTU.c   ****                         if (flag)
 1665              		.loc 1 155 0
 1666 01f8 5008     		lsrs	r0, r2, #1
 157:modbusRTU.c   ****                 }
 1667              		.loc 1 157 0
 1668 01fa 4340     		eors	r3, r0
 1669 01fc D207     		lsls	r2, r2, #31
 1670 01fe 00D4     		bmi	.LCB1613
 1671 0200 CDE0     		b	.L291	@long jump
 1672              	.LCB1613:
 1673              	.L209:
 1674 0202 4D4A     		ldr	r2, .L306+8
 155:modbusRTU.c   ****                         if (flag)
 1675              		.loc 1 155 0
 1676 0204 5808     		lsrs	r0, r3, #1
 157:modbusRTU.c   ****                 }
 1677              		.loc 1 157 0
 1678 0206 4240     		eors	r2, r0
 1679 0208 DB07     		lsls	r3, r3, #31
 1680 020a 00D4     		bmi	.LCB1621
 1681 020c BFE0     		b	.L292	@long jump
 1682              	.LCB1621:
 1683              	.L211:
 1684 020e 4A4B     		ldr	r3, .L306+8
 155:modbusRTU.c   ****                         if (flag)
 1685              		.loc 1 155 0
 1686 0210 5008     		lsrs	r0, r2, #1
 157:modbusRTU.c   ****                 }
 1687              		.loc 1 157 0
 1688 0212 4340     		eors	r3, r0
 1689 0214 D207     		lsls	r2, r2, #31
 1690 0216 00D4     		bmi	.LCB1629
 1691 0218 B1E0     		b	.L293	@long jump
 1692              	.LCB1629:
 1693              	.L213:
 1694 021a 474A     		ldr	r2, .L306+8
 155:modbusRTU.c   ****                         if (flag)
 1695              		.loc 1 155 0
 1696 021c 5808     		lsrs	r0, r3, #1
 157:modbusRTU.c   ****                 }
 1697              		.loc 1 157 0
 1698 021e 4240     		eors	r2, r0
ARM GAS  C:\Users\AFDHAL~1\AppData\Local\Temp\ccKZJoZj.s 			page 43


 1699 0220 DB07     		lsls	r3, r3, #31
 1700 0222 00D4     		bmi	.LCB1637
 1701 0224 A3E0     		b	.L294	@long jump
 1702              	.LCB1637:
 1703              	.L215:
 1704 0226 444B     		ldr	r3, .L306+8
 155:modbusRTU.c   ****                         if (flag)
 1705              		.loc 1 155 0
 1706 0228 5008     		lsrs	r0, r2, #1
 157:modbusRTU.c   ****                 }
 1707              		.loc 1 157 0
 1708 022a 4340     		eors	r3, r0
 1709 022c D207     		lsls	r2, r2, #31
 1710 022e 00D4     		bmi	.LCB1645
 1711 0230 95E0     		b	.L295	@long jump
 1712              	.LCB1645:
 1713              	.L217:
 1714 0232 414A     		ldr	r2, .L306+8
 155:modbusRTU.c   ****                         if (flag)
 1715              		.loc 1 155 0
 1716 0234 5808     		lsrs	r0, r3, #1
 157:modbusRTU.c   ****                 }
 1717              		.loc 1 157 0
 1718 0236 4240     		eors	r2, r0
 1719 0238 DB07     		lsls	r3, r3, #31
 1720 023a 00D4     		bmi	.LCB1653
 1721 023c 87E0     		b	.L296	@long jump
 1722              	.LCB1653:
 1723              	.L219:
 1724 023e 3E4B     		ldr	r3, .L306+8
 155:modbusRTU.c   ****                         if (flag)
 1725              		.loc 1 155 0
 1726 0240 5008     		lsrs	r0, r2, #1
 157:modbusRTU.c   ****                 }
 1727              		.loc 1 157 0
 1728 0242 4340     		eors	r3, r0
 1729 0244 D207     		lsls	r2, r2, #31
 1730 0246 00D4     		bmi	.LCB1661
 1731 0248 78E0     		b	.L297	@long jump
 1732              	.LCB1661:
 1733              	.L221:
 1734              	.LVL116:
 151:modbusRTU.c   **** 
 1735              		.loc 1 151 0
 1736 024a 5940     		eors	r1, r3
 1737              	.LVL117:
 157:modbusRTU.c   ****                 }
 1738              		.loc 1 157 0
 1739 024c 3A4A     		ldr	r2, .L306+8
 155:modbusRTU.c   ****                         if (flag)
 1740              		.loc 1 155 0
 1741 024e 4B08     		lsrs	r3, r1, #1
 157:modbusRTU.c   ****                 }
 1742              		.loc 1 157 0
 1743 0250 5A40     		eors	r2, r3
 1744 0252 C907     		lsls	r1, r1, #31
 1745 0254 64D5     		bpl	.L298
ARM GAS  C:\Users\AFDHAL~1\AppData\Local\Temp\ccKZJoZj.s 			page 44


 1746              	.L223:
 1747 0256 384B     		ldr	r3, .L306+8
 155:modbusRTU.c   ****                         if (flag)
 1748              		.loc 1 155 0
 1749 0258 5108     		lsrs	r1, r2, #1
 157:modbusRTU.c   ****                 }
 1750              		.loc 1 157 0
 1751 025a 4B40     		eors	r3, r1
 1752 025c D207     		lsls	r2, r2, #31
 1753 025e 58D5     		bpl	.L299
 1754              	.L225:
 1755 0260 354A     		ldr	r2, .L306+8
 155:modbusRTU.c   ****                         if (flag)
 1756              		.loc 1 155 0
 1757 0262 5908     		lsrs	r1, r3, #1
 157:modbusRTU.c   ****                 }
 1758              		.loc 1 157 0
 1759 0264 4A40     		eors	r2, r1
 1760 0266 DB07     		lsls	r3, r3, #31
 1761 0268 4CD5     		bpl	.L300
 1762              	.L227:
 1763 026a 334B     		ldr	r3, .L306+8
 155:modbusRTU.c   ****                         if (flag)
 1764              		.loc 1 155 0
 1765 026c 5108     		lsrs	r1, r2, #1
 157:modbusRTU.c   ****                 }
 1766              		.loc 1 157 0
 1767 026e 4B40     		eors	r3, r1
 1768 0270 D207     		lsls	r2, r2, #31
 1769 0272 40D5     		bpl	.L301
 1770              	.L229:
 1771 0274 304A     		ldr	r2, .L306+8
 155:modbusRTU.c   ****                         if (flag)
 1772              		.loc 1 155 0
 1773 0276 5908     		lsrs	r1, r3, #1
 157:modbusRTU.c   ****                 }
 1774              		.loc 1 157 0
 1775 0278 4A40     		eors	r2, r1
 1776 027a DB07     		lsls	r3, r3, #31
 1777 027c 34D5     		bpl	.L302
 1778              	.L231:
 1779 027e 2E4B     		ldr	r3, .L306+8
 155:modbusRTU.c   ****                         if (flag)
 1780              		.loc 1 155 0
 1781 0280 5108     		lsrs	r1, r2, #1
 157:modbusRTU.c   ****                 }
 1782              		.loc 1 157 0
 1783 0282 4B40     		eors	r3, r1
 1784 0284 D207     		lsls	r2, r2, #31
 1785 0286 28D5     		bpl	.L303
 1786              	.L233:
 1787 0288 2B4A     		ldr	r2, .L306+8
 155:modbusRTU.c   ****                         if (flag)
 1788              		.loc 1 155 0
 1789 028a 5908     		lsrs	r1, r3, #1
 157:modbusRTU.c   ****                 }
 1790              		.loc 1 157 0
ARM GAS  C:\Users\AFDHAL~1\AppData\Local\Temp\ccKZJoZj.s 			page 45


 1791 028c 4A40     		eors	r2, r1
 1792 028e DB07     		lsls	r3, r3, #31
 1793 0290 1CD5     		bpl	.L304
 1794              	.L235:
 1795 0292 294B     		ldr	r3, .L306+8
 155:modbusRTU.c   ****                         if (flag)
 1796              		.loc 1 155 0
 1797 0294 5108     		lsrs	r1, r2, #1
 157:modbusRTU.c   ****                 }
 1798              		.loc 1 157 0
 1799 0296 4B40     		eors	r3, r1
 1800 0298 D207     		lsls	r2, r2, #31
 1801 029a 15D5     		bpl	.L305
 1802              	.L237:
 1803              	.LVL118:
 1804              	.LBE84:
 1805              	.LBE83:
 247:modbusRTU.c   ****         string_length++;
 1806              		.loc 1 247 0
 1807 029c 6946     		mov	r1, sp
 249:modbusRTU.c   **** } 
 1808              		.loc 1 249 0
 1809 029e 0024     		movs	r4, #0
 1810              	.LBB87:
 1811              	.LBB85:
 162:modbusRTU.c   ****         temp = (temp << 8) | temp2;
 1812              		.loc 1 162 0
 1813 02a0 1A0A     		lsrs	r2, r3, #8
 1814              	.LVL119:
 163:modbusRTU.c   ****         temp &= 0xFFFF;
 1815              		.loc 1 163 0
 1816 02a2 1B02     		lsls	r3, r3, #8
 1817              	.LVL120:
 1818 02a4 1343     		orrs	r3, r2
 1819              	.LVL121:
 164:modbusRTU.c   **** 
 1820              		.loc 1 164 0
 1821 02a6 1B04     		lsls	r3, r3, #16
 1822              	.LVL122:
 1823 02a8 1B0C     		lsrs	r3, r3, #16
 1824              	.LVL123:
 1825              	.LBE85:
 1826              	.LBE87:
 247:modbusRTU.c   ****         string_length++;
 1827              		.loc 1 247 0
 1828 02aa 1A12     		asrs	r2, r3, #8
 1829 02ac 8A71     		strb	r2, [r1, #6]
 1830              	.LVL124:
 249:modbusRTU.c   **** } 
 1831              		.loc 1 249 0
 1832 02ae CB71     		strb	r3, [r1, #7]
 1833              	.LVL125:
 1834              	.L238:
 1835              	.LBE82:
 1836              	.LBE81:
 272:modbusRTU.c   ****         }
 1837              		.loc 1 272 0
ARM GAS  C:\Users\AFDHAL~1\AppData\Local\Temp\ccKZJoZj.s 			page 46


 1838 02b0 6B46     		mov	r3, sp
 1839 02b2 185D     		ldrb	r0, [r3, r4]
 1840 02b4 0134     		adds	r4, r4, #1
 1841              	.LVL126:
 1842 02b6 FFF7FEFF 		bl	USB_UART_SpiUartWriteTxData
 1843              	.LVL127:
 270:modbusRTU.c   ****                 //Serial.print(char(query[i]));
 1844              		.loc 1 270 0
 1845 02ba 082C     		cmp	r4, #8
 1846 02bc F8D1     		bne	.L238
 1847              	.LBE80:
 1848              	.LBE79:
 458:modbusRTU.c   ****         unsigned char function = FC_WRITE_REGS;	/* Preset Multiple Registers */
 459:modbusRTU.c   ****         int status = 0;
 460:modbusRTU.c   ****         unsigned char packet[RESPONSE_SIZE + CHECKSUM_SIZE];
 461:modbusRTU.c   **** 
 462:modbusRTU.c   ****         build_write_packet(function, start_addr, count, packet);
 463:modbusRTU.c   **** 
 464:modbusRTU.c   ****         if (write_regs(start_addr, query, regs)) {
 465:modbusRTU.c   ****                 status = send_reply(packet, RESPONSE_SIZE);
 1849              		.loc 1 465 0
 1850 02be 0820     		movs	r0, #8
 1851              	.LVL128:
 1852              	.L140:
 466:modbusRTU.c   ****         }
 467:modbusRTU.c   **** 
 468:modbusRTU.c   ****         return (status);
 469:modbusRTU.c   **** }
 1853              		.loc 1 469 0
 1854 02c0 02B0     		add	sp, sp, #8
 1855              	.LVL129:
 1856              		@ sp needed
 1857 02c2 04BC     		pop	{r2}
 1858 02c4 9046     		mov	r8, r2
 1859 02c6 F0BD     		pop	{r4, r5, r6, r7, pc}
 1860              	.LVL130:
 1861              	.L305:
 1862 02c8 0B00     		movs	r3, r1
 1863 02ca E7E7     		b	.L237
 1864              	.L304:
 1865 02cc 0A00     		movs	r2, r1
 1866              	.LBB92:
 1867              	.LBB91:
 1868              	.LBB90:
 1869              	.LBB89:
 1870              	.LBB88:
 1871              	.LBB86:
 157:modbusRTU.c   ****                 }
 1872              		.loc 1 157 0
 1873 02ce 1A4B     		ldr	r3, .L306+8
 155:modbusRTU.c   ****                         if (flag)
 1874              		.loc 1 155 0
 1875 02d0 5108     		lsrs	r1, r2, #1
 157:modbusRTU.c   ****                 }
 1876              		.loc 1 157 0
 1877 02d2 4B40     		eors	r3, r1
 1878 02d4 D207     		lsls	r2, r2, #31
ARM GAS  C:\Users\AFDHAL~1\AppData\Local\Temp\ccKZJoZj.s 			page 47


 1879 02d6 E1D4     		bmi	.L237
 1880 02d8 F6E7     		b	.L305
 1881              	.L303:
 1882 02da 0B00     		movs	r3, r1
 1883 02dc 164A     		ldr	r2, .L306+8
 155:modbusRTU.c   ****                         if (flag)
 1884              		.loc 1 155 0
 1885 02de 5908     		lsrs	r1, r3, #1
 157:modbusRTU.c   ****                 }
 1886              		.loc 1 157 0
 1887 02e0 4A40     		eors	r2, r1
 1888 02e2 DB07     		lsls	r3, r3, #31
 1889 02e4 D5D4     		bmi	.L235
 1890 02e6 F1E7     		b	.L304
 1891              	.L302:
 1892 02e8 0A00     		movs	r2, r1
 1893 02ea 134B     		ldr	r3, .L306+8
 155:modbusRTU.c   ****                         if (flag)
 1894              		.loc 1 155 0
 1895 02ec 5108     		lsrs	r1, r2, #1
 157:modbusRTU.c   ****                 }
 1896              		.loc 1 157 0
 1897 02ee 4B40     		eors	r3, r1
 1898 02f0 D207     		lsls	r2, r2, #31
 1899 02f2 C9D4     		bmi	.L233
 1900 02f4 F1E7     		b	.L303
 1901              	.L301:
 1902 02f6 0B00     		movs	r3, r1
 1903 02f8 0F4A     		ldr	r2, .L306+8
 155:modbusRTU.c   ****                         if (flag)
 1904              		.loc 1 155 0
 1905 02fa 5908     		lsrs	r1, r3, #1
 157:modbusRTU.c   ****                 }
 1906              		.loc 1 157 0
 1907 02fc 4A40     		eors	r2, r1
 1908 02fe DB07     		lsls	r3, r3, #31
 1909 0300 BDD4     		bmi	.L231
 1910 0302 F1E7     		b	.L302
 1911              	.L300:
 1912 0304 0A00     		movs	r2, r1
 1913 0306 0C4B     		ldr	r3, .L306+8
 155:modbusRTU.c   ****                         if (flag)
 1914              		.loc 1 155 0
 1915 0308 5108     		lsrs	r1, r2, #1
 157:modbusRTU.c   ****                 }
 1916              		.loc 1 157 0
 1917 030a 4B40     		eors	r3, r1
 1918 030c D207     		lsls	r2, r2, #31
 1919 030e B1D4     		bmi	.L229
 1920 0310 F1E7     		b	.L301
 1921              	.L299:
 1922 0312 0B00     		movs	r3, r1
 1923 0314 084A     		ldr	r2, .L306+8
 155:modbusRTU.c   ****                         if (flag)
 1924              		.loc 1 155 0
 1925 0316 5908     		lsrs	r1, r3, #1
 157:modbusRTU.c   ****                 }
ARM GAS  C:\Users\AFDHAL~1\AppData\Local\Temp\ccKZJoZj.s 			page 48


 1926              		.loc 1 157 0
 1927 0318 4A40     		eors	r2, r1
 1928 031a DB07     		lsls	r3, r3, #31
 1929 031c A5D4     		bmi	.L227
 1930 031e F1E7     		b	.L300
 1931              	.L298:
 1932 0320 1A00     		movs	r2, r3
 1933 0322 054B     		ldr	r3, .L306+8
 155:modbusRTU.c   ****                         if (flag)
 1934              		.loc 1 155 0
 1935 0324 5108     		lsrs	r1, r2, #1
 157:modbusRTU.c   ****                 }
 1936              		.loc 1 157 0
 1937 0326 4B40     		eors	r3, r1
 1938 0328 D207     		lsls	r2, r2, #31
 1939 032a 99D4     		bmi	.L225
 1940 032c F1E7     		b	.L299
 1941              	.L307:
 1942 032e C046     		.align	2
 1943              	.L306:
 1944 0330 00000000 		.word	slave
 1945 0334 FFFF0000 		.word	65535
 1946 0338 01A00000 		.word	40961
 1947              	.LVL131:
 1948              	.L297:
 1949 033c 0300     		movs	r3, r0
 1950              	.LVL132:
 1951 033e A04A     		ldr	r2, .L308
 151:modbusRTU.c   **** 
 1952              		.loc 1 151 0
 1953 0340 5940     		eors	r1, r3
 1954              	.LVL133:
 155:modbusRTU.c   ****                         if (flag)
 1955              		.loc 1 155 0
 1956 0342 4B08     		lsrs	r3, r1, #1
 157:modbusRTU.c   ****                 }
 1957              		.loc 1 157 0
 1958 0344 5A40     		eors	r2, r3
 1959 0346 C907     		lsls	r1, r1, #31
 1960 0348 00D5     		bpl	.LCB1913
 1961 034a 84E7     		b	.L223	@long jump
 1962              	.LCB1913:
 1963 034c E8E7     		b	.L298
 1964              	.LVL134:
 1965              	.L296:
 1966 034e 0200     		movs	r2, r0
 1967 0350 9B4B     		ldr	r3, .L308
 155:modbusRTU.c   ****                         if (flag)
 1968              		.loc 1 155 0
 1969 0352 5008     		lsrs	r0, r2, #1
 157:modbusRTU.c   ****                 }
 1970              		.loc 1 157 0
 1971 0354 4340     		eors	r3, r0
 1972 0356 D207     		lsls	r2, r2, #31
 1973 0358 00D5     		bpl	.LCB1925
 1974 035a 76E7     		b	.L221	@long jump
 1975              	.LCB1925:
ARM GAS  C:\Users\AFDHAL~1\AppData\Local\Temp\ccKZJoZj.s 			page 49


 1976 035c EEE7     		b	.L297
 1977              	.L295:
 1978 035e 0300     		movs	r3, r0
 1979 0360 974A     		ldr	r2, .L308
 155:modbusRTU.c   ****                         if (flag)
 1980              		.loc 1 155 0
 1981 0362 5808     		lsrs	r0, r3, #1
 157:modbusRTU.c   ****                 }
 1982              		.loc 1 157 0
 1983 0364 4240     		eors	r2, r0
 1984 0366 DB07     		lsls	r3, r3, #31
 1985 0368 00D5     		bpl	.LCB1935
 1986 036a 68E7     		b	.L219	@long jump
 1987              	.LCB1935:
 1988 036c EFE7     		b	.L296
 1989              	.L294:
 1990 036e 0200     		movs	r2, r0
 1991 0370 934B     		ldr	r3, .L308
 155:modbusRTU.c   ****                         if (flag)
 1992              		.loc 1 155 0
 1993 0372 5008     		lsrs	r0, r2, #1
 157:modbusRTU.c   ****                 }
 1994              		.loc 1 157 0
 1995 0374 4340     		eors	r3, r0
 1996 0376 D207     		lsls	r2, r2, #31
 1997 0378 00D5     		bpl	.LCB1945
 1998 037a 5AE7     		b	.L217	@long jump
 1999              	.LCB1945:
 2000 037c EFE7     		b	.L295
 2001              	.L293:
 2002 037e 0300     		movs	r3, r0
 2003 0380 8F4A     		ldr	r2, .L308
 155:modbusRTU.c   ****                         if (flag)
 2004              		.loc 1 155 0
 2005 0382 5808     		lsrs	r0, r3, #1
 157:modbusRTU.c   ****                 }
 2006              		.loc 1 157 0
 2007 0384 4240     		eors	r2, r0
 2008 0386 DB07     		lsls	r3, r3, #31
 2009 0388 00D5     		bpl	.LCB1955
 2010 038a 4CE7     		b	.L215	@long jump
 2011              	.LCB1955:
 2012 038c EFE7     		b	.L294
 2013              	.L292:
 2014 038e 0200     		movs	r2, r0
 2015 0390 8B4B     		ldr	r3, .L308
 155:modbusRTU.c   ****                         if (flag)
 2016              		.loc 1 155 0
 2017 0392 5008     		lsrs	r0, r2, #1
 157:modbusRTU.c   ****                 }
 2018              		.loc 1 157 0
 2019 0394 4340     		eors	r3, r0
 2020 0396 D207     		lsls	r2, r2, #31
 2021 0398 00D5     		bpl	.LCB1965
 2022 039a 3EE7     		b	.L213	@long jump
 2023              	.LCB1965:
 2024 039c EFE7     		b	.L293
ARM GAS  C:\Users\AFDHAL~1\AppData\Local\Temp\ccKZJoZj.s 			page 50


 2025              	.L291:
 2026 039e 0300     		movs	r3, r0
 2027 03a0 874A     		ldr	r2, .L308
 155:modbusRTU.c   ****                         if (flag)
 2028              		.loc 1 155 0
 2029 03a2 5808     		lsrs	r0, r3, #1
 157:modbusRTU.c   ****                 }
 2030              		.loc 1 157 0
 2031 03a4 4240     		eors	r2, r0
 2032 03a6 DB07     		lsls	r3, r3, #31
 2033 03a8 00D5     		bpl	.LCB1975
 2034 03aa 30E7     		b	.L211	@long jump
 2035              	.LCB1975:
 2036 03ac EFE7     		b	.L292
 2037              	.L290:
 2038 03ae 0200     		movs	r2, r0
 2039 03b0 834B     		ldr	r3, .L308
 155:modbusRTU.c   ****                         if (flag)
 2040              		.loc 1 155 0
 2041 03b2 5008     		lsrs	r0, r2, #1
 157:modbusRTU.c   ****                 }
 2042              		.loc 1 157 0
 2043 03b4 4340     		eors	r3, r0
 2044 03b6 D207     		lsls	r2, r2, #31
 2045 03b8 00D5     		bpl	.LCB1985
 2046 03ba 22E7     		b	.L209	@long jump
 2047              	.LCB1985:
 2048 03bc EFE7     		b	.L291
 2049              	.L289:
 2050 03be 0300     		movs	r3, r0
 2051 03c0 7F4A     		ldr	r2, .L308
 155:modbusRTU.c   ****                         if (flag)
 2052              		.loc 1 155 0
 2053 03c2 5808     		lsrs	r0, r3, #1
 157:modbusRTU.c   ****                 }
 2054              		.loc 1 157 0
 2055 03c4 4240     		eors	r2, r0
 2056 03c6 DB07     		lsls	r3, r3, #31
 2057 03c8 00D5     		bpl	.LCB1995
 2058 03ca 14E7     		b	.L207	@long jump
 2059              	.LCB1995:
 2060 03cc EFE7     		b	.L290
 2061              	.L288:
 2062 03ce 0200     		movs	r2, r0
 2063 03d0 7B4B     		ldr	r3, .L308
 155:modbusRTU.c   ****                         if (flag)
 2064              		.loc 1 155 0
 2065 03d2 5008     		lsrs	r0, r2, #1
 157:modbusRTU.c   ****                 }
 2066              		.loc 1 157 0
 2067 03d4 4340     		eors	r3, r0
 2068 03d6 D207     		lsls	r2, r2, #31
 2069 03d8 00D5     		bpl	.LCB2005
 2070 03da 06E7     		b	.L205	@long jump
 2071              	.LCB2005:
 2072 03dc EFE7     		b	.L289
 2073              	.L287:
ARM GAS  C:\Users\AFDHAL~1\AppData\Local\Temp\ccKZJoZj.s 			page 51


 2074 03de 0300     		movs	r3, r0
 2075 03e0 774A     		ldr	r2, .L308
 155:modbusRTU.c   ****                         if (flag)
 2076              		.loc 1 155 0
 2077 03e2 5808     		lsrs	r0, r3, #1
 157:modbusRTU.c   ****                 }
 2078              		.loc 1 157 0
 2079 03e4 4240     		eors	r2, r0
 2080 03e6 DB07     		lsls	r3, r3, #31
 2081 03e8 00D5     		bpl	.LCB2015
 2082 03ea F8E6     		b	.L203	@long jump
 2083              	.LCB2015:
 2084 03ec EFE7     		b	.L288
 2085              	.L286:
 2086 03ee 0200     		movs	r2, r0
 2087 03f0 734B     		ldr	r3, .L308
 155:modbusRTU.c   ****                         if (flag)
 2088              		.loc 1 155 0
 2089 03f2 5008     		lsrs	r0, r2, #1
 157:modbusRTU.c   ****                 }
 2090              		.loc 1 157 0
 2091 03f4 4340     		eors	r3, r0
 2092 03f6 D207     		lsls	r2, r2, #31
 2093 03f8 00D5     		bpl	.LCB2025
 2094 03fa EAE6     		b	.L201	@long jump
 2095              	.LCB2025:
 2096 03fc EFE7     		b	.L287
 2097              	.L285:
 2098 03fe 0300     		movs	r3, r0
 2099 0400 6F4A     		ldr	r2, .L308
 155:modbusRTU.c   ****                         if (flag)
 2100              		.loc 1 155 0
 2101 0402 5808     		lsrs	r0, r3, #1
 157:modbusRTU.c   ****                 }
 2102              		.loc 1 157 0
 2103 0404 4240     		eors	r2, r0
 2104 0406 DB07     		lsls	r3, r3, #31
 2105 0408 00D5     		bpl	.LCB2035
 2106 040a DCE6     		b	.L199	@long jump
 2107              	.LCB2035:
 2108 040c EFE7     		b	.L286
 2109              	.L284:
 2110 040e 0200     		movs	r2, r0
 2111 0410 6B4B     		ldr	r3, .L308
 155:modbusRTU.c   ****                         if (flag)
 2112              		.loc 1 155 0
 2113 0412 5008     		lsrs	r0, r2, #1
 157:modbusRTU.c   ****                 }
 2114              		.loc 1 157 0
 2115 0414 4340     		eors	r3, r0
 2116 0416 D207     		lsls	r2, r2, #31
 2117 0418 00D5     		bpl	.LCB2045
 2118 041a CEE6     		b	.L197	@long jump
 2119              	.LCB2045:
 2120 041c EFE7     		b	.L285
 2121              	.L283:
 2122 041e 0300     		movs	r3, r0
ARM GAS  C:\Users\AFDHAL~1\AppData\Local\Temp\ccKZJoZj.s 			page 52


 2123 0420 674A     		ldr	r2, .L308
 155:modbusRTU.c   ****                         if (flag)
 2124              		.loc 1 155 0
 2125 0422 5808     		lsrs	r0, r3, #1
 157:modbusRTU.c   ****                 }
 2126              		.loc 1 157 0
 2127 0424 4240     		eors	r2, r0
 2128 0426 DB07     		lsls	r3, r3, #31
 2129 0428 00D5     		bpl	.LCB2055
 2130 042a C0E6     		b	.L195	@long jump
 2131              	.LCB2055:
 2132 042c EFE7     		b	.L284
 2133              	.L282:
 2134 042e 1A00     		movs	r2, r3
 2135 0430 634B     		ldr	r3, .L308
 155:modbusRTU.c   ****                         if (flag)
 2136              		.loc 1 155 0
 2137 0432 5008     		lsrs	r0, r2, #1
 157:modbusRTU.c   ****                 }
 2138              		.loc 1 157 0
 2139 0434 4340     		eors	r3, r0
 2140 0436 D207     		lsls	r2, r2, #31
 2141 0438 00D5     		bpl	.LCB2065
 2142 043a B2E6     		b	.L193	@long jump
 2143              	.LCB2065:
 2144 043c EFE7     		b	.L283
 2145              	.LVL135:
 2146              	.L281:
 2147 043e FF22     		movs	r2, #255
 2148 0440 2300     		movs	r3, r4
 2149              	.LVL136:
 2150 0442 1040     		ands	r0, r2
 2151              	.LVL137:
 151:modbusRTU.c   **** 
 2152              		.loc 1 151 0
 2153 0444 5840     		eors	r0, r3
 2154              	.LVL138:
 157:modbusRTU.c   ****                 }
 2155              		.loc 1 157 0
 2156 0446 5E4A     		ldr	r2, .L308
 155:modbusRTU.c   ****                         if (flag)
 2157              		.loc 1 155 0
 2158 0448 4308     		lsrs	r3, r0, #1
 157:modbusRTU.c   ****                 }
 2159              		.loc 1 157 0
 2160 044a 5A40     		eors	r2, r3
 2161 044c C007     		lsls	r0, r0, #31
 2162 044e 00D5     		bpl	.LCB2084
 2163 0450 A1E6     		b	.L191	@long jump
 2164              	.LCB2084:
 2165 0452 ECE7     		b	.L282
 2166              	.LVL139:
 2167              	.L280:
 2168 0454 2200     		movs	r2, r4
 2169 0456 5A4B     		ldr	r3, .L308
 155:modbusRTU.c   ****                         if (flag)
 2170              		.loc 1 155 0
ARM GAS  C:\Users\AFDHAL~1\AppData\Local\Temp\ccKZJoZj.s 			page 53


 2171 0458 5408     		lsrs	r4, r2, #1
 157:modbusRTU.c   ****                 }
 2172              		.loc 1 157 0
 2173 045a 6340     		eors	r3, r4
 2174 045c D207     		lsls	r2, r2, #31
 2175 045e 00D5     		bpl	.LCB2096
 2176 0460 90E6     		b	.L189	@long jump
 2177              	.LCB2096:
 2178 0462 ECE7     		b	.L281
 2179              	.L279:
 2180 0464 2300     		movs	r3, r4
 2181 0466 564A     		ldr	r2, .L308
 155:modbusRTU.c   ****                         if (flag)
 2182              		.loc 1 155 0
 2183 0468 5C08     		lsrs	r4, r3, #1
 157:modbusRTU.c   ****                 }
 2184              		.loc 1 157 0
 2185 046a 6240     		eors	r2, r4
 2186 046c DB07     		lsls	r3, r3, #31
 2187 046e 00D5     		bpl	.LCB2106
 2188 0470 82E6     		b	.L187	@long jump
 2189              	.LCB2106:
 2190 0472 EFE7     		b	.L280
 2191              	.L278:
 2192 0474 2200     		movs	r2, r4
 2193 0476 524B     		ldr	r3, .L308
 155:modbusRTU.c   ****                         if (flag)
 2194              		.loc 1 155 0
 2195 0478 5408     		lsrs	r4, r2, #1
 157:modbusRTU.c   ****                 }
 2196              		.loc 1 157 0
 2197 047a 6340     		eors	r3, r4
 2198 047c D207     		lsls	r2, r2, #31
 2199 047e 00D5     		bpl	.LCB2116
 2200 0480 74E6     		b	.L185	@long jump
 2201              	.LCB2116:
 2202 0482 EFE7     		b	.L279
 2203              	.L277:
 2204 0484 2300     		movs	r3, r4
 2205 0486 4E4A     		ldr	r2, .L308
 155:modbusRTU.c   ****                         if (flag)
 2206              		.loc 1 155 0
 2207 0488 5C08     		lsrs	r4, r3, #1
 157:modbusRTU.c   ****                 }
 2208              		.loc 1 157 0
 2209 048a 6240     		eors	r2, r4
 2210 048c DB07     		lsls	r3, r3, #31
 2211 048e 00D5     		bpl	.LCB2126
 2212 0490 66E6     		b	.L183	@long jump
 2213              	.LCB2126:
 2214 0492 EFE7     		b	.L278
 2215              	.L276:
 2216 0494 2200     		movs	r2, r4
 2217 0496 4A4B     		ldr	r3, .L308
 155:modbusRTU.c   ****                         if (flag)
 2218              		.loc 1 155 0
 2219 0498 5408     		lsrs	r4, r2, #1
ARM GAS  C:\Users\AFDHAL~1\AppData\Local\Temp\ccKZJoZj.s 			page 54


 157:modbusRTU.c   ****                 }
 2220              		.loc 1 157 0
 2221 049a 6340     		eors	r3, r4
 2222 049c D207     		lsls	r2, r2, #31
 2223 049e 00D5     		bpl	.LCB2136
 2224 04a0 58E6     		b	.L181	@long jump
 2225              	.LCB2136:
 2226 04a2 EFE7     		b	.L277
 2227              	.L275:
 2228 04a4 2300     		movs	r3, r4
 2229 04a6 464A     		ldr	r2, .L308
 155:modbusRTU.c   ****                         if (flag)
 2230              		.loc 1 155 0
 2231 04a8 5C08     		lsrs	r4, r3, #1
 157:modbusRTU.c   ****                 }
 2232              		.loc 1 157 0
 2233 04aa 6240     		eors	r2, r4
 2234 04ac DB07     		lsls	r3, r3, #31
 2235 04ae 00D5     		bpl	.LCB2146
 2236 04b0 4AE6     		b	.L179	@long jump
 2237              	.LCB2146:
 2238 04b2 EFE7     		b	.L276
 2239              	.L274:
 2240 04b4 2200     		movs	r2, r4
 2241 04b6 424B     		ldr	r3, .L308
 155:modbusRTU.c   ****                         if (flag)
 2242              		.loc 1 155 0
 2243 04b8 5408     		lsrs	r4, r2, #1
 157:modbusRTU.c   ****                 }
 2244              		.loc 1 157 0
 2245 04ba 6340     		eors	r3, r4
 2246 04bc D207     		lsls	r2, r2, #31
 2247 04be 00D5     		bpl	.LCB2156
 2248 04c0 3CE6     		b	.L177	@long jump
 2249              	.LCB2156:
 2250 04c2 EFE7     		b	.L275
 2251              	.L273:
 2252 04c4 2300     		movs	r3, r4
 2253 04c6 29E6     		b	.L173
 2254              	.L272:
 2255 04c8 2200     		movs	r2, r4
 2256 04ca 3D4C     		ldr	r4, .L308
 155:modbusRTU.c   ****                         if (flag)
 2257              		.loc 1 155 0
 2258 04cc 5308     		lsrs	r3, r2, #1
 157:modbusRTU.c   ****                 }
 2259              		.loc 1 157 0
 2260 04ce 5C40     		eors	r4, r3
 2261 04d0 D207     		lsls	r2, r2, #31
 2262 04d2 00D4     		bmi	.LCB2171
 2263 04d4 22E6     		b	.L173	@long jump
 2264              	.LCB2171:
 2265 04d6 F5E7     		b	.L273
 2266              	.L271:
 2267 04d8 2300     		movs	r3, r4
 2268 04da 394C     		ldr	r4, .L308
 155:modbusRTU.c   ****                         if (flag)
ARM GAS  C:\Users\AFDHAL~1\AppData\Local\Temp\ccKZJoZj.s 			page 55


 2269              		.loc 1 155 0
 2270 04dc 5A08     		lsrs	r2, r3, #1
 157:modbusRTU.c   ****                 }
 2271              		.loc 1 157 0
 2272 04de 5440     		eors	r4, r2
 2273 04e0 DB07     		lsls	r3, r3, #31
 2274 04e2 00D4     		bmi	.LCB2181
 2275 04e4 14E6     		b	.L171	@long jump
 2276              	.LCB2181:
 2277 04e6 EFE7     		b	.L272
 2278              	.L270:
 2279 04e8 2200     		movs	r2, r4
 2280 04ea 354C     		ldr	r4, .L308
 155:modbusRTU.c   ****                         if (flag)
 2281              		.loc 1 155 0
 2282 04ec 5308     		lsrs	r3, r2, #1
 157:modbusRTU.c   ****                 }
 2283              		.loc 1 157 0
 2284 04ee 5C40     		eors	r4, r3
 2285 04f0 D207     		lsls	r2, r2, #31
 2286 04f2 00D4     		bmi	.LCB2191
 2287 04f4 06E6     		b	.L169	@long jump
 2288              	.LCB2191:
 2289 04f6 EFE7     		b	.L271
 2290              	.L269:
 2291 04f8 2300     		movs	r3, r4
 2292 04fa 314C     		ldr	r4, .L308
 155:modbusRTU.c   ****                         if (flag)
 2293              		.loc 1 155 0
 2294 04fc 5A08     		lsrs	r2, r3, #1
 157:modbusRTU.c   ****                 }
 2295              		.loc 1 157 0
 2296 04fe 5440     		eors	r4, r2
 2297 0500 DB07     		lsls	r3, r3, #31
 2298 0502 00D4     		bmi	.LCB2201
 2299 0504 F8E5     		b	.L167	@long jump
 2300              	.LCB2201:
 2301 0506 EFE7     		b	.L270
 2302              	.L268:
 2303 0508 2200     		movs	r2, r4
 2304 050a 2D4C     		ldr	r4, .L308
 155:modbusRTU.c   ****                         if (flag)
 2305              		.loc 1 155 0
 2306 050c 5308     		lsrs	r3, r2, #1
 157:modbusRTU.c   ****                 }
 2307              		.loc 1 157 0
 2308 050e 5C40     		eors	r4, r3
 2309 0510 D207     		lsls	r2, r2, #31
 2310 0512 00D4     		bmi	.LCB2211
 2311 0514 EAE5     		b	.L165	@long jump
 2312              	.LCB2211:
 2313 0516 EFE7     		b	.L269
 2314              	.L267:
 2315 0518 2300     		movs	r3, r4
 2316 051a 294C     		ldr	r4, .L308
 155:modbusRTU.c   ****                         if (flag)
 2317              		.loc 1 155 0
ARM GAS  C:\Users\AFDHAL~1\AppData\Local\Temp\ccKZJoZj.s 			page 56


 2318 051c 5A08     		lsrs	r2, r3, #1
 157:modbusRTU.c   ****                 }
 2319              		.loc 1 157 0
 2320 051e 5440     		eors	r4, r2
 2321 0520 DB07     		lsls	r3, r3, #31
 2322 0522 00D4     		bmi	.LCB2221
 2323 0524 DCE5     		b	.L163	@long jump
 2324              	.LCB2221:
 2325 0526 EFE7     		b	.L268
 2326              	.L266:
 2327 0528 2200     		movs	r2, r4
 2328 052a 254C     		ldr	r4, .L308
 155:modbusRTU.c   ****                         if (flag)
 2329              		.loc 1 155 0
 2330 052c 5308     		lsrs	r3, r2, #1
 157:modbusRTU.c   ****                 }
 2331              		.loc 1 157 0
 2332 052e 5C40     		eors	r4, r3
 2333 0530 D207     		lsls	r2, r2, #31
 2334 0532 00D4     		bmi	.LCB2231
 2335 0534 CEE5     		b	.L161	@long jump
 2336              	.LCB2231:
 2337 0536 EFE7     		b	.L267
 2338              	.L265:
 2339 0538 2200     		movs	r2, r4
 2340              	.LVL140:
 151:modbusRTU.c   **** 
 2341              		.loc 1 151 0
 2342 053a 1023     		movs	r3, #16
 157:modbusRTU.c   ****                 }
 2343              		.loc 1 157 0
 2344 053c 204C     		ldr	r4, .L308
 151:modbusRTU.c   **** 
 2345              		.loc 1 151 0
 2346 053e 5340     		eors	r3, r2
 2347              	.LVL141:
 155:modbusRTU.c   ****                         if (flag)
 2348              		.loc 1 155 0
 2349 0540 5A08     		lsrs	r2, r3, #1
 157:modbusRTU.c   ****                 }
 2350              		.loc 1 157 0
 2351 0542 5440     		eors	r4, r2
 2352 0544 DB07     		lsls	r3, r3, #31
 2353 0546 00D4     		bmi	.LCB2245
 2354 0548 BEE5     		b	.L159	@long jump
 2355              	.LCB2245:
 2356 054a EDE7     		b	.L266
 2357              	.L264:
 2358 054c 2300     		movs	r3, r4
 2359 054e 1C4C     		ldr	r4, .L308
 155:modbusRTU.c   ****                         if (flag)
 2360              		.loc 1 155 0
 2361 0550 5A08     		lsrs	r2, r3, #1
 157:modbusRTU.c   ****                 }
 2362              		.loc 1 157 0
 2363 0552 5440     		eors	r4, r2
 2364 0554 DB07     		lsls	r3, r3, #31
ARM GAS  C:\Users\AFDHAL~1\AppData\Local\Temp\ccKZJoZj.s 			page 57


 2365 0556 00D4     		bmi	.LCB2255
 2366 0558 AEE5     		b	.L157	@long jump
 2367              	.LCB2255:
 2368 055a EDE7     		b	.L265
 2369              	.L263:
 2370 055c 2200     		movs	r2, r4
 2371 055e 184C     		ldr	r4, .L308
 155:modbusRTU.c   ****                         if (flag)
 2372              		.loc 1 155 0
 2373 0560 5308     		lsrs	r3, r2, #1
 157:modbusRTU.c   ****                 }
 2374              		.loc 1 157 0
 2375 0562 5C40     		eors	r4, r3
 2376 0564 D207     		lsls	r2, r2, #31
 2377 0566 00D4     		bmi	.LCB2265
 2378 0568 A0E5     		b	.L155	@long jump
 2379              	.LCB2265:
 2380 056a EFE7     		b	.L264
 2381              	.L262:
 2382 056c 2300     		movs	r3, r4
 2383 056e 144C     		ldr	r4, .L308
 155:modbusRTU.c   ****                         if (flag)
 2384              		.loc 1 155 0
 2385 0570 5A08     		lsrs	r2, r3, #1
 157:modbusRTU.c   ****                 }
 2386              		.loc 1 157 0
 2387 0572 5440     		eors	r4, r2
 2388 0574 DB07     		lsls	r3, r3, #31
 2389 0576 00D4     		bmi	.LCB2275
 2390 0578 92E5     		b	.L153	@long jump
 2391              	.LCB2275:
 2392 057a EFE7     		b	.L263
 2393              	.L261:
 2394 057c 2200     		movs	r2, r4
 2395 057e 104C     		ldr	r4, .L308
 155:modbusRTU.c   ****                         if (flag)
 2396              		.loc 1 155 0
 2397 0580 5308     		lsrs	r3, r2, #1
 157:modbusRTU.c   ****                 }
 2398              		.loc 1 157 0
 2399 0582 5C40     		eors	r4, r3
 2400 0584 D207     		lsls	r2, r2, #31
 2401 0586 00D4     		bmi	.LCB2285
 2402 0588 84E5     		b	.L151	@long jump
 2403              	.LCB2285:
 2404 058a EFE7     		b	.L262
 2405              	.L260:
 2406 058c 2300     		movs	r3, r4
 2407 058e 0C4C     		ldr	r4, .L308
 155:modbusRTU.c   ****                         if (flag)
 2408              		.loc 1 155 0
 2409 0590 5A08     		lsrs	r2, r3, #1
 157:modbusRTU.c   ****                 }
 2410              		.loc 1 157 0
 2411 0592 5440     		eors	r4, r2
 2412 0594 DB07     		lsls	r3, r3, #31
 2413 0596 00D4     		bmi	.LCB2295
ARM GAS  C:\Users\AFDHAL~1\AppData\Local\Temp\ccKZJoZj.s 			page 58


 2414 0598 76E5     		b	.L149	@long jump
 2415              	.LCB2295:
 2416 059a EFE7     		b	.L261
 2417              	.L259:
 2418 059c 2200     		movs	r2, r4
 2419 059e 084C     		ldr	r4, .L308
 155:modbusRTU.c   ****                         if (flag)
 2420              		.loc 1 155 0
 2421 05a0 5308     		lsrs	r3, r2, #1
 157:modbusRTU.c   ****                 }
 2422              		.loc 1 157 0
 2423 05a2 5C40     		eors	r4, r3
 2424 05a4 D207     		lsls	r2, r2, #31
 2425 05a6 00D4     		bmi	.LCB2305
 2426 05a8 68E5     		b	.L147	@long jump
 2427              	.LCB2305:
 2428 05aa EFE7     		b	.L260
 2429              	.L258:
 2430 05ac 1300     		movs	r3, r2
 2431 05ae 044C     		ldr	r4, .L308
 155:modbusRTU.c   ****                         if (flag)
 2432              		.loc 1 155 0
 2433 05b0 5A08     		lsrs	r2, r3, #1
 157:modbusRTU.c   ****                 }
 2434              		.loc 1 157 0
 2435 05b2 5440     		eors	r4, r2
 2436 05b4 DB07     		lsls	r3, r3, #31
 2437 05b6 00D4     		bmi	.LCB2315
 2438 05b8 5AE5     		b	.L145	@long jump
 2439              	.LCB2315:
 2440 05ba EFE7     		b	.L259
 2441              	.LVL142:
 2442              	.L239:
 2443              	.LBE86:
 2444              	.LBE88:
 2445              	.LBE89:
 2446              	.LBE90:
 2447              	.LBE91:
 2448              	.LBE92:
 459:modbusRTU.c   ****         unsigned char packet[RESPONSE_SIZE + CHECKSUM_SIZE];
 2449              		.loc 1 459 0
 2450 05bc 0020     		movs	r0, #0
 2451              	.LVL143:
 2452 05be 7FE6     		b	.L140
 2453              	.L309:
 2454              		.align	2
 2455              	.L308:
 2456 05c0 01A00000 		.word	40961
 2457              		.cfi_endproc
 2458              	.LFE45:
 2459              		.size	preset_multiple_registers, .-preset_multiple_registers
 2460              		.section	.text.write_single_register,"ax",%progbits
 2461              		.align	2
 2462              		.global	write_single_register
 2463              		.code	16
 2464              		.thumb_func
 2465              		.type	write_single_register, %function
ARM GAS  C:\Users\AFDHAL~1\AppData\Local\Temp\ccKZJoZj.s 			page 59


 2466              	write_single_register:
 2467              	.LFB46:
 470:modbusRTU.c   **** 
 471:modbusRTU.c   **** /************************************************************************
 472:modbusRTU.c   ****  * 
 473:modbusRTU.c   ****  * write_single_register(slave_id, write_addr, data_array, registers_array)
 474:modbusRTU.c   ****  * 
 475:modbusRTU.c   ****  * Write a single int val into a single holding register of the slave. 
 476:modbusRTU.c   ****  * 
 477:modbusRTU.c   ****  *************************************************************************/
 478:modbusRTU.c   **** 
 479:modbusRTU.c   **** int write_single_register(unsigned int write_addr, unsigned char *query, int *regs) 
 480:modbusRTU.c   **** {
 2468              		.loc 1 480 0
 2469              		.cfi_startproc
 2470              		@ args = 0, pretend = 0, frame = 8
 2471              		@ frame_needed = 0, uses_anonymous_args = 0
 2472              	.LVL144:
 2473 0000 70B5     		push	{r4, r5, r6, lr}
 2474              		.cfi_def_cfa_offset 16
 2475              		.cfi_offset 4, -16
 2476              		.cfi_offset 5, -12
 2477              		.cfi_offset 6, -8
 2478              		.cfi_offset 14, -4
 481:modbusRTU.c   ****         unsigned char function = FC_WRITE_REG; /* Function: Write Single Register */
 482:modbusRTU.c   ****         int status = 0;
 483:modbusRTU.c   ****         unsigned int reg_val;
 484:modbusRTU.c   ****         unsigned char packet[RESPONSE_SIZE + CHECKSUM_SIZE];
 485:modbusRTU.c   **** 
 486:modbusRTU.c   ****         reg_val = query[REGS_H] << 8 | query[REGS_L];
 2479              		.loc 1 486 0
 2480 0002 0B79     		ldrb	r3, [r1, #4]
 2481 0004 4979     		ldrb	r1, [r1, #5]
 2482              	.LVL145:
 2483 0006 1B02     		lsls	r3, r3, #8
 2484 0008 0B43     		orrs	r3, r1
 2485              	.LVL146:
 2486              	.LBB103:
 2487              	.LBB104:
 212:modbusRTU.c   ****         packet[FUNC] = function;
 2488              		.loc 1 212 0
 2489 000a A949     		ldr	r1, .L419
 2490              	.LBE104:
 2491              	.LBE103:
 480:modbusRTU.c   ****         unsigned char function = FC_WRITE_REG; /* Function: Write Single Register */
 2492              		.loc 1 480 0
 2493 000c 82B0     		sub	sp, sp, #8
 2494              		.cfi_def_cfa_offset 24
 2495              	.LVL147:
 2496              	.LBB106:
 2497              	.LBB105:
 212:modbusRTU.c   ****         packet[FUNC] = function;
 2498              		.loc 1 212 0
 2499 000e 0C78     		ldrb	r4, [r1]
 2500 0010 6946     		mov	r1, sp
 213:modbusRTU.c   ****         packet[START_H] = write_addr >> 8;
 2501              		.loc 1 213 0
ARM GAS  C:\Users\AFDHAL~1\AppData\Local\Temp\ccKZJoZj.s 			page 60


 2502 0012 6D46     		mov	r5, sp
 212:modbusRTU.c   ****         packet[FUNC] = function;
 2503              		.loc 1 212 0
 2504 0014 0C70     		strb	r4, [r1]
 213:modbusRTU.c   ****         packet[START_H] = write_addr >> 8;
 2505              		.loc 1 213 0
 2506 0016 0621     		movs	r1, #6
 216:modbusRTU.c   ****         packet[REGS_L] = reg_val & 0x00ff;
 2507              		.loc 1 216 0
 2508 0018 6E46     		mov	r6, sp
 213:modbusRTU.c   ****         packet[START_H] = write_addr >> 8;
 2509              		.loc 1 213 0
 2510 001a 6970     		strb	r1, [r5, #1]
 214:modbusRTU.c   ****         packet[START_L] = write_addr & 0x00ff;
 2511              		.loc 1 214 0
 2512 001c 010A     		lsrs	r1, r0, #8
 2513 001e A970     		strb	r1, [r5, #2]
 215:modbusRTU.c   ****         packet[REGS_H] = reg_val >> 8;
 2514              		.loc 1 215 0
 2515 0020 E870     		strb	r0, [r5, #3]
 216:modbusRTU.c   ****         packet[REGS_L] = reg_val & 0x00ff;
 2516              		.loc 1 216 0
 2517 0022 1D0A     		lsrs	r5, r3, #8
 2518 0024 3571     		strb	r5, [r6, #4]
 217:modbusRTU.c   **** } 
 2519              		.loc 1 217 0
 2520 0026 7371     		strb	r3, [r6, #5]
 2521              	.LVL148:
 2522              	.LBE105:
 2523              	.LBE106:
 487:modbusRTU.c   ****         build_write_single_packet(function, write_addr, reg_val, packet);
 488:modbusRTU.c   ****         regs[write_addr] = (int) reg_val;
 2524              		.loc 1 488 0
 2525 0028 8600     		lsls	r6, r0, #2
 2526 002a B350     		str	r3, [r6, r2]
 2527              	.LVL149:
 2528              	.LBB107:
 2529              	.LBB108:
 2530              	.LBB109:
 2531              	.LBB110:
 2532              	.LBB111:
 2533              	.LBB112:
 151:modbusRTU.c   **** 
 2534              		.loc 1 151 0
 2535 002c A14A     		ldr	r2, .L419+4
 2536              	.LVL150:
 157:modbusRTU.c   ****                 }
 2537              		.loc 1 157 0
 2538 002e A24E     		ldr	r6, .L419+8
 151:modbusRTU.c   **** 
 2539              		.loc 1 151 0
 2540 0030 5440     		eors	r4, r2
 155:modbusRTU.c   ****                         if (flag)
 2541              		.loc 1 155 0
 2542 0032 6208     		lsrs	r2, r4, #1
 157:modbusRTU.c   ****                 }
 2543              		.loc 1 157 0
ARM GAS  C:\Users\AFDHAL~1\AppData\Local\Temp\ccKZJoZj.s 			page 61


 2544 0034 5640     		eors	r6, r2
 2545 0036 E407     		lsls	r4, r4, #31
 2546 0038 00D5     		bpl	.L312
 2547 003a 3200     		movs	r2, r6
 2548              	.L312:
 2549 003c 9E4E     		ldr	r6, .L419+8
 155:modbusRTU.c   ****                         if (flag)
 2550              		.loc 1 155 0
 2551 003e 5408     		lsrs	r4, r2, #1
 157:modbusRTU.c   ****                 }
 2552              		.loc 1 157 0
 2553 0040 6640     		eors	r6, r4
 2554 0042 D207     		lsls	r2, r2, #31
 2555 0044 00D5     		bpl	.L314
 2556 0046 3400     		movs	r4, r6
 2557              	.L314:
 2558 0048 9B4E     		ldr	r6, .L419+8
 155:modbusRTU.c   ****                         if (flag)
 2559              		.loc 1 155 0
 2560 004a 6208     		lsrs	r2, r4, #1
 157:modbusRTU.c   ****                 }
 2561              		.loc 1 157 0
 2562 004c 5640     		eors	r6, r2
 2563 004e E407     		lsls	r4, r4, #31
 2564 0050 00D5     		bpl	.L316
 2565 0052 3200     		movs	r2, r6
 2566              	.L316:
 2567 0054 984E     		ldr	r6, .L419+8
 155:modbusRTU.c   ****                         if (flag)
 2568              		.loc 1 155 0
 2569 0056 5408     		lsrs	r4, r2, #1
 157:modbusRTU.c   ****                 }
 2570              		.loc 1 157 0
 2571 0058 6640     		eors	r6, r4
 2572 005a D207     		lsls	r2, r2, #31
 2573 005c 00D5     		bpl	.L318
 2574 005e 3400     		movs	r4, r6
 2575              	.L318:
 2576 0060 954E     		ldr	r6, .L419+8
 155:modbusRTU.c   ****                         if (flag)
 2577              		.loc 1 155 0
 2578 0062 6208     		lsrs	r2, r4, #1
 157:modbusRTU.c   ****                 }
 2579              		.loc 1 157 0
 2580 0064 5640     		eors	r6, r2
 2581 0066 E407     		lsls	r4, r4, #31
 2582 0068 00D5     		bpl	.L320
 2583 006a 3200     		movs	r2, r6
 2584              	.L320:
 2585 006c 924E     		ldr	r6, .L419+8
 155:modbusRTU.c   ****                         if (flag)
 2586              		.loc 1 155 0
 2587 006e 5408     		lsrs	r4, r2, #1
 157:modbusRTU.c   ****                 }
 2588              		.loc 1 157 0
 2589 0070 6640     		eors	r6, r4
 2590 0072 D207     		lsls	r2, r2, #31
ARM GAS  C:\Users\AFDHAL~1\AppData\Local\Temp\ccKZJoZj.s 			page 62


 2591 0074 00D5     		bpl	.L322
 2592 0076 3400     		movs	r4, r6
 2593              	.L322:
 2594 0078 8F4E     		ldr	r6, .L419+8
 155:modbusRTU.c   ****                         if (flag)
 2595              		.loc 1 155 0
 2596 007a 6208     		lsrs	r2, r4, #1
 157:modbusRTU.c   ****                 }
 2597              		.loc 1 157 0
 2598 007c 5640     		eors	r6, r2
 2599 007e E407     		lsls	r4, r4, #31
 2600 0080 00D5     		bpl	.L324
 2601 0082 3200     		movs	r2, r6
 2602              	.L324:
 2603 0084 8C4E     		ldr	r6, .L419+8
 155:modbusRTU.c   ****                         if (flag)
 2604              		.loc 1 155 0
 2605 0086 5408     		lsrs	r4, r2, #1
 157:modbusRTU.c   ****                 }
 2606              		.loc 1 157 0
 2607 0088 6640     		eors	r6, r4
 2608 008a D207     		lsls	r2, r2, #31
 2609 008c 00D5     		bpl	.L326
 2610 008e 3400     		movs	r4, r6
 2611              	.L326:
 2612              	.LVL151:
 151:modbusRTU.c   **** 
 2613              		.loc 1 151 0
 2614 0090 0622     		movs	r2, #6
 157:modbusRTU.c   ****                 }
 2615              		.loc 1 157 0
 2616 0092 894E     		ldr	r6, .L419+8
 151:modbusRTU.c   **** 
 2617              		.loc 1 151 0
 2618 0094 5440     		eors	r4, r2
 2619              	.LVL152:
 155:modbusRTU.c   ****                         if (flag)
 2620              		.loc 1 155 0
 2621 0096 6208     		lsrs	r2, r4, #1
 157:modbusRTU.c   ****                 }
 2622              		.loc 1 157 0
 2623 0098 5640     		eors	r6, r2
 2624 009a E407     		lsls	r4, r4, #31
 2625 009c 00D5     		bpl	.L328
 2626 009e 3200     		movs	r2, r6
 2627              	.L328:
 2628 00a0 854E     		ldr	r6, .L419+8
 155:modbusRTU.c   ****                         if (flag)
 2629              		.loc 1 155 0
 2630 00a2 5408     		lsrs	r4, r2, #1
 157:modbusRTU.c   ****                 }
 2631              		.loc 1 157 0
 2632 00a4 6640     		eors	r6, r4
 2633 00a6 D207     		lsls	r2, r2, #31
 2634 00a8 00D5     		bpl	.L330
 2635 00aa 3400     		movs	r4, r6
 2636              	.L330:
ARM GAS  C:\Users\AFDHAL~1\AppData\Local\Temp\ccKZJoZj.s 			page 63


 2637 00ac 824A     		ldr	r2, .L419+8
 155:modbusRTU.c   ****                         if (flag)
 2638              		.loc 1 155 0
 2639 00ae 6608     		lsrs	r6, r4, #1
 157:modbusRTU.c   ****                 }
 2640              		.loc 1 157 0
 2641 00b0 7240     		eors	r2, r6
 2642 00b2 E407     		lsls	r4, r4, #31
 2643 00b4 00D4     		bmi	.L332
 2644 00b6 3200     		movs	r2, r6
 2645              	.L332:
 2646 00b8 7F4C     		ldr	r4, .L419+8
 155:modbusRTU.c   ****                         if (flag)
 2647              		.loc 1 155 0
 2648 00ba 5608     		lsrs	r6, r2, #1
 157:modbusRTU.c   ****                 }
 2649              		.loc 1 157 0
 2650 00bc 7440     		eors	r4, r6
 2651 00be D207     		lsls	r2, r2, #31
 2652 00c0 00D4     		bmi	.L334
 2653 00c2 3400     		movs	r4, r6
 2654              	.L334:
 2655 00c4 7C4A     		ldr	r2, .L419+8
 155:modbusRTU.c   ****                         if (flag)
 2656              		.loc 1 155 0
 2657 00c6 6608     		lsrs	r6, r4, #1
 157:modbusRTU.c   ****                 }
 2658              		.loc 1 157 0
 2659 00c8 7240     		eors	r2, r6
 2660 00ca E407     		lsls	r4, r4, #31
 2661 00cc 00D4     		bmi	.L336
 2662 00ce 3200     		movs	r2, r6
 2663              	.L336:
 2664 00d0 794C     		ldr	r4, .L419+8
 155:modbusRTU.c   ****                         if (flag)
 2665              		.loc 1 155 0
 2666 00d2 5608     		lsrs	r6, r2, #1
 157:modbusRTU.c   ****                 }
 2667              		.loc 1 157 0
 2668 00d4 7440     		eors	r4, r6
 2669 00d6 D207     		lsls	r2, r2, #31
 2670 00d8 00D4     		bmi	.L338
 2671 00da 3400     		movs	r4, r6
 2672              	.L338:
 2673 00dc 764A     		ldr	r2, .L419+8
 155:modbusRTU.c   ****                         if (flag)
 2674              		.loc 1 155 0
 2675 00de 6608     		lsrs	r6, r4, #1
 157:modbusRTU.c   ****                 }
 2676              		.loc 1 157 0
 2677 00e0 7240     		eors	r2, r6
 2678 00e2 E407     		lsls	r4, r4, #31
 2679 00e4 00D4     		bmi	.L340
 2680 00e6 3200     		movs	r2, r6
 2681              	.L340:
 2682 00e8 734C     		ldr	r4, .L419+8
 155:modbusRTU.c   ****                         if (flag)
ARM GAS  C:\Users\AFDHAL~1\AppData\Local\Temp\ccKZJoZj.s 			page 64


 2683              		.loc 1 155 0
 2684 00ea 5608     		lsrs	r6, r2, #1
 157:modbusRTU.c   ****                 }
 2685              		.loc 1 157 0
 2686 00ec 7440     		eors	r4, r6
 2687 00ee D207     		lsls	r2, r2, #31
 2688 00f0 00D4     		bmi	.L342
 2689 00f2 3400     		movs	r4, r6
 2690              	.L342:
 2691              	.LVL153:
 2692 00f4 FF22     		movs	r2, #255
 2693 00f6 1140     		ands	r1, r2
 151:modbusRTU.c   **** 
 2694              		.loc 1 151 0
 2695 00f8 6140     		eors	r1, r4
 2696              	.LVL154:
 157:modbusRTU.c   ****                 }
 2697              		.loc 1 157 0
 2698 00fa 6F4A     		ldr	r2, .L419+8
 155:modbusRTU.c   ****                         if (flag)
 2699              		.loc 1 155 0
 2700 00fc 4C08     		lsrs	r4, r1, #1
 157:modbusRTU.c   ****                 }
 2701              		.loc 1 157 0
 2702 00fe 6240     		eors	r2, r4
 2703 0100 C907     		lsls	r1, r1, #31
 2704 0102 00D4     		bmi	.L344
 2705 0104 2200     		movs	r2, r4
 2706              	.L344:
 2707 0106 6C49     		ldr	r1, .L419+8
 155:modbusRTU.c   ****                         if (flag)
 2708              		.loc 1 155 0
 2709 0108 5408     		lsrs	r4, r2, #1
 157:modbusRTU.c   ****                 }
 2710              		.loc 1 157 0
 2711 010a 6140     		eors	r1, r4
 2712 010c D207     		lsls	r2, r2, #31
 2713 010e 00D4     		bmi	.L346
 2714 0110 2100     		movs	r1, r4
 2715              	.L346:
 2716 0112 694A     		ldr	r2, .L419+8
 155:modbusRTU.c   ****                         if (flag)
 2717              		.loc 1 155 0
 2718 0114 4C08     		lsrs	r4, r1, #1
 157:modbusRTU.c   ****                 }
 2719              		.loc 1 157 0
 2720 0116 6240     		eors	r2, r4
 2721 0118 C907     		lsls	r1, r1, #31
 2722 011a 00D4     		bmi	.L348
 2723 011c 2200     		movs	r2, r4
 2724              	.L348:
 2725 011e 6649     		ldr	r1, .L419+8
 155:modbusRTU.c   ****                         if (flag)
 2726              		.loc 1 155 0
 2727 0120 5408     		lsrs	r4, r2, #1
 157:modbusRTU.c   ****                 }
 2728              		.loc 1 157 0
ARM GAS  C:\Users\AFDHAL~1\AppData\Local\Temp\ccKZJoZj.s 			page 65


 2729 0122 6140     		eors	r1, r4
 2730 0124 D207     		lsls	r2, r2, #31
 2731 0126 00D4     		bmi	.L350
 2732 0128 2100     		movs	r1, r4
 2733              	.L350:
 2734 012a 634A     		ldr	r2, .L419+8
 155:modbusRTU.c   ****                         if (flag)
 2735              		.loc 1 155 0
 2736 012c 4C08     		lsrs	r4, r1, #1
 157:modbusRTU.c   ****                 }
 2737              		.loc 1 157 0
 2738 012e 6240     		eors	r2, r4
 2739 0130 C907     		lsls	r1, r1, #31
 2740 0132 00D4     		bmi	.L352
 2741 0134 2200     		movs	r2, r4
 2742              	.L352:
 2743 0136 6049     		ldr	r1, .L419+8
 155:modbusRTU.c   ****                         if (flag)
 2744              		.loc 1 155 0
 2745 0138 5408     		lsrs	r4, r2, #1
 157:modbusRTU.c   ****                 }
 2746              		.loc 1 157 0
 2747 013a 6140     		eors	r1, r4
 2748 013c D207     		lsls	r2, r2, #31
 2749 013e 00D4     		bmi	.L354
 2750 0140 2100     		movs	r1, r4
 2751              	.L354:
 2752 0142 5D4A     		ldr	r2, .L419+8
 155:modbusRTU.c   ****                         if (flag)
 2753              		.loc 1 155 0
 2754 0144 4C08     		lsrs	r4, r1, #1
 157:modbusRTU.c   ****                 }
 2755              		.loc 1 157 0
 2756 0146 6240     		eors	r2, r4
 2757 0148 C907     		lsls	r1, r1, #31
 2758 014a 00D4     		bmi	.L356
 2759 014c 2200     		movs	r2, r4
 2760              	.L356:
 2761 014e 5A49     		ldr	r1, .L419+8
 155:modbusRTU.c   ****                         if (flag)
 2762              		.loc 1 155 0
 2763 0150 5408     		lsrs	r4, r2, #1
 157:modbusRTU.c   ****                 }
 2764              		.loc 1 157 0
 2765 0152 6140     		eors	r1, r4
 2766 0154 D207     		lsls	r2, r2, #31
 2767 0156 00D4     		bmi	.L358
 2768 0158 2100     		movs	r1, r4
 2769              	.L358:
 2770              	.LVL155:
 2771 015a FF22     		movs	r2, #255
 2772 015c 1040     		ands	r0, r2
 2773              	.LVL156:
 151:modbusRTU.c   **** 
 2774              		.loc 1 151 0
 2775 015e 4840     		eors	r0, r1
 2776              	.LVL157:
ARM GAS  C:\Users\AFDHAL~1\AppData\Local\Temp\ccKZJoZj.s 			page 66


 157:modbusRTU.c   ****                 }
 2777              		.loc 1 157 0
 2778 0160 5549     		ldr	r1, .L419+8
 155:modbusRTU.c   ****                         if (flag)
 2779              		.loc 1 155 0
 2780 0162 4208     		lsrs	r2, r0, #1
 157:modbusRTU.c   ****                 }
 2781              		.loc 1 157 0
 2782 0164 5140     		eors	r1, r2
 2783 0166 C007     		lsls	r0, r0, #31
 2784 0168 00D4     		bmi	.L360
 2785 016a 1100     		movs	r1, r2
 2786              	.L360:
 2787 016c 524A     		ldr	r2, .L419+8
 155:modbusRTU.c   ****                         if (flag)
 2788              		.loc 1 155 0
 2789 016e 4808     		lsrs	r0, r1, #1
 157:modbusRTU.c   ****                 }
 2790              		.loc 1 157 0
 2791 0170 4240     		eors	r2, r0
 2792 0172 C907     		lsls	r1, r1, #31
 2793 0174 00D4     		bmi	.L362
 2794 0176 0200     		movs	r2, r0
 2795              	.L362:
 2796 0178 4F49     		ldr	r1, .L419+8
 155:modbusRTU.c   ****                         if (flag)
 2797              		.loc 1 155 0
 2798 017a 5008     		lsrs	r0, r2, #1
 157:modbusRTU.c   ****                 }
 2799              		.loc 1 157 0
 2800 017c 4140     		eors	r1, r0
 2801 017e D207     		lsls	r2, r2, #31
 2802 0180 00D4     		bmi	.L364
 2803 0182 0100     		movs	r1, r0
 2804              	.L364:
 2805 0184 4C4A     		ldr	r2, .L419+8
 155:modbusRTU.c   ****                         if (flag)
 2806              		.loc 1 155 0
 2807 0186 4808     		lsrs	r0, r1, #1
 157:modbusRTU.c   ****                 }
 2808              		.loc 1 157 0
 2809 0188 4240     		eors	r2, r0
 2810 018a C907     		lsls	r1, r1, #31
 2811 018c 00D4     		bmi	.L366
 2812 018e 0200     		movs	r2, r0
 2813              	.L366:
 2814 0190 4949     		ldr	r1, .L419+8
 155:modbusRTU.c   ****                         if (flag)
 2815              		.loc 1 155 0
 2816 0192 5008     		lsrs	r0, r2, #1
 157:modbusRTU.c   ****                 }
 2817              		.loc 1 157 0
 2818 0194 4140     		eors	r1, r0
 2819 0196 D207     		lsls	r2, r2, #31
 2820 0198 00D4     		bmi	.L368
 2821 019a 0100     		movs	r1, r0
 2822              	.L368:
ARM GAS  C:\Users\AFDHAL~1\AppData\Local\Temp\ccKZJoZj.s 			page 67


 2823 019c 464A     		ldr	r2, .L419+8
 155:modbusRTU.c   ****                         if (flag)
 2824              		.loc 1 155 0
 2825 019e 4808     		lsrs	r0, r1, #1
 157:modbusRTU.c   ****                 }
 2826              		.loc 1 157 0
 2827 01a0 4240     		eors	r2, r0
 2828 01a2 C907     		lsls	r1, r1, #31
 2829 01a4 00D4     		bmi	.L370
 2830 01a6 0200     		movs	r2, r0
 2831              	.L370:
 2832 01a8 4349     		ldr	r1, .L419+8
 155:modbusRTU.c   ****                         if (flag)
 2833              		.loc 1 155 0
 2834 01aa 5008     		lsrs	r0, r2, #1
 157:modbusRTU.c   ****                 }
 2835              		.loc 1 157 0
 2836 01ac 4140     		eors	r1, r0
 2837 01ae D207     		lsls	r2, r2, #31
 2838 01b0 00D4     		bmi	.L372
 2839 01b2 0100     		movs	r1, r0
 2840              	.L372:
 2841 01b4 404A     		ldr	r2, .L419+8
 155:modbusRTU.c   ****                         if (flag)
 2842              		.loc 1 155 0
 2843 01b6 4808     		lsrs	r0, r1, #1
 157:modbusRTU.c   ****                 }
 2844              		.loc 1 157 0
 2845 01b8 4240     		eors	r2, r0
 2846 01ba C907     		lsls	r1, r1, #31
 2847 01bc 00D4     		bmi	.L374
 2848 01be 0200     		movs	r2, r0
 2849              	.L374:
 2850              	.LVL158:
 151:modbusRTU.c   **** 
 2851              		.loc 1 151 0
 2852 01c0 6A40     		eors	r2, r5
 2853              	.LVL159:
 157:modbusRTU.c   ****                 }
 2854              		.loc 1 157 0
 2855 01c2 3D49     		ldr	r1, .L419+8
 155:modbusRTU.c   ****                         if (flag)
 2856              		.loc 1 155 0
 2857 01c4 5008     		lsrs	r0, r2, #1
 157:modbusRTU.c   ****                 }
 2858              		.loc 1 157 0
 2859 01c6 4140     		eors	r1, r0
 2860 01c8 D207     		lsls	r2, r2, #31
 2861 01ca 00D4     		bmi	.L376
 2862 01cc 0100     		movs	r1, r0
 2863              	.L376:
 2864 01ce 3A4A     		ldr	r2, .L419+8
 155:modbusRTU.c   ****                         if (flag)
 2865              		.loc 1 155 0
 2866 01d0 4808     		lsrs	r0, r1, #1
 157:modbusRTU.c   ****                 }
 2867              		.loc 1 157 0
ARM GAS  C:\Users\AFDHAL~1\AppData\Local\Temp\ccKZJoZj.s 			page 68


 2868 01d2 4240     		eors	r2, r0
 2869 01d4 C907     		lsls	r1, r1, #31
 2870 01d6 00D4     		bmi	.L378
 2871 01d8 0200     		movs	r2, r0
 2872              	.L378:
 2873 01da 3749     		ldr	r1, .L419+8
 155:modbusRTU.c   ****                         if (flag)
 2874              		.loc 1 155 0
 2875 01dc 5008     		lsrs	r0, r2, #1
 157:modbusRTU.c   ****                 }
 2876              		.loc 1 157 0
 2877 01de 4140     		eors	r1, r0
 2878 01e0 D207     		lsls	r2, r2, #31
 2879 01e2 00D4     		bmi	.L380
 2880 01e4 0100     		movs	r1, r0
 2881              	.L380:
 2882 01e6 344A     		ldr	r2, .L419+8
 155:modbusRTU.c   ****                         if (flag)
 2883              		.loc 1 155 0
 2884 01e8 4808     		lsrs	r0, r1, #1
 157:modbusRTU.c   ****                 }
 2885              		.loc 1 157 0
 2886 01ea 4240     		eors	r2, r0
 2887 01ec C907     		lsls	r1, r1, #31
 2888 01ee 00D4     		bmi	.L382
 2889 01f0 0200     		movs	r2, r0
 2890              	.L382:
 2891 01f2 3149     		ldr	r1, .L419+8
 155:modbusRTU.c   ****                         if (flag)
 2892              		.loc 1 155 0
 2893 01f4 5008     		lsrs	r0, r2, #1
 157:modbusRTU.c   ****                 }
 2894              		.loc 1 157 0
 2895 01f6 4140     		eors	r1, r0
 2896 01f8 D207     		lsls	r2, r2, #31
 2897 01fa 00D4     		bmi	.L384
 2898 01fc 0100     		movs	r1, r0
 2899              	.L384:
 2900 01fe 2E4A     		ldr	r2, .L419+8
 155:modbusRTU.c   ****                         if (flag)
 2901              		.loc 1 155 0
 2902 0200 4808     		lsrs	r0, r1, #1
 157:modbusRTU.c   ****                 }
 2903              		.loc 1 157 0
 2904 0202 4240     		eors	r2, r0
 2905 0204 C907     		lsls	r1, r1, #31
 2906 0206 00D4     		bmi	.L386
 2907 0208 0200     		movs	r2, r0
 2908              	.L386:
 2909 020a 2B49     		ldr	r1, .L419+8
 155:modbusRTU.c   ****                         if (flag)
 2910              		.loc 1 155 0
 2911 020c 5008     		lsrs	r0, r2, #1
 157:modbusRTU.c   ****                 }
 2912              		.loc 1 157 0
 2913 020e 4140     		eors	r1, r0
 2914 0210 D207     		lsls	r2, r2, #31
ARM GAS  C:\Users\AFDHAL~1\AppData\Local\Temp\ccKZJoZj.s 			page 69


 2915 0212 00D4     		bmi	.L388
 2916 0214 0100     		movs	r1, r0
 2917              	.L388:
 2918 0216 284A     		ldr	r2, .L419+8
 155:modbusRTU.c   ****                         if (flag)
 2919              		.loc 1 155 0
 2920 0218 4808     		lsrs	r0, r1, #1
 157:modbusRTU.c   ****                 }
 2921              		.loc 1 157 0
 2922 021a 4240     		eors	r2, r0
 2923 021c C907     		lsls	r1, r1, #31
 2924 021e 00D4     		bmi	.L390
 2925 0220 0200     		movs	r2, r0
 2926              	.L390:
 2927              	.LVL160:
 151:modbusRTU.c   **** 
 2928              		.loc 1 151 0
 2929 0222 FF21     		movs	r1, #255
 2930 0224 0B40     		ands	r3, r1
 2931              	.LVL161:
 2932 0226 5340     		eors	r3, r2
 2933              	.LVL162:
 157:modbusRTU.c   ****                 }
 2934              		.loc 1 157 0
 2935 0228 234A     		ldr	r2, .L419+8
 155:modbusRTU.c   ****                         if (flag)
 2936              		.loc 1 155 0
 2937 022a 5908     		lsrs	r1, r3, #1
 157:modbusRTU.c   ****                 }
 2938              		.loc 1 157 0
 2939 022c 4A40     		eors	r2, r1
 2940 022e DB07     		lsls	r3, r3, #31
 2941 0230 00D4     		bmi	.L392
 2942 0232 0A00     		movs	r2, r1
 2943              	.L392:
 2944 0234 204B     		ldr	r3, .L419+8
 155:modbusRTU.c   ****                         if (flag)
 2945              		.loc 1 155 0
 2946 0236 5108     		lsrs	r1, r2, #1
 157:modbusRTU.c   ****                 }
 2947              		.loc 1 157 0
 2948 0238 4B40     		eors	r3, r1
 2949 023a D207     		lsls	r2, r2, #31
 2950 023c 00D4     		bmi	.L394
 2951 023e 0B00     		movs	r3, r1
 2952              	.L394:
 2953 0240 1D4A     		ldr	r2, .L419+8
 155:modbusRTU.c   ****                         if (flag)
 2954              		.loc 1 155 0
 2955 0242 5908     		lsrs	r1, r3, #1
 157:modbusRTU.c   ****                 }
 2956              		.loc 1 157 0
 2957 0244 4A40     		eors	r2, r1
 2958 0246 DB07     		lsls	r3, r3, #31
 2959 0248 00D4     		bmi	.L396
 2960 024a 0A00     		movs	r2, r1
 2961              	.L396:
ARM GAS  C:\Users\AFDHAL~1\AppData\Local\Temp\ccKZJoZj.s 			page 70


 2962 024c 1A4B     		ldr	r3, .L419+8
 155:modbusRTU.c   ****                         if (flag)
 2963              		.loc 1 155 0
 2964 024e 5108     		lsrs	r1, r2, #1
 157:modbusRTU.c   ****                 }
 2965              		.loc 1 157 0
 2966 0250 4B40     		eors	r3, r1
 2967 0252 D207     		lsls	r2, r2, #31
 2968 0254 00D4     		bmi	.L398
 2969 0256 0B00     		movs	r3, r1
 2970              	.L398:
 2971 0258 174A     		ldr	r2, .L419+8
 155:modbusRTU.c   ****                         if (flag)
 2972              		.loc 1 155 0
 2973 025a 5908     		lsrs	r1, r3, #1
 157:modbusRTU.c   ****                 }
 2974              		.loc 1 157 0
 2975 025c 4A40     		eors	r2, r1
 2976 025e DB07     		lsls	r3, r3, #31
 2977 0260 00D4     		bmi	.L400
 2978 0262 0A00     		movs	r2, r1
 2979              	.L400:
 2980 0264 144B     		ldr	r3, .L419+8
 155:modbusRTU.c   ****                         if (flag)
 2981              		.loc 1 155 0
 2982 0266 5108     		lsrs	r1, r2, #1
 157:modbusRTU.c   ****                 }
 2983              		.loc 1 157 0
 2984 0268 4B40     		eors	r3, r1
 2985 026a D207     		lsls	r2, r2, #31
 2986 026c 00D4     		bmi	.L402
 2987 026e 0B00     		movs	r3, r1
 2988              	.L402:
 2989 0270 114A     		ldr	r2, .L419+8
 155:modbusRTU.c   ****                         if (flag)
 2990              		.loc 1 155 0
 2991 0272 5908     		lsrs	r1, r3, #1
 157:modbusRTU.c   ****                 }
 2992              		.loc 1 157 0
 2993 0274 4A40     		eors	r2, r1
 2994 0276 DB07     		lsls	r3, r3, #31
 2995 0278 00D4     		bmi	.L404
 2996 027a 0A00     		movs	r2, r1
 2997              	.L404:
 2998 027c 0E4B     		ldr	r3, .L419+8
 155:modbusRTU.c   ****                         if (flag)
 2999              		.loc 1 155 0
 3000 027e 5108     		lsrs	r1, r2, #1
 157:modbusRTU.c   ****                 }
 3001              		.loc 1 157 0
 3002 0280 4B40     		eors	r3, r1
 3003 0282 D207     		lsls	r2, r2, #31
 3004 0284 00D4     		bmi	.L406
 3005 0286 0B00     		movs	r3, r1
 3006              	.L406:
 3007              	.LVL163:
 3008              	.LBE112:
ARM GAS  C:\Users\AFDHAL~1\AppData\Local\Temp\ccKZJoZj.s 			page 71


 3009              	.LBE111:
 247:modbusRTU.c   ****         string_length++;
 3010              		.loc 1 247 0
 3011 0288 6946     		mov	r1, sp
 249:modbusRTU.c   **** } 
 3012              		.loc 1 249 0
 3013 028a 0024     		movs	r4, #0
 3014              	.LBB114:
 3015              	.LBB113:
 162:modbusRTU.c   ****         temp = (temp << 8) | temp2;
 3016              		.loc 1 162 0
 3017 028c 1A0A     		lsrs	r2, r3, #8
 3018              	.LVL164:
 163:modbusRTU.c   ****         temp &= 0xFFFF;
 3019              		.loc 1 163 0
 3020 028e 1B02     		lsls	r3, r3, #8
 3021              	.LVL165:
 3022 0290 1343     		orrs	r3, r2
 3023              	.LVL166:
 164:modbusRTU.c   **** 
 3024              		.loc 1 164 0
 3025 0292 1B04     		lsls	r3, r3, #16
 3026              	.LVL167:
 3027 0294 1B0C     		lsrs	r3, r3, #16
 3028              	.LVL168:
 3029              	.LBE113:
 3030              	.LBE114:
 247:modbusRTU.c   ****         string_length++;
 3031              		.loc 1 247 0
 3032 0296 1A12     		asrs	r2, r3, #8
 3033 0298 8A71     		strb	r2, [r1, #6]
 3034              	.LVL169:
 249:modbusRTU.c   **** } 
 3035              		.loc 1 249 0
 3036 029a CB71     		strb	r3, [r1, #7]
 3037              	.LVL170:
 3038              	.L407:
 3039              	.LBE110:
 3040              	.LBE109:
 272:modbusRTU.c   ****         }
 3041              		.loc 1 272 0
 3042 029c 6B46     		mov	r3, sp
 3043 029e 185D     		ldrb	r0, [r3, r4]
 3044 02a0 0134     		adds	r4, r4, #1
 3045              	.LVL171:
 3046 02a2 FFF7FEFF 		bl	USB_UART_SpiUartWriteTxData
 3047              	.LVL172:
 270:modbusRTU.c   ****                 //Serial.print(char(query[i]));
 3048              		.loc 1 270 0
 3049 02a6 082C     		cmp	r4, #8
 3050 02a8 F8D1     		bne	.L407
 3051              	.LVL173:
 3052              	.LBE108:
 3053              	.LBE107:
 489:modbusRTU.c   **** /*
 490:modbusRTU.c   ****         written.start_addr=write_addr;
 491:modbusRTU.c   ****         written.num_regs=1;
ARM GAS  C:\Users\AFDHAL~1\AppData\Local\Temp\ccKZJoZj.s 			page 72


 492:modbusRTU.c   **** */
 493:modbusRTU.c   ****         status = send_reply(packet, RESPONSE_SIZE);    
 494:modbusRTU.c   **** 
 495:modbusRTU.c   ****         return (status);
 496:modbusRTU.c   **** }
 3054              		.loc 1 496 0
 3055 02aa 0820     		movs	r0, #8
 3056 02ac 02B0     		add	sp, sp, #8
 3057              		@ sp needed
 3058 02ae 70BD     		pop	{r4, r5, r6, pc}
 3059              	.L420:
 3060              		.align	2
 3061              	.L419:
 3062 02b0 00000000 		.word	slave
 3063 02b4 FFFF0000 		.word	65535
 3064 02b8 01A00000 		.word	40961
 3065              		.cfi_endproc
 3066              	.LFE46:
 3067              		.size	write_single_register, .-write_single_register
 3068              		.section	.text.read_holding_registers,"ax",%progbits
 3069              		.align	2
 3070              		.global	read_holding_registers
 3071              		.code	16
 3072              		.thumb_func
 3073              		.type	read_holding_registers, %function
 3074              	read_holding_registers:
 3075              	.LFB47:
 497:modbusRTU.c   **** 
 498:modbusRTU.c   **** /************************************************************************
 499:modbusRTU.c   ****  * 
 500:modbusRTU.c   ****  * 	read_holding_registers(first_register, number_of_registers,
 501:modbusRTU.c   ****  * registers_array)
 502:modbusRTU.c   ****  * 
 503:modbusRTU.c   ****  * reads the slave's holdings registers and sends them to the Modbus master
 504:modbusRTU.c   ****  * 
 505:modbusRTU.c   ****  *************************************************************************/
 506:modbusRTU.c   **** 
 507:modbusRTU.c   **** int read_holding_registers( unsigned int start_addr,
 508:modbusRTU.c   **** 
 509:modbusRTU.c   **** unsigned char reg_count, int *regs) 
 510:modbusRTU.c   **** {
 3076              		.loc 1 510 0
 3077              		.cfi_startproc
 3078              		@ args = 0, pretend = 0, frame = 256
 3079              		@ frame_needed = 0, uses_anonymous_args = 0
 3080              	.LVL174:
 3081 0000 F0B5     		push	{r4, r5, r6, r7, lr}
 3082              		.cfi_def_cfa_offset 20
 3083              		.cfi_offset 4, -20
 3084              		.cfi_offset 5, -16
 3085              		.cfi_offset 6, -12
 3086              		.cfi_offset 7, -8
 3087              		.cfi_offset 14, -4
 3088 0002 4746     		mov	r7, r8
 3089 0004 80B4     		push	{r7}
 3090              		.cfi_def_cfa_offset 24
 3091              		.cfi_offset 8, -24
ARM GAS  C:\Users\AFDHAL~1\AppData\Local\Temp\ccKZJoZj.s 			page 73


 3092 0006 C0B0     		sub	sp, sp, #256
 3093              		.cfi_def_cfa_offset 280
 3094              	.LVL175:
 3095              	.LBB123:
 3096              	.LBB124:
 185:modbusRTU.c   ****         packet[FUNC] = function;
 3097              		.loc 1 185 0
 3098 0008 6C46     		mov	r4, sp
 3099 000a 424B     		ldr	r3, .L446
 187:modbusRTU.c   **** } 
 3100              		.loc 1 187 0
 3101 000c 4E00     		lsls	r6, r1, #1
 185:modbusRTU.c   ****         packet[FUNC] = function;
 3102              		.loc 1 185 0
 3103 000e 1B78     		ldrb	r3, [r3]
 3104              	.LBE124:
 3105              	.LBE123:
 511:modbusRTU.c   ****         unsigned char function = FC_READ_REGS; 	/* Read Holding Registers */
 512:modbusRTU.c   ****         int packet_size = 3;
 513:modbusRTU.c   ****         int status;
 514:modbusRTU.c   ****         unsigned int i;
 515:modbusRTU.c   ****         unsigned char packet[MAX_MESSAGE_LENGTH];
 516:modbusRTU.c   **** 
 517:modbusRTU.c   ****         build_read_packet(function, reg_count, packet);
 518:modbusRTU.c   **** 
 519:modbusRTU.c   ****         for (i = start_addr; i < (start_addr + (unsigned int) reg_count);
 3106              		.loc 1 519 0
 3107 0010 4118     		adds	r1, r0, r1
 3108              	.LVL176:
 3109              	.LBB126:
 3110              	.LBB125:
 185:modbusRTU.c   ****         packet[FUNC] = function;
 3111              		.loc 1 185 0
 3112 0012 2370     		strb	r3, [r4]
 186:modbusRTU.c   ****         packet[2] = count * 2;
 3113              		.loc 1 186 0
 3114 0014 0323     		movs	r3, #3
 187:modbusRTU.c   **** } 
 3115              		.loc 1 187 0
 3116 0016 A670     		strb	r6, [r4, #2]
 3117              	.LVL177:
 186:modbusRTU.c   ****         packet[2] = count * 2;
 3118              		.loc 1 186 0
 3119 0018 6370     		strb	r3, [r4, #1]
 3120              	.LBE125:
 3121              	.LBE126:
 3122              		.loc 1 519 0
 3123 001a 8842     		cmp	r0, r1
 3124 001c 00D3     		bcc	.LCB3039
 3125 001e 71E0     		b	.L442	@long jump
 3126              	.LCB3039:
 3127 0020 8300     		lsls	r3, r0, #2
 3128 0022 D218     		adds	r2, r2, r3
 3129              	.LVL178:
 3130 0024 6B46     		mov	r3, sp
 3131 0026 0336     		adds	r6, r6, #3
 3132 0028 0333     		adds	r3, r3, #3
ARM GAS  C:\Users\AFDHAL~1\AppData\Local\Temp\ccKZJoZj.s 			page 74


 3133 002a 6E44     		add	r6, r6, sp
 3134              	.LVL179:
 3135              	.L423:
 520:modbusRTU.c   **** 	       i++) {
 521:modbusRTU.c   ****                         packet[packet_size] = regs[i] >> 8;
 3136              		.loc 1 521 0
 3137 002c 10CA     		ldmia	r2!, {r4}
 3138 002e 2512     		asrs	r5, r4, #8
 3139 0030 1D70     		strb	r5, [r3]
 3140              	.LVL180:
 522:modbusRTU.c   ****                 packet_size++;
 523:modbusRTU.c   ****                 packet[packet_size] = regs[i] & 0x00FF;
 3141              		.loc 1 523 0
 3142 0032 5C70     		strb	r4, [r3, #1]
 3143              	.LVL181:
 3144 0034 0233     		adds	r3, r3, #2
 3145              	.LVL182:
 519:modbusRTU.c   **** 	       i++) {
 3146              		.loc 1 519 0
 3147 0036 9E42     		cmp	r6, r3
 3148 0038 F8D1     		bne	.L423
 3149 003a 0D1A     		subs	r5, r1, r0
 3150 003c 6D00     		lsls	r5, r5, #1
 3151 003e 0335     		adds	r5, r5, #3
 3152 0040 EFB2     		uxtb	r7, r5
 3153 0042 7B1C     		adds	r3, r7, #1
 3154              	.LVL183:
 3155 0044 DBB2     		uxtb	r3, r3
 3156 0046 A846     		mov	r8, r5
 3157 0048 9C46     		mov	ip, r3
 3158 004a BE1C     		adds	r6, r7, #2
 3159 004c F6B2     		uxtb	r6, r6
 3160              	.L422:
 3161              	.LVL184:
 3162 004e 0020     		movs	r0, #0
 3163              	.LVL185:
 3164              	.LBB127:
 3165              	.LBB128:
 3166              	.LBB129:
 3167              	.LBB130:
 3168              	.LBB131:
 3169              	.LBB132:
 154:modbusRTU.c   ****                         temp = temp >> 1;
 3170              		.loc 1 154 0
 3171 0050 0122     		movs	r2, #1
 148:modbusRTU.c   **** 
 3172              		.loc 1 148 0
 3173 0052 3149     		ldr	r1, .L446+4
 157:modbusRTU.c   ****                 }
 3174              		.loc 1 157 0
 3175 0054 314B     		ldr	r3, .L446+8
 3176              	.LVL186:
 3177              	.L440:
 151:modbusRTU.c   **** 
 3178              		.loc 1 151 0
 3179 0056 6C46     		mov	r4, sp
 157:modbusRTU.c   ****                 }
ARM GAS  C:\Users\AFDHAL~1\AppData\Local\Temp\ccKZJoZj.s 			page 75


 3180              		.loc 1 157 0
 3181 0058 1D00     		movs	r5, r3
 151:modbusRTU.c   **** 
 3182              		.loc 1 151 0
 3183 005a 045D     		ldrb	r4, [r0, r4]
 3184 005c 6140     		eors	r1, r4
 155:modbusRTU.c   ****                         if (flag)
 3185              		.loc 1 155 0
 3186 005e 4C08     		lsrs	r4, r1, #1
 157:modbusRTU.c   ****                 }
 3187              		.loc 1 157 0
 3188 0060 6540     		eors	r5, r4
 3189 0062 0A42     		tst	r2, r1
 3190 0064 00D1     		bne	.L425
 3191 0066 2500     		movs	r5, r4
 3192              	.L425:
 3193 0068 1C00     		movs	r4, r3
 155:modbusRTU.c   ****                         if (flag)
 3194              		.loc 1 155 0
 3195 006a 6908     		lsrs	r1, r5, #1
 157:modbusRTU.c   ****                 }
 3196              		.loc 1 157 0
 3197 006c 4C40     		eors	r4, r1
 3198 006e 2A42     		tst	r2, r5
 3199 0070 00D1     		bne	.L427
 3200 0072 0C00     		movs	r4, r1
 3201              	.L427:
 3202 0074 1900     		movs	r1, r3
 155:modbusRTU.c   ****                         if (flag)
 3203              		.loc 1 155 0
 3204 0076 6508     		lsrs	r5, r4, #1
 157:modbusRTU.c   ****                 }
 3205              		.loc 1 157 0
 3206 0078 6940     		eors	r1, r5
 3207 007a 2242     		tst	r2, r4
 3208 007c 00D1     		bne	.L429
 3209 007e 2900     		movs	r1, r5
 3210              	.L429:
 3211 0080 1C00     		movs	r4, r3
 155:modbusRTU.c   ****                         if (flag)
 3212              		.loc 1 155 0
 3213 0082 4D08     		lsrs	r5, r1, #1
 157:modbusRTU.c   ****                 }
 3214              		.loc 1 157 0
 3215 0084 6C40     		eors	r4, r5
 3216 0086 0A42     		tst	r2, r1
 3217 0088 00D1     		bne	.L431
 3218 008a 2C00     		movs	r4, r5
 3219              	.L431:
 3220 008c 1900     		movs	r1, r3
 155:modbusRTU.c   ****                         if (flag)
 3221              		.loc 1 155 0
 3222 008e 6508     		lsrs	r5, r4, #1
 157:modbusRTU.c   ****                 }
 3223              		.loc 1 157 0
 3224 0090 6940     		eors	r1, r5
 3225 0092 2242     		tst	r2, r4
ARM GAS  C:\Users\AFDHAL~1\AppData\Local\Temp\ccKZJoZj.s 			page 76


 3226 0094 00D1     		bne	.L433
 3227 0096 2900     		movs	r1, r5
 3228              	.L433:
 3229 0098 1C00     		movs	r4, r3
 155:modbusRTU.c   ****                         if (flag)
 3230              		.loc 1 155 0
 3231 009a 4D08     		lsrs	r5, r1, #1
 157:modbusRTU.c   ****                 }
 3232              		.loc 1 157 0
 3233 009c 6C40     		eors	r4, r5
 3234 009e 0A42     		tst	r2, r1
 3235 00a0 00D1     		bne	.L435
 3236 00a2 2C00     		movs	r4, r5
 3237              	.L435:
 3238 00a4 1900     		movs	r1, r3
 155:modbusRTU.c   ****                         if (flag)
 3239              		.loc 1 155 0
 3240 00a6 6508     		lsrs	r5, r4, #1
 157:modbusRTU.c   ****                 }
 3241              		.loc 1 157 0
 3242 00a8 6940     		eors	r1, r5
 3243 00aa 2242     		tst	r2, r4
 3244 00ac 00D1     		bne	.L437
 3245 00ae 2900     		movs	r1, r5
 3246              	.L437:
 3247 00b0 1C00     		movs	r4, r3
 155:modbusRTU.c   ****                         if (flag)
 3248              		.loc 1 155 0
 3249 00b2 4D08     		lsrs	r5, r1, #1
 157:modbusRTU.c   ****                 }
 3250              		.loc 1 157 0
 3251 00b4 6C40     		eors	r4, r5
 3252 00b6 0A42     		tst	r2, r1
 3253 00b8 00D1     		bne	.L439
 3254 00ba 2C00     		movs	r4, r5
 3255              	.L439:
 3256 00bc 0130     		adds	r0, r0, #1
 150:modbusRTU.c   ****                 temp = temp ^ buf[i];
 3257              		.loc 1 150 0
 3258 00be C5B2     		uxtb	r5, r0
 3259 00c0 2100     		movs	r1, r4
 3260              	.LVL187:
 3261 00c2 AF42     		cmp	r7, r5
 3262 00c4 C7D8     		bhi	.L440
 162:modbusRTU.c   ****         temp = (temp << 8) | temp2;
 3263              		.loc 1 162 0
 3264 00c6 230A     		lsrs	r3, r4, #8
 3265              	.LVL188:
 163:modbusRTU.c   ****         temp &= 0xFFFF;
 3266              		.loc 1 163 0
 3267 00c8 2402     		lsls	r4, r4, #8
 3268 00ca 2343     		orrs	r3, r4
 3269              	.LVL189:
 3270              	.LBE132:
 3271              	.LBE131:
 247:modbusRTU.c   ****         string_length++;
 3272              		.loc 1 247 0
ARM GAS  C:\Users\AFDHAL~1\AppData\Local\Temp\ccKZJoZj.s 			page 77


 3273 00cc 40AD     		add	r5, sp, #256
 3274              	.LBB135:
 3275              	.LBB133:
 164:modbusRTU.c   **** 
 3276              		.loc 1 164 0
 3277 00ce 1B04     		lsls	r3, r3, #16
 3278              	.LVL190:
 3279              	.LBE133:
 3280              	.LBE135:
 247:modbusRTU.c   ****         string_length++;
 3281              		.loc 1 247 0
 3282 00d0 4544     		add	r5, r5, r8
 3283              	.LBB136:
 3284              	.LBB134:
 164:modbusRTU.c   **** 
 3285              		.loc 1 164 0
 3286 00d2 1B0C     		lsrs	r3, r3, #16
 3287              	.LVL191:
 3288              	.LBE134:
 3289              	.LBE136:
 247:modbusRTU.c   ****         string_length++;
 3290              		.loc 1 247 0
 3291 00d4 013D     		subs	r5, r5, #1
 3292 00d6 FF3D     		subs	r5, r5, #255
 3293 00d8 1A12     		asrs	r2, r3, #8
 3294 00da 2A70     		strb	r2, [r5]
 3295              	.LVL192:
 249:modbusRTU.c   **** } 
 3296              		.loc 1 249 0
 3297 00dc 0024     		movs	r4, #0
 3298 00de 6D46     		mov	r5, sp
 3299 00e0 40AF     		add	r7, sp, #256
 3300 00e2 6744     		add	r7, r7, ip
 3301 00e4 013F     		subs	r7, r7, #1
 3302 00e6 FF3F     		subs	r7, r7, #255
 3303 00e8 3B70     		strb	r3, [r7]
 3304              	.LVL193:
 3305              	.L441:
 3306              	.LBE130:
 3307              	.LBE129:
 270:modbusRTU.c   ****                 //Serial.print(char(query[i]));
 3308              		.loc 1 270 0
 3309 00ea 0134     		adds	r4, r4, #1
 3310              	.LVL194:
 272:modbusRTU.c   ****         }
 3311              		.loc 1 272 0
 3312 00ec 2878     		ldrb	r0, [r5]
 270:modbusRTU.c   ****                 //Serial.print(char(query[i]));
 3313              		.loc 1 270 0
 3314 00ee E4B2     		uxtb	r4, r4
 272:modbusRTU.c   ****         }
 3315              		.loc 1 272 0
 3316 00f0 FFF7FEFF 		bl	USB_UART_SpiUartWriteTxData
 3317              	.LVL195:
 3318 00f4 0135     		adds	r5, r5, #1
 270:modbusRTU.c   ****                 //Serial.print(char(query[i]));
 3319              		.loc 1 270 0
ARM GAS  C:\Users\AFDHAL~1\AppData\Local\Temp\ccKZJoZj.s 			page 78


 3320 00f6 B442     		cmp	r4, r6
 3321 00f8 F7D3     		bcc	.L441
 3322              	.LVL196:
 3323              	.LBE128:
 3324              	.LBE127:
 524:modbusRTU.c   ****                 packet_size++;
 525:modbusRTU.c   ****         } 
 526:modbusRTU.c   **** 
 527:modbusRTU.c   ****         status = send_reply(packet, packet_size);
 528:modbusRTU.c   **** 
 529:modbusRTU.c   ****         return (status);
 530:modbusRTU.c   **** }   
 3325              		.loc 1 530 0
 3326 00fa 2000     		movs	r0, r4
 3327 00fc 40B0     		add	sp, sp, #256
 3328              		@ sp needed
 3329 00fe 04BC     		pop	{r2}
 3330 0100 9046     		mov	r8, r2
 3331 0102 F0BD     		pop	{r4, r5, r6, r7, pc}
 3332              	.LVL197:
 3333              	.L442:
 519:modbusRTU.c   **** 	       i++) {
 3334              		.loc 1 519 0
 3335 0104 0423     		movs	r3, #4
 3336 0106 9C46     		mov	ip, r3
 3337 0108 013B     		subs	r3, r3, #1
 3338 010a 9846     		mov	r8, r3
 3339 010c 0526     		movs	r6, #5
 3340 010e 0327     		movs	r7, #3
 3341 0110 9DE7     		b	.L422
 3342              	.L447:
 3343 0112 C046     		.align	2
 3344              	.L446:
 3345 0114 00000000 		.word	slave
 3346 0118 FFFF0000 		.word	65535
 3347 011c 01A00000 		.word	40961
 3348              		.cfi_endproc
 3349              	.LFE47:
 3350              		.size	read_holding_registers, .-read_holding_registers
 3351              		.section	.text.modbusRTU_Update,"ax",%progbits
 3352              		.align	2
 3353              		.global	modbusRTU_Update
 3354              		.code	16
 3355              		.thumb_func
 3356              		.type	modbusRTU_Update, %function
 3357              	modbusRTU_Update:
 3358              	.LFB48:
 531:modbusRTU.c   **** 
 532:modbusRTU.c   **** 
 533:modbusRTU.c   **** /*
 534:modbusRTU.c   ****  * update(regs, regs_size)
 535:modbusRTU.c   ****  * 
 536:modbusRTU.c   ****  * checks if there is any valid request from the modbus master. If there is,
 537:modbusRTU.c   ****  * performs the requested action
 538:modbusRTU.c   ****  * 
 539:modbusRTU.c   ****  * regs: an array with the holding registers. They start at address 1 (master point of view)
 540:modbusRTU.c   ****  * regs_size: total number of holding registers.
ARM GAS  C:\Users\AFDHAL~1\AppData\Local\Temp\ccKZJoZj.s 			page 79


 541:modbusRTU.c   ****  * returns: 0 if no request from master,
 542:modbusRTU.c   ****  * 	NO_REPLY (-1) if no reply is sent to the master
 543:modbusRTU.c   ****  * 	an exception code (1 to 4) in case of a modbus exceptions
 544:modbusRTU.c   ****  * 	the number of bytes sent as reply ( > 4) if OK.
 545:modbusRTU.c   ****  */
 546:modbusRTU.c   **** unsigned long Nowdt = 0;
 547:modbusRTU.c   **** unsigned int lastBytesReceived;
 548:modbusRTU.c   **** const unsigned long T35 = 5;
 549:modbusRTU.c   **** 
 550:modbusRTU.c   **** int modbusRTU_Update(unsigned char slave_id, int *regs,
 551:modbusRTU.c   **** unsigned int regs_size) 
 552:modbusRTU.c   **** {
 3359              		.loc 1 552 0
 3360              		.cfi_startproc
 3361              		@ args = 0, pretend = 0, frame = 264
 3362              		@ frame_needed = 0, uses_anonymous_args = 0
 3363              	.LVL198:
 3364 0000 F0B5     		push	{r4, r5, r6, r7, lr}
 3365              		.cfi_def_cfa_offset 20
 3366              		.cfi_offset 4, -20
 3367              		.cfi_offset 5, -16
 3368              		.cfi_offset 6, -12
 3369              		.cfi_offset 7, -8
 3370              		.cfi_offset 14, -4
 3371 0002 4746     		mov	r7, r8
 3372 0004 80B4     		push	{r7}
 3373              		.cfi_def_cfa_offset 24
 3374              		.cfi_offset 8, -24
 3375 0006 C2B0     		sub	sp, sp, #264
 3376              		.cfi_def_cfa_offset 288
 3377              		.loc 1 552 0
 3378 0008 0400     		movs	r4, r0
 3379 000a 1700     		movs	r7, r2
 3380 000c 0E00     		movs	r6, r1
 553:modbusRTU.c   ****         unsigned char query[MAX_MESSAGE_LENGTH];
 554:modbusRTU.c   ****         unsigned char errpacket[EXCEPTION_SIZE + CHECKSUM_SIZE];
 555:modbusRTU.c   ****         unsigned int start_addr;
 556:modbusRTU.c   ****         int exception;
 557:modbusRTU.c   ****         int length = USB_UART_SpiUartGetRxBufferSize();
 3381              		.loc 1 557 0
 3382 000e FFF7FEFF 		bl	USB_UART_SpiUartGetRxBufferSize
 3383              	.LVL199:
 558:modbusRTU.c   ****         unsigned long now = millis();
 3384              		.loc 1 558 0
 3385 0012 784B     		ldr	r3, .L658
 559:modbusRTU.c   ****         
 560:modbusRTU.c   ****         slave = slave_id;
 3386              		.loc 1 560 0
 3387 0014 784D     		ldr	r5, .L658+4
 558:modbusRTU.c   ****         unsigned long now = millis();
 3388              		.loc 1 558 0
 3389 0016 1A68     		ldr	r2, [r3]
 3390 0018 5B68     		ldr	r3, [r3, #4]
 3391              	.LVL200:
 3392              		.loc 1 560 0
 3393 001a 2C70     		strb	r4, [r5]
 561:modbusRTU.c   **** 
ARM GAS  C:\Users\AFDHAL~1\AppData\Local\Temp\ccKZJoZj.s 			page 80


 562:modbusRTU.c   ****         if (length == 0) {
 3394              		.loc 1 562 0
 3395 001c 0028     		cmp	r0, #0
 3396 001e 00D1     		bne	.LCB3318
 3397 0020 D3E0     		b	.L655	@long jump
 3398              	.LCB3318:
 563:modbusRTU.c   ****                 lastBytesReceived = 0;
 564:modbusRTU.c   ****                 return 0;
 565:modbusRTU.c   ****         }
 566:modbusRTU.c   **** 
 567:modbusRTU.c   ****         if (lastBytesReceived != length) {
 3399              		.loc 1 567 0
 3400 0022 7649     		ldr	r1, .L658+8
 558:modbusRTU.c   ****         
 3401              		.loc 1 558 0
 3402 0024 9446     		mov	ip, r2
 3403              		.loc 1 567 0
 3404 0026 0C68     		ldr	r4, [r1]
 3405 0028 A042     		cmp	r0, r4
 3406 002a 09D0     		beq	.L451
 568:modbusRTU.c   ****                 lastBytesReceived = length;
 569:modbusRTU.c   ****                 Nowdt = now + T35;
 570:modbusRTU.c   ****                 return 0;
 3407              		.loc 1 570 0
 3408 002c 0024     		movs	r4, #0
 569:modbusRTU.c   ****                 return 0;
 3409              		.loc 1 569 0
 3410 002e 744B     		ldr	r3, .L658+12
 3411 0030 0532     		adds	r2, r2, #5
 3412              	.LVL201:
 568:modbusRTU.c   ****                 lastBytesReceived = length;
 3413              		.loc 1 568 0
 3414 0032 0860     		str	r0, [r1]
 569:modbusRTU.c   ****                 return 0;
 3415              		.loc 1 569 0
 3416 0034 1A60     		str	r2, [r3]
 3417              	.LVL202:
 3418              	.L621:
 571:modbusRTU.c   ****         }
 572:modbusRTU.c   ****         if (now < Nowdt) 
 573:modbusRTU.c   ****                 return 0;
 574:modbusRTU.c   **** 
 575:modbusRTU.c   ****         lastBytesReceived = 0;
 576:modbusRTU.c   **** 
 577:modbusRTU.c   ****         length = modbus_request(query);
 578:modbusRTU.c   ****         if (length < 1) 
 579:modbusRTU.c   ****                 return length;
 580:modbusRTU.c   ****          
 581:modbusRTU.c   ****                 exception = validate_request(query, length, regs_size);
 582:modbusRTU.c   ****                 if (exception) {
 583:modbusRTU.c   ****                         build_error_packet( query[FUNC], exception,
 584:modbusRTU.c   ****                         errpacket);
 585:modbusRTU.c   ****                         send_reply(errpacket, EXCEPTION_SIZE);
 586:modbusRTU.c   ****                         return (exception);
 587:modbusRTU.c   ****                 } 
 588:modbusRTU.c   **** 
 589:modbusRTU.c   ****                         start_addr =
ARM GAS  C:\Users\AFDHAL~1\AppData\Local\Temp\ccKZJoZj.s 			page 81


 590:modbusRTU.c   ****                                 ((int) query[START_H] << 8) +
 591:modbusRTU.c   ****                                 (int) query[START_L];
 592:modbusRTU.c   **** 
 593:modbusRTU.c   ****         switch (query[FUNC]) {
 594:modbusRTU.c   ****                 case FC_READ_REGS:
 595:modbusRTU.c   ****                         return read_holding_registers(
 596:modbusRTU.c   ****                         start_addr,
 597:modbusRTU.c   ****                         query[REGS_L],
 598:modbusRTU.c   ****                         regs);
 599:modbusRTU.c   ****                 break;
 600:modbusRTU.c   ****                 case FC_WRITE_REGS:
 601:modbusRTU.c   ****                 {
 602:modbusRTU.c   ****                     modbusRTU_Written = 1;
 603:modbusRTU.c   ****                     
 604:modbusRTU.c   ****                     char index = 0;
 605:modbusRTU.c   ****                     for(index = 0; index < query[REGS_L]; index++)
 606:modbusRTU.c   ****                     {
 607:modbusRTU.c   ****                         modbusRTU_written_register_flags |= 1<<(start_addr+index);
 608:modbusRTU.c   ****                     }
 609:modbusRTU.c   ****                     
 610:modbusRTU.c   ****                     return preset_multiple_registers(
 611:modbusRTU.c   ****                     start_addr,
 612:modbusRTU.c   ****                     query[REGS_L],
 613:modbusRTU.c   ****                     query,
 614:modbusRTU.c   ****                     regs);
 615:modbusRTU.c   ****                     break;
 616:modbusRTU.c   ****                 }
 617:modbusRTU.c   ****                 case FC_WRITE_REG:
 618:modbusRTU.c   ****                 {
 619:modbusRTU.c   ****                     modbusRTU_Written = 1;
 620:modbusRTU.c   ****                     
 621:modbusRTU.c   ****                     modbusRTU_written_register_flags |= 1<<(start_addr);
 622:modbusRTU.c   ****                     
 623:modbusRTU.c   ****                     write_single_register(
 624:modbusRTU.c   ****                     start_addr,
 625:modbusRTU.c   ****                     query,
 626:modbusRTU.c   ****                     regs);
 627:modbusRTU.c   ****                     break;                                
 628:modbusRTU.c   ****                 }
 629:modbusRTU.c   ****         }      
 630:modbusRTU.c   ****         return 0;
 631:modbusRTU.c   **** }
 3419              		.loc 1 631 0
 3420 0036 2000     		movs	r0, r4
 3421 0038 42B0     		add	sp, sp, #264
 3422              		@ sp needed
 3423 003a 04BC     		pop	{r2}
 3424 003c 9046     		mov	r8, r2
 3425 003e F0BD     		pop	{r4, r5, r6, r7, pc}
 3426              	.LVL203:
 3427              	.L451:
 572:modbusRTU.c   ****                 return 0;
 3428              		.loc 1 572 0
 3429 0040 6F4B     		ldr	r3, .L658+12
 573:modbusRTU.c   **** 
 3430              		.loc 1 573 0
 3431 0042 0024     		movs	r4, #0
ARM GAS  C:\Users\AFDHAL~1\AppData\Local\Temp\ccKZJoZj.s 			page 82


 572:modbusRTU.c   ****                 return 0;
 3432              		.loc 1 572 0
 3433 0044 9846     		mov	r8, r3
 3434 0046 1B68     		ldr	r3, [r3]
 3435 0048 9C45     		cmp	ip, r3
 3436 004a F4D3     		bcc	.L621
 577:modbusRTU.c   ****         if (length < 1) 
 3437              		.loc 1 577 0
 3438 004c 02A8     		add	r0, sp, #8
 3439              	.LVL204:
 575:modbusRTU.c   **** 
 3440              		.loc 1 575 0
 3441 004e 0C60     		str	r4, [r1]
 577:modbusRTU.c   ****         if (length < 1) 
 3442              		.loc 1 577 0
 3443 0050 FFF7FEFF 		bl	modbus_request
 3444              	.LVL205:
 578:modbusRTU.c   ****                 return length;
 3445              		.loc 1 578 0
 3446 0054 0028     		cmp	r0, #0
 3447 0056 00DC     		bgt	.LCB3372
 3448 0058 BDE0     		b	.L611	@long jump
 3449              	.LCB3372:
 3450              	.LVL206:
 3451              	.LBB160:
 3452              	.LBB161:
 380:modbusRTU.c   ****                         fcnt = 1;
 3453              		.loc 1 380 0
 3454 005a 6B46     		mov	r3, sp
 3455 005c 5B7A     		ldrb	r3, [r3, #9]
 3456 005e 032B     		cmp	r3, #3
 3457 0060 00D1     		bne	.LCB3382
 3458 0062 31E2     		b	.L452	@long jump
 3459              	.LCB3382:
 3460              	.LVL207:
 3461 0064 062B     		cmp	r3, #6
 3462 0066 00D1     		bne	.LCB3385
 3463 0068 B7E0     		b	.L453	@long jump
 3464              	.LCB3385:
 3465              	.LVL208:
 3466 006a 102B     		cmp	r3, #16
 3467 006c 00D1     		bne	.LCB3388
 3468 006e 6DE2     		b	.L454	@long jump
 3469              	.LCB3388:
 3470 0070 0122     		movs	r2, #1
 386:modbusRTU.c   ****                 
 3471              		.loc 1 386 0
 3472 0072 0134     		adds	r4, r4, #1
 3473              	.LVL209:
 3474              	.L455:
 3475              	.LBE161:
 3476              	.LBE160:
 3477              	.LBB169:
 3478              	.LBB170:
 227:modbusRTU.c   ****         packet[FUNC] = function + 0x80;
 3479              		.loc 1 227 0
 3480 0074 6F46     		mov	r7, sp
ARM GAS  C:\Users\AFDHAL~1\AppData\Local\Temp\ccKZJoZj.s 			page 83


 3481              	.LVL210:
 3482 0076 2978     		ldrb	r1, [r5]
 3483              	.LBE170:
 3484              	.LBE169:
 3485              	.LBB174:
 3486              	.LBB175:
 3487              	.LBB176:
 3488              	.LBB177:
 3489              	.LBB178:
 3490              	.LBB179:
 151:modbusRTU.c   **** 
 3491              		.loc 1 151 0
 3492 0078 6248     		ldr	r0, .L658+16
 3493              	.LBE179:
 3494              	.LBE178:
 3495              	.LBE177:
 3496              	.LBE176:
 3497              	.LBE175:
 3498              	.LBE174:
 3499              	.LBB197:
 3500              	.LBB171:
 227:modbusRTU.c   ****         packet[FUNC] = function + 0x80;
 3501              		.loc 1 227 0
 3502 007a 3970     		strb	r1, [r7]
 228:modbusRTU.c   ****         packet[2] = exception;
 3503              		.loc 1 228 0
 3504 007c 803B     		subs	r3, r3, #128
 3505              	.LVL211:
 3506              	.LBE171:
 3507              	.LBE197:
 3508              	.LBB198:
 3509              	.LBB194:
 3510              	.LBB191:
 3511              	.LBB188:
 3512              	.LBB184:
 3513              	.LBB180:
 151:modbusRTU.c   **** 
 3514              		.loc 1 151 0
 3515 007e 4140     		eors	r1, r0
 157:modbusRTU.c   ****                 }
 3516              		.loc 1 157 0
 3517 0080 6148     		ldr	r0, .L658+20
 3518              	.LBE180:
 3519              	.LBE184:
 3520              	.LBE188:
 3521              	.LBE191:
 3522              	.LBE194:
 3523              	.LBE198:
 3524              	.LBB199:
 3525              	.LBB172:
 228:modbusRTU.c   ****         packet[2] = exception;
 3526              		.loc 1 228 0
 3527 0082 DBB2     		uxtb	r3, r3
 3528              	.LBE172:
 3529              	.LBE199:
 3530              	.LBB200:
 3531              	.LBB195:
ARM GAS  C:\Users\AFDHAL~1\AppData\Local\Temp\ccKZJoZj.s 			page 84


 3532              	.LBB192:
 3533              	.LBB189:
 3534              	.LBB185:
 3535              	.LBB181:
 155:modbusRTU.c   ****                         if (flag)
 3536              		.loc 1 155 0
 3537 0084 4D08     		lsrs	r5, r1, #1
 3538              	.LBE181:
 3539              	.LBE185:
 3540              	.LBE189:
 3541              	.LBE192:
 3542              	.LBE195:
 3543              	.LBE200:
 3544              	.LBB201:
 3545              	.LBB173:
 228:modbusRTU.c   ****         packet[2] = exception;
 3546              		.loc 1 228 0
 3547 0086 7B70     		strb	r3, [r7, #1]
 229:modbusRTU.c   **** } 
 3548              		.loc 1 229 0
 3549 0088 BA70     		strb	r2, [r7, #2]
 3550              	.LVL212:
 3551              	.LBE173:
 3552              	.LBE201:
 3553              	.LBB202:
 3554              	.LBB196:
 3555              	.LBB193:
 3556              	.LBB190:
 3557              	.LBB186:
 3558              	.LBB182:
 157:modbusRTU.c   ****                 }
 3559              		.loc 1 157 0
 3560 008a 6840     		eors	r0, r5
 3561 008c C907     		lsls	r1, r1, #31
 3562 008e 00D4     		bmi	.LCB3483
 3563 0090 9FE0     		b	.L656	@long jump
 3564              	.LCB3483:
 3565              	.L460:
 3566 0092 5D4D     		ldr	r5, .L658+20
 155:modbusRTU.c   ****                         if (flag)
 3567              		.loc 1 155 0
 3568 0094 4108     		lsrs	r1, r0, #1
 157:modbusRTU.c   ****                 }
 3569              		.loc 1 157 0
 3570 0096 4D40     		eors	r5, r1
 3571 0098 C007     		lsls	r0, r0, #31
 3572 009a 00D5     		bpl	.L462
 3573 009c 2900     		movs	r1, r5
 3574              	.L462:
 3575 009e 5A4D     		ldr	r5, .L658+20
 155:modbusRTU.c   ****                         if (flag)
 3576              		.loc 1 155 0
 3577 00a0 4808     		lsrs	r0, r1, #1
 157:modbusRTU.c   ****                 }
 3578              		.loc 1 157 0
 3579 00a2 4540     		eors	r5, r0
 3580 00a4 C907     		lsls	r1, r1, #31
ARM GAS  C:\Users\AFDHAL~1\AppData\Local\Temp\ccKZJoZj.s 			page 85


 3581 00a6 00D5     		bpl	.L464
 3582 00a8 2800     		movs	r0, r5
 3583              	.L464:
 3584 00aa 574D     		ldr	r5, .L658+20
 155:modbusRTU.c   ****                         if (flag)
 3585              		.loc 1 155 0
 3586 00ac 4108     		lsrs	r1, r0, #1
 157:modbusRTU.c   ****                 }
 3587              		.loc 1 157 0
 3588 00ae 4D40     		eors	r5, r1
 3589 00b0 C007     		lsls	r0, r0, #31
 3590 00b2 00D5     		bpl	.L466
 3591 00b4 2900     		movs	r1, r5
 3592              	.L466:
 3593 00b6 544D     		ldr	r5, .L658+20
 155:modbusRTU.c   ****                         if (flag)
 3594              		.loc 1 155 0
 3595 00b8 4808     		lsrs	r0, r1, #1
 157:modbusRTU.c   ****                 }
 3596              		.loc 1 157 0
 3597 00ba 4540     		eors	r5, r0
 3598 00bc C907     		lsls	r1, r1, #31
 3599 00be 00D5     		bpl	.L468
 3600 00c0 2800     		movs	r0, r5
 3601              	.L468:
 3602 00c2 514D     		ldr	r5, .L658+20
 155:modbusRTU.c   ****                         if (flag)
 3603              		.loc 1 155 0
 3604 00c4 4108     		lsrs	r1, r0, #1
 157:modbusRTU.c   ****                 }
 3605              		.loc 1 157 0
 3606 00c6 4D40     		eors	r5, r1
 3607 00c8 C007     		lsls	r0, r0, #31
 3608 00ca 00D5     		bpl	.L470
 3609 00cc 2900     		movs	r1, r5
 3610              	.L470:
 3611 00ce 4E4D     		ldr	r5, .L658+20
 155:modbusRTU.c   ****                         if (flag)
 3612              		.loc 1 155 0
 3613 00d0 4808     		lsrs	r0, r1, #1
 157:modbusRTU.c   ****                 }
 3614              		.loc 1 157 0
 3615 00d2 4540     		eors	r5, r0
 3616 00d4 C907     		lsls	r1, r1, #31
 3617 00d6 00D5     		bpl	.L472
 3618 00d8 2800     		movs	r0, r5
 3619              	.L472:
 3620 00da 4B4D     		ldr	r5, .L658+20
 155:modbusRTU.c   ****                         if (flag)
 3621              		.loc 1 155 0
 3622 00dc 4108     		lsrs	r1, r0, #1
 157:modbusRTU.c   ****                 }
 3623              		.loc 1 157 0
 3624 00de 4D40     		eors	r5, r1
 3625 00e0 C007     		lsls	r0, r0, #31
 3626 00e2 00D5     		bpl	.L474
 3627 00e4 2900     		movs	r1, r5
ARM GAS  C:\Users\AFDHAL~1\AppData\Local\Temp\ccKZJoZj.s 			page 86


 3628              	.L474:
 3629              	.LVL213:
 151:modbusRTU.c   **** 
 3630              		.loc 1 151 0
 3631 00e6 4B40     		eors	r3, r1
 3632              	.LVL214:
 157:modbusRTU.c   ****                 }
 3633              		.loc 1 157 0
 3634 00e8 4748     		ldr	r0, .L658+20
 155:modbusRTU.c   ****                         if (flag)
 3635              		.loc 1 155 0
 3636 00ea 5908     		lsrs	r1, r3, #1
 157:modbusRTU.c   ****                 }
 3637              		.loc 1 157 0
 3638 00ec 4840     		eors	r0, r1
 3639 00ee DB07     		lsls	r3, r3, #31
 3640 00f0 00D5     		bpl	.L476
 3641 00f2 0100     		movs	r1, r0
 3642              	.L476:
 3643 00f4 4448     		ldr	r0, .L658+20
 155:modbusRTU.c   ****                         if (flag)
 3644              		.loc 1 155 0
 3645 00f6 4B08     		lsrs	r3, r1, #1
 157:modbusRTU.c   ****                 }
 3646              		.loc 1 157 0
 3647 00f8 5840     		eors	r0, r3
 3648 00fa C907     		lsls	r1, r1, #31
 3649 00fc 00D5     		bpl	.L478
 3650 00fe 0300     		movs	r3, r0
 3651              	.L478:
 3652 0100 4148     		ldr	r0, .L658+20
 155:modbusRTU.c   ****                         if (flag)
 3653              		.loc 1 155 0
 3654 0102 5908     		lsrs	r1, r3, #1
 157:modbusRTU.c   ****                 }
 3655              		.loc 1 157 0
 3656 0104 4840     		eors	r0, r1
 3657 0106 DB07     		lsls	r3, r3, #31
 3658 0108 00D5     		bpl	.L480
 3659 010a 0100     		movs	r1, r0
 3660              	.L480:
 3661 010c 3E48     		ldr	r0, .L658+20
 155:modbusRTU.c   ****                         if (flag)
 3662              		.loc 1 155 0
 3663 010e 4B08     		lsrs	r3, r1, #1
 157:modbusRTU.c   ****                 }
 3664              		.loc 1 157 0
 3665 0110 5840     		eors	r0, r3
 3666 0112 C907     		lsls	r1, r1, #31
 3667 0114 00D5     		bpl	.L482
 3668 0116 0300     		movs	r3, r0
 3669              	.L482:
 3670 0118 3B48     		ldr	r0, .L658+20
 155:modbusRTU.c   ****                         if (flag)
 3671              		.loc 1 155 0
 3672 011a 5908     		lsrs	r1, r3, #1
 157:modbusRTU.c   ****                 }
ARM GAS  C:\Users\AFDHAL~1\AppData\Local\Temp\ccKZJoZj.s 			page 87


 3673              		.loc 1 157 0
 3674 011c 4840     		eors	r0, r1
 3675 011e DB07     		lsls	r3, r3, #31
 3676 0120 00D5     		bpl	.L484
 3677 0122 0100     		movs	r1, r0
 3678              	.L484:
 3679 0124 3848     		ldr	r0, .L658+20
 155:modbusRTU.c   ****                         if (flag)
 3680              		.loc 1 155 0
 3681 0126 4B08     		lsrs	r3, r1, #1
 157:modbusRTU.c   ****                 }
 3682              		.loc 1 157 0
 3683 0128 5840     		eors	r0, r3
 3684 012a C907     		lsls	r1, r1, #31
 3685 012c 00D5     		bpl	.L486
 3686 012e 0300     		movs	r3, r0
 3687              	.L486:
 3688 0130 3548     		ldr	r0, .L658+20
 155:modbusRTU.c   ****                         if (flag)
 3689              		.loc 1 155 0
 3690 0132 5908     		lsrs	r1, r3, #1
 157:modbusRTU.c   ****                 }
 3691              		.loc 1 157 0
 3692 0134 4840     		eors	r0, r1
 3693 0136 DB07     		lsls	r3, r3, #31
 3694 0138 00D5     		bpl	.L488
 3695 013a 0100     		movs	r1, r0
 3696              	.L488:
 3697 013c 3248     		ldr	r0, .L658+20
 155:modbusRTU.c   ****                         if (flag)
 3698              		.loc 1 155 0
 3699 013e 4B08     		lsrs	r3, r1, #1
 157:modbusRTU.c   ****                 }
 3700              		.loc 1 157 0
 3701 0140 5840     		eors	r0, r3
 3702 0142 C907     		lsls	r1, r1, #31
 3703 0144 00D5     		bpl	.L490
 3704 0146 0300     		movs	r3, r0
 3705              	.L490:
 3706              	.LVL215:
 151:modbusRTU.c   **** 
 3707              		.loc 1 151 0
 3708 0148 5A40     		eors	r2, r3
 3709              	.LVL216:
 157:modbusRTU.c   ****                 }
 3710              		.loc 1 157 0
 3711 014a 2F49     		ldr	r1, .L658+20
 155:modbusRTU.c   ****                         if (flag)
 3712              		.loc 1 155 0
 3713 014c 5308     		lsrs	r3, r2, #1
 157:modbusRTU.c   ****                 }
 3714              		.loc 1 157 0
 3715 014e 5940     		eors	r1, r3
 3716 0150 D207     		lsls	r2, r2, #31
 3717 0152 00D4     		bmi	.L492
 3718 0154 1900     		movs	r1, r3
 3719              	.L492:
ARM GAS  C:\Users\AFDHAL~1\AppData\Local\Temp\ccKZJoZj.s 			page 88


 3720 0156 2C4B     		ldr	r3, .L658+20
 155:modbusRTU.c   ****                         if (flag)
 3721              		.loc 1 155 0
 3722 0158 4A08     		lsrs	r2, r1, #1
 157:modbusRTU.c   ****                 }
 3723              		.loc 1 157 0
 3724 015a 5340     		eors	r3, r2
 3725 015c C907     		lsls	r1, r1, #31
 3726 015e 00D4     		bmi	.L494
 3727 0160 1300     		movs	r3, r2
 3728              	.L494:
 3729 0162 294A     		ldr	r2, .L658+20
 155:modbusRTU.c   ****                         if (flag)
 3730              		.loc 1 155 0
 3731 0164 5908     		lsrs	r1, r3, #1
 157:modbusRTU.c   ****                 }
 3732              		.loc 1 157 0
 3733 0166 4A40     		eors	r2, r1
 3734 0168 DB07     		lsls	r3, r3, #31
 3735 016a 00D4     		bmi	.L496
 3736 016c 0A00     		movs	r2, r1
 3737              	.L496:
 3738 016e 264B     		ldr	r3, .L658+20
 155:modbusRTU.c   ****                         if (flag)
 3739              		.loc 1 155 0
 3740 0170 5108     		lsrs	r1, r2, #1
 157:modbusRTU.c   ****                 }
 3741              		.loc 1 157 0
 3742 0172 4B40     		eors	r3, r1
 3743 0174 D207     		lsls	r2, r2, #31
 3744 0176 00D4     		bmi	.L498
 3745 0178 0B00     		movs	r3, r1
 3746              	.L498:
 3747 017a 234A     		ldr	r2, .L658+20
 155:modbusRTU.c   ****                         if (flag)
 3748              		.loc 1 155 0
 3749 017c 5908     		lsrs	r1, r3, #1
 157:modbusRTU.c   ****                 }
 3750              		.loc 1 157 0
 3751 017e 4A40     		eors	r2, r1
 3752 0180 DB07     		lsls	r3, r3, #31
 3753 0182 00D4     		bmi	.L500
 3754 0184 0A00     		movs	r2, r1
 3755              	.L500:
 3756 0186 204B     		ldr	r3, .L658+20
 155:modbusRTU.c   ****                         if (flag)
 3757              		.loc 1 155 0
 3758 0188 5108     		lsrs	r1, r2, #1
 157:modbusRTU.c   ****                 }
 3759              		.loc 1 157 0
 3760 018a 4B40     		eors	r3, r1
 3761 018c D207     		lsls	r2, r2, #31
 3762 018e 00D4     		bmi	.L502
 3763 0190 0B00     		movs	r3, r1
 3764              	.L502:
 3765 0192 1D4A     		ldr	r2, .L658+20
 155:modbusRTU.c   ****                         if (flag)
ARM GAS  C:\Users\AFDHAL~1\AppData\Local\Temp\ccKZJoZj.s 			page 89


 3766              		.loc 1 155 0
 3767 0194 5908     		lsrs	r1, r3, #1
 157:modbusRTU.c   ****                 }
 3768              		.loc 1 157 0
 3769 0196 4A40     		eors	r2, r1
 3770 0198 DB07     		lsls	r3, r3, #31
 3771 019a 00D4     		bmi	.L504
 3772 019c 0A00     		movs	r2, r1
 3773              	.L504:
 3774 019e 1A4B     		ldr	r3, .L658+20
 155:modbusRTU.c   ****                         if (flag)
 3775              		.loc 1 155 0
 3776 01a0 5108     		lsrs	r1, r2, #1
 157:modbusRTU.c   ****                 }
 3777              		.loc 1 157 0
 3778 01a2 4B40     		eors	r3, r1
 3779 01a4 D207     		lsls	r2, r2, #31
 3780 01a6 00D4     		bmi	.L506
 3781 01a8 0B00     		movs	r3, r1
 3782              	.L506:
 3783              	.LVL217:
 3784              	.LBE182:
 3785              	.LBE186:
 249:modbusRTU.c   **** } 
 3786              		.loc 1 249 0
 3787 01aa 0025     		movs	r5, #0
 3788              	.LBB187:
 3789              	.LBB183:
 162:modbusRTU.c   ****         temp = (temp << 8) | temp2;
 3790              		.loc 1 162 0
 3791 01ac 1A0A     		lsrs	r2, r3, #8
 3792              	.LVL218:
 163:modbusRTU.c   ****         temp &= 0xFFFF;
 3793              		.loc 1 163 0
 3794 01ae 1B02     		lsls	r3, r3, #8
 3795              	.LVL219:
 3796 01b0 1343     		orrs	r3, r2
 3797              	.LVL220:
 164:modbusRTU.c   **** 
 3798              		.loc 1 164 0
 3799 01b2 1B04     		lsls	r3, r3, #16
 3800              	.LVL221:
 3801 01b4 1B0C     		lsrs	r3, r3, #16
 3802              	.LVL222:
 3803              	.LBE183:
 3804              	.LBE187:
 247:modbusRTU.c   ****         string_length++;
 3805              		.loc 1 247 0
 3806 01b6 1A12     		asrs	r2, r3, #8
 3807 01b8 FA70     		strb	r2, [r7, #3]
 3808              	.LVL223:
 249:modbusRTU.c   **** } 
 3809              		.loc 1 249 0
 3810 01ba 3B71     		strb	r3, [r7, #4]
 3811              	.LVL224:
 3812              	.L507:
 3813              	.LBE190:
ARM GAS  C:\Users\AFDHAL~1\AppData\Local\Temp\ccKZJoZj.s 			page 90


 3814              	.LBE193:
 272:modbusRTU.c   ****         }
 3815              		.loc 1 272 0
 3816 01bc 785D     		ldrb	r0, [r7, r5]
 3817 01be 0135     		adds	r5, r5, #1
 3818              	.LVL225:
 3819 01c0 FFF7FEFF 		bl	USB_UART_SpiUartWriteTxData
 3820              	.LVL226:
 270:modbusRTU.c   ****                 //Serial.print(char(query[i]));
 3821              		.loc 1 270 0
 3822 01c4 052D     		cmp	r5, #5
 3823 01c6 F9D1     		bne	.L507
 3824 01c8 35E7     		b	.L621
 3825              	.LVL227:
 3826              	.L655:
 3827              	.LBE196:
 3828              	.LBE202:
 563:modbusRTU.c   ****                 return 0;
 3829              		.loc 1 563 0
 3830 01ca 0C4B     		ldr	r3, .L658+8
 564:modbusRTU.c   ****         }
 3831              		.loc 1 564 0
 3832 01cc 0024     		movs	r4, #0
 563:modbusRTU.c   ****                 return 0;
 3833              		.loc 1 563 0
 3834 01ce 1860     		str	r0, [r3]
 564:modbusRTU.c   ****         }
 3835              		.loc 1 564 0
 3836 01d0 31E7     		b	.L621
 3837              	.LVL228:
 3838              	.L656:
 3839 01d2 2800     		movs	r0, r5
 3840 01d4 5DE7     		b	.L460
 3841              	.LVL229:
 3842              	.L611:
 3843 01d6 0400     		movs	r4, r0
 3844 01d8 2DE7     		b	.L621
 3845              	.LVL230:
 3846              	.L453:
 3847              	.LBB203:
 3848              	.LBB166:
 3849              	.LBB162:
 3850              	.LBB163:
 390:modbusRTU.c   ****                 if (regs_num >= regs_size)
 3851              		.loc 1 390 0
 3852 01da 6A46     		mov	r2, sp
 3853 01dc 6946     		mov	r1, sp
 3854 01de 927A     		ldrb	r2, [r2, #10]
 3855 01e0 C97A     		ldrb	r1, [r1, #11]
 3856 01e2 1202     		lsls	r2, r2, #8
 3857 01e4 5218     		adds	r2, r2, r1
 3858 01e6 1000     		movs	r0, r2
 3859              	.LVL231:
 391:modbusRTU.c   ****                         return EXC_ADDR_RANGE;
 3860              		.loc 1 391 0
 3861 01e8 9742     		cmp	r7, r2
 3862 01ea 0FD8     		bhi	.L457
ARM GAS  C:\Users\AFDHAL~1\AppData\Local\Temp\ccKZJoZj.s 			page 91


 3863              	.LVL232:
 3864              	.L615:
 3865              	.LBE163:
 3866              	.LBE162:
 410:modbusRTU.c   ****                 return EXC_ADDR_RANGE;
 3867              		.loc 1 410 0
 3868 01ec 0222     		movs	r2, #2
 3869              	.LBB165:
 3870              	.LBB164:
 392:modbusRTU.c   ****                 return 0;
 3871              		.loc 1 392 0
 3872 01ee 0224     		movs	r4, #2
 3873              	.LVL233:
 3874 01f0 40E7     		b	.L455
 3875              	.L659:
 3876 01f2 C046     		.align	2
 3877              	.L658:
 3878 01f4 00000000 		.word	long_millis
 3879 01f8 00000000 		.word	slave
 3880 01fc 00000000 		.word	lastBytesReceived
 3881 0200 00000000 		.word	.LANCHOR0
 3882 0204 FFFF0000 		.word	65535
 3883 0208 01A00000 		.word	40961
 3884              	.L457:
 3885              	.LVL234:
 3886              	.LBE164:
 3887              	.LBE165:
 3888              	.LBE166:
 3889              	.LBE203:
 619:modbusRTU.c   ****                     
 3890              		.loc 1 619 0
 3891 020c 4346     		mov	r3, r8
 3892 020e 0121     		movs	r1, #1
 3893 0210 1971     		strb	r1, [r3, #4]
 621:modbusRTU.c   ****                     
 3894              		.loc 1 621 0
 3895 0212 0B00     		movs	r3, r1
 3896 0214 4446     		mov	r4, r8
 3897 0216 8340     		lsls	r3, r3, r0
 3898 0218 A468     		ldr	r4, [r4, #8]
 3899              	.LBB204:
 3900              	.LBB205:
 3901              	.LBB206:
 3902              	.LBB207:
 212:modbusRTU.c   ****         packet[FUNC] = function;
 3903              		.loc 1 212 0
 3904 021a 6F46     		mov	r7, sp
 3905              	.LVL235:
 3906              	.LBE207:
 3907              	.LBE206:
 3908              	.LBE205:
 3909              	.LBE204:
 621:modbusRTU.c   ****                     
 3910              		.loc 1 621 0
 3911 021c 2343     		orrs	r3, r4
 3912 021e 4446     		mov	r4, r8
 3913 0220 A360     		str	r3, [r4, #8]
ARM GAS  C:\Users\AFDHAL~1\AppData\Local\Temp\ccKZJoZj.s 			page 92


 3914              	.LVL236:
 3915 0222 6B46     		mov	r3, sp
 3916              	.LBB229:
 3917              	.LBB228:
 3918              	.LBB211:
 3919              	.LBB208:
 212:modbusRTU.c   ****         packet[FUNC] = function;
 3920              		.loc 1 212 0
 3921 0224 2C78     		ldrb	r4, [r5]
 3922 0226 9B89     		ldrh	r3, [r3, #12]
 3923 0228 A046     		mov	r8, r4
 3924 022a 3C70     		strb	r4, [r7]
 213:modbusRTU.c   ****         packet[START_H] = write_addr >> 8;
 3925              		.loc 1 213 0
 3926 022c 0624     		movs	r4, #6
 3927 022e 5BBA     		rev16	r3, r3
 3928 0230 9BB2     		uxth	r3, r3
 3929              	.LVL237:
 3930 0232 7C70     		strb	r4, [r7, #1]
 214:modbusRTU.c   ****         packet[START_L] = write_addr & 0x00ff;
 3931              		.loc 1 214 0
 3932 0234 040A     		lsrs	r4, r0, #8
 3933              	.LBE208:
 3934              	.LBE211:
 488:modbusRTU.c   **** /*
 3935              		.loc 1 488 0
 3936 0236 8000     		lsls	r0, r0, #2
 3937              	.LVL238:
 3938 0238 8351     		str	r3, [r0, r6]
 3939              	.LBB212:
 3940              	.LBB209:
 216:modbusRTU.c   ****         packet[REGS_L] = reg_val & 0x00ff;
 3941              		.loc 1 216 0
 3942 023a 1D0A     		lsrs	r5, r3, #8
 214:modbusRTU.c   ****         packet[START_L] = write_addr & 0x00ff;
 3943              		.loc 1 214 0
 3944 023c A446     		mov	ip, r4
 3945 023e BC70     		strb	r4, [r7, #2]
 217:modbusRTU.c   **** } 
 3946              		.loc 1 217 0
 3947 0240 DCB2     		uxtb	r4, r3
 3948              	.LBE209:
 3949              	.LBE212:
 3950              	.LBB213:
 3951              	.LBB214:
 3952              	.LBB215:
 3953              	.LBB216:
 3954              	.LBB217:
 3955              	.LBB218:
 151:modbusRTU.c   **** 
 3956              		.loc 1 151 0
 3957 0242 4346     		mov	r3, r8
 3958              	.LVL239:
 3959 0244 BF48     		ldr	r0, .L660
 3960              	.LVL240:
 157:modbusRTU.c   ****                 }
 3961              		.loc 1 157 0
ARM GAS  C:\Users\AFDHAL~1\AppData\Local\Temp\ccKZJoZj.s 			page 93


 3962 0246 C04E     		ldr	r6, .L660+4
 3963              	.LVL241:
 151:modbusRTU.c   **** 
 3964              		.loc 1 151 0
 3965 0248 5840     		eors	r0, r3
 155:modbusRTU.c   ****                         if (flag)
 3966              		.loc 1 155 0
 3967 024a 4308     		lsrs	r3, r0, #1
 3968              	.LBE218:
 3969              	.LBE217:
 3970              	.LBE216:
 3971              	.LBE215:
 3972              	.LBE214:
 3973              	.LBE213:
 3974              	.LBB226:
 3975              	.LBB210:
 215:modbusRTU.c   ****         packet[REGS_H] = reg_val >> 8;
 3976              		.loc 1 215 0
 3977 024c FA70     		strb	r2, [r7, #3]
 216:modbusRTU.c   ****         packet[REGS_L] = reg_val & 0x00ff;
 3978              		.loc 1 216 0
 3979 024e 3D71     		strb	r5, [r7, #4]
 217:modbusRTU.c   **** } 
 3980              		.loc 1 217 0
 3981 0250 7C71     		strb	r4, [r7, #5]
 3982              	.LVL242:
 3983              	.LBE210:
 3984              	.LBE226:
 3985              	.LBB227:
 3986              	.LBB225:
 3987              	.LBB224:
 3988              	.LBB223:
 3989              	.LBB221:
 3990              	.LBB219:
 157:modbusRTU.c   ****                 }
 3991              		.loc 1 157 0
 3992 0252 5E40     		eors	r6, r3
 3993 0254 0142     		tst	r1, r0
 3994 0256 00D0     		beq	.L513
 3995 0258 3300     		movs	r3, r6
 3996              	.L513:
 3997 025a BB48     		ldr	r0, .L660+4
 155:modbusRTU.c   ****                         if (flag)
 3998              		.loc 1 155 0
 3999 025c 5908     		lsrs	r1, r3, #1
 157:modbusRTU.c   ****                 }
 4000              		.loc 1 157 0
 4001 025e 4840     		eors	r0, r1
 4002 0260 DB07     		lsls	r3, r3, #31
 4003 0262 00D5     		bpl	.L515
 4004 0264 0100     		movs	r1, r0
 4005              	.L515:
 4006 0266 B848     		ldr	r0, .L660+4
 155:modbusRTU.c   ****                         if (flag)
 4007              		.loc 1 155 0
 4008 0268 4B08     		lsrs	r3, r1, #1
 157:modbusRTU.c   ****                 }
ARM GAS  C:\Users\AFDHAL~1\AppData\Local\Temp\ccKZJoZj.s 			page 94


 4009              		.loc 1 157 0
 4010 026a 5840     		eors	r0, r3
 4011 026c C907     		lsls	r1, r1, #31
 4012 026e 00D5     		bpl	.L517
 4013 0270 0300     		movs	r3, r0
 4014              	.L517:
 4015 0272 B548     		ldr	r0, .L660+4
 155:modbusRTU.c   ****                         if (flag)
 4016              		.loc 1 155 0
 4017 0274 5908     		lsrs	r1, r3, #1
 157:modbusRTU.c   ****                 }
 4018              		.loc 1 157 0
 4019 0276 4840     		eors	r0, r1
 4020 0278 DB07     		lsls	r3, r3, #31
 4021 027a 00D5     		bpl	.L519
 4022 027c 0100     		movs	r1, r0
 4023              	.L519:
 4024 027e B248     		ldr	r0, .L660+4
 155:modbusRTU.c   ****                         if (flag)
 4025              		.loc 1 155 0
 4026 0280 4B08     		lsrs	r3, r1, #1
 157:modbusRTU.c   ****                 }
 4027              		.loc 1 157 0
 4028 0282 5840     		eors	r0, r3
 4029 0284 C907     		lsls	r1, r1, #31
 4030 0286 00D5     		bpl	.L521
 4031 0288 0300     		movs	r3, r0
 4032              	.L521:
 4033 028a AF48     		ldr	r0, .L660+4
 155:modbusRTU.c   ****                         if (flag)
 4034              		.loc 1 155 0
 4035 028c 5908     		lsrs	r1, r3, #1
 157:modbusRTU.c   ****                 }
 4036              		.loc 1 157 0
 4037 028e 4840     		eors	r0, r1
 4038 0290 DB07     		lsls	r3, r3, #31
 4039 0292 00D5     		bpl	.L523
 4040 0294 0100     		movs	r1, r0
 4041              	.L523:
 4042 0296 AC48     		ldr	r0, .L660+4
 155:modbusRTU.c   ****                         if (flag)
 4043              		.loc 1 155 0
 4044 0298 4B08     		lsrs	r3, r1, #1
 157:modbusRTU.c   ****                 }
 4045              		.loc 1 157 0
 4046 029a 5840     		eors	r0, r3
 4047 029c C907     		lsls	r1, r1, #31
 4048 029e 00D5     		bpl	.L525
 4049 02a0 0300     		movs	r3, r0
 4050              	.L525:
 4051 02a2 A948     		ldr	r0, .L660+4
 155:modbusRTU.c   ****                         if (flag)
 4052              		.loc 1 155 0
 4053 02a4 5908     		lsrs	r1, r3, #1
 157:modbusRTU.c   ****                 }
 4054              		.loc 1 157 0
 4055 02a6 4840     		eors	r0, r1
ARM GAS  C:\Users\AFDHAL~1\AppData\Local\Temp\ccKZJoZj.s 			page 95


 4056 02a8 DB07     		lsls	r3, r3, #31
 4057 02aa 00D5     		bpl	.L527
 4058 02ac 0100     		movs	r1, r0
 4059              	.L527:
 4060              	.LVL243:
 151:modbusRTU.c   **** 
 4061              		.loc 1 151 0
 4062 02ae 0623     		movs	r3, #6
 157:modbusRTU.c   ****                 }
 4063              		.loc 1 157 0
 4064 02b0 A548     		ldr	r0, .L660+4
 151:modbusRTU.c   **** 
 4065              		.loc 1 151 0
 4066 02b2 5940     		eors	r1, r3
 4067              	.LVL244:
 155:modbusRTU.c   ****                         if (flag)
 4068              		.loc 1 155 0
 4069 02b4 4B08     		lsrs	r3, r1, #1
 157:modbusRTU.c   ****                 }
 4070              		.loc 1 157 0
 4071 02b6 5840     		eors	r0, r3
 4072 02b8 C907     		lsls	r1, r1, #31
 4073 02ba 00D5     		bpl	.L529
 4074 02bc 0300     		movs	r3, r0
 4075              	.L529:
 4076 02be A249     		ldr	r1, .L660+4
 155:modbusRTU.c   ****                         if (flag)
 4077              		.loc 1 155 0
 4078 02c0 5808     		lsrs	r0, r3, #1
 157:modbusRTU.c   ****                 }
 4079              		.loc 1 157 0
 4080 02c2 4140     		eors	r1, r0
 4081 02c4 DB07     		lsls	r3, r3, #31
 4082 02c6 00D4     		bmi	.L531
 4083 02c8 0100     		movs	r1, r0
 4084              	.L531:
 4085 02ca 9F4B     		ldr	r3, .L660+4
 155:modbusRTU.c   ****                         if (flag)
 4086              		.loc 1 155 0
 4087 02cc 4808     		lsrs	r0, r1, #1
 157:modbusRTU.c   ****                 }
 4088              		.loc 1 157 0
 4089 02ce 4340     		eors	r3, r0
 4090 02d0 C907     		lsls	r1, r1, #31
 4091 02d2 00D4     		bmi	.L533
 4092 02d4 0300     		movs	r3, r0
 4093              	.L533:
 4094 02d6 9C49     		ldr	r1, .L660+4
 155:modbusRTU.c   ****                         if (flag)
 4095              		.loc 1 155 0
 4096 02d8 5808     		lsrs	r0, r3, #1
 157:modbusRTU.c   ****                 }
 4097              		.loc 1 157 0
 4098 02da 4140     		eors	r1, r0
 4099 02dc DB07     		lsls	r3, r3, #31
 4100 02de 00D4     		bmi	.L535
 4101 02e0 0100     		movs	r1, r0
ARM GAS  C:\Users\AFDHAL~1\AppData\Local\Temp\ccKZJoZj.s 			page 96


 4102              	.L535:
 4103 02e2 994B     		ldr	r3, .L660+4
 155:modbusRTU.c   ****                         if (flag)
 4104              		.loc 1 155 0
 4105 02e4 4808     		lsrs	r0, r1, #1
 157:modbusRTU.c   ****                 }
 4106              		.loc 1 157 0
 4107 02e6 4340     		eors	r3, r0
 4108 02e8 C907     		lsls	r1, r1, #31
 4109 02ea 00D4     		bmi	.L537
 4110 02ec 0300     		movs	r3, r0
 4111              	.L537:
 4112 02ee 9648     		ldr	r0, .L660+4
 155:modbusRTU.c   ****                         if (flag)
 4113              		.loc 1 155 0
 4114 02f0 5908     		lsrs	r1, r3, #1
 157:modbusRTU.c   ****                 }
 4115              		.loc 1 157 0
 4116 02f2 4840     		eors	r0, r1
 4117 02f4 DB07     		lsls	r3, r3, #31
 4118 02f6 00D5     		bpl	.L539
 4119 02f8 0100     		movs	r1, r0
 4120              	.L539:
 4121 02fa 9348     		ldr	r0, .L660+4
 155:modbusRTU.c   ****                         if (flag)
 4122              		.loc 1 155 0
 4123 02fc 4B08     		lsrs	r3, r1, #1
 157:modbusRTU.c   ****                 }
 4124              		.loc 1 157 0
 4125 02fe 5840     		eors	r0, r3
 4126 0300 C907     		lsls	r1, r1, #31
 4127 0302 00D4     		bmi	.L541
 4128 0304 1800     		movs	r0, r3
 4129              	.L541:
 4130 0306 904B     		ldr	r3, .L660+4
 155:modbusRTU.c   ****                         if (flag)
 4131              		.loc 1 155 0
 4132 0308 4108     		lsrs	r1, r0, #1
 157:modbusRTU.c   ****                 }
 4133              		.loc 1 157 0
 4134 030a 4B40     		eors	r3, r1
 4135 030c C007     		lsls	r0, r0, #31
 4136 030e 00D4     		bmi	.L543
 4137 0310 0B00     		movs	r3, r1
 4138              	.L543:
 4139              	.LVL245:
 151:modbusRTU.c   **** 
 4140              		.loc 1 151 0
 4141 0312 6146     		mov	r1, ip
 4142 0314 5940     		eors	r1, r3
 4143 0316 0B00     		movs	r3, r1
 4144              	.LVL246:
 155:modbusRTU.c   ****                         if (flag)
 4145              		.loc 1 155 0
 4146 0318 4808     		lsrs	r0, r1, #1
 157:modbusRTU.c   ****                 }
 4147              		.loc 1 157 0
ARM GAS  C:\Users\AFDHAL~1\AppData\Local\Temp\ccKZJoZj.s 			page 97


 4148 031a 8B49     		ldr	r1, .L660+4
 4149 031c 4140     		eors	r1, r0
 4150 031e DB07     		lsls	r3, r3, #31
 4151 0320 00D4     		bmi	.L545
 4152 0322 0100     		movs	r1, r0
 4153              	.L545:
 4154 0324 884B     		ldr	r3, .L660+4
 155:modbusRTU.c   ****                         if (flag)
 4155              		.loc 1 155 0
 4156 0326 4808     		lsrs	r0, r1, #1
 157:modbusRTU.c   ****                 }
 4157              		.loc 1 157 0
 4158 0328 4340     		eors	r3, r0
 4159 032a C907     		lsls	r1, r1, #31
 4160 032c 00D4     		bmi	.L547
 4161 032e 0300     		movs	r3, r0
 4162              	.L547:
 4163 0330 8549     		ldr	r1, .L660+4
 155:modbusRTU.c   ****                         if (flag)
 4164              		.loc 1 155 0
 4165 0332 5808     		lsrs	r0, r3, #1
 157:modbusRTU.c   ****                 }
 4166              		.loc 1 157 0
 4167 0334 4140     		eors	r1, r0
 4168 0336 DB07     		lsls	r3, r3, #31
 4169 0338 00D4     		bmi	.L549
 4170 033a 0100     		movs	r1, r0
 4171              	.L549:
 4172 033c 824B     		ldr	r3, .L660+4
 155:modbusRTU.c   ****                         if (flag)
 4173              		.loc 1 155 0
 4174 033e 4808     		lsrs	r0, r1, #1
 157:modbusRTU.c   ****                 }
 4175              		.loc 1 157 0
 4176 0340 4340     		eors	r3, r0
 4177 0342 C907     		lsls	r1, r1, #31
 4178 0344 00D4     		bmi	.L551
 4179 0346 0300     		movs	r3, r0
 4180              	.L551:
 4181 0348 7F49     		ldr	r1, .L660+4
 155:modbusRTU.c   ****                         if (flag)
 4182              		.loc 1 155 0
 4183 034a 5808     		lsrs	r0, r3, #1
 157:modbusRTU.c   ****                 }
 4184              		.loc 1 157 0
 4185 034c 4140     		eors	r1, r0
 4186 034e DB07     		lsls	r3, r3, #31
 4187 0350 00D4     		bmi	.L553
 4188 0352 0100     		movs	r1, r0
 4189              	.L553:
 4190 0354 7C4B     		ldr	r3, .L660+4
 155:modbusRTU.c   ****                         if (flag)
 4191              		.loc 1 155 0
 4192 0356 4808     		lsrs	r0, r1, #1
 157:modbusRTU.c   ****                 }
 4193              		.loc 1 157 0
 4194 0358 4340     		eors	r3, r0
ARM GAS  C:\Users\AFDHAL~1\AppData\Local\Temp\ccKZJoZj.s 			page 98


 4195 035a C907     		lsls	r1, r1, #31
 4196 035c 00D4     		bmi	.L555
 4197 035e 0300     		movs	r3, r0
 4198              	.L555:
 4199 0360 7948     		ldr	r0, .L660+4
 155:modbusRTU.c   ****                         if (flag)
 4200              		.loc 1 155 0
 4201 0362 5908     		lsrs	r1, r3, #1
 157:modbusRTU.c   ****                 }
 4202              		.loc 1 157 0
 4203 0364 4840     		eors	r0, r1
 4204 0366 DB07     		lsls	r3, r3, #31
 4205 0368 00D4     		bmi	.L557
 4206 036a 0800     		movs	r0, r1
 4207              	.L557:
 4208 036c 7649     		ldr	r1, .L660+4
 155:modbusRTU.c   ****                         if (flag)
 4209              		.loc 1 155 0
 4210 036e 4608     		lsrs	r6, r0, #1
 157:modbusRTU.c   ****                 }
 4211              		.loc 1 157 0
 4212 0370 0B00     		movs	r3, r1
 4213 0372 7340     		eors	r3, r6
 4214 0374 C107     		lsls	r1, r0, #31
 4215 0376 00D4     		bmi	.L559
 4216 0378 3300     		movs	r3, r6
 4217              	.L559:
 4218              	.LVL247:
 151:modbusRTU.c   **** 
 4219              		.loc 1 151 0
 4220 037a FF21     		movs	r1, #255
 4221 037c 0A40     		ands	r2, r1
 4222              	.LVL248:
 4223 037e 5A40     		eors	r2, r3
 4224 0380 1100     		movs	r1, r2
 4225              	.LVL249:
 157:modbusRTU.c   ****                 }
 4226              		.loc 1 157 0
 4227 0382 714B     		ldr	r3, .L660+4
 155:modbusRTU.c   ****                         if (flag)
 4228              		.loc 1 155 0
 4229 0384 5208     		lsrs	r2, r2, #1
 157:modbusRTU.c   ****                 }
 4230              		.loc 1 157 0
 4231 0386 5340     		eors	r3, r2
 4232 0388 C907     		lsls	r1, r1, #31
 4233 038a 00D4     		bmi	.L561
 4234 038c 1300     		movs	r3, r2
 4235              	.L561:
 4236 038e 6E4A     		ldr	r2, .L660+4
 155:modbusRTU.c   ****                         if (flag)
 4237              		.loc 1 155 0
 4238 0390 5908     		lsrs	r1, r3, #1
 157:modbusRTU.c   ****                 }
 4239              		.loc 1 157 0
 4240 0392 4A40     		eors	r2, r1
 4241 0394 DB07     		lsls	r3, r3, #31
ARM GAS  C:\Users\AFDHAL~1\AppData\Local\Temp\ccKZJoZj.s 			page 99


 4242 0396 00D4     		bmi	.L563
 4243 0398 0A00     		movs	r2, r1
 4244              	.L563:
 4245 039a 6B4B     		ldr	r3, .L660+4
 155:modbusRTU.c   ****                         if (flag)
 4246              		.loc 1 155 0
 4247 039c 5108     		lsrs	r1, r2, #1
 157:modbusRTU.c   ****                 }
 4248              		.loc 1 157 0
 4249 039e 4B40     		eors	r3, r1
 4250 03a0 D207     		lsls	r2, r2, #31
 4251 03a2 00D4     		bmi	.L565
 4252 03a4 0B00     		movs	r3, r1
 4253              	.L565:
 4254 03a6 684A     		ldr	r2, .L660+4
 155:modbusRTU.c   ****                         if (flag)
 4255              		.loc 1 155 0
 4256 03a8 5908     		lsrs	r1, r3, #1
 157:modbusRTU.c   ****                 }
 4257              		.loc 1 157 0
 4258 03aa 4A40     		eors	r2, r1
 4259 03ac DB07     		lsls	r3, r3, #31
 4260 03ae 00D4     		bmi	.L567
 4261 03b0 0A00     		movs	r2, r1
 4262              	.L567:
 4263 03b2 654B     		ldr	r3, .L660+4
 155:modbusRTU.c   ****                         if (flag)
 4264              		.loc 1 155 0
 4265 03b4 5108     		lsrs	r1, r2, #1
 157:modbusRTU.c   ****                 }
 4266              		.loc 1 157 0
 4267 03b6 4B40     		eors	r3, r1
 4268 03b8 D207     		lsls	r2, r2, #31
 4269 03ba 00D4     		bmi	.L569
 4270 03bc 0B00     		movs	r3, r1
 4271              	.L569:
 4272 03be 624A     		ldr	r2, .L660+4
 155:modbusRTU.c   ****                         if (flag)
 4273              		.loc 1 155 0
 4274 03c0 5908     		lsrs	r1, r3, #1
 157:modbusRTU.c   ****                 }
 4275              		.loc 1 157 0
 4276 03c2 4A40     		eors	r2, r1
 4277 03c4 DB07     		lsls	r3, r3, #31
 4278 03c6 00D4     		bmi	.L571
 4279 03c8 0A00     		movs	r2, r1
 4280              	.L571:
 4281 03ca 5F4B     		ldr	r3, .L660+4
 155:modbusRTU.c   ****                         if (flag)
 4282              		.loc 1 155 0
 4283 03cc 5108     		lsrs	r1, r2, #1
 157:modbusRTU.c   ****                 }
 4284              		.loc 1 157 0
 4285 03ce 4B40     		eors	r3, r1
 4286 03d0 D207     		lsls	r2, r2, #31
 4287 03d2 00D4     		bmi	.L573
 4288 03d4 0B00     		movs	r3, r1
ARM GAS  C:\Users\AFDHAL~1\AppData\Local\Temp\ccKZJoZj.s 			page 100


 4289              	.L573:
 4290 03d6 5C4A     		ldr	r2, .L660+4
 155:modbusRTU.c   ****                         if (flag)
 4291              		.loc 1 155 0
 4292 03d8 5908     		lsrs	r1, r3, #1
 157:modbusRTU.c   ****                 }
 4293              		.loc 1 157 0
 4294 03da 4A40     		eors	r2, r1
 4295 03dc DB07     		lsls	r3, r3, #31
 4296 03de 00D4     		bmi	.L575
 4297 03e0 0A00     		movs	r2, r1
 4298              	.L575:
 4299              	.LVL250:
 151:modbusRTU.c   **** 
 4300              		.loc 1 151 0
 4301 03e2 6A40     		eors	r2, r5
 4302              	.LVL251:
 157:modbusRTU.c   ****                 }
 4303              		.loc 1 157 0
 4304 03e4 5849     		ldr	r1, .L660+4
 155:modbusRTU.c   ****                         if (flag)
 4305              		.loc 1 155 0
 4306 03e6 5308     		lsrs	r3, r2, #1
 157:modbusRTU.c   ****                 }
 4307              		.loc 1 157 0
 4308 03e8 5940     		eors	r1, r3
 4309 03ea D207     		lsls	r2, r2, #31
 4310 03ec 00D4     		bmi	.L577
 4311 03ee 1900     		movs	r1, r3
 4312              	.L577:
 4313 03f0 554B     		ldr	r3, .L660+4
 155:modbusRTU.c   ****                         if (flag)
 4314              		.loc 1 155 0
 4315 03f2 4A08     		lsrs	r2, r1, #1
 157:modbusRTU.c   ****                 }
 4316              		.loc 1 157 0
 4317 03f4 5340     		eors	r3, r2
 4318 03f6 C907     		lsls	r1, r1, #31
 4319 03f8 00D4     		bmi	.L579
 4320 03fa 1300     		movs	r3, r2
 4321              	.L579:
 4322 03fc 524A     		ldr	r2, .L660+4
 155:modbusRTU.c   ****                         if (flag)
 4323              		.loc 1 155 0
 4324 03fe 5908     		lsrs	r1, r3, #1
 157:modbusRTU.c   ****                 }
 4325              		.loc 1 157 0
 4326 0400 4A40     		eors	r2, r1
 4327 0402 DB07     		lsls	r3, r3, #31
 4328 0404 00D4     		bmi	.L581
 4329 0406 0A00     		movs	r2, r1
 4330              	.L581:
 4331 0408 4F4B     		ldr	r3, .L660+4
 155:modbusRTU.c   ****                         if (flag)
 4332              		.loc 1 155 0
 4333 040a 5108     		lsrs	r1, r2, #1
 157:modbusRTU.c   ****                 }
ARM GAS  C:\Users\AFDHAL~1\AppData\Local\Temp\ccKZJoZj.s 			page 101


 4334              		.loc 1 157 0
 4335 040c 4B40     		eors	r3, r1
 4336 040e D207     		lsls	r2, r2, #31
 4337 0410 00D4     		bmi	.L583
 4338 0412 0B00     		movs	r3, r1
 4339              	.L583:
 4340 0414 4C4A     		ldr	r2, .L660+4
 155:modbusRTU.c   ****                         if (flag)
 4341              		.loc 1 155 0
 4342 0416 5908     		lsrs	r1, r3, #1
 157:modbusRTU.c   ****                 }
 4343              		.loc 1 157 0
 4344 0418 4A40     		eors	r2, r1
 4345 041a DB07     		lsls	r3, r3, #31
 4346 041c 00D4     		bmi	.L585
 4347 041e 0A00     		movs	r2, r1
 4348              	.L585:
 4349 0420 494B     		ldr	r3, .L660+4
 155:modbusRTU.c   ****                         if (flag)
 4350              		.loc 1 155 0
 4351 0422 5108     		lsrs	r1, r2, #1
 157:modbusRTU.c   ****                 }
 4352              		.loc 1 157 0
 4353 0424 4B40     		eors	r3, r1
 4354 0426 D207     		lsls	r2, r2, #31
 4355 0428 00D4     		bmi	.L587
 4356 042a 0B00     		movs	r3, r1
 4357              	.L587:
 4358 042c 464A     		ldr	r2, .L660+4
 155:modbusRTU.c   ****                         if (flag)
 4359              		.loc 1 155 0
 4360 042e 5908     		lsrs	r1, r3, #1
 157:modbusRTU.c   ****                 }
 4361              		.loc 1 157 0
 4362 0430 4A40     		eors	r2, r1
 4363 0432 DB07     		lsls	r3, r3, #31
 4364 0434 00D4     		bmi	.L589
 4365 0436 0A00     		movs	r2, r1
 4366              	.L589:
 4367 0438 434B     		ldr	r3, .L660+4
 155:modbusRTU.c   ****                         if (flag)
 4368              		.loc 1 155 0
 4369 043a 5108     		lsrs	r1, r2, #1
 157:modbusRTU.c   ****                 }
 4370              		.loc 1 157 0
 4371 043c 4B40     		eors	r3, r1
 4372 043e D207     		lsls	r2, r2, #31
 4373 0440 00D4     		bmi	.L591
 4374 0442 0B00     		movs	r3, r1
 4375              	.L591:
 4376              	.LVL252:
 151:modbusRTU.c   **** 
 4377              		.loc 1 151 0
 4378 0444 6340     		eors	r3, r4
 4379              	.LVL253:
 157:modbusRTU.c   ****                 }
 4380              		.loc 1 157 0
ARM GAS  C:\Users\AFDHAL~1\AppData\Local\Temp\ccKZJoZj.s 			page 102


 4381 0446 404A     		ldr	r2, .L660+4
 155:modbusRTU.c   ****                         if (flag)
 4382              		.loc 1 155 0
 4383 0448 5908     		lsrs	r1, r3, #1
 157:modbusRTU.c   ****                 }
 4384              		.loc 1 157 0
 4385 044a 4A40     		eors	r2, r1
 4386 044c DB07     		lsls	r3, r3, #31
 4387 044e 00D4     		bmi	.L593
 4388 0450 0A00     		movs	r2, r1
 4389              	.L593:
 4390 0452 3D4B     		ldr	r3, .L660+4
 155:modbusRTU.c   ****                         if (flag)
 4391              		.loc 1 155 0
 4392 0454 5108     		lsrs	r1, r2, #1
 157:modbusRTU.c   ****                 }
 4393              		.loc 1 157 0
 4394 0456 4B40     		eors	r3, r1
 4395 0458 D207     		lsls	r2, r2, #31
 4396 045a 00D4     		bmi	.L595
 4397 045c 0B00     		movs	r3, r1
 4398              	.L595:
 4399 045e 3A4A     		ldr	r2, .L660+4
 155:modbusRTU.c   ****                         if (flag)
 4400              		.loc 1 155 0
 4401 0460 5908     		lsrs	r1, r3, #1
 157:modbusRTU.c   ****                 }
 4402              		.loc 1 157 0
 4403 0462 4A40     		eors	r2, r1
 4404 0464 DB07     		lsls	r3, r3, #31
 4405 0466 00D4     		bmi	.L597
 4406 0468 0A00     		movs	r2, r1
 4407              	.L597:
 4408 046a 374B     		ldr	r3, .L660+4
 155:modbusRTU.c   ****                         if (flag)
 4409              		.loc 1 155 0
 4410 046c 5108     		lsrs	r1, r2, #1
 157:modbusRTU.c   ****                 }
 4411              		.loc 1 157 0
 4412 046e 4B40     		eors	r3, r1
 4413 0470 D207     		lsls	r2, r2, #31
 4414 0472 00D4     		bmi	.L599
 4415 0474 0B00     		movs	r3, r1
 4416              	.L599:
 4417 0476 344A     		ldr	r2, .L660+4
 155:modbusRTU.c   ****                         if (flag)
 4418              		.loc 1 155 0
 4419 0478 5908     		lsrs	r1, r3, #1
 157:modbusRTU.c   ****                 }
 4420              		.loc 1 157 0
 4421 047a 4A40     		eors	r2, r1
 4422 047c DB07     		lsls	r3, r3, #31
 4423 047e 00D4     		bmi	.L601
 4424 0480 0A00     		movs	r2, r1
 4425              	.L601:
 4426 0482 314B     		ldr	r3, .L660+4
 155:modbusRTU.c   ****                         if (flag)
ARM GAS  C:\Users\AFDHAL~1\AppData\Local\Temp\ccKZJoZj.s 			page 103


 4427              		.loc 1 155 0
 4428 0484 5108     		lsrs	r1, r2, #1
 157:modbusRTU.c   ****                 }
 4429              		.loc 1 157 0
 4430 0486 4B40     		eors	r3, r1
 4431 0488 D207     		lsls	r2, r2, #31
 4432 048a 00D4     		bmi	.L603
 4433 048c 0B00     		movs	r3, r1
 4434              	.L603:
 4435 048e 2E4A     		ldr	r2, .L660+4
 155:modbusRTU.c   ****                         if (flag)
 4436              		.loc 1 155 0
 4437 0490 5908     		lsrs	r1, r3, #1
 157:modbusRTU.c   ****                 }
 4438              		.loc 1 157 0
 4439 0492 4A40     		eors	r2, r1
 4440 0494 DB07     		lsls	r3, r3, #31
 4441 0496 00D4     		bmi	.L605
 4442 0498 0A00     		movs	r2, r1
 4443              	.L605:
 4444 049a 2B4B     		ldr	r3, .L660+4
 155:modbusRTU.c   ****                         if (flag)
 4445              		.loc 1 155 0
 4446 049c 5108     		lsrs	r1, r2, #1
 157:modbusRTU.c   ****                 }
 4447              		.loc 1 157 0
 4448 049e 4B40     		eors	r3, r1
 4449 04a0 D207     		lsls	r2, r2, #31
 4450 04a2 00D4     		bmi	.L607
 4451 04a4 0B00     		movs	r3, r1
 4452              	.L607:
 4453              	.LVL254:
 4454              	.LBE219:
 4455              	.LBE221:
 249:modbusRTU.c   **** } 
 4456              		.loc 1 249 0
 4457 04a6 0024     		movs	r4, #0
 4458              	.LBB222:
 4459              	.LBB220:
 162:modbusRTU.c   ****         temp = (temp << 8) | temp2;
 4460              		.loc 1 162 0
 4461 04a8 1A0A     		lsrs	r2, r3, #8
 4462              	.LVL255:
 163:modbusRTU.c   ****         temp &= 0xFFFF;
 4463              		.loc 1 163 0
 4464 04aa 1B02     		lsls	r3, r3, #8
 4465              	.LVL256:
 4466 04ac 1343     		orrs	r3, r2
 4467              	.LVL257:
 164:modbusRTU.c   **** 
 4468              		.loc 1 164 0
 4469 04ae 1B04     		lsls	r3, r3, #16
 4470              	.LVL258:
 4471 04b0 1B0C     		lsrs	r3, r3, #16
 4472              	.LVL259:
 4473              	.LBE220:
 4474              	.LBE222:
ARM GAS  C:\Users\AFDHAL~1\AppData\Local\Temp\ccKZJoZj.s 			page 104


 247:modbusRTU.c   ****         string_length++;
 4475              		.loc 1 247 0
 4476 04b2 1A12     		asrs	r2, r3, #8
 4477 04b4 BA71     		strb	r2, [r7, #6]
 4478              	.LVL260:
 249:modbusRTU.c   **** } 
 4479              		.loc 1 249 0
 4480 04b6 FB71     		strb	r3, [r7, #7]
 4481              	.LVL261:
 4482              	.L608:
 4483              	.LBE223:
 4484              	.LBE224:
 272:modbusRTU.c   ****         }
 4485              		.loc 1 272 0
 4486 04b8 385D     		ldrb	r0, [r7, r4]
 4487 04ba 0134     		adds	r4, r4, #1
 4488              	.LVL262:
 4489 04bc FFF7FEFF 		bl	USB_UART_SpiUartWriteTxData
 4490              	.LVL263:
 270:modbusRTU.c   ****                 //Serial.print(char(query[i]));
 4491              		.loc 1 270 0
 4492 04c0 082C     		cmp	r4, #8
 4493 04c2 F9D1     		bne	.L608
 4494              	.LVL264:
 4495              	.L653:
 4496              	.LBE225:
 4497              	.LBE227:
 4498              	.LBE228:
 4499              	.LBE229:
 630:modbusRTU.c   **** }
 4500              		.loc 1 630 0
 4501 04c4 0024     		movs	r4, #0
 4502 04c6 B6E5     		b	.L621
 4503              	.LVL265:
 4504              	.L452:
 4505              	.LBB230:
 4506              	.LBB167:
 397:modbusRTU.c   **** 
 4507              		.loc 1 397 0
 4508 04c8 6A46     		mov	r2, sp
 4509 04ca 517B     		ldrb	r1, [r2, #13]
 4510 04cc 147B     		ldrb	r4, [r2, #12]
 401:modbusRTU.c   ****         else if (FC_WRITE_REGS == data[FUNC])
 4511              		.loc 1 401 0
 4512 04ce 7D22     		movs	r2, #125
 397:modbusRTU.c   **** 
 4513              		.loc 1 397 0
 4514 04d0 2402     		lsls	r4, r4, #8
 4515 04d2 6418     		adds	r4, r4, r1
 4516              	.LVL266:
 4517              	.L609:
 405:modbusRTU.c   ****                 return EXC_REGS_QUANT;
 4518              		.loc 1 405 0
 4519 04d4 002C     		cmp	r4, #0
 4520 04d6 02D1     		bne	.L657
 4521              	.L614:
 4522 04d8 0322     		movs	r2, #3
ARM GAS  C:\Users\AFDHAL~1\AppData\Local\Temp\ccKZJoZj.s 			page 105


 4523              	.LVL267:
 406:modbusRTU.c   **** 
 4524              		.loc 1 406 0
 4525 04da 0324     		movs	r4, #3
 4526              	.LVL268:
 4527 04dc CAE5     		b	.L455
 4528              	.LVL269:
 4529              	.L657:
 405:modbusRTU.c   ****                 return EXC_REGS_QUANT;
 4530              		.loc 1 405 0
 4531 04de 9442     		cmp	r4, r2
 4532 04e0 FAD8     		bhi	.L614
 409:modbusRTU.c   ****         if ((start_addr + regs_num) > regs_size)
 4533              		.loc 1 409 0
 4534 04e2 6A46     		mov	r2, sp
 4535              	.LVL270:
 4536 04e4 907A     		ldrb	r0, [r2, #10]
 4537              	.LVL271:
 4538 04e6 0202     		lsls	r2, r0, #8
 4539 04e8 6846     		mov	r0, sp
 4540 04ea C07A     		ldrb	r0, [r0, #11]
 4541 04ec 1018     		adds	r0, r2, r0
 410:modbusRTU.c   ****                 return EXC_ADDR_RANGE;
 4542              		.loc 1 410 0
 4543 04ee 2418     		adds	r4, r4, r0
 4544              	.LVL272:
 409:modbusRTU.c   ****         if ((start_addr + regs_num) > regs_size)
 4545              		.loc 1 409 0
 4546 04f0 0200     		movs	r2, r0
 4547              	.LVL273:
 410:modbusRTU.c   ****                 return EXC_ADDR_RANGE;
 4548              		.loc 1 410 0
 4549 04f2 A742     		cmp	r7, r4
 4550 04f4 00D2     		bcs	.LCB4596
 4551 04f6 79E6     		b	.L615	@long jump
 4552              	.LCB4596:
 4553              	.LVL274:
 4554              	.LBE167:
 4555              	.LBE230:
 593:modbusRTU.c   ****                 case FC_READ_REGS:
 4556              		.loc 1 593 0
 4557 04f8 062B     		cmp	r3, #6
 4558 04fa 00D1     		bne	.LCB4608
 4559 04fc 86E6     		b	.L457	@long jump
 4560              	.LCB4608:
 4561 04fe 102B     		cmp	r3, #16
 4562 0500 06D0     		beq	.L508
 4563 0502 032B     		cmp	r3, #3
 4564 0504 DED1     		bne	.L653
 595:modbusRTU.c   ****                         start_addr,
 4565              		.loc 1 595 0
 4566 0506 3200     		movs	r2, r6
 4567 0508 FFF7FEFF 		bl	read_holding_registers
 4568              	.LVL275:
 4569 050c 0400     		movs	r4, r0
 4570 050e 92E5     		b	.L621
 4571              	.LVL276:
ARM GAS  C:\Users\AFDHAL~1\AppData\Local\Temp\ccKZJoZj.s 			page 106


 4572              	.L508:
 4573              	.LBB231:
 602:modbusRTU.c   ****                     
 4574              		.loc 1 602 0
 4575 0510 0123     		movs	r3, #1
 4576 0512 4246     		mov	r2, r8
 4577 0514 1371     		strb	r3, [r2, #4]
 4578              	.LVL277:
 605:modbusRTU.c   ****                     {
 4579              		.loc 1 605 0
 4580 0516 0029     		cmp	r1, #0
 4581 0518 0ED0     		beq	.L510
 4582 051a 0300     		movs	r3, r0
 607:modbusRTU.c   ****                     }
 4583              		.loc 1 607 0
 4584 051c 0127     		movs	r7, #1
 4585              	.LVL278:
 4586 051e 4D1E     		subs	r5, r1, #1
 4587 0520 EDB2     		uxtb	r5, r5
 4588 0522 0135     		adds	r5, r5, #1
 4589 0524 9268     		ldr	r2, [r2, #8]
 4590 0526 2D18     		adds	r5, r5, r0
 4591              	.LVL279:
 4592              	.L511:
 607:modbusRTU.c   ****                     }
 4593              		.loc 1 607 0 is_stmt 0 discriminator 3
 4594 0528 3C00     		movs	r4, r7
 4595 052a 9C40     		lsls	r4, r4, r3
 4596 052c 0133     		adds	r3, r3, #1
 4597              	.LVL280:
 4598 052e 2243     		orrs	r2, r4
 605:modbusRTU.c   ****                     {
 4599              		.loc 1 605 0 is_stmt 1 discriminator 3
 4600 0530 9D42     		cmp	r5, r3
 4601 0532 F9D1     		bne	.L511
 4602 0534 4346     		mov	r3, r8
 4603 0536 9A60     		str	r2, [r3, #8]
 4604              	.L510:
 610:modbusRTU.c   ****                     start_addr,
 4605              		.loc 1 610 0
 4606 0538 3300     		movs	r3, r6
 4607 053a 02AA     		add	r2, sp, #8
 4608 053c FFF7FEFF 		bl	preset_multiple_registers
 4609              	.LVL281:
 4610 0540 0400     		movs	r4, r0
 4611 0542 78E5     		b	.L621
 4612              	.L661:
 4613              		.align	2
 4614              	.L660:
 4615 0544 FFFF0000 		.word	65535
 4616 0548 01A00000 		.word	40961
 4617              	.LVL282:
 4618              	.L454:
 4619              	.LBE231:
 4620              	.LBB232:
 4621              	.LBB168:
 397:modbusRTU.c   **** 
ARM GAS  C:\Users\AFDHAL~1\AppData\Local\Temp\ccKZJoZj.s 			page 107


 4622              		.loc 1 397 0
 4623 054c 6A46     		mov	r2, sp
 4624 054e 147B     		ldrb	r4, [r2, #12]
 4625 0550 517B     		ldrb	r1, [r2, #13]
 4626 0552 2402     		lsls	r4, r4, #8
 4627 0554 6418     		adds	r4, r4, r1
 4628              	.LVL283:
 403:modbusRTU.c   **** 
 4629              		.loc 1 403 0
 4630 0556 7B22     		movs	r2, #123
 4631 0558 BCE7     		b	.L609
 4632              	.LBE168:
 4633              	.LBE232:
 4634              		.cfi_endproc
 4635              	.LFE48:
 4636              		.size	modbusRTU_Update, .-modbusRTU_Update
 4637              		.global	T35
 4638              		.comm	lastBytesReceived,4,4
 4639              		.global	Nowdt
 4640              		.global	fsupported
 4641              		.comm	slave,1,1
 4642              		.global	modbusRTU_written_register_flags
 4643              		.global	modbusRTU_Written
 4644 055a C046     		.section	.rodata
 4645              		.align	2
 4646              		.type	T35, %object
 4647              		.size	T35, 4
 4648              	T35:
 4649 0000 05000000 		.word	5
 4650              		.type	fsupported, %object
 4651              		.size	fsupported, 3
 4652              	fsupported:
 4653 0004 03       		.byte	3
 4654 0005 06       		.byte	6
 4655 0006 10       		.byte	16
 4656              		.bss
 4657              		.align	2
 4658              		.set	.LANCHOR0,. + 0
 4659              		.type	Nowdt, %object
 4660              		.size	Nowdt, 4
 4661              	Nowdt:
 4662 0000 00000000 		.space	4
 4663              		.type	modbusRTU_Written, %object
 4664              		.size	modbusRTU_Written, 1
 4665              	modbusRTU_Written:
 4666 0004 00       		.space	1
 4667 0005 000000   		.space	3
 4668              		.type	modbusRTU_written_register_flags, %object
 4669              		.size	modbusRTU_written_register_flags, 4
 4670              	modbusRTU_written_register_flags:
 4671 0008 00000000 		.space	4
 4672              		.text
 4673              	.Letext0:
 4674              		.file 2 "Generated_Source\\PSoC4/nRF24_REGS.h"
 4675              		.file 3 "millis.h"
 4676              		.file 4 "Generated_Source\\PSoC4/USB_UART_SPI_UART.h"
 4677              		.section	.debug_info,"",%progbits
ARM GAS  C:\Users\AFDHAL~1\AppData\Local\Temp\ccKZJoZj.s 			page 108


 4678              	.Ldebug_info0:
 4679 0000 88120000 		.4byte	0x1288
 4680 0004 0400     		.2byte	0x4
 4681 0006 00000000 		.4byte	.Ldebug_abbrev0
 4682 000a 04       		.byte	0x4
 4683 000b 01       		.uleb128 0x1
 4684 000c 94010000 		.4byte	.LASF117
 4685 0010 0C       		.byte	0xc
 4686 0011 D6000000 		.4byte	.LASF118
 4687 0015 96020000 		.4byte	.LASF119
 4688 0019 F8020000 		.4byte	.Ldebug_ranges0+0x2f8
 4689 001d 00000000 		.4byte	0
 4690 0021 00000000 		.4byte	.Ldebug_line0
 4691 0025 02       		.uleb128 0x2
 4692 0026 01       		.byte	0x1
 4693 0027 06       		.byte	0x6
 4694 0028 A0060000 		.4byte	.LASF0
 4695 002c 02       		.uleb128 0x2
 4696 002d 01       		.byte	0x1
 4697 002e 08       		.byte	0x8
 4698 002f 33060000 		.4byte	.LASF1
 4699 0033 02       		.uleb128 0x2
 4700 0034 02       		.byte	0x2
 4701 0035 05       		.byte	0x5
 4702 0036 46050000 		.4byte	.LASF2
 4703 003a 02       		.uleb128 0x2
 4704 003b 02       		.byte	0x2
 4705 003c 07       		.byte	0x7
 4706 003d AC060000 		.4byte	.LASF3
 4707 0041 02       		.uleb128 0x2
 4708 0042 04       		.byte	0x4
 4709 0043 05       		.byte	0x5
 4710 0044 70050000 		.4byte	.LASF4
 4711 0048 02       		.uleb128 0x2
 4712 0049 04       		.byte	0x4
 4713 004a 07       		.byte	0x7
 4714 004b E6050000 		.4byte	.LASF5
 4715 004f 02       		.uleb128 0x2
 4716 0050 08       		.byte	0x8
 4717 0051 05       		.byte	0x5
 4718 0052 67040000 		.4byte	.LASF6
 4719 0056 02       		.uleb128 0x2
 4720 0057 08       		.byte	0x8
 4721 0058 07       		.byte	0x7
 4722 0059 61020000 		.4byte	.LASF7
 4723 005d 03       		.uleb128 0x3
 4724 005e 04       		.byte	0x4
 4725 005f 05       		.byte	0x5
 4726 0060 696E7400 		.ascii	"int\000"
 4727 0064 02       		.uleb128 0x2
 4728 0065 04       		.byte	0x4
 4729 0066 07       		.byte	0x7
 4730 0067 7F000000 		.4byte	.LASF8
 4731 006b 02       		.uleb128 0x2
 4732 006c 04       		.byte	0x4
 4733 006d 04       		.byte	0x4
 4734 006e 6B010000 		.4byte	.LASF9
ARM GAS  C:\Users\AFDHAL~1\AppData\Local\Temp\ccKZJoZj.s 			page 109


 4735 0072 02       		.uleb128 0x2
 4736 0073 08       		.byte	0x8
 4737 0074 04       		.byte	0x4
 4738 0075 D7060000 		.4byte	.LASF10
 4739 0079 02       		.uleb128 0x2
 4740 007a 01       		.byte	0x1
 4741 007b 08       		.byte	0x8
 4742 007c BB030000 		.4byte	.LASF11
 4743 0080 02       		.uleb128 0x2
 4744 0081 08       		.byte	0x8
 4745 0082 04       		.byte	0x4
 4746 0083 10050000 		.4byte	.LASF12
 4747 0087 02       		.uleb128 0x2
 4748 0088 04       		.byte	0x4
 4749 0089 07       		.byte	0x7
 4750 008a CF050000 		.4byte	.LASF13
 4751 008e 04       		.uleb128 0x4
 4752 008f 04       		.byte	0x4
 4753 0090 2C000000 		.4byte	0x2c
 4754 0094 05       		.uleb128 0x5
 4755 0095 01       		.byte	0x1
 4756 0096 2C000000 		.4byte	0x2c
 4757 009a 02       		.byte	0x2
 4758 009b 1F       		.byte	0x1f
 4759 009c 3D010000 		.4byte	0x13d
 4760 00a0 06       		.uleb128 0x6
 4761 00a1 FB060000 		.4byte	.LASF14
 4762 00a5 00       		.byte	0
 4763 00a6 06       		.uleb128 0x6
 4764 00a7 D8050000 		.4byte	.LASF15
 4765 00ab 01       		.byte	0x1
 4766 00ac 06       		.uleb128 0x6
 4767 00ad 5E050000 		.4byte	.LASF16
 4768 00b1 02       		.byte	0x2
 4769 00b2 06       		.uleb128 0x6
 4770 00b3 AF050000 		.4byte	.LASF17
 4771 00b7 03       		.byte	0x3
 4772 00b8 06       		.uleb128 0x6
 4773 00b9 AD000000 		.4byte	.LASF18
 4774 00bd 04       		.byte	0x4
 4775 00be 06       		.uleb128 0x6
 4776 00bf 46040000 		.4byte	.LASF19
 4777 00c3 05       		.byte	0x5
 4778 00c4 06       		.uleb128 0x6
 4779 00c5 25050000 		.4byte	.LASF20
 4780 00c9 06       		.byte	0x6
 4781 00ca 06       		.uleb128 0x6
 4782 00cb 28030000 		.4byte	.LASF21
 4783 00cf 07       		.byte	0x7
 4784 00d0 06       		.uleb128 0x6
 4785 00d1 90050000 		.4byte	.LASF22
 4786 00d5 08       		.byte	0x8
 4787 00d6 06       		.uleb128 0x6
 4788 00d7 A3050000 		.4byte	.LASF23
 4789 00db 09       		.byte	0x9
 4790 00dc 06       		.uleb128 0x6
 4791 00dd 1A010000 		.4byte	.LASF24
ARM GAS  C:\Users\AFDHAL~1\AppData\Local\Temp\ccKZJoZj.s 			page 110


 4792 00e1 0A       		.byte	0xa
 4793 00e2 06       		.uleb128 0x6
 4794 00e3 41060000 		.4byte	.LASF25
 4795 00e7 0B       		.byte	0xb
 4796 00e8 06       		.uleb128 0x6
 4797 00e9 54040000 		.4byte	.LASF26
 4798 00ed 0C       		.byte	0xc
 4799 00ee 06       		.uleb128 0x6
 4800 00ef 9A000000 		.4byte	.LASF27
 4801 00f3 0D       		.byte	0xd
 4802 00f4 06       		.uleb128 0x6
 4803 00f5 66030000 		.4byte	.LASF28
 4804 00f9 0E       		.byte	0xe
 4805 00fa 06       		.uleb128 0x6
 4806 00fb EE030000 		.4byte	.LASF29
 4807 00ff 0F       		.byte	0xf
 4808 0100 06       		.uleb128 0x6
 4809 0101 75040000 		.4byte	.LASF30
 4810 0105 10       		.byte	0x10
 4811 0106 06       		.uleb128 0x6
 4812 0107 B1040000 		.4byte	.LASF31
 4813 010b 11       		.byte	0x11
 4814 010c 06       		.uleb128 0x6
 4815 010d 5A010000 		.4byte	.LASF32
 4816 0111 12       		.byte	0x12
 4817 0112 06       		.uleb128 0x6
 4818 0113 6E060000 		.4byte	.LASF33
 4819 0117 13       		.byte	0x13
 4820 0118 06       		.uleb128 0x6
 4821 0119 85040000 		.4byte	.LASF34
 4822 011d 14       		.byte	0x14
 4823 011e 06       		.uleb128 0x6
 4824 011f C0000000 		.4byte	.LASF35
 4825 0123 15       		.byte	0x15
 4826 0124 06       		.uleb128 0x6
 4827 0125 18060000 		.4byte	.LASF36
 4828 0129 16       		.byte	0x16
 4829 012a 06       		.uleb128 0x6
 4830 012b 1B000000 		.4byte	.LASF37
 4831 012f 17       		.byte	0x17
 4832 0130 06       		.uleb128 0x6
 4833 0131 E2000000 		.4byte	.LASF38
 4834 0135 1C       		.byte	0x1c
 4835 0136 06       		.uleb128 0x6
 4836 0137 4A010000 		.4byte	.LASF39
 4837 013b 1D       		.byte	0x1d
 4838 013c 00       		.byte	0
 4839 013d 05       		.uleb128 0x5
 4840 013e 02       		.byte	0x2
 4841 013f 3A000000 		.4byte	0x3a
 4842 0143 01       		.byte	0x1
 4843 0144 53       		.byte	0x53
 4844 0145 5D010000 		.4byte	0x15d
 4845 0149 06       		.uleb128 0x6
 4846 014a 7F060000 		.4byte	.LASF40
 4847 014e 7D       		.byte	0x7d
 4848 014f 06       		.uleb128 0x6
ARM GAS  C:\Users\AFDHAL~1\AppData\Local\Temp\ccKZJoZj.s 			page 111


 4849 0150 F0000000 		.4byte	.LASF41
 4850 0154 7B       		.byte	0x7b
 4851 0155 07       		.uleb128 0x7
 4852 0156 92030000 		.4byte	.LASF42
 4853 015a 0001     		.2byte	0x100
 4854 015c 00       		.byte	0
 4855 015d 05       		.uleb128 0x5
 4856 015e 01       		.byte	0x1
 4857 015f 2C000000 		.4byte	0x2c
 4858 0163 01       		.byte	0x1
 4859 0164 5A       		.byte	0x5a
 4860 0165 7C010000 		.4byte	0x17c
 4861 0169 06       		.uleb128 0x6
 4862 016a A3040000 		.4byte	.LASF43
 4863 016e 06       		.byte	0x6
 4864 016f 06       		.uleb128 0x6
 4865 0170 C0050000 		.4byte	.LASF44
 4866 0174 03       		.byte	0x3
 4867 0175 06       		.uleb128 0x6
 4868 0176 3C010000 		.4byte	.LASF45
 4869 017a 02       		.byte	0x2
 4870 017b 00       		.byte	0
 4871 017c 05       		.uleb128 0x5
 4872 017d 01       		.byte	0x1
 4873 017e 25000000 		.4byte	0x25
 4874 0182 01       		.byte	0x1
 4875 0183 61       		.byte	0x61
 4876 0184 A7010000 		.4byte	0x1a7
 4877 0188 08       		.uleb128 0x8
 4878 0189 11040000 		.4byte	.LASF46
 4879 018d 7F       		.sleb128 -1
 4880 018e 06       		.uleb128 0x6
 4881 018f F8050000 		.4byte	.LASF47
 4882 0193 01       		.byte	0x1
 4883 0194 06       		.uleb128 0x6
 4884 0195 FF000000 		.4byte	.LASF48
 4885 0199 02       		.byte	0x2
 4886 019a 06       		.uleb128 0x6
 4887 019b 3D030000 		.4byte	.LASF49
 4888 019f 03       		.byte	0x3
 4889 01a0 06       		.uleb128 0x6
 4890 01a1 0E010000 		.4byte	.LASF50
 4891 01a5 04       		.byte	0x4
 4892 01a6 00       		.byte	0
 4893 01a7 05       		.uleb128 0x5
 4894 01a8 01       		.byte	0x1
 4895 01a9 2C000000 		.4byte	0x2c
 4896 01ad 01       		.byte	0x1
 4897 01ae 6A       		.byte	0x6a
 4898 01af DE010000 		.4byte	0x1de
 4899 01b3 06       		.uleb128 0x6
 4900 01b4 8C030000 		.4byte	.LASF51
 4901 01b8 00       		.byte	0
 4902 01b9 06       		.uleb128 0x6
 4903 01ba 5D060000 		.4byte	.LASF52
 4904 01be 01       		.byte	0x1
 4905 01bf 06       		.uleb128 0x6
ARM GAS  C:\Users\AFDHAL~1\AppData\Local\Temp\ccKZJoZj.s 			page 112


 4906 01c0 F3060000 		.4byte	.LASF53
 4907 01c4 02       		.byte	0x2
 4908 01c5 06       		.uleb128 0x6
 4909 01c6 0A070000 		.4byte	.LASF54
 4910 01ca 03       		.byte	0x3
 4911 01cb 06       		.uleb128 0x6
 4912 01cc 78020000 		.4byte	.LASF55
 4913 01d0 04       		.byte	0x4
 4914 01d1 06       		.uleb128 0x6
 4915 01d2 7F020000 		.4byte	.LASF56
 4916 01d6 05       		.byte	0x5
 4917 01d7 06       		.uleb128 0x6
 4918 01d8 DF040000 		.4byte	.LASF57
 4919 01dc 06       		.byte	0x6
 4920 01dd 00       		.byte	0
 4921 01de 05       		.uleb128 0x5
 4922 01df 01       		.byte	0x1
 4923 01e0 2C000000 		.4byte	0x2c
 4924 01e4 01       		.byte	0x1
 4925 01e5 76       		.byte	0x76
 4926 01e6 FD010000 		.4byte	0x1fd
 4927 01ea 06       		.uleb128 0x6
 4928 01eb 67000000 		.4byte	.LASF58
 4929 01ef 03       		.byte	0x3
 4930 01f0 06       		.uleb128 0x6
 4931 01f1 BF060000 		.4byte	.LASF59
 4932 01f5 06       		.byte	0x6
 4933 01f6 06       		.uleb128 0x6
 4934 01f7 50050000 		.4byte	.LASF60
 4935 01fb 10       		.byte	0x10
 4936 01fc 00       		.byte	0
 4937 01fd 09       		.uleb128 0x9
 4938 01fe 63726300 		.ascii	"crc\000"
 4939 0202 01       		.byte	0x1
 4940 0203 8E       		.byte	0x8e
 4941 0204 64000000 		.4byte	0x64
 4942 0208 01       		.byte	0x1
 4943 0209 62020000 		.4byte	0x262
 4944 020d 0A       		.uleb128 0xa
 4945 020e 62756600 		.ascii	"buf\000"
 4946 0212 01       		.byte	0x1
 4947 0213 8E       		.byte	0x8e
 4948 0214 8E000000 		.4byte	0x8e
 4949 0218 0B       		.uleb128 0xb
 4950 0219 D9040000 		.4byte	.LASF61
 4951 021d 01       		.byte	0x1
 4952 021e 8E       		.byte	0x8e
 4953 021f 2C000000 		.4byte	0x2c
 4954 0223 0A       		.uleb128 0xa
 4955 0224 636E7400 		.ascii	"cnt\000"
 4956 0228 01       		.byte	0x1
 4957 0229 8F       		.byte	0x8f
 4958 022a 2C000000 		.4byte	0x2c
 4959 022e 0C       		.uleb128 0xc
 4960 022f 6900     		.ascii	"i\000"
 4961 0231 01       		.byte	0x1
 4962 0232 91       		.byte	0x91
ARM GAS  C:\Users\AFDHAL~1\AppData\Local\Temp\ccKZJoZj.s 			page 113


 4963 0233 2C000000 		.4byte	0x2c
 4964 0237 0C       		.uleb128 0xc
 4965 0238 6A00     		.ascii	"j\000"
 4966 023a 01       		.byte	0x1
 4967 023b 91       		.byte	0x91
 4968 023c 2C000000 		.4byte	0x2c
 4969 0240 0D       		.uleb128 0xd
 4970 0241 86050000 		.4byte	.LASF62
 4971 0245 01       		.byte	0x1
 4972 0246 92       		.byte	0x92
 4973 0247 64000000 		.4byte	0x64
 4974 024b 0D       		.uleb128 0xd
 4975 024c 37030000 		.4byte	.LASF63
 4976 0250 01       		.byte	0x1
 4977 0251 92       		.byte	0x92
 4978 0252 64000000 		.4byte	0x64
 4979 0256 0D       		.uleb128 0xd
 4980 0257 8B050000 		.4byte	.LASF64
 4981 025b 01       		.byte	0x1
 4982 025c 92       		.byte	0x92
 4983 025d 64000000 		.4byte	0x64
 4984 0261 00       		.byte	0
 4985 0262 0E       		.uleb128 0xe
 4986 0263 50020000 		.4byte	.LASF65
 4987 0267 01       		.byte	0x1
 4988 0268 7201     		.2byte	0x172
 4989 026a 5D000000 		.4byte	0x5d
 4990 026e 01       		.byte	0x1
 4991 026f D2020000 		.4byte	0x2d2
 4992 0273 0F       		.uleb128 0xf
 4993 0274 01040000 		.4byte	.LASF66
 4994 0278 01       		.byte	0x1
 4995 0279 7201     		.2byte	0x172
 4996 027b 8E000000 		.4byte	0x8e
 4997 027f 0F       		.uleb128 0xf
 4998 0280 7F050000 		.4byte	.LASF67
 4999 0284 01       		.byte	0x1
 5000 0285 7201     		.2byte	0x172
 5001 0287 2C000000 		.4byte	0x2c
 5002 028b 0F       		.uleb128 0xf
 5003 028c 21040000 		.4byte	.LASF68
 5004 0290 01       		.byte	0x1
 5005 0291 7301     		.2byte	0x173
 5006 0293 64000000 		.4byte	0x64
 5007 0297 10       		.uleb128 0x10
 5008 0298 6900     		.ascii	"i\000"
 5009 029a 01       		.byte	0x1
 5010 029b 7501     		.2byte	0x175
 5011 029d 5D000000 		.4byte	0x5d
 5012 02a1 11       		.uleb128 0x11
 5013 02a2 2F000000 		.4byte	.LASF69
 5014 02a6 01       		.byte	0x1
 5015 02a7 7501     		.2byte	0x175
 5016 02a9 5D000000 		.4byte	0x5d
 5017 02ad 11       		.uleb128 0x11
 5018 02ae 1C050000 		.4byte	.LASF70
 5019 02b2 01       		.byte	0x1
ARM GAS  C:\Users\AFDHAL~1\AppData\Local\Temp\ccKZJoZj.s 			page 114


 5020 02b3 7601     		.2byte	0x176
 5021 02b5 64000000 		.4byte	0x64
 5022 02b9 11       		.uleb128 0x11
 5023 02ba 74000000 		.4byte	.LASF71
 5024 02be 01       		.byte	0x1
 5025 02bf 7701     		.2byte	0x177
 5026 02c1 64000000 		.4byte	0x64
 5027 02c5 11       		.uleb128 0x11
 5028 02c6 96040000 		.4byte	.LASF72
 5029 02ca 01       		.byte	0x1
 5030 02cb 7801     		.2byte	0x178
 5031 02cd 2C000000 		.4byte	0x2c
 5032 02d1 00       		.byte	0
 5033 02d2 0E       		.uleb128 0xe
 5034 02d3 06040000 		.4byte	.LASF73
 5035 02d7 01       		.byte	0x1
 5036 02d8 AC01     		.2byte	0x1ac
 5037 02da 5D000000 		.4byte	0x5d
 5038 02de 01       		.byte	0x1
 5039 02df 1E030000 		.4byte	0x31e
 5040 02e3 0F       		.uleb128 0xf
 5041 02e4 74000000 		.4byte	.LASF71
 5042 02e8 01       		.byte	0x1
 5043 02e9 AC01     		.2byte	0x1ac
 5044 02eb 64000000 		.4byte	0x64
 5045 02ef 0F       		.uleb128 0xf
 5046 02f0 01050000 		.4byte	.LASF74
 5047 02f4 01       		.byte	0x1
 5048 02f5 AC01     		.2byte	0x1ac
 5049 02f7 8E000000 		.4byte	0x8e
 5050 02fb 0F       		.uleb128 0xf
 5051 02fc D1000000 		.4byte	.LASF75
 5052 0300 01       		.byte	0x1
 5053 0301 AC01     		.2byte	0x1ac
 5054 0303 1E030000 		.4byte	0x31e
 5055 0307 11       		.uleb128 0x11
 5056 0308 86050000 		.4byte	.LASF62
 5057 030c 01       		.byte	0x1
 5058 030d AE01     		.2byte	0x1ae
 5059 030f 5D000000 		.4byte	0x5d
 5060 0313 10       		.uleb128 0x10
 5061 0314 6900     		.ascii	"i\000"
 5062 0316 01       		.byte	0x1
 5063 0317 AF01     		.2byte	0x1af
 5064 0319 64000000 		.4byte	0x64
 5065 031d 00       		.byte	0
 5066 031e 04       		.uleb128 0x4
 5067 031f 04       		.byte	0x4
 5068 0320 5D000000 		.4byte	0x5d
 5069 0324 12       		.uleb128 0x12
 5070 0325 8D060000 		.4byte	.LASF79
 5071 0329 01       		.byte	0x1
 5072 032a C1       		.byte	0xc1
 5073 032b 01       		.byte	0x1
 5074 032c 5D030000 		.4byte	0x35d
 5075 0330 0B       		.uleb128 0xb
 5076 0331 54060000 		.4byte	.LASF76
ARM GAS  C:\Users\AFDHAL~1\AppData\Local\Temp\ccKZJoZj.s 			page 115


 5077 0335 01       		.byte	0x1
 5078 0336 C1       		.byte	0xc1
 5079 0337 2C000000 		.4byte	0x2c
 5080 033b 0B       		.uleb128 0xb
 5081 033c 74000000 		.4byte	.LASF71
 5082 0340 01       		.byte	0x1
 5083 0341 C2       		.byte	0xc2
 5084 0342 64000000 		.4byte	0x64
 5085 0346 0B       		.uleb128 0xb
 5086 0347 22020000 		.4byte	.LASF77
 5087 034b 01       		.byte	0x1
 5088 034c C3       		.byte	0xc3
 5089 034d 2C000000 		.4byte	0x2c
 5090 0351 0B       		.uleb128 0xb
 5091 0352 06060000 		.4byte	.LASF78
 5092 0356 01       		.byte	0x1
 5093 0357 C4       		.byte	0xc4
 5094 0358 8E000000 		.4byte	0x8e
 5095 035c 00       		.byte	0
 5096 035d 12       		.uleb128 0x12
 5097 035e 04030000 		.4byte	.LASF80
 5098 0362 01       		.byte	0x1
 5099 0363 D1       		.byte	0xd1
 5100 0364 01       		.byte	0x1
 5101 0365 96030000 		.4byte	0x396
 5102 0369 0B       		.uleb128 0xb
 5103 036a 54060000 		.4byte	.LASF76
 5104 036e 01       		.byte	0x1
 5105 036f D1       		.byte	0xd1
 5106 0370 2C000000 		.4byte	0x2c
 5107 0374 0B       		.uleb128 0xb
 5108 0375 79030000 		.4byte	.LASF81
 5109 0379 01       		.byte	0x1
 5110 037a D2       		.byte	0xd2
 5111 037b 64000000 		.4byte	0x64
 5112 037f 0B       		.uleb128 0xb
 5113 0380 84030000 		.4byte	.LASF82
 5114 0384 01       		.byte	0x1
 5115 0385 D2       		.byte	0xd2
 5116 0386 64000000 		.4byte	0x64
 5117 038a 0B       		.uleb128 0xb
 5118 038b 06060000 		.4byte	.LASF78
 5119 038f 01       		.byte	0x1
 5120 0390 D2       		.byte	0xd2
 5121 0391 8E000000 		.4byte	0x8e
 5122 0395 00       		.byte	0
 5123 0396 12       		.uleb128 0x12
 5124 0397 34040000 		.4byte	.LASF83
 5125 039b 01       		.byte	0x1
 5126 039c B6       		.byte	0xb6
 5127 039d 01       		.byte	0x1
 5128 039e C4030000 		.4byte	0x3c4
 5129 03a2 0B       		.uleb128 0xb
 5130 03a3 54060000 		.4byte	.LASF76
 5131 03a7 01       		.byte	0x1
 5132 03a8 B6       		.byte	0xb6
 5133 03a9 2C000000 		.4byte	0x2c
ARM GAS  C:\Users\AFDHAL~1\AppData\Local\Temp\ccKZJoZj.s 			page 116


 5134 03ad 0B       		.uleb128 0xb
 5135 03ae 22020000 		.4byte	.LASF77
 5136 03b2 01       		.byte	0x1
 5137 03b3 B7       		.byte	0xb7
 5138 03b4 2C000000 		.4byte	0x2c
 5139 03b8 0B       		.uleb128 0xb
 5140 03b9 06060000 		.4byte	.LASF78
 5141 03bd 01       		.byte	0x1
 5142 03be B7       		.byte	0xb7
 5143 03bf 8E000000 		.4byte	0x8e
 5144 03c3 00       		.byte	0
 5145 03c4 12       		.uleb128 0x12
 5146 03c5 34000000 		.4byte	.LASF84
 5147 03c9 01       		.byte	0x1
 5148 03ca E0       		.byte	0xe0
 5149 03cb 01       		.byte	0x1
 5150 03cc F2030000 		.4byte	0x3f2
 5151 03d0 0B       		.uleb128 0xb
 5152 03d1 54060000 		.4byte	.LASF76
 5153 03d5 01       		.byte	0x1
 5154 03d6 E0       		.byte	0xe0
 5155 03d7 2C000000 		.4byte	0x2c
 5156 03db 0B       		.uleb128 0xb
 5157 03dc 29060000 		.4byte	.LASF85
 5158 03e0 01       		.byte	0x1
 5159 03e1 E1       		.byte	0xe1
 5160 03e2 2C000000 		.4byte	0x2c
 5161 03e6 0B       		.uleb128 0xb
 5162 03e7 06060000 		.4byte	.LASF78
 5163 03eb 01       		.byte	0x1
 5164 03ec E1       		.byte	0xe1
 5165 03ed 8E000000 		.4byte	0x8e
 5166 03f1 00       		.byte	0
 5167 03f2 12       		.uleb128 0x12
 5168 03f3 F7020000 		.4byte	.LASF86
 5169 03f7 01       		.byte	0x1
 5170 03f8 F2       		.byte	0xf2
 5171 03f9 01       		.byte	0x1
 5172 03fa 20040000 		.4byte	0x420
 5173 03fe 0B       		.uleb128 0xb
 5174 03ff 06060000 		.4byte	.LASF78
 5175 0403 01       		.byte	0x1
 5176 0404 F2       		.byte	0xf2
 5177 0405 8E000000 		.4byte	0x8e
 5178 0409 0B       		.uleb128 0xb
 5179 040a 8C000000 		.4byte	.LASF87
 5180 040e 01       		.byte	0x1
 5181 040f F2       		.byte	0xf2
 5182 0410 2C000000 		.4byte	0x2c
 5183 0414 0D       		.uleb128 0xd
 5184 0415 2B040000 		.4byte	.LASF88
 5185 0419 01       		.byte	0x1
 5186 041a F4       		.byte	0xf4
 5187 041b 5D000000 		.4byte	0x5d
 5188 041f 00       		.byte	0
 5189 0420 0E       		.uleb128 0xe
 5190 0421 0D060000 		.4byte	.LASF89
ARM GAS  C:\Users\AFDHAL~1\AppData\Local\Temp\ccKZJoZj.s 			page 117


 5191 0425 01       		.byte	0x1
 5192 0426 0601     		.2byte	0x106
 5193 0428 5D000000 		.4byte	0x5d
 5194 042c 01       		.byte	0x1
 5195 042d 54040000 		.4byte	0x454
 5196 0431 0F       		.uleb128 0xf
 5197 0432 01050000 		.4byte	.LASF74
 5198 0436 01       		.byte	0x1
 5199 0437 0601     		.2byte	0x106
 5200 0439 8E000000 		.4byte	0x8e
 5201 043d 0F       		.uleb128 0xf
 5202 043e 8C000000 		.4byte	.LASF87
 5203 0442 01       		.byte	0x1
 5204 0443 0601     		.2byte	0x106
 5205 0445 2C000000 		.4byte	0x2c
 5206 0449 10       		.uleb128 0x10
 5207 044a 6900     		.ascii	"i\000"
 5208 044c 01       		.byte	0x1
 5209 044d 0801     		.2byte	0x108
 5210 044f 2C000000 		.4byte	0x2c
 5211 0453 00       		.byte	0
 5212 0454 13       		.uleb128 0x13
 5213 0455 FD010000 		.4byte	0x1fd
 5214 0459 00000000 		.4byte	.LFB34
 5215 045d 94000000 		.4byte	.LFE34-.LFB34
 5216 0461 01       		.uleb128 0x1
 5217 0462 9C       		.byte	0x9c
 5218 0463 A6040000 		.4byte	0x4a6
 5219 0467 14       		.uleb128 0x14
 5220 0468 0D020000 		.4byte	0x20d
 5221 046c 00000000 		.4byte	.LLST0
 5222 0470 14       		.uleb128 0x14
 5223 0471 18020000 		.4byte	0x218
 5224 0475 3A000000 		.4byte	.LLST1
 5225 0479 15       		.uleb128 0x15
 5226 047a 23020000 		.4byte	0x223
 5227 047e 01       		.uleb128 0x1
 5228 047f 52       		.byte	0x52
 5229 0480 16       		.uleb128 0x16
 5230 0481 2E020000 		.4byte	0x22e
 5231 0485 66000000 		.4byte	.LLST2
 5232 0489 16       		.uleb128 0x16
 5233 048a 37020000 		.4byte	0x237
 5234 048e 84000000 		.4byte	.LLST3
 5235 0492 16       		.uleb128 0x16
 5236 0493 40020000 		.4byte	0x240
 5237 0497 98000000 		.4byte	.LLST4
 5238 049b 17       		.uleb128 0x17
 5239 049c 4B020000 		.4byte	0x24b
 5240 04a0 17       		.uleb128 0x17
 5241 04a1 56020000 		.4byte	0x256
 5242 04a5 00       		.byte	0
 5243 04a6 13       		.uleb128 0x13
 5244 04a7 96030000 		.4byte	0x396
 5245 04ab 00000000 		.4byte	.LFB35
 5246 04af 14000000 		.4byte	.LFE35-.LFB35
 5247 04b3 01       		.uleb128 0x1
ARM GAS  C:\Users\AFDHAL~1\AppData\Local\Temp\ccKZJoZj.s 			page 118


 5248 04b4 9C       		.byte	0x9c
 5249 04b5 D1040000 		.4byte	0x4d1
 5250 04b9 15       		.uleb128 0x15
 5251 04ba A2030000 		.4byte	0x3a2
 5252 04be 01       		.uleb128 0x1
 5253 04bf 50       		.byte	0x50
 5254 04c0 14       		.uleb128 0x14
 5255 04c1 AD030000 		.4byte	0x3ad
 5256 04c5 C7000000 		.4byte	.LLST5
 5257 04c9 15       		.uleb128 0x15
 5258 04ca B8030000 		.4byte	0x3b8
 5259 04ce 01       		.uleb128 0x1
 5260 04cf 52       		.byte	0x52
 5261 04d0 00       		.byte	0
 5262 04d1 13       		.uleb128 0x13
 5263 04d2 24030000 		.4byte	0x324
 5264 04d6 00000000 		.4byte	.LFB36
 5265 04da 1C000000 		.4byte	.LFE36-.LFB36
 5266 04de 01       		.uleb128 0x1
 5267 04df 9C       		.byte	0x9c
 5268 04e0 05050000 		.4byte	0x505
 5269 04e4 14       		.uleb128 0x14
 5270 04e5 30030000 		.4byte	0x330
 5271 04e9 E8000000 		.4byte	.LLST6
 5272 04ed 14       		.uleb128 0x14
 5273 04ee 3B030000 		.4byte	0x33b
 5274 04f2 07010000 		.4byte	.LLST7
 5275 04f6 15       		.uleb128 0x15
 5276 04f7 46030000 		.4byte	0x346
 5277 04fb 01       		.uleb128 0x1
 5278 04fc 52       		.byte	0x52
 5279 04fd 15       		.uleb128 0x15
 5280 04fe 51030000 		.4byte	0x351
 5281 0502 01       		.uleb128 0x1
 5282 0503 53       		.byte	0x53
 5283 0504 00       		.byte	0
 5284 0505 13       		.uleb128 0x13
 5285 0506 5D030000 		.4byte	0x35d
 5286 050a 00000000 		.4byte	.LFB37
 5287 050e 1C000000 		.4byte	.LFE37-.LFB37
 5288 0512 01       		.uleb128 0x1
 5289 0513 9C       		.byte	0x9c
 5290 0514 39050000 		.4byte	0x539
 5291 0518 14       		.uleb128 0x14
 5292 0519 69030000 		.4byte	0x369
 5293 051d 28010000 		.4byte	.LLST8
 5294 0521 14       		.uleb128 0x14
 5295 0522 74030000 		.4byte	0x374
 5296 0526 47010000 		.4byte	.LLST9
 5297 052a 15       		.uleb128 0x15
 5298 052b 7F030000 		.4byte	0x37f
 5299 052f 01       		.uleb128 0x1
 5300 0530 52       		.byte	0x52
 5301 0531 15       		.uleb128 0x15
 5302 0532 8A030000 		.4byte	0x38a
 5303 0536 01       		.uleb128 0x1
 5304 0537 53       		.byte	0x53
ARM GAS  C:\Users\AFDHAL~1\AppData\Local\Temp\ccKZJoZj.s 			page 119


 5305 0538 00       		.byte	0
 5306 0539 13       		.uleb128 0x13
 5307 053a C4030000 		.4byte	0x3c4
 5308 053e 00000000 		.4byte	.LFB38
 5309 0542 14000000 		.4byte	.LFE38-.LFB38
 5310 0546 01       		.uleb128 0x1
 5311 0547 9C       		.byte	0x9c
 5312 0548 64050000 		.4byte	0x564
 5313 054c 14       		.uleb128 0x14
 5314 054d D0030000 		.4byte	0x3d0
 5315 0551 68010000 		.4byte	.LLST10
 5316 0555 15       		.uleb128 0x15
 5317 0556 DB030000 		.4byte	0x3db
 5318 055a 01       		.uleb128 0x1
 5319 055b 51       		.byte	0x51
 5320 055c 15       		.uleb128 0x15
 5321 055d E6030000 		.4byte	0x3e6
 5322 0561 01       		.uleb128 0x1
 5323 0562 52       		.byte	0x52
 5324 0563 00       		.byte	0
 5325 0564 13       		.uleb128 0x13
 5326 0565 F2030000 		.4byte	0x3f2
 5327 0569 00000000 		.4byte	.LFB39
 5328 056d AC000000 		.4byte	.LFE39-.LFB39
 5329 0571 01       		.uleb128 0x1
 5330 0572 9C       		.byte	0x9c
 5331 0573 E5050000 		.4byte	0x5e5
 5332 0577 14       		.uleb128 0x14
 5333 0578 FE030000 		.4byte	0x3fe
 5334 057c 89010000 		.4byte	.LLST11
 5335 0580 14       		.uleb128 0x14
 5336 0581 09040000 		.4byte	0x409
 5337 0585 B2010000 		.4byte	.LLST12
 5338 0589 17       		.uleb128 0x17
 5339 058a 14040000 		.4byte	0x414
 5340 058e 18       		.uleb128 0x18
 5341 058f FD010000 		.4byte	0x1fd
 5342 0593 04000000 		.4byte	.LBB21
 5343 0597 00000000 		.4byte	.Ldebug_ranges0+0
 5344 059b 01       		.byte	0x1
 5345 059c F6       		.byte	0xf6
 5346 059d 14       		.uleb128 0x14
 5347 059e 23020000 		.4byte	0x223
 5348 05a2 ED010000 		.4byte	.LLST13
 5349 05a6 14       		.uleb128 0x14
 5350 05a7 18020000 		.4byte	0x218
 5351 05ab 0B020000 		.4byte	.LLST14
 5352 05af 14       		.uleb128 0x14
 5353 05b0 0D020000 		.4byte	0x20d
 5354 05b4 2B020000 		.4byte	.LLST15
 5355 05b8 19       		.uleb128 0x19
 5356 05b9 00000000 		.4byte	.Ldebug_ranges0+0
 5357 05bd 16       		.uleb128 0x16
 5358 05be 2E020000 		.4byte	0x22e
 5359 05c2 54020000 		.4byte	.LLST16
 5360 05c6 16       		.uleb128 0x16
 5361 05c7 37020000 		.4byte	0x237
ARM GAS  C:\Users\AFDHAL~1\AppData\Local\Temp\ccKZJoZj.s 			page 120


 5362 05cb 74020000 		.4byte	.LLST17
 5363 05cf 16       		.uleb128 0x16
 5364 05d0 40020000 		.4byte	0x240
 5365 05d4 88020000 		.4byte	.LLST18
 5366 05d8 17       		.uleb128 0x17
 5367 05d9 4B020000 		.4byte	0x24b
 5368 05dd 17       		.uleb128 0x17
 5369 05de 56020000 		.4byte	0x256
 5370 05e2 00       		.byte	0
 5371 05e3 00       		.byte	0
 5372 05e4 00       		.byte	0
 5373 05e5 13       		.uleb128 0x13
 5374 05e6 20040000 		.4byte	0x420
 5375 05ea 00000000 		.4byte	.LFB40
 5376 05ee D0000000 		.4byte	.LFE40-.LFB40
 5377 05f2 01       		.uleb128 0x1
 5378 05f3 9C       		.byte	0x9c
 5379 05f4 9D060000 		.4byte	0x69d
 5380 05f8 14       		.uleb128 0x14
 5381 05f9 31040000 		.4byte	0x431
 5382 05fd B7020000 		.4byte	.LLST19
 5383 0601 14       		.uleb128 0x14
 5384 0602 3D040000 		.4byte	0x43d
 5385 0606 F1020000 		.4byte	.LLST20
 5386 060a 16       		.uleb128 0x16
 5387 060b 49040000 		.4byte	0x449
 5388 060f 3F030000 		.4byte	.LLST21
 5389 0613 1A       		.uleb128 0x1a
 5390 0614 F2030000 		.4byte	0x3f2
 5391 0618 04000000 		.4byte	.LBB29
 5392 061c 18000000 		.4byte	.Ldebug_ranges0+0x18
 5393 0620 01       		.byte	0x1
 5394 0621 0A01     		.2byte	0x10a
 5395 0623 93060000 		.4byte	0x693
 5396 0627 14       		.uleb128 0x14
 5397 0628 09040000 		.4byte	0x409
 5398 062c 70030000 		.4byte	.LLST22
 5399 0630 14       		.uleb128 0x14
 5400 0631 FE030000 		.4byte	0x3fe
 5401 0635 A8030000 		.4byte	.LLST23
 5402 0639 19       		.uleb128 0x19
 5403 063a 18000000 		.4byte	.Ldebug_ranges0+0x18
 5404 063e 17       		.uleb128 0x17
 5405 063f 14040000 		.4byte	0x414
 5406 0643 1B       		.uleb128 0x1b
 5407 0644 FD010000 		.4byte	0x1fd
 5408 0648 04000000 		.4byte	.LBB31
 5409 064c 80000000 		.4byte	.LBE31-.LBB31
 5410 0650 01       		.byte	0x1
 5411 0651 F6       		.byte	0xf6
 5412 0652 1C       		.uleb128 0x1c
 5413 0653 23020000 		.4byte	0x223
 5414 0657 1C       		.uleb128 0x1c
 5415 0658 18020000 		.4byte	0x218
 5416 065c 1C       		.uleb128 0x1c
 5417 065d 0D020000 		.4byte	0x20d
 5418 0661 1D       		.uleb128 0x1d
ARM GAS  C:\Users\AFDHAL~1\AppData\Local\Temp\ccKZJoZj.s 			page 121


 5419 0662 04000000 		.4byte	.LBB32
 5420 0666 80000000 		.4byte	.LBE32-.LBB32
 5421 066a 16       		.uleb128 0x16
 5422 066b 2E020000 		.4byte	0x22e
 5423 066f C6030000 		.4byte	.LLST24
 5424 0673 16       		.uleb128 0x16
 5425 0674 37020000 		.4byte	0x237
 5426 0678 E6030000 		.4byte	.LLST25
 5427 067c 16       		.uleb128 0x16
 5428 067d 40020000 		.4byte	0x240
 5429 0681 FA030000 		.4byte	.LLST26
 5430 0685 17       		.uleb128 0x17
 5431 0686 4B020000 		.4byte	0x24b
 5432 068a 17       		.uleb128 0x17
 5433 068b 56020000 		.4byte	0x256
 5434 068f 00       		.byte	0
 5435 0690 00       		.byte	0
 5436 0691 00       		.byte	0
 5437 0692 00       		.byte	0
 5438 0693 1E       		.uleb128 0x1e
 5439 0694 B0000000 		.4byte	.LVL33
 5440 0698 67120000 		.4byte	0x1267
 5441 069c 00       		.byte	0
 5442 069d 0E       		.uleb128 0xe
 5443 069e 36050000 		.4byte	.LASF90
 5444 06a2 01       		.byte	0x1
 5445 06a3 2401     		.2byte	0x124
 5446 06a5 5D000000 		.4byte	0x5d
 5447 06a9 01       		.byte	0x1
 5448 06aa C7060000 		.4byte	0x6c7
 5449 06ae 0F       		.uleb128 0xf
 5450 06af 2E020000 		.4byte	.LASF91
 5451 06b3 01       		.byte	0x1
 5452 06b4 2401     		.2byte	0x124
 5453 06b6 8E000000 		.4byte	0x8e
 5454 06ba 11       		.uleb128 0x11
 5455 06bb E8040000 		.4byte	.LASF92
 5456 06bf 01       		.byte	0x1
 5457 06c0 2601     		.2byte	0x126
 5458 06c2 5D000000 		.4byte	0x5d
 5459 06c6 00       		.byte	0
 5460 06c7 13       		.uleb128 0x13
 5461 06c8 9D060000 		.4byte	0x69d
 5462 06cc 00000000 		.4byte	.LFB41
 5463 06d0 2A000000 		.4byte	.LFE41-.LFB41
 5464 06d4 01       		.uleb128 0x1
 5465 06d5 9C       		.byte	0x9c
 5466 06d6 FF060000 		.4byte	0x6ff
 5467 06da 14       		.uleb128 0x14
 5468 06db AE060000 		.4byte	0x6ae
 5469 06df 1B040000 		.4byte	.LLST27
 5470 06e3 16       		.uleb128 0x16
 5471 06e4 BA060000 		.4byte	0x6ba
 5472 06e8 52040000 		.4byte	.LLST28
 5473 06ec 1E       		.uleb128 0x1e
 5474 06ed 10000000 		.4byte	.LVL42
 5475 06f1 73120000 		.4byte	0x1273
ARM GAS  C:\Users\AFDHAL~1\AppData\Local\Temp\ccKZJoZj.s 			page 122


 5476 06f5 1E       		.uleb128 0x1e
 5477 06f6 1C000000 		.4byte	.LVL45
 5478 06fa 7F120000 		.4byte	0x127f
 5479 06fe 00       		.byte	0
 5480 06ff 1F       		.uleb128 0x1f
 5481 0700 2D010000 		.4byte	.LASF96
 5482 0704 01       		.byte	0x1
 5483 0705 4701     		.2byte	0x147
 5484 0707 5D000000 		.4byte	0x5d
 5485 070b 00000000 		.4byte	.LFB42
 5486 070f EC000000 		.4byte	.LFE42-.LFB42
 5487 0713 01       		.uleb128 0x1
 5488 0714 9C       		.byte	0x9c
 5489 0715 EC070000 		.4byte	0x7ec
 5490 0719 20       		.uleb128 0x20
 5491 071a 01040000 		.4byte	.LASF66
 5492 071e 01       		.byte	0x1
 5493 071f 4701     		.2byte	0x147
 5494 0721 8E000000 		.4byte	0x8e
 5495 0725 7C040000 		.4byte	.LLST29
 5496 0729 11       		.uleb128 0x11
 5497 072a 86020000 		.4byte	.LASF93
 5498 072e 01       		.byte	0x1
 5499 072f 4901     		.2byte	0x149
 5500 0731 5D000000 		.4byte	0x5d
 5501 0735 21       		.uleb128 0x21
 5502 0736 07050000 		.4byte	.LASF94
 5503 073a 01       		.byte	0x1
 5504 073b 4A01     		.2byte	0x14a
 5505 073d 64000000 		.4byte	0x64
 5506 0741 B3040000 		.4byte	.LLST30
 5507 0745 21       		.uleb128 0x21
 5508 0746 E1030000 		.4byte	.LASF95
 5509 074a 01       		.byte	0x1
 5510 074b 4B01     		.2byte	0x14b
 5511 074d 64000000 		.4byte	0x64
 5512 0751 D3040000 		.4byte	.LLST31
 5513 0755 1A       		.uleb128 0x1a
 5514 0756 9D060000 		.4byte	0x69d
 5515 075a 02000000 		.4byte	.LBB43
 5516 075e 40000000 		.4byte	.Ldebug_ranges0+0x40
 5517 0762 01       		.byte	0x1
 5518 0763 4F01     		.2byte	0x14f
 5519 0765 94070000 		.4byte	0x794
 5520 0769 14       		.uleb128 0x14
 5521 076a AE060000 		.4byte	0x6ae
 5522 076e 3E050000 		.4byte	.LLST32
 5523 0772 19       		.uleb128 0x19
 5524 0773 40000000 		.4byte	.Ldebug_ranges0+0x40
 5525 0777 16       		.uleb128 0x16
 5526 0778 BA060000 		.4byte	0x6ba
 5527 077c 5C050000 		.4byte	.LLST33
 5528 0780 1E       		.uleb128 0x1e
 5529 0781 10000000 		.4byte	.LVL52
 5530 0785 73120000 		.4byte	0x1273
 5531 0789 1E       		.uleb128 0x1e
 5532 078a 1C000000 		.4byte	.LVL55
ARM GAS  C:\Users\AFDHAL~1\AppData\Local\Temp\ccKZJoZj.s 			page 123


 5533 078e 7F120000 		.4byte	0x127f
 5534 0792 00       		.byte	0
 5535 0793 00       		.byte	0
 5536 0794 22       		.uleb128 0x22
 5537 0795 FD010000 		.4byte	0x1fd
 5538 0799 26000000 		.4byte	.LBB48
 5539 079d 60000000 		.4byte	.Ldebug_ranges0+0x60
 5540 07a1 01       		.byte	0x1
 5541 07a2 5201     		.2byte	0x152
 5542 07a4 14       		.uleb128 0x14
 5543 07a5 23020000 		.4byte	0x223
 5544 07a9 6F050000 		.4byte	.LLST34
 5545 07ad 14       		.uleb128 0x14
 5546 07ae 18020000 		.4byte	0x218
 5547 07b2 B8050000 		.4byte	.LLST35
 5548 07b6 14       		.uleb128 0x14
 5549 07b7 0D020000 		.4byte	0x20d
 5550 07bb D8050000 		.4byte	.LLST36
 5551 07bf 19       		.uleb128 0x19
 5552 07c0 60000000 		.4byte	.Ldebug_ranges0+0x60
 5553 07c4 16       		.uleb128 0x16
 5554 07c5 2E020000 		.4byte	0x22e
 5555 07c9 F6050000 		.4byte	.LLST37
 5556 07cd 16       		.uleb128 0x16
 5557 07ce 37020000 		.4byte	0x237
 5558 07d2 16060000 		.4byte	.LLST38
 5559 07d6 16       		.uleb128 0x16
 5560 07d7 40020000 		.4byte	0x240
 5561 07db 2A060000 		.4byte	.LLST39
 5562 07df 17       		.uleb128 0x17
 5563 07e0 4B020000 		.4byte	0x24b
 5564 07e4 17       		.uleb128 0x17
 5565 07e5 56020000 		.4byte	0x256
 5566 07e9 00       		.byte	0
 5567 07ea 00       		.byte	0
 5568 07eb 00       		.byte	0
 5569 07ec 13       		.uleb128 0x13
 5570 07ed 62020000 		.4byte	0x262
 5571 07f1 00000000 		.4byte	.LFB43
 5572 07f5 5C000000 		.4byte	.LFE43-.LFB43
 5573 07f9 01       		.uleb128 0x1
 5574 07fa 9C       		.byte	0x9c
 5575 07fb 8A080000 		.4byte	0x88a
 5576 07ff 14       		.uleb128 0x14
 5577 0800 73020000 		.4byte	0x273
 5578 0804 59060000 		.4byte	.LLST40
 5579 0808 14       		.uleb128 0x14
 5580 0809 7F020000 		.4byte	0x27f
 5581 080d CD060000 		.4byte	.LLST41
 5582 0811 15       		.uleb128 0x15
 5583 0812 8B020000 		.4byte	0x28b
 5584 0816 01       		.uleb128 0x1
 5585 0817 52       		.byte	0x52
 5586 0818 16       		.uleb128 0x16
 5587 0819 97020000 		.4byte	0x297
 5588 081d EE060000 		.4byte	.LLST42
 5589 0821 16       		.uleb128 0x16
ARM GAS  C:\Users\AFDHAL~1\AppData\Local\Temp\ccKZJoZj.s 			page 124


 5590 0822 A1020000 		.4byte	0x2a1
 5591 0826 3E070000 		.4byte	.LLST43
 5592 082a 16       		.uleb128 0x16
 5593 082b AD020000 		.4byte	0x2ad
 5594 082f 5E070000 		.4byte	.LLST44
 5595 0833 16       		.uleb128 0x16
 5596 0834 B9020000 		.4byte	0x2b9
 5597 0838 A0070000 		.4byte	.LLST45
 5598 083c 16       		.uleb128 0x16
 5599 083d C5020000 		.4byte	0x2c5
 5600 0841 05080000 		.4byte	.LLST46
 5601 0845 19       		.uleb128 0x19
 5602 0846 78000000 		.4byte	.Ldebug_ranges0+0x78
 5603 084a 14       		.uleb128 0x14
 5604 084b 7F020000 		.4byte	0x27f
 5605 084f 18080000 		.4byte	.LLST47
 5606 0853 14       		.uleb128 0x14
 5607 0854 8B020000 		.4byte	0x28b
 5608 0858 2E080000 		.4byte	.LLST48
 5609 085c 14       		.uleb128 0x14
 5610 085d 73020000 		.4byte	0x273
 5611 0861 41080000 		.4byte	.LLST49
 5612 0865 19       		.uleb128 0x19
 5613 0866 78000000 		.4byte	.Ldebug_ranges0+0x78
 5614 086a 17       		.uleb128 0x17
 5615 086b 97020000 		.4byte	0x297
 5616 086f 17       		.uleb128 0x17
 5617 0870 A1020000 		.4byte	0x2a1
 5618 0874 16       		.uleb128 0x16
 5619 0875 AD020000 		.4byte	0x2ad
 5620 0879 62080000 		.4byte	.LLST50
 5621 087d 17       		.uleb128 0x17
 5622 087e B9020000 		.4byte	0x2b9
 5623 0882 17       		.uleb128 0x17
 5624 0883 C5020000 		.4byte	0x2c5
 5625 0887 00       		.byte	0
 5626 0888 00       		.byte	0
 5627 0889 00       		.byte	0
 5628 088a 13       		.uleb128 0x13
 5629 088b D2020000 		.4byte	0x2d2
 5630 088f 00000000 		.4byte	.LFB44
 5631 0893 2A000000 		.4byte	.LFE44-.LFB44
 5632 0897 01       		.uleb128 0x1
 5633 0898 9C       		.byte	0x9c
 5634 0899 C9080000 		.4byte	0x8c9
 5635 089d 14       		.uleb128 0x14
 5636 089e E3020000 		.4byte	0x2e3
 5637 08a2 A3080000 		.4byte	.LLST51
 5638 08a6 15       		.uleb128 0x15
 5639 08a7 EF020000 		.4byte	0x2ef
 5640 08ab 01       		.uleb128 0x1
 5641 08ac 51       		.byte	0x51
 5642 08ad 14       		.uleb128 0x14
 5643 08ae FB020000 		.4byte	0x2fb
 5644 08b2 DD080000 		.4byte	.LLST52
 5645 08b6 16       		.uleb128 0x16
 5646 08b7 07030000 		.4byte	0x307
ARM GAS  C:\Users\AFDHAL~1\AppData\Local\Temp\ccKZJoZj.s 			page 125


 5647 08bb 09090000 		.4byte	.LLST53
 5648 08bf 16       		.uleb128 0x16
 5649 08c0 13030000 		.4byte	0x313
 5650 08c4 3D090000 		.4byte	.LLST54
 5651 08c8 00       		.byte	0
 5652 08c9 1F       		.uleb128 0x1f
 5653 08ca 4C030000 		.4byte	.LASF97
 5654 08ce 01       		.byte	0x1
 5655 08cf C501     		.2byte	0x1c5
 5656 08d1 5D000000 		.4byte	0x5d
 5657 08d5 00000000 		.4byte	.LFB45
 5658 08d9 C4050000 		.4byte	.LFE45-.LFB45
 5659 08dd 01       		.uleb128 0x1
 5660 08de 9C       		.byte	0x9c
 5661 08df 790A0000 		.4byte	0xa79
 5662 08e3 20       		.uleb128 0x20
 5663 08e4 74000000 		.4byte	.LASF71
 5664 08e8 01       		.byte	0x1
 5665 08e9 C501     		.2byte	0x1c5
 5666 08eb 64000000 		.4byte	0x64
 5667 08ef 68090000 		.4byte	.LLST55
 5668 08f3 20       		.uleb128 0x20
 5669 08f4 22020000 		.4byte	.LASF77
 5670 08f8 01       		.byte	0x1
 5671 08f9 C601     		.2byte	0x1c6
 5672 08fb 2C000000 		.4byte	0x2c
 5673 08ff BB090000 		.4byte	.LLST56
 5674 0903 20       		.uleb128 0x20
 5675 0904 01050000 		.4byte	.LASF74
 5676 0908 01       		.byte	0x1
 5677 0909 C701     		.2byte	0x1c7
 5678 090b 8E000000 		.4byte	0x8e
 5679 090f 160A0000 		.4byte	.LLST57
 5680 0913 20       		.uleb128 0x20
 5681 0914 D1000000 		.4byte	.LASF75
 5682 0918 01       		.byte	0x1
 5683 0919 C801     		.2byte	0x1c8
 5684 091b 1E030000 		.4byte	0x31e
 5685 091f 420A0000 		.4byte	.LLST58
 5686 0923 23       		.uleb128 0x23
 5687 0924 54060000 		.4byte	.LASF76
 5688 0928 01       		.byte	0x1
 5689 0929 CA01     		.2byte	0x1ca
 5690 092b 2C000000 		.4byte	0x2c
 5691 092f 10       		.byte	0x10
 5692 0930 21       		.uleb128 0x21
 5693 0931 1A040000 		.4byte	.LASF98
 5694 0935 01       		.byte	0x1
 5695 0936 CB01     		.2byte	0x1cb
 5696 0938 5D000000 		.4byte	0x5d
 5697 093c 6E0A0000 		.4byte	.LLST59
 5698 0940 24       		.uleb128 0x24
 5699 0941 06060000 		.4byte	.LASF78
 5700 0945 01       		.byte	0x1
 5701 0946 CC01     		.2byte	0x1cc
 5702 0948 790A0000 		.4byte	0xa79
 5703 094c 02       		.uleb128 0x2
ARM GAS  C:\Users\AFDHAL~1\AppData\Local\Temp\ccKZJoZj.s 			page 126


 5704 094d 91       		.byte	0x91
 5705 094e 60       		.sleb128 -32
 5706 094f 1A       		.uleb128 0x1a
 5707 0950 24030000 		.4byte	0x324
 5708 0954 06000000 		.4byte	.LBB69
 5709 0958 90000000 		.4byte	.Ldebug_ranges0+0x90
 5710 095c 01       		.byte	0x1
 5711 095d CE01     		.2byte	0x1ce
 5712 095f 85090000 		.4byte	0x985
 5713 0963 14       		.uleb128 0x14
 5714 0964 51030000 		.4byte	0x351
 5715 0968 990A0000 		.4byte	.LLST60
 5716 096c 14       		.uleb128 0x14
 5717 096d 46030000 		.4byte	0x346
 5718 0971 CF0A0000 		.4byte	.LLST61
 5719 0975 14       		.uleb128 0x14
 5720 0976 3B030000 		.4byte	0x33b
 5721 097a 2A0B0000 		.4byte	.LLST62
 5722 097e 25       		.uleb128 0x25
 5723 097f 30030000 		.4byte	0x330
 5724 0983 10       		.byte	0x10
 5725 0984 00       		.byte	0
 5726 0985 1A       		.uleb128 0x1a
 5727 0986 D2020000 		.4byte	0x2d2
 5728 098a 2C000000 		.4byte	.LBB74
 5729 098e B0000000 		.4byte	.Ldebug_ranges0+0xb0
 5730 0992 01       		.byte	0x1
 5731 0993 D001     		.2byte	0x1d0
 5732 0995 C1090000 		.4byte	0x9c1
 5733 0999 1C       		.uleb128 0x1c
 5734 099a FB020000 		.4byte	0x2fb
 5735 099e 1C       		.uleb128 0x1c
 5736 099f EF020000 		.4byte	0x2ef
 5737 09a3 1C       		.uleb128 0x1c
 5738 09a4 E3020000 		.4byte	0x2e3
 5739 09a8 19       		.uleb128 0x19
 5740 09a9 B0000000 		.4byte	.Ldebug_ranges0+0xb0
 5741 09ad 16       		.uleb128 0x16
 5742 09ae 07030000 		.4byte	0x307
 5743 09b2 7D0B0000 		.4byte	.LLST63
 5744 09b6 16       		.uleb128 0x16
 5745 09b7 13030000 		.4byte	0x313
 5746 09bb B10B0000 		.4byte	.LLST64
 5747 09bf 00       		.byte	0
 5748 09c0 00       		.byte	0
 5749 09c1 22       		.uleb128 0x22
 5750 09c2 20040000 		.4byte	0x420
 5751 09c6 52000000 		.4byte	.LBB79
 5752 09ca C8000000 		.4byte	.Ldebug_ranges0+0xc8
 5753 09ce 01       		.byte	0x1
 5754 09cf D101     		.2byte	0x1d1
 5755 09d1 14       		.uleb128 0x14
 5756 09d2 3D040000 		.4byte	0x43d
 5757 09d6 DC0B0000 		.4byte	.LLST65
 5758 09da 1C       		.uleb128 0x1c
 5759 09db 31040000 		.4byte	0x431
 5760 09df 19       		.uleb128 0x19
ARM GAS  C:\Users\AFDHAL~1\AppData\Local\Temp\ccKZJoZj.s 			page 127


 5761 09e0 C8000000 		.4byte	.Ldebug_ranges0+0xc8
 5762 09e4 16       		.uleb128 0x16
 5763 09e5 49040000 		.4byte	0x449
 5764 09e9 F00B0000 		.4byte	.LLST66
 5765 09ed 1A       		.uleb128 0x1a
 5766 09ee F2030000 		.4byte	0x3f2
 5767 09f2 52000000 		.4byte	.LBB81
 5768 09f6 E0000000 		.4byte	.Ldebug_ranges0+0xe0
 5769 09fa 01       		.byte	0x1
 5770 09fb 0A01     		.2byte	0x10a
 5771 09fd 6D0A0000 		.4byte	0xa6d
 5772 0a01 14       		.uleb128 0x14
 5773 0a02 09040000 		.4byte	0x409
 5774 0a06 030C0000 		.4byte	.LLST67
 5775 0a0a 1C       		.uleb128 0x1c
 5776 0a0b FE030000 		.4byte	0x3fe
 5777 0a0f 19       		.uleb128 0x19
 5778 0a10 E0000000 		.4byte	.Ldebug_ranges0+0xe0
 5779 0a14 16       		.uleb128 0x16
 5780 0a15 14040000 		.4byte	0x414
 5781 0a19 170C0000 		.4byte	.LLST68
 5782 0a1d 18       		.uleb128 0x18
 5783 0a1e FD010000 		.4byte	0x1fd
 5784 0a22 52000000 		.4byte	.LBB83
 5785 0a26 F8000000 		.4byte	.Ldebug_ranges0+0xf8
 5786 0a2a 01       		.byte	0x1
 5787 0a2b F6       		.byte	0xf6
 5788 0a2c 1C       		.uleb128 0x1c
 5789 0a2d 23020000 		.4byte	0x223
 5790 0a31 1C       		.uleb128 0x1c
 5791 0a32 18020000 		.4byte	0x218
 5792 0a36 1C       		.uleb128 0x1c
 5793 0a37 0D020000 		.4byte	0x20d
 5794 0a3b 19       		.uleb128 0x19
 5795 0a3c F8000000 		.4byte	.Ldebug_ranges0+0xf8
 5796 0a40 16       		.uleb128 0x16
 5797 0a41 2E020000 		.4byte	0x22e
 5798 0a45 2A0C0000 		.4byte	.LLST69
 5799 0a49 16       		.uleb128 0x16
 5800 0a4a 37020000 		.4byte	0x237
 5801 0a4e 3E0C0000 		.4byte	.LLST70
 5802 0a52 16       		.uleb128 0x16
 5803 0a53 40020000 		.4byte	0x240
 5804 0a57 A60C0000 		.4byte	.LLST71
 5805 0a5b 16       		.uleb128 0x16
 5806 0a5c 4B020000 		.4byte	0x24b
 5807 0a60 C40C0000 		.4byte	.LLST72
 5808 0a64 17       		.uleb128 0x17
 5809 0a65 56020000 		.4byte	0x256
 5810 0a69 00       		.byte	0
 5811 0a6a 00       		.byte	0
 5812 0a6b 00       		.byte	0
 5813 0a6c 00       		.byte	0
 5814 0a6d 1E       		.uleb128 0x1e
 5815 0a6e BA020000 		.4byte	.LVL127
 5816 0a72 67120000 		.4byte	0x1267
 5817 0a76 00       		.byte	0
ARM GAS  C:\Users\AFDHAL~1\AppData\Local\Temp\ccKZJoZj.s 			page 128


 5818 0a77 00       		.byte	0
 5819 0a78 00       		.byte	0
 5820 0a79 26       		.uleb128 0x26
 5821 0a7a 2C000000 		.4byte	0x2c
 5822 0a7e 890A0000 		.4byte	0xa89
 5823 0a82 27       		.uleb128 0x27
 5824 0a83 87000000 		.4byte	0x87
 5825 0a87 07       		.byte	0x7
 5826 0a88 00       		.byte	0
 5827 0a89 0E       		.uleb128 0xe
 5828 0a8a A5030000 		.4byte	.LASF99
 5829 0a8e 01       		.byte	0x1
 5830 0a8f DF01     		.2byte	0x1df
 5831 0a91 5D000000 		.4byte	0x5d
 5832 0a95 01       		.byte	0x1
 5833 0a96 EF0A0000 		.4byte	0xaef
 5834 0a9a 0F       		.uleb128 0xf
 5835 0a9b 79030000 		.4byte	.LASF81
 5836 0a9f 01       		.byte	0x1
 5837 0aa0 DF01     		.2byte	0x1df
 5838 0aa2 64000000 		.4byte	0x64
 5839 0aa6 0F       		.uleb128 0xf
 5840 0aa7 01050000 		.4byte	.LASF74
 5841 0aab 01       		.byte	0x1
 5842 0aac DF01     		.2byte	0x1df
 5843 0aae 8E000000 		.4byte	0x8e
 5844 0ab2 0F       		.uleb128 0xf
 5845 0ab3 D1000000 		.4byte	.LASF75
 5846 0ab7 01       		.byte	0x1
 5847 0ab8 DF01     		.2byte	0x1df
 5848 0aba 1E030000 		.4byte	0x31e
 5849 0abe 11       		.uleb128 0x11
 5850 0abf 54060000 		.4byte	.LASF76
 5851 0ac3 01       		.byte	0x1
 5852 0ac4 E101     		.2byte	0x1e1
 5853 0ac6 2C000000 		.4byte	0x2c
 5854 0aca 11       		.uleb128 0x11
 5855 0acb 1A040000 		.4byte	.LASF98
 5856 0acf 01       		.byte	0x1
 5857 0ad0 E201     		.2byte	0x1e2
 5858 0ad2 5D000000 		.4byte	0x5d
 5859 0ad6 11       		.uleb128 0x11
 5860 0ad7 84030000 		.4byte	.LASF82
 5861 0adb 01       		.byte	0x1
 5862 0adc E301     		.2byte	0x1e3
 5863 0ade 64000000 		.4byte	0x64
 5864 0ae2 11       		.uleb128 0x11
 5865 0ae3 06060000 		.4byte	.LASF78
 5866 0ae7 01       		.byte	0x1
 5867 0ae8 E401     		.2byte	0x1e4
 5868 0aea 790A0000 		.4byte	0xa79
 5869 0aee 00       		.byte	0
 5870 0aef 13       		.uleb128 0x13
 5871 0af0 890A0000 		.4byte	0xa89
 5872 0af4 00000000 		.4byte	.LFB46
 5873 0af8 BC020000 		.4byte	.LFE46-.LFB46
 5874 0afc 01       		.uleb128 0x1
ARM GAS  C:\Users\AFDHAL~1\AppData\Local\Temp\ccKZJoZj.s 			page 129


 5875 0afd 9C       		.byte	0x9c
 5876 0afe 370C0000 		.4byte	0xc37
 5877 0b02 14       		.uleb128 0x14
 5878 0b03 9A0A0000 		.4byte	0xa9a
 5879 0b07 D70C0000 		.4byte	.LLST73
 5880 0b0b 14       		.uleb128 0x14
 5881 0b0c A60A0000 		.4byte	0xaa6
 5882 0b10 F80C0000 		.4byte	.LLST74
 5883 0b14 14       		.uleb128 0x14
 5884 0b15 B20A0000 		.4byte	0xab2
 5885 0b19 190D0000 		.4byte	.LLST75
 5886 0b1d 28       		.uleb128 0x28
 5887 0b1e BE0A0000 		.4byte	0xabe
 5888 0b22 06       		.byte	0x6
 5889 0b23 16       		.uleb128 0x16
 5890 0b24 CA0A0000 		.4byte	0xaca
 5891 0b28 3A0D0000 		.4byte	.LLST76
 5892 0b2c 16       		.uleb128 0x16
 5893 0b2d D60A0000 		.4byte	0xad6
 5894 0b31 4E0D0000 		.4byte	.LLST77
 5895 0b35 29       		.uleb128 0x29
 5896 0b36 E20A0000 		.4byte	0xae2
 5897 0b3a 02       		.uleb128 0x2
 5898 0b3b 91       		.byte	0x91
 5899 0b3c 68       		.sleb128 -24
 5900 0b3d 1A       		.uleb128 0x1a
 5901 0b3e 5D030000 		.4byte	0x35d
 5902 0b42 0A000000 		.4byte	.LBB103
 5903 0b46 18010000 		.4byte	.Ldebug_ranges0+0x118
 5904 0b4a 01       		.byte	0x1
 5905 0b4b E701     		.2byte	0x1e7
 5906 0b4d 760B0000 		.4byte	0xb76
 5907 0b51 14       		.uleb128 0x14
 5908 0b52 8A030000 		.4byte	0x38a
 5909 0b56 740D0000 		.4byte	.LLST78
 5910 0b5a 14       		.uleb128 0x14
 5911 0b5b 7F030000 		.4byte	0x37f
 5912 0b5f 870D0000 		.4byte	.LLST79
 5913 0b63 14       		.uleb128 0x14
 5914 0b64 74030000 		.4byte	0x374
 5915 0b68 9A0D0000 		.4byte	.LLST80
 5916 0b6c 14       		.uleb128 0x14
 5917 0b6d 69030000 		.4byte	0x369
 5918 0b71 AD0D0000 		.4byte	.LLST81
 5919 0b75 00       		.byte	0
 5920 0b76 2A       		.uleb128 0x2a
 5921 0b77 20040000 		.4byte	0x420
 5922 0b7b 2C000000 		.4byte	.LBB107
 5923 0b7f 7E020000 		.4byte	.LBE107-.LBB107
 5924 0b83 01       		.byte	0x1
 5925 0b84 ED01     		.2byte	0x1ed
 5926 0b86 14       		.uleb128 0x14
 5927 0b87 3D040000 		.4byte	0x43d
 5928 0b8b C10D0000 		.4byte	.LLST82
 5929 0b8f 14       		.uleb128 0x14
 5930 0b90 31040000 		.4byte	0x431
 5931 0b94 E10D0000 		.4byte	.LLST83
ARM GAS  C:\Users\AFDHAL~1\AppData\Local\Temp\ccKZJoZj.s 			page 130


 5932 0b98 1D       		.uleb128 0x1d
 5933 0b99 2C000000 		.4byte	.LBB108
 5934 0b9d 7E020000 		.4byte	.LBE108-.LBB108
 5935 0ba1 16       		.uleb128 0x16
 5936 0ba2 49040000 		.4byte	0x449
 5937 0ba6 F40D0000 		.4byte	.LLST84
 5938 0baa 2B       		.uleb128 0x2b
 5939 0bab F2030000 		.4byte	0x3f2
 5940 0baf 2C000000 		.4byte	.LBB109
 5941 0bb3 70020000 		.4byte	.LBE109-.LBB109
 5942 0bb7 01       		.byte	0x1
 5943 0bb8 0A01     		.2byte	0x10a
 5944 0bba 2B0C0000 		.4byte	0xc2b
 5945 0bbe 14       		.uleb128 0x14
 5946 0bbf 09040000 		.4byte	0x409
 5947 0bc3 070E0000 		.4byte	.LLST85
 5948 0bc7 1C       		.uleb128 0x1c
 5949 0bc8 FE030000 		.4byte	0x3fe
 5950 0bcc 1D       		.uleb128 0x1d
 5951 0bcd 2C000000 		.4byte	.LBB110
 5952 0bd1 70020000 		.4byte	.LBE110-.LBB110
 5953 0bd5 16       		.uleb128 0x16
 5954 0bd6 14040000 		.4byte	0x414
 5955 0bda 1B0E0000 		.4byte	.LLST86
 5956 0bde 18       		.uleb128 0x18
 5957 0bdf FD010000 		.4byte	0x1fd
 5958 0be3 2C000000 		.4byte	.LBB111
 5959 0be7 30010000 		.4byte	.Ldebug_ranges0+0x130
 5960 0beb 01       		.byte	0x1
 5961 0bec F6       		.byte	0xf6
 5962 0bed 1C       		.uleb128 0x1c
 5963 0bee 23020000 		.4byte	0x223
 5964 0bf2 1C       		.uleb128 0x1c
 5965 0bf3 18020000 		.4byte	0x218
 5966 0bf7 1C       		.uleb128 0x1c
 5967 0bf8 0D020000 		.4byte	0x20d
 5968 0bfc 19       		.uleb128 0x19
 5969 0bfd 30010000 		.4byte	.Ldebug_ranges0+0x130
 5970 0c01 28       		.uleb128 0x28
 5971 0c02 2E020000 		.4byte	0x22e
 5972 0c06 06       		.byte	0x6
 5973 0c07 16       		.uleb128 0x16
 5974 0c08 37020000 		.4byte	0x237
 5975 0c0c 2E0E0000 		.4byte	.LLST87
 5976 0c10 16       		.uleb128 0x16
 5977 0c11 40020000 		.4byte	0x240
 5978 0c15 7E0E0000 		.4byte	.LLST88
 5979 0c19 16       		.uleb128 0x16
 5980 0c1a 4B020000 		.4byte	0x24b
 5981 0c1e 9C0E0000 		.4byte	.LLST89
 5982 0c22 17       		.uleb128 0x17
 5983 0c23 56020000 		.4byte	0x256
 5984 0c27 00       		.byte	0
 5985 0c28 00       		.byte	0
 5986 0c29 00       		.byte	0
 5987 0c2a 00       		.byte	0
 5988 0c2b 1E       		.uleb128 0x1e
ARM GAS  C:\Users\AFDHAL~1\AppData\Local\Temp\ccKZJoZj.s 			page 131


 5989 0c2c A6020000 		.4byte	.LVL172
 5990 0c30 67120000 		.4byte	0x1267
 5991 0c34 00       		.byte	0
 5992 0c35 00       		.byte	0
 5993 0c36 00       		.byte	0
 5994 0c37 1F       		.uleb128 0x1f
 5995 0c38 C2040000 		.4byte	.LASF100
 5996 0c3c 01       		.byte	0x1
 5997 0c3d FB01     		.2byte	0x1fb
 5998 0c3f 5D000000 		.4byte	0x5d
 5999 0c43 00000000 		.4byte	.LFB47
 6000 0c47 20010000 		.4byte	.LFE47-.LFB47
 6001 0c4b 01       		.uleb128 0x1
 6002 0c4c 9C       		.byte	0x9c
 6003 0c4d B40D0000 		.4byte	0xdb4
 6004 0c51 20       		.uleb128 0x20
 6005 0c52 74000000 		.4byte	.LASF71
 6006 0c56 01       		.byte	0x1
 6007 0c57 FB01     		.2byte	0x1fb
 6008 0c59 64000000 		.4byte	0x64
 6009 0c5d AF0E0000 		.4byte	.LLST90
 6010 0c61 20       		.uleb128 0x20
 6011 0c62 F7040000 		.4byte	.LASF101
 6012 0c66 01       		.byte	0x1
 6013 0c67 FD01     		.2byte	0x1fd
 6014 0c69 2C000000 		.4byte	0x2c
 6015 0c6d DB0E0000 		.4byte	.LLST91
 6016 0c71 20       		.uleb128 0x20
 6017 0c72 D1000000 		.4byte	.LASF75
 6018 0c76 01       		.byte	0x1
 6019 0c77 FD01     		.2byte	0x1fd
 6020 0c79 1E030000 		.4byte	0x31e
 6021 0c7d FC0E0000 		.4byte	.LLST92
 6022 0c81 23       		.uleb128 0x23
 6023 0c82 54060000 		.4byte	.LASF76
 6024 0c86 01       		.byte	0x1
 6025 0c87 FF01     		.2byte	0x1ff
 6026 0c89 2C000000 		.4byte	0x2c
 6027 0c8d 03       		.byte	0x3
 6028 0c8e 21       		.uleb128 0x21
 6029 0c8f 71010000 		.4byte	.LASF102
 6030 0c93 01       		.byte	0x1
 6031 0c94 0002     		.2byte	0x200
 6032 0c96 5D000000 		.4byte	0x5d
 6033 0c9a 280F0000 		.4byte	.LLST93
 6034 0c9e 11       		.uleb128 0x11
 6035 0c9f 1A040000 		.4byte	.LASF98
 6036 0ca3 01       		.byte	0x1
 6037 0ca4 0102     		.2byte	0x201
 6038 0ca6 5D000000 		.4byte	0x5d
 6039 0caa 2C       		.uleb128 0x2c
 6040 0cab 6900     		.ascii	"i\000"
 6041 0cad 01       		.byte	0x1
 6042 0cae 0202     		.2byte	0x202
 6043 0cb0 64000000 		.4byte	0x64
 6044 0cb4 940F0000 		.4byte	.LLST94
 6045 0cb8 24       		.uleb128 0x24
ARM GAS  C:\Users\AFDHAL~1\AppData\Local\Temp\ccKZJoZj.s 			page 132


 6046 0cb9 06060000 		.4byte	.LASF78
 6047 0cbd 01       		.byte	0x1
 6048 0cbe 0302     		.2byte	0x203
 6049 0cc0 B40D0000 		.4byte	0xdb4
 6050 0cc4 03       		.uleb128 0x3
 6051 0cc5 91       		.byte	0x91
 6052 0cc6 E87D     		.sleb128 -280
 6053 0cc8 1A       		.uleb128 0x1a
 6054 0cc9 96030000 		.4byte	0x396
 6055 0ccd 08000000 		.4byte	.LBB123
 6056 0cd1 48010000 		.4byte	.Ldebug_ranges0+0x148
 6057 0cd5 01       		.byte	0x1
 6058 0cd6 0502     		.2byte	0x205
 6059 0cd8 F80C0000 		.4byte	0xcf8
 6060 0cdc 14       		.uleb128 0x14
 6061 0cdd B8030000 		.4byte	0x3b8
 6062 0ce1 B20F0000 		.4byte	.LLST95
 6063 0ce5 14       		.uleb128 0x14
 6064 0ce6 AD030000 		.4byte	0x3ad
 6065 0cea C50F0000 		.4byte	.LLST96
 6066 0cee 14       		.uleb128 0x14
 6067 0cef A2030000 		.4byte	0x3a2
 6068 0cf3 E60F0000 		.4byte	.LLST97
 6069 0cf7 00       		.byte	0
 6070 0cf8 2A       		.uleb128 0x2a
 6071 0cf9 20040000 		.4byte	0x420
 6072 0cfd 50000000 		.4byte	.LBB127
 6073 0d01 AA000000 		.4byte	.LBE127-.LBB127
 6074 0d05 01       		.byte	0x1
 6075 0d06 0F02     		.2byte	0x20f
 6076 0d08 1C       		.uleb128 0x1c
 6077 0d09 3D040000 		.4byte	0x43d
 6078 0d0d 14       		.uleb128 0x14
 6079 0d0e 31040000 		.4byte	0x431
 6080 0d12 FA0F0000 		.4byte	.LLST98
 6081 0d16 1D       		.uleb128 0x1d
 6082 0d17 50000000 		.4byte	.LBB128
 6083 0d1b AA000000 		.4byte	.LBE128-.LBB128
 6084 0d1f 16       		.uleb128 0x16
 6085 0d20 49040000 		.4byte	0x449
 6086 0d24 0D100000 		.4byte	.LLST99
 6087 0d28 2B       		.uleb128 0x2b
 6088 0d29 F2030000 		.4byte	0x3f2
 6089 0d2d 50000000 		.4byte	.LBB129
 6090 0d31 9A000000 		.4byte	.LBE129-.LBB129
 6091 0d35 01       		.byte	0x1
 6092 0d36 0A01     		.2byte	0x10a
 6093 0d38 A80D0000 		.4byte	0xda8
 6094 0d3c 1C       		.uleb128 0x1c
 6095 0d3d 09040000 		.4byte	0x409
 6096 0d41 1C       		.uleb128 0x1c
 6097 0d42 FE030000 		.4byte	0x3fe
 6098 0d46 1D       		.uleb128 0x1d
 6099 0d47 50000000 		.4byte	.LBB130
 6100 0d4b 9A000000 		.4byte	.LBE130-.LBB130
 6101 0d4f 16       		.uleb128 0x16
 6102 0d50 14040000 		.4byte	0x414
ARM GAS  C:\Users\AFDHAL~1\AppData\Local\Temp\ccKZJoZj.s 			page 133


 6103 0d54 2B100000 		.4byte	.LLST100
 6104 0d58 18       		.uleb128 0x18
 6105 0d59 FD010000 		.4byte	0x1fd
 6106 0d5d 50000000 		.4byte	.LBB131
 6107 0d61 60010000 		.4byte	.Ldebug_ranges0+0x160
 6108 0d65 01       		.byte	0x1
 6109 0d66 F6       		.byte	0xf6
 6110 0d67 1C       		.uleb128 0x1c
 6111 0d68 23020000 		.4byte	0x223
 6112 0d6c 1C       		.uleb128 0x1c
 6113 0d6d 18020000 		.4byte	0x218
 6114 0d71 1C       		.uleb128 0x1c
 6115 0d72 0D020000 		.4byte	0x20d
 6116 0d76 19       		.uleb128 0x19
 6117 0d77 60010000 		.4byte	.Ldebug_ranges0+0x160
 6118 0d7b 16       		.uleb128 0x16
 6119 0d7c 2E020000 		.4byte	0x22e
 6120 0d80 3E100000 		.4byte	.LLST101
 6121 0d84 16       		.uleb128 0x16
 6122 0d85 37020000 		.4byte	0x237
 6123 0d89 52100000 		.4byte	.LLST102
 6124 0d8d 16       		.uleb128 0x16
 6125 0d8e 40020000 		.4byte	0x240
 6126 0d92 66100000 		.4byte	.LLST103
 6127 0d96 16       		.uleb128 0x16
 6128 0d97 4B020000 		.4byte	0x24b
 6129 0d9b A4100000 		.4byte	.LLST104
 6130 0d9f 17       		.uleb128 0x17
 6131 0da0 56020000 		.4byte	0x256
 6132 0da4 00       		.byte	0
 6133 0da5 00       		.byte	0
 6134 0da6 00       		.byte	0
 6135 0da7 00       		.byte	0
 6136 0da8 1E       		.uleb128 0x1e
 6137 0da9 F4000000 		.4byte	.LVL195
 6138 0dad 67120000 		.4byte	0x1267
 6139 0db1 00       		.byte	0
 6140 0db2 00       		.byte	0
 6141 0db3 00       		.byte	0
 6142 0db4 26       		.uleb128 0x26
 6143 0db5 2C000000 		.4byte	0x2c
 6144 0db9 C40D0000 		.4byte	0xdc4
 6145 0dbd 27       		.uleb128 0x27
 6146 0dbe 87000000 		.4byte	0x87
 6147 0dc2 FF       		.byte	0xff
 6148 0dc3 00       		.byte	0
 6149 0dc4 1F       		.uleb128 0x1f
 6150 0dc5 7D010000 		.4byte	.LASF103
 6151 0dc9 01       		.byte	0x1
 6152 0dca 2602     		.2byte	0x226
 6153 0dcc 5D000000 		.4byte	0x5d
 6154 0dd0 00000000 		.4byte	.LFB48
 6155 0dd4 5A050000 		.4byte	.LFE48-.LFB48
 6156 0dd8 01       		.uleb128 0x1
 6157 0dd9 9C       		.byte	0x9c
 6158 0dda AE110000 		.4byte	0x11ae
 6159 0dde 20       		.uleb128 0x20
ARM GAS  C:\Users\AFDHAL~1\AppData\Local\Temp\ccKZJoZj.s 			page 134


 6160 0ddf 12000000 		.4byte	.LASF104
 6161 0de3 01       		.byte	0x1
 6162 0de4 2602     		.2byte	0x226
 6163 0de6 2C000000 		.4byte	0x2c
 6164 0dea C6100000 		.4byte	.LLST105
 6165 0dee 20       		.uleb128 0x20
 6166 0def D1000000 		.4byte	.LASF75
 6167 0df3 01       		.byte	0x1
 6168 0df4 2602     		.2byte	0x226
 6169 0df6 1E030000 		.4byte	0x31e
 6170 0dfa E7100000 		.4byte	.LLST106
 6171 0dfe 20       		.uleb128 0x20
 6172 0dff 21040000 		.4byte	.LASF68
 6173 0e03 01       		.byte	0x1
 6174 0e04 2702     		.2byte	0x227
 6175 0e06 64000000 		.4byte	0x64
 6176 0e0a 37110000 		.4byte	.LLST107
 6177 0e0e 24       		.uleb128 0x24
 6178 0e0f 01050000 		.4byte	.LASF74
 6179 0e13 01       		.byte	0x1
 6180 0e14 2902     		.2byte	0x229
 6181 0e16 B40D0000 		.4byte	0xdb4
 6182 0e1a 03       		.uleb128 0x3
 6183 0e1b 91       		.byte	0x91
 6184 0e1c E87D     		.sleb128 -280
 6185 0e1e 24       		.uleb128 0x24
 6186 0e1f 1E030000 		.4byte	.LASF105
 6187 0e23 01       		.byte	0x1
 6188 0e24 2A02     		.2byte	0x22a
 6189 0e26 AE110000 		.4byte	0x11ae
 6190 0e2a 03       		.uleb128 0x3
 6191 0e2b 91       		.byte	0x91
 6192 0e2c E07D     		.sleb128 -288
 6193 0e2e 21       		.uleb128 0x21
 6194 0e2f 74000000 		.4byte	.LASF71
 6195 0e33 01       		.byte	0x1
 6196 0e34 2B02     		.2byte	0x22b
 6197 0e36 64000000 		.4byte	0x64
 6198 0e3a D2110000 		.4byte	.LLST108
 6199 0e3e 11       		.uleb128 0x11
 6200 0e3f 29060000 		.4byte	.LASF85
 6201 0e43 01       		.byte	0x1
 6202 0e44 2C02     		.2byte	0x22c
 6203 0e46 5D000000 		.4byte	0x5d
 6204 0e4a 21       		.uleb128 0x21
 6205 0e4b 7F050000 		.4byte	.LASF67
 6206 0e4f 01       		.byte	0x1
 6207 0e50 2D02     		.2byte	0x22d
 6208 0e52 5D000000 		.4byte	0x5d
 6209 0e56 06120000 		.4byte	.LLST109
 6210 0e5a 2C       		.uleb128 0x2c
 6211 0e5b 6E6F7700 		.ascii	"now\000"
 6212 0e5f 01       		.byte	0x1
 6213 0e60 2E02     		.2byte	0x22e
 6214 0e62 48000000 		.4byte	0x48
 6215 0e66 5B120000 		.4byte	.LLST110
 6216 0e6a 1A       		.uleb128 0x1a
ARM GAS  C:\Users\AFDHAL~1\AppData\Local\Temp\ccKZJoZj.s 			page 135


 6217 0e6b 62020000 		.4byte	0x262
 6218 0e6f 5A000000 		.4byte	.LBB160
 6219 0e73 80010000 		.4byte	.Ldebug_ranges0+0x180
 6220 0e77 01       		.byte	0x1
 6221 0e78 4502     		.2byte	0x245
 6222 0e7a 0D0F0000 		.4byte	0xf0d
 6223 0e7e 14       		.uleb128 0x14
 6224 0e7f 8B020000 		.4byte	0x28b
 6225 0e83 8F120000 		.4byte	.LLST111
 6226 0e87 14       		.uleb128 0x14
 6227 0e88 7F020000 		.4byte	0x27f
 6228 0e8c C3120000 		.4byte	.LLST112
 6229 0e90 14       		.uleb128 0x14
 6230 0e91 73020000 		.4byte	0x273
 6231 0e95 F7120000 		.4byte	.LLST113
 6232 0e99 19       		.uleb128 0x19
 6233 0e9a 80010000 		.4byte	.Ldebug_ranges0+0x180
 6234 0e9e 16       		.uleb128 0x16
 6235 0e9f 97020000 		.4byte	0x297
 6236 0ea3 37130000 		.4byte	.LLST114
 6237 0ea7 16       		.uleb128 0x16
 6238 0ea8 A1020000 		.4byte	0x2a1
 6239 0eac 87130000 		.4byte	.LLST115
 6240 0eb0 16       		.uleb128 0x16
 6241 0eb1 AD020000 		.4byte	0x2ad
 6242 0eb5 B3130000 		.4byte	.LLST116
 6243 0eb9 16       		.uleb128 0x16
 6244 0eba B9020000 		.4byte	0x2b9
 6245 0ebe DC130000 		.4byte	.LLST117
 6246 0ec2 16       		.uleb128 0x16
 6247 0ec3 C5020000 		.4byte	0x2c5
 6248 0ec7 EF130000 		.4byte	.LLST118
 6249 0ecb 19       		.uleb128 0x19
 6250 0ecc A8010000 		.4byte	.Ldebug_ranges0+0x1a8
 6251 0ed0 1C       		.uleb128 0x1c
 6252 0ed1 7F020000 		.4byte	0x27f
 6253 0ed5 14       		.uleb128 0x14
 6254 0ed6 8B020000 		.4byte	0x28b
 6255 0eda 0D140000 		.4byte	.LLST119
 6256 0ede 14       		.uleb128 0x14
 6257 0edf 73020000 		.4byte	0x273
 6258 0ee3 20140000 		.4byte	.LLST120
 6259 0ee7 19       		.uleb128 0x19
 6260 0ee8 A8010000 		.4byte	.Ldebug_ranges0+0x1a8
 6261 0eec 17       		.uleb128 0x17
 6262 0eed 97020000 		.4byte	0x297
 6263 0ef1 17       		.uleb128 0x17
 6264 0ef2 A1020000 		.4byte	0x2a1
 6265 0ef6 16       		.uleb128 0x16
 6266 0ef7 AD020000 		.4byte	0x2ad
 6267 0efb 36140000 		.4byte	.LLST121
 6268 0eff 17       		.uleb128 0x17
 6269 0f00 B9020000 		.4byte	0x2b9
 6270 0f04 17       		.uleb128 0x17
 6271 0f05 C5020000 		.4byte	0x2c5
 6272 0f09 00       		.byte	0
 6273 0f0a 00       		.byte	0
ARM GAS  C:\Users\AFDHAL~1\AppData\Local\Temp\ccKZJoZj.s 			page 136


 6274 0f0b 00       		.byte	0
 6275 0f0c 00       		.byte	0
 6276 0f0d 1A       		.uleb128 0x1a
 6277 0f0e C4030000 		.4byte	0x3c4
 6278 0f12 74000000 		.4byte	.LBB169
 6279 0f16 C0010000 		.4byte	.Ldebug_ranges0+0x1c0
 6280 0f1a 01       		.byte	0x1
 6281 0f1b 4702     		.2byte	0x247
 6282 0f1d 3D0F0000 		.4byte	0xf3d
 6283 0f21 14       		.uleb128 0x14
 6284 0f22 E6030000 		.4byte	0x3e6
 6285 0f26 49140000 		.4byte	.LLST122
 6286 0f2a 14       		.uleb128 0x14
 6287 0f2b DB030000 		.4byte	0x3db
 6288 0f2f 5C140000 		.4byte	.LLST123
 6289 0f33 14       		.uleb128 0x14
 6290 0f34 D0030000 		.4byte	0x3d0
 6291 0f38 6F140000 		.4byte	.LLST124
 6292 0f3c 00       		.byte	0
 6293 0f3d 1A       		.uleb128 0x1a
 6294 0f3e 20040000 		.4byte	0x420
 6295 0f42 78000000 		.4byte	.LBB174
 6296 0f46 E8010000 		.4byte	.Ldebug_ranges0+0x1e8
 6297 0f4a 01       		.byte	0x1
 6298 0f4b 4902     		.2byte	0x249
 6299 0f4d FC0F0000 		.4byte	0xffc
 6300 0f51 14       		.uleb128 0x14
 6301 0f52 3D040000 		.4byte	0x43d
 6302 0f56 82140000 		.4byte	.LLST125
 6303 0f5a 14       		.uleb128 0x14
 6304 0f5b 31040000 		.4byte	0x431
 6305 0f5f AE140000 		.4byte	.LLST126
 6306 0f63 19       		.uleb128 0x19
 6307 0f64 E8010000 		.4byte	.Ldebug_ranges0+0x1e8
 6308 0f68 16       		.uleb128 0x16
 6309 0f69 49040000 		.4byte	0x449
 6310 0f6d CC140000 		.4byte	.LLST127
 6311 0f71 1A       		.uleb128 0x1a
 6312 0f72 F2030000 		.4byte	0x3f2
 6313 0f76 78000000 		.4byte	.LBB176
 6314 0f7a 10020000 		.4byte	.Ldebug_ranges0+0x210
 6315 0f7e 01       		.byte	0x1
 6316 0f7f 0A01     		.2byte	0x10a
 6317 0f81 F10F0000 		.4byte	0xff1
 6318 0f85 14       		.uleb128 0x14
 6319 0f86 09040000 		.4byte	0x409
 6320 0f8a DF140000 		.4byte	.LLST128
 6321 0f8e 1C       		.uleb128 0x1c
 6322 0f8f FE030000 		.4byte	0x3fe
 6323 0f93 19       		.uleb128 0x19
 6324 0f94 10020000 		.4byte	.Ldebug_ranges0+0x210
 6325 0f98 16       		.uleb128 0x16
 6326 0f99 14040000 		.4byte	0x414
 6327 0f9d F3140000 		.4byte	.LLST129
 6328 0fa1 18       		.uleb128 0x18
 6329 0fa2 FD010000 		.4byte	0x1fd
 6330 0fa6 78000000 		.4byte	.LBB178
ARM GAS  C:\Users\AFDHAL~1\AppData\Local\Temp\ccKZJoZj.s 			page 137


 6331 0faa 38020000 		.4byte	.Ldebug_ranges0+0x238
 6332 0fae 01       		.byte	0x1
 6333 0faf F6       		.byte	0xf6
 6334 0fb0 1C       		.uleb128 0x1c
 6335 0fb1 23020000 		.4byte	0x223
 6336 0fb5 1C       		.uleb128 0x1c
 6337 0fb6 18020000 		.4byte	0x218
 6338 0fba 1C       		.uleb128 0x1c
 6339 0fbb 0D020000 		.4byte	0x20d
 6340 0fbf 19       		.uleb128 0x19
 6341 0fc0 38020000 		.4byte	.Ldebug_ranges0+0x238
 6342 0fc4 16       		.uleb128 0x16
 6343 0fc5 2E020000 		.4byte	0x22e
 6344 0fc9 06150000 		.4byte	.LLST130
 6345 0fcd 16       		.uleb128 0x16
 6346 0fce 37020000 		.4byte	0x237
 6347 0fd2 1A150000 		.4byte	.LLST131
 6348 0fd6 16       		.uleb128 0x16
 6349 0fd7 40020000 		.4byte	0x240
 6350 0fdb 46150000 		.4byte	.LLST132
 6351 0fdf 16       		.uleb128 0x16
 6352 0fe0 4B020000 		.4byte	0x24b
 6353 0fe4 64150000 		.4byte	.LLST133
 6354 0fe8 17       		.uleb128 0x17
 6355 0fe9 56020000 		.4byte	0x256
 6356 0fed 00       		.byte	0
 6357 0fee 00       		.byte	0
 6358 0fef 00       		.byte	0
 6359 0ff0 00       		.byte	0
 6360 0ff1 1E       		.uleb128 0x1e
 6361 0ff2 C4010000 		.4byte	.LVL226
 6362 0ff6 67120000 		.4byte	0x1267
 6363 0ffa 00       		.byte	0
 6364 0ffb 00       		.byte	0
 6365 0ffc 1A       		.uleb128 0x1a
 6366 0ffd 890A0000 		.4byte	0xa89
 6367 1001 1A020000 		.4byte	.LBB204
 6368 1005 68020000 		.4byte	.Ldebug_ranges0+0x268
 6369 1009 01       		.byte	0x1
 6370 100a 6F02     		.2byte	0x26f
 6371 100c 4A110000 		.4byte	0x114a
 6372 1010 14       		.uleb128 0x14
 6373 1011 B20A0000 		.4byte	0xab2
 6374 1015 77150000 		.4byte	.LLST134
 6375 1019 14       		.uleb128 0x14
 6376 101a A60A0000 		.4byte	0xaa6
 6377 101e 98150000 		.4byte	.LLST135
 6378 1022 14       		.uleb128 0x14
 6379 1023 9A0A0000 		.4byte	0xa9a
 6380 1027 AE150000 		.4byte	.LLST136
 6381 102b 19       		.uleb128 0x19
 6382 102c 68020000 		.4byte	.Ldebug_ranges0+0x268
 6383 1030 16       		.uleb128 0x16
 6384 1031 BE0A0000 		.4byte	0xabe
 6385 1035 CC150000 		.4byte	.LLST137
 6386 1039 16       		.uleb128 0x16
 6387 103a CA0A0000 		.4byte	0xaca
ARM GAS  C:\Users\AFDHAL~1\AppData\Local\Temp\ccKZJoZj.s 			page 138


 6388 103e E0150000 		.4byte	.LLST138
 6389 1042 16       		.uleb128 0x16
 6390 1043 D60A0000 		.4byte	0xad6
 6391 1047 F4150000 		.4byte	.LLST139
 6392 104b 29       		.uleb128 0x29
 6393 104c E20A0000 		.4byte	0xae2
 6394 1050 03       		.uleb128 0x3
 6395 1051 91       		.byte	0x91
 6396 1052 E07D     		.sleb128 -288
 6397 1054 1A       		.uleb128 0x1a
 6398 1055 5D030000 		.4byte	0x35d
 6399 1059 1A020000 		.4byte	.LBB206
 6400 105d 80020000 		.4byte	.Ldebug_ranges0+0x280
 6401 1061 01       		.byte	0x1
 6402 1062 E701     		.2byte	0x1e7
 6403 1064 8D100000 		.4byte	0x108d
 6404 1068 14       		.uleb128 0x14
 6405 1069 8A030000 		.4byte	0x38a
 6406 106d 3B160000 		.4byte	.LLST140
 6407 1071 14       		.uleb128 0x14
 6408 1072 7F030000 		.4byte	0x37f
 6409 1076 F4150000 		.4byte	.LLST139
 6410 107a 14       		.uleb128 0x14
 6411 107b 74030000 		.4byte	0x374
 6412 107f 4E160000 		.4byte	.LLST142
 6413 1083 14       		.uleb128 0x14
 6414 1084 69030000 		.4byte	0x369
 6415 1088 6C160000 		.4byte	.LLST143
 6416 108c 00       		.byte	0
 6417 108d 22       		.uleb128 0x22
 6418 108e 20040000 		.4byte	0x420
 6419 1092 42020000 		.4byte	.LBB213
 6420 1096 A8020000 		.4byte	.Ldebug_ranges0+0x2a8
 6421 109a 01       		.byte	0x1
 6422 109b ED01     		.2byte	0x1ed
 6423 109d 14       		.uleb128 0x14
 6424 109e 3D040000 		.4byte	0x43d
 6425 10a2 80160000 		.4byte	.LLST144
 6426 10a6 14       		.uleb128 0x14
 6427 10a7 31040000 		.4byte	0x431
 6428 10ab 94160000 		.4byte	.LLST145
 6429 10af 19       		.uleb128 0x19
 6430 10b0 A8020000 		.4byte	.Ldebug_ranges0+0x2a8
 6431 10b4 16       		.uleb128 0x16
 6432 10b5 49040000 		.4byte	0x449
 6433 10b9 A7160000 		.4byte	.LLST146
 6434 10bd 1A       		.uleb128 0x1a
 6435 10be F2030000 		.4byte	0x3f2
 6436 10c2 42020000 		.4byte	.LBB215
 6437 10c6 C0020000 		.4byte	.Ldebug_ranges0+0x2c0
 6438 10ca 01       		.byte	0x1
 6439 10cb 0A01     		.2byte	0x10a
 6440 10cd 3D110000 		.4byte	0x113d
 6441 10d1 14       		.uleb128 0x14
 6442 10d2 09040000 		.4byte	0x409
 6443 10d6 BA160000 		.4byte	.LLST147
 6444 10da 1C       		.uleb128 0x1c
ARM GAS  C:\Users\AFDHAL~1\AppData\Local\Temp\ccKZJoZj.s 			page 139


 6445 10db FE030000 		.4byte	0x3fe
 6446 10df 19       		.uleb128 0x19
 6447 10e0 C0020000 		.4byte	.Ldebug_ranges0+0x2c0
 6448 10e4 16       		.uleb128 0x16
 6449 10e5 14040000 		.4byte	0x414
 6450 10e9 CE160000 		.4byte	.LLST148
 6451 10ed 18       		.uleb128 0x18
 6452 10ee FD010000 		.4byte	0x1fd
 6453 10f2 42020000 		.4byte	.LBB217
 6454 10f6 D8020000 		.4byte	.Ldebug_ranges0+0x2d8
 6455 10fa 01       		.byte	0x1
 6456 10fb F6       		.byte	0xf6
 6457 10fc 1C       		.uleb128 0x1c
 6458 10fd 23020000 		.4byte	0x223
 6459 1101 1C       		.uleb128 0x1c
 6460 1102 18020000 		.4byte	0x218
 6461 1106 1C       		.uleb128 0x1c
 6462 1107 0D020000 		.4byte	0x20d
 6463 110b 19       		.uleb128 0x19
 6464 110c D8020000 		.4byte	.Ldebug_ranges0+0x2d8
 6465 1110 16       		.uleb128 0x16
 6466 1111 2E020000 		.4byte	0x22e
 6467 1115 E1160000 		.4byte	.LLST149
 6468 1119 16       		.uleb128 0x16
 6469 111a 37020000 		.4byte	0x237
 6470 111e F5160000 		.4byte	.LLST150
 6471 1122 16       		.uleb128 0x16
 6472 1123 40020000 		.4byte	0x240
 6473 1127 45170000 		.4byte	.LLST151
 6474 112b 16       		.uleb128 0x16
 6475 112c 4B020000 		.4byte	0x24b
 6476 1130 63170000 		.4byte	.LLST152
 6477 1134 17       		.uleb128 0x17
 6478 1135 56020000 		.4byte	0x256
 6479 1139 00       		.byte	0
 6480 113a 00       		.byte	0
 6481 113b 00       		.byte	0
 6482 113c 00       		.byte	0
 6483 113d 1E       		.uleb128 0x1e
 6484 113e C0040000 		.4byte	.LVL263
 6485 1142 67120000 		.4byte	0x1267
 6486 1146 00       		.byte	0
 6487 1147 00       		.byte	0
 6488 1148 00       		.byte	0
 6489 1149 00       		.byte	0
 6490 114a 2D       		.uleb128 0x2d
 6491 114b 10050000 		.4byte	.LBB231
 6492 114f 3C000000 		.4byte	.LBE231-.LBB231
 6493 1153 7F110000 		.4byte	0x117f
 6494 1157 21       		.uleb128 0x21
 6495 1158 28020000 		.4byte	.LASF106
 6496 115c 01       		.byte	0x1
 6497 115d 5C02     		.2byte	0x25c
 6498 115f 79000000 		.4byte	0x79
 6499 1163 76170000 		.4byte	.LLST153
 6500 1167 2E       		.uleb128 0x2e
 6501 1168 40050000 		.4byte	.LVL281
ARM GAS  C:\Users\AFDHAL~1\AppData\Local\Temp\ccKZJoZj.s 			page 140


 6502 116c C9080000 		.4byte	0x8c9
 6503 1170 2F       		.uleb128 0x2f
 6504 1171 01       		.uleb128 0x1
 6505 1172 52       		.byte	0x52
 6506 1173 03       		.uleb128 0x3
 6507 1174 91       		.byte	0x91
 6508 1175 E87D     		.sleb128 -280
 6509 1177 2F       		.uleb128 0x2f
 6510 1178 01       		.uleb128 0x1
 6511 1179 53       		.byte	0x53
 6512 117a 02       		.uleb128 0x2
 6513 117b 76       		.byte	0x76
 6514 117c 00       		.sleb128 0
 6515 117d 00       		.byte	0
 6516 117e 00       		.byte	0
 6517 117f 1E       		.uleb128 0x1e
 6518 1180 12000000 		.4byte	.LVL199
 6519 1184 7F120000 		.4byte	0x127f
 6520 1188 30       		.uleb128 0x30
 6521 1189 54000000 		.4byte	.LVL205
 6522 118d FF060000 		.4byte	0x6ff
 6523 1191 9D110000 		.4byte	0x119d
 6524 1195 2F       		.uleb128 0x2f
 6525 1196 01       		.uleb128 0x1
 6526 1197 50       		.byte	0x50
 6527 1198 03       		.uleb128 0x3
 6528 1199 91       		.byte	0x91
 6529 119a E87D     		.sleb128 -280
 6530 119c 00       		.byte	0
 6531 119d 2E       		.uleb128 0x2e
 6532 119e 0C050000 		.4byte	.LVL275
 6533 11a2 370C0000 		.4byte	0xc37
 6534 11a6 2F       		.uleb128 0x2f
 6535 11a7 01       		.uleb128 0x1
 6536 11a8 52       		.byte	0x52
 6537 11a9 02       		.uleb128 0x2
 6538 11aa 76       		.byte	0x76
 6539 11ab 00       		.sleb128 0
 6540 11ac 00       		.byte	0
 6541 11ad 00       		.byte	0
 6542 11ae 26       		.uleb128 0x26
 6543 11af 2C000000 		.4byte	0x2c
 6544 11b3 BE110000 		.4byte	0x11be
 6545 11b7 27       		.uleb128 0x27
 6546 11b8 87000000 		.4byte	0x87
 6547 11bc 04       		.byte	0x4
 6548 11bd 00       		.byte	0
 6549 11be 31       		.uleb128 0x31
 6550 11bf 62060000 		.4byte	.LASF107
 6551 11c3 03       		.byte	0x3
 6552 11c4 13       		.byte	0x13
 6553 11c5 C9110000 		.4byte	0x11c9
 6554 11c9 32       		.uleb128 0x32
 6555 11ca 56000000 		.4byte	0x56
 6556 11ce 33       		.uleb128 0x33
 6557 11cf 3E020000 		.4byte	.LASF108
 6558 11d3 01       		.byte	0x1
ARM GAS  C:\Users\AFDHAL~1\AppData\Local\Temp\ccKZJoZj.s 			page 141


 6559 11d4 3C       		.byte	0x3c
 6560 11d5 2C000000 		.4byte	0x2c
 6561 11d9 05       		.uleb128 0x5
 6562 11da 03       		.byte	0x3
 6563 11db 00000000 		.4byte	modbusRTU_Written
 6564 11df 33       		.uleb128 0x33
 6565 11e0 C0030000 		.4byte	.LASF109
 6566 11e4 01       		.byte	0x1
 6567 11e5 3D       		.byte	0x3d
 6568 11e6 48000000 		.4byte	0x48
 6569 11ea 05       		.uleb128 0x5
 6570 11eb 03       		.byte	0x3
 6571 11ec 00000000 		.4byte	modbusRTU_written_register_flags
 6572 11f0 33       		.uleb128 0x33
 6573 11f1 8E010000 		.4byte	.LASF110
 6574 11f5 01       		.byte	0x1
 6575 11f6 3B       		.byte	0x3b
 6576 11f7 2C000000 		.4byte	0x2c
 6577 11fb 05       		.uleb128 0x5
 6578 11fc 03       		.byte	0x3
 6579 11fd 00000000 		.4byte	slave
 6580 1201 26       		.uleb128 0x26
 6581 1202 11120000 		.4byte	0x1211
 6582 1206 11120000 		.4byte	0x1211
 6583 120a 27       		.uleb128 0x27
 6584 120b 87000000 		.4byte	0x87
 6585 120f 02       		.byte	0x2
 6586 1210 00       		.byte	0
 6587 1211 34       		.uleb128 0x34
 6588 1212 2C000000 		.4byte	0x2c
 6589 1216 33       		.uleb128 0x33
 6590 1217 CC060000 		.4byte	.LASF111
 6591 121b 01       		.byte	0x1
 6592 121c 7D       		.byte	0x7d
 6593 121d 27120000 		.4byte	0x1227
 6594 1221 05       		.uleb128 0x5
 6595 1222 03       		.byte	0x3
 6596 1223 00000000 		.4byte	fsupported
 6597 1227 34       		.uleb128 0x34
 6598 1228 01120000 		.4byte	0x1201
 6599 122c 35       		.uleb128 0x35
 6600 122d 79050000 		.4byte	.LASF112
 6601 1231 01       		.byte	0x1
 6602 1232 2202     		.2byte	0x222
 6603 1234 48000000 		.4byte	0x48
 6604 1238 05       		.uleb128 0x5
 6605 1239 03       		.byte	0x3
 6606 123a 00000000 		.4byte	Nowdt
 6607 123e 35       		.uleb128 0x35
 6608 123f 00000000 		.4byte	.LASF113
 6609 1243 01       		.byte	0x1
 6610 1244 2302     		.2byte	0x223
 6611 1246 64000000 		.4byte	0x64
 6612 124a 05       		.uleb128 0x5
 6613 124b 03       		.byte	0x3
 6614 124c 00000000 		.4byte	lastBytesReceived
 6615 1250 36       		.uleb128 0x36
ARM GAS  C:\Users\AFDHAL~1\AppData\Local\Temp\ccKZJoZj.s 			page 142


 6616 1251 54333500 		.ascii	"T35\000"
 6617 1255 01       		.byte	0x1
 6618 1256 2402     		.2byte	0x224
 6619 1258 62120000 		.4byte	0x1262
 6620 125c 05       		.uleb128 0x5
 6621 125d 03       		.byte	0x3
 6622 125e 00000000 		.4byte	T35
 6623 1262 34       		.uleb128 0x34
 6624 1263 48000000 		.4byte	0x48
 6625 1267 37       		.uleb128 0x37
 6626 1268 12070000 		.4byte	.LASF114
 6627 126c 12070000 		.4byte	.LASF114
 6628 1270 04       		.byte	0x4
 6629 1271 4403     		.2byte	0x344
 6630 1273 37       		.uleb128 0x37
 6631 1274 DE060000 		.4byte	.LASF115
 6632 1278 DE060000 		.4byte	.LASF115
 6633 127c 04       		.byte	0x4
 6634 127d 1003     		.2byte	0x310
 6635 127f 37       		.uleb128 0x37
 6636 1280 47000000 		.4byte	.LASF116
 6637 1284 47000000 		.4byte	.LASF116
 6638 1288 04       		.byte	0x4
 6639 1289 3E03     		.2byte	0x33e
 6640 128b 00       		.byte	0
 6641              		.section	.debug_abbrev,"",%progbits
 6642              	.Ldebug_abbrev0:
 6643 0000 01       		.uleb128 0x1
 6644 0001 11       		.uleb128 0x11
 6645 0002 01       		.byte	0x1
 6646 0003 25       		.uleb128 0x25
 6647 0004 0E       		.uleb128 0xe
 6648 0005 13       		.uleb128 0x13
 6649 0006 0B       		.uleb128 0xb
 6650 0007 03       		.uleb128 0x3
 6651 0008 0E       		.uleb128 0xe
 6652 0009 1B       		.uleb128 0x1b
 6653 000a 0E       		.uleb128 0xe
 6654 000b 55       		.uleb128 0x55
 6655 000c 17       		.uleb128 0x17
 6656 000d 11       		.uleb128 0x11
 6657 000e 01       		.uleb128 0x1
 6658 000f 10       		.uleb128 0x10
 6659 0010 17       		.uleb128 0x17
 6660 0011 00       		.byte	0
 6661 0012 00       		.byte	0
 6662 0013 02       		.uleb128 0x2
 6663 0014 24       		.uleb128 0x24
 6664 0015 00       		.byte	0
 6665 0016 0B       		.uleb128 0xb
 6666 0017 0B       		.uleb128 0xb
 6667 0018 3E       		.uleb128 0x3e
 6668 0019 0B       		.uleb128 0xb
 6669 001a 03       		.uleb128 0x3
 6670 001b 0E       		.uleb128 0xe
 6671 001c 00       		.byte	0
 6672 001d 00       		.byte	0
ARM GAS  C:\Users\AFDHAL~1\AppData\Local\Temp\ccKZJoZj.s 			page 143


 6673 001e 03       		.uleb128 0x3
 6674 001f 24       		.uleb128 0x24
 6675 0020 00       		.byte	0
 6676 0021 0B       		.uleb128 0xb
 6677 0022 0B       		.uleb128 0xb
 6678 0023 3E       		.uleb128 0x3e
 6679 0024 0B       		.uleb128 0xb
 6680 0025 03       		.uleb128 0x3
 6681 0026 08       		.uleb128 0x8
 6682 0027 00       		.byte	0
 6683 0028 00       		.byte	0
 6684 0029 04       		.uleb128 0x4
 6685 002a 0F       		.uleb128 0xf
 6686 002b 00       		.byte	0
 6687 002c 0B       		.uleb128 0xb
 6688 002d 0B       		.uleb128 0xb
 6689 002e 49       		.uleb128 0x49
 6690 002f 13       		.uleb128 0x13
 6691 0030 00       		.byte	0
 6692 0031 00       		.byte	0
 6693 0032 05       		.uleb128 0x5
 6694 0033 04       		.uleb128 0x4
 6695 0034 01       		.byte	0x1
 6696 0035 0B       		.uleb128 0xb
 6697 0036 0B       		.uleb128 0xb
 6698 0037 49       		.uleb128 0x49
 6699 0038 13       		.uleb128 0x13
 6700 0039 3A       		.uleb128 0x3a
 6701 003a 0B       		.uleb128 0xb
 6702 003b 3B       		.uleb128 0x3b
 6703 003c 0B       		.uleb128 0xb
 6704 003d 01       		.uleb128 0x1
 6705 003e 13       		.uleb128 0x13
 6706 003f 00       		.byte	0
 6707 0040 00       		.byte	0
 6708 0041 06       		.uleb128 0x6
 6709 0042 28       		.uleb128 0x28
 6710 0043 00       		.byte	0
 6711 0044 03       		.uleb128 0x3
 6712 0045 0E       		.uleb128 0xe
 6713 0046 1C       		.uleb128 0x1c
 6714 0047 0B       		.uleb128 0xb
 6715 0048 00       		.byte	0
 6716 0049 00       		.byte	0
 6717 004a 07       		.uleb128 0x7
 6718 004b 28       		.uleb128 0x28
 6719 004c 00       		.byte	0
 6720 004d 03       		.uleb128 0x3
 6721 004e 0E       		.uleb128 0xe
 6722 004f 1C       		.uleb128 0x1c
 6723 0050 05       		.uleb128 0x5
 6724 0051 00       		.byte	0
 6725 0052 00       		.byte	0
 6726 0053 08       		.uleb128 0x8
 6727 0054 28       		.uleb128 0x28
 6728 0055 00       		.byte	0
 6729 0056 03       		.uleb128 0x3
ARM GAS  C:\Users\AFDHAL~1\AppData\Local\Temp\ccKZJoZj.s 			page 144


 6730 0057 0E       		.uleb128 0xe
 6731 0058 1C       		.uleb128 0x1c
 6732 0059 0D       		.uleb128 0xd
 6733 005a 00       		.byte	0
 6734 005b 00       		.byte	0
 6735 005c 09       		.uleb128 0x9
 6736 005d 2E       		.uleb128 0x2e
 6737 005e 01       		.byte	0x1
 6738 005f 3F       		.uleb128 0x3f
 6739 0060 19       		.uleb128 0x19
 6740 0061 03       		.uleb128 0x3
 6741 0062 08       		.uleb128 0x8
 6742 0063 3A       		.uleb128 0x3a
 6743 0064 0B       		.uleb128 0xb
 6744 0065 3B       		.uleb128 0x3b
 6745 0066 0B       		.uleb128 0xb
 6746 0067 27       		.uleb128 0x27
 6747 0068 19       		.uleb128 0x19
 6748 0069 49       		.uleb128 0x49
 6749 006a 13       		.uleb128 0x13
 6750 006b 20       		.uleb128 0x20
 6751 006c 0B       		.uleb128 0xb
 6752 006d 01       		.uleb128 0x1
 6753 006e 13       		.uleb128 0x13
 6754 006f 00       		.byte	0
 6755 0070 00       		.byte	0
 6756 0071 0A       		.uleb128 0xa
 6757 0072 05       		.uleb128 0x5
 6758 0073 00       		.byte	0
 6759 0074 03       		.uleb128 0x3
 6760 0075 08       		.uleb128 0x8
 6761 0076 3A       		.uleb128 0x3a
 6762 0077 0B       		.uleb128 0xb
 6763 0078 3B       		.uleb128 0x3b
 6764 0079 0B       		.uleb128 0xb
 6765 007a 49       		.uleb128 0x49
 6766 007b 13       		.uleb128 0x13
 6767 007c 00       		.byte	0
 6768 007d 00       		.byte	0
 6769 007e 0B       		.uleb128 0xb
 6770 007f 05       		.uleb128 0x5
 6771 0080 00       		.byte	0
 6772 0081 03       		.uleb128 0x3
 6773 0082 0E       		.uleb128 0xe
 6774 0083 3A       		.uleb128 0x3a
 6775 0084 0B       		.uleb128 0xb
 6776 0085 3B       		.uleb128 0x3b
 6777 0086 0B       		.uleb128 0xb
 6778 0087 49       		.uleb128 0x49
 6779 0088 13       		.uleb128 0x13
 6780 0089 00       		.byte	0
 6781 008a 00       		.byte	0
 6782 008b 0C       		.uleb128 0xc
 6783 008c 34       		.uleb128 0x34
 6784 008d 00       		.byte	0
 6785 008e 03       		.uleb128 0x3
 6786 008f 08       		.uleb128 0x8
ARM GAS  C:\Users\AFDHAL~1\AppData\Local\Temp\ccKZJoZj.s 			page 145


 6787 0090 3A       		.uleb128 0x3a
 6788 0091 0B       		.uleb128 0xb
 6789 0092 3B       		.uleb128 0x3b
 6790 0093 0B       		.uleb128 0xb
 6791 0094 49       		.uleb128 0x49
 6792 0095 13       		.uleb128 0x13
 6793 0096 00       		.byte	0
 6794 0097 00       		.byte	0
 6795 0098 0D       		.uleb128 0xd
 6796 0099 34       		.uleb128 0x34
 6797 009a 00       		.byte	0
 6798 009b 03       		.uleb128 0x3
 6799 009c 0E       		.uleb128 0xe
 6800 009d 3A       		.uleb128 0x3a
 6801 009e 0B       		.uleb128 0xb
 6802 009f 3B       		.uleb128 0x3b
 6803 00a0 0B       		.uleb128 0xb
 6804 00a1 49       		.uleb128 0x49
 6805 00a2 13       		.uleb128 0x13
 6806 00a3 00       		.byte	0
 6807 00a4 00       		.byte	0
 6808 00a5 0E       		.uleb128 0xe
 6809 00a6 2E       		.uleb128 0x2e
 6810 00a7 01       		.byte	0x1
 6811 00a8 3F       		.uleb128 0x3f
 6812 00a9 19       		.uleb128 0x19
 6813 00aa 03       		.uleb128 0x3
 6814 00ab 0E       		.uleb128 0xe
 6815 00ac 3A       		.uleb128 0x3a
 6816 00ad 0B       		.uleb128 0xb
 6817 00ae 3B       		.uleb128 0x3b
 6818 00af 05       		.uleb128 0x5
 6819 00b0 27       		.uleb128 0x27
 6820 00b1 19       		.uleb128 0x19
 6821 00b2 49       		.uleb128 0x49
 6822 00b3 13       		.uleb128 0x13
 6823 00b4 20       		.uleb128 0x20
 6824 00b5 0B       		.uleb128 0xb
 6825 00b6 01       		.uleb128 0x1
 6826 00b7 13       		.uleb128 0x13
 6827 00b8 00       		.byte	0
 6828 00b9 00       		.byte	0
 6829 00ba 0F       		.uleb128 0xf
 6830 00bb 05       		.uleb128 0x5
 6831 00bc 00       		.byte	0
 6832 00bd 03       		.uleb128 0x3
 6833 00be 0E       		.uleb128 0xe
 6834 00bf 3A       		.uleb128 0x3a
 6835 00c0 0B       		.uleb128 0xb
 6836 00c1 3B       		.uleb128 0x3b
 6837 00c2 05       		.uleb128 0x5
 6838 00c3 49       		.uleb128 0x49
 6839 00c4 13       		.uleb128 0x13
 6840 00c5 00       		.byte	0
 6841 00c6 00       		.byte	0
 6842 00c7 10       		.uleb128 0x10
 6843 00c8 34       		.uleb128 0x34
ARM GAS  C:\Users\AFDHAL~1\AppData\Local\Temp\ccKZJoZj.s 			page 146


 6844 00c9 00       		.byte	0
 6845 00ca 03       		.uleb128 0x3
 6846 00cb 08       		.uleb128 0x8
 6847 00cc 3A       		.uleb128 0x3a
 6848 00cd 0B       		.uleb128 0xb
 6849 00ce 3B       		.uleb128 0x3b
 6850 00cf 05       		.uleb128 0x5
 6851 00d0 49       		.uleb128 0x49
 6852 00d1 13       		.uleb128 0x13
 6853 00d2 00       		.byte	0
 6854 00d3 00       		.byte	0
 6855 00d4 11       		.uleb128 0x11
 6856 00d5 34       		.uleb128 0x34
 6857 00d6 00       		.byte	0
 6858 00d7 03       		.uleb128 0x3
 6859 00d8 0E       		.uleb128 0xe
 6860 00d9 3A       		.uleb128 0x3a
 6861 00da 0B       		.uleb128 0xb
 6862 00db 3B       		.uleb128 0x3b
 6863 00dc 05       		.uleb128 0x5
 6864 00dd 49       		.uleb128 0x49
 6865 00de 13       		.uleb128 0x13
 6866 00df 00       		.byte	0
 6867 00e0 00       		.byte	0
 6868 00e1 12       		.uleb128 0x12
 6869 00e2 2E       		.uleb128 0x2e
 6870 00e3 01       		.byte	0x1
 6871 00e4 3F       		.uleb128 0x3f
 6872 00e5 19       		.uleb128 0x19
 6873 00e6 03       		.uleb128 0x3
 6874 00e7 0E       		.uleb128 0xe
 6875 00e8 3A       		.uleb128 0x3a
 6876 00e9 0B       		.uleb128 0xb
 6877 00ea 3B       		.uleb128 0x3b
 6878 00eb 0B       		.uleb128 0xb
 6879 00ec 27       		.uleb128 0x27
 6880 00ed 19       		.uleb128 0x19
 6881 00ee 20       		.uleb128 0x20
 6882 00ef 0B       		.uleb128 0xb
 6883 00f0 01       		.uleb128 0x1
 6884 00f1 13       		.uleb128 0x13
 6885 00f2 00       		.byte	0
 6886 00f3 00       		.byte	0
 6887 00f4 13       		.uleb128 0x13
 6888 00f5 2E       		.uleb128 0x2e
 6889 00f6 01       		.byte	0x1
 6890 00f7 31       		.uleb128 0x31
 6891 00f8 13       		.uleb128 0x13
 6892 00f9 11       		.uleb128 0x11
 6893 00fa 01       		.uleb128 0x1
 6894 00fb 12       		.uleb128 0x12
 6895 00fc 06       		.uleb128 0x6
 6896 00fd 40       		.uleb128 0x40
 6897 00fe 18       		.uleb128 0x18
 6898 00ff 9742     		.uleb128 0x2117
 6899 0101 19       		.uleb128 0x19
 6900 0102 01       		.uleb128 0x1
ARM GAS  C:\Users\AFDHAL~1\AppData\Local\Temp\ccKZJoZj.s 			page 147


 6901 0103 13       		.uleb128 0x13
 6902 0104 00       		.byte	0
 6903 0105 00       		.byte	0
 6904 0106 14       		.uleb128 0x14
 6905 0107 05       		.uleb128 0x5
 6906 0108 00       		.byte	0
 6907 0109 31       		.uleb128 0x31
 6908 010a 13       		.uleb128 0x13
 6909 010b 02       		.uleb128 0x2
 6910 010c 17       		.uleb128 0x17
 6911 010d 00       		.byte	0
 6912 010e 00       		.byte	0
 6913 010f 15       		.uleb128 0x15
 6914 0110 05       		.uleb128 0x5
 6915 0111 00       		.byte	0
 6916 0112 31       		.uleb128 0x31
 6917 0113 13       		.uleb128 0x13
 6918 0114 02       		.uleb128 0x2
 6919 0115 18       		.uleb128 0x18
 6920 0116 00       		.byte	0
 6921 0117 00       		.byte	0
 6922 0118 16       		.uleb128 0x16
 6923 0119 34       		.uleb128 0x34
 6924 011a 00       		.byte	0
 6925 011b 31       		.uleb128 0x31
 6926 011c 13       		.uleb128 0x13
 6927 011d 02       		.uleb128 0x2
 6928 011e 17       		.uleb128 0x17
 6929 011f 00       		.byte	0
 6930 0120 00       		.byte	0
 6931 0121 17       		.uleb128 0x17
 6932 0122 34       		.uleb128 0x34
 6933 0123 00       		.byte	0
 6934 0124 31       		.uleb128 0x31
 6935 0125 13       		.uleb128 0x13
 6936 0126 00       		.byte	0
 6937 0127 00       		.byte	0
 6938 0128 18       		.uleb128 0x18
 6939 0129 1D       		.uleb128 0x1d
 6940 012a 01       		.byte	0x1
 6941 012b 31       		.uleb128 0x31
 6942 012c 13       		.uleb128 0x13
 6943 012d 52       		.uleb128 0x52
 6944 012e 01       		.uleb128 0x1
 6945 012f 55       		.uleb128 0x55
 6946 0130 17       		.uleb128 0x17
 6947 0131 58       		.uleb128 0x58
 6948 0132 0B       		.uleb128 0xb
 6949 0133 59       		.uleb128 0x59
 6950 0134 0B       		.uleb128 0xb
 6951 0135 00       		.byte	0
 6952 0136 00       		.byte	0
 6953 0137 19       		.uleb128 0x19
 6954 0138 0B       		.uleb128 0xb
 6955 0139 01       		.byte	0x1
 6956 013a 55       		.uleb128 0x55
 6957 013b 17       		.uleb128 0x17
ARM GAS  C:\Users\AFDHAL~1\AppData\Local\Temp\ccKZJoZj.s 			page 148


 6958 013c 00       		.byte	0
 6959 013d 00       		.byte	0
 6960 013e 1A       		.uleb128 0x1a
 6961 013f 1D       		.uleb128 0x1d
 6962 0140 01       		.byte	0x1
 6963 0141 31       		.uleb128 0x31
 6964 0142 13       		.uleb128 0x13
 6965 0143 52       		.uleb128 0x52
 6966 0144 01       		.uleb128 0x1
 6967 0145 55       		.uleb128 0x55
 6968 0146 17       		.uleb128 0x17
 6969 0147 58       		.uleb128 0x58
 6970 0148 0B       		.uleb128 0xb
 6971 0149 59       		.uleb128 0x59
 6972 014a 05       		.uleb128 0x5
 6973 014b 01       		.uleb128 0x1
 6974 014c 13       		.uleb128 0x13
 6975 014d 00       		.byte	0
 6976 014e 00       		.byte	0
 6977 014f 1B       		.uleb128 0x1b
 6978 0150 1D       		.uleb128 0x1d
 6979 0151 01       		.byte	0x1
 6980 0152 31       		.uleb128 0x31
 6981 0153 13       		.uleb128 0x13
 6982 0154 11       		.uleb128 0x11
 6983 0155 01       		.uleb128 0x1
 6984 0156 12       		.uleb128 0x12
 6985 0157 06       		.uleb128 0x6
 6986 0158 58       		.uleb128 0x58
 6987 0159 0B       		.uleb128 0xb
 6988 015a 59       		.uleb128 0x59
 6989 015b 0B       		.uleb128 0xb
 6990 015c 00       		.byte	0
 6991 015d 00       		.byte	0
 6992 015e 1C       		.uleb128 0x1c
 6993 015f 05       		.uleb128 0x5
 6994 0160 00       		.byte	0
 6995 0161 31       		.uleb128 0x31
 6996 0162 13       		.uleb128 0x13
 6997 0163 00       		.byte	0
 6998 0164 00       		.byte	0
 6999 0165 1D       		.uleb128 0x1d
 7000 0166 0B       		.uleb128 0xb
 7001 0167 01       		.byte	0x1
 7002 0168 11       		.uleb128 0x11
 7003 0169 01       		.uleb128 0x1
 7004 016a 12       		.uleb128 0x12
 7005 016b 06       		.uleb128 0x6
 7006 016c 00       		.byte	0
 7007 016d 00       		.byte	0
 7008 016e 1E       		.uleb128 0x1e
 7009 016f 898201   		.uleb128 0x4109
 7010 0172 00       		.byte	0
 7011 0173 11       		.uleb128 0x11
 7012 0174 01       		.uleb128 0x1
 7013 0175 31       		.uleb128 0x31
 7014 0176 13       		.uleb128 0x13
ARM GAS  C:\Users\AFDHAL~1\AppData\Local\Temp\ccKZJoZj.s 			page 149


 7015 0177 00       		.byte	0
 7016 0178 00       		.byte	0
 7017 0179 1F       		.uleb128 0x1f
 7018 017a 2E       		.uleb128 0x2e
 7019 017b 01       		.byte	0x1
 7020 017c 3F       		.uleb128 0x3f
 7021 017d 19       		.uleb128 0x19
 7022 017e 03       		.uleb128 0x3
 7023 017f 0E       		.uleb128 0xe
 7024 0180 3A       		.uleb128 0x3a
 7025 0181 0B       		.uleb128 0xb
 7026 0182 3B       		.uleb128 0x3b
 7027 0183 05       		.uleb128 0x5
 7028 0184 27       		.uleb128 0x27
 7029 0185 19       		.uleb128 0x19
 7030 0186 49       		.uleb128 0x49
 7031 0187 13       		.uleb128 0x13
 7032 0188 11       		.uleb128 0x11
 7033 0189 01       		.uleb128 0x1
 7034 018a 12       		.uleb128 0x12
 7035 018b 06       		.uleb128 0x6
 7036 018c 40       		.uleb128 0x40
 7037 018d 18       		.uleb128 0x18
 7038 018e 9742     		.uleb128 0x2117
 7039 0190 19       		.uleb128 0x19
 7040 0191 01       		.uleb128 0x1
 7041 0192 13       		.uleb128 0x13
 7042 0193 00       		.byte	0
 7043 0194 00       		.byte	0
 7044 0195 20       		.uleb128 0x20
 7045 0196 05       		.uleb128 0x5
 7046 0197 00       		.byte	0
 7047 0198 03       		.uleb128 0x3
 7048 0199 0E       		.uleb128 0xe
 7049 019a 3A       		.uleb128 0x3a
 7050 019b 0B       		.uleb128 0xb
 7051 019c 3B       		.uleb128 0x3b
 7052 019d 05       		.uleb128 0x5
 7053 019e 49       		.uleb128 0x49
 7054 019f 13       		.uleb128 0x13
 7055 01a0 02       		.uleb128 0x2
 7056 01a1 17       		.uleb128 0x17
 7057 01a2 00       		.byte	0
 7058 01a3 00       		.byte	0
 7059 01a4 21       		.uleb128 0x21
 7060 01a5 34       		.uleb128 0x34
 7061 01a6 00       		.byte	0
 7062 01a7 03       		.uleb128 0x3
 7063 01a8 0E       		.uleb128 0xe
 7064 01a9 3A       		.uleb128 0x3a
 7065 01aa 0B       		.uleb128 0xb
 7066 01ab 3B       		.uleb128 0x3b
 7067 01ac 05       		.uleb128 0x5
 7068 01ad 49       		.uleb128 0x49
 7069 01ae 13       		.uleb128 0x13
 7070 01af 02       		.uleb128 0x2
 7071 01b0 17       		.uleb128 0x17
ARM GAS  C:\Users\AFDHAL~1\AppData\Local\Temp\ccKZJoZj.s 			page 150


 7072 01b1 00       		.byte	0
 7073 01b2 00       		.byte	0
 7074 01b3 22       		.uleb128 0x22
 7075 01b4 1D       		.uleb128 0x1d
 7076 01b5 01       		.byte	0x1
 7077 01b6 31       		.uleb128 0x31
 7078 01b7 13       		.uleb128 0x13
 7079 01b8 52       		.uleb128 0x52
 7080 01b9 01       		.uleb128 0x1
 7081 01ba 55       		.uleb128 0x55
 7082 01bb 17       		.uleb128 0x17
 7083 01bc 58       		.uleb128 0x58
 7084 01bd 0B       		.uleb128 0xb
 7085 01be 59       		.uleb128 0x59
 7086 01bf 05       		.uleb128 0x5
 7087 01c0 00       		.byte	0
 7088 01c1 00       		.byte	0
 7089 01c2 23       		.uleb128 0x23
 7090 01c3 34       		.uleb128 0x34
 7091 01c4 00       		.byte	0
 7092 01c5 03       		.uleb128 0x3
 7093 01c6 0E       		.uleb128 0xe
 7094 01c7 3A       		.uleb128 0x3a
 7095 01c8 0B       		.uleb128 0xb
 7096 01c9 3B       		.uleb128 0x3b
 7097 01ca 05       		.uleb128 0x5
 7098 01cb 49       		.uleb128 0x49
 7099 01cc 13       		.uleb128 0x13
 7100 01cd 1C       		.uleb128 0x1c
 7101 01ce 0B       		.uleb128 0xb
 7102 01cf 00       		.byte	0
 7103 01d0 00       		.byte	0
 7104 01d1 24       		.uleb128 0x24
 7105 01d2 34       		.uleb128 0x34
 7106 01d3 00       		.byte	0
 7107 01d4 03       		.uleb128 0x3
 7108 01d5 0E       		.uleb128 0xe
 7109 01d6 3A       		.uleb128 0x3a
 7110 01d7 0B       		.uleb128 0xb
 7111 01d8 3B       		.uleb128 0x3b
 7112 01d9 05       		.uleb128 0x5
 7113 01da 49       		.uleb128 0x49
 7114 01db 13       		.uleb128 0x13
 7115 01dc 02       		.uleb128 0x2
 7116 01dd 18       		.uleb128 0x18
 7117 01de 00       		.byte	0
 7118 01df 00       		.byte	0
 7119 01e0 25       		.uleb128 0x25
 7120 01e1 05       		.uleb128 0x5
 7121 01e2 00       		.byte	0
 7122 01e3 31       		.uleb128 0x31
 7123 01e4 13       		.uleb128 0x13
 7124 01e5 1C       		.uleb128 0x1c
 7125 01e6 0B       		.uleb128 0xb
 7126 01e7 00       		.byte	0
 7127 01e8 00       		.byte	0
 7128 01e9 26       		.uleb128 0x26
ARM GAS  C:\Users\AFDHAL~1\AppData\Local\Temp\ccKZJoZj.s 			page 151


 7129 01ea 01       		.uleb128 0x1
 7130 01eb 01       		.byte	0x1
 7131 01ec 49       		.uleb128 0x49
 7132 01ed 13       		.uleb128 0x13
 7133 01ee 01       		.uleb128 0x1
 7134 01ef 13       		.uleb128 0x13
 7135 01f0 00       		.byte	0
 7136 01f1 00       		.byte	0
 7137 01f2 27       		.uleb128 0x27
 7138 01f3 21       		.uleb128 0x21
 7139 01f4 00       		.byte	0
 7140 01f5 49       		.uleb128 0x49
 7141 01f6 13       		.uleb128 0x13
 7142 01f7 2F       		.uleb128 0x2f
 7143 01f8 0B       		.uleb128 0xb
 7144 01f9 00       		.byte	0
 7145 01fa 00       		.byte	0
 7146 01fb 28       		.uleb128 0x28
 7147 01fc 34       		.uleb128 0x34
 7148 01fd 00       		.byte	0
 7149 01fe 31       		.uleb128 0x31
 7150 01ff 13       		.uleb128 0x13
 7151 0200 1C       		.uleb128 0x1c
 7152 0201 0B       		.uleb128 0xb
 7153 0202 00       		.byte	0
 7154 0203 00       		.byte	0
 7155 0204 29       		.uleb128 0x29
 7156 0205 34       		.uleb128 0x34
 7157 0206 00       		.byte	0
 7158 0207 31       		.uleb128 0x31
 7159 0208 13       		.uleb128 0x13
 7160 0209 02       		.uleb128 0x2
 7161 020a 18       		.uleb128 0x18
 7162 020b 00       		.byte	0
 7163 020c 00       		.byte	0
 7164 020d 2A       		.uleb128 0x2a
 7165 020e 1D       		.uleb128 0x1d
 7166 020f 01       		.byte	0x1
 7167 0210 31       		.uleb128 0x31
 7168 0211 13       		.uleb128 0x13
 7169 0212 11       		.uleb128 0x11
 7170 0213 01       		.uleb128 0x1
 7171 0214 12       		.uleb128 0x12
 7172 0215 06       		.uleb128 0x6
 7173 0216 58       		.uleb128 0x58
 7174 0217 0B       		.uleb128 0xb
 7175 0218 59       		.uleb128 0x59
 7176 0219 05       		.uleb128 0x5
 7177 021a 00       		.byte	0
 7178 021b 00       		.byte	0
 7179 021c 2B       		.uleb128 0x2b
 7180 021d 1D       		.uleb128 0x1d
 7181 021e 01       		.byte	0x1
 7182 021f 31       		.uleb128 0x31
 7183 0220 13       		.uleb128 0x13
 7184 0221 11       		.uleb128 0x11
 7185 0222 01       		.uleb128 0x1
ARM GAS  C:\Users\AFDHAL~1\AppData\Local\Temp\ccKZJoZj.s 			page 152


 7186 0223 12       		.uleb128 0x12
 7187 0224 06       		.uleb128 0x6
 7188 0225 58       		.uleb128 0x58
 7189 0226 0B       		.uleb128 0xb
 7190 0227 59       		.uleb128 0x59
 7191 0228 05       		.uleb128 0x5
 7192 0229 01       		.uleb128 0x1
 7193 022a 13       		.uleb128 0x13
 7194 022b 00       		.byte	0
 7195 022c 00       		.byte	0
 7196 022d 2C       		.uleb128 0x2c
 7197 022e 34       		.uleb128 0x34
 7198 022f 00       		.byte	0
 7199 0230 03       		.uleb128 0x3
 7200 0231 08       		.uleb128 0x8
 7201 0232 3A       		.uleb128 0x3a
 7202 0233 0B       		.uleb128 0xb
 7203 0234 3B       		.uleb128 0x3b
 7204 0235 05       		.uleb128 0x5
 7205 0236 49       		.uleb128 0x49
 7206 0237 13       		.uleb128 0x13
 7207 0238 02       		.uleb128 0x2
 7208 0239 17       		.uleb128 0x17
 7209 023a 00       		.byte	0
 7210 023b 00       		.byte	0
 7211 023c 2D       		.uleb128 0x2d
 7212 023d 0B       		.uleb128 0xb
 7213 023e 01       		.byte	0x1
 7214 023f 11       		.uleb128 0x11
 7215 0240 01       		.uleb128 0x1
 7216 0241 12       		.uleb128 0x12
 7217 0242 06       		.uleb128 0x6
 7218 0243 01       		.uleb128 0x1
 7219 0244 13       		.uleb128 0x13
 7220 0245 00       		.byte	0
 7221 0246 00       		.byte	0
 7222 0247 2E       		.uleb128 0x2e
 7223 0248 898201   		.uleb128 0x4109
 7224 024b 01       		.byte	0x1
 7225 024c 11       		.uleb128 0x11
 7226 024d 01       		.uleb128 0x1
 7227 024e 31       		.uleb128 0x31
 7228 024f 13       		.uleb128 0x13
 7229 0250 00       		.byte	0
 7230 0251 00       		.byte	0
 7231 0252 2F       		.uleb128 0x2f
 7232 0253 8A8201   		.uleb128 0x410a
 7233 0256 00       		.byte	0
 7234 0257 02       		.uleb128 0x2
 7235 0258 18       		.uleb128 0x18
 7236 0259 9142     		.uleb128 0x2111
 7237 025b 18       		.uleb128 0x18
 7238 025c 00       		.byte	0
 7239 025d 00       		.byte	0
 7240 025e 30       		.uleb128 0x30
 7241 025f 898201   		.uleb128 0x4109
 7242 0262 01       		.byte	0x1
ARM GAS  C:\Users\AFDHAL~1\AppData\Local\Temp\ccKZJoZj.s 			page 153


 7243 0263 11       		.uleb128 0x11
 7244 0264 01       		.uleb128 0x1
 7245 0265 31       		.uleb128 0x31
 7246 0266 13       		.uleb128 0x13
 7247 0267 01       		.uleb128 0x1
 7248 0268 13       		.uleb128 0x13
 7249 0269 00       		.byte	0
 7250 026a 00       		.byte	0
 7251 026b 31       		.uleb128 0x31
 7252 026c 34       		.uleb128 0x34
 7253 026d 00       		.byte	0
 7254 026e 03       		.uleb128 0x3
 7255 026f 0E       		.uleb128 0xe
 7256 0270 3A       		.uleb128 0x3a
 7257 0271 0B       		.uleb128 0xb
 7258 0272 3B       		.uleb128 0x3b
 7259 0273 0B       		.uleb128 0xb
 7260 0274 49       		.uleb128 0x49
 7261 0275 13       		.uleb128 0x13
 7262 0276 3F       		.uleb128 0x3f
 7263 0277 19       		.uleb128 0x19
 7264 0278 3C       		.uleb128 0x3c
 7265 0279 19       		.uleb128 0x19
 7266 027a 00       		.byte	0
 7267 027b 00       		.byte	0
 7268 027c 32       		.uleb128 0x32
 7269 027d 35       		.uleb128 0x35
 7270 027e 00       		.byte	0
 7271 027f 49       		.uleb128 0x49
 7272 0280 13       		.uleb128 0x13
 7273 0281 00       		.byte	0
 7274 0282 00       		.byte	0
 7275 0283 33       		.uleb128 0x33
 7276 0284 34       		.uleb128 0x34
 7277 0285 00       		.byte	0
 7278 0286 03       		.uleb128 0x3
 7279 0287 0E       		.uleb128 0xe
 7280 0288 3A       		.uleb128 0x3a
 7281 0289 0B       		.uleb128 0xb
 7282 028a 3B       		.uleb128 0x3b
 7283 028b 0B       		.uleb128 0xb
 7284 028c 49       		.uleb128 0x49
 7285 028d 13       		.uleb128 0x13
 7286 028e 3F       		.uleb128 0x3f
 7287 028f 19       		.uleb128 0x19
 7288 0290 02       		.uleb128 0x2
 7289 0291 18       		.uleb128 0x18
 7290 0292 00       		.byte	0
 7291 0293 00       		.byte	0
 7292 0294 34       		.uleb128 0x34
 7293 0295 26       		.uleb128 0x26
 7294 0296 00       		.byte	0
 7295 0297 49       		.uleb128 0x49
 7296 0298 13       		.uleb128 0x13
 7297 0299 00       		.byte	0
 7298 029a 00       		.byte	0
 7299 029b 35       		.uleb128 0x35
ARM GAS  C:\Users\AFDHAL~1\AppData\Local\Temp\ccKZJoZj.s 			page 154


 7300 029c 34       		.uleb128 0x34
 7301 029d 00       		.byte	0
 7302 029e 03       		.uleb128 0x3
 7303 029f 0E       		.uleb128 0xe
 7304 02a0 3A       		.uleb128 0x3a
 7305 02a1 0B       		.uleb128 0xb
 7306 02a2 3B       		.uleb128 0x3b
 7307 02a3 05       		.uleb128 0x5
 7308 02a4 49       		.uleb128 0x49
 7309 02a5 13       		.uleb128 0x13
 7310 02a6 3F       		.uleb128 0x3f
 7311 02a7 19       		.uleb128 0x19
 7312 02a8 02       		.uleb128 0x2
 7313 02a9 18       		.uleb128 0x18
 7314 02aa 00       		.byte	0
 7315 02ab 00       		.byte	0
 7316 02ac 36       		.uleb128 0x36
 7317 02ad 34       		.uleb128 0x34
 7318 02ae 00       		.byte	0
 7319 02af 03       		.uleb128 0x3
 7320 02b0 08       		.uleb128 0x8
 7321 02b1 3A       		.uleb128 0x3a
 7322 02b2 0B       		.uleb128 0xb
 7323 02b3 3B       		.uleb128 0x3b
 7324 02b4 05       		.uleb128 0x5
 7325 02b5 49       		.uleb128 0x49
 7326 02b6 13       		.uleb128 0x13
 7327 02b7 3F       		.uleb128 0x3f
 7328 02b8 19       		.uleb128 0x19
 7329 02b9 02       		.uleb128 0x2
 7330 02ba 18       		.uleb128 0x18
 7331 02bb 00       		.byte	0
 7332 02bc 00       		.byte	0
 7333 02bd 37       		.uleb128 0x37
 7334 02be 2E       		.uleb128 0x2e
 7335 02bf 00       		.byte	0
 7336 02c0 3F       		.uleb128 0x3f
 7337 02c1 19       		.uleb128 0x19
 7338 02c2 3C       		.uleb128 0x3c
 7339 02c3 19       		.uleb128 0x19
 7340 02c4 6E       		.uleb128 0x6e
 7341 02c5 0E       		.uleb128 0xe
 7342 02c6 03       		.uleb128 0x3
 7343 02c7 0E       		.uleb128 0xe
 7344 02c8 3A       		.uleb128 0x3a
 7345 02c9 0B       		.uleb128 0xb
 7346 02ca 3B       		.uleb128 0x3b
 7347 02cb 05       		.uleb128 0x5
 7348 02cc 00       		.byte	0
 7349 02cd 00       		.byte	0
 7350 02ce 00       		.byte	0
 7351              		.section	.debug_loc,"",%progbits
 7352              	.Ldebug_loc0:
 7353              	.LLST0:
 7354 0000 00000000 		.4byte	.LVL0
 7355 0004 7C000000 		.4byte	.LVL3
 7356 0008 0100     		.2byte	0x1
ARM GAS  C:\Users\AFDHAL~1\AppData\Local\Temp\ccKZJoZj.s 			page 155


 7357 000a 50       		.byte	0x50
 7358 000b 7C000000 		.4byte	.LVL3
 7359 000f 86000000 		.4byte	.LVL5
 7360 0013 0400     		.2byte	0x4
 7361 0015 F3       		.byte	0xf3
 7362 0016 01       		.uleb128 0x1
 7363 0017 50       		.byte	0x50
 7364 0018 9F       		.byte	0x9f
 7365 0019 86000000 		.4byte	.LVL5
 7366 001d 88000000 		.4byte	.LVL6
 7367 0021 0100     		.2byte	0x1
 7368 0023 50       		.byte	0x50
 7369 0024 88000000 		.4byte	.LVL6
 7370 0028 94000000 		.4byte	.LFE34
 7371 002c 0400     		.2byte	0x4
 7372 002e F3       		.byte	0xf3
 7373 002f 01       		.uleb128 0x1
 7374 0030 50       		.byte	0x50
 7375 0031 9F       		.byte	0x9f
 7376 0032 00000000 		.4byte	0
 7377 0036 00000000 		.4byte	0
 7378              	.LLST1:
 7379 003a 00000000 		.4byte	.LVL0
 7380 003e 0C000000 		.4byte	.LVL1
 7381 0042 0100     		.2byte	0x1
 7382 0044 51       		.byte	0x51
 7383 0045 0C000000 		.4byte	.LVL1
 7384 0049 86000000 		.4byte	.LVL5
 7385 004d 0400     		.2byte	0x4
 7386 004f F3       		.byte	0xf3
 7387 0050 01       		.uleb128 0x1
 7388 0051 51       		.byte	0x51
 7389 0052 9F       		.byte	0x9f
 7390 0053 86000000 		.4byte	.LVL5
 7391 0057 94000000 		.4byte	.LFE34
 7392 005b 0100     		.2byte	0x1
 7393 005d 51       		.byte	0x51
 7394 005e 00000000 		.4byte	0
 7395 0062 00000000 		.4byte	0
 7396              	.LLST2:
 7397 0066 00000000 		.4byte	.LVL0
 7398 006a 0C000000 		.4byte	.LVL1
 7399 006e 0100     		.2byte	0x1
 7400 0070 51       		.byte	0x51
 7401 0071 76000000 		.4byte	.LVL2
 7402 0075 94000000 		.4byte	.LFE34
 7403 0079 0100     		.2byte	0x1
 7404 007b 51       		.byte	0x51
 7405 007c 00000000 		.4byte	0
 7406 0080 00000000 		.4byte	0
 7407              	.LLST3:
 7408 0084 76000000 		.4byte	.LVL2
 7409 0088 84000000 		.4byte	.LVL4
 7410 008c 0200     		.2byte	0x2
 7411 008e 39       		.byte	0x39
 7412 008f 9F       		.byte	0x9f
 7413 0090 00000000 		.4byte	0
ARM GAS  C:\Users\AFDHAL~1\AppData\Local\Temp\ccKZJoZj.s 			page 156


 7414 0094 00000000 		.4byte	0
 7415              	.LLST4:
 7416 0098 00000000 		.4byte	.LVL0
 7417 009c 0C000000 		.4byte	.LVL1
 7418 00a0 0400     		.2byte	0x4
 7419 00a2 0A       		.byte	0xa
 7420 00a3 FFFF     		.2byte	0xffff
 7421 00a5 9F       		.byte	0x9f
 7422 00a6 76000000 		.4byte	.LVL2
 7423 00aa 84000000 		.4byte	.LVL4
 7424 00ae 0100     		.2byte	0x1
 7425 00b0 55       		.byte	0x55
 7426 00b1 86000000 		.4byte	.LVL5
 7427 00b5 94000000 		.4byte	.LFE34
 7428 00b9 0400     		.2byte	0x4
 7429 00bb 0A       		.byte	0xa
 7430 00bc FFFF     		.2byte	0xffff
 7431 00be 9F       		.byte	0x9f
 7432 00bf 00000000 		.4byte	0
 7433 00c3 00000000 		.4byte	0
 7434              	.LLST5:
 7435 00c7 00000000 		.4byte	.LVL7
 7436 00cb 04000000 		.4byte	.LVL8
 7437 00cf 0100     		.2byte	0x1
 7438 00d1 51       		.byte	0x51
 7439 00d2 04000000 		.4byte	.LVL8
 7440 00d6 14000000 		.4byte	.LFE35
 7441 00da 0400     		.2byte	0x4
 7442 00dc F3       		.byte	0xf3
 7443 00dd 01       		.uleb128 0x1
 7444 00de 51       		.byte	0x51
 7445 00df 9F       		.byte	0x9f
 7446 00e0 00000000 		.4byte	0
 7447 00e4 00000000 		.4byte	0
 7448              	.LLST6:
 7449 00e8 00000000 		.4byte	.LVL9
 7450 00ec 06000000 		.4byte	.LVL10
 7451 00f0 0100     		.2byte	0x1
 7452 00f2 50       		.byte	0x50
 7453 00f3 06000000 		.4byte	.LVL10
 7454 00f7 1C000000 		.4byte	.LFE36
 7455 00fb 0200     		.2byte	0x2
 7456 00fd 73       		.byte	0x73
 7457 00fe 01       		.sleb128 1
 7458 00ff 00000000 		.4byte	0
 7459 0103 00000000 		.4byte	0
 7460              	.LLST7:
 7461 0107 00000000 		.4byte	.LVL9
 7462 010b 08000000 		.4byte	.LVL11
 7463 010f 0100     		.2byte	0x1
 7464 0111 51       		.byte	0x51
 7465 0112 08000000 		.4byte	.LVL11
 7466 0116 1C000000 		.4byte	.LFE36
 7467 011a 0400     		.2byte	0x4
 7468 011c F3       		.byte	0xf3
 7469 011d 01       		.uleb128 0x1
 7470 011e 51       		.byte	0x51
ARM GAS  C:\Users\AFDHAL~1\AppData\Local\Temp\ccKZJoZj.s 			page 157


 7471 011f 9F       		.byte	0x9f
 7472 0120 00000000 		.4byte	0
 7473 0124 00000000 		.4byte	0
 7474              	.LLST8:
 7475 0128 00000000 		.4byte	.LVL12
 7476 012c 0A000000 		.4byte	.LVL13
 7477 0130 0100     		.2byte	0x1
 7478 0132 50       		.byte	0x50
 7479 0133 0A000000 		.4byte	.LVL13
 7480 0137 1C000000 		.4byte	.LFE37
 7481 013b 0200     		.2byte	0x2
 7482 013d 73       		.byte	0x73
 7483 013e 01       		.sleb128 1
 7484 013f 00000000 		.4byte	0
 7485 0143 00000000 		.4byte	0
 7486              	.LLST9:
 7487 0147 00000000 		.4byte	.LVL12
 7488 014b 0E000000 		.4byte	.LVL14
 7489 014f 0100     		.2byte	0x1
 7490 0151 51       		.byte	0x51
 7491 0152 0E000000 		.4byte	.LVL14
 7492 0156 1C000000 		.4byte	.LFE37
 7493 015a 0400     		.2byte	0x4
 7494 015c F3       		.byte	0xf3
 7495 015d 01       		.uleb128 0x1
 7496 015e 51       		.byte	0x51
 7497 015f 9F       		.byte	0x9f
 7498 0160 00000000 		.4byte	0
 7499 0164 00000000 		.4byte	0
 7500              	.LLST10:
 7501 0168 00000000 		.4byte	.LVL15
 7502 016c 04000000 		.4byte	.LVL16
 7503 0170 0100     		.2byte	0x1
 7504 0172 50       		.byte	0x50
 7505 0173 04000000 		.4byte	.LVL16
 7506 0177 14000000 		.4byte	.LFE38
 7507 017b 0400     		.2byte	0x4
 7508 017d F3       		.byte	0xf3
 7509 017e 01       		.uleb128 0x1
 7510 017f 50       		.byte	0x50
 7511 0180 9F       		.byte	0x9f
 7512 0181 00000000 		.4byte	0
 7513 0185 00000000 		.4byte	0
 7514              	.LLST11:
 7515 0189 00000000 		.4byte	.LVL17
 7516 018d 18000000 		.4byte	.LVL18
 7517 0191 0100     		.2byte	0x1
 7518 0193 50       		.byte	0x50
 7519 0194 18000000 		.4byte	.LVL18
 7520 0198 9E000000 		.4byte	.LVL23
 7521 019c 0100     		.2byte	0x1
 7522 019e 5C       		.byte	0x5c
 7523 019f 9E000000 		.4byte	.LVL23
 7524 01a3 AC000000 		.4byte	.LFE39
 7525 01a7 0100     		.2byte	0x1
 7526 01a9 50       		.byte	0x50
 7527 01aa 00000000 		.4byte	0
ARM GAS  C:\Users\AFDHAL~1\AppData\Local\Temp\ccKZJoZj.s 			page 158


 7528 01ae 00000000 		.4byte	0
 7529              	.LLST12:
 7530 01b2 00000000 		.4byte	.LVL17
 7531 01b6 96000000 		.4byte	.LVL21
 7532 01ba 0100     		.2byte	0x1
 7533 01bc 51       		.byte	0x51
 7534 01bd 96000000 		.4byte	.LVL21
 7535 01c1 98000000 		.4byte	.LVL22
 7536 01c5 0300     		.2byte	0x3
 7537 01c7 71       		.byte	0x71
 7538 01c8 01       		.sleb128 1
 7539 01c9 9F       		.byte	0x9f
 7540 01ca 98000000 		.4byte	.LVL22
 7541 01ce 9E000000 		.4byte	.LVL23
 7542 01d2 0600     		.2byte	0x6
 7543 01d4 F3       		.byte	0xf3
 7544 01d5 01       		.uleb128 0x1
 7545 01d6 51       		.byte	0x51
 7546 01d7 23       		.byte	0x23
 7547 01d8 01       		.uleb128 0x1
 7548 01d9 9F       		.byte	0x9f
 7549 01da 9E000000 		.4byte	.LVL23
 7550 01de AC000000 		.4byte	.LFE39
 7551 01e2 0100     		.2byte	0x1
 7552 01e4 51       		.byte	0x51
 7553 01e5 00000000 		.4byte	0
 7554 01e9 00000000 		.4byte	0
 7555              	.LLST13:
 7556 01ed 00000000 		.4byte	.LVL17
 7557 01f1 92000000 		.4byte	.LVL20
 7558 01f5 0100     		.2byte	0x1
 7559 01f7 51       		.byte	0x51
 7560 01f8 9E000000 		.4byte	.LVL23
 7561 01fc AC000000 		.4byte	.LFE39
 7562 0200 0100     		.2byte	0x1
 7563 0202 51       		.byte	0x51
 7564 0203 00000000 		.4byte	0
 7565 0207 00000000 		.4byte	0
 7566              	.LLST14:
 7567 020b 00000000 		.4byte	.LVL17
 7568 020f 92000000 		.4byte	.LVL20
 7569 0213 0200     		.2byte	0x2
 7570 0215 30       		.byte	0x30
 7571 0216 9F       		.byte	0x9f
 7572 0217 9E000000 		.4byte	.LVL23
 7573 021b AC000000 		.4byte	.LFE39
 7574 021f 0200     		.2byte	0x2
 7575 0221 30       		.byte	0x30
 7576 0222 9F       		.byte	0x9f
 7577 0223 00000000 		.4byte	0
 7578 0227 00000000 		.4byte	0
 7579              	.LLST15:
 7580 022b 00000000 		.4byte	.LVL17
 7581 022f 18000000 		.4byte	.LVL18
 7582 0233 0100     		.2byte	0x1
 7583 0235 50       		.byte	0x50
 7584 0236 18000000 		.4byte	.LVL18
ARM GAS  C:\Users\AFDHAL~1\AppData\Local\Temp\ccKZJoZj.s 			page 159


 7585 023a 92000000 		.4byte	.LVL20
 7586 023e 0100     		.2byte	0x1
 7587 0240 5C       		.byte	0x5c
 7588 0241 9E000000 		.4byte	.LVL23
 7589 0245 AC000000 		.4byte	.LFE39
 7590 0249 0100     		.2byte	0x1
 7591 024b 50       		.byte	0x50
 7592 024c 00000000 		.4byte	0
 7593 0250 00000000 		.4byte	0
 7594              	.LLST16:
 7595 0254 00000000 		.4byte	.LVL17
 7596 0258 18000000 		.4byte	.LVL18
 7597 025c 0200     		.2byte	0x2
 7598 025e 30       		.byte	0x30
 7599 025f 9F       		.byte	0x9f
 7600 0260 9E000000 		.4byte	.LVL23
 7601 0264 AC000000 		.4byte	.LFE39
 7602 0268 0200     		.2byte	0x2
 7603 026a 30       		.byte	0x30
 7604 026b 9F       		.byte	0x9f
 7605 026c 00000000 		.4byte	0
 7606 0270 00000000 		.4byte	0
 7607              	.LLST17:
 7608 0274 80000000 		.4byte	.LVL19
 7609 0278 92000000 		.4byte	.LVL20
 7610 027c 0200     		.2byte	0x2
 7611 027e 39       		.byte	0x39
 7612 027f 9F       		.byte	0x9f
 7613 0280 00000000 		.4byte	0
 7614 0284 00000000 		.4byte	0
 7615              	.LLST18:
 7616 0288 00000000 		.4byte	.LVL17
 7617 028c 18000000 		.4byte	.LVL18
 7618 0290 0400     		.2byte	0x4
 7619 0292 0A       		.byte	0xa
 7620 0293 FFFF     		.2byte	0xffff
 7621 0295 9F       		.byte	0x9f
 7622 0296 80000000 		.4byte	.LVL19
 7623 029a 92000000 		.4byte	.LVL20
 7624 029e 0100     		.2byte	0x1
 7625 02a0 54       		.byte	0x54
 7626 02a1 9E000000 		.4byte	.LVL23
 7627 02a5 AC000000 		.4byte	.LFE39
 7628 02a9 0400     		.2byte	0x4
 7629 02ab 0A       		.byte	0xa
 7630 02ac FFFF     		.2byte	0xffff
 7631 02ae 9F       		.byte	0x9f
 7632 02af 00000000 		.4byte	0
 7633 02b3 00000000 		.4byte	0
 7634              	.LLST19:
 7635 02b7 00000000 		.4byte	.LVL24
 7636 02bb A8000000 		.4byte	.LVL31
 7637 02bf 0100     		.2byte	0x1
 7638 02c1 50       		.byte	0x50
 7639 02c2 A8000000 		.4byte	.LVL31
 7640 02c6 B8000000 		.4byte	.LVL35
 7641 02ca 0400     		.2byte	0x4
ARM GAS  C:\Users\AFDHAL~1\AppData\Local\Temp\ccKZJoZj.s 			page 160


 7642 02cc F3       		.byte	0xf3
 7643 02cd 01       		.uleb128 0x1
 7644 02ce 50       		.byte	0x50
 7645 02cf 9F       		.byte	0x9f
 7646 02d0 B8000000 		.4byte	.LVL35
 7647 02d4 C6000000 		.4byte	.LVL39
 7648 02d8 0100     		.2byte	0x1
 7649 02da 50       		.byte	0x50
 7650 02db C6000000 		.4byte	.LVL39
 7651 02df D0000000 		.4byte	.LFE40
 7652 02e3 0400     		.2byte	0x4
 7653 02e5 F3       		.byte	0xf3
 7654 02e6 01       		.uleb128 0x1
 7655 02e7 50       		.byte	0x50
 7656 02e8 9F       		.byte	0x9f
 7657 02e9 00000000 		.4byte	0
 7658 02ed 00000000 		.4byte	0
 7659              	.LLST20:
 7660 02f1 00000000 		.4byte	.LVL24
 7661 02f5 18000000 		.4byte	.LVL25
 7662 02f9 0100     		.2byte	0x1
 7663 02fb 51       		.byte	0x51
 7664 02fc 18000000 		.4byte	.LVL25
 7665 0300 9E000000 		.4byte	.LVL29
 7666 0304 0400     		.2byte	0x4
 7667 0306 F3       		.byte	0xf3
 7668 0307 01       		.uleb128 0x1
 7669 0308 51       		.byte	0x51
 7670 0309 9F       		.byte	0x9f
 7671 030a 9E000000 		.4byte	.LVL29
 7672 030e B6000000 		.4byte	.LVL34
 7673 0312 0100     		.2byte	0x1
 7674 0314 56       		.byte	0x56
 7675 0315 B8000000 		.4byte	.LVL35
 7676 0319 C0000000 		.4byte	.LVL37
 7677 031d 0100     		.2byte	0x1
 7678 031f 51       		.byte	0x51
 7679 0320 C0000000 		.4byte	.LVL37
 7680 0324 C4000000 		.4byte	.LVL38
 7681 0328 0200     		.2byte	0x2
 7682 032a 32       		.byte	0x32
 7683 032b 9F       		.byte	0x9f
 7684 032c C4000000 		.4byte	.LVL38
 7685 0330 D0000000 		.4byte	.LFE40
 7686 0334 0100     		.2byte	0x1
 7687 0336 56       		.byte	0x56
 7688 0337 00000000 		.4byte	0
 7689 033b 00000000 		.4byte	0
 7690              	.LLST21:
 7691 033f 9E000000 		.4byte	.LVL29
 7692 0343 A8000000 		.4byte	.LVL31
 7693 0347 0200     		.2byte	0x2
 7694 0349 30       		.byte	0x30
 7695 034a 9F       		.byte	0x9f
 7696 034b A8000000 		.4byte	.LVL31
 7697 034f AC000000 		.4byte	.LVL32
 7698 0353 0700     		.2byte	0x7
ARM GAS  C:\Users\AFDHAL~1\AppData\Local\Temp\ccKZJoZj.s 			page 161


 7699 0355 74       		.byte	0x74
 7700 0356 00       		.sleb128 0
 7701 0357 F3       		.byte	0xf3
 7702 0358 01       		.uleb128 0x1
 7703 0359 50       		.byte	0x50
 7704 035a 1C       		.byte	0x1c
 7705 035b 9F       		.byte	0x9f
 7706 035c C0000000 		.4byte	.LVL37
 7707 0360 D0000000 		.4byte	.LFE40
 7708 0364 0200     		.2byte	0x2
 7709 0366 30       		.byte	0x30
 7710 0367 9F       		.byte	0x9f
 7711 0368 00000000 		.4byte	0
 7712 036c 00000000 		.4byte	0
 7713              	.LLST22:
 7714 0370 00000000 		.4byte	.LVL24
 7715 0374 18000000 		.4byte	.LVL25
 7716 0378 0100     		.2byte	0x1
 7717 037a 51       		.byte	0x51
 7718 037b 18000000 		.4byte	.LVL25
 7719 037f 94000000 		.4byte	.LVL28
 7720 0383 0400     		.2byte	0x4
 7721 0385 F3       		.byte	0xf3
 7722 0386 01       		.uleb128 0x1
 7723 0387 51       		.byte	0x51
 7724 0388 9F       		.byte	0x9f
 7725 0389 B8000000 		.4byte	.LVL35
 7726 038d BE000000 		.4byte	.LVL36
 7727 0391 0100     		.2byte	0x1
 7728 0393 51       		.byte	0x51
 7729 0394 BE000000 		.4byte	.LVL36
 7730 0398 C0000000 		.4byte	.LVL37
 7731 039c 0200     		.2byte	0x2
 7732 039e 31       		.byte	0x31
 7733 039f 9F       		.byte	0x9f
 7734 03a0 00000000 		.4byte	0
 7735 03a4 00000000 		.4byte	0
 7736              	.LLST23:
 7737 03a8 00000000 		.4byte	.LVL24
 7738 03ac 9E000000 		.4byte	.LVL29
 7739 03b0 0100     		.2byte	0x1
 7740 03b2 50       		.byte	0x50
 7741 03b3 B8000000 		.4byte	.LVL35
 7742 03b7 C0000000 		.4byte	.LVL37
 7743 03bb 0100     		.2byte	0x1
 7744 03bd 50       		.byte	0x50
 7745 03be 00000000 		.4byte	0
 7746 03c2 00000000 		.4byte	0
 7747              	.LLST24:
 7748 03c6 00000000 		.4byte	.LVL24
 7749 03ca 18000000 		.4byte	.LVL25
 7750 03ce 0200     		.2byte	0x2
 7751 03d0 30       		.byte	0x30
 7752 03d1 9F       		.byte	0x9f
 7753 03d2 B8000000 		.4byte	.LVL35
 7754 03d6 C4000000 		.4byte	.LVL38
 7755 03da 0200     		.2byte	0x2
ARM GAS  C:\Users\AFDHAL~1\AppData\Local\Temp\ccKZJoZj.s 			page 162


 7756 03dc 30       		.byte	0x30
 7757 03dd 9F       		.byte	0x9f
 7758 03de 00000000 		.4byte	0
 7759 03e2 00000000 		.4byte	0
 7760              	.LLST25:
 7761 03e6 80000000 		.4byte	.LVL26
 7762 03ea 90000000 		.4byte	.LVL27
 7763 03ee 0200     		.2byte	0x2
 7764 03f0 39       		.byte	0x39
 7765 03f1 9F       		.byte	0x9f
 7766 03f2 00000000 		.4byte	0
 7767 03f6 00000000 		.4byte	0
 7768              	.LLST26:
 7769 03fa 00000000 		.4byte	.LVL24
 7770 03fe 18000000 		.4byte	.LVL25
 7771 0402 0400     		.2byte	0x4
 7772 0404 0A       		.byte	0xa
 7773 0405 FFFF     		.2byte	0xffff
 7774 0407 9F       		.byte	0x9f
 7775 0408 80000000 		.4byte	.LVL26
 7776 040c 90000000 		.4byte	.LVL27
 7777 0410 0100     		.2byte	0x1
 7778 0412 54       		.byte	0x54
 7779 0413 00000000 		.4byte	0
 7780 0417 00000000 		.4byte	0
 7781              	.LLST27:
 7782 041b 00000000 		.4byte	.LVL40
 7783 041f 0C000000 		.4byte	.LVL41
 7784 0423 0100     		.2byte	0x1
 7785 0425 50       		.byte	0x50
 7786 0426 0C000000 		.4byte	.LVL41
 7787 042a 22000000 		.4byte	.LVL47
 7788 042e 0100     		.2byte	0x1
 7789 0430 56       		.byte	0x56
 7790 0431 22000000 		.4byte	.LVL47
 7791 0435 24000000 		.4byte	.LVL48
 7792 0439 0400     		.2byte	0x4
 7793 043b F3       		.byte	0xf3
 7794 043c 01       		.uleb128 0x1
 7795 043d 50       		.byte	0x50
 7796 043e 9F       		.byte	0x9f
 7797 043f 24000000 		.4byte	.LVL48
 7798 0443 2A000000 		.4byte	.LFE41
 7799 0447 0100     		.2byte	0x1
 7800 0449 56       		.byte	0x56
 7801 044a 00000000 		.4byte	0
 7802 044e 00000000 		.4byte	0
 7803              	.LLST28:
 7804 0452 00000000 		.4byte	.LVL40
 7805 0456 0C000000 		.4byte	.LVL41
 7806 045a 0200     		.2byte	0x2
 7807 045c 30       		.byte	0x30
 7808 045d 9F       		.byte	0x9f
 7809 045e 0C000000 		.4byte	.LVL41
 7810 0462 22000000 		.4byte	.LVL46
 7811 0466 0100     		.2byte	0x1
 7812 0468 54       		.byte	0x54
ARM GAS  C:\Users\AFDHAL~1\AppData\Local\Temp\ccKZJoZj.s 			page 163


 7813 0469 24000000 		.4byte	.LVL48
 7814 046d 2A000000 		.4byte	.LFE41
 7815 0471 0100     		.2byte	0x1
 7816 0473 54       		.byte	0x54
 7817 0474 00000000 		.4byte	0
 7818 0478 00000000 		.4byte	0
 7819              	.LLST29:
 7820 047c 00000000 		.4byte	.LVL49
 7821 0480 0C000000 		.4byte	.LVL51
 7822 0484 0100     		.2byte	0x1
 7823 0486 50       		.byte	0x50
 7824 0487 0C000000 		.4byte	.LVL51
 7825 048b D0000000 		.4byte	.LVL67
 7826 048f 0100     		.2byte	0x1
 7827 0491 55       		.byte	0x55
 7828 0492 D0000000 		.4byte	.LVL67
 7829 0496 D2000000 		.4byte	.LVL68
 7830 049a 0400     		.2byte	0x4
 7831 049c F3       		.byte	0xf3
 7832 049d 01       		.uleb128 0x1
 7833 049e 50       		.byte	0x50
 7834 049f 9F       		.byte	0x9f
 7835 04a0 D2000000 		.4byte	.LVL68
 7836 04a4 EC000000 		.4byte	.LFE42
 7837 04a8 0100     		.2byte	0x1
 7838 04aa 55       		.byte	0x55
 7839 04ab 00000000 		.4byte	0
 7840 04af 00000000 		.4byte	0
 7841              	.LLST30:
 7842 04b3 00000000 		.4byte	.LVL49
 7843 04b7 B2000000 		.4byte	.LVL62
 7844 04bb 0200     		.2byte	0x2
 7845 04bd 30       		.byte	0x30
 7846 04be 9F       		.byte	0x9f
 7847 04bf D8000000 		.4byte	.LVL69
 7848 04c3 EC000000 		.4byte	.LFE42
 7849 04c7 0200     		.2byte	0x2
 7850 04c9 30       		.byte	0x30
 7851 04ca 9F       		.byte	0x9f
 7852 04cb 00000000 		.4byte	0
 7853 04cf 00000000 		.4byte	0
 7854              	.LLST31:
 7855 04d3 00000000 		.4byte	.LVL49
 7856 04d7 B8000000 		.4byte	.LVL63
 7857 04db 0200     		.2byte	0x2
 7858 04dd 30       		.byte	0x30
 7859 04de 9F       		.byte	0x9f
 7860 04df B8000000 		.4byte	.LVL63
 7861 04e3 BE000000 		.4byte	.LVL64
 7862 04e7 0100     		.2byte	0x1
 7863 04e9 52       		.byte	0x52
 7864 04ea BE000000 		.4byte	.LVL64
 7865 04ee C0000000 		.4byte	.LVL65
 7866 04f2 1000     		.2byte	0x10
 7867 04f4 75       		.byte	0x75
 7868 04f5 00       		.sleb128 0
 7869 04f6 74       		.byte	0x74
ARM GAS  C:\Users\AFDHAL~1\AppData\Local\Temp\ccKZJoZj.s 			page 164


 7870 04f7 00       		.sleb128 0
 7871 04f8 22       		.byte	0x22
 7872 04f9 31       		.byte	0x31
 7873 04fa 1C       		.byte	0x1c
 7874 04fb 94       		.byte	0x94
 7875 04fc 01       		.byte	0x1
 7876 04fd 08       		.byte	0x8
 7877 04fe FF       		.byte	0xff
 7878 04ff 1A       		.byte	0x1a
 7879 0500 72       		.byte	0x72
 7880 0501 00       		.sleb128 0
 7881 0502 21       		.byte	0x21
 7882 0503 9F       		.byte	0x9f
 7883 0504 C0000000 		.4byte	.LVL65
 7884 0508 D0000000 		.4byte	.LVL66
 7885 050c 1C00     		.2byte	0x1c
 7886 050e 75       		.byte	0x75
 7887 050f 00       		.sleb128 0
 7888 0510 74       		.byte	0x74
 7889 0511 00       		.sleb128 0
 7890 0512 22       		.byte	0x22
 7891 0513 32       		.byte	0x32
 7892 0514 1C       		.byte	0x1c
 7893 0515 94       		.byte	0x94
 7894 0516 01       		.byte	0x1
 7895 0517 08       		.byte	0x8
 7896 0518 FF       		.byte	0xff
 7897 0519 1A       		.byte	0x1a
 7898 051a 38       		.byte	0x38
 7899 051b 24       		.byte	0x24
 7900 051c 75       		.byte	0x75
 7901 051d 00       		.sleb128 0
 7902 051e 74       		.byte	0x74
 7903 051f 00       		.sleb128 0
 7904 0520 22       		.byte	0x22
 7905 0521 31       		.byte	0x31
 7906 0522 1C       		.byte	0x1c
 7907 0523 94       		.byte	0x94
 7908 0524 01       		.byte	0x1
 7909 0525 08       		.byte	0x8
 7910 0526 FF       		.byte	0xff
 7911 0527 1A       		.byte	0x1a
 7912 0528 21       		.byte	0x21
 7913 0529 9F       		.byte	0x9f
 7914 052a D8000000 		.4byte	.LVL69
 7915 052e EC000000 		.4byte	.LFE42
 7916 0532 0200     		.2byte	0x2
 7917 0534 30       		.byte	0x30
 7918 0535 9F       		.byte	0x9f
 7919 0536 00000000 		.4byte	0
 7920 053a 00000000 		.4byte	0
 7921              	.LLST32:
 7922 053e 06000000 		.4byte	.LVL50
 7923 0542 0C000000 		.4byte	.LVL51
 7924 0546 0100     		.2byte	0x1
 7925 0548 50       		.byte	0x50
 7926 0549 0C000000 		.4byte	.LVL51
ARM GAS  C:\Users\AFDHAL~1\AppData\Local\Temp\ccKZJoZj.s 			page 165


 7927 054d 20000000 		.4byte	.LVL56
 7928 0551 0100     		.2byte	0x1
 7929 0553 55       		.byte	0x55
 7930 0554 00000000 		.4byte	0
 7931 0558 00000000 		.4byte	0
 7932              	.LLST33:
 7933 055c 0C000000 		.4byte	.LVL51
 7934 0560 20000000 		.4byte	.LVL56
 7935 0564 0100     		.2byte	0x1
 7936 0566 54       		.byte	0x54
 7937 0567 00000000 		.4byte	0
 7938 056b 00000000 		.4byte	0
 7939              	.LLST34:
 7940 056f 26000000 		.4byte	.LVL57
 7941 0573 2C000000 		.4byte	.LVL58
 7942 0577 0300     		.2byte	0x3
 7943 0579 73       		.byte	0x73
 7944 057a 7E       		.sleb128 -2
 7945 057b 9F       		.byte	0x9f
 7946 057c 2C000000 		.4byte	.LVL58
 7947 0580 3A000000 		.4byte	.LVL59
 7948 0584 0300     		.2byte	0x3
 7949 0586 73       		.byte	0x73
 7950 0587 01       		.sleb128 1
 7951 0588 9F       		.byte	0x9f
 7952 0589 3A000000 		.4byte	.LVL59
 7953 058d B2000000 		.4byte	.LVL62
 7954 0591 0300     		.2byte	0x3
 7955 0593 74       		.byte	0x74
 7956 0594 7E       		.sleb128 -2
 7957 0595 9F       		.byte	0x9f
 7958 0596 D8000000 		.4byte	.LVL69
 7959 059a DA000000 		.4byte	.LVL70
 7960 059e 0300     		.2byte	0x3
 7961 05a0 73       		.byte	0x73
 7962 05a1 7E       		.sleb128 -2
 7963 05a2 9F       		.byte	0x9f
 7964 05a3 DA000000 		.4byte	.LVL70
 7965 05a7 DC000000 		.4byte	.LVL71
 7966 05ab 0300     		.2byte	0x3
 7967 05ad 74       		.byte	0x74
 7968 05ae 7E       		.sleb128 -2
 7969 05af 9F       		.byte	0x9f
 7970 05b0 00000000 		.4byte	0
 7971 05b4 00000000 		.4byte	0
 7972              	.LLST35:
 7973 05b8 26000000 		.4byte	.LVL57
 7974 05bc B2000000 		.4byte	.LVL62
 7975 05c0 0200     		.2byte	0x2
 7976 05c2 30       		.byte	0x30
 7977 05c3 9F       		.byte	0x9f
 7978 05c4 D8000000 		.4byte	.LVL69
 7979 05c8 DC000000 		.4byte	.LVL71
 7980 05cc 0200     		.2byte	0x2
 7981 05ce 30       		.byte	0x30
 7982 05cf 9F       		.byte	0x9f
 7983 05d0 00000000 		.4byte	0
ARM GAS  C:\Users\AFDHAL~1\AppData\Local\Temp\ccKZJoZj.s 			page 166


 7984 05d4 00000000 		.4byte	0
 7985              	.LLST36:
 7986 05d8 26000000 		.4byte	.LVL57
 7987 05dc B2000000 		.4byte	.LVL62
 7988 05e0 0100     		.2byte	0x1
 7989 05e2 55       		.byte	0x55
 7990 05e3 D8000000 		.4byte	.LVL69
 7991 05e7 DC000000 		.4byte	.LVL71
 7992 05eb 0100     		.2byte	0x1
 7993 05ed 55       		.byte	0x55
 7994 05ee 00000000 		.4byte	0
 7995 05f2 00000000 		.4byte	0
 7996              	.LLST37:
 7997 05f6 26000000 		.4byte	.LVL57
 7998 05fa 3C000000 		.4byte	.LVL60
 7999 05fe 0200     		.2byte	0x2
 8000 0600 30       		.byte	0x30
 8001 0601 9F       		.byte	0x9f
 8002 0602 D8000000 		.4byte	.LVL69
 8003 0606 DC000000 		.4byte	.LVL71
 8004 060a 0200     		.2byte	0x2
 8005 060c 30       		.byte	0x30
 8006 060d 9F       		.byte	0x9f
 8007 060e 00000000 		.4byte	0
 8008 0612 00000000 		.4byte	0
 8009              	.LLST38:
 8010 0616 A4000000 		.4byte	.LVL61
 8011 061a B2000000 		.4byte	.LVL62
 8012 061e 0200     		.2byte	0x2
 8013 0620 39       		.byte	0x39
 8014 0621 9F       		.byte	0x9f
 8015 0622 00000000 		.4byte	0
 8016 0626 00000000 		.4byte	0
 8017              	.LLST39:
 8018 062a 26000000 		.4byte	.LVL57
 8019 062e 3C000000 		.4byte	.LVL60
 8020 0632 0400     		.2byte	0x4
 8021 0634 0A       		.byte	0xa
 8022 0635 FFFF     		.2byte	0xffff
 8023 0637 9F       		.byte	0x9f
 8024 0638 A4000000 		.4byte	.LVL61
 8025 063c B2000000 		.4byte	.LVL62
 8026 0640 0100     		.2byte	0x1
 8027 0642 51       		.byte	0x51
 8028 0643 D8000000 		.4byte	.LVL69
 8029 0647 DC000000 		.4byte	.LVL71
 8030 064b 0400     		.2byte	0x4
 8031 064d 0A       		.byte	0xa
 8032 064e FFFF     		.2byte	0xffff
 8033 0650 9F       		.byte	0x9f
 8034 0651 00000000 		.4byte	0
 8035 0655 00000000 		.4byte	0
 8036              	.LLST40:
 8037 0659 00000000 		.4byte	.LVL72
 8038 065d 14000000 		.4byte	.LVL76
 8039 0661 0100     		.2byte	0x1
 8040 0663 50       		.byte	0x50
ARM GAS  C:\Users\AFDHAL~1\AppData\Local\Temp\ccKZJoZj.s 			page 167


 8041 0664 14000000 		.4byte	.LVL76
 8042 0668 16000000 		.4byte	.LVL77
 8043 066c 0400     		.2byte	0x4
 8044 066e F3       		.byte	0xf3
 8045 066f 01       		.uleb128 0x1
 8046 0670 50       		.byte	0x50
 8047 0671 9F       		.byte	0x9f
 8048 0672 16000000 		.4byte	.LVL77
 8049 0676 1C000000 		.4byte	.LVL78
 8050 067a 0100     		.2byte	0x1
 8051 067c 50       		.byte	0x50
 8052 067d 1C000000 		.4byte	.LVL78
 8053 0681 28000000 		.4byte	.LVL79
 8054 0685 0400     		.2byte	0x4
 8055 0687 F3       		.byte	0xf3
 8056 0688 01       		.uleb128 0x1
 8057 0689 50       		.byte	0x50
 8058 068a 9F       		.byte	0x9f
 8059 068b 28000000 		.4byte	.LVL79
 8060 068f 2E000000 		.4byte	.LVL80
 8061 0693 0100     		.2byte	0x1
 8062 0695 50       		.byte	0x50
 8063 0696 2E000000 		.4byte	.LVL80
 8064 069a 40000000 		.4byte	.LVL83
 8065 069e 0100     		.2byte	0x1
 8066 06a0 51       		.byte	0x51
 8067 06a1 40000000 		.4byte	.LVL83
 8068 06a5 50000000 		.4byte	.LVL85
 8069 06a9 0400     		.2byte	0x4
 8070 06ab F3       		.byte	0xf3
 8071 06ac 01       		.uleb128 0x1
 8072 06ad 50       		.byte	0x50
 8073 06ae 9F       		.byte	0x9f
 8074 06af 50000000 		.4byte	.LVL85
 8075 06b3 54000000 		.4byte	.LVL86
 8076 06b7 0100     		.2byte	0x1
 8077 06b9 50       		.byte	0x50
 8078 06ba 54000000 		.4byte	.LVL86
 8079 06be 5C000000 		.4byte	.LFE43
 8080 06c2 0100     		.2byte	0x1
 8081 06c4 51       		.byte	0x51
 8082 06c5 00000000 		.4byte	0
 8083 06c9 00000000 		.4byte	0
 8084              	.LLST41:
 8085 06cd 00000000 		.4byte	.LVL72
 8086 06d1 06000000 		.4byte	.LVL73
 8087 06d5 0100     		.2byte	0x1
 8088 06d7 51       		.byte	0x51
 8089 06d8 06000000 		.4byte	.LVL73
 8090 06dc 5C000000 		.4byte	.LFE43
 8091 06e0 0400     		.2byte	0x4
 8092 06e2 F3       		.byte	0xf3
 8093 06e3 01       		.uleb128 0x1
 8094 06e4 51       		.byte	0x51
 8095 06e5 9F       		.byte	0x9f
 8096 06e6 00000000 		.4byte	0
 8097 06ea 00000000 		.4byte	0
ARM GAS  C:\Users\AFDHAL~1\AppData\Local\Temp\ccKZJoZj.s 			page 168


 8098              	.LLST42:
 8099 06ee 00000000 		.4byte	.LVL72
 8100 06f2 0A000000 		.4byte	.LVL74
 8101 06f6 0200     		.2byte	0x2
 8102 06f8 30       		.byte	0x30
 8103 06f9 9F       		.byte	0x9f
 8104 06fa 0A000000 		.4byte	.LVL74
 8105 06fe 0E000000 		.4byte	.LVL75
 8106 0702 0200     		.2byte	0x2
 8107 0704 31       		.byte	0x31
 8108 0705 9F       		.byte	0x9f
 8109 0706 0E000000 		.4byte	.LVL75
 8110 070a 14000000 		.4byte	.LVL76
 8111 070e 0200     		.2byte	0x2
 8112 0710 32       		.byte	0x32
 8113 0711 9F       		.byte	0x9f
 8114 0712 16000000 		.4byte	.LVL77
 8115 0716 28000000 		.4byte	.LVL79
 8116 071a 0200     		.2byte	0x2
 8117 071c 31       		.byte	0x31
 8118 071d 9F       		.byte	0x9f
 8119 071e 28000000 		.4byte	.LVL79
 8120 0722 32000000 		.4byte	.LVL81
 8121 0726 0200     		.2byte	0x2
 8122 0728 30       		.byte	0x30
 8123 0729 9F       		.byte	0x9f
 8124 072a 50000000 		.4byte	.LVL85
 8125 072e 5C000000 		.4byte	.LFE43
 8126 0732 0200     		.2byte	0x2
 8127 0734 32       		.byte	0x32
 8128 0735 9F       		.byte	0x9f
 8129 0736 00000000 		.4byte	0
 8130 073a 00000000 		.4byte	0
 8131              	.LLST43:
 8132 073e 00000000 		.4byte	.LVL72
 8133 0742 14000000 		.4byte	.LVL76
 8134 0746 0200     		.2byte	0x2
 8135 0748 30       		.byte	0x30
 8136 0749 9F       		.byte	0x9f
 8137 074a 16000000 		.4byte	.LVL77
 8138 074e 5C000000 		.4byte	.LFE43
 8139 0752 0200     		.2byte	0x2
 8140 0754 31       		.byte	0x31
 8141 0755 9F       		.byte	0x9f
 8142 0756 00000000 		.4byte	0
 8143 075a 00000000 		.4byte	0
 8144              	.LLST44:
 8145 075e 00000000 		.4byte	.LVL72
 8146 0762 14000000 		.4byte	.LVL76
 8147 0766 0200     		.2byte	0x2
 8148 0768 30       		.byte	0x30
 8149 0769 9F       		.byte	0x9f
 8150 076a 16000000 		.4byte	.LVL77
 8151 076e 32000000 		.4byte	.LVL81
 8152 0772 0200     		.2byte	0x2
 8153 0774 30       		.byte	0x30
 8154 0775 9F       		.byte	0x9f
ARM GAS  C:\Users\AFDHAL~1\AppData\Local\Temp\ccKZJoZj.s 			page 169


 8155 0776 32000000 		.4byte	.LVL81
 8156 077a 46000000 		.4byte	.LVL84
 8157 077e 0100     		.2byte	0x1
 8158 0780 53       		.byte	0x53
 8159 0781 50000000 		.4byte	.LVL85
 8160 0785 58000000 		.4byte	.LVL87
 8161 0789 0200     		.2byte	0x2
 8162 078b 30       		.byte	0x30
 8163 078c 9F       		.byte	0x9f
 8164 078d 58000000 		.4byte	.LVL87
 8165 0791 5C000000 		.4byte	.LFE43
 8166 0795 0100     		.2byte	0x1
 8167 0797 53       		.byte	0x53
 8168 0798 00000000 		.4byte	0
 8169 079c 00000000 		.4byte	0
 8170              	.LLST45:
 8171 07a0 00000000 		.4byte	.LVL72
 8172 07a4 14000000 		.4byte	.LVL76
 8173 07a8 0200     		.2byte	0x2
 8174 07aa 30       		.byte	0x30
 8175 07ab 9F       		.byte	0x9f
 8176 07ac 16000000 		.4byte	.LVL77
 8177 07b0 3C000000 		.4byte	.LVL82
 8178 07b4 0200     		.2byte	0x2
 8179 07b6 30       		.byte	0x30
 8180 07b7 9F       		.byte	0x9f
 8181 07b8 3C000000 		.4byte	.LVL82
 8182 07bc 40000000 		.4byte	.LVL83
 8183 07c0 1200     		.2byte	0x12
 8184 07c2 71       		.byte	0x71
 8185 07c3 02       		.sleb128 2
 8186 07c4 94       		.byte	0x94
 8187 07c5 01       		.byte	0x1
 8188 07c6 08       		.byte	0x8
 8189 07c7 FF       		.byte	0xff
 8190 07c8 1A       		.byte	0x1a
 8191 07c9 38       		.byte	0x38
 8192 07ca 24       		.byte	0x24
 8193 07cb 71       		.byte	0x71
 8194 07cc 03       		.sleb128 3
 8195 07cd 94       		.byte	0x94
 8196 07ce 01       		.byte	0x1
 8197 07cf 08       		.byte	0x8
 8198 07d0 FF       		.byte	0xff
 8199 07d1 1A       		.byte	0x1a
 8200 07d2 22       		.byte	0x22
 8201 07d3 9F       		.byte	0x9f
 8202 07d4 40000000 		.4byte	.LVL83
 8203 07d8 50000000 		.4byte	.LVL85
 8204 07dc 1300     		.2byte	0x13
 8205 07de F3       		.byte	0xf3
 8206 07df 01       		.uleb128 0x1
 8207 07e0 50       		.byte	0x50
 8208 07e1 23       		.byte	0x23
 8209 07e2 02       		.uleb128 0x2
 8210 07e3 94       		.byte	0x94
 8211 07e4 01       		.byte	0x1
ARM GAS  C:\Users\AFDHAL~1\AppData\Local\Temp\ccKZJoZj.s 			page 170


 8212 07e5 08       		.byte	0x8
 8213 07e6 FF       		.byte	0xff
 8214 07e7 1A       		.byte	0x1a
 8215 07e8 38       		.byte	0x38
 8216 07e9 24       		.byte	0x24
 8217 07ea 71       		.byte	0x71
 8218 07eb 00       		.sleb128 0
 8219 07ec 08       		.byte	0x8
 8220 07ed FF       		.byte	0xff
 8221 07ee 1A       		.byte	0x1a
 8222 07ef 22       		.byte	0x22
 8223 07f0 9F       		.byte	0x9f
 8224 07f1 50000000 		.4byte	.LVL85
 8225 07f5 5C000000 		.4byte	.LFE43
 8226 07f9 0200     		.2byte	0x2
 8227 07fb 30       		.byte	0x30
 8228 07fc 9F       		.byte	0x9f
 8229 07fd 00000000 		.4byte	0
 8230 0801 00000000 		.4byte	0
 8231              	.LLST46:
 8232 0805 32000000 		.4byte	.LVL81
 8233 0809 50000000 		.4byte	.LVL85
 8234 080d 0100     		.2byte	0x1
 8235 080f 54       		.byte	0x54
 8236 0810 00000000 		.4byte	0
 8237 0814 00000000 		.4byte	0
 8238              	.LLST47:
 8239 0818 16000000 		.4byte	.LVL77
 8240 081c 28000000 		.4byte	.LVL79
 8241 0820 0400     		.2byte	0x4
 8242 0822 F3       		.byte	0xf3
 8243 0823 01       		.uleb128 0x1
 8244 0824 51       		.byte	0x51
 8245 0825 9F       		.byte	0x9f
 8246 0826 00000000 		.4byte	0
 8247 082a 00000000 		.4byte	0
 8248              	.LLST48:
 8249 082e 16000000 		.4byte	.LVL77
 8250 0832 28000000 		.4byte	.LVL79
 8251 0836 0100     		.2byte	0x1
 8252 0838 52       		.byte	0x52
 8253 0839 00000000 		.4byte	0
 8254 083d 00000000 		.4byte	0
 8255              	.LLST49:
 8256 0841 16000000 		.4byte	.LVL77
 8257 0845 1C000000 		.4byte	.LVL78
 8258 0849 0100     		.2byte	0x1
 8259 084b 50       		.byte	0x50
 8260 084c 1C000000 		.4byte	.LVL78
 8261 0850 28000000 		.4byte	.LVL79
 8262 0854 0400     		.2byte	0x4
 8263 0856 F3       		.byte	0xf3
 8264 0857 01       		.uleb128 0x1
 8265 0858 50       		.byte	0x50
 8266 0859 9F       		.byte	0x9f
 8267 085a 00000000 		.4byte	0
 8268 085e 00000000 		.4byte	0
ARM GAS  C:\Users\AFDHAL~1\AppData\Local\Temp\ccKZJoZj.s 			page 171


 8269              	.LLST50:
 8270 0862 16000000 		.4byte	.LVL77
 8271 0866 1C000000 		.4byte	.LVL78
 8272 086a 1200     		.2byte	0x12
 8273 086c 70       		.byte	0x70
 8274 086d 02       		.sleb128 2
 8275 086e 94       		.byte	0x94
 8276 086f 01       		.byte	0x1
 8277 0870 08       		.byte	0x8
 8278 0871 FF       		.byte	0xff
 8279 0872 1A       		.byte	0x1a
 8280 0873 38       		.byte	0x38
 8281 0874 24       		.byte	0x24
 8282 0875 70       		.byte	0x70
 8283 0876 03       		.sleb128 3
 8284 0877 94       		.byte	0x94
 8285 0878 01       		.byte	0x1
 8286 0879 08       		.byte	0x8
 8287 087a FF       		.byte	0xff
 8288 087b 1A       		.byte	0x1a
 8289 087c 22       		.byte	0x22
 8290 087d 9F       		.byte	0x9f
 8291 087e 1C000000 		.4byte	.LVL78
 8292 0882 28000000 		.4byte	.LVL79
 8293 0886 1300     		.2byte	0x13
 8294 0888 F3       		.byte	0xf3
 8295 0889 01       		.uleb128 0x1
 8296 088a 50       		.byte	0x50
 8297 088b 23       		.byte	0x23
 8298 088c 02       		.uleb128 0x2
 8299 088d 94       		.byte	0x94
 8300 088e 01       		.byte	0x1
 8301 088f 08       		.byte	0x8
 8302 0890 FF       		.byte	0xff
 8303 0891 1A       		.byte	0x1a
 8304 0892 38       		.byte	0x38
 8305 0893 24       		.byte	0x24
 8306 0894 71       		.byte	0x71
 8307 0895 00       		.sleb128 0
 8308 0896 08       		.byte	0x8
 8309 0897 FF       		.byte	0xff
 8310 0898 1A       		.byte	0x1a
 8311 0899 22       		.byte	0x22
 8312 089a 9F       		.byte	0x9f
 8313 089b 00000000 		.4byte	0
 8314 089f 00000000 		.4byte	0
 8315              	.LLST51:
 8316 08a3 00000000 		.4byte	.LVL88
 8317 08a7 0A000000 		.4byte	.LVL89
 8318 08ab 0100     		.2byte	0x1
 8319 08ad 50       		.byte	0x50
 8320 08ae 0A000000 		.4byte	.LVL89
 8321 08b2 26000000 		.4byte	.LVL97
 8322 08b6 0400     		.2byte	0x4
 8323 08b8 F3       		.byte	0xf3
 8324 08b9 01       		.uleb128 0x1
 8325 08ba 50       		.byte	0x50
ARM GAS  C:\Users\AFDHAL~1\AppData\Local\Temp\ccKZJoZj.s 			page 172


 8326 08bb 9F       		.byte	0x9f
 8327 08bc 26000000 		.4byte	.LVL97
 8328 08c0 28000000 		.4byte	.LVL98
 8329 08c4 0100     		.2byte	0x1
 8330 08c6 50       		.byte	0x50
 8331 08c7 28000000 		.4byte	.LVL98
 8332 08cb 2A000000 		.4byte	.LFE44
 8333 08cf 0400     		.2byte	0x4
 8334 08d1 F3       		.byte	0xf3
 8335 08d2 01       		.uleb128 0x1
 8336 08d3 50       		.byte	0x50
 8337 08d4 9F       		.byte	0x9f
 8338 08d5 00000000 		.4byte	0
 8339 08d9 00000000 		.4byte	0
 8340              	.LLST52:
 8341 08dd 00000000 		.4byte	.LVL88
 8342 08e1 0C000000 		.4byte	.LVL90
 8343 08e5 0100     		.2byte	0x1
 8344 08e7 52       		.byte	0x52
 8345 08e8 0C000000 		.4byte	.LVL90
 8346 08ec 26000000 		.4byte	.LVL97
 8347 08f0 0400     		.2byte	0x4
 8348 08f2 F3       		.byte	0xf3
 8349 08f3 01       		.uleb128 0x1
 8350 08f4 52       		.byte	0x52
 8351 08f5 9F       		.byte	0x9f
 8352 08f6 26000000 		.4byte	.LVL97
 8353 08fa 2A000000 		.4byte	.LFE44
 8354 08fe 0100     		.2byte	0x1
 8355 0900 52       		.byte	0x52
 8356 0901 00000000 		.4byte	0
 8357 0905 00000000 		.4byte	0
 8358              	.LLST53:
 8359 0909 16000000 		.4byte	.LVL92
 8360 090d 18000000 		.4byte	.LVL93
 8361 0911 0B00     		.2byte	0xb
 8362 0913 74       		.byte	0x74
 8363 0914 01       		.sleb128 1
 8364 0915 94       		.byte	0x94
 8365 0916 01       		.byte	0x1
 8366 0917 08       		.byte	0x8
 8367 0918 FF       		.byte	0xff
 8368 0919 1A       		.byte	0x1a
 8369 091a 73       		.byte	0x73
 8370 091b 00       		.sleb128 0
 8371 091c 21       		.byte	0x21
 8372 091d 9F       		.byte	0x9f
 8373 091e 18000000 		.4byte	.LVL93
 8374 0922 1C000000 		.4byte	.LVL94
 8375 0926 0100     		.2byte	0x1
 8376 0928 53       		.byte	0x53
 8377 0929 1C000000 		.4byte	.LVL94
 8378 092d 24000000 		.4byte	.LVL96
 8379 0931 0200     		.2byte	0x2
 8380 0933 72       		.byte	0x72
 8381 0934 7C       		.sleb128 -4
 8382 0935 00000000 		.4byte	0
ARM GAS  C:\Users\AFDHAL~1\AppData\Local\Temp\ccKZJoZj.s 			page 173


 8383 0939 00000000 		.4byte	0
 8384              	.LLST54:
 8385 093d 00000000 		.4byte	.LVL88
 8386 0941 10000000 		.4byte	.LVL91
 8387 0945 0200     		.2byte	0x2
 8388 0947 30       		.byte	0x30
 8389 0948 9F       		.byte	0x9f
 8390 0949 10000000 		.4byte	.LVL91
 8391 094d 24000000 		.4byte	.LVL96
 8392 0951 0100     		.2byte	0x1
 8393 0953 50       		.byte	0x50
 8394 0954 26000000 		.4byte	.LVL97
 8395 0958 2A000000 		.4byte	.LFE44
 8396 095c 0200     		.2byte	0x2
 8397 095e 30       		.byte	0x30
 8398 095f 9F       		.byte	0x9f
 8399 0960 00000000 		.4byte	0
 8400 0964 00000000 		.4byte	0
 8401              	.LLST55:
 8402 0968 00000000 		.4byte	.LVL99
 8403 096c 88010000 		.4byte	.LVL114
 8404 0970 0100     		.2byte	0x1
 8405 0972 50       		.byte	0x50
 8406 0973 88010000 		.4byte	.LVL114
 8407 0977 3E040000 		.4byte	.LVL135
 8408 097b 0400     		.2byte	0x4
 8409 097d F3       		.byte	0xf3
 8410 097e 01       		.uleb128 0x1
 8411 097f 50       		.byte	0x50
 8412 0980 9F       		.byte	0x9f
 8413 0981 3E040000 		.4byte	.LVL135
 8414 0985 44040000 		.4byte	.LVL137
 8415 0989 0100     		.2byte	0x1
 8416 098b 50       		.byte	0x50
 8417 098c 44040000 		.4byte	.LVL137
 8418 0990 54040000 		.4byte	.LVL139
 8419 0994 0400     		.2byte	0x4
 8420 0996 F3       		.byte	0xf3
 8421 0997 01       		.uleb128 0x1
 8422 0998 50       		.byte	0x50
 8423 0999 9F       		.byte	0x9f
 8424 099a 54040000 		.4byte	.LVL139
 8425 099e BE050000 		.4byte	.LVL143
 8426 09a2 0100     		.2byte	0x1
 8427 09a4 50       		.byte	0x50
 8428 09a5 BE050000 		.4byte	.LVL143
 8429 09a9 C4050000 		.4byte	.LFE45
 8430 09ad 0400     		.2byte	0x4
 8431 09af F3       		.byte	0xf3
 8432 09b0 01       		.uleb128 0x1
 8433 09b1 50       		.byte	0x50
 8434 09b2 9F       		.byte	0x9f
 8435 09b3 00000000 		.4byte	0
 8436 09b7 00000000 		.4byte	0
 8437              	.LLST56:
 8438 09bb 00000000 		.4byte	.LVL99
 8439 09bf 4C020000 		.4byte	.LVL117
ARM GAS  C:\Users\AFDHAL~1\AppData\Local\Temp\ccKZJoZj.s 			page 174


 8440 09c3 0100     		.2byte	0x1
 8441 09c5 51       		.byte	0x51
 8442 09c6 4C020000 		.4byte	.LVL117
 8443 09ca B0020000 		.4byte	.LVL125
 8444 09ce 0200     		.2byte	0x2
 8445 09d0 7D       		.byte	0x7d
 8446 09d1 05       		.sleb128 5
 8447 09d2 B0020000 		.4byte	.LVL125
 8448 09d6 C8020000 		.4byte	.LVL130
 8449 09da 0400     		.2byte	0x4
 8450 09dc F3       		.byte	0xf3
 8451 09dd 01       		.uleb128 0x1
 8452 09de 51       		.byte	0x51
 8453 09df 9F       		.byte	0x9f
 8454 09e0 C8020000 		.4byte	.LVL130
 8455 09e4 3C030000 		.4byte	.LVL131
 8456 09e8 0200     		.2byte	0x2
 8457 09ea 7D       		.byte	0x7d
 8458 09eb 05       		.sleb128 5
 8459 09ec 3C030000 		.4byte	.LVL131
 8460 09f0 42030000 		.4byte	.LVL133
 8461 09f4 0100     		.2byte	0x1
 8462 09f6 51       		.byte	0x51
 8463 09f7 42030000 		.4byte	.LVL133
 8464 09fb 4E030000 		.4byte	.LVL134
 8465 09ff 0200     		.2byte	0x2
 8466 0a01 7D       		.byte	0x7d
 8467 0a02 05       		.sleb128 5
 8468 0a03 4E030000 		.4byte	.LVL134
 8469 0a07 C4050000 		.4byte	.LFE45
 8470 0a0b 0100     		.2byte	0x1
 8471 0a0d 51       		.byte	0x51
 8472 0a0e 00000000 		.4byte	0
 8473 0a12 00000000 		.4byte	0
 8474              	.LLST57:
 8475 0a16 00000000 		.4byte	.LVL99
 8476 0a1a 58000000 		.4byte	.LVL108
 8477 0a1e 0100     		.2byte	0x1
 8478 0a20 52       		.byte	0x52
 8479 0a21 58000000 		.4byte	.LVL108
 8480 0a25 BC050000 		.4byte	.LVL142
 8481 0a29 0400     		.2byte	0x4
 8482 0a2b F3       		.byte	0xf3
 8483 0a2c 01       		.uleb128 0x1
 8484 0a2d 52       		.byte	0x52
 8485 0a2e 9F       		.byte	0x9f
 8486 0a2f BC050000 		.4byte	.LVL142
 8487 0a33 C4050000 		.4byte	.LFE45
 8488 0a37 0100     		.2byte	0x1
 8489 0a39 52       		.byte	0x52
 8490 0a3a 00000000 		.4byte	0
 8491 0a3e 00000000 		.4byte	0
 8492              	.LLST58:
 8493 0a42 00000000 		.4byte	.LVL99
 8494 0a46 3E000000 		.4byte	.LVL102
 8495 0a4a 0100     		.2byte	0x1
 8496 0a4c 53       		.byte	0x53
ARM GAS  C:\Users\AFDHAL~1\AppData\Local\Temp\ccKZJoZj.s 			page 175


 8497 0a4d 3E000000 		.4byte	.LVL102
 8498 0a51 BC050000 		.4byte	.LVL142
 8499 0a55 0400     		.2byte	0x4
 8500 0a57 F3       		.byte	0xf3
 8501 0a58 01       		.uleb128 0x1
 8502 0a59 53       		.byte	0x53
 8503 0a5a 9F       		.byte	0x9f
 8504 0a5b BC050000 		.4byte	.LVL142
 8505 0a5f C4050000 		.4byte	.LFE45
 8506 0a63 0100     		.2byte	0x1
 8507 0a65 53       		.byte	0x53
 8508 0a66 00000000 		.4byte	0
 8509 0a6a 00000000 		.4byte	0
 8510              	.LLST59:
 8511 0a6e 00000000 		.4byte	.LVL99
 8512 0a72 C0020000 		.4byte	.LVL128
 8513 0a76 0200     		.2byte	0x2
 8514 0a78 30       		.byte	0x30
 8515 0a79 9F       		.byte	0x9f
 8516 0a7a C0020000 		.4byte	.LVL128
 8517 0a7e C8020000 		.4byte	.LVL130
 8518 0a82 0100     		.2byte	0x1
 8519 0a84 50       		.byte	0x50
 8520 0a85 C8020000 		.4byte	.LVL130
 8521 0a89 C4050000 		.4byte	.LFE45
 8522 0a8d 0200     		.2byte	0x2
 8523 0a8f 30       		.byte	0x30
 8524 0a90 9F       		.byte	0x9f
 8525 0a91 00000000 		.4byte	0
 8526 0a95 00000000 		.4byte	0
 8527              	.LLST60:
 8528 0a99 0A000000 		.4byte	.LVL100
 8529 0a9d C2020000 		.4byte	.LVL129
 8530 0aa1 0100     		.2byte	0x1
 8531 0aa3 5D       		.byte	0x5d
 8532 0aa4 C2020000 		.4byte	.LVL129
 8533 0aa8 C8020000 		.4byte	.LVL130
 8534 0aac 0300     		.2byte	0x3
 8535 0aae 91       		.byte	0x91
 8536 0aaf 60       		.sleb128 -32
 8537 0ab0 9F       		.byte	0x9f
 8538 0ab1 C8020000 		.4byte	.LVL130
 8539 0ab5 BC050000 		.4byte	.LVL142
 8540 0ab9 0100     		.2byte	0x1
 8541 0abb 5D       		.byte	0x5d
 8542 0abc BC050000 		.4byte	.LVL142
 8543 0ac0 C4050000 		.4byte	.LFE45
 8544 0ac4 0100     		.2byte	0x1
 8545 0ac6 55       		.byte	0x55
 8546 0ac7 00000000 		.4byte	0
 8547 0acb 00000000 		.4byte	0
 8548              	.LLST61:
 8549 0acf 00000000 		.4byte	.LVL99
 8550 0ad3 4C020000 		.4byte	.LVL117
 8551 0ad7 0100     		.2byte	0x1
 8552 0ad9 51       		.byte	0x51
 8553 0ada 4C020000 		.4byte	.LVL117
ARM GAS  C:\Users\AFDHAL~1\AppData\Local\Temp\ccKZJoZj.s 			page 176


 8554 0ade B0020000 		.4byte	.LVL125
 8555 0ae2 0200     		.2byte	0x2
 8556 0ae4 7D       		.byte	0x7d
 8557 0ae5 05       		.sleb128 5
 8558 0ae6 B0020000 		.4byte	.LVL125
 8559 0aea C8020000 		.4byte	.LVL130
 8560 0aee 0400     		.2byte	0x4
 8561 0af0 F3       		.byte	0xf3
 8562 0af1 01       		.uleb128 0x1
 8563 0af2 51       		.byte	0x51
 8564 0af3 9F       		.byte	0x9f
 8565 0af4 C8020000 		.4byte	.LVL130
 8566 0af8 3C030000 		.4byte	.LVL131
 8567 0afc 0200     		.2byte	0x2
 8568 0afe 7D       		.byte	0x7d
 8569 0aff 05       		.sleb128 5
 8570 0b00 3C030000 		.4byte	.LVL131
 8571 0b04 42030000 		.4byte	.LVL133
 8572 0b08 0100     		.2byte	0x1
 8573 0b0a 51       		.byte	0x51
 8574 0b0b 42030000 		.4byte	.LVL133
 8575 0b0f 4E030000 		.4byte	.LVL134
 8576 0b13 0200     		.2byte	0x2
 8577 0b15 7D       		.byte	0x7d
 8578 0b16 05       		.sleb128 5
 8579 0b17 4E030000 		.4byte	.LVL134
 8580 0b1b C4050000 		.4byte	.LFE45
 8581 0b1f 0100     		.2byte	0x1
 8582 0b21 51       		.byte	0x51
 8583 0b22 00000000 		.4byte	0
 8584 0b26 00000000 		.4byte	0
 8585              	.LLST62:
 8586 0b2a 00000000 		.4byte	.LVL99
 8587 0b2e 88010000 		.4byte	.LVL114
 8588 0b32 0100     		.2byte	0x1
 8589 0b34 50       		.byte	0x50
 8590 0b35 88010000 		.4byte	.LVL114
 8591 0b39 3E040000 		.4byte	.LVL135
 8592 0b3d 0400     		.2byte	0x4
 8593 0b3f F3       		.byte	0xf3
 8594 0b40 01       		.uleb128 0x1
 8595 0b41 50       		.byte	0x50
 8596 0b42 9F       		.byte	0x9f
 8597 0b43 3E040000 		.4byte	.LVL135
 8598 0b47 44040000 		.4byte	.LVL137
 8599 0b4b 0100     		.2byte	0x1
 8600 0b4d 50       		.byte	0x50
 8601 0b4e 44040000 		.4byte	.LVL137
 8602 0b52 54040000 		.4byte	.LVL139
 8603 0b56 0400     		.2byte	0x4
 8604 0b58 F3       		.byte	0xf3
 8605 0b59 01       		.uleb128 0x1
 8606 0b5a 50       		.byte	0x50
 8607 0b5b 9F       		.byte	0x9f
 8608 0b5c 54040000 		.4byte	.LVL139
 8609 0b60 BE050000 		.4byte	.LVL143
 8610 0b64 0100     		.2byte	0x1
ARM GAS  C:\Users\AFDHAL~1\AppData\Local\Temp\ccKZJoZj.s 			page 177


 8611 0b66 50       		.byte	0x50
 8612 0b67 BE050000 		.4byte	.LVL143
 8613 0b6b C4050000 		.4byte	.LFE45
 8614 0b6f 0400     		.2byte	0x4
 8615 0b71 F3       		.byte	0xf3
 8616 0b72 01       		.uleb128 0x1
 8617 0b73 50       		.byte	0x50
 8618 0b74 9F       		.byte	0x9f
 8619 0b75 00000000 		.4byte	0
 8620 0b79 00000000 		.4byte	0
 8621              	.LLST63:
 8622 0b7d 44000000 		.4byte	.LVL103
 8623 0b81 46000000 		.4byte	.LVL104
 8624 0b85 0B00     		.2byte	0xb
 8625 0b87 75       		.byte	0x75
 8626 0b88 01       		.sleb128 1
 8627 0b89 94       		.byte	0x94
 8628 0b8a 01       		.byte	0x1
 8629 0b8b 08       		.byte	0x8
 8630 0b8c FF       		.byte	0xff
 8631 0b8d 1A       		.byte	0x1a
 8632 0b8e 74       		.byte	0x74
 8633 0b8f 00       		.sleb128 0
 8634 0b90 21       		.byte	0x21
 8635 0b91 9F       		.byte	0x9f
 8636 0b92 46000000 		.4byte	.LVL104
 8637 0b96 4A000000 		.4byte	.LVL105
 8638 0b9a 0100     		.2byte	0x1
 8639 0b9c 54       		.byte	0x54
 8640 0b9d 4A000000 		.4byte	.LVL105
 8641 0ba1 52000000 		.4byte	.LVL107
 8642 0ba5 0200     		.2byte	0x2
 8643 0ba7 73       		.byte	0x73
 8644 0ba8 7C       		.sleb128 -4
 8645 0ba9 00000000 		.4byte	0
 8646 0bad 00000000 		.4byte	0
 8647              	.LLST64:
 8648 0bb1 30000000 		.4byte	.LVL101
 8649 0bb5 3E000000 		.4byte	.LVL102
 8650 0bb9 0200     		.2byte	0x2
 8651 0bbb 30       		.byte	0x30
 8652 0bbc 9F       		.byte	0x9f
 8653 0bbd 3E000000 		.4byte	.LVL102
 8654 0bc1 52000000 		.4byte	.LVL107
 8655 0bc5 0100     		.2byte	0x1
 8656 0bc7 56       		.byte	0x56
 8657 0bc8 BC050000 		.4byte	.LVL142
 8658 0bcc C4050000 		.4byte	.LFE45
 8659 0bd0 0200     		.2byte	0x2
 8660 0bd2 30       		.byte	0x30
 8661 0bd3 9F       		.byte	0x9f
 8662 0bd4 00000000 		.4byte	0
 8663 0bd8 00000000 		.4byte	0
 8664              	.LLST65:
 8665 0bdc B0020000 		.4byte	.LVL125
 8666 0be0 C0020000 		.4byte	.LVL128
 8667 0be4 0200     		.2byte	0x2
ARM GAS  C:\Users\AFDHAL~1\AppData\Local\Temp\ccKZJoZj.s 			page 178


 8668 0be6 38       		.byte	0x38
 8669 0be7 9F       		.byte	0x9f
 8670 0be8 00000000 		.4byte	0
 8671 0bec 00000000 		.4byte	0
 8672              	.LLST66:
 8673 0bf0 B0020000 		.4byte	.LVL125
 8674 0bf4 B6020000 		.4byte	.LVL126
 8675 0bf8 0100     		.2byte	0x1
 8676 0bfa 54       		.byte	0x54
 8677 0bfb 00000000 		.4byte	0
 8678 0bff 00000000 		.4byte	0
 8679              	.LLST67:
 8680 0c03 AE020000 		.4byte	.LVL124
 8681 0c07 B0020000 		.4byte	.LVL125
 8682 0c0b 0200     		.2byte	0x2
 8683 0c0d 37       		.byte	0x37
 8684 0c0e 9F       		.byte	0x9f
 8685 0c0f 00000000 		.4byte	0
 8686 0c13 00000000 		.4byte	0
 8687              	.LLST68:
 8688 0c17 AA020000 		.4byte	.LVL123
 8689 0c1b B0020000 		.4byte	.LVL125
 8690 0c1f 0100     		.2byte	0x1
 8691 0c21 53       		.byte	0x53
 8692 0c22 00000000 		.4byte	0
 8693 0c26 00000000 		.4byte	0
 8694              	.LLST69:
 8695 0c2a 9C020000 		.4byte	.LVL118
 8696 0c2e C0020000 		.4byte	.LVL128
 8697 0c32 0200     		.2byte	0x2
 8698 0c34 36       		.byte	0x36
 8699 0c35 9F       		.byte	0x9f
 8700 0c36 00000000 		.4byte	0
 8701 0c3a 00000000 		.4byte	0
 8702              	.LLST70:
 8703 0c3e B8000000 		.4byte	.LVL109
 8704 0c42 BE000000 		.4byte	.LVL110
 8705 0c46 0200     		.2byte	0x2
 8706 0c48 39       		.byte	0x39
 8707 0c49 9F       		.byte	0x9f
 8708 0c4a 1C010000 		.4byte	.LVL111
 8709 0c4e 24010000 		.4byte	.LVL112
 8710 0c52 0200     		.2byte	0x2
 8711 0c54 39       		.byte	0x39
 8712 0c55 9F       		.byte	0x9f
 8713 0c56 84010000 		.4byte	.LVL113
 8714 0c5a 8A010000 		.4byte	.LVL115
 8715 0c5e 0200     		.2byte	0x2
 8716 0c60 39       		.byte	0x39
 8717 0c61 9F       		.byte	0x9f
 8718 0c62 4A020000 		.4byte	.LVL116
 8719 0c66 4C020000 		.4byte	.LVL117
 8720 0c6a 0200     		.2byte	0x2
 8721 0c6c 39       		.byte	0x39
 8722 0c6d 9F       		.byte	0x9f
 8723 0c6e 9C020000 		.4byte	.LVL118
 8724 0c72 AA020000 		.4byte	.LVL123
ARM GAS  C:\Users\AFDHAL~1\AppData\Local\Temp\ccKZJoZj.s 			page 179


 8725 0c76 0200     		.2byte	0x2
 8726 0c78 39       		.byte	0x39
 8727 0c79 9F       		.byte	0x9f
 8728 0c7a 3E030000 		.4byte	.LVL132
 8729 0c7e 42030000 		.4byte	.LVL133
 8730 0c82 0200     		.2byte	0x2
 8731 0c84 39       		.byte	0x39
 8732 0c85 9F       		.byte	0x9f
 8733 0c86 42040000 		.4byte	.LVL136
 8734 0c8a 46040000 		.4byte	.LVL138
 8735 0c8e 0200     		.2byte	0x2
 8736 0c90 39       		.byte	0x39
 8737 0c91 9F       		.byte	0x9f
 8738 0c92 3A050000 		.4byte	.LVL140
 8739 0c96 40050000 		.4byte	.LVL141
 8740 0c9a 0200     		.2byte	0x2
 8741 0c9c 39       		.byte	0x39
 8742 0c9d 9F       		.byte	0x9f
 8743 0c9e 00000000 		.4byte	0
 8744 0ca2 00000000 		.4byte	0
 8745              	.LLST71:
 8746 0ca6 9C020000 		.4byte	.LVL118
 8747 0caa A4020000 		.4byte	.LVL120
 8748 0cae 0100     		.2byte	0x1
 8749 0cb0 53       		.byte	0x53
 8750 0cb1 A6020000 		.4byte	.LVL121
 8751 0cb5 A8020000 		.4byte	.LVL122
 8752 0cb9 0100     		.2byte	0x1
 8753 0cbb 53       		.byte	0x53
 8754 0cbc 00000000 		.4byte	0
 8755 0cc0 00000000 		.4byte	0
 8756              	.LLST72:
 8757 0cc4 A2020000 		.4byte	.LVL119
 8758 0cc8 AA020000 		.4byte	.LVL123
 8759 0ccc 0100     		.2byte	0x1
 8760 0cce 52       		.byte	0x52
 8761 0ccf 00000000 		.4byte	0
 8762 0cd3 00000000 		.4byte	0
 8763              	.LLST73:
 8764 0cd7 00000000 		.4byte	.LVL144
 8765 0cdb 5E010000 		.4byte	.LVL156
 8766 0cdf 0100     		.2byte	0x1
 8767 0ce1 50       		.byte	0x50
 8768 0ce2 5E010000 		.4byte	.LVL156
 8769 0ce6 BC020000 		.4byte	.LFE46
 8770 0cea 0400     		.2byte	0x4
 8771 0cec F3       		.byte	0xf3
 8772 0ced 01       		.uleb128 0x1
 8773 0cee 50       		.byte	0x50
 8774 0cef 9F       		.byte	0x9f
 8775 0cf0 00000000 		.4byte	0
 8776 0cf4 00000000 		.4byte	0
 8777              	.LLST74:
 8778 0cf8 00000000 		.4byte	.LVL144
 8779 0cfc 06000000 		.4byte	.LVL145
 8780 0d00 0100     		.2byte	0x1
 8781 0d02 51       		.byte	0x51
ARM GAS  C:\Users\AFDHAL~1\AppData\Local\Temp\ccKZJoZj.s 			page 180


 8782 0d03 06000000 		.4byte	.LVL145
 8783 0d07 BC020000 		.4byte	.LFE46
 8784 0d0b 0400     		.2byte	0x4
 8785 0d0d F3       		.byte	0xf3
 8786 0d0e 01       		.uleb128 0x1
 8787 0d0f 51       		.byte	0x51
 8788 0d10 9F       		.byte	0x9f
 8789 0d11 00000000 		.4byte	0
 8790 0d15 00000000 		.4byte	0
 8791              	.LLST75:
 8792 0d19 00000000 		.4byte	.LVL144
 8793 0d1d 2E000000 		.4byte	.LVL150
 8794 0d21 0100     		.2byte	0x1
 8795 0d23 52       		.byte	0x52
 8796 0d24 2E000000 		.4byte	.LVL150
 8797 0d28 BC020000 		.4byte	.LFE46
 8798 0d2c 0400     		.2byte	0x4
 8799 0d2e F3       		.byte	0xf3
 8800 0d2f 01       		.uleb128 0x1
 8801 0d30 52       		.byte	0x52
 8802 0d31 9F       		.byte	0x9f
 8803 0d32 00000000 		.4byte	0
 8804 0d36 00000000 		.4byte	0
 8805              	.LLST76:
 8806 0d3a 00000000 		.4byte	.LVL144
 8807 0d3e AA020000 		.4byte	.LVL173
 8808 0d42 0200     		.2byte	0x2
 8809 0d44 30       		.byte	0x30
 8810 0d45 9F       		.byte	0x9f
 8811 0d46 00000000 		.4byte	0
 8812 0d4a 00000000 		.4byte	0
 8813              	.LLST77:
 8814 0d4e 0A000000 		.4byte	.LVL146
 8815 0d52 26020000 		.4byte	.LVL161
 8816 0d56 0100     		.2byte	0x1
 8817 0d58 53       		.byte	0x53
 8818 0d59 26020000 		.4byte	.LVL161
 8819 0d5d 9C020000 		.4byte	.LVL170
 8820 0d61 0900     		.2byte	0x9
 8821 0d63 F3       		.byte	0xf3
 8822 0d64 01       		.uleb128 0x1
 8823 0d65 50       		.byte	0x50
 8824 0d66 32       		.byte	0x32
 8825 0d67 24       		.byte	0x24
 8826 0d68 F3       		.byte	0xf3
 8827 0d69 01       		.uleb128 0x1
 8828 0d6a 52       		.byte	0x52
 8829 0d6b 22       		.byte	0x22
 8830 0d6c 00000000 		.4byte	0
 8831 0d70 00000000 		.4byte	0
 8832              	.LLST78:
 8833 0d74 0E000000 		.4byte	.LVL147
 8834 0d78 28000000 		.4byte	.LVL148
 8835 0d7c 0100     		.2byte	0x1
 8836 0d7e 5D       		.byte	0x5d
 8837 0d7f 00000000 		.4byte	0
 8838 0d83 00000000 		.4byte	0
ARM GAS  C:\Users\AFDHAL~1\AppData\Local\Temp\ccKZJoZj.s 			page 181


 8839              	.LLST79:
 8840 0d87 0A000000 		.4byte	.LVL146
 8841 0d8b 28000000 		.4byte	.LVL148
 8842 0d8f 0100     		.2byte	0x1
 8843 0d91 53       		.byte	0x53
 8844 0d92 00000000 		.4byte	0
 8845 0d96 00000000 		.4byte	0
 8846              	.LLST80:
 8847 0d9a 0A000000 		.4byte	.LVL146
 8848 0d9e 28000000 		.4byte	.LVL148
 8849 0da2 0100     		.2byte	0x1
 8850 0da4 50       		.byte	0x50
 8851 0da5 00000000 		.4byte	0
 8852 0da9 00000000 		.4byte	0
 8853              	.LLST81:
 8854 0dad 0A000000 		.4byte	.LVL146
 8855 0db1 28000000 		.4byte	.LVL148
 8856 0db5 0200     		.2byte	0x2
 8857 0db7 36       		.byte	0x36
 8858 0db8 9F       		.byte	0x9f
 8859 0db9 00000000 		.4byte	0
 8860 0dbd 00000000 		.4byte	0
 8861              	.LLST82:
 8862 0dc1 2C000000 		.4byte	.LVL149
 8863 0dc5 9C020000 		.4byte	.LVL170
 8864 0dc9 0200     		.2byte	0x2
 8865 0dcb 36       		.byte	0x36
 8866 0dcc 9F       		.byte	0x9f
 8867 0dcd 9C020000 		.4byte	.LVL170
 8868 0dd1 AA020000 		.4byte	.LVL173
 8869 0dd5 0200     		.2byte	0x2
 8870 0dd7 38       		.byte	0x38
 8871 0dd8 9F       		.byte	0x9f
 8872 0dd9 00000000 		.4byte	0
 8873 0ddd 00000000 		.4byte	0
 8874              	.LLST83:
 8875 0de1 2C000000 		.4byte	.LVL149
 8876 0de5 AA020000 		.4byte	.LVL173
 8877 0de9 0100     		.2byte	0x1
 8878 0deb 5D       		.byte	0x5d
 8879 0dec 00000000 		.4byte	0
 8880 0df0 00000000 		.4byte	0
 8881              	.LLST84:
 8882 0df4 9C020000 		.4byte	.LVL170
 8883 0df8 A2020000 		.4byte	.LVL171
 8884 0dfc 0100     		.2byte	0x1
 8885 0dfe 54       		.byte	0x54
 8886 0dff 00000000 		.4byte	0
 8887 0e03 00000000 		.4byte	0
 8888              	.LLST85:
 8889 0e07 9A020000 		.4byte	.LVL169
 8890 0e0b 9C020000 		.4byte	.LVL170
 8891 0e0f 0200     		.2byte	0x2
 8892 0e11 37       		.byte	0x37
 8893 0e12 9F       		.byte	0x9f
 8894 0e13 00000000 		.4byte	0
 8895 0e17 00000000 		.4byte	0
ARM GAS  C:\Users\AFDHAL~1\AppData\Local\Temp\ccKZJoZj.s 			page 182


 8896              	.LLST86:
 8897 0e1b 96020000 		.4byte	.LVL168
 8898 0e1f 9C020000 		.4byte	.LVL170
 8899 0e23 0100     		.2byte	0x1
 8900 0e25 53       		.byte	0x53
 8901 0e26 00000000 		.4byte	0
 8902 0e2a 00000000 		.4byte	0
 8903              	.LLST87:
 8904 0e2e 90000000 		.4byte	.LVL151
 8905 0e32 96000000 		.4byte	.LVL152
 8906 0e36 0200     		.2byte	0x2
 8907 0e38 39       		.byte	0x39
 8908 0e39 9F       		.byte	0x9f
 8909 0e3a F4000000 		.4byte	.LVL153
 8910 0e3e FA000000 		.4byte	.LVL154
 8911 0e42 0200     		.2byte	0x2
 8912 0e44 39       		.byte	0x39
 8913 0e45 9F       		.byte	0x9f
 8914 0e46 5A010000 		.4byte	.LVL155
 8915 0e4a 60010000 		.4byte	.LVL157
 8916 0e4e 0200     		.2byte	0x2
 8917 0e50 39       		.byte	0x39
 8918 0e51 9F       		.byte	0x9f
 8919 0e52 C0010000 		.4byte	.LVL158
 8920 0e56 C2010000 		.4byte	.LVL159
 8921 0e5a 0200     		.2byte	0x2
 8922 0e5c 39       		.byte	0x39
 8923 0e5d 9F       		.byte	0x9f
 8924 0e5e 22020000 		.4byte	.LVL160
 8925 0e62 28020000 		.4byte	.LVL162
 8926 0e66 0200     		.2byte	0x2
 8927 0e68 39       		.byte	0x39
 8928 0e69 9F       		.byte	0x9f
 8929 0e6a 88020000 		.4byte	.LVL163
 8930 0e6e 96020000 		.4byte	.LVL168
 8931 0e72 0200     		.2byte	0x2
 8932 0e74 39       		.byte	0x39
 8933 0e75 9F       		.byte	0x9f
 8934 0e76 00000000 		.4byte	0
 8935 0e7a 00000000 		.4byte	0
 8936              	.LLST88:
 8937 0e7e 88020000 		.4byte	.LVL163
 8938 0e82 90020000 		.4byte	.LVL165
 8939 0e86 0100     		.2byte	0x1
 8940 0e88 53       		.byte	0x53
 8941 0e89 92020000 		.4byte	.LVL166
 8942 0e8d 94020000 		.4byte	.LVL167
 8943 0e91 0100     		.2byte	0x1
 8944 0e93 53       		.byte	0x53
 8945 0e94 00000000 		.4byte	0
 8946 0e98 00000000 		.4byte	0
 8947              	.LLST89:
 8948 0e9c 8E020000 		.4byte	.LVL164
 8949 0ea0 96020000 		.4byte	.LVL168
 8950 0ea4 0100     		.2byte	0x1
 8951 0ea6 52       		.byte	0x52
 8952 0ea7 00000000 		.4byte	0
ARM GAS  C:\Users\AFDHAL~1\AppData\Local\Temp\ccKZJoZj.s 			page 183


 8953 0eab 00000000 		.4byte	0
 8954              	.LLST90:
 8955 0eaf 00000000 		.4byte	.LVL174
 8956 0eb3 50000000 		.4byte	.LVL185
 8957 0eb7 0100     		.2byte	0x1
 8958 0eb9 50       		.byte	0x50
 8959 0eba 50000000 		.4byte	.LVL185
 8960 0ebe 04010000 		.4byte	.LVL197
 8961 0ec2 0400     		.2byte	0x4
 8962 0ec4 F3       		.byte	0xf3
 8963 0ec5 01       		.uleb128 0x1
 8964 0ec6 50       		.byte	0x50
 8965 0ec7 9F       		.byte	0x9f
 8966 0ec8 04010000 		.4byte	.LVL197
 8967 0ecc 20010000 		.4byte	.LFE47
 8968 0ed0 0100     		.2byte	0x1
 8969 0ed2 50       		.byte	0x50
 8970 0ed3 00000000 		.4byte	0
 8971 0ed7 00000000 		.4byte	0
 8972              	.LLST91:
 8973 0edb 00000000 		.4byte	.LVL174
 8974 0edf 12000000 		.4byte	.LVL176
 8975 0ee3 0100     		.2byte	0x1
 8976 0ee5 51       		.byte	0x51
 8977 0ee6 12000000 		.4byte	.LVL176
 8978 0eea 20010000 		.4byte	.LFE47
 8979 0eee 0400     		.2byte	0x4
 8980 0ef0 F3       		.byte	0xf3
 8981 0ef1 01       		.uleb128 0x1
 8982 0ef2 51       		.byte	0x51
 8983 0ef3 9F       		.byte	0x9f
 8984 0ef4 00000000 		.4byte	0
 8985 0ef8 00000000 		.4byte	0
 8986              	.LLST92:
 8987 0efc 00000000 		.4byte	.LVL174
 8988 0f00 24000000 		.4byte	.LVL178
 8989 0f04 0100     		.2byte	0x1
 8990 0f06 52       		.byte	0x52
 8991 0f07 24000000 		.4byte	.LVL178
 8992 0f0b 04010000 		.4byte	.LVL197
 8993 0f0f 0400     		.2byte	0x4
 8994 0f11 F3       		.byte	0xf3
 8995 0f12 01       		.uleb128 0x1
 8996 0f13 52       		.byte	0x52
 8997 0f14 9F       		.byte	0x9f
 8998 0f15 04010000 		.4byte	.LVL197
 8999 0f19 20010000 		.4byte	.LFE47
 9000 0f1d 0100     		.2byte	0x1
 9001 0f1f 52       		.byte	0x52
 9002 0f20 00000000 		.4byte	0
 9003 0f24 00000000 		.4byte	0
 9004              	.LLST93:
 9005 0f28 00000000 		.4byte	.LVL174
 9006 0f2c 2C000000 		.4byte	.LVL179
 9007 0f30 0200     		.2byte	0x2
 9008 0f32 33       		.byte	0x33
 9009 0f33 9F       		.byte	0x9f
ARM GAS  C:\Users\AFDHAL~1\AppData\Local\Temp\ccKZJoZj.s 			page 184


 9010 0f34 2C000000 		.4byte	.LVL179
 9011 0f38 32000000 		.4byte	.LVL180
 9012 0f3c 0900     		.2byte	0x9
 9013 0f3e 73       		.byte	0x73
 9014 0f3f 00       		.sleb128 0
 9015 0f40 91       		.byte	0x91
 9016 0f41 00       		.sleb128 0
 9017 0f42 1C       		.byte	0x1c
 9018 0f43 23       		.byte	0x23
 9019 0f44 9802     		.uleb128 0x118
 9020 0f46 9F       		.byte	0x9f
 9021 0f47 32000000 		.4byte	.LVL180
 9022 0f4b 34000000 		.4byte	.LVL181
 9023 0f4f 0900     		.2byte	0x9
 9024 0f51 73       		.byte	0x73
 9025 0f52 00       		.sleb128 0
 9026 0f53 91       		.byte	0x91
 9027 0f54 00       		.sleb128 0
 9028 0f55 1C       		.byte	0x1c
 9029 0f56 23       		.byte	0x23
 9030 0f57 9902     		.uleb128 0x119
 9031 0f59 9F       		.byte	0x9f
 9032 0f5a 34000000 		.4byte	.LVL181
 9033 0f5e 36000000 		.4byte	.LVL182
 9034 0f62 0900     		.2byte	0x9
 9035 0f64 73       		.byte	0x73
 9036 0f65 00       		.sleb128 0
 9037 0f66 91       		.byte	0x91
 9038 0f67 00       		.sleb128 0
 9039 0f68 1C       		.byte	0x1c
 9040 0f69 23       		.byte	0x23
 9041 0f6a 9A02     		.uleb128 0x11a
 9042 0f6c 9F       		.byte	0x9f
 9043 0f6d 36000000 		.4byte	.LVL182
 9044 0f71 44000000 		.4byte	.LVL183
 9045 0f75 0900     		.2byte	0x9
 9046 0f77 73       		.byte	0x73
 9047 0f78 00       		.sleb128 0
 9048 0f79 91       		.byte	0x91
 9049 0f7a 00       		.sleb128 0
 9050 0f7b 1C       		.byte	0x1c
 9051 0f7c 23       		.byte	0x23
 9052 0f7d 9802     		.uleb128 0x118
 9053 0f7f 9F       		.byte	0x9f
 9054 0f80 04010000 		.4byte	.LVL197
 9055 0f84 20010000 		.4byte	.LFE47
 9056 0f88 0200     		.2byte	0x2
 9057 0f8a 33       		.byte	0x33
 9058 0f8b 9F       		.byte	0x9f
 9059 0f8c 00000000 		.4byte	0
 9060 0f90 00000000 		.4byte	0
 9061              	.LLST94:
 9062 0f94 18000000 		.4byte	.LVL177
 9063 0f98 2C000000 		.4byte	.LVL179
 9064 0f9c 0100     		.2byte	0x1
 9065 0f9e 50       		.byte	0x50
 9066 0f9f 04010000 		.4byte	.LVL197
ARM GAS  C:\Users\AFDHAL~1\AppData\Local\Temp\ccKZJoZj.s 			page 185


 9067 0fa3 20010000 		.4byte	.LFE47
 9068 0fa7 0100     		.2byte	0x1
 9069 0fa9 50       		.byte	0x50
 9070 0faa 00000000 		.4byte	0
 9071 0fae 00000000 		.4byte	0
 9072              	.LLST95:
 9073 0fb2 08000000 		.4byte	.LVL175
 9074 0fb6 18000000 		.4byte	.LVL177
 9075 0fba 0100     		.2byte	0x1
 9076 0fbc 5D       		.byte	0x5d
 9077 0fbd 00000000 		.4byte	0
 9078 0fc1 00000000 		.4byte	0
 9079              	.LLST96:
 9080 0fc5 00000000 		.4byte	.LVL174
 9081 0fc9 12000000 		.4byte	.LVL176
 9082 0fcd 0100     		.2byte	0x1
 9083 0fcf 51       		.byte	0x51
 9084 0fd0 12000000 		.4byte	.LVL176
 9085 0fd4 18000000 		.4byte	.LVL177
 9086 0fd8 0400     		.2byte	0x4
 9087 0fda F3       		.byte	0xf3
 9088 0fdb 01       		.uleb128 0x1
 9089 0fdc 51       		.byte	0x51
 9090 0fdd 9F       		.byte	0x9f
 9091 0fde 00000000 		.4byte	0
 9092 0fe2 00000000 		.4byte	0
 9093              	.LLST97:
 9094 0fe6 00000000 		.4byte	.LVL174
 9095 0fea 18000000 		.4byte	.LVL177
 9096 0fee 0200     		.2byte	0x2
 9097 0ff0 33       		.byte	0x33
 9098 0ff1 9F       		.byte	0x9f
 9099 0ff2 00000000 		.4byte	0
 9100 0ff6 00000000 		.4byte	0
 9101              	.LLST98:
 9102 0ffa 4E000000 		.4byte	.LVL184
 9103 0ffe FA000000 		.4byte	.LVL196
 9104 1002 0100     		.2byte	0x1
 9105 1004 5D       		.byte	0x5d
 9106 1005 00000000 		.4byte	0
 9107 1009 00000000 		.4byte	0
 9108              	.LLST99:
 9109 100d EA000000 		.4byte	.LVL193
 9110 1011 EC000000 		.4byte	.LVL194
 9111 1015 0100     		.2byte	0x1
 9112 1017 54       		.byte	0x54
 9113 1018 F4000000 		.4byte	.LVL195
 9114 101c FA000000 		.4byte	.LVL196
 9115 1020 0100     		.2byte	0x1
 9116 1022 54       		.byte	0x54
 9117 1023 00000000 		.4byte	0
 9118 1027 00000000 		.4byte	0
 9119              	.LLST100:
 9120 102b D4000000 		.4byte	.LVL191
 9121 102f EA000000 		.4byte	.LVL193
 9122 1033 0100     		.2byte	0x1
 9123 1035 53       		.byte	0x53
ARM GAS  C:\Users\AFDHAL~1\AppData\Local\Temp\ccKZJoZj.s 			page 186


 9124 1036 00000000 		.4byte	0
 9125 103a 00000000 		.4byte	0
 9126              	.LLST101:
 9127 103e 4E000000 		.4byte	.LVL184
 9128 1042 56000000 		.4byte	.LVL186
 9129 1046 0200     		.2byte	0x2
 9130 1048 30       		.byte	0x30
 9131 1049 9F       		.byte	0x9f
 9132 104a 00000000 		.4byte	0
 9133 104e 00000000 		.4byte	0
 9134              	.LLST102:
 9135 1052 C2000000 		.4byte	.LVL187
 9136 1056 D4000000 		.4byte	.LVL191
 9137 105a 0200     		.2byte	0x2
 9138 105c 39       		.byte	0x39
 9139 105d 9F       		.byte	0x9f
 9140 105e 00000000 		.4byte	0
 9141 1062 00000000 		.4byte	0
 9142              	.LLST103:
 9143 1066 4E000000 		.4byte	.LVL184
 9144 106a 56000000 		.4byte	.LVL186
 9145 106e 0400     		.2byte	0x4
 9146 1070 0A       		.byte	0xa
 9147 1071 FFFF     		.2byte	0xffff
 9148 1073 9F       		.byte	0x9f
 9149 1074 C2000000 		.4byte	.LVL187
 9150 1078 CC000000 		.4byte	.LVL189
 9151 107c 0100     		.2byte	0x1
 9152 107e 51       		.byte	0x51
 9153 107f CC000000 		.4byte	.LVL189
 9154 1083 D0000000 		.4byte	.LVL190
 9155 1087 0100     		.2byte	0x1
 9156 1089 53       		.byte	0x53
 9157 108a D0000000 		.4byte	.LVL190
 9158 108e D4000000 		.4byte	.LVL191
 9159 1092 0800     		.2byte	0x8
 9160 1094 71       		.byte	0x71
 9161 1095 00       		.sleb128 0
 9162 1096 38       		.byte	0x38
 9163 1097 25       		.byte	0x25
 9164 1098 74       		.byte	0x74
 9165 1099 00       		.sleb128 0
 9166 109a 21       		.byte	0x21
 9167 109b 9F       		.byte	0x9f
 9168 109c 00000000 		.4byte	0
 9169 10a0 00000000 		.4byte	0
 9170              	.LLST104:
 9171 10a4 C8000000 		.4byte	.LVL188
 9172 10a8 CC000000 		.4byte	.LVL189
 9173 10ac 0100     		.2byte	0x1
 9174 10ae 53       		.byte	0x53
 9175 10af CC000000 		.4byte	.LVL189
 9176 10b3 D4000000 		.4byte	.LVL191
 9177 10b7 0500     		.2byte	0x5
 9178 10b9 71       		.byte	0x71
 9179 10ba 00       		.sleb128 0
 9180 10bb 38       		.byte	0x38
ARM GAS  C:\Users\AFDHAL~1\AppData\Local\Temp\ccKZJoZj.s 			page 187


 9181 10bc 25       		.byte	0x25
 9182 10bd 9F       		.byte	0x9f
 9183 10be 00000000 		.4byte	0
 9184 10c2 00000000 		.4byte	0
 9185              	.LLST105:
 9186 10c6 00000000 		.4byte	.LVL198
 9187 10ca 11000000 		.4byte	.LVL199-1
 9188 10ce 0100     		.2byte	0x1
 9189 10d0 50       		.byte	0x50
 9190 10d1 11000000 		.4byte	.LVL199-1
 9191 10d5 5A050000 		.4byte	.LFE48
 9192 10d9 0400     		.2byte	0x4
 9193 10db F3       		.byte	0xf3
 9194 10dc 01       		.uleb128 0x1
 9195 10dd 50       		.byte	0x50
 9196 10de 9F       		.byte	0x9f
 9197 10df 00000000 		.4byte	0
 9198 10e3 00000000 		.4byte	0
 9199              	.LLST106:
 9200 10e7 00000000 		.4byte	.LVL198
 9201 10eb 11000000 		.4byte	.LVL199-1
 9202 10ef 0100     		.2byte	0x1
 9203 10f1 51       		.byte	0x51
 9204 10f2 11000000 		.4byte	.LVL199-1
 9205 10f6 36000000 		.4byte	.LVL202
 9206 10fa 0100     		.2byte	0x1
 9207 10fc 56       		.byte	0x56
 9208 10fd 36000000 		.4byte	.LVL202
 9209 1101 40000000 		.4byte	.LVL203
 9210 1105 0400     		.2byte	0x4
 9211 1107 F3       		.byte	0xf3
 9212 1108 01       		.uleb128 0x1
 9213 1109 51       		.byte	0x51
 9214 110a 9F       		.byte	0x9f
 9215 110b 40000000 		.4byte	.LVL203
 9216 110f 48020000 		.4byte	.LVL241
 9217 1113 0100     		.2byte	0x1
 9218 1115 56       		.byte	0x56
 9219 1116 48020000 		.4byte	.LVL241
 9220 111a C8040000 		.4byte	.LVL265
 9221 111e 0400     		.2byte	0x4
 9222 1120 F3       		.byte	0xf3
 9223 1121 01       		.uleb128 0x1
 9224 1122 51       		.byte	0x51
 9225 1123 9F       		.byte	0x9f
 9226 1124 C8040000 		.4byte	.LVL265
 9227 1128 5A050000 		.4byte	.LFE48
 9228 112c 0100     		.2byte	0x1
 9229 112e 56       		.byte	0x56
 9230 112f 00000000 		.4byte	0
 9231 1133 00000000 		.4byte	0
 9232              	.LLST107:
 9233 1137 00000000 		.4byte	.LVL198
 9234 113b 11000000 		.4byte	.LVL199-1
 9235 113f 0100     		.2byte	0x1
 9236 1141 52       		.byte	0x52
 9237 1142 11000000 		.4byte	.LVL199-1
ARM GAS  C:\Users\AFDHAL~1\AppData\Local\Temp\ccKZJoZj.s 			page 188


 9238 1146 36000000 		.4byte	.LVL202
 9239 114a 0100     		.2byte	0x1
 9240 114c 57       		.byte	0x57
 9241 114d 36000000 		.4byte	.LVL202
 9242 1151 40000000 		.4byte	.LVL203
 9243 1155 0400     		.2byte	0x4
 9244 1157 F3       		.byte	0xf3
 9245 1158 01       		.uleb128 0x1
 9246 1159 52       		.byte	0x52
 9247 115a 9F       		.byte	0x9f
 9248 115b 40000000 		.4byte	.LVL203
 9249 115f 76000000 		.4byte	.LVL210
 9250 1163 0100     		.2byte	0x1
 9251 1165 57       		.byte	0x57
 9252 1166 76000000 		.4byte	.LVL210
 9253 116a CA010000 		.4byte	.LVL227
 9254 116e 0400     		.2byte	0x4
 9255 1170 F3       		.byte	0xf3
 9256 1171 01       		.uleb128 0x1
 9257 1172 52       		.byte	0x52
 9258 1173 9F       		.byte	0x9f
 9259 1174 CA010000 		.4byte	.LVL227
 9260 1178 D2010000 		.4byte	.LVL228
 9261 117c 0100     		.2byte	0x1
 9262 117e 57       		.byte	0x57
 9263 117f D2010000 		.4byte	.LVL228
 9264 1183 D6010000 		.4byte	.LVL229
 9265 1187 0400     		.2byte	0x4
 9266 1189 F3       		.byte	0xf3
 9267 118a 01       		.uleb128 0x1
 9268 118b 52       		.byte	0x52
 9269 118c 9F       		.byte	0x9f
 9270 118d D6010000 		.4byte	.LVL229
 9271 1191 1C020000 		.4byte	.LVL235
 9272 1195 0100     		.2byte	0x1
 9273 1197 57       		.byte	0x57
 9274 1198 1C020000 		.4byte	.LVL235
 9275 119c C8040000 		.4byte	.LVL265
 9276 11a0 0400     		.2byte	0x4
 9277 11a2 F3       		.byte	0xf3
 9278 11a3 01       		.uleb128 0x1
 9279 11a4 52       		.byte	0x52
 9280 11a5 9F       		.byte	0x9f
 9281 11a6 C8040000 		.4byte	.LVL265
 9282 11aa 1E050000 		.4byte	.LVL278
 9283 11ae 0100     		.2byte	0x1
 9284 11b0 57       		.byte	0x57
 9285 11b1 1E050000 		.4byte	.LVL278
 9286 11b5 4C050000 		.4byte	.LVL282
 9287 11b9 0400     		.2byte	0x4
 9288 11bb F3       		.byte	0xf3
 9289 11bc 01       		.uleb128 0x1
 9290 11bd 52       		.byte	0x52
 9291 11be 9F       		.byte	0x9f
 9292 11bf 4C050000 		.4byte	.LVL282
 9293 11c3 5A050000 		.4byte	.LFE48
 9294 11c7 0100     		.2byte	0x1
ARM GAS  C:\Users\AFDHAL~1\AppData\Local\Temp\ccKZJoZj.s 			page 189


 9295 11c9 57       		.byte	0x57
 9296 11ca 00000000 		.4byte	0
 9297 11ce 00000000 		.4byte	0
 9298              	.LLST108:
 9299 11d2 0C020000 		.4byte	.LVL234
 9300 11d6 38020000 		.4byte	.LVL238
 9301 11da 0100     		.2byte	0x1
 9302 11dc 50       		.byte	0x50
 9303 11dd 38020000 		.4byte	.LVL238
 9304 11e1 7E030000 		.4byte	.LVL248
 9305 11e5 0100     		.2byte	0x1
 9306 11e7 52       		.byte	0x52
 9307 11e8 F8040000 		.4byte	.LVL274
 9308 11ec 0B050000 		.4byte	.LVL275-1
 9309 11f0 0100     		.2byte	0x1
 9310 11f2 50       		.byte	0x50
 9311 11f3 10050000 		.4byte	.LVL276
 9312 11f7 3F050000 		.4byte	.LVL281-1
 9313 11fb 0100     		.2byte	0x1
 9314 11fd 50       		.byte	0x50
 9315 11fe 00000000 		.4byte	0
 9316 1202 00000000 		.4byte	0
 9317              	.LLST109:
 9318 1206 12000000 		.4byte	.LVL199
 9319 120a 36000000 		.4byte	.LVL202
 9320 120e 0100     		.2byte	0x1
 9321 1210 50       		.byte	0x50
 9322 1211 40000000 		.4byte	.LVL203
 9323 1215 4E000000 		.4byte	.LVL204
 9324 1219 0100     		.2byte	0x1
 9325 121b 50       		.byte	0x50
 9326 121c 54000000 		.4byte	.LVL205
 9327 1220 74000000 		.4byte	.LVL209
 9328 1224 0100     		.2byte	0x1
 9329 1226 50       		.byte	0x50
 9330 1227 CA010000 		.4byte	.LVL227
 9331 122b D2010000 		.4byte	.LVL228
 9332 122f 0100     		.2byte	0x1
 9333 1231 50       		.byte	0x50
 9334 1232 D6010000 		.4byte	.LVL229
 9335 1236 E8010000 		.4byte	.LVL231
 9336 123a 0100     		.2byte	0x1
 9337 123c 50       		.byte	0x50
 9338 123d C8040000 		.4byte	.LVL265
 9339 1241 E6040000 		.4byte	.LVL271
 9340 1245 0100     		.2byte	0x1
 9341 1247 50       		.byte	0x50
 9342 1248 4C050000 		.4byte	.LVL282
 9343 124c 5A050000 		.4byte	.LFE48
 9344 1250 0100     		.2byte	0x1
 9345 1252 50       		.byte	0x50
 9346 1253 00000000 		.4byte	0
 9347 1257 00000000 		.4byte	0
 9348              	.LLST110:
 9349 125b 1A000000 		.4byte	.LVL200
 9350 125f 32000000 		.4byte	.LVL201
 9351 1263 0100     		.2byte	0x1
ARM GAS  C:\Users\AFDHAL~1\AppData\Local\Temp\ccKZJoZj.s 			page 190


 9352 1265 52       		.byte	0x52
 9353 1266 32000000 		.4byte	.LVL201
 9354 126a 36000000 		.4byte	.LVL202
 9355 126e 0100     		.2byte	0x1
 9356 1270 5C       		.byte	0x5c
 9357 1271 40000000 		.4byte	.LVL203
 9358 1275 53000000 		.4byte	.LVL205-1
 9359 1279 0100     		.2byte	0x1
 9360 127b 52       		.byte	0x52
 9361 127c CA010000 		.4byte	.LVL227
 9362 1280 D2010000 		.4byte	.LVL228
 9363 1284 0100     		.2byte	0x1
 9364 1286 52       		.byte	0x52
 9365 1287 00000000 		.4byte	0
 9366 128b 00000000 		.4byte	0
 9367              	.LLST111:
 9368 128f 5A000000 		.4byte	.LVL206
 9369 1293 74000000 		.4byte	.LVL209
 9370 1297 0100     		.2byte	0x1
 9371 1299 57       		.byte	0x57
 9372 129a DA010000 		.4byte	.LVL230
 9373 129e F0010000 		.4byte	.LVL233
 9374 12a2 0100     		.2byte	0x1
 9375 12a4 57       		.byte	0x57
 9376 12a5 C8040000 		.4byte	.LVL265
 9377 12a9 F8040000 		.4byte	.LVL274
 9378 12ad 0100     		.2byte	0x1
 9379 12af 57       		.byte	0x57
 9380 12b0 4C050000 		.4byte	.LVL282
 9381 12b4 5A050000 		.4byte	.LFE48
 9382 12b8 0100     		.2byte	0x1
 9383 12ba 57       		.byte	0x57
 9384 12bb 00000000 		.4byte	0
 9385 12bf 00000000 		.4byte	0
 9386              	.LLST112:
 9387 12c3 5A000000 		.4byte	.LVL206
 9388 12c7 74000000 		.4byte	.LVL209
 9389 12cb 0100     		.2byte	0x1
 9390 12cd 50       		.byte	0x50
 9391 12ce DA010000 		.4byte	.LVL230
 9392 12d2 E8010000 		.4byte	.LVL231
 9393 12d6 0100     		.2byte	0x1
 9394 12d8 50       		.byte	0x50
 9395 12d9 C8040000 		.4byte	.LVL265
 9396 12dd E6040000 		.4byte	.LVL271
 9397 12e1 0100     		.2byte	0x1
 9398 12e3 50       		.byte	0x50
 9399 12e4 4C050000 		.4byte	.LVL282
 9400 12e8 5A050000 		.4byte	.LFE48
 9401 12ec 0100     		.2byte	0x1
 9402 12ee 50       		.byte	0x50
 9403 12ef 00000000 		.4byte	0
 9404 12f3 00000000 		.4byte	0
 9405              	.LLST113:
 9406 12f7 5A000000 		.4byte	.LVL206
 9407 12fb 74000000 		.4byte	.LVL209
 9408 12ff 0400     		.2byte	0x4
ARM GAS  C:\Users\AFDHAL~1\AppData\Local\Temp\ccKZJoZj.s 			page 191


 9409 1301 91       		.byte	0x91
 9410 1302 E87D     		.sleb128 -280
 9411 1304 9F       		.byte	0x9f
 9412 1305 DA010000 		.4byte	.LVL230
 9413 1309 F0010000 		.4byte	.LVL233
 9414 130d 0400     		.2byte	0x4
 9415 130f 91       		.byte	0x91
 9416 1310 E87D     		.sleb128 -280
 9417 1312 9F       		.byte	0x9f
 9418 1313 C8040000 		.4byte	.LVL265
 9419 1317 F8040000 		.4byte	.LVL274
 9420 131b 0400     		.2byte	0x4
 9421 131d 91       		.byte	0x91
 9422 131e E87D     		.sleb128 -280
 9423 1320 9F       		.byte	0x9f
 9424 1321 4C050000 		.4byte	.LVL282
 9425 1325 5A050000 		.4byte	.LFE48
 9426 1329 0400     		.2byte	0x4
 9427 132b 91       		.byte	0x91
 9428 132c E87D     		.sleb128 -280
 9429 132e 9F       		.byte	0x9f
 9430 132f 00000000 		.4byte	0
 9431 1333 00000000 		.4byte	0
 9432              	.LLST114:
 9433 1337 5A000000 		.4byte	.LVL206
 9434 133b 64000000 		.4byte	.LVL207
 9435 133f 0200     		.2byte	0x2
 9436 1341 30       		.byte	0x30
 9437 1342 9F       		.byte	0x9f
 9438 1343 64000000 		.4byte	.LVL207
 9439 1347 6A000000 		.4byte	.LVL208
 9440 134b 0200     		.2byte	0x2
 9441 134d 31       		.byte	0x31
 9442 134e 9F       		.byte	0x9f
 9443 134f 6A000000 		.4byte	.LVL208
 9444 1353 74000000 		.4byte	.LVL209
 9445 1357 0200     		.2byte	0x2
 9446 1359 32       		.byte	0x32
 9447 135a 9F       		.byte	0x9f
 9448 135b DA010000 		.4byte	.LVL230
 9449 135f EC010000 		.4byte	.LVL232
 9450 1363 0200     		.2byte	0x2
 9451 1365 31       		.byte	0x31
 9452 1366 9F       		.byte	0x9f
 9453 1367 C8040000 		.4byte	.LVL265
 9454 136b D4040000 		.4byte	.LVL266
 9455 136f 0200     		.2byte	0x2
 9456 1371 30       		.byte	0x30
 9457 1372 9F       		.byte	0x9f
 9458 1373 4C050000 		.4byte	.LVL282
 9459 1377 5A050000 		.4byte	.LFE48
 9460 137b 0200     		.2byte	0x2
 9461 137d 32       		.byte	0x32
 9462 137e 9F       		.byte	0x9f
 9463 137f 00000000 		.4byte	0
 9464 1383 00000000 		.4byte	0
 9465              	.LLST115:
ARM GAS  C:\Users\AFDHAL~1\AppData\Local\Temp\ccKZJoZj.s 			page 192


 9466 1387 DA010000 		.4byte	.LVL230
 9467 138b F0010000 		.4byte	.LVL233
 9468 138f 0200     		.2byte	0x2
 9469 1391 31       		.byte	0x31
 9470 1392 9F       		.byte	0x9f
 9471 1393 C8040000 		.4byte	.LVL265
 9472 1397 F8040000 		.4byte	.LVL274
 9473 139b 0200     		.2byte	0x2
 9474 139d 31       		.byte	0x31
 9475 139e 9F       		.byte	0x9f
 9476 139f 4C050000 		.4byte	.LVL282
 9477 13a3 5A050000 		.4byte	.LFE48
 9478 13a7 0200     		.2byte	0x2
 9479 13a9 31       		.byte	0x31
 9480 13aa 9F       		.byte	0x9f
 9481 13ab 00000000 		.4byte	0
 9482 13af 00000000 		.4byte	0
 9483              	.LLST116:
 9484 13b3 D4040000 		.4byte	.LVL266
 9485 13b7 DC040000 		.4byte	.LVL268
 9486 13bb 0100     		.2byte	0x1
 9487 13bd 54       		.byte	0x54
 9488 13be DE040000 		.4byte	.LVL269
 9489 13c2 F0040000 		.4byte	.LVL272
 9490 13c6 0100     		.2byte	0x1
 9491 13c8 54       		.byte	0x54
 9492 13c9 56050000 		.4byte	.LVL283
 9493 13cd 5A050000 		.4byte	.LFE48
 9494 13d1 0100     		.2byte	0x1
 9495 13d3 54       		.byte	0x54
 9496 13d4 00000000 		.4byte	0
 9497 13d8 00000000 		.4byte	0
 9498              	.LLST117:
 9499 13dc F2040000 		.4byte	.LVL273
 9500 13e0 F8040000 		.4byte	.LVL274
 9501 13e4 0100     		.2byte	0x1
 9502 13e6 50       		.byte	0x50
 9503 13e7 00000000 		.4byte	0
 9504 13eb 00000000 		.4byte	0
 9505              	.LLST118:
 9506 13ef D4040000 		.4byte	.LVL266
 9507 13f3 DA040000 		.4byte	.LVL267
 9508 13f7 0100     		.2byte	0x1
 9509 13f9 52       		.byte	0x52
 9510 13fa DE040000 		.4byte	.LVL269
 9511 13fe E4040000 		.4byte	.LVL270
 9512 1402 0100     		.2byte	0x1
 9513 1404 52       		.byte	0x52
 9514 1405 00000000 		.4byte	0
 9515 1409 00000000 		.4byte	0
 9516              	.LLST119:
 9517 140d DA010000 		.4byte	.LVL230
 9518 1411 EC010000 		.4byte	.LVL232
 9519 1415 0100     		.2byte	0x1
 9520 1417 57       		.byte	0x57
 9521 1418 00000000 		.4byte	0
 9522 141c 00000000 		.4byte	0
ARM GAS  C:\Users\AFDHAL~1\AppData\Local\Temp\ccKZJoZj.s 			page 193


 9523              	.LLST120:
 9524 1420 DA010000 		.4byte	.LVL230
 9525 1424 EC010000 		.4byte	.LVL232
 9526 1428 0400     		.2byte	0x4
 9527 142a 91       		.byte	0x91
 9528 142b E87D     		.sleb128 -280
 9529 142d 9F       		.byte	0x9f
 9530 142e 00000000 		.4byte	0
 9531 1432 00000000 		.4byte	0
 9532              	.LLST121:
 9533 1436 E8010000 		.4byte	.LVL231
 9534 143a EC010000 		.4byte	.LVL232
 9535 143e 0100     		.2byte	0x1
 9536 1440 50       		.byte	0x50
 9537 1441 00000000 		.4byte	0
 9538 1445 00000000 		.4byte	0
 9539              	.LLST122:
 9540 1449 74000000 		.4byte	.LVL209
 9541 144d 8A000000 		.4byte	.LVL212
 9542 1451 0100     		.2byte	0x1
 9543 1453 5D       		.byte	0x5d
 9544 1454 00000000 		.4byte	0
 9545 1458 00000000 		.4byte	0
 9546              	.LLST123:
 9547 145c 74000000 		.4byte	.LVL209
 9548 1460 8A000000 		.4byte	.LVL212
 9549 1464 0100     		.2byte	0x1
 9550 1466 54       		.byte	0x54
 9551 1467 00000000 		.4byte	0
 9552 146b 00000000 		.4byte	0
 9553              	.LLST124:
 9554 146f 74000000 		.4byte	.LVL209
 9555 1473 7E000000 		.4byte	.LVL211
 9556 1477 0100     		.2byte	0x1
 9557 1479 53       		.byte	0x53
 9558 147a 00000000 		.4byte	0
 9559 147e 00000000 		.4byte	0
 9560              	.LLST125:
 9561 1482 8A000000 		.4byte	.LVL212
 9562 1486 BC010000 		.4byte	.LVL224
 9563 148a 0200     		.2byte	0x2
 9564 148c 33       		.byte	0x33
 9565 148d 9F       		.byte	0x9f
 9566 148e BC010000 		.4byte	.LVL224
 9567 1492 CA010000 		.4byte	.LVL227
 9568 1496 0200     		.2byte	0x2
 9569 1498 35       		.byte	0x35
 9570 1499 9F       		.byte	0x9f
 9571 149a D2010000 		.4byte	.LVL228
 9572 149e D6010000 		.4byte	.LVL229
 9573 14a2 0200     		.2byte	0x2
 9574 14a4 33       		.byte	0x33
 9575 14a5 9F       		.byte	0x9f
 9576 14a6 00000000 		.4byte	0
 9577 14aa 00000000 		.4byte	0
 9578              	.LLST126:
 9579 14ae 8A000000 		.4byte	.LVL212
ARM GAS  C:\Users\AFDHAL~1\AppData\Local\Temp\ccKZJoZj.s 			page 194


 9580 14b2 CA010000 		.4byte	.LVL227
 9581 14b6 0100     		.2byte	0x1
 9582 14b8 5D       		.byte	0x5d
 9583 14b9 D2010000 		.4byte	.LVL228
 9584 14bd D6010000 		.4byte	.LVL229
 9585 14c1 0100     		.2byte	0x1
 9586 14c3 57       		.byte	0x57
 9587 14c4 00000000 		.4byte	0
 9588 14c8 00000000 		.4byte	0
 9589              	.LLST127:
 9590 14cc BC010000 		.4byte	.LVL224
 9591 14d0 C0010000 		.4byte	.LVL225
 9592 14d4 0100     		.2byte	0x1
 9593 14d6 55       		.byte	0x55
 9594 14d7 00000000 		.4byte	0
 9595 14db 00000000 		.4byte	0
 9596              	.LLST128:
 9597 14df BA010000 		.4byte	.LVL223
 9598 14e3 BC010000 		.4byte	.LVL224
 9599 14e7 0200     		.2byte	0x2
 9600 14e9 34       		.byte	0x34
 9601 14ea 9F       		.byte	0x9f
 9602 14eb 00000000 		.4byte	0
 9603 14ef 00000000 		.4byte	0
 9604              	.LLST129:
 9605 14f3 B6010000 		.4byte	.LVL222
 9606 14f7 BC010000 		.4byte	.LVL224
 9607 14fb 0100     		.2byte	0x1
 9608 14fd 53       		.byte	0x53
 9609 14fe 00000000 		.4byte	0
 9610 1502 00000000 		.4byte	0
 9611              	.LLST130:
 9612 1506 AA010000 		.4byte	.LVL217
 9613 150a CA010000 		.4byte	.LVL227
 9614 150e 0200     		.2byte	0x2
 9615 1510 33       		.byte	0x33
 9616 1511 9F       		.byte	0x9f
 9617 1512 00000000 		.4byte	0
 9618 1516 00000000 		.4byte	0
 9619              	.LLST131:
 9620 151a E6000000 		.4byte	.LVL213
 9621 151e E8000000 		.4byte	.LVL214
 9622 1522 0200     		.2byte	0x2
 9623 1524 39       		.byte	0x39
 9624 1525 9F       		.byte	0x9f
 9625 1526 48010000 		.4byte	.LVL215
 9626 152a 4A010000 		.4byte	.LVL216
 9627 152e 0200     		.2byte	0x2
 9628 1530 39       		.byte	0x39
 9629 1531 9F       		.byte	0x9f
 9630 1532 AA010000 		.4byte	.LVL217
 9631 1536 B6010000 		.4byte	.LVL222
 9632 153a 0200     		.2byte	0x2
 9633 153c 39       		.byte	0x39
 9634 153d 9F       		.byte	0x9f
 9635 153e 00000000 		.4byte	0
 9636 1542 00000000 		.4byte	0
ARM GAS  C:\Users\AFDHAL~1\AppData\Local\Temp\ccKZJoZj.s 			page 195


 9637              	.LLST132:
 9638 1546 AA010000 		.4byte	.LVL217
 9639 154a B0010000 		.4byte	.LVL219
 9640 154e 0100     		.2byte	0x1
 9641 1550 53       		.byte	0x53
 9642 1551 B2010000 		.4byte	.LVL220
 9643 1555 B4010000 		.4byte	.LVL221
 9644 1559 0100     		.2byte	0x1
 9645 155b 53       		.byte	0x53
 9646 155c 00000000 		.4byte	0
 9647 1560 00000000 		.4byte	0
 9648              	.LLST133:
 9649 1564 AE010000 		.4byte	.LVL218
 9650 1568 B6010000 		.4byte	.LVL222
 9651 156c 0100     		.2byte	0x1
 9652 156e 52       		.byte	0x52
 9653 156f 00000000 		.4byte	0
 9654 1573 00000000 		.4byte	0
 9655              	.LLST134:
 9656 1577 22020000 		.4byte	.LVL236
 9657 157b 48020000 		.4byte	.LVL241
 9658 157f 0100     		.2byte	0x1
 9659 1581 56       		.byte	0x56
 9660 1582 48020000 		.4byte	.LVL241
 9661 1586 C4040000 		.4byte	.LVL264
 9662 158a 0400     		.2byte	0x4
 9663 158c F3       		.byte	0xf3
 9664 158d 01       		.uleb128 0x1
 9665 158e 51       		.byte	0x51
 9666 158f 9F       		.byte	0x9f
 9667 1590 00000000 		.4byte	0
 9668 1594 00000000 		.4byte	0
 9669              	.LLST135:
 9670 1598 22020000 		.4byte	.LVL236
 9671 159c C4040000 		.4byte	.LVL264
 9672 15a0 0400     		.2byte	0x4
 9673 15a2 91       		.byte	0x91
 9674 15a3 E87D     		.sleb128 -280
 9675 15a5 9F       		.byte	0x9f
 9676 15a6 00000000 		.4byte	0
 9677 15aa 00000000 		.4byte	0
 9678              	.LLST136:
 9679 15ae 22020000 		.4byte	.LVL236
 9680 15b2 38020000 		.4byte	.LVL238
 9681 15b6 0100     		.2byte	0x1
 9682 15b8 50       		.byte	0x50
 9683 15b9 38020000 		.4byte	.LVL238
 9684 15bd 7E030000 		.4byte	.LVL248
 9685 15c1 0100     		.2byte	0x1
 9686 15c3 52       		.byte	0x52
 9687 15c4 00000000 		.4byte	0
 9688 15c8 00000000 		.4byte	0
 9689              	.LLST137:
 9690 15cc 22020000 		.4byte	.LVL236
 9691 15d0 C4040000 		.4byte	.LVL264
 9692 15d4 0200     		.2byte	0x2
 9693 15d6 36       		.byte	0x36
ARM GAS  C:\Users\AFDHAL~1\AppData\Local\Temp\ccKZJoZj.s 			page 196


 9694 15d7 9F       		.byte	0x9f
 9695 15d8 00000000 		.4byte	0
 9696 15dc 00000000 		.4byte	0
 9697              	.LLST138:
 9698 15e0 22020000 		.4byte	.LVL236
 9699 15e4 C4040000 		.4byte	.LVL264
 9700 15e8 0200     		.2byte	0x2
 9701 15ea 30       		.byte	0x30
 9702 15eb 9F       		.byte	0x9f
 9703 15ec 00000000 		.4byte	0
 9704 15f0 00000000 		.4byte	0
 9705              	.LLST139:
 9706 15f4 32020000 		.4byte	.LVL237
 9707 15f8 44020000 		.4byte	.LVL239
 9708 15fc 0700     		.2byte	0x7
 9709 15fe 73       		.byte	0x73
 9710 15ff 00       		.sleb128 0
 9711 1600 0A       		.byte	0xa
 9712 1601 FFFF     		.2byte	0xffff
 9713 1603 1A       		.byte	0x1a
 9714 1604 9F       		.byte	0x9f
 9715 1605 44020000 		.4byte	.LVL239
 9716 1609 46020000 		.4byte	.LVL240
 9717 160d 0C00     		.2byte	0xc
 9718 160f 76       		.byte	0x76
 9719 1610 00       		.sleb128 0
 9720 1611 70       		.byte	0x70
 9721 1612 00       		.sleb128 0
 9722 1613 22       		.byte	0x22
 9723 1614 94       		.byte	0x94
 9724 1615 02       		.byte	0x2
 9725 1616 0A       		.byte	0xa
 9726 1617 FFFF     		.2byte	0xffff
 9727 1619 1A       		.byte	0x1a
 9728 161a 9F       		.byte	0x9f
 9729 161b 46020000 		.4byte	.LVL240
 9730 161f 48020000 		.4byte	.LVL241
 9731 1623 0E00     		.2byte	0xe
 9732 1625 72       		.byte	0x72
 9733 1626 00       		.sleb128 0
 9734 1627 32       		.byte	0x32
 9735 1628 24       		.byte	0x24
 9736 1629 76       		.byte	0x76
 9737 162a 00       		.sleb128 0
 9738 162b 22       		.byte	0x22
 9739 162c 94       		.byte	0x94
 9740 162d 02       		.byte	0x2
 9741 162e 0A       		.byte	0xa
 9742 162f FFFF     		.2byte	0xffff
 9743 1631 1A       		.byte	0x1a
 9744 1632 9F       		.byte	0x9f
 9745 1633 00000000 		.4byte	0
 9746 1637 00000000 		.4byte	0
 9747              	.LLST140:
 9748 163b 32020000 		.4byte	.LVL237
 9749 163f 52020000 		.4byte	.LVL242
 9750 1643 0100     		.2byte	0x1
ARM GAS  C:\Users\AFDHAL~1\AppData\Local\Temp\ccKZJoZj.s 			page 197


 9751 1645 57       		.byte	0x57
 9752 1646 00000000 		.4byte	0
 9753 164a 00000000 		.4byte	0
 9754              	.LLST142:
 9755 164e 32020000 		.4byte	.LVL237
 9756 1652 38020000 		.4byte	.LVL238
 9757 1656 0100     		.2byte	0x1
 9758 1658 50       		.byte	0x50
 9759 1659 38020000 		.4byte	.LVL238
 9760 165d 52020000 		.4byte	.LVL242
 9761 1661 0100     		.2byte	0x1
 9762 1663 52       		.byte	0x52
 9763 1664 00000000 		.4byte	0
 9764 1668 00000000 		.4byte	0
 9765              	.LLST143:
 9766 166c 32020000 		.4byte	.LVL237
 9767 1670 52020000 		.4byte	.LVL242
 9768 1674 0200     		.2byte	0x2
 9769 1676 36       		.byte	0x36
 9770 1677 9F       		.byte	0x9f
 9771 1678 00000000 		.4byte	0
 9772 167c 00000000 		.4byte	0
 9773              	.LLST144:
 9774 1680 B8040000 		.4byte	.LVL261
 9775 1684 C4040000 		.4byte	.LVL264
 9776 1688 0200     		.2byte	0x2
 9777 168a 38       		.byte	0x38
 9778 168b 9F       		.byte	0x9f
 9779 168c 00000000 		.4byte	0
 9780 1690 00000000 		.4byte	0
 9781              	.LLST145:
 9782 1694 52020000 		.4byte	.LVL242
 9783 1698 C4040000 		.4byte	.LVL264
 9784 169c 0100     		.2byte	0x1
 9785 169e 57       		.byte	0x57
 9786 169f 00000000 		.4byte	0
 9787 16a3 00000000 		.4byte	0
 9788              	.LLST146:
 9789 16a7 B8040000 		.4byte	.LVL261
 9790 16ab BC040000 		.4byte	.LVL262
 9791 16af 0100     		.2byte	0x1
 9792 16b1 54       		.byte	0x54
 9793 16b2 00000000 		.4byte	0
 9794 16b6 00000000 		.4byte	0
 9795              	.LLST147:
 9796 16ba B6040000 		.4byte	.LVL260
 9797 16be B8040000 		.4byte	.LVL261
 9798 16c2 0200     		.2byte	0x2
 9799 16c4 37       		.byte	0x37
 9800 16c5 9F       		.byte	0x9f
 9801 16c6 00000000 		.4byte	0
 9802 16ca 00000000 		.4byte	0
 9803              	.LLST148:
 9804 16ce B2040000 		.4byte	.LVL259
 9805 16d2 B8040000 		.4byte	.LVL261
 9806 16d6 0100     		.2byte	0x1
 9807 16d8 53       		.byte	0x53
ARM GAS  C:\Users\AFDHAL~1\AppData\Local\Temp\ccKZJoZj.s 			page 198


 9808 16d9 00000000 		.4byte	0
 9809 16dd 00000000 		.4byte	0
 9810              	.LLST149:
 9811 16e1 A6040000 		.4byte	.LVL254
 9812 16e5 C4040000 		.4byte	.LVL264
 9813 16e9 0200     		.2byte	0x2
 9814 16eb 36       		.byte	0x36
 9815 16ec 9F       		.byte	0x9f
 9816 16ed 00000000 		.4byte	0
 9817 16f1 00000000 		.4byte	0
 9818              	.LLST150:
 9819 16f5 AE020000 		.4byte	.LVL243
 9820 16f9 B4020000 		.4byte	.LVL244
 9821 16fd 0200     		.2byte	0x2
 9822 16ff 39       		.byte	0x39
 9823 1700 9F       		.byte	0x9f
 9824 1701 12030000 		.4byte	.LVL245
 9825 1705 18030000 		.4byte	.LVL246
 9826 1709 0200     		.2byte	0x2
 9827 170b 39       		.byte	0x39
 9828 170c 9F       		.byte	0x9f
 9829 170d 7A030000 		.4byte	.LVL247
 9830 1711 82030000 		.4byte	.LVL249
 9831 1715 0200     		.2byte	0x2
 9832 1717 39       		.byte	0x39
 9833 1718 9F       		.byte	0x9f
 9834 1719 E2030000 		.4byte	.LVL250
 9835 171d E4030000 		.4byte	.LVL251
 9836 1721 0200     		.2byte	0x2
 9837 1723 39       		.byte	0x39
 9838 1724 9F       		.byte	0x9f
 9839 1725 44040000 		.4byte	.LVL252
 9840 1729 46040000 		.4byte	.LVL253
 9841 172d 0200     		.2byte	0x2
 9842 172f 39       		.byte	0x39
 9843 1730 9F       		.byte	0x9f
 9844 1731 A6040000 		.4byte	.LVL254
 9845 1735 B2040000 		.4byte	.LVL259
 9846 1739 0200     		.2byte	0x2
 9847 173b 39       		.byte	0x39
 9848 173c 9F       		.byte	0x9f
 9849 173d 00000000 		.4byte	0
 9850 1741 00000000 		.4byte	0
 9851              	.LLST151:
 9852 1745 A6040000 		.4byte	.LVL254
 9853 1749 AC040000 		.4byte	.LVL256
 9854 174d 0100     		.2byte	0x1
 9855 174f 53       		.byte	0x53
 9856 1750 AE040000 		.4byte	.LVL257
 9857 1754 B0040000 		.4byte	.LVL258
 9858 1758 0100     		.2byte	0x1
 9859 175a 53       		.byte	0x53
 9860 175b 00000000 		.4byte	0
 9861 175f 00000000 		.4byte	0
 9862              	.LLST152:
 9863 1763 AA040000 		.4byte	.LVL255
 9864 1767 B2040000 		.4byte	.LVL259
ARM GAS  C:\Users\AFDHAL~1\AppData\Local\Temp\ccKZJoZj.s 			page 199


 9865 176b 0100     		.2byte	0x1
 9866 176d 52       		.byte	0x52
 9867 176e 00000000 		.4byte	0
 9868 1772 00000000 		.4byte	0
 9869              	.LLST153:
 9870 1776 16050000 		.4byte	.LVL277
 9871 177a 28050000 		.4byte	.LVL279
 9872 177e 0200     		.2byte	0x2
 9873 1780 30       		.byte	0x30
 9874 1781 9F       		.byte	0x9f
 9875 1782 28050000 		.4byte	.LVL279
 9876 1786 2E050000 		.4byte	.LVL280
 9877 178a 0600     		.2byte	0x6
 9878 178c 73       		.byte	0x73
 9879 178d 00       		.sleb128 0
 9880 178e 70       		.byte	0x70
 9881 178f 00       		.sleb128 0
 9882 1790 1C       		.byte	0x1c
 9883 1791 9F       		.byte	0x9f
 9884 1792 00000000 		.4byte	0
 9885 1796 00000000 		.4byte	0
 9886              		.section	.debug_aranges,"",%progbits
 9887 0000 8C000000 		.4byte	0x8c
 9888 0004 0200     		.2byte	0x2
 9889 0006 00000000 		.4byte	.Ldebug_info0
 9890 000a 04       		.byte	0x4
 9891 000b 00       		.byte	0
 9892 000c 0000     		.2byte	0
 9893 000e 0000     		.2byte	0
 9894 0010 00000000 		.4byte	.LFB34
 9895 0014 94000000 		.4byte	.LFE34-.LFB34
 9896 0018 00000000 		.4byte	.LFB35
 9897 001c 14000000 		.4byte	.LFE35-.LFB35
 9898 0020 00000000 		.4byte	.LFB36
 9899 0024 1C000000 		.4byte	.LFE36-.LFB36
 9900 0028 00000000 		.4byte	.LFB37
 9901 002c 1C000000 		.4byte	.LFE37-.LFB37
 9902 0030 00000000 		.4byte	.LFB38
 9903 0034 14000000 		.4byte	.LFE38-.LFB38
 9904 0038 00000000 		.4byte	.LFB39
 9905 003c AC000000 		.4byte	.LFE39-.LFB39
 9906 0040 00000000 		.4byte	.LFB40
 9907 0044 D0000000 		.4byte	.LFE40-.LFB40
 9908 0048 00000000 		.4byte	.LFB41
 9909 004c 2A000000 		.4byte	.LFE41-.LFB41
 9910 0050 00000000 		.4byte	.LFB42
 9911 0054 EC000000 		.4byte	.LFE42-.LFB42
 9912 0058 00000000 		.4byte	.LFB43
 9913 005c 5C000000 		.4byte	.LFE43-.LFB43
 9914 0060 00000000 		.4byte	.LFB44
 9915 0064 2A000000 		.4byte	.LFE44-.LFB44
 9916 0068 00000000 		.4byte	.LFB45
 9917 006c C4050000 		.4byte	.LFE45-.LFB45
 9918 0070 00000000 		.4byte	.LFB46
 9919 0074 BC020000 		.4byte	.LFE46-.LFB46
 9920 0078 00000000 		.4byte	.LFB47
 9921 007c 20010000 		.4byte	.LFE47-.LFB47
ARM GAS  C:\Users\AFDHAL~1\AppData\Local\Temp\ccKZJoZj.s 			page 200


 9922 0080 00000000 		.4byte	.LFB48
 9923 0084 5A050000 		.4byte	.LFE48-.LFB48
 9924 0088 00000000 		.4byte	0
 9925 008c 00000000 		.4byte	0
 9926              		.section	.debug_ranges,"",%progbits
 9927              	.Ldebug_ranges0:
 9928 0000 04000000 		.4byte	.LBB21
 9929 0004 92000000 		.4byte	.LBE21
 9930 0008 9E000000 		.4byte	.LBB24
 9931 000c AC000000 		.4byte	.LBE24
 9932 0010 00000000 		.4byte	0
 9933 0014 00000000 		.4byte	0
 9934 0018 04000000 		.4byte	.LBB29
 9935 001c 96000000 		.4byte	.LBE29
 9936 0020 98000000 		.4byte	.LBB36
 9937 0024 9A000000 		.4byte	.LBE36
 9938 0028 9C000000 		.4byte	.LBB37
 9939 002c 9E000000 		.4byte	.LBE37
 9940 0030 B8000000 		.4byte	.LBB38
 9941 0034 C0000000 		.4byte	.LBE38
 9942 0038 00000000 		.4byte	0
 9943 003c 00000000 		.4byte	0
 9944 0040 02000000 		.4byte	.LBB43
 9945 0044 04000000 		.4byte	.LBE43
 9946 0048 06000000 		.4byte	.LBB47
 9947 004c 20000000 		.4byte	.LBE47
 9948 0050 D2000000 		.4byte	.LBB51
 9949 0054 D8000000 		.4byte	.LBE51
 9950 0058 00000000 		.4byte	0
 9951 005c 00000000 		.4byte	0
 9952 0060 26000000 		.4byte	.LBB48
 9953 0064 B2000000 		.4byte	.LBE48
 9954 0068 D8000000 		.4byte	.LBB52
 9955 006c DC000000 		.4byte	.LBE52
 9956 0070 00000000 		.4byte	0
 9957 0074 00000000 		.4byte	0
 9958 0078 16000000 		.4byte	.LBB55
 9959 007c 28000000 		.4byte	.LBE55
 9960 0080 46000000 		.4byte	.LBB58
 9961 0084 4E000000 		.4byte	.LBE58
 9962 0088 00000000 		.4byte	0
 9963 008c 00000000 		.4byte	0
 9964 0090 06000000 		.4byte	.LBB69
 9965 0094 08000000 		.4byte	.LBE69
 9966 0098 0A000000 		.4byte	.LBB73
 9967 009c 2C000000 		.4byte	.LBE73
 9968 00a0 2E000000 		.4byte	.LBB77
 9969 00a4 30000000 		.4byte	.LBE77
 9970 00a8 00000000 		.4byte	0
 9971 00ac 00000000 		.4byte	0
 9972 00b0 2C000000 		.4byte	.LBB74
 9973 00b4 2E000000 		.4byte	.LBE74
 9974 00b8 30000000 		.4byte	.LBB78
 9975 00bc 52000000 		.4byte	.LBE78
 9976 00c0 00000000 		.4byte	0
 9977 00c4 00000000 		.4byte	0
 9978 00c8 52000000 		.4byte	.LBB79
ARM GAS  C:\Users\AFDHAL~1\AppData\Local\Temp\ccKZJoZj.s 			page 201


 9979 00cc BE020000 		.4byte	.LBE79
 9980 00d0 CE020000 		.4byte	.LBB92
 9981 00d4 BC050000 		.4byte	.LBE92
 9982 00d8 00000000 		.4byte	0
 9983 00dc 00000000 		.4byte	0
 9984 00e0 52000000 		.4byte	.LBB81
 9985 00e4 B0020000 		.4byte	.LBE81
 9986 00e8 CE020000 		.4byte	.LBB90
 9987 00ec BC050000 		.4byte	.LBE90
 9988 00f0 00000000 		.4byte	0
 9989 00f4 00000000 		.4byte	0
 9990 00f8 52000000 		.4byte	.LBB83
 9991 00fc 9C020000 		.4byte	.LBE83
 9992 0100 A0020000 		.4byte	.LBB87
 9993 0104 AA020000 		.4byte	.LBE87
 9994 0108 CE020000 		.4byte	.LBB88
 9995 010c BC050000 		.4byte	.LBE88
 9996 0110 00000000 		.4byte	0
 9997 0114 00000000 		.4byte	0
 9998 0118 0A000000 		.4byte	.LBB103
 9999 011c 0C000000 		.4byte	.LBE103
 10000 0120 0E000000 		.4byte	.LBB106
 10001 0124 28000000 		.4byte	.LBE106
 10002 0128 00000000 		.4byte	0
 10003 012c 00000000 		.4byte	0
 10004 0130 2C000000 		.4byte	.LBB111
 10005 0134 88020000 		.4byte	.LBE111
 10006 0138 8C020000 		.4byte	.LBB114
 10007 013c 96020000 		.4byte	.LBE114
 10008 0140 00000000 		.4byte	0
 10009 0144 00000000 		.4byte	0
 10010 0148 08000000 		.4byte	.LBB123
 10011 014c 10000000 		.4byte	.LBE123
 10012 0150 12000000 		.4byte	.LBB126
 10013 0154 1A000000 		.4byte	.LBE126
 10014 0158 00000000 		.4byte	0
 10015 015c 00000000 		.4byte	0
 10016 0160 50000000 		.4byte	.LBB131
 10017 0164 CC000000 		.4byte	.LBE131
 10018 0168 CE000000 		.4byte	.LBB135
 10019 016c D0000000 		.4byte	.LBE135
 10020 0170 D2000000 		.4byte	.LBB136
 10021 0174 D4000000 		.4byte	.LBE136
 10022 0178 00000000 		.4byte	0
 10023 017c 00000000 		.4byte	0
 10024 0180 5A000000 		.4byte	.LBB160
 10025 0184 74000000 		.4byte	.LBE160
 10026 0188 DA010000 		.4byte	.LBB203
 10027 018c 0C020000 		.4byte	.LBE203
 10028 0190 C8040000 		.4byte	.LBB230
 10029 0194 F8040000 		.4byte	.LBE230
 10030 0198 4C050000 		.4byte	.LBB232
 10031 019c 5A050000 		.4byte	.LBE232
 10032 01a0 00000000 		.4byte	0
 10033 01a4 00000000 		.4byte	0
 10034 01a8 DA010000 		.4byte	.LBB162
 10035 01ac EC010000 		.4byte	.LBE162
ARM GAS  C:\Users\AFDHAL~1\AppData\Local\Temp\ccKZJoZj.s 			page 202


 10036 01b0 EE010000 		.4byte	.LBB165
 10037 01b4 0C020000 		.4byte	.LBE165
 10038 01b8 00000000 		.4byte	0
 10039 01bc 00000000 		.4byte	0
 10040 01c0 74000000 		.4byte	.LBB169
 10041 01c4 78000000 		.4byte	.LBE169
 10042 01c8 7A000000 		.4byte	.LBB197
 10043 01cc 7E000000 		.4byte	.LBE197
 10044 01d0 82000000 		.4byte	.LBB199
 10045 01d4 84000000 		.4byte	.LBE199
 10046 01d8 86000000 		.4byte	.LBB201
 10047 01dc 8A000000 		.4byte	.LBE201
 10048 01e0 00000000 		.4byte	0
 10049 01e4 00000000 		.4byte	0
 10050 01e8 78000000 		.4byte	.LBB174
 10051 01ec 7A000000 		.4byte	.LBE174
 10052 01f0 7E000000 		.4byte	.LBB198
 10053 01f4 82000000 		.4byte	.LBE198
 10054 01f8 84000000 		.4byte	.LBB200
 10055 01fc 86000000 		.4byte	.LBE200
 10056 0200 8A000000 		.4byte	.LBB202
 10057 0204 CA010000 		.4byte	.LBE202
 10058 0208 00000000 		.4byte	0
 10059 020c 00000000 		.4byte	0
 10060 0210 78000000 		.4byte	.LBB176
 10061 0214 7A000000 		.4byte	.LBE176
 10062 0218 7E000000 		.4byte	.LBB191
 10063 021c 82000000 		.4byte	.LBE191
 10064 0220 84000000 		.4byte	.LBB192
 10065 0224 86000000 		.4byte	.LBE192
 10066 0228 8A000000 		.4byte	.LBB193
 10067 022c BC010000 		.4byte	.LBE193
 10068 0230 00000000 		.4byte	0
 10069 0234 00000000 		.4byte	0
 10070 0238 78000000 		.4byte	.LBB178
 10071 023c 7A000000 		.4byte	.LBE178
 10072 0240 7E000000 		.4byte	.LBB184
 10073 0244 82000000 		.4byte	.LBE184
 10074 0248 84000000 		.4byte	.LBB185
 10075 024c 86000000 		.4byte	.LBE185
 10076 0250 8A000000 		.4byte	.LBB186
 10077 0254 AA010000 		.4byte	.LBE186
 10078 0258 AC010000 		.4byte	.LBB187
 10079 025c B6010000 		.4byte	.LBE187
 10080 0260 00000000 		.4byte	0
 10081 0264 00000000 		.4byte	0
 10082 0268 1A020000 		.4byte	.LBB204
 10083 026c 1C020000 		.4byte	.LBE204
 10084 0270 24020000 		.4byte	.LBB229
 10085 0274 C4040000 		.4byte	.LBE229
 10086 0278 00000000 		.4byte	0
 10087 027c 00000000 		.4byte	0
 10088 0280 1A020000 		.4byte	.LBB206
 10089 0284 1C020000 		.4byte	.LBE206
 10090 0288 24020000 		.4byte	.LBB211
 10091 028c 36020000 		.4byte	.LBE211
 10092 0290 3A020000 		.4byte	.LBB212
ARM GAS  C:\Users\AFDHAL~1\AppData\Local\Temp\ccKZJoZj.s 			page 203


 10093 0294 42020000 		.4byte	.LBE212
 10094 0298 4C020000 		.4byte	.LBB226
 10095 029c 52020000 		.4byte	.LBE226
 10096 02a0 00000000 		.4byte	0
 10097 02a4 00000000 		.4byte	0
 10098 02a8 42020000 		.4byte	.LBB213
 10099 02ac 4C020000 		.4byte	.LBE213
 10100 02b0 52020000 		.4byte	.LBB227
 10101 02b4 C4040000 		.4byte	.LBE227
 10102 02b8 00000000 		.4byte	0
 10103 02bc 00000000 		.4byte	0
 10104 02c0 42020000 		.4byte	.LBB215
 10105 02c4 4C020000 		.4byte	.LBE215
 10106 02c8 52020000 		.4byte	.LBB224
 10107 02cc B8040000 		.4byte	.LBE224
 10108 02d0 00000000 		.4byte	0
 10109 02d4 00000000 		.4byte	0
 10110 02d8 42020000 		.4byte	.LBB217
 10111 02dc 4C020000 		.4byte	.LBE217
 10112 02e0 52020000 		.4byte	.LBB221
 10113 02e4 A6040000 		.4byte	.LBE221
 10114 02e8 A8040000 		.4byte	.LBB222
 10115 02ec B2040000 		.4byte	.LBE222
 10116 02f0 00000000 		.4byte	0
 10117 02f4 00000000 		.4byte	0
 10118 02f8 00000000 		.4byte	.LFB34
 10119 02fc 94000000 		.4byte	.LFE34
 10120 0300 00000000 		.4byte	.LFB35
 10121 0304 14000000 		.4byte	.LFE35
 10122 0308 00000000 		.4byte	.LFB36
 10123 030c 1C000000 		.4byte	.LFE36
 10124 0310 00000000 		.4byte	.LFB37
 10125 0314 1C000000 		.4byte	.LFE37
 10126 0318 00000000 		.4byte	.LFB38
 10127 031c 14000000 		.4byte	.LFE38
 10128 0320 00000000 		.4byte	.LFB39
 10129 0324 AC000000 		.4byte	.LFE39
 10130 0328 00000000 		.4byte	.LFB40
 10131 032c D0000000 		.4byte	.LFE40
 10132 0330 00000000 		.4byte	.LFB41
 10133 0334 2A000000 		.4byte	.LFE41
 10134 0338 00000000 		.4byte	.LFB42
 10135 033c EC000000 		.4byte	.LFE42
 10136 0340 00000000 		.4byte	.LFB43
 10137 0344 5C000000 		.4byte	.LFE43
 10138 0348 00000000 		.4byte	.LFB44
 10139 034c 2A000000 		.4byte	.LFE44
 10140 0350 00000000 		.4byte	.LFB45
 10141 0354 C4050000 		.4byte	.LFE45
 10142 0358 00000000 		.4byte	.LFB46
 10143 035c BC020000 		.4byte	.LFE46
 10144 0360 00000000 		.4byte	.LFB47
 10145 0364 20010000 		.4byte	.LFE47
 10146 0368 00000000 		.4byte	.LFB48
 10147 036c 5A050000 		.4byte	.LFE48
 10148 0370 00000000 		.4byte	0
 10149 0374 00000000 		.4byte	0
ARM GAS  C:\Users\AFDHAL~1\AppData\Local\Temp\ccKZJoZj.s 			page 204


 10150              		.section	.debug_line,"",%progbits
 10151              	.Ldebug_line0:
 10152 0000 7C060000 		.section	.debug_str,"MS",%progbits,1
 10152      02006C00 
 10152      00000201 
 10152      FB0E0D00 
 10152      01010101 
 10153              	.LASF113:
 10154 0000 6C617374 		.ascii	"lastBytesReceived\000"
 10154      42797465 
 10154      73526563 
 10154      65697665 
 10154      6400
 10155              	.LASF104:
 10156 0012 736C6176 		.ascii	"slave_id\000"
 10156      655F6964 
 10156      00
 10157              	.LASF37:
 10158 001b 4E52465F 		.ascii	"NRF_FIFO_STATUS_REG\000"
 10158      4649464F 
 10158      5F535441 
 10158      5455535F 
 10158      52454700 
 10159              	.LASF69:
 10160 002f 66636E74 		.ascii	"fcnt\000"
 10160      00
 10161              	.LASF84:
 10162 0034 6275696C 		.ascii	"build_error_packet\000"
 10162      645F6572 
 10162      726F725F 
 10162      7061636B 
 10162      657400
 10163              	.LASF116:
 10164 0047 5553425F 		.ascii	"USB_UART_SpiUartGetRxBufferSize\000"
 10164      55415254 
 10164      5F537069 
 10164      55617274 
 10164      47657452 
 10165              	.LASF58:
 10166 0067 46435F52 		.ascii	"FC_READ_REGS\000"
 10166      4541445F 
 10166      52454753 
 10166      00
 10167              	.LASF71:
 10168 0074 73746172 		.ascii	"start_addr\000"
 10168      745F6164 
 10168      647200
 10169              	.LASF8:
 10170 007f 756E7369 		.ascii	"unsigned int\000"
 10170      676E6564 
 10170      20696E74 
 10170      00
 10171              	.LASF87:
 10172 008c 73747269 		.ascii	"string_length\000"
 10172      6E675F6C 
 10172      656E6774 
 10172      6800
ARM GAS  C:\Users\AFDHAL~1\AppData\Local\Temp\ccKZJoZj.s 			page 205


 10173              	.LASF27:
 10174 009a 4E52465F 		.ascii	"NRF_RX_ADDR_P3_REG\000"
 10174      52585F41 
 10174      4444525F 
 10174      50335F52 
 10174      454700
 10175              	.LASF18:
 10176 00ad 4E52465F 		.ascii	"NRF_SETUP_RETR_REG\000"
 10176      53455455 
 10176      505F5245 
 10176      54525F52 
 10176      454700
 10177              	.LASF35:
 10178 00c0 4E52465F 		.ascii	"NRF_RX_PW_P4_REG\000"
 10178      52585F50 
 10178      575F5034 
 10178      5F524547 
 10178      00
 10179              	.LASF75:
 10180 00d1 72656773 		.ascii	"regs\000"
 10180      00
 10181              	.LASF118:
 10182 00d6 6D6F6462 		.ascii	"modbusRTU.c\000"
 10182      75735254 
 10182      552E6300 
 10183              	.LASF38:
 10184 00e2 4E52465F 		.ascii	"NRF_DYNPD_REG\000"
 10184      44594E50 
 10184      445F5245 
 10184      4700
 10185              	.LASF41:
 10186 00f0 4D41585F 		.ascii	"MAX_WRITE_REGS\000"
 10186      57524954 
 10186      455F5245 
 10186      475300
 10187              	.LASF48:
 10188 00ff 4558435F 		.ascii	"EXC_ADDR_RANGE\000"
 10188      41444452 
 10188      5F52414E 
 10188      474500
 10189              	.LASF50:
 10190 010e 4558435F 		.ascii	"EXC_EXECUTE\000"
 10190      45584543 
 10190      55544500 
 10191              	.LASF24:
 10192 011a 4E52465F 		.ascii	"NRF_RX_ADDR_P0_REG\000"
 10192      52585F41 
 10192      4444525F 
 10192      50305F52 
 10192      454700
 10193              	.LASF96:
 10194 012d 6D6F6462 		.ascii	"modbus_request\000"
 10194      75735F72 
 10194      65717565 
 10194      737400
 10195              	.LASF45:
 10196 013c 43484543 		.ascii	"CHECKSUM_SIZE\000"
ARM GAS  C:\Users\AFDHAL~1\AppData\Local\Temp\ccKZJoZj.s 			page 206


 10196      4B53554D 
 10196      5F53495A 
 10196      4500
 10197              	.LASF39:
 10198 014a 4E52465F 		.ascii	"NRF_FEATURE_REG\000"
 10198      46454154 
 10198      5552455F 
 10198      52454700 
 10199              	.LASF32:
 10200 015a 4E52465F 		.ascii	"NRF_RX_PW_P1_REG\000"
 10200      52585F50 
 10200      575F5031 
 10200      5F524547 
 10200      00
 10201              	.LASF9:
 10202 016b 666C6F61 		.ascii	"float\000"
 10202      7400
 10203              	.LASF102:
 10204 0171 7061636B 		.ascii	"packet_size\000"
 10204      65745F73 
 10204      697A6500 
 10205              	.LASF103:
 10206 017d 6D6F6462 		.ascii	"modbusRTU_Update\000"
 10206      75735254 
 10206      555F5570 
 10206      64617465 
 10206      00
 10207              	.LASF110:
 10208 018e 736C6176 		.ascii	"slave\000"
 10208      6500
 10209              	.LASF117:
 10210 0194 474E5520 		.ascii	"GNU C11 5.4.1 20160609 (release) [ARM/embedded-5-br"
 10210      43313120 
 10210      352E342E 
 10210      31203230 
 10210      31363036 
 10211 01c7 616E6368 		.ascii	"anch revision 237715] -mcpu=cortex-m0 -mthumb -g -O"
 10211      20726576 
 10211      6973696F 
 10211      6E203233 
 10211      37373135 
 10212 01fa 33202D66 		.ascii	"3 -ffunction-sections -ffat-lto-objects\000"
 10212      66756E63 
 10212      74696F6E 
 10212      2D736563 
 10212      74696F6E 
 10213              	.LASF77:
 10214 0222 636F756E 		.ascii	"count\000"
 10214      7400
 10215              	.LASF106:
 10216 0228 696E6465 		.ascii	"index\000"
 10216      7800
 10217              	.LASF91:
 10218 022e 72656365 		.ascii	"received_string\000"
 10218      69766564 
 10218      5F737472 
 10218      696E6700 
ARM GAS  C:\Users\AFDHAL~1\AppData\Local\Temp\ccKZJoZj.s 			page 207


 10219              	.LASF108:
 10220 023e 6D6F6462 		.ascii	"modbusRTU_Written\000"
 10220      75735254 
 10220      555F5772 
 10220      69747465 
 10220      6E00
 10221              	.LASF65:
 10222 0250 76616C69 		.ascii	"validate_request\000"
 10222      64617465 
 10222      5F726571 
 10222      75657374 
 10222      00
 10223              	.LASF7:
 10224 0261 6C6F6E67 		.ascii	"long long unsigned int\000"
 10224      206C6F6E 
 10224      6720756E 
 10224      7369676E 
 10224      65642069 
 10225              	.LASF55:
 10226 0278 52454753 		.ascii	"REGS_H\000"
 10226      5F4800
 10227              	.LASF56:
 10228 027f 52454753 		.ascii	"REGS_L\000"
 10228      5F4C00
 10229              	.LASF93:
 10230 0286 72657370 		.ascii	"response_length\000"
 10230      6F6E7365 
 10230      5F6C656E 
 10230      67746800 
 10231              	.LASF119:
 10232 0296 433A5C55 		.ascii	"C:\\Users\\AfdhalAtiffTan\\Documents\\PSoC Creator\\"
 10232      73657273 
 10232      5C416664 
 10232      68616C41 
 10232      74696666 
 10233 02c5 736D6172 		.ascii	"smart_winch_prototype\\Workspace01\\Prototype.cydsn"
 10233      745F7769 
 10233      6E63685F 
 10233      70726F74 
 10233      6F747970 
 10234 02f6 00       		.ascii	"\000"
 10235              	.LASF86:
 10236 02f7 6D6F6462 		.ascii	"modbus_reply\000"
 10236      75735F72 
 10236      65706C79 
 10236      00
 10237              	.LASF80:
 10238 0304 6275696C 		.ascii	"build_write_single_packet\000"
 10238      645F7772 
 10238      6974655F 
 10238      73696E67 
 10238      6C655F70 
 10239              	.LASF105:
 10240 031e 65727270 		.ascii	"errpacket\000"
 10240      61636B65 
 10240      7400
 10241              	.LASF21:
ARM GAS  C:\Users\AFDHAL~1\AppData\Local\Temp\ccKZJoZj.s 			page 208


 10242 0328 4E52465F 		.ascii	"NRF_STATUS_REG\000"
 10242      53544154 
 10242      55535F52 
 10242      454700
 10243              	.LASF63:
 10244 0337 74656D70 		.ascii	"temp2\000"
 10244      3200
 10245              	.LASF49:
 10246 033d 4558435F 		.ascii	"EXC_REGS_QUANT\000"
 10246      52454753 
 10246      5F515541 
 10246      4E5400
 10247              	.LASF97:
 10248 034c 70726573 		.ascii	"preset_multiple_registers\000"
 10248      65745F6D 
 10248      756C7469 
 10248      706C655F 
 10248      72656769 
 10249              	.LASF28:
 10250 0366 4E52465F 		.ascii	"NRF_RX_ADDR_P4_REG\000"
 10250      52585F41 
 10250      4444525F 
 10250      50345F52 
 10250      454700
 10251              	.LASF81:
 10252 0379 77726974 		.ascii	"write_addr\000"
 10252      655F6164 
 10252      647200
 10253              	.LASF82:
 10254 0384 7265675F 		.ascii	"reg_val\000"
 10254      76616C00 
 10255              	.LASF51:
 10256 038c 534C4156 		.ascii	"SLAVE\000"
 10256      4500
 10257              	.LASF42:
 10258 0392 4D41585F 		.ascii	"MAX_MESSAGE_LENGTH\000"
 10258      4D455353 
 10258      4147455F 
 10258      4C454E47 
 10258      544800
 10259              	.LASF99:
 10260 03a5 77726974 		.ascii	"write_single_register\000"
 10260      655F7369 
 10260      6E676C65 
 10260      5F726567 
 10260      69737465 
 10261              	.LASF11:
 10262 03bb 63686172 		.ascii	"char\000"
 10262      00
 10263              	.LASF109:
 10264 03c0 6D6F6462 		.ascii	"modbusRTU_written_register_flags\000"
 10264      75735254 
 10264      555F7772 
 10264      69747465 
 10264      6E5F7265 
 10265              	.LASF95:
 10266 03e1 6372635F 		.ascii	"crc_received\000"
ARM GAS  C:\Users\AFDHAL~1\AppData\Local\Temp\ccKZJoZj.s 			page 209


 10266      72656365 
 10266      69766564 
 10266      00
 10267              	.LASF29:
 10268 03ee 4E52465F 		.ascii	"NRF_RX_ADDR_P5_REG\000"
 10268      52585F41 
 10268      4444525F 
 10268      50355F52 
 10268      454700
 10269              	.LASF66:
 10270 0401 64617461 		.ascii	"data\000"
 10270      00
 10271              	.LASF73:
 10272 0406 77726974 		.ascii	"write_regs\000"
 10272      655F7265 
 10272      677300
 10273              	.LASF46:
 10274 0411 4E4F5F52 		.ascii	"NO_REPLY\000"
 10274      45504C59 
 10274      00
 10275              	.LASF98:
 10276 041a 73746174 		.ascii	"status\000"
 10276      757300
 10277              	.LASF68:
 10278 0421 72656773 		.ascii	"regs_size\000"
 10278      5F73697A 
 10278      6500
 10279              	.LASF88:
 10280 042b 74656D70 		.ascii	"temp_crc\000"
 10280      5F637263 
 10280      00
 10281              	.LASF83:
 10282 0434 6275696C 		.ascii	"build_read_packet\000"
 10282      645F7265 
 10282      61645F70 
 10282      61636B65 
 10282      7400
 10283              	.LASF19:
 10284 0446 4E52465F 		.ascii	"NRF_RF_CH_REG\000"
 10284      52465F43 
 10284      485F5245 
 10284      4700
 10285              	.LASF26:
 10286 0454 4E52465F 		.ascii	"NRF_RX_ADDR_P2_REG\000"
 10286      52585F41 
 10286      4444525F 
 10286      50325F52 
 10286      454700
 10287              	.LASF6:
 10288 0467 6C6F6E67 		.ascii	"long long int\000"
 10288      206C6F6E 
 10288      6720696E 
 10288      7400
 10289              	.LASF30:
 10290 0475 4E52465F 		.ascii	"NRF_TX_ADDR_REG\000"
 10290      54585F41 
 10290      4444525F 
ARM GAS  C:\Users\AFDHAL~1\AppData\Local\Temp\ccKZJoZj.s 			page 210


 10290      52454700 
 10291              	.LASF34:
 10292 0485 4E52465F 		.ascii	"NRF_RX_PW_P3_REG\000"
 10292      52585F50 
 10292      575F5033 
 10292      5F524547 
 10292      00
 10293              	.LASF72:
 10294 0496 6D61785F 		.ascii	"max_regs_num\000"
 10294      72656773 
 10294      5F6E756D 
 10294      00
 10295              	.LASF43:
 10296 04a3 52455350 		.ascii	"RESPONSE_SIZE\000"
 10296      4F4E5345 
 10296      5F53495A 
 10296      4500
 10297              	.LASF31:
 10298 04b1 4E52465F 		.ascii	"NRF_RX_PW_P0_REG\000"
 10298      52585F50 
 10298      575F5030 
 10298      5F524547 
 10298      00
 10299              	.LASF100:
 10300 04c2 72656164 		.ascii	"read_holding_registers\000"
 10300      5F686F6C 
 10300      64696E67 
 10300      5F726567 
 10300      69737465 
 10301              	.LASF61:
 10302 04d9 73746172 		.ascii	"start\000"
 10302      7400
 10303              	.LASF57:
 10304 04df 42595445 		.ascii	"BYTE_CNT\000"
 10304      5F434E54 
 10304      00
 10305              	.LASF92:
 10306 04e8 62797465 		.ascii	"bytes_received\000"
 10306      735F7265 
 10306      63656976 
 10306      656400
 10307              	.LASF101:
 10308 04f7 7265675F 		.ascii	"reg_count\000"
 10308      636F756E 
 10308      7400
 10309              	.LASF74:
 10310 0501 71756572 		.ascii	"query\000"
 10310      7900
 10311              	.LASF94:
 10312 0507 6372635F 		.ascii	"crc_calc\000"
 10312      63616C63 
 10312      00
 10313              	.LASF12:
 10314 0510 6C6F6E67 		.ascii	"long double\000"
 10314      20646F75 
 10314      626C6500 
 10315              	.LASF70:
ARM GAS  C:\Users\AFDHAL~1\AppData\Local\Temp\ccKZJoZj.s 			page 211


 10316 051c 72656773 		.ascii	"regs_num\000"
 10316      5F6E756D 
 10316      00
 10317              	.LASF20:
 10318 0525 4E52465F 		.ascii	"NRF_RF_SETUP_REG\000"
 10318      52465F53 
 10318      45545550 
 10318      5F524547 
 10318      00
 10319              	.LASF90:
 10320 0536 72656365 		.ascii	"receive_request\000"
 10320      6976655F 
 10320      72657175 
 10320      65737400 
 10321              	.LASF2:
 10322 0546 73686F72 		.ascii	"short int\000"
 10322      7420696E 
 10322      7400
 10323              	.LASF60:
 10324 0550 46435F57 		.ascii	"FC_WRITE_REGS\000"
 10324      52495445 
 10324      5F524547 
 10324      5300
 10325              	.LASF16:
 10326 055e 4E52465F 		.ascii	"NRF_EN_RXADDR_REG\000"
 10326      454E5F52 
 10326      58414444 
 10326      525F5245 
 10326      4700
 10327              	.LASF4:
 10328 0570 6C6F6E67 		.ascii	"long int\000"
 10328      20696E74 
 10328      00
 10329              	.LASF112:
 10330 0579 4E6F7764 		.ascii	"Nowdt\000"
 10330      7400
 10331              	.LASF67:
 10332 057f 6C656E67 		.ascii	"length\000"
 10332      746800
 10333              	.LASF62:
 10334 0586 74656D70 		.ascii	"temp\000"
 10334      00
 10335              	.LASF64:
 10336 058b 666C6167 		.ascii	"flag\000"
 10336      00
 10337              	.LASF22:
 10338 0590 4E52465F 		.ascii	"NRF_OBSERVE_TX_REG\000"
 10338      4F425345 
 10338      5256455F 
 10338      54585F52 
 10338      454700
 10339              	.LASF23:
 10340 05a3 4E52465F 		.ascii	"NRF_RPD_REG\000"
 10340      5250445F 
 10340      52454700 
 10341              	.LASF17:
 10342 05af 4E52465F 		.ascii	"NRF_SETUP_AW_REG\000"
ARM GAS  C:\Users\AFDHAL~1\AppData\Local\Temp\ccKZJoZj.s 			page 212


 10342      53455455 
 10342      505F4157 
 10342      5F524547 
 10342      00
 10343              	.LASF44:
 10344 05c0 45584345 		.ascii	"EXCEPTION_SIZE\000"
 10344      5054494F 
 10344      4E5F5349 
 10344      5A4500
 10345              	.LASF13:
 10346 05cf 73697A65 		.ascii	"sizetype\000"
 10346      74797065 
 10346      00
 10347              	.LASF15:
 10348 05d8 4E52465F 		.ascii	"NRF_EN_AA_REG\000"
 10348      454E5F41 
 10348      415F5245 
 10348      4700
 10349              	.LASF5:
 10350 05e6 6C6F6E67 		.ascii	"long unsigned int\000"
 10350      20756E73 
 10350      69676E65 
 10350      6420696E 
 10350      7400
 10351              	.LASF47:
 10352 05f8 4558435F 		.ascii	"EXC_FUNC_CODE\000"
 10352      46554E43 
 10352      5F434F44 
 10352      4500
 10353              	.LASF78:
 10354 0606 7061636B 		.ascii	"packet\000"
 10354      657400
 10355              	.LASF89:
 10356 060d 73656E64 		.ascii	"send_reply\000"
 10356      5F726570 
 10356      6C7900
 10357              	.LASF36:
 10358 0618 4E52465F 		.ascii	"NRF_RX_PW_P5_REG\000"
 10358      52585F50 
 10358      575F5035 
 10358      5F524547 
 10358      00
 10359              	.LASF85:
 10360 0629 65786365 		.ascii	"exception\000"
 10360      7074696F 
 10360      6E00
 10361              	.LASF1:
 10362 0633 756E7369 		.ascii	"unsigned char\000"
 10362      676E6564 
 10362      20636861 
 10362      7200
 10363              	.LASF25:
 10364 0641 4E52465F 		.ascii	"NRF_RX_ADDR_P1_REG\000"
 10364      52585F41 
 10364      4444525F 
 10364      50315F52 
 10364      454700
ARM GAS  C:\Users\AFDHAL~1\AppData\Local\Temp\ccKZJoZj.s 			page 213


 10365              	.LASF76:
 10366 0654 66756E63 		.ascii	"function\000"
 10366      74696F6E 
 10366      00
 10367              	.LASF52:
 10368 065d 46554E43 		.ascii	"FUNC\000"
 10368      00
 10369              	.LASF107:
 10370 0662 6C6F6E67 		.ascii	"long_millis\000"
 10370      5F6D696C 
 10370      6C697300 
 10371              	.LASF33:
 10372 066e 4E52465F 		.ascii	"NRF_RX_PW_P2_REG\000"
 10372      52585F50 
 10372      575F5032 
 10372      5F524547 
 10372      00
 10373              	.LASF40:
 10374 067f 4D41585F 		.ascii	"MAX_READ_REGS\000"
 10374      52454144 
 10374      5F524547 
 10374      5300
 10375              	.LASF79:
 10376 068d 6275696C 		.ascii	"build_write_packet\000"
 10376      645F7772 
 10376      6974655F 
 10376      7061636B 
 10376      657400
 10377              	.LASF0:
 10378 06a0 7369676E 		.ascii	"signed char\000"
 10378      65642063 
 10378      68617200 
 10379              	.LASF3:
 10380 06ac 73686F72 		.ascii	"short unsigned int\000"
 10380      7420756E 
 10380      7369676E 
 10380      65642069 
 10380      6E7400
 10381              	.LASF59:
 10382 06bf 46435F57 		.ascii	"FC_WRITE_REG\000"
 10382      52495445 
 10382      5F524547 
 10382      00
 10383              	.LASF111:
 10384 06cc 66737570 		.ascii	"fsupported\000"
 10384      706F7274 
 10384      656400
 10385              	.LASF10:
 10386 06d7 646F7562 		.ascii	"double\000"
 10386      6C6500
 10387              	.LASF115:
 10388 06de 5553425F 		.ascii	"USB_UART_UartGetByte\000"
 10388      55415254 
 10388      5F556172 
 10388      74476574 
 10388      42797465 
 10389              	.LASF53:
ARM GAS  C:\Users\AFDHAL~1\AppData\Local\Temp\ccKZJoZj.s 			page 214


 10390 06f3 53544152 		.ascii	"START_H\000"
 10390      545F4800 
 10391              	.LASF14:
 10392 06fb 4E52465F 		.ascii	"NRF_CONFIG_REG\000"
 10392      434F4E46 
 10392      49475F52 
 10392      454700
 10393              	.LASF54:
 10394 070a 53544152 		.ascii	"START_L\000"
 10394      545F4C00 
 10395              	.LASF114:
 10396 0712 5553425F 		.ascii	"USB_UART_SpiUartWriteTxData\000"
 10396      55415254 
 10396      5F537069 
 10396      55617274 
 10396      57726974 
 10397              		.ident	"GCC: (GNU Tools for ARM Embedded Processors) 5.4.1 20160609 (release) [ARM/embedded-5-bran
