ARM GAS  C:\Users\AFDHAL~1\AppData\Local\Temp\ccKZJoZj.s 			page 1


   1              		.syntax unified
   2              		.cpu cortex-m0
   3              		.fpu softvfp
   4              		.eabi_attribute 20, 1
   5              		.eabi_attribute 21, 1
   6              		.eabi_attribute 23, 3
   7              		.eabi_attribute 24, 1
   8              		.eabi_attribute 25, 1
   9              		.eabi_attribute 26, 1
  10              		.eabi_attribute 30, 2
  11              		.eabi_attribute 34, 0
  12              		.eabi_attribute 18, 4
  13              		.thumb
  14              		.syntax unified
  15              		.file	"modbusRTU.c"
  16              		.text
  17              	.Ltext0:
  18              		.cfi_sections	.debug_frame
  19              		.section	.text.crc,"ax",%progbits
  20              		.align	2
  21              		.global	crc
  22              		.code	16
  23              		.thumb_func
  24              		.type	crc, %function
  25              	crc:
  26              	.LFB34:
  27              		.file 1 "modbusRTU.c"
   1:modbusRTU.c   **** /*
   2:modbusRTU.c   ****  * This library was taken from https://www.cooking-hacks.com/documentation/tutorials/modbus-module-
   3:modbusRTU.c   ****  * Ported from C++ to C by Afdhal Atiff Tan on 8th November 2017.
   4:modbusRTU.c   **** */
   5:modbusRTU.c   **** 
   6:modbusRTU.c   **** /* 		
   7:modbusRTU.c   ****  Modbus over serial line - RTU Slave Arduino Sketch 
   8:modbusRTU.c   ****  
   9:modbusRTU.c   ****  By Juan Pablo Zometa : jpmzometa@gmail.com
  10:modbusRTU.c   ****  http://sites.google.com/site/jpmzometa/
  11:modbusRTU.c   ****  Samuel Marco: sammarcoarmengol@gmail.com
  12:modbusRTU.c   ****  and Andras Tucsni.
  13:modbusRTU.c   ****  
  14:modbusRTU.c   ****  These functions implement functions 3, 6, and 16 (read holding registers,
  15:modbusRTU.c   ****  preset single register and preset multiple registers) of the 
  16:modbusRTU.c   ****  Modbus RTU Protocol, to be used over the Arduino serial connection.
  17:modbusRTU.c   ****  
  18:modbusRTU.c   ****  This implementation DOES NOT fully comply with the Modbus specifications.
  19:modbusRTU.c   ****  
  20:modbusRTU.c   ****  This Arduino adaptation is derived from the work
  21:modbusRTU.c   ****  By P.Costigan email: phil@pcscada.com.au http://pcscada.com.au
  22:modbusRTU.c   ****  
  23:modbusRTU.c   ****  These library of functions are designed to enable a program send and
  24:modbusRTU.c   ****  receive data from a device that communicates using the Modbus protocol.
  25:modbusRTU.c   ****  
  26:modbusRTU.c   ****  Copyright (C) 2000 Philip Costigan  P.C. SCADA LINK PTY. LTD.
  27:modbusRTU.c   ****  
  28:modbusRTU.c   ****  This program is free software; you can redistribute it and/or modify
  29:modbusRTU.c   ****  it under the terms of the GNU General Public License as published by
  30:modbusRTU.c   ****  the Free Software Foundation; either version 2 of the License, or
ARM GAS  C:\Users\AFDHAL~1\AppData\Local\Temp\ccKZJoZj.s 			page 2


  31:modbusRTU.c   ****  (at your option) any later version.
  32:modbusRTU.c   ****  
  33:modbusRTU.c   ****  This program is distributed in the hope that it will be useful,
  34:modbusRTU.c   ****  but WITHOUT ANY WARRANTY; without even the implied warranty of
  35:modbusRTU.c   ****  MERCHANTABILITY or FITNESS FOR A PARTICULAR PURPOSE.  See the
  36:modbusRTU.c   ****  GNU General Public License for more details.
  37:modbusRTU.c   ****  
  38:modbusRTU.c   ****  You should have received a copy of the GNU General Public License
  39:modbusRTU.c   ****  along with this program; if not, write to the Free Software
  40:modbusRTU.c   ****  Foundation, Inc., 675 Mass Ave, Cambridge, MA 02139, USA.
  41:modbusRTU.c   ****  
  42:modbusRTU.c   ****  The functions included here have been derived from the 
  43:modbusRTU.c   ****  Modicon Modbus Protocol Reference Guide
  44:modbusRTU.c   ****  which can be obtained from Schneider at www.schneiderautomation.com.
  45:modbusRTU.c   ****  
  46:modbusRTU.c   ****  This code has its origins with 
  47:modbusRTU.c   ****  paul@pmcrae.freeserve.co.uk (http://www.pmcrae.freeserve.co.uk)
  48:modbusRTU.c   ****  who wrote a small program to read 100 registers from a modbus slave.
  49:modbusRTU.c   ****  
  50:modbusRTU.c   ****  I have used his code as a catalist to produce this more functional set
  51:modbusRTU.c   ****  of functions. Thanks paul.
  52:modbusRTU.c   ****  */
  53:modbusRTU.c   **** 
  54:modbusRTU.c   **** #ifndef modbusRTU_H
  55:modbusRTU.c   **** 	#include "modbusRTU.h"
  56:modbusRTU.c   **** #endif
  57:modbusRTU.c   **** 
  58:modbusRTU.c   **** //Private prototypes and vars
  59:modbusRTU.c   ****   unsigned char slave;
  60:modbusRTU.c   ****   unsigned char modbusRTU_Written = 0;  
  61:modbusRTU.c   ****   unsigned long modbusRTU_written_register_flags = 0;
  62:modbusRTU.c   ****   unsigned int crc(unsigned char *buf, unsigned char start, unsigned char cnt);
  63:modbusRTU.c   ****   void build_read_packet(unsigned char function, unsigned char count, unsigned char *packet);
  64:modbusRTU.c   ****   void build_write_packet(unsigned char function, unsigned int start_addr, unsigned char count, uns
  65:modbusRTU.c   ****   void build_write_single_packet(unsigned char function, unsigned int write_addr, unsigned int reg_
  66:modbusRTU.c   ****   void build_error_packet(unsigned char function,unsigned char exception, unsigned char *packet);
  67:modbusRTU.c   ****   void modbus_reply(unsigned char *packet, unsigned char string_length);
  68:modbusRTU.c   ****   int send_reply(unsigned char *query, unsigned char string_length);
  69:modbusRTU.c   ****   int receive_request(unsigned char *received_string);
  70:modbusRTU.c   ****   int modbus_request(unsigned char *data);
  71:modbusRTU.c   ****   int validate_request(unsigned char *data, unsigned char length, unsigned int regs_size);
  72:modbusRTU.c   ****   int write_regs(unsigned int start_addr, unsigned char *query, int *regs);
  73:modbusRTU.c   ****   int preset_multiple_registers(unsigned int start_addr,unsigned char count,unsigned char *query,in
  74:modbusRTU.c   ****   int read_holding_registers(unsigned int start_addr, unsigned char reg_count, int *regs);
  75:modbusRTU.c   ****   int write_single_register(unsigned int write_addr, unsigned char *query, int *regs);  
  76:modbusRTU.c   **** 
  77:modbusRTU.c   **** 
  78:modbusRTU.c   **** /****************************************************************************
  79:modbusRTU.c   ****  * BEGIN MODBUS RTU SLAVE FUNCTIONS
  80:modbusRTU.c   ****  ****************************************************************************/
  81:modbusRTU.c   **** 
  82:modbusRTU.c   **** /* constants */
  83:modbusRTU.c   **** enum { 
  84:modbusRTU.c   ****         MAX_READ_REGS = 0x7D, 
  85:modbusRTU.c   ****         MAX_WRITE_REGS = 0x7B, 
  86:modbusRTU.c   ****         MAX_MESSAGE_LENGTH = 256 
  87:modbusRTU.c   **** };
ARM GAS  C:\Users\AFDHAL~1\AppData\Local\Temp\ccKZJoZj.s 			page 3


  88:modbusRTU.c   **** 
  89:modbusRTU.c   **** 
  90:modbusRTU.c   **** enum { 
  91:modbusRTU.c   ****         RESPONSE_SIZE = 6, 
  92:modbusRTU.c   ****         EXCEPTION_SIZE = 3, 
  93:modbusRTU.c   ****         CHECKSUM_SIZE = 2 
  94:modbusRTU.c   **** };
  95:modbusRTU.c   **** 
  96:modbusRTU.c   **** /* exceptions code */
  97:modbusRTU.c   **** enum { 
  98:modbusRTU.c   ****         NO_REPLY = -1, 
  99:modbusRTU.c   ****         EXC_FUNC_CODE = 1, 
 100:modbusRTU.c   ****         EXC_ADDR_RANGE = 2, 
 101:modbusRTU.c   ****         EXC_REGS_QUANT = 3, 
 102:modbusRTU.c   ****         EXC_EXECUTE = 4 
 103:modbusRTU.c   **** };
 104:modbusRTU.c   **** 
 105:modbusRTU.c   **** /* positions inside the query/response array */
 106:modbusRTU.c   **** enum { 
 107:modbusRTU.c   ****         SLAVE = 0, 
 108:modbusRTU.c   ****         FUNC, 
 109:modbusRTU.c   ****         START_H, 
 110:modbusRTU.c   ****         START_L, 
 111:modbusRTU.c   ****         REGS_H, 
 112:modbusRTU.c   ****         REGS_L, 
 113:modbusRTU.c   ****         BYTE_CNT 
 114:modbusRTU.c   **** };
 115:modbusRTU.c   **** 
 116:modbusRTU.c   **** 
 117:modbusRTU.c   **** /* enum of supported modbus function codes. If you implement a new one, put its function code here 
 118:modbusRTU.c   **** enum { 
 119:modbusRTU.c   ****         FC_READ_REGS  = 0x03,   //Read contiguous block of holding register
 120:modbusRTU.c   ****         FC_WRITE_REG  = 0x06,   //Write single holding register
 121:modbusRTU.c   ****         FC_WRITE_REGS = 0x10    //Write block of contiguous registers
 122:modbusRTU.c   **** };
 123:modbusRTU.c   **** 
 124:modbusRTU.c   **** /* supported functions. If you implement a new one, put its function code into this array! */
 125:modbusRTU.c   **** const unsigned char fsupported[] = { FC_READ_REGS, FC_WRITE_REG, FC_WRITE_REGS };
 126:modbusRTU.c   **** 
 127:modbusRTU.c   **** 
 128:modbusRTU.c   **** /*
 129:modbusRTU.c   **** CRC
 130:modbusRTU.c   ****  
 131:modbusRTU.c   ****  INPUTS:
 132:modbusRTU.c   ****  	buf   ->  Array containing message to be sent to controller.            
 133:modbusRTU.c   ****  	start ->  Start of loop in crc counter, usually 0.
 134:modbusRTU.c   ****  	cnt   ->  Amount of bytes in message being sent to controller/
 135:modbusRTU.c   ****  OUTPUTS:
 136:modbusRTU.c   ****  	temp  ->  Returns crc byte for message.
 137:modbusRTU.c   ****  COMMENTS:
 138:modbusRTU.c   ****  	This routine calculates the crc high and low byte of a message.
 139:modbusRTU.c   ****  	Note that this crc is only used for Modbus, not Modbus+ etc. 
 140:modbusRTU.c   ****  ****************************************************************************/
 141:modbusRTU.c   **** 
 142:modbusRTU.c   **** unsigned int crc(unsigned char *buf, unsigned char start,
 143:modbusRTU.c   **** unsigned char cnt) 
 144:modbusRTU.c   **** {
ARM GAS  C:\Users\AFDHAL~1\AppData\Local\Temp\ccKZJoZj.s 			page 4


  28              		.loc 1 144 0
  29              		.cfi_startproc
  30              		@ args = 0, pretend = 0, frame = 0
  31              		@ frame_needed = 0, uses_anonymous_args = 0
  32              	.LVL0:
  33 0000 F0B5     		push	{r4, r5, r6, r7, lr}
  34              		.cfi_def_cfa_offset 20
  35              		.cfi_offset 4, -20
  36              		.cfi_offset 5, -16
  37              		.cfi_offset 6, -12
  38              		.cfi_offset 7, -8
  39              		.cfi_offset 14, -4
 145:modbusRTU.c   ****         unsigned char i, j;
 146:modbusRTU.c   ****         unsigned temp, temp2, flag;
 147:modbusRTU.c   **** 
 148:modbusRTU.c   ****         temp = 0xFFFF;
 149:modbusRTU.c   **** 
 150:modbusRTU.c   ****         for (i = start; i < cnt; i++) {
  40              		.loc 1 150 0
  41 0002 9142     		cmp	r1, r2
  42 0004 3FD2     		bcs	.L20
 151:modbusRTU.c   ****                 temp = temp ^ buf[i];
 152:modbusRTU.c   **** 
 153:modbusRTU.c   ****                 for (j = 1; j <= 8; j++) {
 154:modbusRTU.c   ****                         flag = temp & 0x0001;
  43              		.loc 1 154 0
  44 0006 0124     		movs	r4, #1
 150:modbusRTU.c   ****                 temp = temp ^ buf[i];
  45              		.loc 1 150 0
  46 0008 204D     		ldr	r5, .L23
 155:modbusRTU.c   ****                         temp = temp >> 1;
 156:modbusRTU.c   ****                         if (flag)
 157:modbusRTU.c   ****                                 temp = temp ^ 0xA001;
  47              		.loc 1 157 0
  48 000a 214B     		ldr	r3, .L23+4
  49              	.LVL1:
  50              	.L19:
  51 000c 1F00     		movs	r7, r3
 151:modbusRTU.c   **** 
  52              		.loc 1 151 0
  53 000e 465C     		ldrb	r6, [r0, r1]
  54 0010 7540     		eors	r5, r6
 155:modbusRTU.c   ****                         temp = temp >> 1;
  55              		.loc 1 155 0
  56 0012 6E08     		lsrs	r6, r5, #1
  57              		.loc 1 157 0
  58 0014 7740     		eors	r7, r6
  59 0016 2C42     		tst	r4, r5
  60 0018 00D1     		bne	.L4
  61 001a 3700     		movs	r7, r6
  62              	.L4:
  63 001c 1E00     		movs	r6, r3
 155:modbusRTU.c   ****                         temp = temp >> 1;
  64              		.loc 1 155 0
  65 001e 7D08     		lsrs	r5, r7, #1
  66              		.loc 1 157 0
  67 0020 6E40     		eors	r6, r5
ARM GAS  C:\Users\AFDHAL~1\AppData\Local\Temp\ccKZJoZj.s 			page 5


  68 0022 3C42     		tst	r4, r7
  69 0024 00D1     		bne	.L6
  70 0026 2E00     		movs	r6, r5
  71              	.L6:
  72 0028 1D00     		movs	r5, r3
 155:modbusRTU.c   ****                         temp = temp >> 1;
  73              		.loc 1 155 0
  74 002a 7708     		lsrs	r7, r6, #1
  75              		.loc 1 157 0
  76 002c 7D40     		eors	r5, r7
  77 002e 3442     		tst	r4, r6
  78 0030 00D1     		bne	.L8
  79 0032 3D00     		movs	r5, r7
  80              	.L8:
  81 0034 1E00     		movs	r6, r3
 155:modbusRTU.c   ****                         temp = temp >> 1;
  82              		.loc 1 155 0
  83 0036 6F08     		lsrs	r7, r5, #1
  84              		.loc 1 157 0
  85 0038 7E40     		eors	r6, r7
  86 003a 2C42     		tst	r4, r5
  87 003c 00D1     		bne	.L10
  88 003e 3E00     		movs	r6, r7
  89              	.L10:
  90 0040 1D00     		movs	r5, r3
 155:modbusRTU.c   ****                         temp = temp >> 1;
  91              		.loc 1 155 0
  92 0042 7708     		lsrs	r7, r6, #1
  93              		.loc 1 157 0
  94 0044 7D40     		eors	r5, r7
  95 0046 3442     		tst	r4, r6
  96 0048 00D1     		bne	.L12
  97 004a 3D00     		movs	r5, r7
  98              	.L12:
  99 004c 1E00     		movs	r6, r3
 155:modbusRTU.c   ****                         temp = temp >> 1;
 100              		.loc 1 155 0
 101 004e 6F08     		lsrs	r7, r5, #1
 102              		.loc 1 157 0
 103 0050 7E40     		eors	r6, r7
 104 0052 2C42     		tst	r4, r5
 105 0054 00D1     		bne	.L14
 106 0056 3E00     		movs	r6, r7
 107              	.L14:
 108 0058 1D00     		movs	r5, r3
 155:modbusRTU.c   ****                         temp = temp >> 1;
 109              		.loc 1 155 0
 110 005a 7708     		lsrs	r7, r6, #1
 111              		.loc 1 157 0
 112 005c 7D40     		eors	r5, r7
 113 005e 3442     		tst	r4, r6
 114 0060 00D1     		bne	.L16
 115 0062 3D00     		movs	r5, r7
 116              	.L16:
 117 0064 1E00     		movs	r6, r3
 155:modbusRTU.c   ****                         temp = temp >> 1;
 118              		.loc 1 155 0
ARM GAS  C:\Users\AFDHAL~1\AppData\Local\Temp\ccKZJoZj.s 			page 6


 119 0066 6F08     		lsrs	r7, r5, #1
 120              		.loc 1 157 0
 121 0068 7E40     		eors	r6, r7
 122 006a 2C42     		tst	r4, r5
 123 006c 00D1     		bne	.L18
 124 006e 3E00     		movs	r6, r7
 125              	.L18:
 150:modbusRTU.c   ****                 temp = temp ^ buf[i];
 126              		.loc 1 150 0
 127 0070 0131     		adds	r1, r1, #1
 128 0072 C9B2     		uxtb	r1, r1
 129 0074 3500     		movs	r5, r6
 130              	.LVL2:
 131 0076 8A42     		cmp	r2, r1
 132 0078 C8D1     		bne	.L19
 133 007a 3002     		lsls	r0, r6, #8
 134              	.LVL3:
 135 007c 360A     		lsrs	r6, r6, #8
 136 007e 3043     		orrs	r0, r6
 137 0080 0004     		lsls	r0, r0, #16
 138 0082 000C     		lsrs	r0, r0, #16
 139              	.LVL4:
 140              	.L2:
 158:modbusRTU.c   ****                 }
 159:modbusRTU.c   ****         }
 160:modbusRTU.c   **** 
 161:modbusRTU.c   ****         /* Reverse byte order. */
 162:modbusRTU.c   ****         temp2 = temp >> 8;
 163:modbusRTU.c   ****         temp = (temp << 8) | temp2;
 164:modbusRTU.c   ****         temp &= 0xFFFF;
 165:modbusRTU.c   **** 
 166:modbusRTU.c   ****         return (temp);
 167:modbusRTU.c   **** }
 141              		.loc 1 167 0
 142              		@ sp needed
 143 0084 F0BD     		pop	{r4, r5, r6, r7, pc}
 144              	.LVL5:
 145              	.L20:
 150:modbusRTU.c   ****                 temp = temp ^ buf[i];
 146              		.loc 1 150 0
 147 0086 0148     		ldr	r0, .L23
 148              	.LVL6:
 149 0088 FCE7     		b	.L2
 150              	.L24:
 151 008a C046     		.align	2
 152              	.L23:
 153 008c FFFF0000 		.word	65535
 154 0090 01A00000 		.word	40961
 155              		.cfi_endproc
 156              	.LFE34:
 157              		.size	crc, .-crc
 158              		.section	.text.build_read_packet,"ax",%progbits
 159              		.align	2
 160              		.global	build_read_packet
 161              		.code	16
 162              		.thumb_func
 163              		.type	build_read_packet, %function
ARM GAS  C:\Users\AFDHAL~1\AppData\Local\Temp\ccKZJoZj.s 			page 7


 164              	build_read_packet:
 165              	.LFB35:
 168:modbusRTU.c   **** 
 169:modbusRTU.c   **** 
 170:modbusRTU.c   **** 
 171:modbusRTU.c   **** 
 172:modbusRTU.c   **** /***********************************************************************
 173:modbusRTU.c   ****  * 
 174:modbusRTU.c   ****  * 	The following functions construct the required query into
 175:modbusRTU.c   ****  * 	a modbus query packet.
 176:modbusRTU.c   ****  * 
 177:modbusRTU.c   ****  ***********************************************************************/
 178:modbusRTU.c   **** 
 179:modbusRTU.c   **** /* 
 180:modbusRTU.c   ****  * Start of the packet of a read_holding_register response 
 181:modbusRTU.c   ****  */
 182:modbusRTU.c   **** void build_read_packet(unsigned char function,
 183:modbusRTU.c   **** unsigned char count, unsigned char *packet) 
 184:modbusRTU.c   **** {
 166              		.loc 1 184 0
 167              		.cfi_startproc
 168              		@ args = 0, pretend = 0, frame = 0
 169              		@ frame_needed = 0, uses_anonymous_args = 0
 170              		@ link register save eliminated.
 171              	.LVL7:
 185:modbusRTU.c   ****         packet[SLAVE] = slave;
 172              		.loc 1 185 0
 173 0000 034B     		ldr	r3, .L26
 186:modbusRTU.c   ****         packet[FUNC] = function;
 187:modbusRTU.c   ****         packet[2] = count * 2;
 174              		.loc 1 187 0
 175 0002 4900     		lsls	r1, r1, #1
 176              	.LVL8:
 185:modbusRTU.c   ****         packet[SLAVE] = slave;
 177              		.loc 1 185 0
 178 0004 1B78     		ldrb	r3, [r3]
 186:modbusRTU.c   ****         packet[FUNC] = function;
 179              		.loc 1 186 0
 180 0006 5070     		strb	r0, [r2, #1]
 185:modbusRTU.c   ****         packet[SLAVE] = slave;
 181              		.loc 1 185 0
 182 0008 1370     		strb	r3, [r2]
 183              		.loc 1 187 0
 184 000a 9170     		strb	r1, [r2, #2]
 188:modbusRTU.c   **** } 
 185              		.loc 1 188 0
 186              		@ sp needed
 187 000c 7047     		bx	lr
 188              	.L27:
 189 000e C046     		.align	2
 190              	.L26:
 191 0010 00000000 		.word	slave
 192              		.cfi_endproc
 193              	.LFE35:
 194              		.size	build_read_packet, .-build_read_packet
 195              		.section	.text.build_write_packet,"ax",%progbits
 196              		.align	2
ARM GAS  C:\Users\AFDHAL~1\AppData\Local\Temp\ccKZJoZj.s 			page 8


 197              		.global	build_write_packet
 198              		.code	16
 199              		.thumb_func
 200              		.type	build_write_packet, %function
 201              	build_write_packet:
 202              	.LFB36:
 189:modbusRTU.c   **** 
 190:modbusRTU.c   **** /* 
 191:modbusRTU.c   ****  * Start of the packet of a preset_multiple_register response 
 192:modbusRTU.c   ****  */
 193:modbusRTU.c   **** void build_write_packet(unsigned char function,
 194:modbusRTU.c   **** unsigned int start_addr, 
 195:modbusRTU.c   **** unsigned char count,
 196:modbusRTU.c   **** unsigned char *packet) 
 197:modbusRTU.c   **** {
 203              		.loc 1 197 0
 204              		.cfi_startproc
 205              		@ args = 0, pretend = 0, frame = 0
 206              		@ frame_needed = 0, uses_anonymous_args = 0
 207              	.LVL9:
 198:modbusRTU.c   ****         packet[SLAVE] = slave;
 199:modbusRTU.c   ****         packet[FUNC] = function;
 208              		.loc 1 199 0
 209 0000 5870     		strb	r0, [r3, #1]
 200:modbusRTU.c   ****         packet[START_H] = start_addr >> 8;
 201:modbusRTU.c   ****         packet[START_L] = start_addr & 0x00ff;
 210              		.loc 1 201 0
 211 0002 D970     		strb	r1, [r3, #3]
 200:modbusRTU.c   ****         packet[START_H] = start_addr >> 8;
 212              		.loc 1 200 0
 213 0004 080A     		lsrs	r0, r1, #8
 214              	.LVL10:
 202:modbusRTU.c   ****         packet[REGS_H] = 0x00;
 215              		.loc 1 202 0
 216 0006 0021     		movs	r1, #0
 217              	.LVL11:
 197:modbusRTU.c   ****         packet[SLAVE] = slave;
 218              		.loc 1 197 0
 219 0008 10B5     		push	{r4, lr}
 220              		.cfi_def_cfa_offset 8
 221              		.cfi_offset 4, -8
 222              		.cfi_offset 14, -4
 198:modbusRTU.c   ****         packet[FUNC] = function;
 223              		.loc 1 198 0
 224 000a 034C     		ldr	r4, .L29
 200:modbusRTU.c   ****         packet[START_L] = start_addr & 0x00ff;
 225              		.loc 1 200 0
 226 000c 9870     		strb	r0, [r3, #2]
 198:modbusRTU.c   ****         packet[FUNC] = function;
 227              		.loc 1 198 0
 228 000e 2478     		ldrb	r4, [r4]
 229              		.loc 1 202 0
 230 0010 1971     		strb	r1, [r3, #4]
 198:modbusRTU.c   ****         packet[FUNC] = function;
 231              		.loc 1 198 0
 232 0012 1C70     		strb	r4, [r3]
 203:modbusRTU.c   ****         packet[REGS_L] = count;
ARM GAS  C:\Users\AFDHAL~1\AppData\Local\Temp\ccKZJoZj.s 			page 9


 233              		.loc 1 203 0
 234 0014 5A71     		strb	r2, [r3, #5]
 204:modbusRTU.c   **** } 
 235              		.loc 1 204 0
 236              		@ sp needed
 237 0016 10BD     		pop	{r4, pc}
 238              	.L30:
 239              		.align	2
 240              	.L29:
 241 0018 00000000 		.word	slave
 242              		.cfi_endproc
 243              	.LFE36:
 244              		.size	build_write_packet, .-build_write_packet
 245              		.section	.text.build_write_single_packet,"ax",%progbits
 246              		.align	2
 247              		.global	build_write_single_packet
 248              		.code	16
 249              		.thumb_func
 250              		.type	build_write_single_packet, %function
 251              	build_write_single_packet:
 252              	.LFB37:
 205:modbusRTU.c   **** 
 206:modbusRTU.c   **** /* 
 207:modbusRTU.c   ****  * Start of the packet of a write_single_register response 
 208:modbusRTU.c   ****  */
 209:modbusRTU.c   **** void build_write_single_packet(unsigned char function,
 210:modbusRTU.c   ****         unsigned int write_addr, unsigned int reg_val, unsigned char* packet) 
 211:modbusRTU.c   **** {
 253              		.loc 1 211 0
 254              		.cfi_startproc
 255              		@ args = 0, pretend = 0, frame = 0
 256              		@ frame_needed = 0, uses_anonymous_args = 0
 257              	.LVL12:
 258 0000 10B5     		push	{r4, lr}
 259              		.cfi_def_cfa_offset 8
 260              		.cfi_offset 4, -8
 261              		.cfi_offset 14, -4
 212:modbusRTU.c   ****         packet[SLAVE] = slave;
 262              		.loc 1 212 0
 263 0002 054C     		ldr	r4, .L32
 213:modbusRTU.c   ****         packet[FUNC] = function;
 264              		.loc 1 213 0
 265 0004 5870     		strb	r0, [r3, #1]
 212:modbusRTU.c   ****         packet[SLAVE] = slave;
 266              		.loc 1 212 0
 267 0006 2478     		ldrb	r4, [r4]
 214:modbusRTU.c   ****         packet[START_H] = write_addr >> 8;
 268              		.loc 1 214 0
 269 0008 080A     		lsrs	r0, r1, #8
 270              	.LVL13:
 215:modbusRTU.c   ****         packet[START_L] = write_addr & 0x00ff;
 271              		.loc 1 215 0
 272 000a D970     		strb	r1, [r3, #3]
 216:modbusRTU.c   ****         packet[REGS_H] = reg_val >> 8;
 273              		.loc 1 216 0
 274 000c 110A     		lsrs	r1, r2, #8
 275              	.LVL14:
ARM GAS  C:\Users\AFDHAL~1\AppData\Local\Temp\ccKZJoZj.s 			page 10


 212:modbusRTU.c   ****         packet[FUNC] = function;
 276              		.loc 1 212 0
 277 000e 1C70     		strb	r4, [r3]
 214:modbusRTU.c   ****         packet[START_L] = write_addr & 0x00ff;
 278              		.loc 1 214 0
 279 0010 9870     		strb	r0, [r3, #2]
 280              		.loc 1 216 0
 281 0012 1971     		strb	r1, [r3, #4]
 217:modbusRTU.c   ****         packet[REGS_L] = reg_val & 0x00ff;
 282              		.loc 1 217 0
 283 0014 5A71     		strb	r2, [r3, #5]
 218:modbusRTU.c   **** } 
 284              		.loc 1 218 0
 285              		@ sp needed
 286 0016 10BD     		pop	{r4, pc}
 287              	.L33:
 288              		.align	2
 289              	.L32:
 290 0018 00000000 		.word	slave
 291              		.cfi_endproc
 292              	.LFE37:
 293              		.size	build_write_single_packet, .-build_write_single_packet
 294              		.section	.text.build_error_packet,"ax",%progbits
 295              		.align	2
 296              		.global	build_error_packet
 297              		.code	16
 298              		.thumb_func
 299              		.type	build_error_packet, %function
 300              	build_error_packet:
 301              	.LFB38:
 219:modbusRTU.c   **** 
 220:modbusRTU.c   **** 
 221:modbusRTU.c   **** /* 
 222:modbusRTU.c   ****  * Start of the packet of an exception response 
 223:modbusRTU.c   ****  */
 224:modbusRTU.c   **** void build_error_packet( unsigned char function,
 225:modbusRTU.c   **** unsigned char exception, unsigned char *packet) 
 226:modbusRTU.c   **** {
 302              		.loc 1 226 0
 303              		.cfi_startproc
 304              		@ args = 0, pretend = 0, frame = 0
 305              		@ frame_needed = 0, uses_anonymous_args = 0
 306              		@ link register save eliminated.
 307              	.LVL15:
 227:modbusRTU.c   ****         packet[SLAVE] = slave;
 308              		.loc 1 227 0
 309 0000 034B     		ldr	r3, .L35
 228:modbusRTU.c   ****         packet[FUNC] = function + 0x80;
 310              		.loc 1 228 0
 311 0002 8038     		subs	r0, r0, #128
 312              	.LVL16:
 227:modbusRTU.c   ****         packet[SLAVE] = slave;
 313              		.loc 1 227 0
 314 0004 1B78     		ldrb	r3, [r3]
 315              		.loc 1 228 0
 316 0006 5070     		strb	r0, [r2, #1]
 227:modbusRTU.c   ****         packet[SLAVE] = slave;
ARM GAS  C:\Users\AFDHAL~1\AppData\Local\Temp\ccKZJoZj.s 			page 11


 317              		.loc 1 227 0
 318 0008 1370     		strb	r3, [r2]
 229:modbusRTU.c   ****         packet[2] = exception;
 319              		.loc 1 229 0
 320 000a 9170     		strb	r1, [r2, #2]
 230:modbusRTU.c   **** } 
 321              		.loc 1 230 0
 322              		@ sp needed
 323 000c 7047     		bx	lr
 324              	.L36:
 325 000e C046     		.align	2
 326              	.L35:
 327 0010 00000000 		.word	slave
 328              		.cfi_endproc
 329              	.LFE38:
 330              		.size	build_error_packet, .-build_error_packet
 331              		.section	.text.modbus_reply,"ax",%progbits
 332              		.align	2
 333              		.global	modbus_reply
 334              		.code	16
 335              		.thumb_func
 336              		.type	modbus_reply, %function
 337              	modbus_reply:
 338              	.LFB39:
 231:modbusRTU.c   **** 
 232:modbusRTU.c   **** 
 233:modbusRTU.c   **** /*************************************************************************
 234:modbusRTU.c   ****  * 
 235:modbusRTU.c   ****  * modbus_query( packet, length)
 236:modbusRTU.c   ****  * 
 237:modbusRTU.c   ****  * Function to add a checksum to the end of a packet.
 238:modbusRTU.c   ****  * Please note that the packet array must be at least 2 fields longer than
 239:modbusRTU.c   ****  * string_length.
 240:modbusRTU.c   ****  **************************************************************************/
 241:modbusRTU.c   **** 
 242:modbusRTU.c   **** void modbus_reply(unsigned char *packet, unsigned char string_length) 
 243:modbusRTU.c   **** {
 339              		.loc 1 243 0
 340              		.cfi_startproc
 341              		@ args = 0, pretend = 0, frame = 0
 342              		@ frame_needed = 0, uses_anonymous_args = 0
 343              	.LVL17:
 344 0000 F0B5     		push	{r4, r5, r6, r7, lr}
 345              		.cfi_def_cfa_offset 20
 346              		.cfi_offset 4, -20
 347              		.cfi_offset 5, -16
 348              		.cfi_offset 6, -12
 349              		.cfi_offset 7, -8
 350              		.cfi_offset 14, -4
 351              		.loc 1 243 0
 352 0002 8446     		mov	ip, r0
 353              	.LBB21:
 354              	.LBB22:
 150:modbusRTU.c   ****                 temp = temp ^ buf[i];
 355              		.loc 1 150 0
 356 0004 0029     		cmp	r1, #0
 357 0006 4AD0     		beq	.L56
ARM GAS  C:\Users\AFDHAL~1\AppData\Local\Temp\ccKZJoZj.s 			page 12


 358 0008 0500     		movs	r5, r0
 154:modbusRTU.c   ****                         temp = temp >> 1;
 359              		.loc 1 154 0
 360 000a 0122     		movs	r2, #1
 361 000c 4F1E     		subs	r7, r1, #1
 362 000e FFB2     		uxtb	r7, r7
 363 0010 0137     		adds	r7, r7, #1
 150:modbusRTU.c   ****                 temp = temp ^ buf[i];
 364              		.loc 1 150 0
 365 0012 244C     		ldr	r4, .L58
 157:modbusRTU.c   ****                 }
 366              		.loc 1 157 0
 367 0014 244B     		ldr	r3, .L58+4
 368 0016 6744     		add	r7, r7, ip
 369              	.LVL18:
 370              	.L55:
 371 0018 1800     		movs	r0, r3
 151:modbusRTU.c   **** 
 372              		.loc 1 151 0
 373 001a 2E78     		ldrb	r6, [r5]
 374 001c 7440     		eors	r4, r6
 155:modbusRTU.c   ****                         if (flag)
 375              		.loc 1 155 0
 376 001e 6608     		lsrs	r6, r4, #1
 157:modbusRTU.c   ****                 }
 377              		.loc 1 157 0
 378 0020 7040     		eors	r0, r6
 379 0022 2242     		tst	r2, r4
 380 0024 00D1     		bne	.L40
 381 0026 3000     		movs	r0, r6
 382              	.L40:
 383 0028 1E00     		movs	r6, r3
 155:modbusRTU.c   ****                         if (flag)
 384              		.loc 1 155 0
 385 002a 4408     		lsrs	r4, r0, #1
 157:modbusRTU.c   ****                 }
 386              		.loc 1 157 0
 387 002c 6640     		eors	r6, r4
 388 002e 0242     		tst	r2, r0
 389 0030 00D1     		bne	.L42
 390 0032 2600     		movs	r6, r4
 391              	.L42:
 392 0034 1C00     		movs	r4, r3
 155:modbusRTU.c   ****                         if (flag)
 393              		.loc 1 155 0
 394 0036 7008     		lsrs	r0, r6, #1
 157:modbusRTU.c   ****                 }
 395              		.loc 1 157 0
 396 0038 4440     		eors	r4, r0
 397 003a 3242     		tst	r2, r6
 398 003c 00D1     		bne	.L44
 399 003e 0400     		movs	r4, r0
 400              	.L44:
 401 0040 1E00     		movs	r6, r3
 155:modbusRTU.c   ****                         if (flag)
 402              		.loc 1 155 0
 403 0042 6008     		lsrs	r0, r4, #1
ARM GAS  C:\Users\AFDHAL~1\AppData\Local\Temp\ccKZJoZj.s 			page 13


 157:modbusRTU.c   ****                 }
 404              		.loc 1 157 0
 405 0044 4640     		eors	r6, r0
 406 0046 2242     		tst	r2, r4
 407 0048 00D1     		bne	.L46
 408 004a 0600     		movs	r6, r0
 409              	.L46:
 410 004c 1C00     		movs	r4, r3
 155:modbusRTU.c   ****                         if (flag)
 411              		.loc 1 155 0
 412 004e 7008     		lsrs	r0, r6, #1
 157:modbusRTU.c   ****                 }
 413              		.loc 1 157 0
 414 0050 4440     		eors	r4, r0
 415 0052 3242     		tst	r2, r6
 416 0054 00D1     		bne	.L48
 417 0056 0400     		movs	r4, r0
 418              	.L48:
 419 0058 1E00     		movs	r6, r3
 155:modbusRTU.c   ****                         if (flag)
 420              		.loc 1 155 0
 421 005a 6008     		lsrs	r0, r4, #1
 157:modbusRTU.c   ****                 }
 422              		.loc 1 157 0
 423 005c 4640     		eors	r6, r0
 424 005e 2242     		tst	r2, r4
 425 0060 00D1     		bne	.L50
 426 0062 0600     		movs	r6, r0
 427              	.L50:
 428 0064 1C00     		movs	r4, r3
 155:modbusRTU.c   ****                         if (flag)
 429              		.loc 1 155 0
 430 0066 7008     		lsrs	r0, r6, #1
 157:modbusRTU.c   ****                 }
 431              		.loc 1 157 0
 432 0068 4440     		eors	r4, r0
 433 006a 3242     		tst	r2, r6
 434 006c 00D1     		bne	.L52
 435 006e 0400     		movs	r4, r0
 436              	.L52:
 437 0070 1E00     		movs	r6, r3
 155:modbusRTU.c   ****                         if (flag)
 438              		.loc 1 155 0
 439 0072 6008     		lsrs	r0, r4, #1
 157:modbusRTU.c   ****                 }
 440              		.loc 1 157 0
 441 0074 4640     		eors	r6, r0
 442 0076 2242     		tst	r2, r4
 443 0078 00D1     		bne	.L54
 444 007a 0600     		movs	r6, r0
 445              	.L54:
 446 007c 0135     		adds	r5, r5, #1
 447 007e 3400     		movs	r4, r6
 448              	.LVL19:
 150:modbusRTU.c   ****                 temp = temp ^ buf[i];
 449              		.loc 1 150 0
 450 0080 AF42     		cmp	r7, r5
ARM GAS  C:\Users\AFDHAL~1\AppData\Local\Temp\ccKZJoZj.s 			page 14


 451 0082 C9D1     		bne	.L55
 452 0084 3302     		lsls	r3, r6, #8
 453 0086 360A     		lsrs	r6, r6, #8
 454 0088 3343     		orrs	r3, r6
 455 008a 1B04     		lsls	r3, r3, #16
 456 008c 1B0C     		lsrs	r3, r3, #16
 457 008e 1A0A     		lsrs	r2, r3, #8
 458 0090 DBB2     		uxtb	r3, r3
 459              	.LVL20:
 460              	.L38:
 461              	.LBE22:
 462              	.LBE21:
 244:modbusRTU.c   ****         int temp_crc;
 245:modbusRTU.c   **** 
 246:modbusRTU.c   ****         temp_crc = crc(packet, 0, string_length);
 247:modbusRTU.c   ****         packet[string_length] = temp_crc >> 8;
 463              		.loc 1 247 0
 464 0092 6046     		mov	r0, ip
 465 0094 4254     		strb	r2, [r0, r1]
 466              	.LVL21:
 248:modbusRTU.c   ****         string_length++;
 249:modbusRTU.c   ****         packet[string_length] = temp_crc & 0x00FF;
 467              		.loc 1 249 0
 468 0096 0131     		adds	r1, r1, #1
 469              	.LVL22:
 470 0098 C9B2     		uxtb	r1, r1
 471 009a 4354     		strb	r3, [r0, r1]
 250:modbusRTU.c   **** } 
 472              		.loc 1 250 0
 473              		@ sp needed
 474 009c F0BD     		pop	{r4, r5, r6, r7, pc}
 475              	.LVL23:
 476              	.L56:
 477              	.LBB24:
 478              	.LBB23:
 150:modbusRTU.c   ****                 temp = temp ^ buf[i];
 479              		.loc 1 150 0
 480 009e FF23     		movs	r3, #255
 481 00a0 FF22     		movs	r2, #255
 482 00a2 F6E7     		b	.L38
 483              	.L59:
 484              		.align	2
 485              	.L58:
 486 00a4 FFFF0000 		.word	65535
 487 00a8 01A00000 		.word	40961
 488              	.LBE23:
 489              	.LBE24:
 490              		.cfi_endproc
 491              	.LFE39:
 492              		.size	modbus_reply, .-modbus_reply
 493              		.section	.text.send_reply,"ax",%progbits
 494              		.align	2
 495              		.global	send_reply
 496              		.code	16
 497              		.thumb_func
 498              		.type	send_reply, %function
 499              	send_reply:
ARM GAS  C:\Users\AFDHAL~1\AppData\Local\Temp\ccKZJoZj.s 			page 15


 500              	.LFB40:
 251:modbusRTU.c   **** 
 252:modbusRTU.c   **** 
 253:modbusRTU.c   **** 
 254:modbusRTU.c   **** /***********************************************************************
 255:modbusRTU.c   ****  * 
 256:modbusRTU.c   ****  * send_reply( query_string, query_length )
 257:modbusRTU.c   ****  * 
 258:modbusRTU.c   ****  * Function to send a reply to a modbus master.
 259:modbusRTU.c   ****  * Returns: total number of characters sent
 260:modbusRTU.c   ****  ************************************************************************/
 261:modbusRTU.c   **** 
 262:modbusRTU.c   **** int send_reply(unsigned char *query, unsigned char string_length) 
 263:modbusRTU.c   **** {
 501              		.loc 1 263 0
 502              		.cfi_startproc
 503              		@ args = 0, pretend = 0, frame = 0
 504              		@ frame_needed = 0, uses_anonymous_args = 0
 505              	.LVL24:
 506 0000 F8B5     		push	{r3, r4, r5, r6, r7, lr}
 507              		.cfi_def_cfa_offset 24
 508              		.cfi_offset 3, -24
 509              		.cfi_offset 4, -20
 510              		.cfi_offset 5, -16
 511              		.cfi_offset 6, -12
 512              		.cfi_offset 7, -8
 513              		.cfi_offset 14, -4
 514              		.loc 1 263 0
 515 0002 8C46     		mov	ip, r1
 516              	.LBB29:
 517              	.LBB30:
 518              	.LBB31:
 519              	.LBB32:
 150:modbusRTU.c   ****                 temp = temp ^ buf[i];
 520              		.loc 1 150 0
 521 0004 0029     		cmp	r1, #0
 522 0006 57D0     		beq	.L61
 523 0008 0500     		movs	r5, r0
 154:modbusRTU.c   ****                         temp = temp >> 1;
 524              		.loc 1 154 0
 525 000a 0122     		movs	r2, #1
 526 000c 4F1E     		subs	r7, r1, #1
 527 000e FFB2     		uxtb	r7, r7
 528 0010 0137     		adds	r7, r7, #1
 150:modbusRTU.c   ****                 temp = temp ^ buf[i];
 529              		.loc 1 150 0
 530 0012 2D4C     		ldr	r4, .L86
 157:modbusRTU.c   ****                 }
 531              		.loc 1 157 0
 532 0014 2D4B     		ldr	r3, .L86+4
 533 0016 C719     		adds	r7, r0, r7
 534              	.LVL25:
 535              	.L78:
 536 0018 1900     		movs	r1, r3
 151:modbusRTU.c   **** 
 537              		.loc 1 151 0
 538 001a 2E78     		ldrb	r6, [r5]
ARM GAS  C:\Users\AFDHAL~1\AppData\Local\Temp\ccKZJoZj.s 			page 16


 539 001c 7440     		eors	r4, r6
 155:modbusRTU.c   ****                         if (flag)
 540              		.loc 1 155 0
 541 001e 6608     		lsrs	r6, r4, #1
 157:modbusRTU.c   ****                 }
 542              		.loc 1 157 0
 543 0020 7140     		eors	r1, r6
 544 0022 2242     		tst	r2, r4
 545 0024 00D1     		bne	.L63
 546 0026 3100     		movs	r1, r6
 547              	.L63:
 548 0028 1E00     		movs	r6, r3
 155:modbusRTU.c   ****                         if (flag)
 549              		.loc 1 155 0
 550 002a 4C08     		lsrs	r4, r1, #1
 157:modbusRTU.c   ****                 }
 551              		.loc 1 157 0
 552 002c 6640     		eors	r6, r4
 553 002e 0A42     		tst	r2, r1
 554 0030 00D1     		bne	.L65
 555 0032 2600     		movs	r6, r4
 556              	.L65:
 557 0034 1C00     		movs	r4, r3
 155:modbusRTU.c   ****                         if (flag)
 558              		.loc 1 155 0
 559 0036 7108     		lsrs	r1, r6, #1
 157:modbusRTU.c   ****                 }
 560              		.loc 1 157 0
 561 0038 4C40     		eors	r4, r1
 562 003a 3242     		tst	r2, r6
 563 003c 00D1     		bne	.L67
 564 003e 0C00     		movs	r4, r1
 565              	.L67:
 566 0040 1E00     		movs	r6, r3
 155:modbusRTU.c   ****                         if (flag)
 567              		.loc 1 155 0
 568 0042 6108     		lsrs	r1, r4, #1
 157:modbusRTU.c   ****                 }
 569              		.loc 1 157 0
 570 0044 4E40     		eors	r6, r1
 571 0046 2242     		tst	r2, r4
 572 0048 00D1     		bne	.L69
 573 004a 0E00     		movs	r6, r1
 574              	.L69:
 575 004c 1C00     		movs	r4, r3
 155:modbusRTU.c   ****                         if (flag)
 576              		.loc 1 155 0
 577 004e 7108     		lsrs	r1, r6, #1
 157:modbusRTU.c   ****                 }
 578              		.loc 1 157 0
 579 0050 4C40     		eors	r4, r1
 580 0052 3242     		tst	r2, r6
 581 0054 00D1     		bne	.L71
 582 0056 0C00     		movs	r4, r1
 583              	.L71:
 584 0058 1E00     		movs	r6, r3
 155:modbusRTU.c   ****                         if (flag)
ARM GAS  C:\Users\AFDHAL~1\AppData\Local\Temp\ccKZJoZj.s 			page 17


 585              		.loc 1 155 0
 586 005a 6108     		lsrs	r1, r4, #1
 157:modbusRTU.c   ****                 }
 587              		.loc 1 157 0
 588 005c 4E40     		eors	r6, r1
 589 005e 2242     		tst	r2, r4
 590 0060 00D1     		bne	.L73
 591 0062 0E00     		movs	r6, r1
 592              	.L73:
 593 0064 1C00     		movs	r4, r3
 155:modbusRTU.c   ****                         if (flag)
 594              		.loc 1 155 0
 595 0066 7108     		lsrs	r1, r6, #1
 157:modbusRTU.c   ****                 }
 596              		.loc 1 157 0
 597 0068 4C40     		eors	r4, r1
 598 006a 3242     		tst	r2, r6
 599 006c 00D1     		bne	.L75
 600 006e 0C00     		movs	r4, r1
 601              	.L75:
 602 0070 1E00     		movs	r6, r3
 155:modbusRTU.c   ****                         if (flag)
 603              		.loc 1 155 0
 604 0072 6108     		lsrs	r1, r4, #1
 157:modbusRTU.c   ****                 }
 605              		.loc 1 157 0
 606 0074 4E40     		eors	r6, r1
 607 0076 2242     		tst	r2, r4
 608 0078 00D1     		bne	.L77
 609 007a 0E00     		movs	r6, r1
 610              	.L77:
 611 007c 0135     		adds	r5, r5, #1
 612 007e 3400     		movs	r4, r6
 613              	.LVL26:
 150:modbusRTU.c   ****                 temp = temp ^ buf[i];
 614              		.loc 1 150 0
 615 0080 BD42     		cmp	r5, r7
 616 0082 C9D1     		bne	.L78
 617              	.LBE32:
 618              	.LBE31:
 247:modbusRTU.c   ****         string_length++;
 619              		.loc 1 247 0
 620 0084 6146     		mov	r1, ip
 621 0086 330A     		lsrs	r3, r6, #8
 622 0088 3602     		lsls	r6, r6, #8
 623 008a 3343     		orrs	r3, r6
 624 008c 1B04     		lsls	r3, r3, #16
 625 008e 1B0C     		lsrs	r3, r3, #16
 626              	.LVL27:
 627 0090 1A12     		asrs	r2, r3, #8
 628 0092 4254     		strb	r2, [r0, r1]
 629              	.LVL28:
 249:modbusRTU.c   **** } 
 630              		.loc 1 249 0
 631 0094 4D1C     		adds	r5, r1, #1
 632              	.LBE30:
 633              	.LBE29:
ARM GAS  C:\Users\AFDHAL~1\AppData\Local\Temp\ccKZJoZj.s 			page 18


 264:modbusRTU.c   ****         unsigned char i;
 265:modbusRTU.c   **** 
 266:modbusRTU.c   ****         modbus_reply(query, string_length);
 267:modbusRTU.c   ****         string_length += 2;
 634              		.loc 1 267 0
 635 0096 0231     		adds	r1, r1, #2
 636              	.LBB36:
 637              	.LBB33:
 249:modbusRTU.c   **** } 
 638              		.loc 1 249 0
 639 0098 EDB2     		uxtb	r5, r5
 640              	.LBE33:
 641              	.LBE36:
 642              		.loc 1 267 0
 643 009a CEB2     		uxtb	r6, r1
 644              	.LBB37:
 645              	.LBB34:
 249:modbusRTU.c   **** } 
 646              		.loc 1 249 0
 647 009c 4355     		strb	r3, [r0, r5]
 648              	.LVL29:
 649              	.LBE34:
 650              	.LBE37:
 268:modbusRTU.c   **** 
 269:modbusRTU.c   ****         //used for portability
 270:modbusRTU.c   ****         for (i = 0; i < string_length; i++) {
 651              		.loc 1 270 0
 652 009e 002E     		cmp	r6, #0
 653 00a0 10D0     		beq	.L82
 654              	.LVL30:
 655              	.L81:
 656 00a2 0400     		movs	r4, r0
 657 00a4 0135     		adds	r5, r5, #1
 658 00a6 4519     		adds	r5, r0, r5
 659              	.LVL31:
 660              	.L80:
 271:modbusRTU.c   ****                 //Serial.print(char(query[i]));
 272:modbusRTU.c   ****                 USB_UART_SpiUartWriteTxData((char)query[i]);
 661              		.loc 1 272 0 discriminator 3
 662 00a8 2078     		ldrb	r0, [r4]
 663 00aa 0134     		adds	r4, r4, #1
 664              	.LVL32:
 665 00ac FFF7FEFF 		bl	USB_UART_SpiUartWriteTxData
 666              	.LVL33:
 270:modbusRTU.c   ****                 //Serial.print(char(query[i]));
 667              		.loc 1 270 0 discriminator 3
 668 00b0 A542     		cmp	r5, r4
 669 00b2 F9D1     		bne	.L80
 670 00b4 3000     		movs	r0, r6
 671              	.L85:
 273:modbusRTU.c   ****         }
 274:modbusRTU.c   ****         
 275:modbusRTU.c   ****         //experimental
 276:modbusRTU.c   ****         //USB_UART_SpiUartPutArray(query, string_length);
 277:modbusRTU.c   **** 
 278:modbusRTU.c   ****         return i; 		/* it does not mean that the write was succesful, though */
 279:modbusRTU.c   **** }
ARM GAS  C:\Users\AFDHAL~1\AppData\Local\Temp\ccKZJoZj.s 			page 19


 672              		.loc 1 279 0
 673              		@ sp needed
 674              	.LVL34:
 675 00b6 F8BD     		pop	{r3, r4, r5, r6, r7, pc}
 676              	.LVL35:
 677              	.L61:
 678              	.LBB38:
 679              	.LBB35:
 247:modbusRTU.c   ****         string_length++;
 680              		.loc 1 247 0
 681 00b8 FF23     		movs	r3, #255
 249:modbusRTU.c   **** } 
 682              		.loc 1 249 0
 683 00ba 0125     		movs	r5, #1
 247:modbusRTU.c   ****         string_length++;
 684              		.loc 1 247 0
 685 00bc 0370     		strb	r3, [r0]
 686              	.LVL36:
 249:modbusRTU.c   **** } 
 687              		.loc 1 249 0
 688 00be 4370     		strb	r3, [r0, #1]
 689              	.LVL37:
 690              	.LBE35:
 691              	.LBE38:
 267:modbusRTU.c   **** 
 692              		.loc 1 267 0
 693 00c0 0226     		movs	r6, #2
 694 00c2 EEE7     		b	.L81
 695              	.LVL38:
 696              	.L82:
 270:modbusRTU.c   ****                 //Serial.print(char(query[i]));
 697              		.loc 1 270 0
 698 00c4 0020     		movs	r0, #0
 699              	.LVL39:
 278:modbusRTU.c   **** }
 700              		.loc 1 278 0
 701 00c6 F6E7     		b	.L85
 702              	.L87:
 703              		.align	2
 704              	.L86:
 705 00c8 FFFF0000 		.word	65535
 706 00cc 01A00000 		.word	40961
 707              		.cfi_endproc
 708              	.LFE40:
 709              		.size	send_reply, .-send_reply
 710              		.section	.text.receive_request,"ax",%progbits
 711              		.align	2
 712              		.global	receive_request
 713              		.code	16
 714              		.thumb_func
 715              		.type	receive_request, %function
 716              	receive_request:
 717              	.LFB41:
 280:modbusRTU.c   **** 
 281:modbusRTU.c   **** /***********************************************************************
 282:modbusRTU.c   ****  * 
 283:modbusRTU.c   ****  * 	receive_request( array_for_data )
ARM GAS  C:\Users\AFDHAL~1\AppData\Local\Temp\ccKZJoZj.s 			page 20


 284:modbusRTU.c   ****  * 
 285:modbusRTU.c   ****  * Function to monitor for a request from the modbus master.
 286:modbusRTU.c   ****  * 
 287:modbusRTU.c   ****  * Returns:	Total number of characters received if OK
 288:modbusRTU.c   ****  * 0 if there is no request 
 289:modbusRTU.c   ****  * A negative error code on failure
 290:modbusRTU.c   ****  ***********************************************************************/
 291:modbusRTU.c   **** 
 292:modbusRTU.c   **** int receive_request(unsigned char *received_string) 
 293:modbusRTU.c   **** {
 718              		.loc 1 293 0
 719              		.cfi_startproc
 720              		@ args = 0, pretend = 0, frame = 0
 721              		@ frame_needed = 0, uses_anonymous_args = 0
 722              	.LVL40:
 723 0000 70B5     		push	{r4, r5, r6, lr}
 724              		.cfi_def_cfa_offset 16
 725              		.cfi_offset 4, -16
 726              		.cfi_offset 5, -12
 727              		.cfi_offset 6, -8
 728              		.cfi_offset 14, -4
 294:modbusRTU.c   ****         int bytes_received = 0;
 295:modbusRTU.c   **** 
 296:modbusRTU.c   ****         /* FIXME: does Serial.available wait 1.5T or 3.5T before exiting the loop? */
 297:modbusRTU.c   ****         //while (Serial.available()) {
 298:modbusRTU.c   ****         while (USB_UART_SpiUartGetRxBufferSize()) {
 299:modbusRTU.c   ****                 //received_string[bytes_received] = Serial.read();
 300:modbusRTU.c   ****                 received_string[bytes_received] = USB_UART_UartGetByte();
 301:modbusRTU.c   ****                 //Serial.print(received_string[bytes_received], DEC);
 302:modbusRTU.c   ****                 bytes_received++;
 303:modbusRTU.c   ****                 if (bytes_received >= MAX_MESSAGE_LENGTH)
 729              		.loc 1 303 0
 730 0002 8025     		movs	r5, #128
 293:modbusRTU.c   ****         int bytes_received = 0;
 731              		.loc 1 293 0
 732 0004 0600     		movs	r6, r0
 294:modbusRTU.c   ****         int bytes_received = 0;
 733              		.loc 1 294 0
 734 0006 0024     		movs	r4, #0
 735              		.loc 1 303 0
 736 0008 6D00     		lsls	r5, r5, #1
 298:modbusRTU.c   ****                 //received_string[bytes_received] = Serial.read();
 737              		.loc 1 298 0
 738 000a 05E0     		b	.L89
 739              	.LVL41:
 740              	.L91:
 300:modbusRTU.c   ****                 //Serial.print(received_string[bytes_received], DEC);
 741              		.loc 1 300 0
 742 000c FFF7FEFF 		bl	USB_UART_UartGetByte
 743              	.LVL42:
 744 0010 3055     		strb	r0, [r6, r4]
 302:modbusRTU.c   ****                 if (bytes_received >= MAX_MESSAGE_LENGTH)
 745              		.loc 1 302 0
 746 0012 0134     		adds	r4, r4, #1
 747              	.LVL43:
 748              		.loc 1 303 0
 749 0014 AC42     		cmp	r4, r5
ARM GAS  C:\Users\AFDHAL~1\AppData\Local\Temp\ccKZJoZj.s 			page 21


 750 0016 05D0     		beq	.L92
 751              	.LVL44:
 752              	.L89:
 298:modbusRTU.c   ****                 //received_string[bytes_received] = Serial.read();
 753              		.loc 1 298 0
 754 0018 FFF7FEFF 		bl	USB_UART_SpiUartGetRxBufferSize
 755              	.LVL45:
 756 001c 0028     		cmp	r0, #0
 757 001e F5D1     		bne	.L91
 758 0020 2000     		movs	r0, r4
 759              	.L90:
 304:modbusRTU.c   ****                         return NO_REPLY; 	/* port error */
 305:modbusRTU.c   ****         }
 306:modbusRTU.c   **** 
 307:modbusRTU.c   ****         return (bytes_received);
 308:modbusRTU.c   **** }
 760              		.loc 1 308 0
 761              		@ sp needed
 762              	.LVL46:
 763              	.LVL47:
 764 0022 70BD     		pop	{r4, r5, r6, pc}
 765              	.LVL48:
 766              	.L92:
 304:modbusRTU.c   ****                         return NO_REPLY; 	/* port error */
 767              		.loc 1 304 0
 768 0024 0120     		movs	r0, #1
 769 0026 4042     		rsbs	r0, r0, #0
 770 0028 FBE7     		b	.L90
 771              		.cfi_endproc
 772              	.LFE41:
 773              		.size	receive_request, .-receive_request
 774 002a C046     		.section	.text.modbus_request,"ax",%progbits
 775              		.align	2
 776              		.global	modbus_request
 777              		.code	16
 778              		.thumb_func
 779              		.type	modbus_request, %function
 780              	modbus_request:
 781              	.LFB42:
 309:modbusRTU.c   **** 
 310:modbusRTU.c   **** 
 311:modbusRTU.c   **** /*********************************************************************
 312:modbusRTU.c   ****  * 
 313:modbusRTU.c   ****  * 	modbus_request(request_data_array)
 314:modbusRTU.c   ****  * 
 315:modbusRTU.c   ****  * Function to the correct request is returned and that the checksum
 316:modbusRTU.c   ****  * is correct.
 317:modbusRTU.c   ****  * 
 318:modbusRTU.c   ****  * Returns:	string_length if OK
 319:modbusRTU.c   ****  * 		0 if failed
 320:modbusRTU.c   ****  * 		Less than 0 for exception errors
 321:modbusRTU.c   ****  * 
 322:modbusRTU.c   ****  * 	Note: All functions used for sending or receiving data via
 323:modbusRTU.c   ****  * 	      modbus return these return values.
 324:modbusRTU.c   ****  * 
 325:modbusRTU.c   ****  **********************************************************************/
 326:modbusRTU.c   **** 
ARM GAS  C:\Users\AFDHAL~1\AppData\Local\Temp\ccKZJoZj.s 			page 22


 327:modbusRTU.c   **** int modbus_request(unsigned char *data) 
 328:modbusRTU.c   **** {
 782              		.loc 1 328 0
 783              		.cfi_startproc
 784              		@ args = 0, pretend = 0, frame = 0
 785              		@ frame_needed = 0, uses_anonymous_args = 0
 786              	.LVL49:
 787 0000 F8B5     		push	{r3, r4, r5, r6, r7, lr}
 788              		.cfi_def_cfa_offset 24
 789              		.cfi_offset 3, -24
 790              		.cfi_offset 4, -20
 791              		.cfi_offset 5, -16
 792              		.cfi_offset 6, -12
 793              		.cfi_offset 7, -8
 794              		.cfi_offset 14, -4
 795              	.LBB43:
 796              	.LBB44:
 303:modbusRTU.c   ****                         return NO_REPLY; 	/* port error */
 797              		.loc 1 303 0
 798 0002 8026     		movs	r6, #128
 799              	.LBE44:
 800              	.LBE43:
 801              		.loc 1 328 0
 802 0004 0500     		movs	r5, r0
 803              	.LVL50:
 804              	.LBB47:
 805              	.LBB45:
 294:modbusRTU.c   **** 
 806              		.loc 1 294 0
 807 0006 0024     		movs	r4, #0
 303:modbusRTU.c   ****                         return NO_REPLY; 	/* port error */
 808              		.loc 1 303 0
 809 0008 7600     		lsls	r6, r6, #1
 810 000a 05E0     		b	.L94
 811              	.LVL51:
 812              	.L96:
 300:modbusRTU.c   ****                 //Serial.print(received_string[bytes_received], DEC);
 813              		.loc 1 300 0
 814 000c FFF7FEFF 		bl	USB_UART_UartGetByte
 815              	.LVL52:
 816 0010 2855     		strb	r0, [r5, r4]
 302:modbusRTU.c   ****                 if (bytes_received >= MAX_MESSAGE_LENGTH)
 817              		.loc 1 302 0
 818 0012 0134     		adds	r4, r4, #1
 819              	.LVL53:
 303:modbusRTU.c   ****                         return NO_REPLY; 	/* port error */
 820              		.loc 1 303 0
 821 0014 B442     		cmp	r4, r6
 822 0016 5CD0     		beq	.L115
 823              	.LVL54:
 824              	.L94:
 298:modbusRTU.c   ****                 //received_string[bytes_received] = Serial.read();
 825              		.loc 1 298 0
 826 0018 FFF7FEFF 		bl	USB_UART_SpiUartGetRxBufferSize
 827              	.LVL55:
 828 001c 0028     		cmp	r0, #0
 829 001e F5D1     		bne	.L96
ARM GAS  C:\Users\AFDHAL~1\AppData\Local\Temp\ccKZJoZj.s 			page 23


 830              	.LVL56:
 831              	.LBE45:
 832              	.LBE47:
 329:modbusRTU.c   ****         int response_length;
 330:modbusRTU.c   ****         unsigned int crc_calc = 0;
 331:modbusRTU.c   ****         unsigned int crc_received = 0;
 332:modbusRTU.c   ****         //unsigned char recv_crc_hi;
 333:modbusRTU.c   ****         //unsigned char recv_crc_lo;
 334:modbusRTU.c   **** 
 335:modbusRTU.c   ****         response_length = receive_request(data);
 336:modbusRTU.c   **** 
 337:modbusRTU.c   ****         if (response_length > 0) {
 833              		.loc 1 337 0
 834 0020 002C     		cmp	r4, #0
 835 0022 5BD0     		beq	.L116
 338:modbusRTU.c   ****                 crc_calc = crc(data, 0, response_length - 2);
 836              		.loc 1 338 0
 837 0024 E3B2     		uxtb	r3, r4
 838              	.LVL57:
 839              	.LBB48:
 840              	.LBB49:
 150:modbusRTU.c   ****                 temp = temp ^ buf[i];
 841              		.loc 1 150 0
 842 0026 022B     		cmp	r3, #2
 843 0028 56D0     		beq	.L117
 844 002a 033B     		subs	r3, r3, #3
 845              	.LVL58:
 846 002c DFB2     		uxtb	r7, r3
 847 002e 0137     		adds	r7, r7, #1
 848 0030 BC46     		mov	ip, r7
 849 0032 2800     		movs	r0, r5
 154:modbusRTU.c   ****                         temp = temp >> 1;
 850              		.loc 1 154 0
 851 0034 0122     		movs	r2, #1
 150:modbusRTU.c   ****                 temp = temp ^ buf[i];
 852              		.loc 1 150 0
 853 0036 2A49     		ldr	r1, .L120
 157:modbusRTU.c   ****                 }
 854              		.loc 1 157 0
 855 0038 2A4B     		ldr	r3, .L120+4
 856              	.LVL59:
 857 003a AC44     		add	ip, ip, r5
 858              	.LVL60:
 859              	.L114:
 860 003c 1F00     		movs	r7, r3
 151:modbusRTU.c   **** 
 861              		.loc 1 151 0
 862 003e 0678     		ldrb	r6, [r0]
 863 0040 7140     		eors	r1, r6
 155:modbusRTU.c   ****                         if (flag)
 864              		.loc 1 155 0
 865 0042 4E08     		lsrs	r6, r1, #1
 157:modbusRTU.c   ****                 }
 866              		.loc 1 157 0
 867 0044 7740     		eors	r7, r6
 868 0046 0A42     		tst	r2, r1
 869 0048 00D1     		bne	.L99
ARM GAS  C:\Users\AFDHAL~1\AppData\Local\Temp\ccKZJoZj.s 			page 24


 870 004a 3700     		movs	r7, r6
 871              	.L99:
 872 004c 1E00     		movs	r6, r3
 155:modbusRTU.c   ****                         if (flag)
 873              		.loc 1 155 0
 874 004e 7908     		lsrs	r1, r7, #1
 157:modbusRTU.c   ****                 }
 875              		.loc 1 157 0
 876 0050 4E40     		eors	r6, r1
 877 0052 3A42     		tst	r2, r7
 878 0054 00D1     		bne	.L101
 879 0056 0E00     		movs	r6, r1
 880              	.L101:
 881 0058 1900     		movs	r1, r3
 155:modbusRTU.c   ****                         if (flag)
 882              		.loc 1 155 0
 883 005a 7708     		lsrs	r7, r6, #1
 157:modbusRTU.c   ****                 }
 884              		.loc 1 157 0
 885 005c 7940     		eors	r1, r7
 886 005e 3242     		tst	r2, r6
 887 0060 00D1     		bne	.L103
 888 0062 3900     		movs	r1, r7
 889              	.L103:
 890 0064 1E00     		movs	r6, r3
 155:modbusRTU.c   ****                         if (flag)
 891              		.loc 1 155 0
 892 0066 4F08     		lsrs	r7, r1, #1
 157:modbusRTU.c   ****                 }
 893              		.loc 1 157 0
 894 0068 7E40     		eors	r6, r7
 895 006a 0A42     		tst	r2, r1
 896 006c 00D1     		bne	.L105
 897 006e 3E00     		movs	r6, r7
 898              	.L105:
 899 0070 1900     		movs	r1, r3
 155:modbusRTU.c   ****                         if (flag)
 900              		.loc 1 155 0
 901 0072 7708     		lsrs	r7, r6, #1
 157:modbusRTU.c   ****                 }
 902              		.loc 1 157 0
 903 0074 7940     		eors	r1, r7
 904 0076 3242     		tst	r2, r6
 905 0078 00D1     		bne	.L107
 906 007a 3900     		movs	r1, r7
 907              	.L107:
 908 007c 1E00     		movs	r6, r3
 155:modbusRTU.c   ****                         if (flag)
 909              		.loc 1 155 0
 910 007e 4F08     		lsrs	r7, r1, #1
 157:modbusRTU.c   ****                 }
 911              		.loc 1 157 0
 912 0080 7E40     		eors	r6, r7
 913 0082 0A42     		tst	r2, r1
 914 0084 00D1     		bne	.L109
 915 0086 3E00     		movs	r6, r7
 916              	.L109:
ARM GAS  C:\Users\AFDHAL~1\AppData\Local\Temp\ccKZJoZj.s 			page 25


 917 0088 1900     		movs	r1, r3
 155:modbusRTU.c   ****                         if (flag)
 918              		.loc 1 155 0
 919 008a 7708     		lsrs	r7, r6, #1
 157:modbusRTU.c   ****                 }
 920              		.loc 1 157 0
 921 008c 7940     		eors	r1, r7
 922 008e 3242     		tst	r2, r6
 923 0090 00D1     		bne	.L111
 924 0092 3900     		movs	r1, r7
 925              	.L111:
 926 0094 1E00     		movs	r6, r3
 155:modbusRTU.c   ****                         if (flag)
 927              		.loc 1 155 0
 928 0096 4F08     		lsrs	r7, r1, #1
 157:modbusRTU.c   ****                 }
 929              		.loc 1 157 0
 930 0098 7E40     		eors	r6, r7
 931 009a 0A42     		tst	r2, r1
 932 009c 00D1     		bne	.L113
 933 009e 3E00     		movs	r6, r7
 934              	.L113:
 935 00a0 0130     		adds	r0, r0, #1
 936 00a2 3100     		movs	r1, r6
 937              	.LVL61:
 150:modbusRTU.c   ****                 temp = temp ^ buf[i];
 938              		.loc 1 150 0
 939 00a4 8445     		cmp	ip, r0
 940 00a6 C9D1     		bne	.L114
 941 00a8 3302     		lsls	r3, r6, #8
 942 00aa 360A     		lsrs	r6, r6, #8
 943 00ac 3343     		orrs	r3, r6
 944 00ae 1B04     		lsls	r3, r3, #16
 945 00b0 1B0C     		lsrs	r3, r3, #16
 946              	.LVL62:
 947              	.L97:
 948              	.LBE49:
 949              	.LBE48:
 339:modbusRTU.c   ****                 //recv_crc_hi = (unsigned) data[response_length - 2];
 340:modbusRTU.c   ****                 //recv_crc_lo = (unsigned) data[response_length - 1];
 341:modbusRTU.c   ****                 crc_received = data[response_length - 2];
 950              		.loc 1 341 0
 951 00b2 2919     		adds	r1, r5, r4
 952 00b4 8A1E     		subs	r2, r1, #2
 953 00b6 1278     		ldrb	r2, [r2]
 954              	.LVL63:
 342:modbusRTU.c   ****                 crc_received = (unsigned) crc_received << 8;
 343:modbusRTU.c   ****                 crc_received =
 344:modbusRTU.c   ****                         crc_received | (unsigned) data[response_length - 1];
 955              		.loc 1 344 0
 956 00b8 0139     		subs	r1, r1, #1
 345:modbusRTU.c   **** 
 346:modbusRTU.c   ****                 /*********** check CRC of response ************/
 347:modbusRTU.c   ****                 if (crc_calc != crc_received) {
 957              		.loc 1 347 0
 958 00ba 0978     		ldrb	r1, [r1]
 342:modbusRTU.c   ****                 crc_received = (unsigned) crc_received << 8;
ARM GAS  C:\Users\AFDHAL~1\AppData\Local\Temp\ccKZJoZj.s 			page 26


 959              		.loc 1 342 0
 960 00bc 1202     		lsls	r2, r2, #8
 961              	.LVL64:
 962              		.loc 1 347 0
 963 00be 0A43     		orrs	r2, r1
 964              	.LVL65:
 965 00c0 9A42     		cmp	r2, r3
 966 00c2 06D1     		bne	.L115
 348:modbusRTU.c   ****                         return NO_REPLY;
 349:modbusRTU.c   ****                 }
 350:modbusRTU.c   **** 
 351:modbusRTU.c   ****                 /* check for slave id */
 352:modbusRTU.c   ****                 if (slave != data[SLAVE]) {
 967              		.loc 1 352 0
 968 00c4 084B     		ldr	r3, .L120+8
 969 00c6 2A78     		ldrb	r2, [r5]
 970 00c8 1B78     		ldrb	r3, [r3]
 971 00ca 9A42     		cmp	r2, r3
 972 00cc 01D1     		bne	.L115
 973 00ce 2000     		movs	r0, r4
 974              	.LVL66:
 975              	.L95:
 353:modbusRTU.c   ****                         return NO_REPLY;
 354:modbusRTU.c   ****                 }
 355:modbusRTU.c   ****         }
 356:modbusRTU.c   ****         return (response_length);
 357:modbusRTU.c   **** }
 976              		.loc 1 357 0
 977              		@ sp needed
 978              	.LVL67:
 979 00d0 F8BD     		pop	{r3, r4, r5, r6, r7, pc}
 980              	.LVL68:
 981              	.L115:
 982              	.LBB51:
 983              	.LBB46:
 304:modbusRTU.c   ****         }
 984              		.loc 1 304 0
 985 00d2 0120     		movs	r0, #1
 986 00d4 4042     		rsbs	r0, r0, #0
 987 00d6 FBE7     		b	.L95
 988              	.LVL69:
 989              	.L117:
 990              	.LBE46:
 991              	.LBE51:
 992              	.LBB52:
 993              	.LBB50:
 150:modbusRTU.c   ****                 temp = temp ^ buf[i];
 994              		.loc 1 150 0
 995 00d8 014B     		ldr	r3, .L120
 996              	.LVL70:
 997 00da EAE7     		b	.L97
 998              	.LVL71:
 999              	.L116:
 1000              	.LBE50:
 1001              	.LBE52:
 1002 00dc 0020     		movs	r0, #0
 1003 00de F7E7     		b	.L95
ARM GAS  C:\Users\AFDHAL~1\AppData\Local\Temp\ccKZJoZj.s 			page 27


 1004              	.L121:
 1005              		.align	2
 1006              	.L120:
 1007 00e0 FFFF0000 		.word	65535
 1008 00e4 01A00000 		.word	40961
 1009 00e8 00000000 		.word	slave
 1010              		.cfi_endproc
 1011              	.LFE42:
 1012              		.size	modbus_request, .-modbus_request
 1013              		.section	.text.validate_request,"ax",%progbits
 1014              		.align	2
 1015              		.global	validate_request
 1016              		.code	16
 1017              		.thumb_func
 1018              		.type	validate_request, %function
 1019              	validate_request:
 1020              	.LFB43:
 358:modbusRTU.c   **** 
 359:modbusRTU.c   **** /*********************************************************************
 360:modbusRTU.c   ****  * 
 361:modbusRTU.c   ****  * 	validate_request(request_data_array, request_length, available_regs)
 362:modbusRTU.c   ****  * 
 363:modbusRTU.c   ****  * Function to check that the request can be processed by the slave.
 364:modbusRTU.c   ****  * 
 365:modbusRTU.c   ****  * Returns:	0 if OK
 366:modbusRTU.c   ****  * 		A negative exception code on error
 367:modbusRTU.c   ****  * 
 368:modbusRTU.c   ****  **********************************************************************/
 369:modbusRTU.c   **** 
 370:modbusRTU.c   **** int validate_request(unsigned char *data, unsigned char length,
 371:modbusRTU.c   **** unsigned int regs_size) 
 372:modbusRTU.c   **** {
 1021              		.loc 1 372 0
 1022              		.cfi_startproc
 1023              		@ args = 0, pretend = 0, frame = 0
 1024              		@ frame_needed = 0, uses_anonymous_args = 0
 1025              	.LVL72:
 1026 0000 10B5     		push	{r4, lr}
 1027              		.cfi_def_cfa_offset 8
 1028              		.cfi_offset 4, -8
 1029              		.cfi_offset 14, -4
 373:modbusRTU.c   ****         int i, fcnt = 0;
 374:modbusRTU.c   ****         unsigned int regs_num = 0;
 375:modbusRTU.c   ****         unsigned int start_addr = 0;
 376:modbusRTU.c   ****         unsigned char max_regs_num;
 377:modbusRTU.c   **** 
 378:modbusRTU.c   ****         /* check function code */
 379:modbusRTU.c   ****         for (i = 0; i < sizeof(fsupported); i++) {
 380:modbusRTU.c   ****                 if (fsupported[i] == data[FUNC]) {
 1030              		.loc 1 380 0
 1031 0002 4378     		ldrb	r3, [r0, #1]
 372:modbusRTU.c   ****         int i, fcnt = 0;
 1032              		.loc 1 372 0
 1033 0004 0100     		movs	r1, r0
 1034              	.LVL73:
 1035              		.loc 1 380 0
 1036 0006 032B     		cmp	r3, #3
ARM GAS  C:\Users\AFDHAL~1\AppData\Local\Temp\ccKZJoZj.s 			page 28


 1037 0008 0ED0     		beq	.L123
 1038              	.LVL74:
 1039 000a 062B     		cmp	r3, #6
 1040 000c 03D0     		beq	.L124
 1041              	.LVL75:
 1042 000e 102B     		cmp	r3, #16
 1043 0010 1ED0     		beq	.L125
 381:modbusRTU.c   ****                         fcnt = 1;
 382:modbusRTU.c   ****                         break;
 383:modbusRTU.c   ****                 }
 384:modbusRTU.c   ****         }
 385:modbusRTU.c   ****         if (0 == fcnt)
 386:modbusRTU.c   ****                 return EXC_FUNC_CODE;
 1044              		.loc 1 386 0
 1045 0012 0120     		movs	r0, #1
 1046              	.LVL76:
 1047              	.L132:
 387:modbusRTU.c   ****                 
 388:modbusRTU.c   ****         if (FC_WRITE_REG == data[FUNC]) {
 389:modbusRTU.c   ****                 /* For function write single reg, this is the target reg.*/
 390:modbusRTU.c   ****                 regs_num = ((int) data[START_H] << 8) + (int) data[START_L];
 391:modbusRTU.c   ****                 if (regs_num >= regs_size)
 392:modbusRTU.c   ****                         return EXC_ADDR_RANGE;
 393:modbusRTU.c   ****                 return 0;
 394:modbusRTU.c   ****         }                
 395:modbusRTU.c   **** 
 396:modbusRTU.c   ****         /* For functions read/write regs, this is the range. */
 397:modbusRTU.c   ****         regs_num = ((int) data[REGS_H] << 8) + (int) data[REGS_L];
 398:modbusRTU.c   **** 
 399:modbusRTU.c   ****         /* check quantity of registers */
 400:modbusRTU.c   ****         if (FC_READ_REGS == data[FUNC])
 401:modbusRTU.c   ****                 max_regs_num = MAX_READ_REGS;
 402:modbusRTU.c   ****         else if (FC_WRITE_REGS == data[FUNC])
 403:modbusRTU.c   ****                 max_regs_num = MAX_WRITE_REGS;
 404:modbusRTU.c   **** 
 405:modbusRTU.c   ****         if ((regs_num < 1) || (regs_num > max_regs_num))
 406:modbusRTU.c   ****                 return EXC_REGS_QUANT;
 407:modbusRTU.c   **** 
 408:modbusRTU.c   ****         /* check registers range, start address is 0 */
 409:modbusRTU.c   ****         start_addr = ((int) data[START_H] << 8) + (int) data[START_L];
 410:modbusRTU.c   ****         if ((start_addr + regs_num) > regs_size)
 411:modbusRTU.c   ****                 return EXC_ADDR_RANGE;
 412:modbusRTU.c   **** 
 413:modbusRTU.c   ****         return 0; 		/* OK, no exception */
 414:modbusRTU.c   **** }
 1048              		.loc 1 414 0
 1049              		@ sp needed
 1050 0014 10BD     		pop	{r4, pc}
 1051              	.LVL77:
 1052              	.L124:
 1053              	.LBB55:
 1054              	.LBB56:
 391:modbusRTU.c   ****                         return EXC_ADDR_RANGE;
 1055              		.loc 1 391 0
 1056 0016 8378     		ldrb	r3, [r0, #2]
 1057 0018 C178     		ldrb	r1, [r0, #3]
 392:modbusRTU.c   ****                 return 0;
ARM GAS  C:\Users\AFDHAL~1\AppData\Local\Temp\ccKZJoZj.s 			page 29


 1058              		.loc 1 392 0
 1059 001a 0020     		movs	r0, #0
 1060              	.LVL78:
 391:modbusRTU.c   ****                         return EXC_ADDR_RANGE;
 1061              		.loc 1 391 0
 1062 001c 1B02     		lsls	r3, r3, #8
 1063 001e 5B18     		adds	r3, r3, r1
 392:modbusRTU.c   ****                 return 0;
 1064              		.loc 1 392 0
 1065 0020 9342     		cmp	r3, r2
 1066 0022 4041     		adcs	r0, r0, r0
 1067 0024 4000     		lsls	r0, r0, #1
 1068 0026 F5E7     		b	.L132
 1069              	.LVL79:
 1070              	.L123:
 1071              	.LBE56:
 1072              	.LBE55:
 401:modbusRTU.c   ****         else if (FC_WRITE_REGS == data[FUNC])
 1073              		.loc 1 401 0
 1074 0028 7D24     		movs	r4, #125
 397:modbusRTU.c   **** 
 1075              		.loc 1 397 0
 1076 002a 0379     		ldrb	r3, [r0, #4]
 1077 002c 4079     		ldrb	r0, [r0, #5]
 1078              	.LVL80:
 1079 002e 1B02     		lsls	r3, r3, #8
 1080 0030 1B18     		adds	r3, r3, r0
 1081              	.LVL81:
 1082              	.L127:
 406:modbusRTU.c   **** 
 1083              		.loc 1 406 0
 1084 0032 0320     		movs	r0, #3
 405:modbusRTU.c   ****                 return EXC_REGS_QUANT;
 1085              		.loc 1 405 0
 1086 0034 002B     		cmp	r3, #0
 1087 0036 EDD0     		beq	.L132
 405:modbusRTU.c   ****                 return EXC_REGS_QUANT;
 1088              		.loc 1 405 0 is_stmt 0 discriminator 1
 1089 0038 A342     		cmp	r3, r4
 1090 003a EBD8     		bhi	.L132
 1091              	.LVL82:
 410:modbusRTU.c   ****                 return EXC_ADDR_RANGE;
 1092              		.loc 1 410 0 is_stmt 1
 1093 003c 8878     		ldrb	r0, [r1, #2]
 1094 003e C978     		ldrb	r1, [r1, #3]
 1095              	.LVL83:
 1096 0040 0002     		lsls	r0, r0, #8
 1097 0042 4018     		adds	r0, r0, r1
 1098 0044 C318     		adds	r3, r0, r3
 1099              	.LVL84:
 1100              	.LBB58:
 1101              	.LBB57:
 392:modbusRTU.c   ****                 return 0;
 1102              		.loc 1 392 0
 1103 0046 9A42     		cmp	r2, r3
 1104 0048 8041     		sbcs	r0, r0, r0
 1105 004a 4042     		rsbs	r0, r0, #0
ARM GAS  C:\Users\AFDHAL~1\AppData\Local\Temp\ccKZJoZj.s 			page 30


 1106 004c 4000     		lsls	r0, r0, #1
 1107              	.LBE57:
 1108              	.LBE58:
 1109 004e E1E7     		b	.L132
 1110              	.LVL85:
 1111              	.L125:
 397:modbusRTU.c   **** 
 1112              		.loc 1 397 0
 1113 0050 0379     		ldrb	r3, [r0, #4]
 1114 0052 4079     		ldrb	r0, [r0, #5]
 1115              	.LVL86:
 1116 0054 1B02     		lsls	r3, r3, #8
 1117 0056 1B18     		adds	r3, r3, r0
 1118              	.LVL87:
 403:modbusRTU.c   **** 
 1119              		.loc 1 403 0
 1120 0058 7B24     		movs	r4, #123
 1121 005a EAE7     		b	.L127
 1122              		.cfi_endproc
 1123              	.LFE43:
 1124              		.size	validate_request, .-validate_request
 1125              		.section	.text.write_regs,"ax",%progbits
 1126              		.align	2
 1127              		.global	write_regs
 1128              		.code	16
 1129              		.thumb_func
 1130              		.type	write_regs, %function
 1131              	write_regs:
 1132              	.LFB44:
 415:modbusRTU.c   **** 
 416:modbusRTU.c   **** 
 417:modbusRTU.c   **** 
 418:modbusRTU.c   **** /************************************************************************
 419:modbusRTU.c   ****  * 
 420:modbusRTU.c   ****  * 	write_regs(first_register, data_array, registers_array)
 421:modbusRTU.c   ****  * 
 422:modbusRTU.c   ****  * 	writes into the slave's holding registers the data in query, 
 423:modbusRTU.c   ****  * starting at start_addr.
 424:modbusRTU.c   ****  * 
 425:modbusRTU.c   ****  * Returns:   the number of registers written
 426:modbusRTU.c   ****  ************************************************************************/
 427:modbusRTU.c   **** 
 428:modbusRTU.c   **** int write_regs(unsigned int start_addr, unsigned char *query, int *regs) 
 429:modbusRTU.c   **** {
 1133              		.loc 1 429 0
 1134              		.cfi_startproc
 1135              		@ args = 0, pretend = 0, frame = 0
 1136              		@ frame_needed = 0, uses_anonymous_args = 0
 1137              	.LVL88:
 430:modbusRTU.c   ****         int temp;
 431:modbusRTU.c   ****         unsigned int i;
 432:modbusRTU.c   **** 
 433:modbusRTU.c   ****         for (i = 0; i < query[REGS_L]; i++) {
 1138              		.loc 1 433 0
 1139 0000 4B79     		ldrb	r3, [r1, #5]
 429:modbusRTU.c   ****         int temp;
 1140              		.loc 1 429 0
ARM GAS  C:\Users\AFDHAL~1\AppData\Local\Temp\ccKZJoZj.s 			page 31


 1141 0002 30B5     		push	{r4, r5, lr}
 1142              		.cfi_def_cfa_offset 12
 1143              		.cfi_offset 4, -12
 1144              		.cfi_offset 5, -8
 1145              		.cfi_offset 14, -4
 1146              		.loc 1 433 0
 1147 0004 002B     		cmp	r3, #0
 1148 0006 0ED0     		beq	.L137
 1149 0008 8000     		lsls	r0, r0, #2
 1150              	.LVL89:
 1151 000a 1218     		adds	r2, r2, r0
 1152              	.LVL90:
 1153              		.loc 1 433 0 is_stmt 0 discriminator 3
 1154 000c 0020     		movs	r0, #0
 1155 000e CC1D     		adds	r4, r1, #7
 1156              	.LVL91:
 1157              	.L136:
 434:modbusRTU.c   ****                 /* shift reg hi_byte to temp */
 435:modbusRTU.c   ****                 temp = (int) query[(BYTE_CNT + 1) + i * 2] << 8;
 1158              		.loc 1 435 0 is_stmt 1 discriminator 3
 1159 0010 2378     		ldrb	r3, [r4]
 436:modbusRTU.c   ****                 /* OR with lo_byte           */
 437:modbusRTU.c   ****                 temp = temp | (int) query[(BYTE_CNT + 2) + i * 2];
 438:modbusRTU.c   **** 
 439:modbusRTU.c   ****                 regs[start_addr + i] = temp;
 1160              		.loc 1 439 0 discriminator 3
 1161 0012 6578     		ldrb	r5, [r4, #1]
 435:modbusRTU.c   ****                 /* OR with lo_byte           */
 1162              		.loc 1 435 0 discriminator 3
 1163 0014 1B02     		lsls	r3, r3, #8
 1164              	.LVL92:
 1165              		.loc 1 439 0 discriminator 3
 1166 0016 2B43     		orrs	r3, r5
 1167              	.LVL93:
 1168 0018 08C2     		stmia	r2!, {r3}
 433:modbusRTU.c   ****                 /* shift reg hi_byte to temp */
 1169              		.loc 1 433 0 discriminator 3
 1170 001a 4B79     		ldrb	r3, [r1, #5]
 1171              	.LVL94:
 1172 001c 0130     		adds	r0, r0, #1
 1173              	.LVL95:
 1174 001e 0234     		adds	r4, r4, #2
 1175 0020 8342     		cmp	r3, r0
 1176 0022 F5D8     		bhi	.L136
 1177              	.LVL96:
 1178              	.L135:
 440:modbusRTU.c   ****         } 
 441:modbusRTU.c   ****         return i;
 442:modbusRTU.c   **** }
 1179              		.loc 1 442 0
 1180              		@ sp needed
 1181 0024 30BD     		pop	{r4, r5, pc}
 1182              	.LVL97:
 1183              	.L137:
 433:modbusRTU.c   ****                 /* shift reg hi_byte to temp */
 1184              		.loc 1 433 0
 1185 0026 0020     		movs	r0, #0
ARM GAS  C:\Users\AFDHAL~1\AppData\Local\Temp\ccKZJoZj.s 			page 32


 1186              	.LVL98:
 1187 0028 FCE7     		b	.L135
 1188              		.cfi_endproc
 1189              	.LFE44:
 1190              		.size	write_regs, .-write_regs
 1191 002a C046     		.section	.text.preset_multiple_registers,"ax",%progbits
 1192              		.align	2
 1193              		.global	preset_multiple_registers
 1194              		.code	16
 1195              		.thumb_func
 1196              		.type	preset_multiple_registers, %function
 1197              	preset_multiple_registers:
 1198              	.LFB45:
 443:modbusRTU.c   **** 
 444:modbusRTU.c   **** /************************************************************************
 445:modbusRTU.c   ****  * 
 446:modbusRTU.c   ****  * 	preset_multiple_registers(first_register, number_of_registers,
 447:modbusRTU.c   ****  * data_array, registers_array)
 448:modbusRTU.c   ****  * 
 449:modbusRTU.c   ****  * 	Write the data from an array into the holding registers of the slave. 
 450:modbusRTU.c   ****  * 
 451:modbusRTU.c   ****  *************************************************************************/
 452:modbusRTU.c   **** 
 453:modbusRTU.c   **** int preset_multiple_registers(unsigned int start_addr,
 454:modbusRTU.c   **** unsigned char count, 
 455:modbusRTU.c   **** unsigned char *query,
 456:modbusRTU.c   **** int *regs) 
 457:modbusRTU.c   **** {
 1199              		.loc 1 457 0
 1200              		.cfi_startproc
 1201              		@ args = 0, pretend = 0, frame = 8
 1202              		@ frame_needed = 0, uses_anonymous_args = 0
 1203              	.LVL99:
 1204 0000 F0B5     		push	{r4, r5, r6, r7, lr}
 1205              		.cfi_def_cfa_offset 20
 1206              		.cfi_offset 4, -20
 1207              		.cfi_offset 5, -16
 1208              		.cfi_offset 6, -12
 1209              		.cfi_offset 7, -8
 1210              		.cfi_offset 14, -4
 1211 0002 4746     		mov	r7, r8
 1212 0004 80B4     		push	{r7}
 1213              		.cfi_def_cfa_offset 24
 1214              		.cfi_offset 8, -24
 1215              	.LBB69:
 1216              	.LBB70:
 198:modbusRTU.c   ****         packet[FUNC] = function;
 1217              		.loc 1 198 0
 1218 0006 CA4C     		ldr	r4, .L306
 1219              	.LBE70:
 1220              	.LBE69:
 1221              		.loc 1 457 0
 1222 0008 82B0     		sub	sp, sp, #8
 1223              		.cfi_def_cfa_offset 32
 1224              	.LVL100:
 1225              	.LBB73:
 1226              	.LBB71:
ARM GAS  C:\Users\AFDHAL~1\AppData\Local\Temp\ccKZJoZj.s 			page 33


 198:modbusRTU.c   ****         packet[FUNC] = function;
 1227              		.loc 1 198 0
 1228 000a 2478     		ldrb	r4, [r4]
 1229 000c A046     		mov	r8, r4
 1230 000e 6C46     		mov	r4, sp
 1231 0010 4546     		mov	r5, r8
 1232 0012 2570     		strb	r5, [r4]
 199:modbusRTU.c   ****         packet[START_H] = start_addr >> 8;
 1233              		.loc 1 199 0
 1234 0014 1024     		movs	r4, #16
 1235 0016 6D46     		mov	r5, sp
 1236 0018 6C70     		strb	r4, [r5, #1]
 200:modbusRTU.c   ****         packet[START_L] = start_addr & 0x00ff;
 1237              		.loc 1 200 0
 1238 001a 040A     		lsrs	r4, r0, #8
 1239 001c A446     		mov	ip, r4
 1240 001e 6C46     		mov	r4, sp
 1241 0020 6546     		mov	r5, ip
 201:modbusRTU.c   ****         packet[REGS_H] = 0x00;
 1242              		.loc 1 201 0
 1243 0022 E070     		strb	r0, [r4, #3]
 200:modbusRTU.c   ****         packet[START_L] = start_addr & 0x00ff;
 1244              		.loc 1 200 0
 1245 0024 A570     		strb	r5, [r4, #2]
 202:modbusRTU.c   ****         packet[REGS_L] = count;
 1246              		.loc 1 202 0
 1247 0026 0024     		movs	r4, #0
 1248 0028 6D46     		mov	r5, sp
 1249 002a 2C71     		strb	r4, [r5, #4]
 1250              	.LBE71:
 1251              	.LBE73:
 1252              	.LBB74:
 1253              	.LBB75:
 433:modbusRTU.c   ****                 /* shift reg hi_byte to temp */
 1254              		.loc 1 433 0
 1255 002c 5479     		ldrb	r4, [r2, #5]
 1256              	.LBE75:
 1257              	.LBE74:
 1258              	.LBB77:
 1259              	.LBB72:
 203:modbusRTU.c   **** } 
 1260              		.loc 1 203 0
 1261 002e 6971     		strb	r1, [r5, #5]
 1262              	.LVL101:
 1263              	.LBE72:
 1264              	.LBE77:
 1265              	.LBB78:
 1266              	.LBB76:
 433:modbusRTU.c   ****                 /* shift reg hi_byte to temp */
 1267              		.loc 1 433 0
 1268 0030 002C     		cmp	r4, #0
 1269 0032 00D1     		bne	.LCB1287
 1270 0034 C2E2     		b	.L239	@long jump
 1271              	.LCB1287:
 1272 0036 0026     		movs	r6, #0
 1273 0038 8400     		lsls	r4, r0, #2
 1274 003a D51D     		adds	r5, r2, #7
ARM GAS  C:\Users\AFDHAL~1\AppData\Local\Temp\ccKZJoZj.s 			page 34


 1275 003c 1B19     		adds	r3, r3, r4
 1276              	.LVL102:
 1277              	.L141:
 435:modbusRTU.c   ****                 /* OR with lo_byte           */
 1278              		.loc 1 435 0
 1279 003e 2C78     		ldrb	r4, [r5]
 439:modbusRTU.c   ****         } 
 1280              		.loc 1 439 0
 1281 0040 6F78     		ldrb	r7, [r5, #1]
 435:modbusRTU.c   ****                 /* OR with lo_byte           */
 1282              		.loc 1 435 0
 1283 0042 2402     		lsls	r4, r4, #8
 1284              	.LVL103:
 439:modbusRTU.c   ****         } 
 1285              		.loc 1 439 0
 1286 0044 3C43     		orrs	r4, r7
 1287              	.LVL104:
 1288 0046 10C3     		stmia	r3!, {r4}
 433:modbusRTU.c   ****                 /* shift reg hi_byte to temp */
 1289              		.loc 1 433 0
 1290 0048 5479     		ldrb	r4, [r2, #5]
 1291              	.LVL105:
 1292 004a 0136     		adds	r6, r6, #1
 1293              	.LVL106:
 1294 004c 0235     		adds	r5, r5, #2
 1295 004e A642     		cmp	r6, r4
 1296 0050 F5D3     		bcc	.L141
 1297              	.LVL107:
 1298              	.LBE76:
 1299              	.LBE78:
 1300              	.LBB79:
 1301              	.LBB80:
 1302              	.LBB81:
 1303              	.LBB82:
 1304              	.LBB83:
 1305              	.LBB84:
 151:modbusRTU.c   **** 
 1306              		.loc 1 151 0
 1307 0052 4746     		mov	r7, r8
 1308 0054 B74B     		ldr	r3, .L306+4
 157:modbusRTU.c   ****                 }
 1309              		.loc 1 157 0
 1310 0056 B84A     		ldr	r2, .L306+8
 1311              	.LVL108:
 151:modbusRTU.c   **** 
 1312              		.loc 1 151 0
 1313 0058 5F40     		eors	r7, r3
 155:modbusRTU.c   ****                         if (flag)
 1314              		.loc 1 155 0
 1315 005a 7B08     		lsrs	r3, r7, #1
 157:modbusRTU.c   ****                 }
 1316              		.loc 1 157 0
 1317 005c 5A40     		eors	r2, r3
 1318 005e FC07     		lsls	r4, r7, #31
 1319 0060 00D5     		bpl	.LCB1332
 1320 0062 A3E2     		b	.L258	@long jump
 1321              	.LCB1332:
ARM GAS  C:\Users\AFDHAL~1\AppData\Local\Temp\ccKZJoZj.s 			page 35


 1322 0064 B44C     		ldr	r4, .L306+8
 155:modbusRTU.c   ****                         if (flag)
 1323              		.loc 1 155 0
 1324 0066 5A08     		lsrs	r2, r3, #1
 157:modbusRTU.c   ****                 }
 1325              		.loc 1 157 0
 1326 0068 5440     		eors	r4, r2
 1327 006a DB07     		lsls	r3, r3, #31
 1328 006c 00D5     		bpl	.LCB1339
 1329 006e 95E2     		b	.L259	@long jump
 1330              	.LCB1339:
 1331              	.L145:
 1332 0070 B14C     		ldr	r4, .L306+8
 155:modbusRTU.c   ****                         if (flag)
 1333              		.loc 1 155 0
 1334 0072 5308     		lsrs	r3, r2, #1
 157:modbusRTU.c   ****                 }
 1335              		.loc 1 157 0
 1336 0074 5C40     		eors	r4, r3
 1337 0076 D207     		lsls	r2, r2, #31
 1338 0078 00D5     		bpl	.LCB1347
 1339 007a 87E2     		b	.L260	@long jump
 1340              	.LCB1347:
 1341              	.L147:
 1342 007c AE4C     		ldr	r4, .L306+8
 155:modbusRTU.c   ****                         if (flag)
 1343              		.loc 1 155 0
 1344 007e 5A08     		lsrs	r2, r3, #1
 157:modbusRTU.c   ****                 }
 1345              		.loc 1 157 0
 1346 0080 5440     		eors	r4, r2
 1347 0082 DB07     		lsls	r3, r3, #31
 1348 0084 00D5     		bpl	.LCB1355
 1349 0086 79E2     		b	.L261	@long jump
 1350              	.LCB1355:
 1351              	.L149:
 1352 0088 AB4C     		ldr	r4, .L306+8
 155:modbusRTU.c   ****                         if (flag)
 1353              		.loc 1 155 0
 1354 008a 5308     		lsrs	r3, r2, #1
 157:modbusRTU.c   ****                 }
 1355              		.loc 1 157 0
 1356 008c 5C40     		eors	r4, r3
 1357 008e D207     		lsls	r2, r2, #31
 1358 0090 00D5     		bpl	.LCB1363
 1359 0092 6BE2     		b	.L262	@long jump
 1360              	.LCB1363:
 1361              	.L151:
 1362 0094 A84C     		ldr	r4, .L306+8
 155:modbusRTU.c   ****                         if (flag)
 1363              		.loc 1 155 0
 1364 0096 5A08     		lsrs	r2, r3, #1
 157:modbusRTU.c   ****                 }
 1365              		.loc 1 157 0
 1366 0098 5440     		eors	r4, r2
 1367 009a DB07     		lsls	r3, r3, #31
 1368 009c 00D5     		bpl	.LCB1371
ARM GAS  C:\Users\AFDHAL~1\AppData\Local\Temp\ccKZJoZj.s 			page 36


 1369 009e 5DE2     		b	.L263	@long jump
 1370              	.LCB1371:
 1371              	.L153:
 1372 00a0 A54C     		ldr	r4, .L306+8
 155:modbusRTU.c   ****                         if (flag)
 1373              		.loc 1 155 0
 1374 00a2 5308     		lsrs	r3, r2, #1
 157:modbusRTU.c   ****                 }
 1375              		.loc 1 157 0
 1376 00a4 5C40     		eors	r4, r3
 1377 00a6 D207     		lsls	r2, r2, #31
 1378 00a8 00D5     		bpl	.LCB1379
 1379 00aa 4FE2     		b	.L264	@long jump
 1380              	.LCB1379:
 1381              	.L155:
 1382 00ac A24C     		ldr	r4, .L306+8
 155:modbusRTU.c   ****                         if (flag)
 1383              		.loc 1 155 0
 1384 00ae 5A08     		lsrs	r2, r3, #1
 157:modbusRTU.c   ****                 }
 1385              		.loc 1 157 0
 1386 00b0 5440     		eors	r4, r2
 1387 00b2 DB07     		lsls	r3, r3, #31
 1388 00b4 00D5     		bpl	.LCB1387
 1389 00b6 3FE2     		b	.L265	@long jump
 1390              	.LCB1387:
 1391              	.L157:
 1392              	.LVL109:
 151:modbusRTU.c   **** 
 1393              		.loc 1 151 0
 1394 00b8 1023     		movs	r3, #16
 157:modbusRTU.c   ****                 }
 1395              		.loc 1 157 0
 1396 00ba 9F4C     		ldr	r4, .L306+8
 151:modbusRTU.c   **** 
 1397              		.loc 1 151 0
 1398 00bc 5340     		eors	r3, r2
 1399              	.LVL110:
 155:modbusRTU.c   ****                         if (flag)
 1400              		.loc 1 155 0
 1401 00be 5A08     		lsrs	r2, r3, #1
 157:modbusRTU.c   ****                 }
 1402              		.loc 1 157 0
 1403 00c0 5440     		eors	r4, r2
 1404 00c2 DB07     		lsls	r3, r3, #31
 1405 00c4 00D5     		bpl	.LCB1399
 1406 00c6 2FE2     		b	.L266	@long jump
 1407              	.LCB1399:
 1408              	.L159:
 1409 00c8 9B4C     		ldr	r4, .L306+8
 155:modbusRTU.c   ****                         if (flag)
 1410              		.loc 1 155 0
 1411 00ca 5308     		lsrs	r3, r2, #1
 157:modbusRTU.c   ****                 }
 1412              		.loc 1 157 0
 1413 00cc 5C40     		eors	r4, r3
 1414 00ce D207     		lsls	r2, r2, #31
ARM GAS  C:\Users\AFDHAL~1\AppData\Local\Temp\ccKZJoZj.s 			page 37


 1415 00d0 00D5     		bpl	.LCB1407
 1416 00d2 21E2     		b	.L267	@long jump
 1417              	.LCB1407:
 1418              	.L161:
 1419 00d4 984C     		ldr	r4, .L306+8
 155:modbusRTU.c   ****                         if (flag)
 1420              		.loc 1 155 0
 1421 00d6 5A08     		lsrs	r2, r3, #1
 157:modbusRTU.c   ****                 }
 1422              		.loc 1 157 0
 1423 00d8 5440     		eors	r4, r2
 1424 00da DB07     		lsls	r3, r3, #31
 1425 00dc 00D5     		bpl	.LCB1415
 1426 00de 13E2     		b	.L268	@long jump
 1427              	.LCB1415:
 1428              	.L163:
 1429 00e0 954C     		ldr	r4, .L306+8
 155:modbusRTU.c   ****                         if (flag)
 1430              		.loc 1 155 0
 1431 00e2 5308     		lsrs	r3, r2, #1
 157:modbusRTU.c   ****                 }
 1432              		.loc 1 157 0
 1433 00e4 5C40     		eors	r4, r3
 1434 00e6 D207     		lsls	r2, r2, #31
 1435 00e8 00D5     		bpl	.LCB1423
 1436 00ea 05E2     		b	.L269	@long jump
 1437              	.LCB1423:
 1438              	.L165:
 1439 00ec 924C     		ldr	r4, .L306+8
 155:modbusRTU.c   ****                         if (flag)
 1440              		.loc 1 155 0
 1441 00ee 5A08     		lsrs	r2, r3, #1
 157:modbusRTU.c   ****                 }
 1442              		.loc 1 157 0
 1443 00f0 5440     		eors	r4, r2
 1444 00f2 DB07     		lsls	r3, r3, #31
 1445 00f4 00D5     		bpl	.LCB1431
 1446 00f6 F7E1     		b	.L270	@long jump
 1447              	.LCB1431:
 1448              	.L167:
 1449 00f8 8F4C     		ldr	r4, .L306+8
 155:modbusRTU.c   ****                         if (flag)
 1450              		.loc 1 155 0
 1451 00fa 5308     		lsrs	r3, r2, #1
 157:modbusRTU.c   ****                 }
 1452              		.loc 1 157 0
 1453 00fc 5C40     		eors	r4, r3
 1454 00fe D207     		lsls	r2, r2, #31
 1455 0100 00D5     		bpl	.LCB1439
 1456 0102 E9E1     		b	.L271	@long jump
 1457              	.LCB1439:
 1458              	.L169:
 1459 0104 8C4C     		ldr	r4, .L306+8
 155:modbusRTU.c   ****                         if (flag)
 1460              		.loc 1 155 0
 1461 0106 5A08     		lsrs	r2, r3, #1
 157:modbusRTU.c   ****                 }
ARM GAS  C:\Users\AFDHAL~1\AppData\Local\Temp\ccKZJoZj.s 			page 38


 1462              		.loc 1 157 0
 1463 0108 5440     		eors	r4, r2
 1464 010a DB07     		lsls	r3, r3, #31
 1465 010c 00D5     		bpl	.LCB1447
 1466 010e DBE1     		b	.L272	@long jump
 1467              	.LCB1447:
 1468              	.L171:
 1469 0110 894C     		ldr	r4, .L306+8
 155:modbusRTU.c   ****                         if (flag)
 1470              		.loc 1 155 0
 1471 0112 5308     		lsrs	r3, r2, #1
 157:modbusRTU.c   ****                 }
 1472              		.loc 1 157 0
 1473 0114 5C40     		eors	r4, r3
 1474 0116 D207     		lsls	r2, r2, #31
 1475 0118 00D5     		bpl	.LCB1455
 1476 011a D3E1     		b	.L273	@long jump
 1477              	.LCB1455:
 1478              	.L173:
 1479              	.LVL111:
 1480 011c 6446     		mov	r4, ip
 1481 011e FF22     		movs	r2, #255
 1482 0120 2240     		ands	r2, r4
 151:modbusRTU.c   **** 
 1483              		.loc 1 151 0
 1484 0122 5340     		eors	r3, r2
 1485              	.LVL112:
 157:modbusRTU.c   ****                 }
 1486              		.loc 1 157 0
 1487 0124 844A     		ldr	r2, .L306+8
 155:modbusRTU.c   ****                         if (flag)
 1488              		.loc 1 155 0
 1489 0126 5C08     		lsrs	r4, r3, #1
 157:modbusRTU.c   ****                 }
 1490              		.loc 1 157 0
 1491 0128 6240     		eors	r2, r4
 1492 012a DB07     		lsls	r3, r3, #31
 1493 012c 00D4     		bmi	.LCB1469
 1494 012e C1E1     		b	.L274	@long jump
 1495              	.LCB1469:
 1496 0130 814B     		ldr	r3, .L306+8
 155:modbusRTU.c   ****                         if (flag)
 1497              		.loc 1 155 0
 1498 0132 5408     		lsrs	r4, r2, #1
 157:modbusRTU.c   ****                 }
 1499              		.loc 1 157 0
 1500 0134 6340     		eors	r3, r4
 1501 0136 D207     		lsls	r2, r2, #31
 1502 0138 00D4     		bmi	.LCB1476
 1503 013a B3E1     		b	.L275	@long jump
 1504              	.LCB1476:
 1505              	.L177:
 1506 013c 7E4A     		ldr	r2, .L306+8
 155:modbusRTU.c   ****                         if (flag)
 1507              		.loc 1 155 0
 1508 013e 5C08     		lsrs	r4, r3, #1
 157:modbusRTU.c   ****                 }
ARM GAS  C:\Users\AFDHAL~1\AppData\Local\Temp\ccKZJoZj.s 			page 39


 1509              		.loc 1 157 0
 1510 0140 6240     		eors	r2, r4
 1511 0142 DB07     		lsls	r3, r3, #31
 1512 0144 00D4     		bmi	.LCB1484
 1513 0146 A5E1     		b	.L276	@long jump
 1514              	.LCB1484:
 1515              	.L179:
 1516 0148 7B4B     		ldr	r3, .L306+8
 155:modbusRTU.c   ****                         if (flag)
 1517              		.loc 1 155 0
 1518 014a 5408     		lsrs	r4, r2, #1
 157:modbusRTU.c   ****                 }
 1519              		.loc 1 157 0
 1520 014c 6340     		eors	r3, r4
 1521 014e D207     		lsls	r2, r2, #31
 1522 0150 00D4     		bmi	.LCB1492
 1523 0152 97E1     		b	.L277	@long jump
 1524              	.LCB1492:
 1525              	.L181:
 1526 0154 784A     		ldr	r2, .L306+8
 155:modbusRTU.c   ****                         if (flag)
 1527              		.loc 1 155 0
 1528 0156 5C08     		lsrs	r4, r3, #1
 157:modbusRTU.c   ****                 }
 1529              		.loc 1 157 0
 1530 0158 6240     		eors	r2, r4
 1531 015a DB07     		lsls	r3, r3, #31
 1532 015c 00D4     		bmi	.LCB1500
 1533 015e 89E1     		b	.L278	@long jump
 1534              	.LCB1500:
 1535              	.L183:
 1536 0160 754B     		ldr	r3, .L306+8
 155:modbusRTU.c   ****                         if (flag)
 1537              		.loc 1 155 0
 1538 0162 5408     		lsrs	r4, r2, #1
 157:modbusRTU.c   ****                 }
 1539              		.loc 1 157 0
 1540 0164 6340     		eors	r3, r4
 1541 0166 D207     		lsls	r2, r2, #31
 1542 0168 00D4     		bmi	.LCB1508
 1543 016a 7BE1     		b	.L279	@long jump
 1544              	.LCB1508:
 1545              	.L185:
 1546 016c 724A     		ldr	r2, .L306+8
 155:modbusRTU.c   ****                         if (flag)
 1547              		.loc 1 155 0
 1548 016e 5C08     		lsrs	r4, r3, #1
 157:modbusRTU.c   ****                 }
 1549              		.loc 1 157 0
 1550 0170 6240     		eors	r2, r4
 1551 0172 DB07     		lsls	r3, r3, #31
 1552 0174 00D4     		bmi	.LCB1516
 1553 0176 6DE1     		b	.L280	@long jump
 1554              	.LCB1516:
 1555              	.L187:
 1556 0178 6F4B     		ldr	r3, .L306+8
 155:modbusRTU.c   ****                         if (flag)
ARM GAS  C:\Users\AFDHAL~1\AppData\Local\Temp\ccKZJoZj.s 			page 40


 1557              		.loc 1 155 0
 1558 017a 5408     		lsrs	r4, r2, #1
 157:modbusRTU.c   ****                 }
 1559              		.loc 1 157 0
 1560 017c 6340     		eors	r3, r4
 1561 017e D207     		lsls	r2, r2, #31
 1562 0180 00D4     		bmi	.LCB1524
 1563 0182 5CE1     		b	.L281	@long jump
 1564              	.LCB1524:
 1565              	.L189:
 1566              	.LVL113:
 1567 0184 FF22     		movs	r2, #255
 1568 0186 1040     		ands	r0, r2
 1569              	.LVL114:
 151:modbusRTU.c   **** 
 1570              		.loc 1 151 0
 1571 0188 5840     		eors	r0, r3
 1572              	.LVL115:
 157:modbusRTU.c   ****                 }
 1573              		.loc 1 157 0
 1574 018a 6B4A     		ldr	r2, .L306+8
 155:modbusRTU.c   ****                         if (flag)
 1575              		.loc 1 155 0
 1576 018c 4308     		lsrs	r3, r0, #1
 157:modbusRTU.c   ****                 }
 1577              		.loc 1 157 0
 1578 018e 5A40     		eors	r2, r3
 1579 0190 C007     		lsls	r0, r0, #31
 1580 0192 00D4     		bmi	.LCB1539
 1581 0194 4BE1     		b	.L282	@long jump
 1582              	.LCB1539:
 1583              	.L191:
 1584 0196 684B     		ldr	r3, .L306+8
 155:modbusRTU.c   ****                         if (flag)
 1585              		.loc 1 155 0
 1586 0198 5008     		lsrs	r0, r2, #1
 157:modbusRTU.c   ****                 }
 1587              		.loc 1 157 0
 1588 019a 4340     		eors	r3, r0
 1589 019c D207     		lsls	r2, r2, #31
 1590 019e 00D4     		bmi	.LCB1549
 1591 01a0 3DE1     		b	.L283	@long jump
 1592              	.LCB1549:
 1593              	.L193:
 1594 01a2 654A     		ldr	r2, .L306+8
 155:modbusRTU.c   ****                         if (flag)
 1595              		.loc 1 155 0
 1596 01a4 5808     		lsrs	r0, r3, #1
 157:modbusRTU.c   ****                 }
 1597              		.loc 1 157 0
 1598 01a6 4240     		eors	r2, r0
 1599 01a8 DB07     		lsls	r3, r3, #31
 1600 01aa 00D4     		bmi	.LCB1557
 1601 01ac 2FE1     		b	.L284	@long jump
 1602              	.LCB1557:
 1603              	.L195:
 1604 01ae 624B     		ldr	r3, .L306+8
ARM GAS  C:\Users\AFDHAL~1\AppData\Local\Temp\ccKZJoZj.s 			page 41


 155:modbusRTU.c   ****                         if (flag)
 1605              		.loc 1 155 0
 1606 01b0 5008     		lsrs	r0, r2, #1
 157:modbusRTU.c   ****                 }
 1607              		.loc 1 157 0
 1608 01b2 4340     		eors	r3, r0
 1609 01b4 D207     		lsls	r2, r2, #31
 1610 01b6 00D4     		bmi	.LCB1565
 1611 01b8 21E1     		b	.L285	@long jump
 1612              	.LCB1565:
 1613              	.L197:
 1614 01ba 5F4A     		ldr	r2, .L306+8
 155:modbusRTU.c   ****                         if (flag)
 1615              		.loc 1 155 0
 1616 01bc 5808     		lsrs	r0, r3, #1
 157:modbusRTU.c   ****                 }
 1617              		.loc 1 157 0
 1618 01be 4240     		eors	r2, r0
 1619 01c0 DB07     		lsls	r3, r3, #31
 1620 01c2 00D4     		bmi	.LCB1573
 1621 01c4 13E1     		b	.L286	@long jump
 1622              	.LCB1573:
 1623              	.L199:
 1624 01c6 5C4B     		ldr	r3, .L306+8
 155:modbusRTU.c   ****                         if (flag)
 1625              		.loc 1 155 0
 1626 01c8 5008     		lsrs	r0, r2, #1
 157:modbusRTU.c   ****                 }
 1627              		.loc 1 157 0
 1628 01ca 4340     		eors	r3, r0
 1629 01cc D207     		lsls	r2, r2, #31
 1630 01ce 00D4     		bmi	.LCB1581
 1631 01d0 05E1     		b	.L287	@long jump
 1632              	.LCB1581:
 1633              	.L201:
 1634 01d2 594A     		ldr	r2, .L306+8
 155:modbusRTU.c   ****                         if (flag)
 1635              		.loc 1 155 0
 1636 01d4 5808     		lsrs	r0, r3, #1
 157:modbusRTU.c   ****                 }
 1637              		.loc 1 157 0
 1638 01d6 4240     		eors	r2, r0
 1639 01d8 DB07     		lsls	r3, r3, #31
 1640 01da 00D4     		bmi	.LCB1589
 1641 01dc F7E0     		b	.L288	@long jump
 1642              	.LCB1589:
 1643              	.L203:
 1644 01de 564B     		ldr	r3, .L306+8
 155:modbusRTU.c   ****                         if (flag)
 1645              		.loc 1 155 0
 1646 01e0 5008     		lsrs	r0, r2, #1
 157:modbusRTU.c   ****                 }
 1647              		.loc 1 157 0
 1648 01e2 4340     		eors	r3, r0
 1649 01e4 D207     		lsls	r2, r2, #31
 1650 01e6 00D4     		bmi	.LCB1597
 1651 01e8 E9E0     		b	.L289	@long jump
ARM GAS  C:\Users\AFDHAL~1\AppData\Local\Temp\ccKZJoZj.s 			page 42


 1652              	.LCB1597:
 1653              	.L205:
 1654 01ea 534A     		ldr	r2, .L306+8
 155:modbusRTU.c   ****                         if (flag)
 1655              		.loc 1 155 0
 1656 01ec 5808     		lsrs	r0, r3, #1
 157:modbusRTU.c   ****                 }
 1657              		.loc 1 157 0
 1658 01ee 4240     		eors	r2, r0
 1659 01f0 DB07     		lsls	r3, r3, #31
 1660 01f2 00D4     		bmi	.LCB1605
 1661 01f4 DBE0     		b	.L290	@long jump
 1662              	.LCB1605:
 1663              	.L207:
 1664 01f6 504B     		ldr	r3, .L306+8
 155:modbusRTU.c   ****                         if (flag)
 1665              		.loc 1 155 0
 1666 01f8 5008     		lsrs	r0, r2, #1
 157:modbusRTU.c   ****                 }
 1667              		.loc 1 157 0
 1668 01fa 4340     		eors	r3, r0
 1669 01fc D207     		lsls	r2, r2, #31
 1670 01fe 00D4     		bmi	.LCB1613
 1671 0200 CDE0     		b	.L291	@long jump
 1672              	.LCB1613:
 1673              	.L209:
 1674 0202 4D4A     		ldr	r2, .L306+8
 155:modbusRTU.c   ****                         if (flag)
 1675              		.loc 1 155 0
 1676 0204 5808     		lsrs	r0, r3, #1
 157:modbusRTU.c   ****                 }
 1677              		.loc 1 157 0
 1678 0206 4240     		eors	r2, r0
 1679 0208 DB07     		lsls	r3, r3, #31
 1680 020a 00D4     		bmi	.LCB1621
 1681 020c BFE0     		b	.L292	@long jump
 1682              	.LCB1621:
 1683              	.L211:
 1684 020e 4A4B     		ldr	r3, .L306+8
 155:modbusRTU.c   ****                         if (flag)
 1685              		.loc 1 155 0
 1686 0210 5008     		lsrs	r0, r2, #1
 157:modbusRTU.c   ****                 }
 1687              		.loc 1 157 0
 1688 0212 4340     		eors	r3, r0
 1689 0214 D207     		lsls	r2, r2, #31
 1690 0216 00D4     		bmi	.LCB1629
 1691 0218 B1E0     		b	.L293	@long jump
 1692              	.LCB1629:
 1693              	.L213:
 1694 021a 474A     		ldr	r2, .L306+8
 155:modbusRTU.c   ****                         if (flag)
 1695              		.loc 1 155 0
 1696 021c 5808     		lsrs	r0, r3, #1
 157:modbusRTU.c   ****                 }
 1697              		.loc 1 157 0
 1698 021e 4240     		eors	r2, r0
ARM GAS  C:\Users\AFDHAL~1\AppData\Local\Temp\ccKZJoZj.s 			page 43


 1699 0220 DB07     		lsls	r3, r3, #31
 1700 0222 00D4     		bmi	.LCB1637
 1701 0224 A3E0     		b	.L294	@long jump
 1702              	.LCB1637:
 1703              	.L215:
 1704 0226 444B     		ldr	r3, .L306+8
 155:modbusRTU.c   ****                         if (flag)
 1705              		.loc 1 155 0
 1706 0228 5008     		lsrs	r0, r2, #1
 157:modbusRTU.c   ****                 }
 1707              		.loc 1 157 0
 1708 022a 4340     		eors	r3, r0
 1709 022c D207     		lsls	r2, r2, #31
 1710 022e 00D4     		bmi	.LCB1645
 1711 0230 95E0     		b	.L295	@long jump
 1712              	.LCB1645:
 1713              	.L217:
 1714 0232 414A     		ldr	r2, .L306+8
 155:modbusRTU.c   ****                         if (flag)
 1715              		.loc 1 155 0
 1716 0234 5808     		lsrs	r0, r3, #1
 157:modbusRTU.c   ****                 }
 1717              		.loc 1 157 0
 1718 0236 4240     		eors	r2, r0
 1719 0238 DB07     		lsls	r3, r3, #31
 1720 023a 00D4     		bmi	.LCB1653
 1721 023c 87E0     		b	.L296	@long jump
 1722              	.LCB1653:
 1723              	.L219:
 1724 023e 3E4B     		ldr	r3, .L306+8
 155:modbusRTU.c   ****                         if (flag)
 1725              		.loc 1 155 0
 1726 0240 5008     		lsrs	r0, r2, #1
 157:modbusRTU.c   ****                 }
 1727              		.loc 1 157 0
 1728 0242 4340     		eors	r3, r0
 1729 0244 D207     		lsls	r2, r2, #31
 1730 0246 00D4     		bmi	.LCB1661
 1731 0248 78E0     		b	.L297	@long jump
 1732              	.LCB1661:
 1733              	.L221:
 1734              	.LVL116:
 151:modbusRTU.c   **** 
 1735              		.loc 1 151 0
 1736 024a 5940     		eors	r1, r3
 1737              	.LVL117:
 157:modbusRTU.c   ****                 }
 1738              		.loc 1 157 0
 1739 024c 3A4A     		ldr	r2, .L306+8
 155:modbusRTU.c   ****                         if (flag)
 1740              		.loc 1 155 0
 1741 024e 4B08     		lsrs	r3, r1, #1
 157:modbusRTU.c   ****                 }
 1742              		.loc 1 157 0
 1743 0250 5A40     		eors	r2, r3
 1744 0252 C907     		lsls	r1, r1, #31
 1745 0254 64D5     		bpl	.L298
ARM GAS  C:\Users\AFDHAL~1\AppData\Local\Temp\ccKZJoZj.s 			page 44


 1746              	.L223:
 1747 0256 384B     		ldr	r3, .L306+8
 155:modbusRTU.c   ****                         if (flag)
 1748              		.loc 1 155 0
 1749 0258 5108     		lsrs	r1, r2, #1
 157:modbusRTU.c   ****                 }
 1750              		.loc 1 157 0
 1751 025a 4B40     		eors	r3, r1
 1752 025c D207     		lsls	r2, r2, #31
 1753 025e 58D5     		bpl	.L299
 1754              	.L225:
 1755 0260 354A     		ldr	r2, .L306+8
 155:modbusRTU.c   ****                         if (flag)
 1756              		.loc 1 155 0
 1757 0262 5908     		lsrs	r1, r3, #1
 157:modbusRTU.c   ****                 }
 1758              		.loc 1 157 0
 1759 0264 4A40     		eors	r2, r1
 1760 0266 DB07     		lsls	r3, r3, #31
 1761 0268 4CD5     		bpl	.L300
 1762              	.L227:
 1763 026a 334B     		ldr	r3, .L306+8
 155:modbusRTU.c   ****                         if (flag)
 1764              		.loc 1 155 0
 1765 026c 5108     		lsrs	r1, r2, #1
 157:modbusRTU.c   ****                 }
 1766              		.loc 1 157 0
 1767 026e 4B40     		eors	r3, r1
 1768 0270 D207     		lsls	r2, r2, #31
 1769 0272 40D5     		bpl	.L301
 1770              	.L229:
 1771 0274 304A     		ldr	r2, .L306+8
 155:modbusRTU.c   ****                         if (flag)
 1772              		.loc 1 155 0
 1773 0276 5908     		lsrs	r1, r3, #1
 157:modbusRTU.c   ****                 }
 1774              		.loc 1 157 0
 1775 0278 4A40     		eors	r2, r1
 1776 027a DB07     		lsls	r3, r3, #31
 1777 027c 34D5     		bpl	.L302
 1778              	.L231:
 1779 027e 2E4B     		ldr	r3, .L306+8
 155:modbusRTU.c   ****                         if (flag)
 1780              		.loc 1 155 0
 1781 0280 5108     		lsrs	r1, r2, #1
 157:modbusRTU.c   ****                 }
 1782              		.loc 1 157 0
 1783 0282 4B40     		eors	r3, r1
 1784 0284 D207     		lsls	r2, r2, #31
 1785 0286 28D5     		bpl	.L303
 1786              	.L233:
 1787 0288 2B4A     		ldr	r2, .L306+8
 155:modbusRTU.c   ****                         if (flag)
 1788              		.loc 1 155 0
 1789 028a 5908     		lsrs	r1, r3, #1
 157:modbusRTU.c   ****                 }
 1790              		.loc 1 157 0
ARM GAS  C:\Users\AFDHAL~1\AppData\Local\Temp\ccKZJoZj.s 			page 45


 1791 028c 4A40     		eors	r2, r1
 1792 028e DB07     		lsls	r3, r3, #31
 1793 0290 1CD5     		bpl	.L304
 1794              	.L235:
 1795 0292 294B     		ldr	r3, .L306+8
 155:modbusRTU.c   ****                         if (flag)
 1796              		.loc 1 155 0
 1797 0294 5108     		lsrs	r1, r2, #1
 157:modbusRTU.c   ****                 }
 1798              		.loc 1 157 0
 1799 0296 4B40     		eors	r3, r1
 1800 0298 D207     		lsls	r2, r2, #31
 1801 029a 15D5     		bpl	.L305
 1802              	.L237:
 1803              	.LVL118:
 1804              	.LBE84:
 1805              	.LBE83:
 247:modbusRTU.c   ****         string_length++;
 1806              		.loc 1 247 0
 1807 029c 6946     		mov	r1, sp
 249:modbusRTU.c   **** } 
 1808              		.loc 1 249 0
 1809 029e 0024     		movs	r4, #0
 1810              	.LBB87:
 1811              	.LBB85:
 162:modbusRTU.c   ****         temp = (temp << 8) | temp2;
 1812              		.loc 1 162 0
 1813 02a0 1A0A     		lsrs	r2, r3, #8
 1814              	.LVL119:
 163:modbusRTU.c   ****         temp &= 0xFFFF;
 1815              		.loc 1 163 0
 1816 02a2 1B02     		lsls	r3, r3, #8
 1817              	.LVL120:
 1818 02a4 1343     		orrs	r3, r2
 1819              	.LVL121:
 164:modbusRTU.c   **** 
 1820              		.loc 1 164 0
 1821 02a6 1B04     		lsls	r3, r3, #16
 1822              	.LVL122:
 1823 02a8 1B0C     		lsrs	r3, r3, #16
 1824              	.LVL123:
 1825              	.LBE85:
 1826              	.LBE87:
 247:modbusRTU.c   ****         string_length++;
 1827              		.loc 1 247 0
 1828 02aa 1A12     		asrs	r2, r3, #8
 1829 02ac 8A71     		strb	r2, [r1, #6]
 1830              	.LVL124:
 249:modbusRTU.c   **** } 
 1831              		.loc 1 249 0
 1832 02ae CB71     		strb	r3, [r1, #7]
 1833              	.LVL125:
 1834              	.L238:
 1835              	.LBE82:
 1836              	.LBE81:
 272:modbusRTU.c   ****         }
 1837              		.loc 1 272 0
ARM GAS  C:\Users\AFDHAL~1\AppData\Local\Temp\ccKZJoZj.s 			page 46


 1838 02b0 6B46     		mov	r3, sp
 1839 02b2 185D     		ldrb	r0, [r3, r4]
 1840 02b4 0134     		adds	r4, r4, #1
 1841              	.LVL126:
 1842 02b6 FFF7FEFF 		bl	USB_UART_SpiUartWriteTxData
 1843              	.LVL127:
 270:modbusRTU.c   ****                 //Serial.print(char(query[i]));
 1844              		.loc 1 270 0
 1845 02ba 082C     		cmp	r4, #8
 1846 02bc F8D1     		bne	.L238
 1847              	.LBE80:
 1848              	.LBE79:
 458:modbusRTU.c   ****         unsigned char function = FC_WRITE_REGS;	/* Preset Multiple Registers */
 459:modbusRTU.c   ****         int status = 0;
 460:modbusRTU.c   ****         unsigned char packet[RESPONSE_SIZE + CHECKSUM_SIZE];
 461:modbusRTU.c   **** 
 462:modbusRTU.c   ****         build_write_packet(function, start_addr, count, packet);
 463:modbusRTU.c   **** 
 464:modbusRTU.c   ****         if (write_regs(start_addr, query, regs)) {
 465:modbusRTU.c   ****                 status = send_reply(packet, RESPONSE_SIZE);
 1849              		.loc 1 465 0
 1850 02be 0820     		movs	r0, #8
 1851              	.LVL128:
 1852              	.L140:
 466:modbusRTU.c   ****         }
 467:modbusRTU.c   **** 
 468:modbusRTU.c   ****         return (status);
 469:modbusRTU.c   **** }
 1853              		.loc 1 469 0
 1854 02c0 02B0     		add	sp, sp, #8
 1855              	.LVL129:
 1856              		@ sp needed
 1857 02c2 04BC     		pop	{r2}
 1858 02c4 9046     		mov	r8, r2
 1859 02c6 F0BD     		pop	{r4, r5, r6, r7, pc}
 1860              	.LVL130:
 1861              	.L305:
 1862 02c8 0B00     		movs	r3, r1
 1863 02ca E7E7     		b	.L237
 1864              	.L304:
 1865 02cc 0A00     		movs	r2, r1
 1866              	.LBB92:
 1867              	.LBB91:
 1868              	.LBB90:
 1869              	.LBB89:
 1870              	.LBB88:
 1871              	.LBB86:
 157:modbusRTU.c   ****                 }
 1872              		.loc 1 157 0
 1873 02ce 1A4B     		ldr	r3, .L306+8
 155:modbusRTU.c   ****                         if (flag)
 1874              		.loc 1 155 0
 1875 02d0 5108     		lsrs	r1, r2, #1
 157:modbusRTU.c   ****                 }
 1876              		.loc 1 157 0
 1877 02d2 4B40     		eors	r3, r1
 1878 02d4 D207     		lsls	r2, r2, #31
ARM GAS  C:\Users\AFDHAL~1\AppData\Local\Temp\ccKZJoZj.s 			page 47


 1879 02d6 E1D4     		bmi	.L237
 1880 02d8 F6E7     		b	.L305
 1881              	.L303:
 1882 02da 0B00     		movs	r3, r1
 1883 02dc 164A     		ldr	r2, .L306+8
 155:modbusRTU.c   ****                         if (flag)
 1884              		.loc 1 155 0
 1885 02de 5908     		lsrs	r1, r3, #1
 157:modbusRTU.c   ****                 }
 1886              		.loc 1 157 0
 1887 02e0 4A40     		eors	r2, r1
 1888 02e2 DB07     		lsls	r3, r3, #31
 1889 02e4 D5D4     		bmi	.L235
 1890 02e6 F1E7     		b	.L304
 1891              	.L302:
 1892 02e8 0A00     		movs	r2, r1
 1893 02ea 134B     		ldr	r3, .L306+8
 155:modbusRTU.c   ****                         if (flag)
 1894              		.loc 1 155 0
 1895 02ec 5108     		lsrs	r1, r2, #1
 157:modbusRTU.c   ****                 }
 1896              		.loc 1 157 0
 1897 02ee 4B40     		eors	r3, r1
 1898 02f0 D207     		lsls	r2, r2, #31
 1899 02f2 C9D4     		bmi	.L233
 1900 02f4 F1E7     		b	.L303
 1901              	.L301:
 1902 02f6 0B00     		movs	r3, r1
 1903 02f8 0F4A     		ldr	r2, .L306+8
 155:modbusRTU.c   ****                         if (flag)
 1904              		.loc 1 155 0
 1905 02fa 5908     		lsrs	r1, r3, #1
 157:modbusRTU.c   ****                 }
 1906              		.loc 1 157 0
 1907 02fc 4A40     		eors	r2, r1
 1908 02fe DB07     		lsls	r3, r3, #31
 1909 0300 BDD4     		bmi	.L231
 1910 0302 F1E7     		b	.L302
 1911              	.L300:
 1912 0304 0A00     		movs	r2, r1
 1913 0306 0C4B     		ldr	r3, .L306+8
 155:modbusRTU.c   ****                         if (flag)
 1914              		.loc 1 155 0
 1915 0308 5108     		lsrs	r1, r2, #1
 157:modbusRTU.c   ****                 }
 1916              		.loc 1 157 0
 1917 030a 4B40     		eors	r3, r1
 1918 030c D207     		lsls	r2, r2, #31
 1919 030e B1D4     		bmi	.L229
 1920 0310 F1E7     		b	.L301
 1921              	.L299:
 1922 0312 0B00     		movs	r3, r1
 1923 0314 084A     		ldr	r2, .L306+8
 155:modbusRTU.c   ****                         if (flag)
 1924              		.loc 1 155 0
 1925 0316 5908     		lsrs	r1, r3, #1
 157:modbusRTU.c   ****                 }
ARM GAS  C:\Users\AFDHAL~1\AppData\Local\Temp\ccKZJoZj.s 			page 48


 1926              		.loc 1 157 0
 1927 0318 4A40     		eors	r2, r1
 1928 031a DB07     		lsls	r3, r3, #31
 1929 031c A5D4     		bmi	.L227
 1930 031e F1E7     		b	.L300
 1931              	.L298:
 1932 0320 1A00     		movs	r2, r3
 1933 0322 054B     		ldr	r3, .L306+8
 155:modbusRTU.c   ****                         if (flag)
 1934              		.loc 1 155 0
 1935 0324 5108     		lsrs	r1, r2, #1
 157:modbusRTU.c   ****                 }
 1936              		.loc 1 157 0
 1937 0326 4B40     		eors	r3, r1
 1938 0328 D207     		lsls	r2, r2, #31
 1939 032a 99D4     		bmi	.L225
 1940 032c F1E7     		b	.L299
 1941              	.L307:
 1942 032e C046     		.align	2
 1943              	.L306:
 1944 0330 00000000 		.word	slave
 1945 0334 FFFF0000 		.word	65535
 1946 0338 01A00000 		.word	40961
 1947              	.LVL131:
 1948              	.L297:
 1949 033c 0300     		movs	r3, r0
 1950              	.LVL132:
 1951 033e A04A     		ldr	r2, .L308
 151:modbusRTU.c   **** 
 1952              		.loc 1 151 0
 1953 0340 5940     		eors	r1, r3
 1954              	.LVL133:
 155:modbusRTU.c   ****                         if (flag)
 1955              		.loc 1 155 0
 1956 0342 4B08     		lsrs	r3, r1, #1
 157:modbusRTU.c   ****                 }
 1957              		.loc 1 157 0
 1958 0344 5A40     		eors	r2, r3
 1959 0346 C907     		lsls	r1, r1, #31
 1960 0348 00D5     		bpl	.LCB1913
 1961 034a 84E7     		b	.L223	@long jump
 1962              	.LCB1913:
 1963 034c E8E7     		b	.L298
 1964              	.LVL134:
 1965              	.L296:
 1966 034e 0200     		movs	r2, r0
 1967 0350 9B4B     		ldr	r3, .L308
 155:modbusRTU.c   ****                         if (flag)
 1968              		.loc 1 155 0
 1969 0352 5008     		lsrs	r0, r2, #1
 157:modbusRTU.c   ****                 }
 1970              		.loc 1 157 0
 1971 0354 4340     		eors	r3, r0
 1972 0356 D207     		lsls	r2, r2, #31
 1973 0358 00D5     		bpl	.LCB1925
 1974 035a 76E7     		b	.L221	@long jump
 1975              	.LCB1925:
ARM GAS  C:\Users\AFDHAL~1\AppData\Local\Temp\ccKZJoZj.s 			page 49


 1976 035c EEE7     		b	.L297
 1977              	.L295:
 1978 035e 0300     		movs	r3, r0
 1979 0360 974A     		ldr	r2, .L308
 155:modbusRTU.c   ****                         if (flag)
 1980              		.loc 1 155 0
 1981 0362 5808     		lsrs	r0, r3, #1
 157:modbusRTU.c   ****                 }
 1982              		.loc 1 157 0
 1983 0364 4240     		eors	r2, r0
 1984 0366 DB07     		lsls	r3, r3, #31
 1985 0368 00D5     		bpl	.LCB1935
 1986 036a 68E7     		b	.L219	@long jump
 1987              	.LCB1935:
 1988 036c EFE7     		b	.L296
 1989              	.L294:
 1990 036e 0200     		movs	r2, r0
 1991 0370 934B     		ldr	r3, .L308
 155:modbusRTU.c   ****                         if (flag)
 1992              		.loc 1 155 0
 1993 0372 5008     		lsrs	r0, r2, #1
 157:modbusRTU.c   ****                 }
 1994              		.loc 1 157 0
 1995 0374 4340     		eors	r3, r0
 1996 0376 D207     		lsls	r2, r2, #31
 1997 0378 00D5     		bpl	.LCB1945
 1998 037a 5AE7     		b	.L217	@long jump
 1999              	.LCB1945:
 2000 037c EFE7     		b	.L295
 2001              	.L293:
 2002 037e 0300     		movs	r3, r0
 2003 0380 8F4A     		ldr	r2, .L308
 155:modbusRTU.c   ****                         if (flag)
 2004              		.loc 1 155 0
 2005 0382 5808     		lsrs	r0, r3, #1
 157:modbusRTU.c   ****                 }
 2006              		.loc 1 157 0
 2007 0384 4240     		eors	r2, r0
 2008 0386 DB07     		lsls	r3, r3, #31
 2009 0388 00D5     		bpl	.LCB1955
 2010 038a 4CE7     		b	.L215	@long jump
 2011              	.LCB1955:
 2012 038c EFE7     		b	.L294
 2013              	.L292:
 2014 038e 0200     		movs	r2, r0
 2015 0390 8B4B     		ldr	r3, .L308
 155:modbusRTU.c   ****                         if (flag)
 2016              		.loc 1 155 0
 2017 0392 5008     		lsrs	r0, r2, #1
 157:modbusRTU.c   ****                 }
 2018              		.loc 1 157 0
 2019 0394 4340     		eors	r3, r0
 2020 0396 D207     		lsls	r2, r2, #31
 2021 0398 00D5     		bpl	.LCB1965
 2022 039a 3EE7     		b	.L213	@long jump
 2023              	.LCB1965:
 2024 039c EFE7     		b	.L293
ARM GAS  C:\Users\AFDHAL~1\AppData\Local\Temp\ccKZJoZj.s 			page 50


 2025              	.L291:
 2026 039e 0300     		movs	r3, r0
 2027 03a0 874A     		ldr	r2, .L308
 155:modbusRTU.c   ****                         if (flag)
 2028              		.loc 1 155 0
 2029 03a2 5808     		lsrs	r0, r3, #1
 157:modbusRTU.c   ****                 }
 2030              		.loc 1 157 0
 2031 03a4 4240     		eors	r2, r0
 2032 03a6 DB07     		lsls	r3, r3, #31
 2033 03a8 00D5     		bpl	.LCB1975
 2034 03aa 30E7     		b	.L211	@long jump
 2035              	.LCB1975:
 2036 03ac EFE7     		b	.L292
 2037              	.L290:
 2038 03ae 0200     		movs	r2, r0
 2039 03b0 834B     		ldr	r3, .L308
 155:modbusRTU.c   ****                         if (flag)
 2040              		.loc 1 155 0
 2041 03b2 5008     		lsrs	r0, r2, #1
 157:modbusRTU.c   ****                 }
 2042              		.loc 1 157 0
 2043 03b4 4340     		eors	r3, r0
 2044 03b6 D207     		lsls	r2, r2, #31
 2045 03b8 00D5     		bpl	.LCB1985
 2046 03ba 22E7     		b	.L209	@long jump
 2047              	.LCB1985:
 2048 03bc EFE7     		b	.L291
 2049              	.L289:
 2050 03be 0300     		movs	r3, r0
 2051 03c0 7F4A     		ldr	r2, .L308
 155:modbusRTU.c   ****                         if (flag)
 2052              		.loc 1 155 0
 2053 03c2 5808     		lsrs	r0, r3, #1
 157:modbusRTU.c   ****                 }
 2054              		.loc 1 157 0
 2055 03c4 4240     		eors	r2, r0
 2056 03c6 DB07     		lsls	r3, r3, #31
 2057 03c8 00D5     		bpl	.LCB1995
 2058 03ca 14E7     		b	.L207	@long jump
 2059              	.LCB1995:
 2060 03cc EFE7     		b	.L290
 2061              	.L288:
 2062 03ce 0200     		movs	r2, r0
 2063 03d0 7B4B     		ldr	r3, .L308
 155:modbusRTU.c   ****                         if (flag)
 2064              		.loc 1 155 0
 2065 03d2 5008     		lsrs	r0, r2, #1
 157:modbusRTU.c   ****                 }
 2066              		.loc 1 157 0
 2067 03d4 4340     		eors	r3, r0
 2068 03d6 D207     		lsls	r2, r2, #31
 2069 03d8 00D5     		bpl	.LCB2005
 2070 03da 06E7     		b	.L205	@long jump
 2071              	.LCB2005:
 2072 03dc EFE7     		b	.L289
 2073              	.L287:
ARM GAS  C:\Users\AFDHAL~1\AppData\Local\Temp\ccKZJoZj.s 			page 51


 2074 03de 0300     		movs	r3, r0
 2075 03e0 774A     		ldr	r2, .L308
 155:modbusRTU.c   ****                         if (flag)
 2076              		.loc 1 155 0
 2077 03e2 5808     		lsrs	r0, r3, #1
 157:modbusRTU.c   ****                 }
 2078              		.loc 1 157 0
 2079 03e4 4240     		eors	r2, r0
 2080 03e6 DB07     		lsls	r3, r3, #31
 2081 03e8 00D5     		bpl	.LCB2015
 2082 03ea F8E6     		b	.L203	@long jump
 2083              	.LCB2015:
 2084 03ec EFE7     		b	.L288
 2085              	.L286:
 2086 03ee 0200     		movs	r2, r0
 2087 03f0 734B     		ldr	r3, .L308
 155:modbusRTU.c   ****                         if (flag)
 2088              		.loc 1 155 0
 2089 03f2 5008     		lsrs	r0, r2, #1
 157:modbusRTU.c   ****                 }
 2090              		.loc 1 157 0
 2091 03f4 4340     		eors	r3, r0
 2092 03f6 D207     		lsls	r2, r2, #31
 2093 03f8 00D5     		bpl	.LCB2025
 2094 03fa EAE6     		b	.L201	@long jump
 2095              	.LCB2025:
 2096 03fc EFE7     		b	.L287
 2097              	.L285:
 2098 03fe 0300     		movs	r3, r0
 2099 0400 6F4A     		ldr	r2, .L308
 155:modbusRTU.c   ****                         if (flag)
 2100              		.loc 1 155 0
 2101 0402 5808     		lsrs	r0, r3, #1
 157:modbusRTU.c   ****                 }
 2102              		.loc 1 157 0
 2103 0404 4240     		eors	r2, r0
 2104 0406 DB07     		lsls	r3, r3, #31
 2105 0408 00D5     		bpl	.LCB2035
 2106 040a DCE6     		b	.L199	@long jump
 2107              	.LCB2035:
 2108 040c EFE7     		b	.L286
 2109              	.L284:
 2110 040e 0200     		movs	r2, r0
 2111 0410 6B4B     		ldr	r3, .L308
 155:modbusRTU.c   ****                         if (flag)
 2112              		.loc 1 155 0
 2113 0412 5008     		lsrs	r0, r2, #1
 157:modbusRTU.c   ****                 }
 2114              		.loc 1 157 0
 2115 0414 4340     		eors	r3, r0
 2116 0416 D207     		lsls	r2, r2, #31
 2117 0418 00D5     		bpl	.LCB2045
 2118 041a CEE6     		b	.L197	@long jump
 2119              	.LCB2045:
 2120 041c EFE7     		b	.L285
 2121              	.L283:
 2122 041e 0300     		movs	r3, r0
ARM GAS  C:\Users\AFDHAL~1\AppData\Local\Temp\ccKZJoZj.s 			page 52


 2123 0420 674A     		ldr	r2, .L308
 155:modbusRTU.c   ****                         if (flag)
 2124              		.loc 1 155 0
 2125 0422 5808     		lsrs	r0, r3, #1
 157:modbusRTU.c   ****                 }
 2126              		.loc 1 157 0
 2127 0424 4240     		eors	r2, r0
 2128 0426 DB07     		lsls	r3, r3, #31
 2129 0428 00D5     		bpl	.LCB2055
 2130 042a C0E6     		b	.L195	@long jump
 2131              	.LCB2055:
 2132 042c EFE7     		b	.L284
 2133              	.L282:
 2134 042e 1A00     		movs	r2, r3
 2135 0430 634B     		ldr	r3, .L308
 155:modbusRTU.c   ****                         if (flag)
 2136              		.loc 1 155 0
 2137 0432 5008     		lsrs	r0, r2, #1
 157:modbusRTU.c   ****                 }
 2138              		.loc 1 157 0
 2139 0434 4340     		eors	r3, r0
 2140 0436 D207     		lsls	r2, r2, #31
 2141 0438 00D5     		bpl	.LCB2065
 2142 043a B2E6     		b	.L193	@long jump
 2143              	.LCB2065:
 2144 043c EFE7     		b	.L283
 2145              	.LVL135:
 2146              	.L281:
 2147 043e FF22     		movs	r2, #255
 2148 0440 2300     		movs	r3, r4
 2149              	.LVL136:
 2150 0442 1040     		ands	r0, r2
 2151              	.LVL137:
 151:modbusRTU.c   **** 
 2152              		.loc 1 151 0
 2153 0444 5840     		eors	r0, r3
 2154              	.LVL138:
 157:modbusRTU.c   ****                 }
 2155              		.loc 1 157 0
 2156 0446 5E4A     		ldr	r2, .L308
 155:modbusRTU.c   ****                         if (flag)
 2157              		.loc 1 155 0
 2158 0448 4308     		lsrs	r3, r0, #1
 157:modbusRTU.c   ****                 }
 2159              		.loc 1 157 0
 2160 044a 5A40     		eors	r2, r3
 2161 044c C007     		lsls	r0, r0, #31
 2162 044e 00D5     		bpl	.LCB2084
 2163 0450 A1E6     		b	.L191	@long jump
 2164              	.LCB2084:
 2165 0452 ECE7     		b	.L282
 2166              	.LVL139:
 2167              	.L280:
 2168 0454 2200     		movs	r2, r4
 2169 0456 5A4B     		ldr	r3, .L308
 155:modbusRTU.c   ****                         if (flag)
 2170              		.loc 1 155 0
ARM GAS  C:\Users\AFDHAL~1\AppData\Local\Temp\ccKZJoZj.s 			page 53


 2171 0458 5408     		lsrs	r4, r2, #1
 157:modbusRTU.c   ****                 }
 2172              		.loc 1 157 0
 2173 045a 6340     		eors	r3, r4
 2174 045c D207     		lsls	r2, r2, #31
 2175 045e 00D5     		bpl	.LCB2096
 2176 0460 90E6     		b	.L189	@long jump
 2177              	.LCB2096:
 2178 0462 ECE7     		b	.L281
 2179              	.L279:
 2180 0464 2300     		movs	r3, r4
 2181 0466 564A     		ldr	r2, .L308
 155:modbusRTU.c   ****                         if (flag)
 2182              		.loc 1 155 0
 2183 0468 5C08     		lsrs	r4, r3, #1
 157:modbusRTU.c   ****                 }
 2184              		.loc 1 157 0
 2185 046a 6240     		eors	r2, r4
 2186 046c DB07     		lsls	r3, r3, #31
 2187 046e 00D5     		bpl	.LCB2106
 2188 0470 82E6     		b	.L187	@long jump
 2189              	.LCB2106:
 2190 0472 EFE7     		b	.L280
 2191              	.L278:
 2192 0474 2200     		movs	r2, r4
 2193 0476 524B     		ldr	r3, .L308
 155:modbusRTU.c   ****                         if (flag)
 2194              		.loc 1 155 0
 2195 0478 5408     		lsrs	r4, r2, #1
 157:modbusRTU.c   ****                 }
 2196              		.loc 1 157 0
 2197 047a 6340     		eors	r3, r4
 2198 047c D207     		lsls	r2, r2, #31
 2199 047e 00D5     		bpl	.LCB2116
 2200 0480 74E6     		b	.L185	@long jump
 2201              	.LCB2116:
 2202 0482 EFE7     		b	.L279
 2203              	.L277:
 2204 0484 2300     		movs	r3, r4
 2205 0486 4E4A     		ldr	r2, .L308
 155:modbusRTU.c   ****                         if (flag)
 2206              		.loc 1 155 0
 2207 0488 5C08     		lsrs	r4, r3, #1
 157:modbusRTU.c   ****                 }
 2208              		.loc 1 157 0
 2209 048a 6240     		eors	r2, r4
 2210 048c DB07     		lsls	r3, r3, #31
 2211 048e 00D5     		bpl	.LCB2126
 2212 0490 66E6     		b	.L183	@long jump
 2213              	.LCB2126:
 2214 0492 EFE7     		b	.L278
 2215              	.L276:
 2216 0494 2200     		movs	r2, r4
 2217 0496 4A4B     		ldr	r3, .L308
 155:modbusRTU.c   ****                         if (flag)
 2218              		.loc 1 155 0
 2219 0498 5408     		lsrs	r4, r2, #1
ARM GAS  C:\Users\AFDHAL~1\AppData\Local\Temp\ccKZJoZj.s 			page 54


 157:modbusRTU.c   ****                 }
 2220              		.loc 1 157 0
 2221 049a 6340     		eors	r3, r4
 2222 049c D207     		lsls	r2, r2, #31
 2223 049e 00D5     		bpl	.LCB2136
 2224 04a0 58E6     		b	.L181	@long jump
 2225              	.LCB2136:
 2226 04a2 EFE7     		b	.L277
 2227              	.L275:
 2228 04a4 2300     		movs	r3, r4
 2229 04a6 464A     		ldr	r2, .L308
 155:modbusRTU.c   ****                         if (flag)
 2230              		.loc 1 155 0
 2231 04a8 5C08     		lsrs	r4, r3, #1
 157:modbusRTU.c   ****                 }
 2232              		.loc 1 157 0
 2233 04aa 6240     		eors	r2, r4
 2234 04ac DB07     		lsls	r3, r3, #31
 2235 04ae 00D5     		bpl	.LCB2146
 2236 04b0 4AE6     		b	.L179	@long jump
 2237              	.LCB2146:
 2238 04b2 EFE7     		b	.L276
 2239              	.L274:
 2240 04b4 2200     		movs	r2, r4
 2241 04b6 424B     		ldr	r3, .L308
 155:modbusRTU.c   ****                         if (flag)
 2242              		.loc 1 155 0
 2243 04b8 5408     		lsrs	r4, r2, #1
 157:modbusRTU.c   ****                 }
 2244              		.loc 1 157 0
 2245 04ba 6340     		eors	r3, r4
 2246 04bc D207     		lsls	r2, r2, #31
 2247 04be 00D5     		bpl	.LCB2156
 2248 04c0 3CE6     		b	.L177	@long jump
 2249              	.LCB2156:
 2250 04c2 EFE7     		b	.L275
 2251              	.L273:
 2252 04c4 2300     		movs	r3, r4
 2253 04c6 29E6     		b	.L173
 2254              	.L272:
 2255 04c8 2200     		movs	r2, r4
 2256 04ca 3D4C     		ldr	r4, .L308
 155:modbusRTU.c   ****                         if (flag)
 2257              		.loc 1 155 0
 2258 04cc 5308     		lsrs	r3, r2, #1
 157:modbusRTU.c   ****                 }
 2259              		.loc 1 157 0
 2260 04ce 5C40     		eors	r4, r3
 2261 04d0 D207     		lsls	r2, r2, #31
 2262 04d2 00D4     		bmi	.LCB2171
 2263 04d4 22E6     		b	.L173	@long jump
 2264              	.LCB2171:
 2265 04d6 F5E7     		b	.L273
 2266              	.L271:
 2267 04d8 2300     		movs	r3, r4
 2268 04da 394C     		ldr	r4, .L308
 155:modbusRTU.c   ****                         if (flag)
ARM GAS  C:\Users\AFDHAL~1\AppData\Local\Temp\ccKZJoZj.s 			page 55


 2269              		.loc 1 155 0
 2270 04dc 5A08     		lsrs	r2, r3, #1
 157:modbusRTU.c   ****                 }
 2271              		.loc 1 157 0
 2272 04de 5440     		eors	r4, r2
 2273 04e0 DB07     		lsls	r3, r3, #31
 2274 04e2 00D4     		bmi	.LCB2181
 2275 04e4 14E6     		b	.L171	@long jump
 2276              	.LCB2181:
 2277 04e6 EFE7     		b	.L272
 2278              	.L270:
 2279 04e8 2200     		movs	r2, r4
 2280 04ea 354C     		ldr	r4, .L308
 155:modbusRTU.c   ****                         if (flag)
 2281              		.loc 1 155 0
 2282 04ec 5308     		lsrs	r3, r2, #1
 157:modbusRTU.c   ****                 }
 2283              		.loc 1 157 0
 2284 04ee 5C40     		eors	r4, r3
 2285 04f0 D207     		lsls	r2, r2, #31
 2286 04f2 00D4     		bmi	.LCB2191
 2287 04f4 06E6     		b	.L169	@long jump
 2288              	.LCB2191:
 2289 04f6 EFE7     		b	.L271
 2290              	.L269:
 2291 04f8 2300     		movs	r3, r4
 2292 04fa 314C     		ldr	r4, .L308
 155:modbusRTU.c   ****                         if (flag)
 2293              		.loc 1 155 0
 2294 04fc 5A08     		lsrs	r2, r3, #1
 157:modbusRTU.c   ****                 }
 2295              		.loc 1 157 0
 2296 04fe 5440     		eors	r4, r2
 2297 0500 DB07     		lsls	r3, r3, #31
 2298 0502 00D4     		bmi	.LCB2201
 2299 0504 F8E5     		b	.L167	@long jump
 2300              	.LCB2201:
 2301 0506 EFE7     		b	.L270
 2302              	.L268:
 2303 0508 2200     		movs	r2, r4
 2304 050a 2D4C     		ldr	r4, .L308
 155:modbusRTU.c   ****                         if (flag)
 2305              		.loc 1 155 0
 2306 050c 5308     		lsrs	r3, r2, #1
 157:modbusRTU.c   ****                 }
 2307              		.loc 1 157 0
 2308 050e 5C40     		eors	r4, r3
 2309 0510 D207     		lsls	r2, r2, #31
 2310 0512 00D4     		bmi	.LCB2211
 2311 0514 EAE5     		b	.L165	@long jump
 2312              	.LCB2211:
 2313 0516 EFE7     		b	.L269
 2314              	.L267:
 2315 0518 2300     		movs	r3, r4
 2316 051a 294C     		ldr	r4, .L308
 155:modbusRTU.c   ****                         if (flag)
 2317              		.loc 1 155 0
ARM GAS  C:\Users\AFDHAL~1\AppData\Local\Temp\ccKZJoZj.s 			page 56


 2318 051c 5A08     		lsrs	r2, r3, #1
 157:modbusRTU.c   ****                 }
 2319              		.loc 1 157 0
 2320 051e 5440     		eors	r4, r2
 2321 0520 DB07     		lsls	r3, r3, #31
 2322 0522 00D4     		bmi	.LCB2221
 2323 0524 DCE5     		b	.L163	@long jump
 2324              	.LCB2221:
 2325 0526 EFE7     		b	.L268
 2326              	.L266:
 2327 0528 2200     		movs	r2, r4
 2328 052a 254C     		ldr	r4, .L308
 155:modbusRTU.c   ****                         if (flag)
 2329              		.loc 1 155 0
 2330 052c 5308     		lsrs	r3, r2, #1
 157:modbusRTU.c   ****                 }
 2331              		.loc 1 157 0
 2332 052e 5C40     		eors	r4, r3
 2333 0530 D207     		lsls	r2, r2, #31
 2334 0532 00D4     		bmi	.LCB2231
 2335 0534 CEE5     		b	.L161	@long jump
 2336              	.LCB2231:
 2337 0536 EFE7     		b	.L267
 2338              	.L265:
 2339 0538 2200     		movs	r2, r4
 2340              	.LVL140:
 151:modbusRTU.c   **** 
 2341              		.loc 1 151 0
 2342 053a 1023     		movs	r3, #16
 157:modbusRTU.c   ****                 }
 2343              		.loc 1 157 0
 2344 053c 204C     		ldr	r4, .L308
 151:modbusRTU.c   **** 
 2345              		.loc 1 151 0
 2346 053e 5340     		eors	r3, r2
 2347              	.LVL141:
 155:modbusRTU.c   ****                         if (flag)
 2348              		.loc 1 155 0
 2349 0540 5A08     		lsrs	r2, r3, #1
 157:modbusRTU.c   ****                 }
 2350              		.loc 1 157 0
 2351 0542 5440     		eors	r4, r2
 2352 0544 DB07     		lsls	r3, r3, #31
 2353 0546 00D4     		bmi	.LCB2245
 2354 0548 BEE5     		b	.L159	@long jump
 2355              	.LCB2245:
 2356 054a EDE7     		b	.L266
 2357              	.L264:
 2358 054c 2300     		movs	r3, r4
 2359 054e 1C4C     		ldr	r4, .L308
 155:modbusRTU.c   ****                         if (flag)
 2360              		.loc 1 155 0
 2361 0550 5A08     		lsrs	r2, r3, #1
 157:modbusRTU.c   ****                 }
 2362              		.loc 1 157 0
 2363 0552 5440     		eors	r4, r2
 2364 0554 DB07     		lsls	r3, r3, #31
ARM GAS  C:\Users\AFDHAL~1\AppData\Local\Temp\ccKZJoZj.s 			page 57


 2365 0556 00D4     		bmi	.LCB2255
 2366 0558 AEE5     		b	.L157	@long jump
 2367              	.LCB2255:
 2368 055a EDE7     		b	.L265
 2369              	.L263:
 2370 055c 2200     		movs	r2, r4
 2371 055e 184C     		ldr	r4, .L308
 155:modbusRTU.c   ****                         if (flag)
 2372              		.loc 1 155 0
 2373 0560 5308     		lsrs	r3, r2, #1
 157:modbusRTU.c   ****                 }
 2374              		.loc 1 157 0
 2375 0562 5C40     		eors	r4, r3
 2376 0564 D207     		lsls	r2, r2, #31
 2377 0566 00D4     		bmi	.LCB2265
 2378 0568 A0E5     		b	.L155	@long jump
 2379              	.LCB2265:
 2380 056a EFE7     		b	.L264
 2381              	.L262:
 2382 056c 2300     		movs	r3, r4
 2383 056e 144C     		ldr	r4, .L308
 155:modbusRTU.c   ****                         if (flag)
 2384              		.loc 1 155 0
 2385 0570 5A08     		lsrs	r2, r3, #1
 157:modbusRTU.c   ****                 }
 2386              		.loc 1 157 0
 2387 0572 5440     		eors	r4, r2
 2388 0574 DB07     		lsls	r3, r3, #31
 2389 0576 00D4     		bmi	.LCB2275
 2390 0578 92E5     		b	.L153	@long jump
 2391              	.LCB2275:
 2392 057a EFE7     		b	.L263
 2393              	.L261:
 2394 057c 2200     		movs	r2, r4
 2395 057e 104C     		ldr	r4, .L308
 155:modbusRTU.c   ****                         if (flag)
 2396              		.loc 1 155 0
 2397 0580 5308     		lsrs	r3, r2, #1
 157:modbusRTU.c   ****                 }
 2398              		.loc 1 157 0
 2399 0582 5C40     		eors	r4, r3
 2400 0584 D207     		lsls	r2, r2, #31
 2401 0586 00D4     		bmi	.LCB2285
 2402 0588 84E5     		b	.L151	@long jump
 2403              	.LCB2285:
 2404 058a EFE7     		b	.L262
 2405              	.L260:
 2406 058c 2300     		movs	r3, r4
 2407 058e 0C4C     		ldr	r4, .L308
 155:modbusRTU.c   ****                         if (flag)
 2408              		.loc 1 155 0
 2409 0590 5A08     		lsrs	r2, r3, #1
 157:modbusRTU.c   ****                 }
 2410              		.loc 1 157 0
 2411 0592 5440     		eors	r4, r2
 2412 0594 DB07     		lsls	r3, r3, #31
 2413 0596 00D4     		bmi	.LCB2295
ARM GAS  C:\Users\AFDHAL~1\AppData\Local\Temp\ccKZJoZj.s 			page 58


 2414 0598 76E5     		b	.L149	@long jump
 2415              	.LCB2295:
 2416 059a EFE7     		b	.L261
 2417              	.L259:
 2418 059c 2200     		movs	r2, r4
 2419 059e 084C     		ldr	r4, .L308
 155:modbusRTU.c   ****                         if (flag)
 2420              		.loc 1 155 0
 2421 05a0 5308     		lsrs	r3, r2, #1
 157:modbusRTU.c   ****                 }
 2422              		.loc 1 157 0
 2423 05a2 5C40     		eors	r4, r3
 2424 05a4 D207     		lsls	r2, r2, #31
 2425 05a6 00D4     		bmi	.LCB2305
 2426 05a8 68E5     		b	.L147	@long jump
 2427              	.LCB2305:
 2428 05aa EFE7     		b	.L260
 2429              	.L258:
 2430 05ac 1300     		movs	r3, r2
 2431 05ae 044C     		ldr	r4, .L308
 155:modbusRTU.c   ****                         if (flag)
 2432              		.loc 1 155 0
 2433 05b0 5A08     		lsrs	r2, r3, #1
 157:modbusRTU.c   ****                 }
 2434              		.loc 1 157 0
 2435 05b2 5440     		eors	r4, r2
 2436 05b4 DB07     		lsls	r3, r3, #31
 2437 05b6 00D4     		bmi	.LCB2315
 2438 05b8 5AE5     		b	.L145	@long jump
 2439              	.LCB2315:
 2440 05ba EFE7     		b	.L259
 2441              	.LVL142:
 2442              	.L239:
 2443              	.LBE86:
 2444              	.LBE88:
 2445              	.LBE89:
 2446              	.LBE90:
 2447              	.LBE91:
 2448              	.LBE92:
 459:modbusRTU.c   ****         unsigned char packet[RESPONSE_SIZE + CHECKSUM_SIZE];
 2449              		.loc 1 459 0
 2450 05bc 0020     		movs	r0, #0
 2451              	.LVL143:
 2452 05be 7FE6     		b	.L140
 2453              	.L309:
 2454              		.align	2
 2455              	.L308:
 2456 05c0 01A00000 		.word	40961
 2457              		.cfi_endproc
 2458              	.LFE45:
 2459              		.size	preset_multiple_registers, .-preset_multiple_registers
 2460              		.section	.text.write_single_register,"ax",%progbits
 2461              		.align	2
 2462              		.global	write_single_register
 2463              		.code	16
 2464              		.thumb_func
 2465              		.type	write_single_register, %function
ARM GAS  C:\Users\AFDHAL~1\AppData\Local\Temp\ccKZJoZj.s 			page 59


 2466              	write_single_register:
 2467              	.LFB46:
 470:modbusRTU.c   **** 
 471:modbusRTU.c   **** /************************************************************************
 472:modbusRTU.c   ****  * 
 473:modbusRTU.c   ****  * write_single_register(slave_id, write_addr, data_array, registers_array)
 474:modbusRTU.c   ****  * 
 475:modbusRTU.c   ****  * Write a single int val into a single holding register of the slave. 
 476:modbusRTU.c   ****  * 
 477:modbusRTU.c   ****  *************************************************************************/
 478:modbusRTU.c   **** 
 479:modbusRTU.c   **** int write_single_register(unsigned int write_addr, unsigned char *query, int *regs) 
 480:modbusRTU.c   **** {
 2468              		.loc 1 480 0
 2469              		.cfi_startproc
 2470              		@ args = 0, pretend = 0, frame = 8
 2471              		@ frame_needed = 0, uses_anonymous_args = 0
 2472              	.LVL144:
 2473 0000 70B5     		push	{r4, r5, r6, lr}
 2474              		.cfi_def_cfa_offset 16
 2475              		.cfi_offset 4, -16
 2476              		.cfi_offset 5, -12
 2477              		.cfi_offset 6, -8
 2478              		.cfi_offset 14, -4
 481:modbusRTU.c   ****         unsigned char function = FC_WRITE_REG; /* Function: Write Single Register */
 482:modbusRTU.c   ****         int status = 0;
 483:modbusRTU.c   ****         unsigned int reg_val;
 484:modbusRTU.c   ****         unsigned char packet[RESPONSE_SIZE + CHECKSUM_SIZE];
 485:modbusRTU.c   **** 
 486:modbusRTU.c   ****         reg_val = query[REGS_H] << 8 | query[REGS_L];
 2479              		.loc 1 486 0
 2480 0002 0B79     		ldrb	r3, [r1, #4]
 2481 0004 4979     		ldrb	r1, [r1, #5]
 2482              	.LVL145:
 2483 0006 1B02     		lsls	r3, r3, #8
 2484 0008 0B43     		orrs	r3, r1
 2485              	.LVL146:
 2486              	.LBB103:
 2487              	.LBB104:
 212:modbusRTU.c   ****         packet[FUNC] = function;
 2488              		.loc 1 212 0
 2489 000a A949     		ldr	r1, .L419
 2490              	.LBE104:
 2491              	.LBE103:
 480:modbusRTU.c   ****         unsigned char function = FC_WRITE_REG; /* Function: Write Single Register */
 2492              		.loc 1 480 0
 2493 000c 82B0     		sub	sp, sp, #8
 2494              		.cfi_def_cfa_offset 24
 2495              	.LVL147:
 2496              	.LBB106:
 2497              	.LBB105:
 212:modbusRTU.c   ****         packet[FUNC] = function;
 2498              		.loc 1 212 0
 2499 000e 0C78     		ldrb	r4, [r1]
 2500 0010 6946     		mov	r1, sp
 213:modbusRTU.c   ****         packet[START_H] = write_addr >> 8;
 2501              		.loc 1 213 0
ARM GAS  C:\Users\AFDHAL~1\AppData\Local\Temp\ccKZJoZj.s 			page 60


 2502 0012 6D46     		mov	r5, sp
 212:modbusRTU.c   ****         packet[FUNC] = function;
 2503              		.loc 1 212 0
 2504 0014 0C70     		strb	r4, [r1]
 213:modbusRTU.c   ****         packet[START_H] = write_addr >> 8;
 2505              		.loc 1 213 0
 2506 0016 0621     		movs	r1, #6
 216:modbusRTU.c   ****         packet[REGS_L] = reg_val & 0x00ff;
 2507              		.loc 1 216 0
 2508 0018 6E46     		mov	r6, sp
 213:modbusRTU.c   ****         packet[START_H] = write_addr >> 8;
 2509              		.loc 1 213 0
 2510 001a 6970     		strb	r1, [r5, #1]
 214:modbusRTU.c   ****         packet[START_L] = write_addr & 0x00ff;
 2511              		.loc 1 214 0
 2512 001c 010A     		lsrs	r1, r0, #8
 2513 001e A970     		strb	r1, [r5, #2]
 215:modbusRTU.c   ****         packet[REGS_H] = reg_val >> 8;
 2514              		.loc 1 215 0
 2515 0020 E870     		strb	r0, [r5, #3]
 216:modbusRTU.c   ****         packet[REGS_L] = reg_val & 0x00ff;
 2516              		.loc 1 216 0
 2517 0022 1D0A     		lsrs	r5, r3, #8
 2518 0024 3571     		strb	r5, [r6, #4]
 217:modbusRTU.c   **** } 
 2519              		.loc 1 217 0
 2520 0026 7371     		strb	r3, [r6, #5]
 2521              	.LVL148:
 2522              	.LBE105:
 2523              	.LBE106:
 487:modbusRTU.c   ****         build_write_single_packet(function, write_addr, reg_val, packet);
 488:modbusRTU.c   ****         regs[write_addr] = (int) reg_val;
 2524              		.loc 1 488 0
 2525 0028 8600     		lsls	r6, r0, #2
 2526 002a B350     		str	r3, [r6, r2]
 2527              	.LVL149:
 2528              	.LBB107:
 2529              	.LBB108:
 2530              	.LBB109:
 2531              	.LBB110:
 2532              	.LBB111:
 2533              	.LBB112:
 151:modbusRTU.c   **** 
 2534              		.loc 1 151 0
 2535 002c A14A     		ldr	r2, .L419+4
 2536              	.LVL150:
 157:modbusRTU.c   ****                 }
 2537              		.loc 1 157 0
 2538 002e A24E     		ldr	r6, .L419+8
 151:modbusRTU.c   **** 
 2539              		.loc 1 151 0
 2540 0030 5440     		eors	r4, r2
 155:modbusRTU.c   ****                         if (flag)
 2541              		.loc 1 155 0
 2542 0032 6208     		lsrs	r2, r4, #1
 157:modbusRTU.c   ****                 }
 2543              		.loc 1 157 0
ARM GAS  C:\Users\AFDHAL~1\AppData\Local\Temp\ccKZJoZj.s 			page 61


 2544 0034 5640     		eors	r6, r2
 2545 0036 E407     		lsls	r4, r4, #31
 2546 0038 00D5     		bpl	.L312
 2547 003a 3200     		movs	r2, r6
 2548              	.L312:
 2549 003c 9E4E     		ldr	r6, .L419+8
 155:modbusRTU.c   ****                         if (flag)
 2550              		.loc 1 155 0
 2551 003e 5408     		lsrs	r4, r2, #1
 157:modbusRTU.c   ****                 }
 2552              		.loc 1 157 0
 2553 0040 6640     		eors	r6, r4
 2554 0042 D207     		lsls	r2, r2, #31
 2555 0044 00D5     		bpl	.L314
 2556 0046 3400     		movs	r4, r6
 2557              	.L314:
 2558 0048 9B4E     		ldr	r6, .L419+8
 155:modbusRTU.c   ****                         if (flag)
 2559              		.loc 1 155 0
 2560 004a 6208     		lsrs	r2, r4, #1
 157:modbusRTU.c   ****                 }
 2561              		.loc 1 157 0
 2562 004c 5640     		eors	r6, r2
 2563 004e E407     		lsls	r4, r4, #31
 2564 0050 00D5     		bpl	.L316
 2565 0052 3200     		movs	r2, r6
 2566              	.L316:
 2567 0054 984E     		ldr	r6, .L419+8
 155:modbusRTU.c   ****                         if (flag)
 2568              		.loc 1 155 0
 2569 0056 5408     		lsrs	r4, r2, #1
 157:modbusRTU.c   ****                 }
 2570              		.loc 1 157 0
 2571 0058 6640     		eors	r6, r4
 2572 005a D207     		lsls	r2, r2, #31
 2573 005c 00D5     		bpl	.L318
 2574 005e 3400     		movs	r4, r6
 2575              	.L318:
 2576 0060 954E     		ldr	r6, .L419+8
 155:modbusRTU.c   ****                         if (flag)
 2577              		.loc 1 155 0
 2578 0062 6208     		lsrs	r2, r4, #1
 157:modbusRTU.c   ****                 }
 2579              		.loc 1 157 0
 2580 0064 5640     		eors	r6, r2
 2581 0066 E407     		lsls	r4, r4, #31
 2582 0068 00D5     		bpl	.L320
 2583 006a 3200     		movs	r2, r6
 2584              	.L320:
 2585 006c 924E     		ldr	r6, .L419+8
 155:modbusRTU.c   ****                         if (flag)
 2586              		.loc 1 155 0
 2587 006e 5408     		lsrs	r4, r2, #1
 157:modbusRTU.c   ****                 }
 2588              		.loc 1 157 0
 2589 0070 6640     		eors	r6, r4
 2590 0072 D207     		lsls	r2, r2, #31
ARM GAS  C:\Users\AFDHAL~1\AppData\Local\Temp\ccKZJoZj.s 			page 62


 2591 0074 00D5     		bpl	.L322
 2592 0076 3400     		movs	r4, r6
 2593              	.L322:
 2594 0078 8F4E     		ldr	r6, .L419+8
 155:modbusRTU.c   ****                         if (flag)
 2595              		.loc 1 155 0
 2596 007a 6208     		lsrs	r2, r4, #1
 157:modbusRTU.c   ****                 }
 2597              		.loc 1 157 0
 2598 007c 5640     		eors	r6, r2
 2599 007e E407     		lsls	r4, r4, #31
 2600 0080 00D5     		bpl	.L324
 2601 0082 3200     		movs	r2, r6
 2602              	.L324:
 2603 0084 8C4E     		ldr	r6, .L419+8
 155:modbusRTU.c   ****                         if (flag)
 2604              		.loc 1 155 0
 2605 0086 5408     		lsrs	r4, r2, #1
 157:modbusRTU.c   ****                 }
 2606              		.loc 1 157 0
 2607 0088 6640     		eors	r6, r4
 2608 008a D207     		lsls	r2, r2, #31
 2609 008c 00D5     		bpl	.L326
 2610 008e 3400     		movs	r4, r6
 2611              	.L326:
 2612              	.LVL151:
 151:modbusRTU.c   **** 
 2613              		.loc 1 151 0
 2614 0090 0622     		movs	r2, #6
 157:modbusRTU.c   ****                 }
 2615              		.loc 1 157 0
 2616 0092 894E     		ldr	r6, .L419+8
 151:modbusRTU.c   **** 
 2617              		.loc 1 151 0
 2618 0094 5440     		eors	r4, r2
 2619              	.LVL152:
 155:modbusRTU.c   ****                         if (flag)
 2620              		.loc 1 155 0
 2621 0096 6208     		lsrs	r2, r4, #1
 157:modbusRTU.c   ****                 }
 2622              		.loc 1 157 0
 2623 0098 5640     		eors	r6, r2
 2624 009a E407     		lsls	r4, r4, #31
 2625 009c 00D5     		bpl	.L328
 2626 009e 3200     		movs	r2, r6
 2627              	.L328:
 2628 00a0 854E     		ldr	r6, .L419+8
 155:modbusRTU.c   ****                         if (flag)
 2629              		.loc 1 155 0
 2630 00a2 5408     		lsrs	r4, r2, #1
 157:modbusRTU.c   ****                 }
 2631              		.loc 1 157 0
 2632 00a4 6640     		eors	r6, r4
 2633 00a6 D207     		lsls	r2, r2, #31
 2634 00a8 00D5     		bpl	.L330
 2635 00aa 3400     		movs	r4, r6
 2636              	.L330:
ARM GAS  C:\Users\AFDHAL~1\AppData\Local\Temp\ccKZJoZj.s 			page 63


 2637 00ac 824A     		ldr	r2, .L419+8
 155:modbusRTU.c   ****                         if (flag)
 2638              		.loc 1 155 0
 2639 00ae 6608     		lsrs	r6, r4, #1
 157:modbusRTU.c   ****                 }
 2640              		.loc 1 157 0
 2641 00b0 7240     		eors	r2, r6
 2642 00b2 E407     		lsls	r4, r4, #31
 2643 00b4 00D4     		bmi	.L332
 2644 00b6 3200     		movs	r2, r6
 2645              	.L332:
 2646 00b8 7F4C     		ldr	r4, .L419+8
 155:modbusRTU.c   ****                         if (flag)
 2647              		.loc 1 155 0
 2648 00ba 5608     		lsrs	r6, r2, #1
 157:modbusRTU.c   ****                 }
 2649              		.loc 1 157 0
 2650 00bc 7440     		eors	r4, r6
 2651 00be D207     		lsls	r2, r2, #31
 2652 00c0 00D4     		bmi	.L334
 2653 00c2 3400     		movs	r4, r6
 2654              	.L334:
 2655 00c4 7C4A     		ldr	r2, .L419+8
 155:modbusRTU.c   ****                         if (flag)
 2656              		.loc 1 155 0
 2657 00c6 6608     		lsrs	r6, r4, #1
 157:modbusRTU.c   ****                 }
 2658              		.loc 1 157 0
 2659 00c8 7240     		eors	r2, r6
 2660 00ca E407     		lsls	r4, r4, #31
 2661 00cc 00D4     		bmi	.L336
 2662 00ce 3200     		movs	r2, r6
 2663              	.L336:
 2664 00d0 794C     		ldr	r4, .L419+8
 155:modbusRTU.c   ****                         if (flag)
 2665              		.loc 1 155 0
 2666 00d2 5608     		lsrs	r6, r2, #1
 157:modbusRTU.c   ****                 }
 2667              		.loc 1 157 0
 2668 00d4 7440     		eors	r4, r6
 2669 00d6 D207     		lsls	r2, r2, #31
 2670 00d8 00D4     		bmi	.L338
 2671 00da 3400     		movs	r4, r6
 2672              	.L338:
 2673 00dc 764A     		ldr	r2, .L419+8
 155:modbusRTU.c   ****                         if (flag)
 2674              		.loc 1 155 0
 2675 00de 6608     		lsrs	r6, r4, #1
 157:modbusRTU.c   ****                 }
 2676              		.loc 1 157 0
 2677 00e0 7240     		eors	r2, r6
 2678 00e2 E407     		lsls	r4, r4, #31
 2679 00e4 00D4     		bmi	.L340
 2680 00e6 3200     		movs	r2, r6
 2681              	.L340:
 2682 00e8 734C     		ldr	r4, .L419+8
 155:modbusRTU.c   ****                         if (flag)
ARM GAS  C:\Users\AFDHAL~1\AppData\Local\Temp\ccKZJoZj.s 			page 64


 2683              		.loc 1 155 0
 2684 00ea 5608     		lsrs	r6, r2, #1
 157:modbusRTU.c   ****                 }
 2685              		.loc 1 157 0
 2686 00ec 7440     		eors	r4, r6
 2687 00ee D207     		lsls	r2, r2, #31
 2688 00f0 00D4     		bmi	.L342
 2689 00f2 3400     		movs	r4, r6
 2690              	.L342:
 2691              	.LVL153:
 2692 00f4 FF22     		movs	r2, #255
 2693 00f6 1140     		ands	r1, r2
 151:modbusRTU.c   **** 
 2694              		.loc 1 151 0
 2695 00f8 6140     		eors	r1, r4
 2696              	.LVL154:
 157:modbusRTU.c   ****                 }
 2697              		.loc 1 157 0
 2698 00fa 6F4A     		ldr	r2, .L419+8
 155:modbusRTU.c   ****                         if (flag)
 2699              		.loc 1 155 0
 2700 00fc 4C08     		lsrs	r4, r1, #1
 157:modbusRTU.c   ****                 }
 2701              		.loc 1 157 0
 2702 00fe 6240     		eors	r2, r4
 2703 0100 C907     		lsls	r1, r1, #31
 2704 0102 00D4     		bmi	.L344
 2705 0104 2200     		movs	r2, r4
 2706              	.L344:
 2707 0106 6C49     		ldr	r1, .L419+8
 155:modbusRTU.c   ****                         if (flag)
 2708              		.loc 1 155 0
 2709 0108 5408     		lsrs	r4, r2, #1
 157:modbusRTU.c   ****                 }
 2710              		.loc 1 157 0
 2711 010a 6140     		eors	r1, r4
 2712 010c D207     		lsls	r2, r2, #31
 2713 010e 00D4     		bmi	.L346
 2714 0110 2100     		movs	r1, r4
 2715              	.L346:
 2716 0112 694A     		ldr	r2, .L419+8
 155:modbusRTU.c   ****                         if (flag)
 2717              		.loc 1 155 0
 2718 0114 4C08     		lsrs	r4, r1, #1
 157:modbusRTU.c   ****                 }
 2719              		.loc 1 157 0
 2720 0116 6240     		eors	r2, r4
 2721 0118 C907     		lsls	r1, r1, #31
 2722 011a 00D4     		bmi	.L348
 2723 011c 2200     		movs	r2, r4
 2724              	.L348:
 2725 011e 6649     		ldr	r1, .L419+8
 155:modbusRTU.c   ****                         if (flag)
 2726              		.loc 1 155 0
 2727 0120 5408     		lsrs	r4, r2, #1
 157:modbusRTU.c   ****                 }
 2728              		.loc 1 157 0
ARM GAS  C:\Users\AFDHAL~1\AppData\Local\Temp\ccKZJoZj.s 			page 65


 2729 0122 6140     		eors	r1, r4
 2730 0124 D207     		lsls	r2, r2, #31
 2731 0126 00D4     		bmi	.L350
 2732 0128 2100     		movs	r1, r4
 2733              	.L350:
 2734 012a 634A     		ldr	r2, .L419+8
 155:modbusRTU.c   ****                         if (flag)
 2735              		.loc 1 155 0
 2736 012c 4C08     		lsrs	r4, r1, #1
 157:modbusRTU.c   ****                 }
 2737              		.loc 1 157 0
 2738 012e 6240     		eors	r2, r4
 2739 0130 C907     		lsls	r1, r1, #31
 2740 0132 00D4     		bmi	.L352
 2741 0134 2200     		movs	r2, r4
 2742              	.L352:
 2743 0136 6049     		ldr	r1, .L419+8
 155:modbusRTU.c   ****                         if (flag)
 2744              		.loc 1 155 0
 2745 0138 5408     		lsrs	r4, r2, #1
 157:modbusRTU.c   ****                 }
 2746              		.loc 1 157 0
 2747 013a 6140     		eors	r1, r4
 2748 013c D207     		lsls	r2, r2, #31
 2749 013e 00D4     		bmi	.L354
 2750 0140 2100     		movs	r1, r4
 2751              	.L354:
 2752 0142 5D4A     		ldr	r2, .L419+8
 155:modbusRTU.c   ****                         if (flag)
 2753              		.loc 1 155 0
 2754 0144 4C08     		lsrs	r4, r1, #1
 157:modbusRTU.c   ****                 }
 2755              		.loc 1 157 0
 2756 0146 6240     		eors	r2, r4
 2757 0148 C907     		lsls	r1, r1, #31
 2758 014a 00D4     		bmi	.L356
 2759 014c 2200     		movs	r2, r4
 2760              	.L356:
 2761 014e 5A49     		ldr	r1, .L419+8
 155:modbusRTU.c   ****                         if (flag)
 2762              		.loc 1 155 0
 2763 0150 5408     		lsrs	r4, r2, #1
 157:modbusRTU.c   ****                 }
 2764              		.loc 1 157 0
 2765 0152 6140     		eors	r1, r4
 2766 0154 D207     		lsls	r2, r2, #31
 2767 0156 00D4     		bmi	.L358
 2768 0158 2100     		movs	r1, r4
 2769              	.L358:
 2770              	.LVL155:
 2771 015a FF22     		movs	r2, #255
 2772 015c 1040     		ands	r0, r2
 2773              	.LVL156:
 151:modbusRTU.c   **** 
 2774              		.loc 1 151 0
 2775 015e 4840     		eors	r0, r1
 2776              	.LVL157:
ARM GAS  C:\Users\AFDHAL~1\AppData\Local\Temp\ccKZJoZj.s 			page 66


 157:modbusRTU.c   ****                 }
 2777              		.loc 1 157 0
 2778 0160 5549     		ldr	r1, .L419+8
 155:modbusRTU.c   ****                         if (flag)
 2779              		.loc 1 155 0
 2780 0162 4208     		lsrs	r2, r0, #1
 157:modbusRTU.c   ****                 }
 2781              		.loc 1 157 0
 2782 0164 5140     		eors	r1, r2
 2783 0166 C007     		lsls	r0, r0, #31
 2784 0168 00D4     		bmi	.L360
 2785 016a 1100     		movs	r1, r2
 2786              	.L360:
 2787 016c 524A     		ldr	r2, .L419+8
 155:modbusRTU.c   ****                         if (flag)
 2788              		.loc 1 155 0
 2789 016e 4808     		lsrs	r0, r1, #1
 157:modbusRTU.c   ****                 }
 2790              		.loc 1 157 0
 2791 0170 4240     		eors	r2, r0
 2792 0172 C907     		lsls	r1, r1, #31
 2793 0174 00D4     		bmi	.L362
 2794 0176 0200     		movs	r2, r0
 2795              	.L362:
 2796 0178 4F49     		ldr	r1, .L419+8
 155:modbusRTU.c   ****                         if (flag)
 2797              		.loc 1 155 0
 2798 017a 5008     		lsrs	r0, r2, #1
 157:modbusRTU.c   ****                 }
 2799              		.loc 1 157 0
 2800 017c 4140     		eors	r1, r0
 2801 017e D207     		lsls	r2, r2, #31
 2802 0180 00D4     		bmi	.L364
 2803 0182 0100     		movs	r1, r0
 2804              	.L364:
 2805 0184 4C4A     		ldr	r2, .L419+8
 155:modbusRTU.c   ****                         if (flag)
 2806              		.loc 1 155 0
 2807 0186 4808     		lsrs	r0, r1, #1
 157:modbusRTU.c   ****                 }
 2808              		.loc 1 157 0
 2809 0188 4240     		eors	r2, r0
 2810 018a C907     		lsls	r1, r1, #31
 2811 018c 00D4     		bmi	.L366
 2812 018e 0200     		movs	r2, r0
 2813              	.L366:
 2814 0190 4949     		ldr	r1, .L419+8
 155:modbusRTU.c   ****                         if (flag)
 2815              		.loc 1 155 0
 2816 0192 5008     		lsrs	r0, r2, #1
 157:modbusRTU.c   ****                 }
 2817              		.loc 1 157 0
 2818 0194 4140     		eors	r1, r0
 2819 0196 D207     		lsls	r2, r2, #31
 2820 0198 00D4     		bmi	.L368
 2821 019a 0100     		movs	r1, r0
 2822              	.L368:
ARM GAS  C:\Users\AFDHAL~1\AppData\Local\Temp\ccKZJoZj.s 			page 67


 2823 019c 464A     		ldr	r2, .L419+8
 155:modbusRTU.c   ****                         if (flag)
 2824              		.loc 1 155 0
 2825 019e 4808     		lsrs	r0, r1, #1
 157:modbusRTU.c   ****                 }
 2826              		.loc 1 157 0
 2827 01a0 4240     		eors	r2, r0
 2828 01a2 C907     		lsls	r1, r1, #31
 2829 01a4 00D4     		bmi	.L370
 2830 01a6 0200     		movs	r2, r0
 2831              	.L370:
 2832 01a8 4349     		ldr	r1, .L419+8
 155:modbusRTU.c   ****                         if (flag)
 2833              		.loc 1 155 0
 2834 01aa 5008     		lsrs	r0, r2, #1
 157:modbusRTU.c   ****                 }
 2835              		.loc 1 157 0
 2836 01ac 4140     		eors	r1, r0
 2837 01ae D207     		lsls	r2, r2, #31
 2838 01b0 00D4     		bmi	.L372
 2839 01b2 0100     		movs	r1, r0
 2840              	.L372:
 2841 01b4 404A     		ldr	r2, .L419+8
 155:modbusRTU.c   ****                         if (flag)
 2842              		.loc 1 155 0
 2843 01b6 4808     		lsrs	r0, r1, #1
 157:modbusRTU.c   ****                 }
 2844              		.loc 1 157 0
 2845 01b8 4240     		eors	r2, r0
 2846 01ba C907     		lsls	r1, r1, #31
 2847 01bc 00D4     		bmi	.L374
 2848 01be 0200     		movs	r2, r0
 2849              	.L374:
 2850              	.LVL158:
 151:modbusRTU.c   **** 
 2851              		.loc 1 151 0
 2852 01c0 6A40     		eors	r2, r5
 2853              	.LVL159:
 157:modbusRTU.c   ****                 }
 2854              		.loc 1 157 0
 2855 01c2 3D49     		ldr	r1, .L419+8
 155:modbusRTU.c   ****                         if (flag)
 2856              		.loc 1 155 0
 2857 01c4 5008     		lsrs	r0, r2, #1
 157:modbusRTU.c   ****                 }
 2858              		.loc 1 157 0
 2859 01c6 4140     		eors	r1, r0
 2860 01c8 D207     		lsls	r2, r2, #31
 2861 01ca 00D4     		bmi	.L376
 2862 01cc 0100     		movs	r1, r0
 2863              	.L376:
 2864 01ce 3A4A     		ldr	r2, .L419+8
 155:modbusRTU.c   ****                         if (flag)
 2865              		.loc 1 155 0
 2866 01d0 4808     		lsrs	r0, r1, #1
 157:modbusRTU.c   ****                 }
 2867              		.loc 1 157 0
ARM GAS  C:\Users\AFDHAL~1\AppData\Local\Temp\ccKZJoZj.s 			page 68


 2868 01d2 4240     		eors	r2, r0
 2869 01d4 C907     		lsls	r1, r1, #31
 2870 01d6 00D4     		bmi	.L378
 2871 01d8 0200     		movs	r2, r0
 2872              	.L378:
 2873 01da 3749     		ldr	r1, .L419+8
 155:modbusRTU.c   ****                         if (flag)
 2874              		.loc 1 155 0
 2875 01dc 5008     		lsrs	r0, r2, #1
 157:modbusRTU.c   ****                 }
 2876              		.loc 1 157 0
 2877 01de 4140     		eors	r1, r0
 2878 01e0 D207     		lsls	r2, r2, #31
 2879 01e2 00D4     		bmi	.L380
 2880 01e4 0100     		movs	r1, r0
 2881              	.L380:
 2882 01e6 344A     		ldr	r2, .L419+8
 155:modbusRTU.c   ****                         if (flag)
 2883              		.loc 1 155 0
 2884 01e8 4808     		lsrs	r0, r1, #1
 157:modbusRTU.c   ****                 }
 2885              		.loc 1 157 0
 2886 01ea 4240     		eors	r2, r0
 2887 01ec C907     		lsls	r1, r1, #31
 2888 01ee 00D4     		bmi	.L382
 2889 01f0 0200     		movs	r2, r0
 2890              	.L382:
 2891 01f2 3149     		ldr	r1, .L419+8
 155:modbusRTU.c   ****                         if (flag)
 2892              		.loc 1 155 0
 2893 01f4 5008     		lsrs	r0, r2, #1
 157:modbusRTU.c   ****                 }
 2894              		.loc 1 157 0
 2895 01f6 4140     		eors	r1, r0
 2896 01f8 D207     		lsls	r2, r2, #31
 2897 01fa 00D4     		bmi	.L384
 2898 01fc 0100     		movs	r1, r0
 2899              	.L384:
 2900 01fe 2E4A     		ldr	r2, .L419+8
 155:modbusRTU.c   ****                         if (flag)
 2901              		.loc 1 155 0
 2902 0200 4808     		lsrs	r0, r1, #1
 157:modbusRTU.c   ****                 }
 2903              		.loc 1 157 0
 2904 0202 4240     		eors	r2, r0
 2905 0204 C907     		lsls	r1, r1, #31
 2906 0206 00D4     		bmi	.L386
 2907 0208 0200     		movs	r2, r0
 2908              	.L386:
 2909 020a 2B49     		ldr	r1, .L419+8
 155:modbusRTU.c   ****                         if (flag)
 2910              		.loc 1 155 0
 2911 020c 5008     		lsrs	r0, r2, #1
 157:modbusRTU.c   ****                 }
 2912              		.loc 1 157 0
 2913 020e 4140     		eors	r1, r0
 2914 0210 D207     		lsls	r2, r2, #31
ARM GAS  C:\Users\AFDHAL~1\AppData\Local\Temp\ccKZJoZj.s 			page 69


 2915 0212 00D4     		bmi	.L388
 2916 0214 0100     		movs	r1, r0
 2917              	.L388:
 2918 0216 284A     		ldr	r2, .L419+8
 155:modbusRTU.c   ****                         if (flag)
 2919              		.loc 1 155 0
 2920 0218 4808     		lsrs	r0, r1, #1
 157:modbusRTU.c   ****                 }
 2921              		.loc 1 157 0
 2922 021a 4240     		eors	r2, r0
 2923 021c C907     		lsls	r1, r1, #31
 2924 021e 00D4     		bmi	.L390
 2925 0220 0200     		movs	r2, r0
 2926              	.L390:
 2927              	.LVL160:
 151:modbusRTU.c   **** 
 2928              		.loc 1 151 0
 2929 0222 FF21     		movs	r1, #255
 2930 0224 0B40     		ands	r3, r1
 2931              	.LVL161:
 2932 0226 5340     		eors	r3, r2
 2933              	.LVL162:
 157:modbusRTU.c   ****                 }
 2934              		.loc 1 157 0
 2935 0228 234A     		ldr	r2, .L419+8
 155:modbusRTU.c   ****                         if (flag)
 2936              		.loc 1 155 0
 2937 022a 5908     		lsrs	r1, r3, #1
 157:modbusRTU.c   ****                 }
 2938              		.loc 1 157 0
 2939 022c 4A40     		eors	r2, r1
 2940 022e DB07     		lsls	r3, r3, #31
 2941 0230 00D4     		bmi	.L392
 2942 0232 0A00     		movs	r2, r1
 2943              	.L392:
 2944 0234 204B     		ldr	r3, .L419+8
 155:modbusRTU.c   ****                         if (flag)
 2945              		.loc 1 155 0
 2946 0236 5108     		lsrs	r1, r2, #1
 157:modbusRTU.c   ****                 }
 2947              		.loc 1 157 0
 2948 0238 4B40     		eors	r3, r1
 2949 023a D207     		lsls	r2, r2, #31
 2950 023c 00D4     		bmi	.L394
 2951 023e 0B00     		movs	r3, r1
 2952              	.L394:
 2953 0240 1D4A     		ldr	r2, .L419+8
 155:modbusRTU.c   ****                         if (flag)
 2954              		.loc 1 155 0
 2955 0242 5908     		lsrs	r1, r3, #1
 157:modbusRTU.c   ****                 }
 2956              		.loc 1 157 0
 2957 0244 4A40     		eors	r2, r1
 2958 0246 DB07     		lsls	r3, r3, #31
 2959 0248 00D4     		bmi	.L396
 2960 024a 0A00     		movs	r2, r1
 2961              	.L396:
ARM GAS  C:\Users\AFDHAL~1\AppData\Local\Temp\ccKZJoZj.s 			page 70


 2962 024c 1A4B     		ldr	r3, .L419+8
 155:modbusRTU.c   ****                         if (flag)
 2963              		.loc 1 155 0
 2964 024e 5108     		lsrs	r1, r2, #1
 157:modbusRTU.c   ****                 }
 2965              		.loc 1 157 0
 2966 0250 4B40     		eors	r3, r1
 2967 0252 D207     		lsls	r2, r2, #31
 2968 0254 00D4     		bmi	.L398
 2969 0256 0B00     		movs	r3, r1
 2970              	.L398:
 2971 0258 174A     		ldr	r2, .L419+8
 155:modbusRTU.c   ****                         if (flag)
 2972              		.loc 1 155 0
 2973 025a 5908     		lsrs	r1, r3, #1
 157:modbusRTU.c   ****                 }
 2974              		.loc 1 157 0
 2975 025c 4A40     		eors	r2, r1
 2976 025e DB07     		lsls	r3, r3, #31
 2977 0260 00D4     		bmi	.L400
 2978 0262 0A00     		movs	r2, r1
 2979              	.L400:
 2980 0264 144B     		ldr	r3, .L419+8
 155:modbusRTU.c   ****                         if (flag)
 2981              		.loc 1 155 0
 2982 0266 5108     		lsrs	r1, r2, #1
 157:modbusRTU.c   ****                 }
 2983              		.loc 1 157 0
 2984 0268 4B40     		eors	r3, r1
 2985 026a D207     		lsls	r2, r2, #31
 2986 026c 00D4     		bmi	.L402
 2987 026e 0B00     		movs	r3, r1
 2988              	.L402:
 2989 0270 114A     		ldr	r2, .L419+8
 155:modbusRTU.c   ****                         if (flag)
 2990              		.loc 1 155 0
 2991 0272 5908     		lsrs	r1, r3, #1
 157:modbusRTU.c   ****                 }
 2992              		.loc 1 157 0
 2993 0274 4A40     		eors	r2, r1
 2994 0276 DB07     		lsls	r3, r3, #31
 2995 0278 00D4     		bmi	.L404
 2996 027a 0A00     		movs	r2, r1
 2997              	.L404:
 2998 027c 0E4B     		ldr	r3, .L419+8
 155:modbusRTU.c   ****                         if (flag)
 2999              		.loc 1 155 0
 3000 027e 5108     		lsrs	r1, r2, #1
 157:modbusRTU.c   ****                 }
 3001              		.loc 1 157 0
 3002 0280 4B40     		eors	r3, r1
 3003 0282 D207     		lsls	r2, r2, #31
 3004 0284 00D4     		bmi	.L406
 3005 0286 0B00     		movs	r3, r1
 3006              	.L406:
 3007              	.LVL163:
 3008              	.LBE112:
ARM GAS  C:\Users\AFDHAL~1\AppData\Local\Temp\ccKZJoZj.s 			page 71


 3009              	.LBE111:
 247:modbusRTU.c   ****         string_length++;
 3010              		.loc 1 247 0
 3011 0288 6946     		mov	r1, sp
 249:modbusRTU.c   **** } 
 3012              		.loc 1 249 0
 3013 028a 0024     		movs	r4, #0
 3014              	.LBB114:
 3015              	.LBB113:
 162:modbusRTU.c   ****         temp = (temp << 8) | temp2;
 3016              		.loc 1 162 0
 3017 028c 1A0A     		lsrs	r2, r3, #8
 3018              	.LVL164:
 163:modbusRTU.c   ****         temp &= 0xFFFF;
 3019              		.loc 1 163 0
 3020 028e 1B02     		lsls	r3, r3, #8
 3021              	.LVL165:
 3022 0290 1343     		orrs	r3, r2
 3023              	.LVL166:
 164:modbusRTU.c   **** 
 3024              		.loc 1 164 0
 3025 0292 1B04     		lsls	r3, r3, #16
 3026              	.LVL167:
 3027 0294 1B0C     		lsrs	r3, r3, #16
 3028              	.LVL168:
 3029              	.LBE113:
 3030              	.LBE114:
 247:modbusRTU.c   ****         string_length++;
 3031              		.loc 1 247 0
 3032 0296 1A12     		asrs	r2, r3, #8
 3033 0298 8A71     		strb	r2, [r1, #6]
 3034              	.LVL169:
 249:modbusRTU.c   **** } 
 3035              		.loc 1 249 0
 3036 029a CB71     		strb	r3, [r1, #7]
 3037              	.LVL170:
 3038              	.L407:
 3039              	.LBE110:
 3040              	.LBE109:
 272:modbusRTU.c   ****         }
 3041              		.loc 1 272 0
 3042 029c 6B46     		mov	r3, sp
 3043 029e 185D     		ldrb	r0, [r3, r4]
 3044 02a0 0134     		adds	r4, r4, #1
 3045              	.LVL171:
 3046 02a2 FFF7FEFF 		bl	USB_UART_SpiUartWriteTxData
 3047              	.LVL172:
 270:modbusRTU.c   ****                 //Serial.print(char(query[i]));
 3048              		.loc 1 270 0
 3049 02a6 082C     		cmp	r4, #8
 3050 02a8 F8D1     		bne	.L407
 3051              	.LVL173:
 3052              	.LBE108:
 3053              	.LBE107:
 489:modbusRTU.c   **** /*
 490:modbusRTU.c   ****         written.start_addr=write_addr;
 491:modbusRTU.c   ****         written.num_regs=1;
ARM GAS  C:\Users\AFDHAL~1\AppData\Local\Temp\ccKZJoZj.s 			page 72


 492:modbusRTU.c   **** */
 493:modbusRTU.c   ****         status = send_reply(packet, RESPONSE_SIZE);    
 494:modbusRTU.c   **** 
 495:modbusRTU.c   ****         return (status);
 496:modbusRTU.c   **** }
 3054              		.loc 1 496 0
 3055 02aa 0820     		movs	r0, #8
 3056 02ac 02B0     		add	sp, sp, #8
 3057              		@ sp needed
 3058 02ae 70BD     		pop	{r4, r5, r6, pc}
 3059              	.L420:
 3060              		.align	2
 3061              	.L419:
 3062 02b0 00000000 		.word	slave
 3063 02b4 FFFF0000 		.word	65535
 3064 02b8 01A00000 		.word	40961
 3065              		.cfi_endproc
 3066              	.LFE46:
 3067              		.size	write_single_register, .-write_single_register
 3068              		.section	.text.read_holding_registers,"ax",%progbits
 3069              		.align	2
 3070              		.global	read_holding_registers
 3071              		.code	16
 3072              		.thumb_func
 3073              		.type	read_holding_registers, %function
 3074              	read_holding_registers:
 3075              	.LFB47:
 497:modbusRTU.c   **** 
 498:modbusRTU.c   **** /************************************************************************
 499:modbusRTU.c   ****  * 
 500:modbusRTU.c   ****  * 	read_holding_registers(first_register, number_of_registers,
 501:modbusRTU.c   ****  * registers_array)
 502:modbusRTU.c   ****  * 
 503:modbusRTU.c   ****  * reads the slave's holdings registers and sends them to the Modbus master
 504:modbusRTU.c   ****  * 
 505:modbusRTU.c   ****  *************************************************************************/
 506:modbusRTU.c   **** 
 507:modbusRTU.c   **** int read_holding_registers( unsigned int start_addr,
 508:modbusRTU.c   **** 
 509:modbusRTU.c   **** unsigned char reg_count, int *regs) 
 510:modbusRTU.c   **** {
 3076              		.loc 1 510 0
 3077              		.cfi_startproc
 3078              		@ args = 0, pretend = 0, frame = 256
 3079              		@ frame_needed = 0, uses_anonymous_args = 0
 3080              	.LVL174:
 3081 0000 F0B5     		push	{r4, r5, r6, r7, lr}
 3082              		.cfi_def_cfa_offset 20
 3083              		.cfi_offset 4, -20
 3084              		.cfi_offset 5, -16
 3085              		.cfi_offset 6, -12
 3086              		.cfi_offset 7, -8
 3087              		.cfi_offset 14, -4
 3088 0002 4746     		mov	r7, r8
 3089 0004 80B4     		push	{r7}
 3090              		.cfi_def_cfa_offset 24
 3091              		.cfi_offset 8, -24
ARM GAS  C:\Users\AFDHAL~1\AppData\Local\Temp\ccKZJoZj.s 			page 73


 3092 0006 C0B0     		sub	sp, sp, #256
 3093              		.cfi_def_cfa_offset 280
 3094              	.LVL175:
 3095              	.LBB123:
 3096              	.LBB124:
 185:modbusRTU.c   ****         packet[FUNC] = function;
 3097              		.loc 1 185 0
 3098 0008 6C46     		mov	r4, sp
 3099 000a 424B     		ldr	r3, .L446
 187:modbusRTU.c   **** } 
 3100              		.loc 1 187 0
 3101 000c 4E00     		lsls	r6, r1, #1
 185:modbusRTU.c   ****         packet[FUNC] = function;
 3102              		.loc 1 185 0
 3103 000e 1B78     		ldrb	r3, [r3]
 3104              	.LBE124:
 3105              	.LBE123:
 511:modbusRTU.c   ****         unsigned char function = FC_READ_REGS; 	/* Read Holding Registers */
 512:modbusRTU.c   ****         int packet_size = 3;
 513:modbusRTU.c   ****         int status;
 514:modbusRTU.c   ****         unsigned int i;
 515:modbusRTU.c   ****         unsigned char packet[MAX_MESSAGE_LENGTH];
 516:modbusRTU.c   **** 
 517:modbusRTU.c   ****         build_read_packet(function, reg_count, packet);
 518:modbusRTU.c   **** 
 519:modbusRTU.c   ****         for (i = start_addr; i < (start_addr + (unsigned int) reg_count);
 3106              		.loc 1 519 0
 3107 0010 4118     		adds	r1, r0, r1
 3108              	.LVL176:
 3109              	.LBB126:
 3110              	.LBB125:
 185:modbusRTU.c   ****         packet[FUNC] = function;
 3111              		.loc 1 185 0
 3112 0012 2370     		strb	r3, [r4]
 186:modbusRTU.c   ****         packet[2] = count * 2;
 3113              		.loc 1 186 0
 3114 0014 0323     		movs	r3, #3
 187:modbusRTU.c   **** } 
 3115              		.loc 1 187 0
 3116 0016 A670     		strb	r6, [r4, #2]
 3117              	.LVL177:
 186:modbusRTU.c   ****         packet[2] = count * 2;
 3118              		.loc 1 186 0
 3119 0018 6370     		strb	r3, [r4, #1]
 3120              	.LBE125:
 3121              	.LBE126:
 3122              		.loc 1 519 0
 3123 001a 8842     		cmp	r0, r1
 3124 001c 00D3     		bcc	.LCB3039
 3125 001e 71E0     		b	.L442	@long jump
 3126              	.LCB3039:
 3127 0020 8300     		lsls	r3, r0, #2
 3128 0022 D218     		adds	r2, r2, r3
 3129              	.LVL178:
 3130 0024 6B46     		mov	r3, sp
 3131 0026 0336     		adds	r6, r6, #3
 3132 0028 0333     		adds	r3, r3, #3
ARM GAS  C:\Users\AFDHAL~1\AppData\Local\Temp\ccKZJoZj.s 			page 74


 3133 002a 6E44     		add	r6, r6, sp
 3134              	.LVL179:
 3135              	.L423:
 520:modbusRTU.c   **** 	       i++) {
 521:modbusRTU.c   ****                         packet[packet_size] = regs[i] >> 8;
 3136              		.loc 1 521 0
 3137 002c 10CA     		ldmia	r2!, {r4}
 3138 002e 2512     		asrs	r5, r4, #8
 3139 0030 1D70     		strb	r5, [r3]
 3140              	.LVL180:
 522:modbusRTU.c   ****                 packet_size++;
 523:modbusRTU.c   ****                 packet[packet_size] = regs[i] & 0x00FF;
 3141              		.loc 1 523 0
 3142 0032 5C70     		strb	r4, [r3, #1]
 3143              	.LVL181:
 3144 0034 0233     		adds	r3, r3, #2
 3145              	.LVL182:
 519:modbusRTU.c   **** 	       i++) {
 3146              		.loc 1 519 0
 3147 0036 9E42     		cmp	r6, r3
 3148 0038 F8D1     		bne	.L423
 3149 003a 0D1A     		subs	r5, r1, r0
 3150 003c 6D00     		lsls	r5, r5, #1
 3151 003e 0335     		adds	r5, r5, #3
 3152 0040 EFB2     		uxtb	r7, r5
 3153 0042 7B1C     		adds	r3, r7, #1
 3154              	.LVL183:
 3155 0044 DBB2     		uxtb	r3, r3
 3156 0046 A846     		mov	r8, r5
 3157 0048 9C46     		mov	ip, r3
 3158 004a BE1C     		adds	r6, r7, #2
 3159 004c F6B2     		uxtb	r6, r6
 3160              	.L422:
 3161              	.LVL184:
 3162 004e 0020     		movs	r0, #0
 3163              	.LVL185:
 3164              	.LBB127:
 3165              	.LBB128:
 3166              	.LBB129:
 3167              	.LBB130:
 3168              	.LBB131:
 3169              	.LBB132:
 154:modbusRTU.c   ****                         temp = temp >> 1;
 3170              		.loc 1 154 0
 3171 0050 0122     		movs	r2, #1
 148:modbusRTU.c   **** 
 3172              		.loc 1 148 0
 3173 0052 3149     		ldr	r1, .L446+4
 157:modbusRTU.c   ****                 }
 3174              		.loc 1 157 0
 3175 0054 314B     		ldr	r3, .L446+8
 3176              	.LVL186:
 3177              	.L440:
 151:modbusRTU.c   **** 
 3178              		.loc 1 151 0
 3179 0056 6C46     		mov	r4, sp
 157:modbusRTU.c   ****                 }
ARM GAS  C:\Users\AFDHAL~1\AppData\Local\Temp\ccKZJoZj.s 			page 75


 3180              		.loc 1 157 0
 3181 0058 1D00     		movs	r5, r3
 151:modbusRTU.c   **** 
 3182              		.loc 1 151 0
 3183 005a 045D     		ldrb	r4, [r0, r4]
 3184 005c 6140     		eors	r1, r4
 155:modbusRTU.c   ****                         if (flag)
 3185              		.loc 1 155 0
 3186 005e 4C08     		lsrs	r4, r1, #1
 157:modbusRTU.c   ****                 }
 3187              		.loc 1 157 0
 3188 0060 6540     		eors	r5, r4
 3189 0062 0A42     		tst	r2, r1
 3190 0064 00D1     		bne	.L425
 3191 0066 2500     		movs	r5, r4
 3192              	.L425:
 3193 0068 1C00     		movs	r4, r3
 155:modbusRTU.c   ****                         if (flag)
 3194              		.loc 1 155 0
 3195 006a 6908     		lsrs	r1, r5, #1
 157:modbusRTU.c   ****                 }
 3196              		.loc 1 157 0
 3197 006c 4C40     		eors	r4, r1
 3198 006e 2A42     		tst	r2, r5
 3199 0070 00D1     		bne	.L427
 3200 0072 0C00     		movs	r4, r1
 3201              	.L427:
 3202 0074 1900     		movs	r1, r3
 155:modbusRTU.c   ****                         if (flag)
 3203              		.loc 1 155 0
 3204 0076 6508     		lsrs	r5, r4, #1
 157:modbusRTU.c   ****                 }
 3205              		.loc 1 157 0
 3206 0078 6940     		eors	r1, r5
 3207 007a 2242     		tst	r2, r4
 3208 007c 00D1     		bne	.L429
 3209 007e 2900     		movs	r1, r5
 3210              	.L429:
 3211 0080 1C00     		movs	r4, r3
 155:modbusRTU.c   ****                         if (flag)
 3212              		.loc 1 155 0
 3213 0082 4D08     		lsrs	r5, r1, #1
 157:modbusRTU.c   ****                 }
 3214              		.loc 1 157 0
 3215 0084 6C40     		eors	r4, r5
 3216 0086 0A42     		tst	r2, r1
 3217 0088 00D1     		bne	.L431
 3218 008a 2C00     		movs	r4, r5
 3219              	.L431:
 3220 008c 1900     		movs	r1, r3
 155:modbusRTU.c   ****                         if (flag)
 3221              		.loc 1 155 0
 3222 008e 6508     		lsrs	r5, r4, #1
 157:modbusRTU.c   ****                 }
 3223              		.loc 1 157 0
 3224 0090 6940     		eors	r1, r5
 3225 0092 2242     		tst	r2, r4
ARM GAS  C:\Users\AFDHAL~1\AppData\Local\Temp\ccKZJoZj.s 			page 76


 3226 0094 00D1     		bne	.L433
 3227 0096 2900     		movs	r1, r5
 3228              	.L433:
 3229 0098 1C00     		movs	r4, r3
 155:modbusRTU.c   ****                         if (flag)
 3230              		.loc 1 155 0
 3231 009a 4D08     		lsrs	r5, r1, #1
 157:modbusRTU.c   ****                 }
 3232              		.loc 1 157 0
 3233 009c 6C40     		eors	r4, r5
 3234 009e 0A42     		tst	r2, r1
 3235 00a0 00D1     		bne	.L435
 3236 00a2 2C00     		movs	r4, r5
 3237              	.L435:
 3238 00a4 1900     		movs	r1, r3
 155:modbusRTU.c   ****                         if (flag)
 3239              		.loc 1 155 0
 3240 00a6 6508     		lsrs	r5, r4, #1
 157:modbusRTU.c   ****                 }
 3241              		.loc 1 157 0
 3242 00a8 6940     		eors	r1, r5
 3243 00aa 2242     		tst	r2, r4
 3244 00ac 00D1     		bne	.L437
 3245 00ae 2900     		movs	r1, r5
 3246              	.L437:
 3247 00b0 1C00     		movs	r4, r3
 155:modbusRTU.c   ****                         if (flag)
 3248              		.loc 1 155 0
 3249 00b2 4D08     		lsrs	r5, r1, #1
 157:modbusRTU.c   ****                 }
 3250              		.loc 1 157 0
 3251 00b4 6C40     		eors	r4, r5
 3252 00b6 0A42     		tst	r2, r1
 3253 00b8 00D1     		bne	.L439
 3254 00ba 2C00     		movs	r4, r5
 3255              	.L439:
 3256 00bc 0130     		adds	r0, r0, #1
 150:modbusRTU.c   ****                 temp = temp ^ buf[i];
 3257              		.loc 1 150 0
 3258 00be C5B2     		uxtb	r5, r0
 3259 00c0 2100     		movs	r1, r4
 3260              	.LVL187:
 3261 00c2 AF42     		cmp	r7, r5
 3262 00c4 C7D8     		bhi	.L440
 162:modbusRTU.c   ****         temp = (temp << 8) | temp2;
 3263              		.loc 1 162 0
 3264 00c6 230A     		lsrs	r3, r4, #8
 3265              	.LVL188:
 163:modbusRTU.c   ****         temp &= 0xFFFF;
 3266              		.loc 1 163 0
 3267 00c8 2402     		lsls	r4, r4, #8
 3268 00ca 2343     		orrs	r3, r4
 3269              	.LVL189:
 3270              	.LBE132:
 3271              	.LBE131:
 247:modbusRTU.c   ****         string_length++;
 3272              		.loc 1 247 0
ARM GAS  C:\Users\AFDHAL~1\AppData\Local\Temp\ccKZJoZj.s 			page 77


 3273 00cc 40AD     		add	r5, sp, #256
 3274              	.LBB135:
 3275              	.LBB133:
 164:modbusRTU.c   **** 
 3276              		.loc 1 164 0
 3277 00ce 1B04     		lsls	r3, r3, #16
 3278              	.LVL190:
 3279              	.LBE133:
 3280              	.LBE135:
 247:modbusRTU.c   ****         string_length++;
 3281              		.loc 1 247 0
 3282 00d0 4544     		add	r5, r5, r8
 3283              	.LBB136:
 3284              	.LBB134:
 164:modbusRTU.c   **** 
 3285              		.loc 1 164 0
 3286 00d2 1B0C     		lsrs	r3, r3, #16
 3287              	.LVL191:
 3288              	.LBE134:
 3289              	.LBE136:
 247:modbusRTU.c   ****         string_length++;
 3290              		.loc 1 247 0
 3291 00d4 013D     		subs	r5, r5, #1
 3292 00d6 FF3D     		subs	r5, r5, #255
 3293 00d8 1A12     		asrs	r2, r3, #8
 3294 00da 2A70     		strb	r2, [r5]
 3295              	.LVL192:
 249:modbusRTU.c   **** } 
 3296              		.loc 1 249 0
 3297 00dc 0024     		movs	r4, #0
 3298 00de 6D46     		mov	r5, sp
 3299 00e0 40AF     		add	r7, sp, #256
 3300 00e2 6744     		add	r7, r7, ip
 3301 00e4 013F     		subs	r7, r7, #1
 3302 00e6 FF3F     		subs	r7, r7, #255
 3303 00e8 3B70     		strb	r3, [r7]
 3304              	.LVL193:
 3305              	.L441:
 3306              	.LBE130:
 3307              	.LBE129:
 270:modbusRTU.c   ****                 //Serial.print(char(query[i]));
 3308              		.loc 1 270 0
 3309 00ea 0134     		adds	r4, r4, #1
 3310              	.LVL194:
 272:modbusRTU.c   ****         }
 3311              		.loc 1 272 0
 3312 00ec 2878     		ldrb	r0, [r5]
 270:modbusRTU.c   ****                 //Serial.print(char(query[i]));
 3313              		.loc 1 270 0
 3314 00ee E4B2     		uxtb	r4, r4
 272:modbusRTU.c   ****         }
 3315              		.loc 1 272 0
 3316 00f0 FFF7FEFF 		bl	USB_UART_SpiUartWriteTxData
 3317              	.LVL195:
 3318 00f4 0135     		adds	r5, r5, #1
 270:modbusRTU.c   ****                 //Serial.print(char(query[i]));
 3319              		.loc 1 270 0
ARM GAS  C:\Users\AFDHAL~1\AppData\Local\Temp\ccKZJoZj.s 			page 78


 3320 00f6 B442     		cmp	r4, r6
 3321 00f8 F7D3     		bcc	.L441
 3322              	.LVL196:
 3323              	.LBE128:
 3324              	.LBE127:
 524:modbusRTU.c   ****                 packet_size++;
 525:modbusRTU.c   ****         } 
 526:modbusRTU.c   **** 
 527:modbusRTU.c   ****         status = send_reply(packet, packet_size);
 528:modbusRTU.c   **** 
 529:modbusRTU.c   ****         return (status);
 530:modbusRTU.c   **** }   
 3325              		.loc 1 530 0
 3326 00fa 2000     		movs	r0, r4
 3327 00fc 40B0     		add	sp, sp, #256
 3328              		@ sp needed
 3329 00fe 04BC     		pop	{r2}
 3330 0100 9046     		mov	r8, r2
 3331 0102 F0BD     		pop	{r4, r5, r6, r7, pc}
 3332              	.LVL197:
 3333              	.L442:
 519:modbusRTU.c   **** 	       i++) {
 3334              		.loc 1 519 0
 3335 0104 0423     		movs	r3, #4
 3336 0106 9C46     		mov	ip, r3
 3337 0108 013B     		subs	r3, r3, #1
 3338 010a 9846     		mov	r8, r3
 3339 010c 0526     		movs	r6, #5
 3340 010e 0327     		movs	r7, #3
 3341 0110 9DE7     		b	.L422
 3342              	.L447:
 3343 0112 C046     		.align	2
 3344              	.L446:
 3345 0114 00000000 		.word	slave
 3346 0118 FFFF0000 		.word	65535
 3347 011c 01A00000 		.word	40961
 3348              		.cfi_endproc
 3349              	.LFE47:
 3350              		.size	read_holding_registers, .-read_holding_registers
 3351              		.section	.text.modbusRTU_Update,"ax",%progbits
 3352              		.align	2
 3353              		.global	modbusRTU_Update
 3354              		.code	16
 3355              		.thumb_func
 3356              		.type	modbusRTU_Update, %function
 3357              	modbusRTU_Update:
 3358              	.LFB48:
 531:modbusRTU.c   **** 
 532:modbusRTU.c   **** 
 533:modbusRTU.c   **** /*
 534:modbusRTU.c   ****  * update(regs, regs_size)
 535:modbusRTU.c   ****  * 
 536:modbusRTU.c   ****  * checks if there is any valid request from the modbus master. If there is,
 537:modbusRTU.c   ****  * performs the requested action
 538:modbusRTU.c   ****  * 
 539:modbusRTU.c   ****  * regs: an array with the holding registers. They start at address 1 (master point of view)
 540:modbusRTU.c   ****  * regs_size: total number of holding registers.
ARM GAS  C:\Users\AFDHAL~1\AppData\Local\Temp\ccKZJoZj.s 			page 79


 541:modbusRTU.c   ****  * returns: 0 if no request from master,
 542:modbusRTU.c   ****  * 	NO_REPLY (-1) if no reply is sent to the master
 543:modbusRTU.c   ****  * 	an exception code (1 to 4) in case of a modbus exceptions
 544:modbusRTU.c   ****  * 	the number of bytes sent as reply ( > 4) if OK.
 545:modbusRTU.c   ****  */
 546:modbusRTU.c   **** unsigned long Nowdt = 0;
 547:modbusRTU.c   **** unsigned int lastBytesReceived;
 548:modbusRTU.c   **** const unsigned long T35 = 5;
 549:modbusRTU.c   **** 
 550:modbusRTU.c   **** int modbusRTU_Update(unsigned char slave_id, int *regs,
 551:modbusRTU.c   **** unsigned int regs_size) 
 552:modbusRTU.c   **** {
 3359              		.loc 1 552 0
 3360              		.cfi_startproc
 3361              		@ args = 0, pretend = 0, frame = 264
 3362              		@ frame_needed = 0, uses_anonymous_args = 0
 3363              	.LVL198:
 3364 0000 F0B5     		push	{r4, r5, r6, r7, lr}
 3365              		.cfi_def_cfa_offset 20
 3366              		.cfi_offset 4, -20
 3367              		.cfi_offset 5, -16
 3368              		.cfi_offset 6, -12
 3369              		.cfi_offset 7, -8
 3370              		.cfi_offset 14, -4
 3371 0002 4746     		mov	r7, r8
 3372 0004 80B4     		push	{r7}
 3373              		.cfi_def_cfa_offset 24
 3374              		.cfi_offset 8, -24
 3375 0006 C2B0     		sub	sp, sp, #264
 3376              		.cfi_def_cfa_offset 288
 3377              		.loc 1 552 0
 3378 0008 0400     		movs	r4, r0
 3379 000a 1700     		movs	r7, r2
 3380 000c 0E00     		movs	r6, r1
 553:modbusRTU.c   ****         unsigned char query[MAX_MESSAGE_LENGTH];
 554:modbusRTU.c   ****         unsigned char errpacket[EXCEPTION_SIZE + CHECKSUM_SIZE];
 555:modbusRTU.c   ****         unsigned int start_addr;
 556:modbusRTU.c   ****         int exception;
 557:modbusRTU.c   ****         int length = USB_UART_SpiUartGetRxBufferSize();
 3381              		.loc 1 557 0
 3382 000e FFF7FEFF 		bl	USB_UART_SpiUartGetRxBufferSize
 3383              	.LVL199:
 558:modbusRTU.c   ****         unsigned long now = millis();
 3384              		.loc 1 558 0
 3385 0012 784B     		ldr	r3, .L658
 559:modbusRTU.c   ****         
 560:modbusRTU.c   ****         slave = slave_id;
 3386              		.loc 1 560 0
 3387 0014 784D     		ldr	r5, .L658+4
 558:modbusRTU.c   ****         unsigned long now = millis();
 3388              		.loc 1 558 0
 3389 0016 1A68     		ldr	r2, [r3]
 3390 0018 5B68     		ldr	r3, [r3, #4]
 3391              	.LVL200:
 3392              		.loc 1 560 0
 3393 001a 2C70     		strb	r4, [r5]
 561:modbusRTU.c   **** 
ARM GAS  C:\Users\AFDHAL~1\AppData\Local\Temp\ccKZJoZj.s 			page 80


 562:modbusRTU.c   ****         if (length == 0) {
 3394              		.loc 1 562 0
 3395 001c 0028     		cmp	r0, #0
 3396 001e 00D1     		bne	.LCB3318
 3397 0020 D3E0     		b	.L655	@long jump
 3398              	.LCB3318:
 563:modbusRTU.c   ****                 lastBytesReceived = 0;
 564:modbusRTU.c   ****                 return 0;
 565:modbusRTU.c   ****         }
 566:modbusRTU.c   **** 
 567:modbusRTU.c   ****         if (lastBytesReceived != length) {
 3399              		.loc 1 567 0
 3400 0022 7649     		ldr	r1, .L658+8
 558:modbusRTU.c   ****         
 3401              		.loc 1 558 0
 3402 0024 9446     		mov	ip, r2
 3403              		.loc 1 567 0
 3404 0026 0C68     		ldr	r4, [r1]
 3405 0028 A042     		cmp	r0, r4
 3406 002a 09D0     		beq	.L451
 568:modbusRTU.c   ****                 lastBytesReceived = length;
 569:modbusRTU.c   ****                 Nowdt = now + T35;
 570:modbusRTU.c   ****                 return 0;
 3407              		.loc 1 570 0
 3408 002c 0024     		movs	r4, #0
 569:modbusRTU.c   ****                 return 0;
 3409              		.loc 1 569 0
 3410 002e 744B     		ldr	r3, .L658+12
 3411 0030 0532     		adds	r2, r2, #5
 3412              	.LVL201:
 568:modbusRTU.c   ****                 lastBytesReceived = length;
 3413              		.loc 1 568 0
 3414 0032 0860     		str	r0, [r1]
 569:modbusRTU.c   ****                 return 0;
 3415              		.loc 1 569 0
 3416 0034 1A60     		str	r2, [r3]
 3417              	.LVL202:
 3418              	.L621:
 571:modbusRTU.c   ****         }
 572:modbusRTU.c   ****         if (now < Nowdt) 
 573:modbusRTU.c   ****                 return 0;
 574:modbusRTU.c   **** 
 575:modbusRTU.c   ****         lastBytesReceived = 0;
 576:modbusRTU.c   **** 
 577:modbusRTU.c   ****         length = modbus_request(query);
 578:modbusRTU.c   ****         if (length < 1) 
 579:modbusRTU.c   ****                 return length;
 580:modbusRTU.c   ****          
 581:modbusRTU.c   ****                 exception = validate_request(query, length, regs_size);
 582:modbusRTU.c   ****                 if (exception) {
 583:modbusRTU.c   ****                         build_error_packet( query[FUNC], exception,
 584:modbusRTU.c   ****                         errpacket);
 585:modbusRTU.c   ****                         send_reply(errpacket, EXCEPTION_SIZE);
 586:modbusRTU.c   ****                         return (exception);
 587:modbusRTU.c   ****                 } 
 588:modbusRTU.c   **** 
 589:modbusRTU.c   ****                         start_addr =
ARM GAS  C:\Users\AFDHAL~1\AppData\Local\Temp\ccKZJoZj.s 			page 81


 590:modbusRTU.c   ****                                 ((int) query[START_H] << 8) +
 591:modbusRTU.c   ****                                 (int) query[START_L];
 592:modbusRTU.c   **** 
 593:modbusRTU.c   ****         switch (query[FUNC]) {
 594:modbusRTU.c   ****                 case FC_READ_REGS:
 595:modbusRTU.c   ****                         return read_holding_registers(
 596:modbusRTU.c   ****                         start_addr,
 597:modbusRTU.c   ****                         query[REGS_L],
 598:modbusRTU.c   ****                         regs);
 599:modbusRTU.c   ****                 break;
 600:modbusRTU.c   ****                 case FC_WRITE_REGS:
 601:modbusRTU.c   ****                 {
 602:modbusRTU.c   ****                     modbusRTU_Written = 1;
 603:modbusRTU.c   ****                     
 604:modbusRTU.c   ****                     char index = 0;
 605:modbusRTU.c   ****                     for(index = 0; index < query[REGS_L]; index++)
 606:modbusRTU.c   ****                     {
 607:modbusRTU.c   ****                         modbusRTU_written_register_flags |= 1<<(start_addr+index);
 608:modbusRTU.c   ****                     }
 609:modbusRTU.c   ****                     
 610:modbusRTU.c   ****                     return preset_multiple_registers(
 611:modbusRTU.c   ****                     start_addr,
 612:modbusRTU.c   ****                     query[REGS_L],
 613:modbusRTU.c   ****                     query,
 614:modbusRTU.c   ****                     regs);
 615:modbusRTU.c   ****                     break;
 616:modbusRTU.c   ****                 }
 617:modbusRTU.c   ****                 case FC_WRITE_REG:
 618:modbusRTU.c   ****                 {
 619:modbusRTU.c   ****                     modbusRTU_Written = 1;
 620:modbusRTU.c   ****                     
 621:modbusRTU.c   ****                     modbusRTU_written_register_flags |= 1<<(start_addr);
 622:modbusRTU.c   ****                     
 623:modbusRTU.c   ****                     write_single_register(
 624:modbusRTU.c   ****                     start_addr,
 625:modbusRTU.c   ****                     query,
 626:modbusRTU.c   ****                     regs);
 627:modbusRTU.c   ****                     break;                                
 628:modbusRTU.c   ****                 }
 629:modbusRTU.c   ****         }      
 630:modbusRTU.c   ****         return 0;
 631:modbusRTU.c   **** }
 3419              		.loc 1 631 0
 3420 0036 2000     		movs	r0, r4
 3421 0038 42B0     		add	sp, sp, #264
 3422              		@ sp needed
 3423 003a 04BC     		pop	{r2}
 3424 003c 9046     		mov	r8, r2
 3425 003e F0BD     		pop	{r4, r5, r6, r7, pc}
 3426              	.LVL203:
 3427              	.L451:
 572:modbusRTU.c   ****                 return 0;
 3428              		.loc 1 572 0
 3429 0040 6F4B     		ldr	r3, .L658+12
 573:modbusRTU.c   **** 
 3430              		.loc 1 573 0
 3431 0042 0024     		movs	r4, #0
ARM GAS  C:\Users\AFDHAL~1\AppData\Local\Temp\ccKZJoZj.s 			page 82


 572:modbusRTU.c   ****                 return 0;
 3432              		.loc 1 572 0
 3433 0044 9846     		mov	r8, r3
 3434 0046 1B68     		ldr	r3, [r3]
 3435 0048 9C45     		cmp	ip, r3
 3436 004a F4D3     		bcc	.L621
 577:modbusRTU.c   ****         if (length < 1) 
 3437              		.loc 1 577 0
 3438 004c 02A8     		add	r0, sp, #8
 3439              	.LVL204:
 575:modbusRTU.c   **** 
 3440              		.loc 1 575 0
 3441 004e 0C60     		str	r4, [r1]
 577:modbusRTU.c   ****         if (length < 1) 
 3442              		.loc 1 577 0
 3443 0050 FFF7FEFF 		bl	modbus_request
 3444              	.LVL205:
 578:modbusRTU.c   ****                 return length;
 3445              		.loc 1 578 0
 3446 0054 0028     		cmp	r0, #0
 3447 0056 00DC     		bgt	.LCB3372
 3448 0058 BDE0     		b	.L611	@long jump
 3449              	.LCB3372:
 3450              	.LVL206:
 3451              	.LBB160:
 3452              	.LBB161:
 380:modbusRTU.c   ****                         fcnt = 1;
 3453              		.loc 1 380 0
 3454 005a 6B46     		mov	r3, sp
 3455 005c 5B7A     		ldrb	r3, [r3, #9]
 3456 005e 032B     		cmp	r3, #3
 3457 0060 00D1     		bne	.LCB3382
 3458 0062 31E2     		b	.L452	@long jump
 3459              	.LCB3382:
 3460              	.LVL207:
 3461 0064 062B     		cmp	r3, #6
 3462 0066 00D1     		bne	.LCB3385
 3463 0068 B7E0     		b	.L453	@long jump
 3464              	.LCB3385:
 3465              	.LVL208:
 3466 006a 102B     		cmp	r3, #16
 3467 006c 00D1     		bne	.LCB3388
 3468 006e 6DE2     		b	.L454	@long jump
 3469              	.LCB3388:
 3470 0070 0122     		movs	r2, #1
 386:modbusRTU.c   ****                 
 3471              		.loc 1 386 0
 3472 0072 0134     		adds	r4, r4, #1
 3473              	.LVL209:
 3474              	.L455:
 3475              	.LBE161:
 3476              	.LBE160:
 3477              	.LBB169:
 3478              	.LBB170:
 227:modbusRTU.c   ****         packet[FUNC] = function + 0x80;
 3479              		.loc 1 227 0
 3480 0074 6F46     		mov	r7, sp
ARM GAS  C:\Users\AFDHAL~1\AppData\Local\Temp\ccKZJoZj.s 			page 83


 3481              	.LVL210:
 3482 0076 2978     		ldrb	r1, [r5]
 3483              	.LBE170:
 3484              	.LBE169:
 3485              	.LBB174:
 3486              	.LBB175:
 3487              	.LBB176:
 3488              	.LBB177:
 3489              	.LBB178:
 3490              	.LBB179:
 151:modbusRTU.c   **** 
 3491              		.loc 1 151 0
 3492 0078 6248     		ldr	r0, .L658+16
 3493              	.LBE179:
 3494              	.LBE178:
 3495              	.LBE177:
 3496              	.LBE176:
 3497              	.LBE175:
 3498              	.LBE174:
 3499              	.LBB197:
 3500              	.LBB171:
 227:modbusRTU.c   ****         packet[FUNC] = function + 0x80;
 3501              		.loc 1 227 0
 3502 007a 3970     		strb	r1, [r7]
 228:modbusRTU.c   ****         packet[2] = exception;
 3503              		.loc 1 228 0
 3504 007c 803B     		subs	r3, r3, #128
 3505              	.LVL211:
 3506              	.LBE171:
 3507              	.LBE197:
 3508              	.LBB198:
 3509              	.LBB194:
 3510              	.LBB191:
 3511              	.LBB188:
 3512              	.LBB184:
 3513              	.LBB180:
 151:modbusRTU.c   **** 
 3514              		.loc 1 151 0
 3515 007e 4140     		eors	r1, r0
 157:modbusRTU.c   ****                 }
 3516              		.loc 1 157 0
 3517 0080 6148     		ldr	r0, .L658+20
 3518              	.LBE180:
 3519              	.LBE184:
 3520              	.LBE188:
 3521              	.LBE191:
 3522              	.LBE194:
 3523              	.LBE198:
 3524              	.LBB199:
 3525              	.LBB172:
 228:modbusRTU.c   ****         packet[2] = exception;
 3526              		.loc 1 228 0
 3527 0082 DBB2     		uxtb	r3, r3
 3528              	.LBE172:
 3529              	.LBE199:
 3530              	.LBB200:
 3531              	.LBB195:
ARM GAS  C:\Users\AFDHAL~1\AppData\Local\Temp\ccKZJoZj.s 			page 84


 3532              	.LBB192:
 3533              	.LBB189:
 3534              	.LBB185:
 3535              	.LBB181:
 155:modbusRTU.c   ****                         if (flag)
 3536              		.loc 1 155 0
 3537 0084 4D08     		lsrs	r5, r1, #1
 3538              	.LBE181:
 3539              	.LBE185:
 3540              	.LBE189:
 3541              	.LBE192:
 3542              	.LBE195:
 3543              	.LBE200:
 3544              	.LBB201:
 3545              	.LBB173:
 228:modbusRTU.c   ****         packet[2] = exception;
 3546              		.loc 1 228 0
 3547 0086 7B70     		strb	r3, [r7, #1]
 229:modbusRTU.c   **** } 
 3548              		.loc 1 229 0
 3549 0088 BA70     		strb	r2, [r7, #2]
 3550              	.LVL212:
 3551              	.LBE173:
 3552              	.LBE201:
 3553              	.LBB202:
 3554              	.LBB196:
 3555              	.LBB193:
 3556              	.LBB190:
 3557              	.LBB186:
 3558              	.LBB182:
 157:modbusRTU.c   ****                 }
 3559              		.loc 1 157 0
 3560 008a 6840     		eors	r0, r5
 3561 008c C907     		lsls	r1, r1, #31
 3562 008e 00D4     		bmi	.LCB3483
 3563 0090 9FE0     		b	.L656	@long jump
 3564              	.LCB3483:
 3565              	.L460:
 3566 0092 5D4D     		ldr	r5, .L658+20
 155:modbusRTU.c   ****                         if (flag)
 3567              		.loc 1 155 0
 3568 0094 4108     		lsrs	r1, r0, #1
 157:modbusRTU.c   ****                 }
 3569              		.loc 1 157 0
 3570 0096 4D40     		eors	r5, r1
 3571 0098 C007     		lsls	r0, r0, #31
 3572 009a 00D5     		bpl	.L462
 3573 009c 2900     		movs	r1, r5
 3574              	.L462:
 3575 009e 5A4D     		ldr	r5, .L658+20
 155:modbusRTU.c   ****                         if (flag)
 3576              		.loc 1 155 0
 3577 00a0 4808     		lsrs	r0, r1, #1
 157:modbusRTU.c   ****                 }
 3578              		.loc 1 157 0
 3579 00a2 4540     		eors	r5, r0
 3580 00a4 C907     		lsls	r1, r1, #31
ARM GAS  C:\Users\AFDHAL~1\AppData\Local\Temp\ccKZJoZj.s 			page 85


 3581 00a6 00D5     		bpl	.L464
 3582 00a8 2800     		movs	r0, r5
 3583              	.L464:
 3584 00aa 574D     		ldr	r5, .L658+20
 155:modbusRTU.c   ****                         if (flag)
 3585              		.loc 1 155 0
 3586 00ac 4108     		lsrs	r1, r0, #1
 157:modbusRTU.c   ****                 }
 3587              		.loc 1 157 0
 3588 00ae 4D40     		eors	r5, r1
 3589 00b0 C007     		lsls	r0, r0, #31
 3590 00b2 00D5     		bpl	.L466
 3591 00b4 2900     		movs	r1, r5
 3592              	.L466:
 3593 00b6 544D     		ldr	r5, .L658+20
 155:modbusRTU.c   ****                         if (flag)
 3594              		.loc 1 155 0
 3595 00b8 4808     		lsrs	r0, r1, #1
 157:modbusRTU.c   ****                 }
 3596              		.loc 1 157 0
 3597 00ba 4540     		eors	r5, r0
 3598 00bc C907     		lsls	r1, r1, #31
 3599 00be 00D5     		bpl	.L468
 3600 00c0 2800     		movs	r0, r5
 3601              	.L468:
 3602 00c2 514D     		ldr	r5, .L658+20
 155:modbusRTU.c   ****                         if (flag)
 3603              		.loc 1 155 0
 3604 00c4 4108     		lsrs	r1, r0, #1
 157:modbusRTU.c   ****                 }
 3605              		.loc 1 157 0
 3606 00c6 4D40     		eors	r5, r1
 3607 00c8 C007     		lsls	r0, r0, #31
 3608 00ca 00D5     		bpl	.L470
 3609 00cc 2900     		movs	r1, r5
 3610              	.L470:
 3611 00ce 4E4D     		ldr	r5, .L658+20
 155:modbusRTU.c   ****                         if (flag)
 3612              		.loc 1 155 0
 3613 00d0 4808     		lsrs	r0, r1, #1
 157:modbusRTU.c   ****                 }
 3614              		.loc 1 157 0
 3615 00d2 4540     		eors	r5, r0
 3616 00d4 C907     		lsls	r1, r1, #31
 3617 00d6 00D5     		bpl	.L472
 3618 00d8 2800     		movs	r0, r5
 3619              	.L472:
 3620 00da 4B4D     		ldr	r5, .L658+20
 155:modbusRTU.c   ****                         if (flag)
 3621              		.loc 1 155 0
 3622 00dc 4108     		lsrs	r1, r0, #1
 157:modbusRTU.c   ****                 }
 3623              		.loc 1 157 0
 3624 00de 4D40     		eors	r5, r1
 3625 00e0 C007     		lsls	r0, r0, #31
 3626 00e2 00D5     		bpl	.L474
 3627 00e4 2900     		movs	r1, r5
ARM GAS  C:\Users\AFDHAL~1\AppData\Local\Temp\ccKZJoZj.s 			page 86


 3628              	.L474:
 3629              	.LVL213:
 151:modbusRTU.c   **** 
 3630              		.loc 1 151 0
 3631 00e6 4B40     		eors	r3, r1
 3632              	.LVL214:
 157:modbusRTU.c   ****                 }
 3633              		.loc 1 157 0
 3634 00e8 4748     		ldr	r0, .L658+20
 155:modbusRTU.c   ****                         if (flag)
 3635              		.loc 1 155 0
 3636 00ea 5908     		lsrs	r1, r3, #1
 157:modbusRTU.c   ****                 }
 3637              		.loc 1 157 0
 3638 00ec 4840     		eors	r0, r1
 3639 00ee DB07     		lsls	r3, r3, #31
 3640 00f0 00D5     		bpl	.L476
 3641 00f2 0100     		movs	r1, r0
 3642              	.L476:
 3643 00f4 4448     		ldr	r0, .L658+20
 155:modbusRTU.c   ****                         if (flag)
 3644              		.loc 1 155 0
 3645 00f6 4B08     		lsrs	r3, r1, #1
 157:modbusRTU.c   ****                 }
 3646              		.loc 1 157 0
 3647 00f8 5840     		eors	r0, r3
 3648 00fa C907     		lsls	r1, r1, #31
 3649 00fc 00D5     		bpl	.L478
 3650 00fe 0300     		movs	r3, r0
 3651              	.L478:
 3652 0100 4148     		ldr	r0, .L658+20
 155:modbusRTU.c   ****                         if (flag)
 3653              		.loc 1 155 0
 3654 0102 5908     		lsrs	r1, r3, #1
 157:modbusRTU.c   ****                 }
 3655              		.loc 1 157 0
 3656 0104 4840     		eors	r0, r1
 3657 0106 DB07     		lsls	r3, r3, #31
 3658 0108 00D5     		bpl	.L480
 3659 010a 0100     		movs	r1, r0
 3660              	.L480:
 3661 010c 3E48     		ldr	r0, .L658+20
 155:modbusRTU.c   ****                         if (flag)
 3662              		.loc 1 155 0
 3663 010e 4B08     		lsrs	r3, r1, #1
 157:modbusRTU.c   ****                 }
 3664              		.loc 1 157 0
 3665 0110 5840     		eors	r0, r3
 3666 0112 C907     		lsls	r1, r1, #31
 3667 0114 00D5     		bpl	.L482
 3668 0116 0300     		movs	r3, r0
 3669              	.L482:
 3670 0118 3B48     		ldr	r0, .L658+20
 155:modbusRTU.c   ****                         if (flag)
 3671              		.loc 1 155 0
 3672 011a 5908     		lsrs	r1, r3, #1
 157:modbusRTU.c   ****                 }
ARM GAS  C:\Users\AFDHAL~1\AppData\Local\Temp\ccKZJoZj.s 			page 87


 3673              		.loc 1 157 0
 3674 011c 4840     		eors	r0, r1
 3675 011e DB07     		lsls	r3, r3, #31
 3676 0120 00D5     		bpl	.L484
 3677 0122 0100     		movs	r1, r0
 3678              	.L484:
 3679 0124 3848     		ldr	r0, .L658+20
 155:modbusRTU.c   ****                         if (flag)
 3680              		.loc 1 155 0
 3681 0126 4B08     		lsrs	r3, r1, #1
 157:modbusRTU.c   ****                 }
 3682              		.loc 1 157 0
 3683 0128 5840     		eors	r0, r3
 3684 012a C907     		lsls	r1, r1, #31
 3685 012c 00D5     		bpl	.L486
 3686 012e 0300     		movs	r3, r0
 3687              	.L486:
 3688 0130 3548     		ldr	r0, .L658+20
 155:modbusRTU.c   ****                         if (flag)
 3689              		.loc 1 155 0
 3690 0132 5908     		lsrs	r1, r3, #1
 157:modbusRTU.c   ****                 }
 3691              		.loc 1 157 0
 3692 0134 4840     		eors	r0, r1
 3693 0136 DB07     		lsls	r3, r3, #31
 3694 0138 00D5     		bpl	.L488
 3695 013a 0100     		movs	r1, r0
 3696              	.L488:
 3697 013c 3248     		ldr	r0, .L658+20
 155:modbusRTU.c   ****                         if (flag)
 3698              		.loc 1 155 0
 3699 013e 4B08     		lsrs	r3, r1, #1
 157:modbusRTU.c   ****                 }
 3700              		.loc 1 157 0
 3701 0140 5840     		eors	r0, r3
 3702 0142 C907     		lsls	r1, r1, #31
 3703 0144 00D5     		bpl	.L490
 3704 0146 0300     		movs	r3, r0
 3705              	.L490:
 3706              	.LVL215:
 151:modbusRTU.c   **** 
 3707              		.loc 1 151 0
 3708 0148 5A40     		eors	r2, r3
 3709              	.LVL216:
 157:modbusRTU.c   ****                 }
 3710              		.loc 1 157 0
 3711 014a 2F49     		ldr	r1, .L658+20
 155:modbusRTU.c   ****                         if (flag)
 3712              		.loc 1 155 0
 3713 014c 5308     		lsrs	r3, r2, #1
 157:modbusRTU.c   ****                 }
 3714              		.loc 1 157 0
 3715 014e 5940     		eors	r1, r3
 3716 0150 D207     		lsls	r2, r2, #31
 3717 0152 00D4     		bmi	.L492
 3718 0154 1900     		movs	r1, r3
 3719              	.L492:
ARM GAS  C:\Users\AFDHAL~1\AppData\Local\Temp\ccKZJoZj.s 			page 88


 3720 0156 2C4B     		ldr	r3, .L658+20
 155:modbusRTU.c   ****                         if (flag)
 3721              		.loc 1 155 0
 3722 0158 4A08     		lsrs	r2, r1, #1
 157:modbusRTU.c   ****                 }
 3723              		.loc 1 157 0
 3724 015a 5340     		eors	r3, r2
 3725 015c C907     		lsls	r1, r1, #31
 3726 015e 00D4     		bmi	.L494
 3727 0160 1300     		movs	r3, r2
 3728              	.L494:
 3729 0162 294A     		ldr	r2, .L658+20
 155:modbusRTU.c   ****                         if (flag)
 3730              		.loc 1 155 0
 3731 0164 5908     		lsrs	r1, r3, #1
 157:modbusRTU.c   ****                 }
 3732              		.loc 1 157 0
 3733 0166 4A40     		eors	r2, r1
 3734 0168 DB07     		lsls	r3, r3, #31
 3735 016a 00D4     		bmi	.L496
 3736 016c 0A00     		movs	r2, r1
 3737              	.L496:
 3738 016e 264B     		ldr	r3, .L658+20
 155:modbusRTU.c   ****                         if (flag)
 3739              		.loc 1 155 0
 3740 0170 5108     		lsrs	r1, r2, #1
 157:modbusRTU.c   ****                 }
 3741              		.loc 1 157 0
 3742 0172 4B40     		eors	r3, r1
 3743 0174 D207     		lsls	r2, r2, #31
 3744 0176 00D4     		bmi	.L498
 3745 0178 0B00     		movs	r3, r1
 3746              	.L498:
 3747 017a 234A     		ldr	r2, .L658+20
 155:modbusRTU.c   ****                         if (flag)
 3748              		.loc 1 155 0
 3749 017c 5908     		lsrs	r1, r3, #1
 157:modbusRTU.c   ****                 }
 3750              		.loc 1 157 0
 3751 017e 4A40     		eors	r2, r1
 3752 0180 DB07     		lsls	r3, r3, #31
 3753 0182 00D4     		bmi	.L500
 3754 0184 0A00     		movs	r2, r1
 3755              	.L500:
 3756 0186 204B     		ldr	r3, .L658+20
 155:modbusRTU.c   ****                         if (flag)
 3757              		.loc 1 155 0
 3758 0188 5108     		lsrs	r1, r2, #1
 157:modbusRTU.c   ****                 }
 3759              		.loc 1 157 0
 3760 018a 4B40     		eors	r3, r1
 3761 018c D207     		lsls	r2, r2, #31
 3762 018e 00D4     		bmi	.L502
 3763 0190 0B00     		movs	r3, r1
 3764              	.L502:
 3765 0192 1D4A     		ldr	r2, .L658+20
 155:modbusRTU.c   ****                         if (flag)
ARM GAS  C:\Users\AFDHAL~1\AppData\Local\Temp\ccKZJoZj.s 			page 89


 3766              		.loc 1 155 0
 3767 0194 5908     		lsrs	r1, r3, #1
 157:modbusRTU.c   ****                 }
 3768              		.loc 1 157 0
 3769 0196 4A40     		eors	r2, r1
 3770 0198 DB07     		lsls	r3, r3, #31
 3771 019a 00D4     		bmi	.L504
 3772 019c 0A00     		movs	r2, r1
 3773              	.L504:
 3774 019e 1A4B     		ldr	r3, .L658+20
 155:modbusRTU.c   ****                         if (flag)
 3775              		.loc 1 155 0
 3776 01a0 5108     		lsrs	r1, r2, #1
 157:modbusRTU.c   ****                 }
 3777              		.loc 1 157 0
 3778 01a2 4B40     		eors	r3, r1
 3779 01a4 D207     		lsls	r2, r2, #31
 3780 01a6 00D4     		bmi	.L506
 3781 01a8 0B00     		movs	r3, r1
 3782              	.L506:
 3783              	.LVL217:
 3784              	.LBE182:
 3785              	.LBE186:
 249:modbusRTU.c   **** } 
 3786              		.loc 1 249 0
 3787 01aa 0025     		movs	r5, #0
 3788              	.LBB187:
 3789              	.LBB183:
 162:modbusRTU.c   ****         temp = (temp << 8) | temp2;
 3790              		.loc 1 162 0
 3791 01ac 1A0A     		lsrs	r2, r3, #8
 3792              	.LVL218:
 163:modbusRTU.c   ****         temp &= 0xFFFF;
 3793              		.loc 1 163 0
 3794 01ae 1B02     		lsls	r3, r3, #8
 3795              	.LVL219:
 3796 01b0 1343     		orrs	r3, r2
 3797              	.LVL220:
 164:modbusRTU.c   **** 
 3798              		.loc 1 164 0
 3799 01b2 1B04     		lsls	r3, r3, #16
 3800              	.LVL221:
 3801 01b4 1B0C     		lsrs	r3, r3, #16
 3802              	.LVL222:
 3803              	.LBE183:
 3804              	.LBE187:
 247:modbusRTU.c   ****         string_length++;
 3805              		.loc 1 247 0
 3806 01b6 1A12     		asrs	r2, r3, #8
 3807 01b8 FA70     		strb	r2, [r7, #3]
 3808              	.LVL223:
 249:modbusRTU.c   **** } 
 3809              		.loc 1 249 0
 3810 01ba 3B71     		strb	r3, [r7, #4]
 3811              	.LVL224:
 3812              	.L507:
 3813              	.LBE190:
ARM GAS  C:\Users\AFDHAL~1\AppData\Local\Temp\ccKZJoZj.s 			page 90


 3814              	.LBE193:
 272:modbusRTU.c   ****         }
 3815              		.loc 1 272 0
 3816 01bc 785D     		ldrb	r0, [r7, r5]
 3817 01be 0135     		adds	r5, r5, #1
 3818              	.LVL225:
 3819 01c0 FFF7FEFF 		bl	USB_UART_SpiUartWriteTxData
 3820              	.LVL226:
 270:modbusRTU.c   ****                 //Serial.print(char(query[i]));
 3821              		.loc 1 270 0
 3822 01c4 052D     		cmp	r5, #5
 3823 01c6 F9D1     		bne	.L507
 3824 01c8 35E7     		b	.L621
 3825              	.LVL227:
 3826              	.L655:
 3827              	.LBE196:
 3828              	.LBE202:
 563:modbusRTU.c   ****                 return 0;
 3829              		.loc 1 563 0
 3830 01ca 0C4B     		ldr	r3, .L658+8
 564:modbusRTU.c   ****         }
 3831              		.loc 1 564 0
 3832 01cc 0024     		movs	r4, #0
 563:modbusRTU.c   ****                 return 0;
 3833              		.loc 1 563 0
 3834 01ce 1860     		str	r0, [r3]
 564:modbusRTU.c   ****         }
 3835              		.loc 1 564 0
 3836 01d0 31E7     		b	.L621
 3837              	.LVL228:
 3838              	.L656:
 3839 01d2 2800     		movs	r0, r5
 3840 01d4 5DE7     		b	.L460
 3841              	.LVL229:
 3842              	.L611:
 3843 01d6 0400     		movs	r4, r0
 3844 01d8 2DE7     		b	.L621
 3845              	.LVL230:
 3846              	.L453:
 3847              	.LBB203:
 3848              	.LBB166:
 3849              	.LBB162:
 3850              	.LBB163:
 390:modbusRTU.c   ****                 if (regs_num >= regs_size)
 3851              		.loc 1 390 0
 3852 01da 6A46     		mov	r2, sp
 3853 01dc 6946     		mov	r1, sp
 3854 01de 927A     		ldrb	r2, [r2, #10]
 3855 01e0 C97A     		ldrb	r1, [r1, #11]
 3856 01e2 1202     		lsls	r2, r2, #8
 3857 01e4 5218     		adds	r2, r2, r1
 3858 01e6 1000     		movs	r0, r2
 3859              	.LVL231:
 391:modbusRTU.c   ****                         return EXC_ADDR_RANGE;
 3860              		.loc 1 391 0
 3861 01e8 9742     		cmp	r7, r2
 3862 01ea 0FD8     		bhi	.L457
ARM GAS  C:\Users\AFDHAL~1\AppData\Local\Temp\ccKZJoZj.s 			page 91


 3863              	.LVL232:
 3864              	.L615:
 3865              	.LBE163:
 3866              	.LBE162:
 410:modbusRTU.c   ****                 return EXC_ADDR_RANGE;
 3867              		.loc 1 410 0
 3868 01ec 0222     		movs	r2, #2
 3869              	.LBB165:
 3870              	.LBB164:
 392:modbusRTU.c   ****                 return 0;
 3871              		.loc 1 392 0
 3872 01ee 0224     		movs	r4, #2
 3873              	.LVL233:
 3874 01f0 40E7     		b	.L455
 3875              	.L659:
 3876 01f2 C046     		.align	2
 3877              	.L658:
 3878 01f4 00000000 		.word	long_millis
 3879 01f8 00000000 		.word	slave
 3880 01fc 00000000 		.word	lastBytesReceived
 3881 0200 00000000 		.word	.LANCHOR0
 3882 0204 FFFF0000 		.word	65535
 3883 0208 01A00000 		.word	40961
 3884              	.L457:
 3885              	.LVL234:
 3886              	.LBE164:
 3887              	.LBE165:
 3888              	.LBE166:
 3889              	.LBE203:
 619:modbusRTU.c   ****                     
 3890              		.loc 1 619 0
 3891 020c 4346     		mov	r3, r8
 3892 020e 0121     		movs	r1, #1
 3893 0210 1971     		strb	r1, [r3, #4]
 621:modbusRTU.c   ****                     
 3894              		.loc 1 621 0
 3895 0212 0B00     		movs	r3, r1
 3896 0214 4446     		mov	r4, r8
 3897 0216 8340     		lsls	r3, r3, r0
 3898 0218 A468     		ldr	r4, [r4, #8]
 3899              	.LBB204:
 3900              	.LBB205:
 3901              	.LBB206:
 3902              	.LBB207:
 212:modbusRTU.c   ****         packet[FUNC] = function;
 3903              		.loc 1 212 0
 3904 021a 6F46     		mov	r7, sp
 3905              	.LVL235:
 3906              	.LBE207:
 3907              	.LBE206:
 3908              	.LBE205:
 3909              	.LBE204:
 621:modbusRTU.c   ****                     
 3910              		.loc 1 621 0
 3911 021c 2343     		orrs	r3, r4
 3912 021e 4446     		mov	r4, r8
 3913 0220 A360     		str	r3, [r4, #8]
ARM GAS  C:\Users\AFDHAL~1\AppData\Local\Temp\ccKZJoZj.s 			page 92


 3914              	.LVL236:
 3915 0222 6B46     		mov	r3, sp
 3916              	.LBB229:
 3917              	.LBB228:
 3918              	.LBB211:
 3919              	.LBB208:
 212:modbusRTU.c   ****         packet[FUNC] = function;
 3920              		.loc 1 212 0
 3921 0224 2C78     		ldrb	r4, [r5]
 3922 0226 9B89     		ldrh	r3, [r3, #12]
 3923 0228 A046     		mov	r8, r4
 3924 022a 3C70     		strb	r4, [r7]
 213:modbusRTU.c   ****         packet[START_H] = write_addr >> 8;
 3925              		.loc 1 213 0
 3926 022c 0624     		movs	r4, #6
 3927 022e 5BBA     		rev16	r3, r3
 3928 0230 9BB2     		uxth	r3, r3
 3929              	.LVL237:
 3930 0232 7C70     		strb	r4, [r7, #1]
 214:modbusRTU.c   ****         packet[START_L] = write_addr & 0x00ff;
 3931              		.loc 1 214 0
 3932 0234 040A     		lsrs	r4, r0, #8
 3933              	.LBE208:
 3934              	.LBE211:
 488:modbusRTU.c   **** /*
 3935              		.loc 1 488 0
 3936 0236 8000     		lsls	r0, r0, #2
 3937              	.LVL238:
 3938 0238 8351     		str	r3, [r0, r6]
 3939              	.LBB212:
 3940              	.LBB209:
 216:modbusRTU.c   ****         packet[REGS_L] = reg_val & 0x00ff;
 3941              		.loc 1 216 0
 3942 023a 1D0A     		lsrs	r5, r3, #8
 214:modbusRTU.c   ****         packet[START_L] = write_addr & 0x00ff;
 3943              		.loc 1 214 0
 3944 023c A446     		mov	ip, r4
 3945 023e BC70     		strb	r4, [r7, #2]
 217:modbusRTU.c   **** } 
 3946              		.loc 1 217 0
 3947 0240 DCB2     		uxtb	r4, r3
 3948              	.LBE209:
 3949              	.LBE212:
 3950              	.LBB213:
 3951              	.LBB214:
 3952              	.LBB215:
 3953              	.LBB216:
 3954              	.LBB217:
 3955              	.LBB218:
 151:modbusRTU.c   **** 
 3956              		.loc 1 151 0
 3957 0242 4346     		mov	r3, r8
 3958              	.LVL239:
 3959 0244 BF48     		ldr	r0, .L660
 3960              	.LVL240:
 157:modbusRTU.c   ****                 }
 3961              		.loc 1 157 0
ARM GAS  C:\Users\AFDHAL~1\AppData\Local\Temp\ccKZJoZj.s 			page 93


 3962 0246 C04E     		ldr	r6, .L660+4
 3963              	.LVL241:
 151:modbusRTU.c   **** 
 3964              		.loc 1 151 0
 3965 0248 5840     		eors	r0, r3
 155:modbusRTU.c   ****                         if (flag)
 3966              		.loc 1 155 0
 3967 024a 4308     		lsrs	r3, r0, #1
 3968              	.LBE218:
 3969              	.LBE217:
 3970              	.LBE216:
 3971              	.LBE215:
 3972              	.LBE214:
 3973              	.LBE213:
 3974              	.LBB226:
 3975              	.LBB210:
 215:modbusRTU.c   ****         packet[REGS_H] = reg_val >> 8;
 3976              		.loc 1 215 0
 3977 024c FA70     		strb	r2, [r7, #3]
 216:modbusRTU.c   ****         packet[REGS_L] = reg_val & 0x00ff;
 3978              		.loc 1 216 0
 3979 024e 3D71     		strb	r5, [r7, #4]
 217:modbusRTU.c   **** } 
 3980              		.loc 1 217 0
 3981 0250 7C71     		strb	r4, [r7, #5]
 3982              	.LVL242:
 3983              	.LBE210:
 3984              	.LBE226:
 3985              	.LBB227:
 3986              	.LBB225:
 3987              	.LBB224:
 3988              	.LBB223:
 3989              	.LBB221:
 3990              	.LBB219:
 157:modbusRTU.c   ****                 }
 3991              		.loc 1 157 0
 3992 0252 5E40     		eors	r6, r3
 3993 0254 0142     		tst	r1, r0
 3994 0256 00D0     		beq	.L513
 3995 0258 3300     		movs	r3, r6
 3996              	.L513:
 3997 025a BB48     		ldr	r0, .L660+4
 155:modbusRTU.c   ****                         if (flag)
 3998              		.loc 1 155 0
 3999 025c 5908     		lsrs	r1, r3, #1
 157:modbusRTU.c   ****                 }
 4000              		.loc 1 157 0
 4001 025e 4840     		eors	r0, r1
 4002 0260 DB07     		lsls	r3, r3, #31
 4003 0262 00D5     		bpl	.L515
 4004 0264 0100     		movs	r1, r0
 4005              	.L515:
 4006 0266 B848     		ldr	r0, .L660+4
 155:modbusRTU.c   ****                         if (flag)
 4007              		.loc 1 155 0
 4008 0268 4B08     		lsrs	r3, r1, #1
 157:modbusRTU.c   ****                 }
ARM GAS  C:\Users\AFDHAL~1\AppData\Local\Temp\ccKZJoZj.s 			page 94


 4009              		.loc 1 157 0
 4010 026a 5840     		eors	r0, r3
 4011 026c C907     		lsls	r1, r1, #31
 4012 026e 00D5     		bpl	.L517
 4013 0270 0300     		movs	r3, r0
 4014              	.L517:
 4015 0272 B548     		ldr	r0, .L660+4
 155:modbusRTU.c   ****                         if (flag)
 4016              		.loc 1 155 0
 4017 0274 5908     		lsrs	r1, r3, #1
 157:modbusRTU.c   ****                 }
 4018              		.loc 1 157 0
 4019 0276 4840     		eors	r0, r1
 4020 0278 DB07     		lsls	r3, r3, #31
 4021 027a 00D5     		bpl	.L519
 4022 027c 0100     		movs	r1, r0
 4023              	.L519:
 4024 027e B248     		ldr	r0, .L660+4
 155:modbusRTU.c   ****                         if (flag)
 4025              		.loc 1 155 0
 4026 0280 4B08     		lsrs	r3, r1, #1
 157:modbusRTU.c   ****                 }
 4027              		.loc 1 157 0
 4028 0282 5840     		eors	r0, r3
 4029 0284 C907     		lsls	r1, r1, #31
 4030 0286 00D5     		bpl	.L521
 4031 0288 0300     		movs	r3, r0
 4032              	.L521:
 4033 028a AF48     		ldr	r0, .L660+4
 155:modbusRTU.c   ****                         if (flag)
 4034              		.loc 1 155 0
 4035 028c 5908     		lsrs	r1, r3, #1
 157:modbusRTU.c   ****                 }
 4036              		.loc 1 157 0
 4037 028e 4840     		eors	r0, r1
 4038 0290 DB07     		lsls	r3, r3, #31
 4039 0292 00D5     		bpl	.L523
 4040 0294 0100     		movs	r1, r0
 4041              	.L523:
 4042 0296 AC48     		ldr	r0, .L660+4
 155:modbusRTU.c   ****                         if (flag)
 4043              		.loc 1 155 0
 4044 0298 4B08     		lsrs	r3, r1, #1
 157:modbusRTU.c   ****                 }
 4045              		.loc 1 157 0
 4046 029a 5840     		eors	r0, r3
 4047 029c C907     		lsls	r1, r1, #31
 4048 029e 00D5     		bpl	.L525
 4049 02a0 0300     		movs	r3, r0
 4050              	.L525:
 4051 02a2 A948     		ldr	r0, .L660+4
 155:modbusRTU.c   ****                         if (flag)
 4052              		.loc 1 155 0
 4053 02a4 5908     		lsrs	r1, r3, #1
 157:modbusRTU.c   ****                 }
 4054              		.loc 1 157 0
 4055 02a6 4840     		eors	r0, r1
ARM GAS  C:\Users\AFDHAL~1\AppData\Local\Temp\ccKZJoZj.s 			page 95


 4056 02a8 DB07     		lsls	r3, r3, #31
 4057 02aa 00D5     		bpl	.L527
 4058 02ac 0100     		movs	r1, r0
 4059              	.L527:
 4060              	.LVL243:
 151:modbusRTU.c   **** 
 4061              		.loc 1 151 0
 4062 02ae 0623     		movs	r3, #6
 157:modbusRTU.c   ****                 }
 4063              		.loc 1 157 0
 4064 02b0 A548     		ldr	r0, .L660+4
 151:modbusRTU.c   **** 
 4065              		.loc 1 151 0
 4066 02b2 5940     		eors	r1, r3
 4067              	.LVL244:
 155:modbusRTU.c   ****                         if (flag)
 4068              		.loc 1 155 0
 4069 02b4 4B08     		lsrs	r3, r1, #1
 157:modbusRTU.c   ****                 }
 4070              		.loc 1 157 0
 4071 02b6 5840     		eors	r0, r3
 4072 02b8 C907     		lsls	r1, r1, #31
 4073 02ba 00D5     		bpl	.L529
 4074 02bc 0300     		movs	r3, r0
 4075              	.L529:
 4076 02be A249     		ldr	r1, .L660+4
 155:modbusRTU.c   ****                         if (flag)
 4077              		.loc 1 155 0
 4078 02c0 5808     		lsrs	r0, r3, #1
 157:modbusRTU.c   ****                 }
 4079              		.loc 1 157 0
 4080 02c2 4140     		eors	r1, r0
 4081 02c4 DB07     		lsls	r3, r3, #31
 4082 02c6 00D4     		bmi	.L531
 4083 02c8 0100     		movs	r1, r0
 4084              	.L531:
 4085 02ca 9F4B     		ldr	r3, .L660+4
 155:modbusRTU.c   ****                         if (flag)
 4086              		.loc 1 155 0
 4087 02cc 4808     		lsrs	r0, r1, #1
 157:modbusRTU.c   ****                 }
 4088              		.loc 1 157 0
 4089 02ce 4340     		eors	r3, r0
 4090 02d0 C907     		lsls	r1, r1, #31
 4091 02d2 00D4     		bmi	.L533
 4092 02d4 0300     		movs	r3, r0
 4093              	.L533:
 4094 02d6 9C49     		ldr	r1, .L660+4
 155:modbusRTU.c   ****                         if (flag)
 4095              		.loc 1 155 0
 4096 02d8 5808     		lsrs	r0, r3, #1
 157:modbusRTU.c   ****                 }
 4097              		.loc 1 157 0
 4098 02da 4140     		eors	r1, r0
 4099 02dc DB07     		lsls	r3, r3, #31
 4100 02de 00D4     		bmi	.L535
 4101 02e0 0100     		movs	r1, r0
ARM GAS  C:\Users\AFDHAL~1\AppData\Local\Temp\ccKZJoZj.s 			page 96


 4102              	.L535:
 4103 02e2 994B     		ldr	r3, .L660+4
 155:modbusRTU.c   ****                         if (flag)
 4104              		.loc 1 155 0
 4105 02e4 4808     		lsrs	r0, r1, #1
 157:modbusRTU.c   ****                 }
 4106              		.loc 1 157 0
 4107 02e6 4340     		eors	r3, r0
 4108 02e8 C907     		lsls	r1, r1, #31
 4109 02ea 00D4     		bmi	.L537
 4110 02ec 0300     		movs	r3, r0
 4111              	.L537:
 4112 02ee 9648     		ldr	r0, .L660+4
 155:modbusRTU.c   ****                         if (flag)
 4113              		.loc 1 155 0
 4114 02f0 5908     		lsrs	r1, r3, #1
 157:modbusRTU.c   ****                 }
 4115              		.loc 1 157 0
 4116 02f2 4840     		eors	r0, r1
 4117 02f4 DB07     		lsls	r3, r3, #31
 4118 02f6 00D5     		bpl	.L539
 4119 02f8 0100     		movs	r1, r0
 4120              	.L539:
 4121 02fa 9348     		ldr	r0, .L660+4
 155:modbusRTU.c   ****                         if (flag)
 4122              		.loc 1 155 0
 4123 02fc 4B08     		lsrs	r3, r1, #1
 157:modbusRTU.c   ****                 }
 4124              		.loc 1 157 0
 4125 02fe 5840     		eors	r0, r3
 4126 0300 C907     		lsls	r1, r1, #31
 4127 0302 00D4     		bmi	.L541
 4128 0304 1800     		movs	r0, r3
 4129              	.L541:
 4130 0306 904B     		ldr	r3, .L660+4
 155:modbusRTU.c   ****                         if (flag)
 4131              		.loc 1 155 0
 4132 0308 4108     		lsrs	r1, r0, #1
 157:modbusRTU.c   ****                 }
 4133              		.loc 1 157 0
 4134 030a 4B40     		eors	r3, r1
 4135 030c C007     		lsls	r0, r0, #31
 4136 030e 00D4     		bmi	.L543
 4137 0310 0B00     		movs	r3, r1
 4138              	.L543:
 4139              	.LVL245:
 151:modbusRTU.c   **** 
 4140              		.loc 1 151 0
 4141 0312 6146     		mov	r1, ip
 4142 0314 5940     		eors	r1, r3
 4143 0316 0B00     		movs	r3, r1
 4144              	.LVL246:
 155:modbusRTU.c   ****                         if (flag)
 4145              		.loc 1 155 0
 4146 0318 4808     		lsrs	r0, r1, #1
 157:modbusRTU.c   ****                 }
 4147              		.loc 1 157 0
ARM GAS  C:\Users\AFDHAL~1\AppData\Local\Temp\ccKZJoZj.s 			page 97


 4148 031a 8B49     		ldr	r1, .L660+4
 4149 031c 4140     		eors	r1, r0
 4150 031e DB07     		lsls	r3, r3, #31
 4151 0320 00D4     		bmi	.L545
 4152 0322 0100     		movs	r1, r0
 4153              	.L545:
 4154 0324 884B     		ldr	r3, .L660+4
 155:modbusRTU.c   ****                         if (flag)
 4155              		.loc 1 155 0
 4156 0326 4808     		lsrs	r0, r1, #1
 157:modbusRTU.c   ****                 }
 4157              		.loc 1 157 0
 4158 0328 4340     		eors	r3, r0
 4159 032a C907     		lsls	r1, r1, #31
 4160 032c 00D4     		bmi	.L547
 4161 032e 0300     		movs	r3, r0
 4162              	.L547:
 4163 0330 8549     		ldr	r1, .L660+4
 155:modbusRTU.c   ****                         if (flag)
 4164              		.loc 1 155 0
 4165 0332 5808     		lsrs	r0, r3, #1
 157:modbusRTU.c   ****                 }
 4166              		.loc 1 157 0
 4167 0334 4140     		eors	r1, r0
 4168 0336 DB07     		lsls	r3, r3, #31
 4169 0338 00D4     		bmi	.L549
 4170 033a 0100     		movs	r1, r0
 4171              	.L549:
 4172 033c 824B     		ldr	r3, .L660+4
 155:modbusRTU.c   ****                         if (flag)
 4173              		.loc 1 155 0
 4174 033e 4808     		lsrs	r0, r1, #1
 157:modbusRTU.c   ****                 }
 4175              		.loc 1 157 0
 4176 0340 4340     		eors	r3, r0
 4177 0342 C907     		lsls	r1, r1, #31
 4178 0344 00D4     		bmi	.L551
 4179 0346 0300     		movs	r3, r0
 4180              	.L551:
 4181 0348 7F49     		ldr	r1, .L660+4
 155:modbusRTU.c   ****                         if (flag)
 4182              		.loc 1 155 0
 4183 034a 5808     		lsrs	r0, r3, #1
 157:modbusRTU.c   ****                 }
 4184              		.loc 1 157 0
 4185 034c 4140     		eors	r1, r0
 4186 034e DB07     		lsls	r3, r3, #31
 4187 0350 00D4     		bmi	.L553
 4188 0352 0100     		movs	r1, r0
 4189              	.L553:
 4190 0354 7C4B     		ldr	r3, .L660+4
 155:modbusRTU.c   ****                         if (flag)
 4191              		.loc 1 155 0
 4192 0356 4808     		lsrs	r0, r1, #1
 157:modbusRTU.c   ****                 }
 4193              		.loc 1 157 0
 4194 0358 4340     		eors	r3, r0
ARM GAS  C:\Users\AFDHAL~1\AppData\Local\Temp\ccKZJoZj.s 			page 98


 4195 035a C907     		lsls	r1, r1, #31
 4196 035c 00D4     		bmi	.L555
 4197 035e 0300     		movs	r3, r0
 4198              	.L555:
 4199 0360 7948     		ldr	r0, .L660+4
 155:modbusRTU.c   ****                         if (flag)
 4200              		.loc 1 155 0
 4201 0362 5908     		lsrs	r1, r3, #1
 157:modbusRTU.c   ****                 }
 4202              		.loc 1 157 0
 4203 0364 4840     		eors	r0, r1
 4204 0366 DB07     		lsls	r3, r3, #31
 4205 0368 00D4     		bmi	.L557
 4206 036a 0800     		movs	r0, r1
 4207              	.L557:
 4208 036c 7649     		ldr	r1, .L660+4
 155:modbusRTU.c   ****                         if (flag)
 4209              		.loc 1 155 0
 4210 036e 4608     		lsrs	r6, r0, #1
 157:modbusRTU.c   ****                 }
 4211              		.loc 1 157 0
 4212 0370 0B00     		movs	r3, r1
 4213 0372 7340     		eors	r3, r6
 4214 0374 C107     		lsls	r1, r0, #31
 4215 0376 00D4     		bmi	.L559
 4216 0378 3300     		movs	r3, r6
 4217              	.L559:
 4218              	.LVL247:
 151:modbusRTU.c   **** 
 4219              		.loc 1 151 0
 4220 037a FF21     		movs	r1, #255
 4221 037c 0A40     		ands	r2, r1
 4222              	.LVL248:
 4223 037e 5A40     		eors	r2, r3
 4224 0380 1100     		movs	r1, r2
 4225              	.LVL249:
 157:modbusRTU.c   ****                 }
 4226              		.loc 1 157 0
 4227 0382 714B     		ldr	r3, .L660+4
 155:modbusRTU.c   ****                         if (flag)
 4228              		.loc 1 155 0
 4229 0384 5208     		lsrs	r2, r2, #1
 157:modbusRTU.c   ****                 }
 4230              		.loc 1 157 0
 4231 0386 5340     		eors	r3, r2
 4232 0388 C907     		lsls	r1, r1, #31
 4233 038a 00D4     		bmi	.L561
 4234 038c 1300     		movs	r3, r2
 4235              	.L561:
 4236 038e 6E4A     		ldr	r2, .L660+4
 155:modbusRTU.c   ****                         if (flag)
 4237              		.loc 1 155 0
 4238 0390 5908     		lsrs	r1, r3, #1
 157:modbusRTU.c   ****                 }
 4239              		.loc 1 157 0
 4240 0392 4A40     		eors	r2, r1
 4241 0394 DB07     		lsls	r3, r3, #31
ARM GAS  C:\Users\AFDHAL~1\AppData\Local\Temp\ccKZJoZj.s 			page 99


 4242 0396 00D4     		bmi	.L563
 4243 0398 0A00     		movs	r2, r1
 4244              	.L563:
 4245 039a 6B4B     		ldr	r3, .L660+4
 155:modbusRTU.c   ****                         if (flag)
 4246              		.loc 1 155 0
 4247 039c 5108     		lsrs	r1, r2, #1
 157:modbusRTU.c   ****                 }
 4248              		.loc 1 157 0
 4249 039e 4B40     		eors	r3, r1
 4250 03a0 D207     		lsls	r2, r2, #31
 4251 03a2 00D4     		bmi	.L565
 4252 03a4 0B00     		movs	r3, r1
 4253              	.L565:
 4254 03a6 684A     		ldr	r2, .L660+4
 155:modbusRTU.c   ****                         if (flag)
 4255              		.loc 1 155 0
 4256 03a8 5908     		lsrs	r1, r3, #1
 157:modbusRTU.c   ****                 }
 4257              		.loc 1 157 0
 4258 03aa 4A40     		eors	r2, r1
 4259 03ac DB07     		lsls	r3, r3, #31
 4260 03ae 00D4     		bmi	.L567
 4261 03b0 0A00     		movs	r2, r1
 4262              	.L567:
 4263 03b2 654B     		ldr	r3, .L660+4
 155:modbusRTU.c   ****                         if (flag)
 4264              		.loc 1 155 0
 4265 03b4 5108     		lsrs	r1, r2, #1
 157:modbusRTU.c   ****                 }
 4266              		.loc 1 157 0
 4267 03b6 4B40     		eors	r3, r1
 4268 03b8 D207     		lsls	r2, r2, #31
 4269 03ba 00D4     		bmi	.L569
 4270 03bc 0B00     		movs	r3, r1
 4271              	.L569:
 4272 03be 624A     		ldr	r2, .L660+4
 155:modbusRTU.c   ****                         if (flag)
 4273              		.loc 1 155 0
 4274 03c0 5908     		lsrs	r1, r3, #1
 157:modbusRTU.c   ****                 }
 4275              		.loc 1 157 0
 4276 03c2 4A40     		eors	r2, r1
 4277 03c4 DB07     		lsls	r3, r3, #31
 4278 03c6 00D4     		bmi	.L571
 4279 03c8 0A00     		movs	r2, r1
 4280              	.L571:
 4281 03ca 5F4B     		ldr	r3, .L660+4
 155:modbusRTU.c   ****                         if (flag)
 4282              		.loc 1 155 0
 4283 03cc 5108     		lsrs	r1, r2, #1
 157:modbusRTU.c   ****                 }
 4284              		.loc 1 157 0
 4285 03ce 4B40     		eors	r3, r1
 4286 03d0 D207     		lsls	r2, r2, #31
 4287 03d2 00D4     		bmi	.L573
 4288 03d4 0B00     		movs	r3, r1
ARM GAS  C:\Users\AFDHAL~1\AppData\Local\Temp\ccKZJoZj.s 			page 100


 4289              	.L573:
 4290 03d6 5C4A     		ldr	r2, .L660+4
 155:modbusRTU.c   ****                         if (flag)
 4291              		.loc 1 155 0
 4292 03d8 5908     		lsrs	r1, r3, #1
 157:modbusRTU.c   ****                 }
 4293              		.loc 1 157 0
 4294 03da 4A40     		eors	r2, r1
 4295 03dc DB07     		lsls	r3, r3, #31
 4296 03de 00D4     		bmi	.L575
 4297 03e0 0A00     		movs	r2, r1
 4298              	.L575:
 4299              	.LVL250:
 151:modbusRTU.c   **** 
 4300              		.loc 1 151 0
 4301 03e2 6A40     		eors	r2, r5
 4302              	.LVL251:
 157:modbusRTU.c   ****                 }
 4303              		.loc 1 157 0
 4304 03e4 5849     		ldr	r1, .L660+4
 155:modbusRTU.c   ****                         if (flag)
 4305              		.loc 1 155 0
 4306 03e6 5308     		lsrs	r3, r2, #1
 157:modbusRTU.c   ****                 }
 4307              		.loc 1 157 0
 4308 03e8 5940     		eors	r1, r3
 4309 03ea D207     		lsls	r2, r2, #31
 4310 03ec 00D4     		bmi	.L577
 4311 03ee 1900     		movs	r1, r3
 4312              	.L577:
 4313 03f0 554B     		ldr	r3, .L660+4
 155:modbusRTU.c   ****                         if (flag)
 4314              		.loc 1 155 0
 4315 03f2 4A08     		lsrs	r2, r1, #1
 157:modbusRTU.c   ****                 }
 4316              		.loc 1 157 0
 4317 03f4 5340     		eors	r3, r2
 4318 03f6 C907     		lsls	r1, r1, #31
 4319 03f8 00D4     		bmi	.L579
 4320 03fa 1300     		movs	r3, r2
 4321              	.L579:
 4322 03fc 524A     		ldr	r2, .L660+4
 155:modbusRTU.c   ****                         if (flag)
 4323              		.loc 1 155 0
 4324 03fe 5908     		lsrs	r1, r3, #1
 157:modbusRTU.c   ****                 }
 4325              		.loc 1 157 0
 4326 0400 4A40     		eors	r2, r1
 4327 0402 DB07     		lsls	r3, r3, #31
 4328 0404 00D4     		bmi	.L581
 4329 0406 0A00     		movs	r2, r1
 4330              	.L581:
 4331 0408 4F4B     		ldr	r3, .L660+4
 155:modbusRTU.c   ****                         if (flag)
 4332              		.loc 1 155 0
 4333 040a 5108     		lsrs	r1, r2, #1
 157:modbusRTU.c   ****                 }
ARM GAS  C:\Users\AFDHAL~1\AppData\Local\Temp\ccKZJoZj.s 			page 101


 4334              		.loc 1 157 0
 4335 040c 4B40     		eors	r3, r1
 4336 040e D207     		lsls	r2, r2, #31
 4337 0410 00D4     		bmi	.L583
 4338 0412 0B00     		movs	r3, r1
 4339              	.L583:
 4340 0414 4C4A     		ldr	r2, .L660+4
 155:modbusRTU.c   ****                         if (flag)
 4341              		.loc 1 155 0
 4342 0416 5908     		lsrs	r1, r3, #1
 157:modbusRTU.c   ****                 }
 4343              		.loc 1 157 0
 4344 0418 4A40     		eors	r2, r1
 4345 041a DB07     		lsls	r3, r3, #31
 4346 041c 00D4     		bmi	.L585
 4347 041e 0A00     		movs	r2, r1
 4348              	.L585:
 4349 0420 494B     		ldr	r3, .L660+4
 155:modbusRTU.c   ****                         if (flag)
 4350              		.loc 1 155 0
 4351 0422 5108     		lsrs	r1, r2, #1
 157:modbusRTU.c   ****                 }
 4352              		.loc 1 157 0
 4353 0424 4B40     		eors	r3, r1
 4354 0426 D207     		lsls	r2, r2, #31
 4355 0428 00D4     		bmi	.L587
 4356 042a 0B00     		movs	r3, r1
 4357              	.L587:
 4358 042c 464A     		ldr	r2, .L660+4
 155:modbusRTU.c   ****                         if (flag)
 4359              		.loc 1 155 0
 4360 042e 5908     		lsrs	r1, r3, #1
 157:modbusRTU.c   ****                 }
 4361              		.loc 1 157 0
 4362 0430 4A40     		eors	r2, r1
 4363 0432 DB07     		lsls	r3, r3, #31
 4364 0434 00D4     		bmi	.L589
 4365 0436 0A00     		movs	r2, r1
 4366              	.L589:
 4367 0438 434B     		ldr	r3, .L660+4
 155:modbusRTU.c   ****                         if (flag)
 4368              		.loc 1 155 0
 4369 043a 5108     		lsrs	r1, r2, #1
 157:modbusRTU.c   ****                 }
 4370              		.loc 1 157 0
 4371 043c 4B40     		eors	r3, r1
 4372 043e D207     		lsls	r2, r2, #31
 4373 0440 00D4     		bmi	.L591
 4374 0442 0B00     		movs	r3, r1
 4375              	.L591:
 4376              	.LVL252:
 151:modbusRTU.c   **** 
 4377              		.loc 1 151 0
 4378 0444 6340     		eors	r3, r4
 4379              	.LVL253:
 157:modbusRTU.c   ****                 }
 4380              		.loc 1 157 0
ARM GAS  C:\Users\AFDHAL~1\AppData\Local\Temp\ccKZJoZj.s 			page 102


 4381 0446 404A     		ldr	r2, .L660+4
 155:modbusRTU.c   ****                         if (flag)
 4382              		.loc 1 155 0
 4383 0448 5908     		lsrs	r1, r3, #1
 157:modbusRTU.c   ****                 }
 4384              		.loc 1 157 0
 4385 044a 4A40     		eors	r2, r1
 4386 044c DB07     		lsls	r3, r3, #31
 4387 044e 00D4     		bmi	.L593
 4388 0450 0A00     		movs	r2, r1
 4389              	.L593:
 4390 0452 3D4B     		ldr	r3, .L660+4
 155:modbusRTU.c   ****                         if (flag)
 4391              		.loc 1 155 0
 4392 0454 5108     		lsrs	r1, r2, #1
 157:modbusRTU.c   ****                 }
 4393              		.loc 1 157 0
 4394 0456 4B40     		eors	r3, r1
 4395 0458 D207     		lsls	r2, r2, #31
 4396 045a 00D4     		bmi	.L595
 4397 045c 0B00     		movs	r3, r1
 4398              	.L595:
 4399 045e 3A4A     		ldr	r2, .L660+4
 155:modbusRTU.c   ****                         if (flag)
 4400              		.loc 1 155 0
 4401 0460 5908     		lsrs	r1, r3, #1
 157:modbusRTU.c   ****                 }
 4402              		.loc 1 157 0
 4403 0462 4A40     		eors	r2, r1
 4404 0464 DB07     		lsls	r3, r3, #31
 4405 0466 00D4     		bmi	.L597
 4406 0468 0A00     		movs	r2, r1
 4407              	.L597:
 4408 046a 374B     		ldr	r3, .L660+4
 155:modbusRTU.c   ****                         if (flag)
 4409              		.loc 1 155 0
 4410 046c 5108     		lsrs	r1, r2, #1
 157:modbusRTU.c   ****                 }
 4411              		.loc 1 157 0
 4412 046e 4B40     		eors	r3, r1
 4413 0470 D207     		lsls	r2, r2, #31
 4414 0472 00D4     		bmi	.L599
 4415 0474 0B00     		movs	r3, r1
 4416              	.L599:
 4417 0476 344A     		ldr	r2, .L660+4
 155:modbusRTU.c   ****                         if (flag)
 4418              		.loc 1 155 0
 4419 0478 5908     		lsrs	r1, r3, #1
 157:modbusRTU.c   ****                 }
 4420              		.loc 1 157 0
 4421 047a 4A40     		eors	r2, r1
 4422 047c DB07     		lsls	r3, r3, #31
 4423 047e 00D4     		bmi	.L601
 4424 0480 0A00     		movs	r2, r1
 4425              	.L601:
 4426 0482 314B     		ldr	r3, .L660+4
 155:modbusRTU.c   ****                         if (flag)
ARM GAS  C:\Users\AFDHAL~1\AppData\Local\Temp\ccKZJoZj.s 			page 103


 4427              		.loc 1 155 0
 4428 0484 5108     		lsrs	r1, r2, #1
 157:modbusRTU.c   ****                 }
 4429              		.loc 1 157 0
 4430 0486 4B40     		eors	r3, r1
 4431 0488 D207     		lsls	r2, r2, #31
 4432 048a 00D4     		bmi	.L603
 4433 048c 0B00     		movs	r3, r1
 4434              	.L603:
 4435 048e 2E4A     		ldr	r2, .L660+4
 155:modbusRTU.c   ****                         if (flag)
 4436              		.loc 1 155 0
 4437 0490 5908     		lsrs	r1, r3, #1
 157:modbusRTU.c   ****                 }
 4438              		.loc 1 157 0
 4439 0492 4A40     		eors	r2, r1
 4440 0494 DB07     		lsls	r3, r3, #31
 4441 0496 00D4     		bmi	.L605
 4442 0498 0A00     		movs	r2, r1
 4443              	.L605:
 4444 049a 2B4B     		ldr	r3, .L660+4
 155:modbusRTU.c   ****                         if (flag)
 4445              		.loc 1 155 0
 4446 049c 5108     		lsrs	r1, r2, #1
 157:modbusRTU.c   ****                 }
 4447              		.loc 1 157 0
 4448 049e 4B40     		eors	r3, r1
 4449 04a0 D207     		lsls	r2, r2, #31
 4450 04a2 00D4     		bmi	.L607
 4451 04a4 0B00     		movs	r3, r1
 4452              	.L607:
 4453              	.LVL254:
 4454              	.LBE219:
 4455              	.LBE221:
 249:modbusRTU.c   **** } 
 4456              		.loc 1 249 0
 4457 04a6 0024     		movs	r4, #0
 4458              	.LBB222:
 4459              	.LBB220:
 162:modbusRTU.c   ****         temp = (temp << 8) | temp2;
 4460              		.loc 1 162 0
 4461 04a8 1A0A     		lsrs	r2, r3, #8
 4462              	.LVL255:
 163:modbusRTU.c   ****         temp &= 0xFFFF;
 4463              		.loc 1 163 0
 4464 04aa 1B02     		lsls	r3, r3, #8
 4465              	.LVL256:
 4466 04ac 1343     		orrs	r3, r2
 4467              	.LVL257:
 164:modbusRTU.c   **** 
 4468              		.loc 1 164 0
 4469 04ae 1B04     		lsls	r3, r3, #16
 4470              	.LVL258:
 4471 04b0 1B0C     		lsrs	r3, r3, #16
 4472              	.LVL259:
 4473              	.LBE220:
 4474              	.LBE222:
ARM GAS  C:\Users\AFDHAL~1\AppData\Local\Temp\ccKZJoZj.s 			page 104


 247:modbusRTU.c   ****         string_length++;
 4475              		.loc 1 247 0
 4476 04b2 1A12     		asrs	r2, r3, #8
 4477 04b4 BA71     		strb	r2, [r7, #6]
 4478              	.LVL260:
 249:modbusRTU.c   **** } 
 4479              		.loc 1 249 0
 4480 04b6 FB71     		strb	r3, [r7, #7]
 4481              	.LVL261:
 4482              	.L608:
 4483              	.LBE223:
 4484              	.LBE224:
 272:modbusRTU.c   ****         }
 4485              		.loc 1 272 0
 4486 04b8 385D     		ldrb	r0, [r7, r4]
 4487 04ba 0134     		adds	r4, r4, #1
 4488              	.LVL262:
 4489 04bc FFF7FEFF 		bl	USB_UART_SpiUartWriteTxData
 4490              	.LVL263:
 270:modbusRTU.c   ****                 //Serial.print(char(query[i]));
 4491              		.loc 1 270 0
 4492 04c0 082C     		cmp	r4, #8
 4493 04c2 F9D1     		bne	.L608
 4494              	.LVL264:
 4495              	.L653:
 4496              	.LBE225:
 4497              	.LBE227:
 4498              	.LBE228:
 4499              	.LBE229:
 630:modbusRTU.c   **** }
 4500              		.loc 1 630 0
 4501 04c4 0024     		movs	r4, #0
 4502 04c6 B6E5     		b	.L621
 4503              	.LVL265:
 4504              	.L452:
 4505              	.LBB230:
 4506              	.LBB167:
 397:modbusRTU.c   **** 
 4507              		.loc 1 397 0
 4508 04c8 6A46     		mov	r2, sp
 4509 04ca 517B     		ldrb	r1, [r2, #13]
 4510 04cc 147B     		ldrb	r4, [r2, #12]
 401:modbusRTU.c   ****         else if (FC_WRITE_REGS == data[FUNC])
 4511              		.loc 1 401 0
 4512 04ce 7D22     		movs	r2, #125
 397:modbusRTU.c   **** 
 4513              		.loc 1 397 0
 4514 04d0 2402     		lsls	r4, r4, #8
 4515 04d2 6418     		adds	r4, r4, r1
 4516              	.LVL266:
 4517              	.L609:
 405:modbusRTU.c   ****                 return EXC_REGS_QUANT;
 4518              		.loc 1 405 0
 4519 04d4 002C     		cmp	r4, #0
 4520 04d6 02D1     		bne	.L657
 4521              	.L614:
 4522 04d8 0322     		movs	r2, #3
ARM GAS  C:\Users\AFDHAL~1\AppData\Local\Temp\ccKZJoZj.s 			page 105


 4523              	.LVL267:
 406:modbusRTU.c   **** 
 4524              		.loc 1 406 0
 4525 04da 0324     		movs	r4, #3
 4526              	.LVL268:
 4527 04dc CAE5     		b	.L455
 4528              	.LVL269:
 4529              	.L657:
 405:modbusRTU.c   ****                 return EXC_REGS_QUANT;
 4530              		.loc 1 405 0
 4531 04de 9442     		cmp	r4, r2
 4532 04e0 FAD8     		bhi	.L614
 409:modbusRTU.c   ****         if ((start_addr + regs_num) > regs_size)
 4533              		.loc 1 409 0
 4534 04e2 6A46     		mov	r2, sp
 4535              	.LVL270:
 4536 04e4 907A     		ldrb	r0, [r2, #10]
 4537              	.LVL271:
 4538 04e6 0202     		lsls	r2, r0, #8
 4539 04e8 6846     		mov	r0, sp
 4540 04ea C07A     		ldrb	r0, [r0, #11]
 4541 04ec 1018     		adds	r0, r2, r0
 410:modbusRTU.c   ****                 return EXC_ADDR_RANGE;
 4542              		.loc 1 410 0
 4543 04ee 2418     		adds	r4, r4, r0
 4544              	.LVL272:
 409:modbusRTU.c   ****         if ((start_addr + regs_num) > regs_size)
 4545              		.loc 1 409 0
 4546 04f0 0200     		movs	r2, r0
 4547              	.LVL273:
 410:modbusRTU.c   ****                 return EXC_ADDR_RANGE;
 4548              		.loc 1 410 0
 4549 04f2 A742     		cmp	r7, r4
 4550 04f4 00D2     		bcs	.LCB4596
 4551 04f6 79E6     		b	.L615	@long jump
 4552              	.LCB4596:
 4553              	.LVL274:
 4554              	.LBE167:
 4555              	.LBE230:
 593:modbusRTU.c   ****                 case FC_READ_REGS:
 4556              		.loc 1 593 0
 4557 04f8 062B     		cmp	r3, #6
 4558 04fa 00D1     		bne	.LCB4608
 4559 04fc 86E6     		b	.L457	@long jump
 4560              	.LCB4608:
 4561 04fe 102B     		cmp	r3, #16
 4562 0500 06D0     		beq	.L508
 4563 0502 032B     		cmp	r3, #3
 4564 0504 DED1     		bne	.L653
 595:modbusRTU.c   ****                         start_addr,
 4565              		.loc 1 595 0
 4566 0506 3200     		movs	r2, r6
 4567 0508 FFF7FEFF 		bl	read_holding_registers
 4568              	.LVL275:
 4569 050c 0400     		movs	r4, r0
 4570 050e 92E5     		b	.L621
 4571              	.LVL276:
ARM GAS  C:\Users\AFDHAL~1\AppData\Local\Temp\ccKZJoZj.s 			page 106


 4572              	.L508:
 4573              	.LBB231:
 602:modbusRTU.c   ****                     
 4574              		.loc 1 602 0
 4575 0510 0123     		movs	r3, #1
 4576 0512 4246     		mov	r2, r8
 4577 0514 1371     		strb	r3, [r2, #4]
 4578              	.LVL277:
 605:modbusRTU.c   ****                     {
 4579              		.loc 1 605 0
 4580 0516 0029     		cmp	r1, #0
 4581 0518 0ED0     		beq	.L510
 4582 051a 0300     		movs	r3, r0
 607:modbusRTU.c   ****                     }
 4583              		.loc 1 607 0
 4584 051c 0127     		movs	r7, #1
 4585              	.LVL278:
 4586 051e 4D1E     		subs	r5, r1, #1
 4587 0520 EDB2     		uxtb	r5, r5
 4588 0522 0135     		adds	r5, r5, #1
 4589 0524 9268     		ldr	r2, [r2, #8]
 4590 0526 2D18     		adds	r5, r5, r0
 4591              	.LVL279:
 4592              	.L511:
 607:modbusRTU.c   ****                     }
 4593              		.loc 1 607 0 is_stmt 0 discriminator 3
 4594 0528 3C00     		movs	r4, r7
 4595 052a 9C40     		lsls	r4, r4, r3
 4596 052c 0133     		adds	r3, r3, #1
 4597              	.LVL280:
 4598 052e 2243     		orrs	r2, r4
 605:modbusRTU.c   ****                     {
 4599              		.loc 1 605 0 is_stmt 1 discriminator 3
 4600 0530 9D42     		cmp	r5, r3
 4601 0532 F9D1     		bne	.L511
 4602 0534 4346     		mov	r3, r8
 4603 0536 9A60     		str	r2, [r3, #8]
 4604              	.L510:
 610:modbusRTU.c   ****                     start_addr,
 4605              		.loc 1 610 0
 4606 0538 3300     		movs	r3, r6
 4607 053a 02AA     		add	r2, sp, #8
 4608 053c FFF7FEFF 		bl	preset_multiple_registers
 4609              	.LVL281:
 4610 0540 0400     		movs	r4, r0
 4611 0542 78E5     		b	.L621
 4612              	.L661:
 4613              		.align	2
 4614              	.L660:
 4615 0544 FFFF0000 		.word	65535
 4616 0548 01A00000 		.word	40961
 4617              	.LVL282:
 4618              	.L454:
 4619              	.LBE231:
 4620              	.LBB232:
 4621              	.LBB168:
 397:modbusRTU.c   **** 
ARM GAS  C:\Users\AFDHAL~1\AppData\Local\Temp\ccKZJoZj.s 			page 107


 4622              		.loc 1 397 0
 4623 054c 6A46     		mov	r2, sp
 4624 054e 147B     		ldrb	r4, [r2, #12]
 4625 0550 517B     		ldrb	r1, [r2, #13]
 4626 0552 2402     		lsls	r4, r4, #8
 4627 0554 6418     		adds	r4, r4, r1
 4628              	.LVL283:
 403:modbusRTU.c   **** 
 4629              		.loc 1 403 0
 4630 0556 7B22     		movs	r2, #123
 4631 0558 BCE7     		b	.L609
 4632              	.LBE168:
 4633              	.LBE232:
 4634              		.cfi_endproc
 4635              	.LFE48:
 4636              		.size	modbusRTU_Update, .-modbusRTU_Update
 4637              		.global	T35
 4638              		.comm	lastBytesReceived,4,4
 4639              		.global	Nowdt
 4640              		.global	fsupported
 4641              		.comm	slave,1,1
 4642              		.global	modbusRTU_written_register_flags
 4643              		.global	modbusRTU_Written
 4644 055a C046     		.section	.rodata
 4645              		.align	2
 4646              		.type	T35, %object
 4647              		.size	T35, 4
 4648              	T35:
 4649 0000 05000000 		.word	5
 4650              		.type	fsupported, %object
 4651              		.size	fsupported, 3
 4652              	fsupported:
 4653 0004 03       		.byte	3
 4654 0005 06       		.byte	6
 4655 0006 10       		.byte	16
 4656              		.bss
 4657              		.align	2
 4658              		.set	.LANCHOR0,. + 0
 4659              		.type	Nowdt, %object
 4660              		.size	Nowdt, 4
 4661              	Nowdt:
 4662 0000 00000000 		.space	4
 4663              		.type	modbusRTU_Written, %object
 4664              		.size	modbusRTU_Written, 1
 4665              	modbusRTU_Written:
 4666 0004 00       		.space	1
 4667 0005 000000   		.space	3
 4668              		.type	modbusRTU_written_register_flags, %object
 4669              		.size	modbusRTU_written_register_flags, 4
 4670              	modbusRTU_written_register_flags:
 4671 0008 00000000 		.space	4
 4672              		.text
 4673              	.Letext0:
 4674              		.file 2 "Generated_Source\\PSoC4/nRF24_REGS.h"
 4675              		.file 3 "millis.h"
 4676              		.file 4 "Generated_Source\\PSoC4/USB_UART_SPI_UART.h"