ARM GAS  C:\Users\AFDHAL~1\AppData\Local\Temp\ccsZ3226.s 			page 1


   1              		.syntax unified
   2              		.cpu cortex-m0
   3              		.fpu softvfp
   4              		.eabi_attribute 20, 1
   5              		.eabi_attribute 21, 1
   6              		.eabi_attribute 23, 3
   7              		.eabi_attribute 24, 1
   8              		.eabi_attribute 25, 1
   9              		.eabi_attribute 26, 1
  10              		.eabi_attribute 30, 2
  11              		.eabi_attribute 34, 0
  12              		.eabi_attribute 18, 4
  13              		.thumb
  14              		.syntax unified
  15              		.file	"nRF24_Adapter.c"
  16              		.text
  17              	.Ltext0:
  18              		.cfi_sections	.debug_frame
  19              		.section	.text.nRF24_ISR,"ax",%progbits
  20              		.align	2
  21              		.global	nRF24_ISR
  22              		.code	16
  23              		.thumb_func
  24              		.type	nRF24_ISR, %function
  25              	nRF24_ISR:
  26              	.LFB34:
  27              		.file 1 "nRF24_Adapter.c"
   1:nRF24_Adapter.c **** /*
   2:nRF24_Adapter.c ****  * File:   nRF24_Adapter.c
   3:nRF24_Adapter.c ****  * Author: Afdhal Tan
   4:nRF24_Adapter.c ****  *
   5:nRF24_Adapter.c ****  * Created on 17 December 2017, 22:32
   6:nRF24_Adapter.c ****  */
   7:nRF24_Adapter.c **** 
   8:nRF24_Adapter.c **** #include "nRF24_Adapter.h"
   9:nRF24_Adapter.c **** 
  10:nRF24_Adapter.c **** volatile nrf_irq nRF24_Adapter_Flags;
  11:nRF24_Adapter.c **** 
  12:nRF24_Adapter.c **** CY_ISR(nRF24_ISR)
  13:nRF24_Adapter.c **** {        
  28              		.loc 1 13 0
  29              		.cfi_startproc
  30              		@ args = 0, pretend = 0, frame = 0
  31              		@ frame_needed = 0, uses_anonymous_args = 0
  32 0000 10B5     		push	{r4, lr}
  33              		.cfi_def_cfa_offset 8
  34              		.cfi_offset 4, -8
  35              		.cfi_offset 14, -4
  14:nRF24_Adapter.c ****     nRF24_Adapter_Flags = nRF24_get_irq_flag();
  36              		.loc 1 14 0
  37 0002 FFF7FEFF 		bl	nRF24_get_irq_flag
  38              	.LVL0:
  39 0006 074B     		ldr	r3, .L2
  15:nRF24_Adapter.c ****     
  16:nRF24_Adapter.c ****     LED_Write(~LED_Read());    
  17:nRF24_Adapter.c ****     
  18:nRF24_Adapter.c ****     //clear flags before exiting isr
ARM GAS  C:\Users\AFDHAL~1\AppData\Local\Temp\ccsZ3226.s 			page 2


  19:nRF24_Adapter.c ****     nRF24_clear_all_irqs();
  20:nRF24_Adapter.c ****     NRF_IRQ_ClearInterrupt();
  21:nRF24_Adapter.c ****     NRF_ISR_ClearPending();
  22:nRF24_Adapter.c **** }
  40              		.loc 1 22 0
  41              		@ sp needed
  14:nRF24_Adapter.c ****     nRF24_Adapter_Flags = nRF24_get_irq_flag();
  42              		.loc 1 14 0
  43 0008 1870     		strb	r0, [r3]
  16:nRF24_Adapter.c ****     
  44              		.loc 1 16 0
  45 000a FFF7FEFF 		bl	LED_Read
  46              	.LVL1:
  47 000e C043     		mvns	r0, r0
  48 0010 C0B2     		uxtb	r0, r0
  49 0012 FFF7FEFF 		bl	LED_Write
  50              	.LVL2:
  19:nRF24_Adapter.c ****     NRF_IRQ_ClearInterrupt();
  51              		.loc 1 19 0
  52 0016 FFF7FEFF 		bl	nRF24_clear_all_irqs
  53              	.LVL3:
  20:nRF24_Adapter.c ****     NRF_ISR_ClearPending();
  54              		.loc 1 20 0
  55 001a FFF7FEFF 		bl	NRF_IRQ_ClearInterrupt
  56              	.LVL4:
  21:nRF24_Adapter.c **** }
  57              		.loc 1 21 0
  58 001e FFF7FEFF 		bl	NRF_ISR_ClearPending
  59              	.LVL5:
  60              		.loc 1 22 0
  61 0022 10BD     		pop	{r4, pc}
  62              	.L3:
  63              		.align	2
  64              	.L2:
  65 0024 00000000 		.word	nRF24_Adapter_Flags
  66              		.cfi_endproc
  67              	.LFE34:
  68              		.size	nRF24_ISR, .-nRF24_ISR
  69              		.section	.text.nRF24_Adapter_Start,"ax",%progbits
  70              		.align	2
  71              		.global	nRF24_Adapter_Start
  72              		.code	16
  73              		.thumb_func
  74              		.type	nRF24_Adapter_Start, %function
  75              	nRF24_Adapter_Start:
  76              	.LFB35:
  23:nRF24_Adapter.c **** 
  24:nRF24_Adapter.c **** 
  25:nRF24_Adapter.c **** 
  26:nRF24_Adapter.c **** /*******************************************************************************
  27:nRF24_Adapter.c **** * Function Name: nRF24_Adapter_Start
  28:nRF24_Adapter.c **** ****************************************************************************//**
  29:nRF24_Adapter.c **** *
  30:nRF24_Adapter.c **** * \brief Enable interrupt requests from an nRF24 module
  31:nRF24_Adapter.c **** *
  32:nRF24_Adapter.c **** * More detailed explanation should be here.
  33:nRF24_Adapter.c **** *
ARM GAS  C:\Users\AFDHAL~1\AppData\Local\Temp\ccsZ3226.s 			page 3


  34:nRF24_Adapter.c **** * <b>Note</b> Don't forget to enable at least one interrupt in the nRF24 module.
  35:nRF24_Adapter.c **** *
  36:nRF24_Adapter.c **** * \param value
  37:nRF24_Adapter.c **** *  None
  38:nRF24_Adapter.c **** *
  39:nRF24_Adapter.c **** * \return 
  40:nRF24_Adapter.c **** *  None 
  41:nRF24_Adapter.c **** *
  42:nRF24_Adapter.c **** * \sideeffect
  43:nRF24_Adapter.c **** *  None known.
  44:nRF24_Adapter.c **** *******************************************************************************/
  45:nRF24_Adapter.c **** void nRF24_Adapter_Start()
  46:nRF24_Adapter.c **** {
  77              		.loc 1 46 0
  78              		.cfi_startproc
  79              		@ args = 0, pretend = 0, frame = 0
  80              		@ frame_needed = 0, uses_anonymous_args = 0
  81 0000 10B5     		push	{r4, lr}
  82              		.cfi_def_cfa_offset 8
  83              		.cfi_offset 4, -8
  84              		.cfi_offset 14, -4
  47:nRF24_Adapter.c ****     NRF_ISR_StartEx(nRF24_ISR);
  85              		.loc 1 47 0
  86 0002 0348     		ldr	r0, .L5
  87 0004 FFF7FEFF 		bl	NRF_ISR_StartEx
  88              	.LVL6:
  48:nRF24_Adapter.c ****     nRF24_start();
  49:nRF24_Adapter.c **** }
  89              		.loc 1 49 0
  90              		@ sp needed
  48:nRF24_Adapter.c ****     nRF24_start();
  91              		.loc 1 48 0
  92 0008 FFF7FEFF 		bl	nRF24_start
  93              	.LVL7:
  94              		.loc 1 49 0
  95 000c 10BD     		pop	{r4, pc}
  96              	.L6:
  97 000e C046     		.align	2
  98              	.L5:
  99 0010 00000000 		.word	nRF24_ISR
 100              		.cfi_endproc
 101              	.LFE35:
 102              		.size	nRF24_Adapter_Start, .-nRF24_Adapter_Start
 103              		.comm	nRF24_Adapter_Flags,1,1
 104              		.text
 105              	.Letext0:
 106              		.file 2 "Generated_Source\\PSoC4/nRF24_REGS.h"
 107              		.file 3 "Generated_Source\\PSoC4/nRF24_FUNCS.h"
 108              		.file 4 "Generated_Source\\PSoC4/LED.h"
 109              		.file 5 "Generated_Source\\PSoC4/NRF_IRQ.h"
 110              		.file 6 "Generated_Source\\PSoC4/NRF_ISR.h"