ARM GAS  C:\Users\AFDHAL~1\AppData\Local\Temp\cc6FJMnn.s 			page 1


   1              		.syntax unified
   2              		.cpu cortex-m0
   3              		.fpu softvfp
   4              		.eabi_attribute 20, 1
   5              		.eabi_attribute 21, 1
   6              		.eabi_attribute 23, 3
   7              		.eabi_attribute 24, 1
   8              		.eabi_attribute 25, 1
   9              		.eabi_attribute 26, 1
  10              		.eabi_attribute 30, 2
  11              		.eabi_attribute 34, 0
  12              		.eabi_attribute 18, 4
  13              		.thumb
  14              		.syntax unified
  15              		.file	"nRF24_COMMANDS.c"
  16              		.text
  17              	.Ltext0:
  18              		.cfi_sections	.debug_frame
  19              		.section	.text.nRF24_send_command,"ax",%progbits
  20              		.align	2
  21              		.global	nRF24_send_command
  22              		.code	16
  23              		.thumb_func
  24              		.type	nRF24_send_command, %function
  25              	nRF24_send_command:
  26              	.LFB34:
  27              		.file 1 "Generated_Source\\PSoC4\\nRF24_COMMANDS.c"
   1:Generated_Source\PSoC4/nRF24_COMMANDS.c **** /****************************************************************************
   2:Generated_Source\PSoC4/nRF24_COMMANDS.c **** * This file is part of the nRF24 Custom Component for PSoC Devices.
   3:Generated_Source\PSoC4/nRF24_COMMANDS.c **** *
   4:Generated_Source\PSoC4/nRF24_COMMANDS.c **** * Copyright (C) 2017 Carlos Diaz <carlos.santiago.diaz@gmail.com>
   5:Generated_Source\PSoC4/nRF24_COMMANDS.c **** *
   6:Generated_Source\PSoC4/nRF24_COMMANDS.c **** * Permission to use, copy, modify, and/or distribute this software for any
   7:Generated_Source\PSoC4/nRF24_COMMANDS.c **** * purpose with or without fee is hereby granted, provided that the above
   8:Generated_Source\PSoC4/nRF24_COMMANDS.c **** * copyright notice and this permission notice appear in all copies.
   9:Generated_Source\PSoC4/nRF24_COMMANDS.c **** *
  10:Generated_Source\PSoC4/nRF24_COMMANDS.c **** * THE SOFTWARE IS PROVIDED "AS IS" AND THE AUTHOR DISCLAIMS ALL WARRANTIES
  11:Generated_Source\PSoC4/nRF24_COMMANDS.c **** * WITH REGARD TO THIS SOFTWARE INCLUDING ALL IMPLIED WARRANTIES OF
  12:Generated_Source\PSoC4/nRF24_COMMANDS.c **** * MERCHANTABILITY AND FITNESS. IN NO EVENT SHALL THE AUTHOR BE LIABLE FOR
  13:Generated_Source\PSoC4/nRF24_COMMANDS.c **** * ANY SPECIAL, DIRECT, INDIRECT, OR CONSEQUENTIAL DAMAGES OR ANY DAMAGES
  14:Generated_Source\PSoC4/nRF24_COMMANDS.c **** * WHATSOEVER RESULTING FROM LOSS OF USE, DATA OR PROFITS, WHETHER IN AN
  15:Generated_Source\PSoC4/nRF24_COMMANDS.c **** * ACTION OF CONTRACT, NEGLIGENCE OR OTHER TORTIOUS ACTION, ARISING OUT OF
  16:Generated_Source\PSoC4/nRF24_COMMANDS.c **** * OR IN CONNECTION WITH THE USE OR PERFORMANCE OF THIS SOFTWARE.
  17:Generated_Source\PSoC4/nRF24_COMMANDS.c **** ****************************************************************************/
  18:Generated_Source\PSoC4/nRF24_COMMANDS.c **** 
  19:Generated_Source\PSoC4/nRF24_COMMANDS.c **** /**
  20:Generated_Source\PSoC4/nRF24_COMMANDS.c **** * @file nRF24_COMMANDS.c
  21:Generated_Source\PSoC4/nRF24_COMMANDS.c **** *
  22:Generated_Source\PSoC4/nRF24_COMMANDS.c **** * @brief The nRF24 radio is controlled via commands, this file implement all
  23:Generated_Source\PSoC4/nRF24_COMMANDS.c **** * the available commands.
  24:Generated_Source\PSoC4/nRF24_COMMANDS.c **** * 
  25:Generated_Source\PSoC4/nRF24_COMMANDS.c **** */
  26:Generated_Source\PSoC4/nRF24_COMMANDS.c **** 
  27:Generated_Source\PSoC4/nRF24_COMMANDS.c **** #include "nRF24_CONFIG.h"
  28:Generated_Source\PSoC4/nRF24_COMMANDS.c **** #include "nRF24_LL_SPI.h"
  29:Generated_Source\PSoC4/nRF24_COMMANDS.c **** #include "nRF24_COMMANDS.h"
  30:Generated_Source\PSoC4/nRF24_COMMANDS.c **** #include "nRF24_FUNCS.h"
ARM GAS  C:\Users\AFDHAL~1\AppData\Local\Temp\cc6FJMnn.s 			page 2


  31:Generated_Source\PSoC4/nRF24_COMMANDS.c **** #include "nRF24_REGS.h"
  32:Generated_Source\PSoC4/nRF24_COMMANDS.c **** 
  33:Generated_Source\PSoC4/nRF24_COMMANDS.c **** /**
  34:Generated_Source\PSoC4/nRF24_COMMANDS.c ****  * Send a command to the nRF24 radio.
  35:Generated_Source\PSoC4/nRF24_COMMANDS.c ****  *
  36:Generated_Source\PSoC4/nRF24_COMMANDS.c ****  * @param const nrf_cmd cmd: Command to send to the nRF24 radio.
  37:Generated_Source\PSoC4/nRF24_COMMANDS.c ****  */
  38:Generated_Source\PSoC4/nRF24_COMMANDS.c **** void nRF24_send_command(const nrf_cmd cmd)
  39:Generated_Source\PSoC4/nRF24_COMMANDS.c **** {
  28              		.loc 1 39 0
  29              		.cfi_startproc
  30              		@ args = 0, pretend = 0, frame = 0
  31              		@ frame_needed = 0, uses_anonymous_args = 0
  32              	.LVL0:
  33 0000 10B5     		push	{r4, lr}
  34              		.cfi_def_cfa_offset 8
  35              		.cfi_offset 4, -8
  36              		.cfi_offset 14, -4
  37              		.loc 1 39 0
  38 0002 0400     		movs	r4, r0
  40:Generated_Source\PSoC4/nRF24_COMMANDS.c **** #if defined(CY_SCB_SPI_H) // SCB Block
  41:Generated_Source\PSoC4/nRF24_COMMANDS.c **** #if defined(SPI_CY_SCB_SPI_PDL_H) // PSoC6
  42:Generated_Source\PSoC4/nRF24_COMMANDS.c ****     Cy_GPIO_Clr(SS_PORT, SS_NUM);
  43:Generated_Source\PSoC4/nRF24_COMMANDS.c ****     
  44:Generated_Source\PSoC4/nRF24_COMMANDS.c ****     Cy_SCB_SPI_Write(SPI_HW, cmd);
  45:Generated_Source\PSoC4/nRF24_COMMANDS.c ****     
  46:Generated_Source\PSoC4/nRF24_COMMANDS.c ****     while (Cy_SCB_SPI_GetNumInRxFifo(SPI_HW) != 1) {
  47:Generated_Source\PSoC4/nRF24_COMMANDS.c ****     }
  48:Generated_Source\PSoC4/nRF24_COMMANDS.c ****     Cy_GPIO_Set(SS_PORT, SS_NUM);
  49:Generated_Source\PSoC4/nRF24_COMMANDS.c **** #else // PSoC4
  50:Generated_Source\PSoC4/nRF24_COMMANDS.c ****     SPI_SpiUartClearRxBuffer();
  39              		.loc 1 50 0
  40 0004 FFF7FEFF 		bl	SPI_SpiUartClearRxBuffer
  41              	.LVL1:
  51:Generated_Source\PSoC4/nRF24_COMMANDS.c ****     SPI_SpiUartClearTxBuffer();
  42              		.loc 1 51 0
  43 0008 FFF7FEFF 		bl	SPI_SpiUartClearTxBuffer
  44              	.LVL2:
  52:Generated_Source\PSoC4/nRF24_COMMANDS.c **** 
  53:Generated_Source\PSoC4/nRF24_COMMANDS.c ****     SS_Write(0);
  45              		.loc 1 53 0
  46 000c 0020     		movs	r0, #0
  47 000e FFF7FEFF 		bl	SS_Write
  48              	.LVL3:
  54:Generated_Source\PSoC4/nRF24_COMMANDS.c ****     SPI_SpiUartWriteTxData(cmd);
  49              		.loc 1 54 0
  50 0012 2000     		movs	r0, r4
  51 0014 FFF7FEFF 		bl	SPI_SpiUartWriteTxData
  52              	.LVL4:
  53              	.L2:
  55:Generated_Source\PSoC4/nRF24_COMMANDS.c **** 
  56:Generated_Source\PSoC4/nRF24_COMMANDS.c ****     while (SPI_SpiUartGetRxBufferSize() != 1) {
  54              		.loc 1 56 0 discriminator 1
  55 0018 FFF7FEFF 		bl	SPI_SpiUartGetRxBufferSize
  56              	.LVL5:
  57 001c 0128     		cmp	r0, #1
  58 001e FBD1     		bne	.L2
ARM GAS  C:\Users\AFDHAL~1\AppData\Local\Temp\cc6FJMnn.s 			page 3


  57:Generated_Source\PSoC4/nRF24_COMMANDS.c ****     }
  58:Generated_Source\PSoC4/nRF24_COMMANDS.c ****     SS_Write(1);
  59              		.loc 1 58 0
  60 0020 FFF7FEFF 		bl	SS_Write
  61              	.LVL6:
  59:Generated_Source\PSoC4/nRF24_COMMANDS.c **** #endif
  60:Generated_Source\PSoC4/nRF24_COMMANDS.c **** #else // UDB Block
  61:Generated_Source\PSoC4/nRF24_COMMANDS.c ****     SPI_ClearRxBuffer();
  62:Generated_Source\PSoC4/nRF24_COMMANDS.c ****     SPI_ClearTxBuffer();
  63:Generated_Source\PSoC4/nRF24_COMMANDS.c **** 
  64:Generated_Source\PSoC4/nRF24_COMMANDS.c ****     SS_Write(0);
  65:Generated_Source\PSoC4/nRF24_COMMANDS.c ****     SPI_WriteTxData(cmd);
  66:Generated_Source\PSoC4/nRF24_COMMANDS.c **** 
  67:Generated_Source\PSoC4/nRF24_COMMANDS.c ****     while (!(SPI_ReadTxStatus() & SPI_STS_BYTE_COMPLETE)) {
  68:Generated_Source\PSoC4/nRF24_COMMANDS.c ****     }
  69:Generated_Source\PSoC4/nRF24_COMMANDS.c ****     SS_Write(1);
  70:Generated_Source\PSoC4/nRF24_COMMANDS.c **** #endif
  71:Generated_Source\PSoC4/nRF24_COMMANDS.c **** }
  62              		.loc 1 71 0
  63              		@ sp needed
  64 0024 10BD     		pop	{r4, pc}
  65              		.cfi_endproc
  66              	.LFE34:
  67              		.size	nRF24_send_command, .-nRF24_send_command
  68 0026 C046     		.section	.text.nRF24_reuse_tx_payload_cmd,"ax",%progbits
  69              		.align	2
  70              		.global	nRF24_reuse_tx_payload_cmd
  71              		.code	16
  72              		.thumb_func
  73              		.type	nRF24_reuse_tx_payload_cmd, %function
  74              	nRF24_reuse_tx_payload_cmd:
  75              	.LFB35:
  72:Generated_Source\PSoC4/nRF24_COMMANDS.c **** 
  73:Generated_Source\PSoC4/nRF24_COMMANDS.c **** /**
  74:Generated_Source\PSoC4/nRF24_COMMANDS.c ****  * @brief Reuse last transmitted payload.
  75:Generated_Source\PSoC4/nRF24_COMMANDS.c ****  *
  76:Generated_Source\PSoC4/nRF24_COMMANDS.c ****  * Used for a PTX device.
  77:Generated_Source\PSoC4/nRF24_COMMANDS.c ****  * Reuse last transmitted payload. TX payload reuse is active until
  78:Generated_Source\PSoC4/nRF24_COMMANDS.c ****  * W_TX_PAYLOAD or FLUSH_TX is executed, TX payload reuse must not be
  79:Generated_Source\PSoC4/nRF24_COMMANDS.c ****  * activated or deactivated during package transmission.
  80:Generated_Source\PSoC4/nRF24_COMMANDS.c ****  */
  81:Generated_Source\PSoC4/nRF24_COMMANDS.c **** void nRF24_reuse_tx_payload_cmd(void)
  82:Generated_Source\PSoC4/nRF24_COMMANDS.c **** {
  76              		.loc 1 82 0
  77              		.cfi_startproc
  78              		@ args = 0, pretend = 0, frame = 0
  79              		@ frame_needed = 0, uses_anonymous_args = 0
  80              	.LVL7:
  81 0000 10B5     		push	{r4, lr}
  82              		.cfi_def_cfa_offset 8
  83              		.cfi_offset 4, -8
  84              		.cfi_offset 14, -4
  85              	.LBB6:
  86              	.LBB7:
  50:Generated_Source\PSoC4/nRF24_COMMANDS.c ****     SPI_SpiUartClearTxBuffer();
  87              		.loc 1 50 0
  88 0002 FFF7FEFF 		bl	SPI_SpiUartClearRxBuffer
ARM GAS  C:\Users\AFDHAL~1\AppData\Local\Temp\cc6FJMnn.s 			page 4


  89              	.LVL8:
  51:Generated_Source\PSoC4/nRF24_COMMANDS.c **** 
  90              		.loc 1 51 0
  91 0006 FFF7FEFF 		bl	SPI_SpiUartClearTxBuffer
  92              	.LVL9:
  53:Generated_Source\PSoC4/nRF24_COMMANDS.c ****     SPI_SpiUartWriteTxData(cmd);
  93              		.loc 1 53 0
  94 000a 0020     		movs	r0, #0
  95 000c FFF7FEFF 		bl	SS_Write
  96              	.LVL10:
  54:Generated_Source\PSoC4/nRF24_COMMANDS.c **** 
  97              		.loc 1 54 0
  98 0010 E320     		movs	r0, #227
  99 0012 FFF7FEFF 		bl	SPI_SpiUartWriteTxData
 100              	.LVL11:
 101              	.L6:
  56:Generated_Source\PSoC4/nRF24_COMMANDS.c ****     }
 102              		.loc 1 56 0
 103 0016 FFF7FEFF 		bl	SPI_SpiUartGetRxBufferSize
 104              	.LVL12:
 105 001a 0128     		cmp	r0, #1
 106 001c FBD1     		bne	.L6
  58:Generated_Source\PSoC4/nRF24_COMMANDS.c **** #endif
 107              		.loc 1 58 0
 108 001e FFF7FEFF 		bl	SS_Write
 109              	.LVL13:
 110              	.LBE7:
 111              	.LBE6:
  83:Generated_Source\PSoC4/nRF24_COMMANDS.c ****     nRF24_send_command(NRF_REUSE_TX_PL_CMD);
  84:Generated_Source\PSoC4/nRF24_COMMANDS.c **** }
 112              		.loc 1 84 0
 113              		@ sp needed
 114 0022 10BD     		pop	{r4, pc}
 115              		.cfi_endproc
 116              	.LFE35:
 117              		.size	nRF24_reuse_tx_payload_cmd, .-nRF24_reuse_tx_payload_cmd
 118              		.section	.text.nRF24_flush_rx_cmd,"ax",%progbits
 119              		.align	2
 120              		.global	nRF24_flush_rx_cmd
 121              		.code	16
 122              		.thumb_func
 123              		.type	nRF24_flush_rx_cmd, %function
 124              	nRF24_flush_rx_cmd:
 125              	.LFB36:
  85:Generated_Source\PSoC4/nRF24_COMMANDS.c **** 
  86:Generated_Source\PSoC4/nRF24_COMMANDS.c **** /**
  87:Generated_Source\PSoC4/nRF24_COMMANDS.c ****  * @brief Flush RX FIFO.
  88:Generated_Source\PSoC4/nRF24_COMMANDS.c ****  *
  89:Generated_Source\PSoC4/nRF24_COMMANDS.c ****  * Used in RX mode.
  90:Generated_Source\PSoC4/nRF24_COMMANDS.c ****  * Flush RX FIFO. Should be not executed during transmission of acknowledge,
  91:Generated_Source\PSoC4/nRF24_COMMANDS.c ****  * that is, acknowledge package will not be completed.
  92:Generated_Source\PSoC4/nRF24_COMMANDS.c ****  */
  93:Generated_Source\PSoC4/nRF24_COMMANDS.c **** void nRF24_flush_rx_cmd(void)
  94:Generated_Source\PSoC4/nRF24_COMMANDS.c **** {
 126              		.loc 1 94 0
 127              		.cfi_startproc
 128              		@ args = 0, pretend = 0, frame = 0
ARM GAS  C:\Users\AFDHAL~1\AppData\Local\Temp\cc6FJMnn.s 			page 5


 129              		@ frame_needed = 0, uses_anonymous_args = 0
 130              	.LVL14:
 131 0000 10B5     		push	{r4, lr}
 132              		.cfi_def_cfa_offset 8
 133              		.cfi_offset 4, -8
 134              		.cfi_offset 14, -4
 135              	.LBB10:
 136              	.LBB11:
  50:Generated_Source\PSoC4/nRF24_COMMANDS.c ****     SPI_SpiUartClearTxBuffer();
 137              		.loc 1 50 0
 138 0002 FFF7FEFF 		bl	SPI_SpiUartClearRxBuffer
 139              	.LVL15:
  51:Generated_Source\PSoC4/nRF24_COMMANDS.c **** 
 140              		.loc 1 51 0
 141 0006 FFF7FEFF 		bl	SPI_SpiUartClearTxBuffer
 142              	.LVL16:
  53:Generated_Source\PSoC4/nRF24_COMMANDS.c ****     SPI_SpiUartWriteTxData(cmd);
 143              		.loc 1 53 0
 144 000a 0020     		movs	r0, #0
 145 000c FFF7FEFF 		bl	SS_Write
 146              	.LVL17:
  54:Generated_Source\PSoC4/nRF24_COMMANDS.c **** 
 147              		.loc 1 54 0
 148 0010 E220     		movs	r0, #226
 149 0012 FFF7FEFF 		bl	SPI_SpiUartWriteTxData
 150              	.LVL18:
 151              	.L9:
  56:Generated_Source\PSoC4/nRF24_COMMANDS.c ****     }
 152              		.loc 1 56 0
 153 0016 FFF7FEFF 		bl	SPI_SpiUartGetRxBufferSize
 154              	.LVL19:
 155 001a 0128     		cmp	r0, #1
 156 001c FBD1     		bne	.L9
  58:Generated_Source\PSoC4/nRF24_COMMANDS.c **** #endif
 157              		.loc 1 58 0
 158 001e FFF7FEFF 		bl	SS_Write
 159              	.LVL20:
 160              	.LBE11:
 161              	.LBE10:
  95:Generated_Source\PSoC4/nRF24_COMMANDS.c ****     nRF24_send_command(NRF_FLUSH_RX_CMD);
  96:Generated_Source\PSoC4/nRF24_COMMANDS.c **** }
 162              		.loc 1 96 0
 163              		@ sp needed
 164 0022 10BD     		pop	{r4, pc}
 165              		.cfi_endproc
 166              	.LFE36:
 167              		.size	nRF24_flush_rx_cmd, .-nRF24_flush_rx_cmd
 168              		.section	.text.nRF24_flush_tx_cmd,"ax",%progbits
 169              		.align	2
 170              		.global	nRF24_flush_tx_cmd
 171              		.code	16
 172              		.thumb_func
 173              		.type	nRF24_flush_tx_cmd, %function
 174              	nRF24_flush_tx_cmd:
 175              	.LFB37:
  97:Generated_Source\PSoC4/nRF24_COMMANDS.c **** 
  98:Generated_Source\PSoC4/nRF24_COMMANDS.c **** /**
ARM GAS  C:\Users\AFDHAL~1\AppData\Local\Temp\cc6FJMnn.s 			page 6


  99:Generated_Source\PSoC4/nRF24_COMMANDS.c ****  * Used in TX mode.
 100:Generated_Source\PSoC4/nRF24_COMMANDS.c ****  * Flush TX FIFO.
 101:Generated_Source\PSoC4/nRF24_COMMANDS.c ****  */
 102:Generated_Source\PSoC4/nRF24_COMMANDS.c **** void nRF24_flush_tx_cmd(void)
 103:Generated_Source\PSoC4/nRF24_COMMANDS.c **** {
 176              		.loc 1 103 0
 177              		.cfi_startproc
 178              		@ args = 0, pretend = 0, frame = 0
 179              		@ frame_needed = 0, uses_anonymous_args = 0
 180              	.LVL21:
 181 0000 10B5     		push	{r4, lr}
 182              		.cfi_def_cfa_offset 8
 183              		.cfi_offset 4, -8
 184              		.cfi_offset 14, -4
 185              	.LBB14:
 186              	.LBB15:
  50:Generated_Source\PSoC4/nRF24_COMMANDS.c ****     SPI_SpiUartClearTxBuffer();
 187              		.loc 1 50 0
 188 0002 FFF7FEFF 		bl	SPI_SpiUartClearRxBuffer
 189              	.LVL22:
  51:Generated_Source\PSoC4/nRF24_COMMANDS.c **** 
 190              		.loc 1 51 0
 191 0006 FFF7FEFF 		bl	SPI_SpiUartClearTxBuffer
 192              	.LVL23:
  53:Generated_Source\PSoC4/nRF24_COMMANDS.c ****     SPI_SpiUartWriteTxData(cmd);
 193              		.loc 1 53 0
 194 000a 0020     		movs	r0, #0
 195 000c FFF7FEFF 		bl	SS_Write
 196              	.LVL24:
  54:Generated_Source\PSoC4/nRF24_COMMANDS.c **** 
 197              		.loc 1 54 0
 198 0010 E120     		movs	r0, #225
 199 0012 FFF7FEFF 		bl	SPI_SpiUartWriteTxData
 200              	.LVL25:
 201              	.L12:
  56:Generated_Source\PSoC4/nRF24_COMMANDS.c ****     }
 202              		.loc 1 56 0
 203 0016 FFF7FEFF 		bl	SPI_SpiUartGetRxBufferSize
 204              	.LVL26:
 205 001a 0128     		cmp	r0, #1
 206 001c FBD1     		bne	.L12
  58:Generated_Source\PSoC4/nRF24_COMMANDS.c **** #endif
 207              		.loc 1 58 0
 208 001e FFF7FEFF 		bl	SS_Write
 209              	.LVL27:
 210              	.LBE15:
 211              	.LBE14:
 104:Generated_Source\PSoC4/nRF24_COMMANDS.c ****     nRF24_send_command(NRF_FLUSH_TX_CMD);
 105:Generated_Source\PSoC4/nRF24_COMMANDS.c **** }
 212              		.loc 1 105 0
 213              		@ sp needed
 214 0022 10BD     		pop	{r4, pc}
 215              		.cfi_endproc
 216              	.LFE37:
 217              		.size	nRF24_flush_tx_cmd, .-nRF24_flush_tx_cmd
 218              		.section	.text.nRF24_read_rx_payload_cmd,"ax",%progbits
 219              		.align	2
ARM GAS  C:\Users\AFDHAL~1\AppData\Local\Temp\cc6FJMnn.s 			page 7


 220              		.global	nRF24_read_rx_payload_cmd
 221              		.code	16
 222              		.thumb_func
 223              		.type	nRF24_read_rx_payload_cmd, %function
 224              	nRF24_read_rx_payload_cmd:
 225              	.LFB38:
 106:Generated_Source\PSoC4/nRF24_COMMANDS.c **** 
 107:Generated_Source\PSoC4/nRF24_COMMANDS.c **** /**
 108:Generated_Source\PSoC4/nRF24_COMMANDS.c ****  * Used in RX mode.
 109:Generated_Source\PSoC4/nRF24_COMMANDS.c ****  * Read RX payload: 1 - 32 bytes. A read operation always starts at byte 0.
 110:Generated_Source\PSoC4/nRF24_COMMANDS.c ****  * Payload is deleted from FIFO after it is read.
 111:Generated_Source\PSoC4/nRF24_COMMANDS.c ****  *
 112:Generated_Source\PSoC4/nRF24_COMMANDS.c ****  * @param uint8_t* data:
 113:Generated_Source\PSoC4/nRF24_COMMANDS.c ****  * @param const size_t size:
 114:Generated_Source\PSoC4/nRF24_COMMANDS.c ****  */
 115:Generated_Source\PSoC4/nRF24_COMMANDS.c **** void nRF24_read_rx_payload_cmd(uint8_t* data, const size_t size)
 116:Generated_Source\PSoC4/nRF24_COMMANDS.c **** {
 226              		.loc 1 116 0
 227              		.cfi_startproc
 228              		@ args = 0, pretend = 0, frame = 0
 229              		@ frame_needed = 0, uses_anonymous_args = 0
 230              	.LVL28:
 231 0000 70B5     		push	{r4, r5, r6, lr}
 232              		.cfi_def_cfa_offset 16
 233              		.cfi_offset 4, -16
 234              		.cfi_offset 5, -12
 235              		.cfi_offset 6, -8
 236              		.cfi_offset 14, -4
 237              		.loc 1 116 0
 238 0002 0400     		movs	r4, r0
 239 0004 0E00     		movs	r6, r1
 117:Generated_Source\PSoC4/nRF24_COMMANDS.c **** #if defined(CY_SCB_SPI_H) // SCB Block
 118:Generated_Source\PSoC4/nRF24_COMMANDS.c **** #if defined(SPI_CY_SCB_SPI_PDL_H) // PSoC6
 119:Generated_Source\PSoC4/nRF24_COMMANDS.c ****     Cy_GPIO_Clr(SS_PORT, SS_NUM);
 120:Generated_Source\PSoC4/nRF24_COMMANDS.c ****     
 121:Generated_Source\PSoC4/nRF24_COMMANDS.c ****     Cy_SCB_SPI_Write(SPI_HW, NRF_R_RX_PAYLOAD_CMD);
 122:Generated_Source\PSoC4/nRF24_COMMANDS.c ****     while (Cy_SCB_SPI_GetNumInRxFifo(SPI_HW) != 0) {
 123:Generated_Source\PSoC4/nRF24_COMMANDS.c ****     }
 124:Generated_Source\PSoC4/nRF24_COMMANDS.c ****     
 125:Generated_Source\PSoC4/nRF24_COMMANDS.c ****     (void)Cy_SCB_SPI_Read(SPI_HW);
 126:Generated_Source\PSoC4/nRF24_COMMANDS.c ****     
 127:Generated_Source\PSoC4/nRF24_COMMANDS.c ****     for (size_t i = 0; i < size; i++) {
 128:Generated_Source\PSoC4/nRF24_COMMANDS.c ****         Cy_SCB_SPI_Write(SPI_HW, NRF_NOP_CMD);
 129:Generated_Source\PSoC4/nRF24_COMMANDS.c ****         while (Cy_SCB_SPI_GetNumInRxFifo(SPI_HW) != 0) {
 130:Generated_Source\PSoC4/nRF24_COMMANDS.c ****         }
 131:Generated_Source\PSoC4/nRF24_COMMANDS.c ****         data[i] = Cy_SCB_SPI_Read(SPI_HW);
 132:Generated_Source\PSoC4/nRF24_COMMANDS.c ****     }
 133:Generated_Source\PSoC4/nRF24_COMMANDS.c ****     Cy_GPIO_Set(SS_PORT, SS_NUM);
 134:Generated_Source\PSoC4/nRF24_COMMANDS.c **** #else // PSoC4
 135:Generated_Source\PSoC4/nRF24_COMMANDS.c ****     SPI_SpiUartClearRxBuffer();
 240              		.loc 1 135 0
 241 0006 FFF7FEFF 		bl	SPI_SpiUartClearRxBuffer
 242              	.LVL29:
 136:Generated_Source\PSoC4/nRF24_COMMANDS.c ****     SPI_SpiUartClearTxBuffer();
 243              		.loc 1 136 0
 244 000a FFF7FEFF 		bl	SPI_SpiUartClearTxBuffer
 245              	.LVL30:
ARM GAS  C:\Users\AFDHAL~1\AppData\Local\Temp\cc6FJMnn.s 			page 8


 137:Generated_Source\PSoC4/nRF24_COMMANDS.c **** 
 138:Generated_Source\PSoC4/nRF24_COMMANDS.c ****     SS_Write(0);
 246              		.loc 1 138 0
 247 000e 0020     		movs	r0, #0
 248 0010 FFF7FEFF 		bl	SS_Write
 249              	.LVL31:
 139:Generated_Source\PSoC4/nRF24_COMMANDS.c ****     SPI_SpiUartWriteTxData(NRF_R_RX_PAYLOAD_CMD);
 250              		.loc 1 139 0
 251 0014 6120     		movs	r0, #97
 252 0016 FFF7FEFF 		bl	SPI_SpiUartWriteTxData
 253              	.LVL32:
 254              	.L15:
 140:Generated_Source\PSoC4/nRF24_COMMANDS.c ****     while (SPI_SpiUartGetRxBufferSize() == 0){
 255              		.loc 1 140 0 discriminator 1
 256 001a FFF7FEFF 		bl	SPI_SpiUartGetRxBufferSize
 257              	.LVL33:
 258 001e 0028     		cmp	r0, #0
 259 0020 FBD0     		beq	.L15
 141:Generated_Source\PSoC4/nRF24_COMMANDS.c ****     }
 142:Generated_Source\PSoC4/nRF24_COMMANDS.c ****     // Read the status register, just to clear the rx fifo
 143:Generated_Source\PSoC4/nRF24_COMMANDS.c ****     SPI_SpiUartReadRxData();
 260              		.loc 1 143 0
 261 0022 FFF7FEFF 		bl	SPI_SpiUartReadRxData
 262              	.LVL34:
 263 0026 A519     		adds	r5, r4, r6
 264              	.LBB16:
 144:Generated_Source\PSoC4/nRF24_COMMANDS.c **** 
 145:Generated_Source\PSoC4/nRF24_COMMANDS.c ****     for (size_t i = 0; i < size; i++) {
 265              		.loc 1 145 0
 266 0028 002E     		cmp	r6, #0
 267 002a 0CD0     		beq	.L19
 268              	.LVL35:
 269              	.L22:
 146:Generated_Source\PSoC4/nRF24_COMMANDS.c ****         SPI_SpiUartWriteTxData(NRF_NOP_CMD);
 270              		.loc 1 146 0
 271 002c FF20     		movs	r0, #255
 272 002e FFF7FEFF 		bl	SPI_SpiUartWriteTxData
 273              	.LVL36:
 274              	.L17:
 147:Generated_Source\PSoC4/nRF24_COMMANDS.c ****         while (SPI_SpiUartGetRxBufferSize() == 0){
 275              		.loc 1 147 0 discriminator 1
 276 0032 FFF7FEFF 		bl	SPI_SpiUartGetRxBufferSize
 277              	.LVL37:
 278 0036 0028     		cmp	r0, #0
 279 0038 FBD0     		beq	.L17
 148:Generated_Source\PSoC4/nRF24_COMMANDS.c ****         }
 149:Generated_Source\PSoC4/nRF24_COMMANDS.c ****         data[i] = SPI_SpiUartReadRxData();
 280              		.loc 1 149 0 discriminator 2
 281 003a FFF7FEFF 		bl	SPI_SpiUartReadRxData
 282              	.LVL38:
 283 003e 2070     		strb	r0, [r4]
 284              	.LVL39:
 285 0040 0134     		adds	r4, r4, #1
 286              	.LVL40:
 145:Generated_Source\PSoC4/nRF24_COMMANDS.c ****         SPI_SpiUartWriteTxData(NRF_NOP_CMD);
 287              		.loc 1 145 0 discriminator 2
 288 0042 AC42     		cmp	r4, r5
ARM GAS  C:\Users\AFDHAL~1\AppData\Local\Temp\cc6FJMnn.s 			page 9


 289 0044 F2D1     		bne	.L22
 290              	.LVL41:
 291              	.L19:
 292              	.LBE16:
 150:Generated_Source\PSoC4/nRF24_COMMANDS.c ****     }
 151:Generated_Source\PSoC4/nRF24_COMMANDS.c ****     SS_Write(1);
 293              		.loc 1 151 0
 294 0046 0120     		movs	r0, #1
 295 0048 FFF7FEFF 		bl	SS_Write
 296              	.LVL42:
 152:Generated_Source\PSoC4/nRF24_COMMANDS.c **** #endif
 153:Generated_Source\PSoC4/nRF24_COMMANDS.c **** #else // UDB Block
 154:Generated_Source\PSoC4/nRF24_COMMANDS.c ****     SPI_ClearRxBuffer();
 155:Generated_Source\PSoC4/nRF24_COMMANDS.c ****     SPI_ClearTxBuffer();
 156:Generated_Source\PSoC4/nRF24_COMMANDS.c **** 
 157:Generated_Source\PSoC4/nRF24_COMMANDS.c ****     SS_Write(0);
 158:Generated_Source\PSoC4/nRF24_COMMANDS.c ****     SPI_WriteTxData(NRF_R_RX_PAYLOAD_CMD);
 159:Generated_Source\PSoC4/nRF24_COMMANDS.c **** 
 160:Generated_Source\PSoC4/nRF24_COMMANDS.c ****     // Wait for the byte to be sent
 161:Generated_Source\PSoC4/nRF24_COMMANDS.c ****     while (!(SPI_ReadTxStatus() & SPI_STS_BYTE_COMPLETE)) {
 162:Generated_Source\PSoC4/nRF24_COMMANDS.c ****     }
 163:Generated_Source\PSoC4/nRF24_COMMANDS.c **** 
 164:Generated_Source\PSoC4/nRF24_COMMANDS.c ****     // Read the status register, just to clear the rx fifo
 165:Generated_Source\PSoC4/nRF24_COMMANDS.c ****     SPI_ReadRxData();
 166:Generated_Source\PSoC4/nRF24_COMMANDS.c ****     
 167:Generated_Source\PSoC4/nRF24_COMMANDS.c ****     for (size_t i = 0; i < size; i++) {
 168:Generated_Source\PSoC4/nRF24_COMMANDS.c ****         SPI_WriteTxData(NRF_NOP_CMD);
 169:Generated_Source\PSoC4/nRF24_COMMANDS.c ****         while (!(SPI_ReadTxStatus() & SPI_STS_BYTE_COMPLETE)) {
 170:Generated_Source\PSoC4/nRF24_COMMANDS.c ****         }
 171:Generated_Source\PSoC4/nRF24_COMMANDS.c ****         data[i] = SPI_ReadRxData();
 172:Generated_Source\PSoC4/nRF24_COMMANDS.c ****     }
 173:Generated_Source\PSoC4/nRF24_COMMANDS.c ****     SS_Write(1);
 174:Generated_Source\PSoC4/nRF24_COMMANDS.c **** #endif
 175:Generated_Source\PSoC4/nRF24_COMMANDS.c **** }
 297              		.loc 1 175 0
 298              		@ sp needed
 299              	.LVL43:
 300 004c 70BD     		pop	{r4, r5, r6, pc}
 301              		.cfi_endproc
 302              	.LFE38:
 303              		.size	nRF24_read_rx_payload_cmd, .-nRF24_read_rx_payload_cmd
 304 004e C046     		.section	.text.nRF24_write_tx_payload_cmd,"ax",%progbits
 305              		.align	2
 306              		.global	nRF24_write_tx_payload_cmd
 307              		.code	16
 308              		.thumb_func
 309              		.type	nRF24_write_tx_payload_cmd, %function
 310              	nRF24_write_tx_payload_cmd:
 311              	.LFB39:
 176:Generated_Source\PSoC4/nRF24_COMMANDS.c **** 
 177:Generated_Source\PSoC4/nRF24_COMMANDS.c **** /**
 178:Generated_Source\PSoC4/nRF24_COMMANDS.c ****  * Write TX payload: 1 - 32 bytes.
 179:Generated_Source\PSoC4/nRF24_COMMANDS.c ****  * A write operation always starts at byte 0 used in TX payload.
 180:Generated_Source\PSoC4/nRF24_COMMANDS.c ****  *
 181:Generated_Source\PSoC4/nRF24_COMMANDS.c ****  * @param const uint8_t* data:
 182:Generated_Source\PSoC4/nRF24_COMMANDS.c ****  * @param const size_t size:
 183:Generated_Source\PSoC4/nRF24_COMMANDS.c ****  */
ARM GAS  C:\Users\AFDHAL~1\AppData\Local\Temp\cc6FJMnn.s 			page 10


 184:Generated_Source\PSoC4/nRF24_COMMANDS.c **** void nRF24_write_tx_payload_cmd(const uint8_t* data, const size_t size)
 185:Generated_Source\PSoC4/nRF24_COMMANDS.c **** {
 312              		.loc 1 185 0
 313              		.cfi_startproc
 314              		@ args = 0, pretend = 0, frame = 0
 315              		@ frame_needed = 0, uses_anonymous_args = 0
 316              	.LVL44:
 317 0000 70B5     		push	{r4, r5, r6, lr}
 318              		.cfi_def_cfa_offset 16
 319              		.cfi_offset 4, -16
 320              		.cfi_offset 5, -12
 321              		.cfi_offset 6, -8
 322              		.cfi_offset 14, -4
 323              		.loc 1 185 0
 324 0002 0C00     		movs	r4, r1
 325 0004 0500     		movs	r5, r0
 186:Generated_Source\PSoC4/nRF24_COMMANDS.c **** #if defined(CY_SCB_SPI_H) // SCB Block
 187:Generated_Source\PSoC4/nRF24_COMMANDS.c **** #if defined(SPI_CY_SCB_SPI_PDL_H) // PSoC6
 188:Generated_Source\PSoC4/nRF24_COMMANDS.c ****     
 189:Generated_Source\PSoC4/nRF24_COMMANDS.c ****     Cy_GPIO_Clr(SS_PORT, SS_NUM);
 190:Generated_Source\PSoC4/nRF24_COMMANDS.c ****     
 191:Generated_Source\PSoC4/nRF24_COMMANDS.c ****     Cy_SCB_SPI_Write(SPI_HW, NRF_W_TX_PAYLOAD_CMD);
 192:Generated_Source\PSoC4/nRF24_COMMANDS.c ****     Cy_SCB_SPI_WriteArray(SPI_HW, data, size);
 193:Generated_Source\PSoC4/nRF24_COMMANDS.c ****     
 194:Generated_Source\PSoC4/nRF24_COMMANDS.c ****     while (Cy_SCB_SPI_GetNumInRxFifo(SPI_HW) != (1 + size)) {
 195:Generated_Source\PSoC4/nRF24_COMMANDS.c ****     }
 196:Generated_Source\PSoC4/nRF24_COMMANDS.c ****     Cy_GPIO_Set(SS_PORT, SS_NUM);
 197:Generated_Source\PSoC4/nRF24_COMMANDS.c **** #else // PSoC4
 198:Generated_Source\PSoC4/nRF24_COMMANDS.c ****     SPI_SpiUartClearRxBuffer();
 326              		.loc 1 198 0
 327 0006 FFF7FEFF 		bl	SPI_SpiUartClearRxBuffer
 328              	.LVL45:
 199:Generated_Source\PSoC4/nRF24_COMMANDS.c ****     SPI_SpiUartClearTxBuffer();
 329              		.loc 1 199 0
 330 000a FFF7FEFF 		bl	SPI_SpiUartClearTxBuffer
 331              	.LVL46:
 200:Generated_Source\PSoC4/nRF24_COMMANDS.c **** 
 201:Generated_Source\PSoC4/nRF24_COMMANDS.c ****     SS_Write(0);
 332              		.loc 1 201 0
 333 000e 0020     		movs	r0, #0
 334 0010 FFF7FEFF 		bl	SS_Write
 335              	.LVL47:
 202:Generated_Source\PSoC4/nRF24_COMMANDS.c ****     SPI_SpiUartWriteTxData(NRF_W_TX_PAYLOAD_CMD);
 336              		.loc 1 202 0
 337 0014 A020     		movs	r0, #160
 338 0016 FFF7FEFF 		bl	SPI_SpiUartWriteTxData
 339              	.LVL48:
 203:Generated_Source\PSoC4/nRF24_COMMANDS.c ****     SPI_SpiUartPutArray(data, size);
 340              		.loc 1 203 0
 341 001a 2100     		movs	r1, r4
 342 001c 2800     		movs	r0, r5
 343 001e FFF7FEFF 		bl	SPI_SpiUartPutArray
 344              	.LVL49:
 345 0022 0134     		adds	r4, r4, #1
 346              	.LVL50:
 347              	.L28:
 204:Generated_Source\PSoC4/nRF24_COMMANDS.c **** 
ARM GAS  C:\Users\AFDHAL~1\AppData\Local\Temp\cc6FJMnn.s 			page 11


 205:Generated_Source\PSoC4/nRF24_COMMANDS.c ****     while (SPI_SpiUartGetRxBufferSize() != (1 + size)) {
 348              		.loc 1 205 0 discriminator 1
 349 0024 FFF7FEFF 		bl	SPI_SpiUartGetRxBufferSize
 350              	.LVL51:
 351 0028 A042     		cmp	r0, r4
 352 002a FBD1     		bne	.L28
 206:Generated_Source\PSoC4/nRF24_COMMANDS.c ****     }
 207:Generated_Source\PSoC4/nRF24_COMMANDS.c ****     SS_Write(1);
 353              		.loc 1 207 0
 354 002c 0120     		movs	r0, #1
 355 002e FFF7FEFF 		bl	SS_Write
 356              	.LVL52:
 208:Generated_Source\PSoC4/nRF24_COMMANDS.c **** #endif
 209:Generated_Source\PSoC4/nRF24_COMMANDS.c **** #else // UDB Block
 210:Generated_Source\PSoC4/nRF24_COMMANDS.c ****     SPI_ClearRxBuffer();
 211:Generated_Source\PSoC4/nRF24_COMMANDS.c ****     SPI_ClearTxBuffer();
 212:Generated_Source\PSoC4/nRF24_COMMANDS.c **** 
 213:Generated_Source\PSoC4/nRF24_COMMANDS.c ****     SS_Write(0);
 214:Generated_Source\PSoC4/nRF24_COMMANDS.c ****     SPI_WriteTxData(NRF_W_TX_PAYLOAD_CMD);
 215:Generated_Source\PSoC4/nRF24_COMMANDS.c ****     SPI_PutArray(data, size);
 216:Generated_Source\PSoC4/nRF24_COMMANDS.c ****     
 217:Generated_Source\PSoC4/nRF24_COMMANDS.c ****     while (!(SPI_ReadTxStatus() & SPI_STS_BYTE_COMPLETE)) {
 218:Generated_Source\PSoC4/nRF24_COMMANDS.c ****     }
 219:Generated_Source\PSoC4/nRF24_COMMANDS.c ****     SS_Write(1);
 220:Generated_Source\PSoC4/nRF24_COMMANDS.c **** #endif
 221:Generated_Source\PSoC4/nRF24_COMMANDS.c **** }
 357              		.loc 1 221 0
 358              		@ sp needed
 359              	.LVL53:
 360              	.LVL54:
 361 0032 70BD     		pop	{r4, r5, r6, pc}
 362              		.cfi_endproc
 363              	.LFE39:
 364              		.size	nRF24_write_tx_payload_cmd, .-nRF24_write_tx_payload_cmd
 365              		.section	.text.nRF24_read_payload_width_cmd,"ax",%progbits
 366              		.align	2
 367              		.global	nRF24_read_payload_width_cmd
 368              		.code	16
 369              		.thumb_func
 370              		.type	nRF24_read_payload_width_cmd, %function
 371              	nRF24_read_payload_width_cmd:
 372              	.LFB40:
 222:Generated_Source\PSoC4/nRF24_COMMANDS.c **** 
 223:Generated_Source\PSoC4/nRF24_COMMANDS.c **** /**
 224:Generated_Source\PSoC4/nRF24_COMMANDS.c ****  * Read RX payload width for the top R_RX_PAYLOAD in the RX FIFO.
 225:Generated_Source\PSoC4/nRF24_COMMANDS.c ****  * Note: Flush RX FIFO if the read value is larger than 32 bytes.
 226:Generated_Source\PSoC4/nRF24_COMMANDS.c ****  *
 227:Generated_Source\PSoC4/nRF24_COMMANDS.c ****  * @return uint8_t: width of the payload on the top of the RX FIFO.
 228:Generated_Source\PSoC4/nRF24_COMMANDS.c ****  */
 229:Generated_Source\PSoC4/nRF24_COMMANDS.c **** uint8_t nRF24_read_payload_width_cmd(void)
 230:Generated_Source\PSoC4/nRF24_COMMANDS.c **** {
 373              		.loc 1 230 0
 374              		.cfi_startproc
 375              		@ args = 0, pretend = 0, frame = 0
 376              		@ frame_needed = 0, uses_anonymous_args = 0
 377              	.LVL55:
 378 0000 10B5     		push	{r4, lr}
ARM GAS  C:\Users\AFDHAL~1\AppData\Local\Temp\cc6FJMnn.s 			page 12


 379              		.cfi_def_cfa_offset 8
 380              		.cfi_offset 4, -8
 381              		.cfi_offset 14, -4
 231:Generated_Source\PSoC4/nRF24_COMMANDS.c ****     uint8_t width = 0;
 232:Generated_Source\PSoC4/nRF24_COMMANDS.c **** #if defined(CY_SCB_SPI_H) // SCB Block
 233:Generated_Source\PSoC4/nRF24_COMMANDS.c **** #if defined(SPI_CY_SCB_SPI_PDL_H) // PSoC6
 234:Generated_Source\PSoC4/nRF24_COMMANDS.c ****     Cy_GPIO_Clr(SS_PORT, SS_NUM);
 235:Generated_Source\PSoC4/nRF24_COMMANDS.c ****     
 236:Generated_Source\PSoC4/nRF24_COMMANDS.c ****     Cy_SCB_SPI_Write(SPI_HW, NRF_R_RX_PL_WID_CMD);
 237:Generated_Source\PSoC4/nRF24_COMMANDS.c ****     Cy_SCB_SPI_Write(SPI_HW, NRF_NOP_CMD);
 238:Generated_Source\PSoC4/nRF24_COMMANDS.c ****     
 239:Generated_Source\PSoC4/nRF24_COMMANDS.c ****     while (Cy_SCB_SPI_GetNumInRxFifo(SPI_HW) != 2) {
 240:Generated_Source\PSoC4/nRF24_COMMANDS.c ****     }
 241:Generated_Source\PSoC4/nRF24_COMMANDS.c ****     Cy_GPIO_Set(SS_PORT, SS_NUM);
 242:Generated_Source\PSoC4/nRF24_COMMANDS.c ****     
 243:Generated_Source\PSoC4/nRF24_COMMANDS.c ****     (void)Cy_SCB_SPI_Read(SPI_HW);
 244:Generated_Source\PSoC4/nRF24_COMMANDS.c ****     width = Cy_SCB_SPI_Read(SPI_HW);
 245:Generated_Source\PSoC4/nRF24_COMMANDS.c **** #else // PSoC4
 246:Generated_Source\PSoC4/nRF24_COMMANDS.c ****     SPI_SpiUartClearRxBuffer();
 382              		.loc 1 246 0
 383 0002 FFF7FEFF 		bl	SPI_SpiUartClearRxBuffer
 384              	.LVL56:
 247:Generated_Source\PSoC4/nRF24_COMMANDS.c ****     SPI_SpiUartClearTxBuffer();
 385              		.loc 1 247 0
 386 0006 FFF7FEFF 		bl	SPI_SpiUartClearTxBuffer
 387              	.LVL57:
 248:Generated_Source\PSoC4/nRF24_COMMANDS.c **** 
 249:Generated_Source\PSoC4/nRF24_COMMANDS.c ****     SS_Write(0);
 388              		.loc 1 249 0
 389 000a 0020     		movs	r0, #0
 390 000c FFF7FEFF 		bl	SS_Write
 391              	.LVL58:
 250:Generated_Source\PSoC4/nRF24_COMMANDS.c ****     SPI_SpiUartWriteTxData(NRF_R_RX_PL_WID_CMD);
 392              		.loc 1 250 0
 393 0010 6020     		movs	r0, #96
 394 0012 FFF7FEFF 		bl	SPI_SpiUartWriteTxData
 395              	.LVL59:
 251:Generated_Source\PSoC4/nRF24_COMMANDS.c ****     SPI_SpiUartWriteTxData(NRF_NOP_CMD);
 396              		.loc 1 251 0
 397 0016 FF20     		movs	r0, #255
 398 0018 FFF7FEFF 		bl	SPI_SpiUartWriteTxData
 399              	.LVL60:
 400              	.L31:
 252:Generated_Source\PSoC4/nRF24_COMMANDS.c **** 
 253:Generated_Source\PSoC4/nRF24_COMMANDS.c ****     while (SPI_SpiUartGetRxBufferSize() != 2) {
 401              		.loc 1 253 0 discriminator 1
 402 001c FFF7FEFF 		bl	SPI_SpiUartGetRxBufferSize
 403              	.LVL61:
 404 0020 0228     		cmp	r0, #2
 405 0022 FBD1     		bne	.L31
 254:Generated_Source\PSoC4/nRF24_COMMANDS.c ****     }
 255:Generated_Source\PSoC4/nRF24_COMMANDS.c ****     SS_Write(1);
 406              		.loc 1 255 0
 407 0024 0138     		subs	r0, r0, #1
 408 0026 FFF7FEFF 		bl	SS_Write
 409              	.LVL62:
 256:Generated_Source\PSoC4/nRF24_COMMANDS.c **** 
ARM GAS  C:\Users\AFDHAL~1\AppData\Local\Temp\cc6FJMnn.s 			page 13


 257:Generated_Source\PSoC4/nRF24_COMMANDS.c ****     // This is the STATUS Register
 258:Generated_Source\PSoC4/nRF24_COMMANDS.c ****     (void)SPI_SpiUartReadRxData();
 410              		.loc 1 258 0
 411 002a FFF7FEFF 		bl	SPI_SpiUartReadRxData
 412              	.LVL63:
 259:Generated_Source\PSoC4/nRF24_COMMANDS.c ****     // This is the data we want
 260:Generated_Source\PSoC4/nRF24_COMMANDS.c ****     width = SPI_SpiUartReadRxData();
 413              		.loc 1 260 0
 414 002e FFF7FEFF 		bl	SPI_SpiUartReadRxData
 415              	.LVL64:
 416 0032 C4B2     		uxtb	r4, r0
 417              	.LVL65:
 261:Generated_Source\PSoC4/nRF24_COMMANDS.c **** #endif
 262:Generated_Source\PSoC4/nRF24_COMMANDS.c **** #else // UDB Block
 263:Generated_Source\PSoC4/nRF24_COMMANDS.c ****     SPI_ClearRxBuffer();
 264:Generated_Source\PSoC4/nRF24_COMMANDS.c ****     SPI_ClearTxBuffer();
 265:Generated_Source\PSoC4/nRF24_COMMANDS.c **** 
 266:Generated_Source\PSoC4/nRF24_COMMANDS.c ****     SS_Write(0);
 267:Generated_Source\PSoC4/nRF24_COMMANDS.c ****     SPI_WriteTxData(NRF_R_RX_PL_WID_CMD);
 268:Generated_Source\PSoC4/nRF24_COMMANDS.c ****     SPI_WriteTxData(NRF_NOP_CMD);
 269:Generated_Source\PSoC4/nRF24_COMMANDS.c **** 
 270:Generated_Source\PSoC4/nRF24_COMMANDS.c ****     while (!(SPI_ReadTxStatus() & SPI_STS_BYTE_COMPLETE)) {
 271:Generated_Source\PSoC4/nRF24_COMMANDS.c ****     }
 272:Generated_Source\PSoC4/nRF24_COMMANDS.c ****     SS_Write(1);
 273:Generated_Source\PSoC4/nRF24_COMMANDS.c **** 
 274:Generated_Source\PSoC4/nRF24_COMMANDS.c ****     // This is the STATUS Register
 275:Generated_Source\PSoC4/nRF24_COMMANDS.c ****     (void)SPI_ReadRxData();
 276:Generated_Source\PSoC4/nRF24_COMMANDS.c ****     // This is the data we want
 277:Generated_Source\PSoC4/nRF24_COMMANDS.c ****     width = SPI_ReadRxData();
 278:Generated_Source\PSoC4/nRF24_COMMANDS.c **** #endif
 279:Generated_Source\PSoC4/nRF24_COMMANDS.c **** 
 280:Generated_Source\PSoC4/nRF24_COMMANDS.c ****     // If width is greater than 32 then is garbage, we must flush the RX FIFO
 281:Generated_Source\PSoC4/nRF24_COMMANDS.c ****     if (32 < width) {
 418              		.loc 1 281 0
 419 0034 202C     		cmp	r4, #32
 420 0036 01D8     		bhi	.L36
 421              	.L32:
 282:Generated_Source\PSoC4/nRF24_COMMANDS.c ****         nRF24_flush_rx_cmd();
 283:Generated_Source\PSoC4/nRF24_COMMANDS.c ****     }
 284:Generated_Source\PSoC4/nRF24_COMMANDS.c **** 
 285:Generated_Source\PSoC4/nRF24_COMMANDS.c ****     return width;
 286:Generated_Source\PSoC4/nRF24_COMMANDS.c **** }
 422              		.loc 1 286 0
 423 0038 2000     		movs	r0, r4
 424              		@ sp needed
 425              	.LVL66:
 426 003a 10BD     		pop	{r4, pc}
 427              	.LVL67:
 428              	.L36:
 429              	.LBB21:
 430              	.LBB22:
 431              	.LBB23:
  50:Generated_Source\PSoC4/nRF24_COMMANDS.c ****     SPI_SpiUartClearTxBuffer();
 432              		.loc 1 50 0
 433 003c FFF7FEFF 		bl	SPI_SpiUartClearRxBuffer
 434              	.LVL68:
  51:Generated_Source\PSoC4/nRF24_COMMANDS.c **** 
ARM GAS  C:\Users\AFDHAL~1\AppData\Local\Temp\cc6FJMnn.s 			page 14


 435              		.loc 1 51 0
 436 0040 FFF7FEFF 		bl	SPI_SpiUartClearTxBuffer
 437              	.LVL69:
  53:Generated_Source\PSoC4/nRF24_COMMANDS.c ****     SPI_SpiUartWriteTxData(cmd);
 438              		.loc 1 53 0
 439 0044 0020     		movs	r0, #0
 440 0046 FFF7FEFF 		bl	SS_Write
 441              	.LVL70:
  54:Generated_Source\PSoC4/nRF24_COMMANDS.c **** 
 442              		.loc 1 54 0
 443 004a E220     		movs	r0, #226
 444 004c FFF7FEFF 		bl	SPI_SpiUartWriteTxData
 445              	.LVL71:
 446              	.L33:
  56:Generated_Source\PSoC4/nRF24_COMMANDS.c ****     }
 447              		.loc 1 56 0
 448 0050 FFF7FEFF 		bl	SPI_SpiUartGetRxBufferSize
 449              	.LVL72:
 450 0054 0128     		cmp	r0, #1
 451 0056 FBD1     		bne	.L33
  58:Generated_Source\PSoC4/nRF24_COMMANDS.c **** #endif
 452              		.loc 1 58 0
 453 0058 FFF7FEFF 		bl	SS_Write
 454              	.LVL73:
 455 005c ECE7     		b	.L32
 456              	.LBE23:
 457              	.LBE22:
 458              	.LBE21:
 459              		.cfi_endproc
 460              	.LFE40:
 461              		.size	nRF24_read_payload_width_cmd, .-nRF24_read_payload_width_cmd
 462 005e C046     		.section	.text.nRF24_write_ack_payload_cmd,"ax",%progbits
 463              		.align	2
 464              		.global	nRF24_write_ack_payload_cmd
 465              		.code	16
 466              		.thumb_func
 467              		.type	nRF24_write_ack_payload_cmd, %function
 468              	nRF24_write_ack_payload_cmd:
 469              	.LFB41:
 287:Generated_Source\PSoC4/nRF24_COMMANDS.c **** 
 288:Generated_Source\PSoC4/nRF24_COMMANDS.c **** /**
 289:Generated_Source\PSoC4/nRF24_COMMANDS.c ****  * @brief Write Payload to be transmitted together with ACK packet.
 290:Generated_Source\PSoC4/nRF24_COMMANDS.c ****  *
 291:Generated_Source\PSoC4/nRF24_COMMANDS.c ****  * Used in RX mode.
 292:Generated_Source\PSoC4/nRF24_COMMANDS.c ****  * Write Payload to be transmitted together with ACK packet on PIPE PPP
 293:Generated_Source\PSoC4/nRF24_COMMANDS.c ****  * (PPP valid in the range from 000 to 101). Maximum three ACK packet
 294:Generated_Source\PSoC4/nRF24_COMMANDS.c ****  * payloads can be pending. Payloads with same PPP are handled using
 295:Generated_Source\PSoC4/nRF24_COMMANDS.c ****  * first in - first out principle.
 296:Generated_Source\PSoC4/nRF24_COMMANDS.c ****  * Write payload: 1 - 32 bytes.
 297:Generated_Source\PSoC4/nRF24_COMMANDS.c ****  * A write operation always starts at byte 0.
 298:Generated_Source\PSoC4/nRF24_COMMANDS.c ****  *
 299:Generated_Source\PSoC4/nRF24_COMMANDS.c ****  * @param const nrf_pipe pipe:
 300:Generated_Source\PSoC4/nRF24_COMMANDS.c ****  * @param const uint8_t* data:
 301:Generated_Source\PSoC4/nRF24_COMMANDS.c ****  * @param const size_t size:
 302:Generated_Source\PSoC4/nRF24_COMMANDS.c ****  */
 303:Generated_Source\PSoC4/nRF24_COMMANDS.c **** void nRF24_write_ack_payload_cmd(const nrf_pipe pipe, const uint8_t* data,
 304:Generated_Source\PSoC4/nRF24_COMMANDS.c ****                                         const size_t size)
ARM GAS  C:\Users\AFDHAL~1\AppData\Local\Temp\cc6FJMnn.s 			page 15


 305:Generated_Source\PSoC4/nRF24_COMMANDS.c **** {
 470              		.loc 1 305 0
 471              		.cfi_startproc
 472              		@ args = 0, pretend = 0, frame = 0
 473              		@ frame_needed = 0, uses_anonymous_args = 0
 474              	.LVL74:
 475 0000 70B5     		push	{r4, r5, r6, lr}
 476              		.cfi_def_cfa_offset 16
 477              		.cfi_offset 4, -16
 478              		.cfi_offset 5, -12
 479              		.cfi_offset 6, -8
 480              		.cfi_offset 14, -4
 481              		.loc 1 305 0
 482 0002 1400     		movs	r4, r2
 483 0004 0D00     		movs	r5, r1
 484 0006 0600     		movs	r6, r0
 306:Generated_Source\PSoC4/nRF24_COMMANDS.c **** #if defined(CY_SCB_SPI_H) // SCB Block
 307:Generated_Source\PSoC4/nRF24_COMMANDS.c **** #if defined(SPI_CY_SCB_SPI_PDL_H) // PSoC6
 308:Generated_Source\PSoC4/nRF24_COMMANDS.c ****     
 309:Generated_Source\PSoC4/nRF24_COMMANDS.c ****     Cy_GPIO_Clr(SS_PORT, SS_NUM);
 310:Generated_Source\PSoC4/nRF24_COMMANDS.c ****     
 311:Generated_Source\PSoC4/nRF24_COMMANDS.c ****     Cy_SCB_SPI_Write(SPI_HW, NRF_W_ACK_PAYLOAD_CMD | pipe);
 312:Generated_Source\PSoC4/nRF24_COMMANDS.c ****     Cy_SCB_SPI_WriteArray(SPI_HW, data, size);
 313:Generated_Source\PSoC4/nRF24_COMMANDS.c ****     
 314:Generated_Source\PSoC4/nRF24_COMMANDS.c ****     while (Cy_SCB_SPI_GetNumInRxFifo(SPI_HW) != (1 + size)) {
 315:Generated_Source\PSoC4/nRF24_COMMANDS.c ****     }
 316:Generated_Source\PSoC4/nRF24_COMMANDS.c ****     Cy_GPIO_Set(SS_PORT, SS_NUM);
 317:Generated_Source\PSoC4/nRF24_COMMANDS.c **** #else // PSoC4
 318:Generated_Source\PSoC4/nRF24_COMMANDS.c ****     SPI_SpiUartClearRxBuffer();
 485              		.loc 1 318 0
 486 0008 FFF7FEFF 		bl	SPI_SpiUartClearRxBuffer
 487              	.LVL75:
 319:Generated_Source\PSoC4/nRF24_COMMANDS.c ****     SPI_SpiUartClearTxBuffer();
 488              		.loc 1 319 0
 489 000c FFF7FEFF 		bl	SPI_SpiUartClearTxBuffer
 490              	.LVL76:
 320:Generated_Source\PSoC4/nRF24_COMMANDS.c **** 
 321:Generated_Source\PSoC4/nRF24_COMMANDS.c ****     SS_Write(0);
 491              		.loc 1 321 0
 492 0010 0020     		movs	r0, #0
 493 0012 FFF7FEFF 		bl	SS_Write
 494              	.LVL77:
 322:Generated_Source\PSoC4/nRF24_COMMANDS.c **** 
 323:Generated_Source\PSoC4/nRF24_COMMANDS.c ****     SPI_SpiUartWriteTxData(NRF_W_ACK_PAYLOAD_CMD | pipe);
 495              		.loc 1 323 0
 496 0016 A820     		movs	r0, #168
 497 0018 3043     		orrs	r0, r6
 498 001a FFF7FEFF 		bl	SPI_SpiUartWriteTxData
 499              	.LVL78:
 324:Generated_Source\PSoC4/nRF24_COMMANDS.c ****     SPI_SpiUartPutArray(data, size);
 500              		.loc 1 324 0
 501 001e 2100     		movs	r1, r4
 502 0020 2800     		movs	r0, r5
 503 0022 FFF7FEFF 		bl	SPI_SpiUartPutArray
 504              	.LVL79:
 505 0026 0134     		adds	r4, r4, #1
 506              	.LVL80:
ARM GAS  C:\Users\AFDHAL~1\AppData\Local\Temp\cc6FJMnn.s 			page 16


 507              	.L38:
 325:Generated_Source\PSoC4/nRF24_COMMANDS.c **** 
 326:Generated_Source\PSoC4/nRF24_COMMANDS.c ****     while (SPI_SpiUartGetRxBufferSize() != (1 + size)) {
 508              		.loc 1 326 0 discriminator 1
 509 0028 FFF7FEFF 		bl	SPI_SpiUartGetRxBufferSize
 510              	.LVL81:
 511 002c A042     		cmp	r0, r4
 512 002e FBD1     		bne	.L38
 327:Generated_Source\PSoC4/nRF24_COMMANDS.c ****     }
 328:Generated_Source\PSoC4/nRF24_COMMANDS.c ****     SS_Write(1);
 513              		.loc 1 328 0
 514 0030 0120     		movs	r0, #1
 515 0032 FFF7FEFF 		bl	SS_Write
 516              	.LVL82:
 329:Generated_Source\PSoC4/nRF24_COMMANDS.c **** #endif
 330:Generated_Source\PSoC4/nRF24_COMMANDS.c **** #else // UDB Block
 331:Generated_Source\PSoC4/nRF24_COMMANDS.c ****     SPI_ClearRxBuffer();
 332:Generated_Source\PSoC4/nRF24_COMMANDS.c ****     SPI_ClearTxBuffer();
 333:Generated_Source\PSoC4/nRF24_COMMANDS.c **** 
 334:Generated_Source\PSoC4/nRF24_COMMANDS.c ****     SS_Write(0);
 335:Generated_Source\PSoC4/nRF24_COMMANDS.c **** 
 336:Generated_Source\PSoC4/nRF24_COMMANDS.c ****     SPI_WriteTxData(NRF_W_ACK_PAYLOAD_CMD | pipe);
 337:Generated_Source\PSoC4/nRF24_COMMANDS.c ****     SPI_PutArray(data, size);
 338:Generated_Source\PSoC4/nRF24_COMMANDS.c ****     
 339:Generated_Source\PSoC4/nRF24_COMMANDS.c ****     while (!(SPI_ReadTxStatus() & SPI_STS_BYTE_COMPLETE)) {
 340:Generated_Source\PSoC4/nRF24_COMMANDS.c ****     }
 341:Generated_Source\PSoC4/nRF24_COMMANDS.c ****     SS_Write(1);
 342:Generated_Source\PSoC4/nRF24_COMMANDS.c **** #endif
 343:Generated_Source\PSoC4/nRF24_COMMANDS.c **** }
 517              		.loc 1 343 0
 518              		@ sp needed
 519              	.LVL83:
 520              	.LVL84:
 521 0036 70BD     		pop	{r4, r5, r6, pc}
 522              		.cfi_endproc
 523              	.LFE41:
 524              		.size	nRF24_write_ack_payload_cmd, .-nRF24_write_ack_payload_cmd
 525              		.section	.text.nRF24_no_ack_payload_cmd,"ax",%progbits
 526              		.align	2
 527              		.global	nRF24_no_ack_payload_cmd
 528              		.code	16
 529              		.thumb_func
 530              		.type	nRF24_no_ack_payload_cmd, %function
 531              	nRF24_no_ack_payload_cmd:
 532              	.LFB42:
 344:Generated_Source\PSoC4/nRF24_COMMANDS.c **** 
 345:Generated_Source\PSoC4/nRF24_COMMANDS.c **** /**
 346:Generated_Source\PSoC4/nRF24_COMMANDS.c ****  * Used in TX mode.
 347:Generated_Source\PSoC4/nRF24_COMMANDS.c ****  * Disable AUTOACK on this packet.
 348:Generated_Source\PSoC4/nRF24_COMMANDS.c ****  *
 349:Generated_Source\PSoC4/nRF24_COMMANDS.c ****  * @param const uint8_t* data:
 350:Generated_Source\PSoC4/nRF24_COMMANDS.c ****  * @param const size_t size:
 351:Generated_Source\PSoC4/nRF24_COMMANDS.c ****  */
 352:Generated_Source\PSoC4/nRF24_COMMANDS.c **** void nRF24_no_ack_payload_cmd(const uint8_t* data, const size_t size)
 353:Generated_Source\PSoC4/nRF24_COMMANDS.c **** {
 533              		.loc 1 353 0
 534              		.cfi_startproc
ARM GAS  C:\Users\AFDHAL~1\AppData\Local\Temp\cc6FJMnn.s 			page 17


 535              		@ args = 0, pretend = 0, frame = 0
 536              		@ frame_needed = 0, uses_anonymous_args = 0
 537              	.LVL85:
 538 0000 70B5     		push	{r4, r5, r6, lr}
 539              		.cfi_def_cfa_offset 16
 540              		.cfi_offset 4, -16
 541              		.cfi_offset 5, -12
 542              		.cfi_offset 6, -8
 543              		.cfi_offset 14, -4
 544              		.loc 1 353 0
 545 0002 0C00     		movs	r4, r1
 546 0004 0500     		movs	r5, r0
 354:Generated_Source\PSoC4/nRF24_COMMANDS.c **** #if defined(CY_SCB_SPI_H) // SCB Block
 355:Generated_Source\PSoC4/nRF24_COMMANDS.c **** #if defined(SPI_CY_SCB_SPI_PDL_H) // PSoC6
 356:Generated_Source\PSoC4/nRF24_COMMANDS.c ****     Cy_GPIO_Clr(SS_PORT, SS_NUM);
 357:Generated_Source\PSoC4/nRF24_COMMANDS.c ****     
 358:Generated_Source\PSoC4/nRF24_COMMANDS.c ****     Cy_SCB_SPI_Write(SPI_HW, NRF_W_TX_PAYLOAD_NOACK_CMD);
 359:Generated_Source\PSoC4/nRF24_COMMANDS.c ****     Cy_SCB_SPI_WriteArray(SPI_HW, data, size);
 360:Generated_Source\PSoC4/nRF24_COMMANDS.c ****     
 361:Generated_Source\PSoC4/nRF24_COMMANDS.c ****     while (Cy_SCB_SPI_GetNumInRxFifo(SPI_HW) != (1 + size)) {
 362:Generated_Source\PSoC4/nRF24_COMMANDS.c ****     }
 363:Generated_Source\PSoC4/nRF24_COMMANDS.c ****     Cy_GPIO_Set(SS_PORT, SS_NUM);
 364:Generated_Source\PSoC4/nRF24_COMMANDS.c **** #else // PSoC4
 365:Generated_Source\PSoC4/nRF24_COMMANDS.c ****     SPI_SpiUartClearRxBuffer();
 547              		.loc 1 365 0
 548 0006 FFF7FEFF 		bl	SPI_SpiUartClearRxBuffer
 549              	.LVL86:
 366:Generated_Source\PSoC4/nRF24_COMMANDS.c ****     SPI_SpiUartClearTxBuffer();
 550              		.loc 1 366 0
 551 000a FFF7FEFF 		bl	SPI_SpiUartClearTxBuffer
 552              	.LVL87:
 367:Generated_Source\PSoC4/nRF24_COMMANDS.c **** 
 368:Generated_Source\PSoC4/nRF24_COMMANDS.c ****     SS_Write(0);
 553              		.loc 1 368 0
 554 000e 0020     		movs	r0, #0
 555 0010 FFF7FEFF 		bl	SS_Write
 556              	.LVL88:
 369:Generated_Source\PSoC4/nRF24_COMMANDS.c **** 
 370:Generated_Source\PSoC4/nRF24_COMMANDS.c ****     SPI_SpiUartWriteTxData(NRF_W_TX_PAYLOAD_NOACK_CMD);
 557              		.loc 1 370 0
 558 0014 B020     		movs	r0, #176
 559 0016 FFF7FEFF 		bl	SPI_SpiUartWriteTxData
 560              	.LVL89:
 371:Generated_Source\PSoC4/nRF24_COMMANDS.c ****     SPI_SpiUartPutArray(data, size);
 561              		.loc 1 371 0
 562 001a 2100     		movs	r1, r4
 563 001c 2800     		movs	r0, r5
 564 001e FFF7FEFF 		bl	SPI_SpiUartPutArray
 565              	.LVL90:
 566 0022 0134     		adds	r4, r4, #1
 567              	.LVL91:
 568              	.L41:
 372:Generated_Source\PSoC4/nRF24_COMMANDS.c **** 
 373:Generated_Source\PSoC4/nRF24_COMMANDS.c ****     while (SPI_SpiUartGetRxBufferSize() != (1 + size)) {
 569              		.loc 1 373 0 discriminator 1
 570 0024 FFF7FEFF 		bl	SPI_SpiUartGetRxBufferSize
 571              	.LVL92:
ARM GAS  C:\Users\AFDHAL~1\AppData\Local\Temp\cc6FJMnn.s 			page 18


 572 0028 A042     		cmp	r0, r4
 573 002a FBD1     		bne	.L41
 374:Generated_Source\PSoC4/nRF24_COMMANDS.c ****     }
 375:Generated_Source\PSoC4/nRF24_COMMANDS.c ****     SS_Write(1);
 574              		.loc 1 375 0
 575 002c 0120     		movs	r0, #1
 576 002e FFF7FEFF 		bl	SS_Write
 577              	.LVL93:
 376:Generated_Source\PSoC4/nRF24_COMMANDS.c **** #endif
 377:Generated_Source\PSoC4/nRF24_COMMANDS.c **** #else // UDB Block
 378:Generated_Source\PSoC4/nRF24_COMMANDS.c ****     SPI_ClearRxBuffer();
 379:Generated_Source\PSoC4/nRF24_COMMANDS.c ****     SPI_ClearTxBuffer();
 380:Generated_Source\PSoC4/nRF24_COMMANDS.c **** 
 381:Generated_Source\PSoC4/nRF24_COMMANDS.c ****     SS_Write(0);
 382:Generated_Source\PSoC4/nRF24_COMMANDS.c **** 
 383:Generated_Source\PSoC4/nRF24_COMMANDS.c ****     SPI_WriteTxData(NRF_W_TX_PAYLOAD_NOACK_CMD);
 384:Generated_Source\PSoC4/nRF24_COMMANDS.c ****     SPI_PutArray(data, size);
 385:Generated_Source\PSoC4/nRF24_COMMANDS.c ****     
 386:Generated_Source\PSoC4/nRF24_COMMANDS.c ****     while (!(SPI_ReadTxStatus() & SPI_STS_BYTE_COMPLETE)) {
 387:Generated_Source\PSoC4/nRF24_COMMANDS.c ****     }
 388:Generated_Source\PSoC4/nRF24_COMMANDS.c ****     SS_Write(1);
 389:Generated_Source\PSoC4/nRF24_COMMANDS.c **** #endif
 390:Generated_Source\PSoC4/nRF24_COMMANDS.c **** }
 578              		.loc 1 390 0
 579              		@ sp needed
 580              	.LVL94:
 581              	.LVL95:
 582 0032 70BD     		pop	{r4, r5, r6, pc}
 583              		.cfi_endproc
 584              	.LFE42:
 585              		.size	nRF24_no_ack_payload_cmd, .-nRF24_no_ack_payload_cmd
 586              		.section	.text.nRF24_nop_cmd,"ax",%progbits
 587              		.align	2
 588              		.global	nRF24_nop_cmd
 589              		.code	16
 590              		.thumb_func
 591              		.type	nRF24_nop_cmd, %function
 592              	nRF24_nop_cmd:
 593              	.LFB43:
 391:Generated_Source\PSoC4/nRF24_COMMANDS.c **** 
 392:Generated_Source\PSoC4/nRF24_COMMANDS.c **** /**
 393:Generated_Source\PSoC4/nRF24_COMMANDS.c ****  * NOP (No OPeration) Command. Might be used to read the STATUS register.
 394:Generated_Source\PSoC4/nRF24_COMMANDS.c ****  *
 395:Generated_Source\PSoC4/nRF24_COMMANDS.c ****  * @return uint8_t: STATUS register.
 396:Generated_Source\PSoC4/nRF24_COMMANDS.c ****  */
 397:Generated_Source\PSoC4/nRF24_COMMANDS.c **** uint8_t nRF24_nop_cmd(void)
 398:Generated_Source\PSoC4/nRF24_COMMANDS.c **** {
 594              		.loc 1 398 0
 595              		.cfi_startproc
 596              		@ args = 0, pretend = 0, frame = 0
 597              		@ frame_needed = 0, uses_anonymous_args = 0
 598              	.LVL96:
 599 0000 10B5     		push	{r4, lr}
 600              		.cfi_def_cfa_offset 8
 601              		.cfi_offset 4, -8
 602              		.cfi_offset 14, -4
 399:Generated_Source\PSoC4/nRF24_COMMANDS.c ****     uint8_t status = 0;
ARM GAS  C:\Users\AFDHAL~1\AppData\Local\Temp\cc6FJMnn.s 			page 19


 400:Generated_Source\PSoC4/nRF24_COMMANDS.c **** #if defined(CY_SCB_SPI_H) // SCB Block
 401:Generated_Source\PSoC4/nRF24_COMMANDS.c **** #if defined(SPI_CY_SCB_SPI_PDL_H) // PSoC6
 402:Generated_Source\PSoC4/nRF24_COMMANDS.c ****     Cy_GPIO_Clr(SS_PORT, SS_NUM);
 403:Generated_Source\PSoC4/nRF24_COMMANDS.c ****     
 404:Generated_Source\PSoC4/nRF24_COMMANDS.c ****     Cy_SCB_SPI_Write(SPI_HW, NRF_NOP_CMD);
 405:Generated_Source\PSoC4/nRF24_COMMANDS.c ****     
 406:Generated_Source\PSoC4/nRF24_COMMANDS.c ****     while (Cy_SCB_SPI_GetNumInRxFifo(SPI_HW) != 1) {
 407:Generated_Source\PSoC4/nRF24_COMMANDS.c ****     }
 408:Generated_Source\PSoC4/nRF24_COMMANDS.c ****     Cy_GPIO_Set(SS_PORT, SS_NUM);
 409:Generated_Source\PSoC4/nRF24_COMMANDS.c ****     
 410:Generated_Source\PSoC4/nRF24_COMMANDS.c ****     status = Cy_SCB_SPI_Read(SPI_HW);
 411:Generated_Source\PSoC4/nRF24_COMMANDS.c **** #else // PSoC4
 412:Generated_Source\PSoC4/nRF24_COMMANDS.c ****     SPI_SpiUartClearRxBuffer();
 603              		.loc 1 412 0
 604 0002 FFF7FEFF 		bl	SPI_SpiUartClearRxBuffer
 605              	.LVL97:
 413:Generated_Source\PSoC4/nRF24_COMMANDS.c ****     SPI_SpiUartClearTxBuffer();
 606              		.loc 1 413 0
 607 0006 FFF7FEFF 		bl	SPI_SpiUartClearTxBuffer
 608              	.LVL98:
 414:Generated_Source\PSoC4/nRF24_COMMANDS.c **** 
 415:Generated_Source\PSoC4/nRF24_COMMANDS.c ****     SS_Write(0);
 609              		.loc 1 415 0
 610 000a 0020     		movs	r0, #0
 611 000c FFF7FEFF 		bl	SS_Write
 612              	.LVL99:
 416:Generated_Source\PSoC4/nRF24_COMMANDS.c ****     SPI_SpiUartWriteTxData(NRF_NOP_CMD);
 613              		.loc 1 416 0
 614 0010 FF20     		movs	r0, #255
 615 0012 FFF7FEFF 		bl	SPI_SpiUartWriteTxData
 616              	.LVL100:
 617              	.L44:
 417:Generated_Source\PSoC4/nRF24_COMMANDS.c **** 
 418:Generated_Source\PSoC4/nRF24_COMMANDS.c ****     while (SPI_SpiUartGetRxBufferSize() != 1) {
 618              		.loc 1 418 0 discriminator 1
 619 0016 FFF7FEFF 		bl	SPI_SpiUartGetRxBufferSize
 620              	.LVL101:
 621 001a 0128     		cmp	r0, #1
 622 001c FBD1     		bne	.L44
 419:Generated_Source\PSoC4/nRF24_COMMANDS.c ****     }
 420:Generated_Source\PSoC4/nRF24_COMMANDS.c ****     SS_Write(1);
 623              		.loc 1 420 0
 624 001e FFF7FEFF 		bl	SS_Write
 625              	.LVL102:
 421:Generated_Source\PSoC4/nRF24_COMMANDS.c **** 
 422:Generated_Source\PSoC4/nRF24_COMMANDS.c ****     status = SPI_SpiUartReadRxData();
 626              		.loc 1 422 0
 627 0022 FFF7FEFF 		bl	SPI_SpiUartReadRxData
 628              	.LVL103:
 423:Generated_Source\PSoC4/nRF24_COMMANDS.c **** #endif
 424:Generated_Source\PSoC4/nRF24_COMMANDS.c **** #else // UDB Block
 425:Generated_Source\PSoC4/nRF24_COMMANDS.c ****     SPI_ClearRxBuffer();
 426:Generated_Source\PSoC4/nRF24_COMMANDS.c ****     SPI_ClearTxBuffer();
 427:Generated_Source\PSoC4/nRF24_COMMANDS.c **** 
 428:Generated_Source\PSoC4/nRF24_COMMANDS.c ****     SS_Write(0);
 429:Generated_Source\PSoC4/nRF24_COMMANDS.c ****     SPI_WriteTxData(NRF_NOP_CMD);
 430:Generated_Source\PSoC4/nRF24_COMMANDS.c **** 
ARM GAS  C:\Users\AFDHAL~1\AppData\Local\Temp\cc6FJMnn.s 			page 20


 431:Generated_Source\PSoC4/nRF24_COMMANDS.c ****     while (!(SPI_ReadTxStatus() & SPI_STS_BYTE_COMPLETE)) {
 432:Generated_Source\PSoC4/nRF24_COMMANDS.c ****     }
 433:Generated_Source\PSoC4/nRF24_COMMANDS.c ****     SS_Write(1);
 434:Generated_Source\PSoC4/nRF24_COMMANDS.c **** 
 435:Generated_Source\PSoC4/nRF24_COMMANDS.c ****     status = SPI_ReadRxData();
 436:Generated_Source\PSoC4/nRF24_COMMANDS.c **** #endif
 437:Generated_Source\PSoC4/nRF24_COMMANDS.c ****     return status;
 438:Generated_Source\PSoC4/nRF24_COMMANDS.c **** }
 629              		.loc 1 438 0
 630              		@ sp needed
 437:Generated_Source\PSoC4/nRF24_COMMANDS.c **** }
 631              		.loc 1 437 0
 632 0026 C0B2     		uxtb	r0, r0
 633              		.loc 1 438 0
 634 0028 10BD     		pop	{r4, pc}
 635              		.cfi_endproc
 636              	.LFE43:
 637              		.size	nRF24_nop_cmd, .-nRF24_nop_cmd
 638 002a C046     		.text
 639              	.Letext0:
 640              		.file 2 "c:\\program files (x86)\\cypress\\psoc creator\\4.1\\psoc creator\\import\\gnu\\arm\\5.4.
 641              		.file 3 "c:\\program files (x86)\\cypress\\psoc creator\\4.1\\psoc creator\\import\\gnu\\arm\\5.4.
 642              		.file 4 "c:\\program files (x86)\\cypress\\psoc creator\\4.1\\psoc creator\\import\\gnu\\arm\\5.4.
 643              		.file 5 "Generated_Source\\PSoC4\\nRF24_REGS.h"
 644              		.file 6 "Generated_Source\\PSoC4\\SPI_SPI_UART.h"
 645              		.file 7 "Generated_Source\\PSoC4\\SS.h"