ARM GAS  C:\Users\AFDHAL~1\AppData\Local\Temp\ccielSKc.s 			page 1


   1              		.syntax unified
   2              		.cpu cortex-m0
   3              		.fpu softvfp
   4              		.eabi_attribute 20, 1
   5              		.eabi_attribute 21, 1
   6              		.eabi_attribute 23, 3
   7              		.eabi_attribute 24, 1
   8              		.eabi_attribute 25, 1
   9              		.eabi_attribute 26, 1
  10              		.eabi_attribute 30, 2
  11              		.eabi_attribute 34, 0
  12              		.eabi_attribute 18, 4
  13              		.thumb
  14              		.syntax unified
  15              		.file	"nRF24_FUNCS.c"
  16              		.text
  17              	.Ltext0:
  18              		.cfi_sections	.debug_frame
  19              		.section	.text.nRF24_start,"ax",%progbits
  20              		.align	2
  21              		.global	nRF24_start
  22              		.code	16
  23              		.thumb_func
  24              		.type	nRF24_start, %function
  25              	nRF24_start:
  26              	.LFB34:
  27              		.file 1 "Generated_Source\\PSoC4\\nRF24_FUNCS.c"
   1:Generated_Source\PSoC4/nRF24_FUNCS.c **** /****************************************************************************
   2:Generated_Source\PSoC4/nRF24_FUNCS.c **** * This file is part of the nRF24 Custom Component for PSoC Devices.
   3:Generated_Source\PSoC4/nRF24_FUNCS.c **** *
   4:Generated_Source\PSoC4/nRF24_FUNCS.c **** * Copyright (C) 2017 Carlos Diaz <carlos.santiago.diaz@gmail.com>
   5:Generated_Source\PSoC4/nRF24_FUNCS.c **** *
   6:Generated_Source\PSoC4/nRF24_FUNCS.c **** * Permission to use, copy, modify, and/or distribute this software for any
   7:Generated_Source\PSoC4/nRF24_FUNCS.c **** * purpose with or without fee is hereby granted, provided that the above
   8:Generated_Source\PSoC4/nRF24_FUNCS.c **** * copyright notice and this permission notice appear in all copies.
   9:Generated_Source\PSoC4/nRF24_FUNCS.c **** *
  10:Generated_Source\PSoC4/nRF24_FUNCS.c **** * THE SOFTWARE IS PROVIDED "AS IS" AND THE AUTHOR DISCLAIMS ALL WARRANTIES
  11:Generated_Source\PSoC4/nRF24_FUNCS.c **** * WITH REGARD TO THIS SOFTWARE INCLUDING ALL IMPLIED WARRANTIES OF
  12:Generated_Source\PSoC4/nRF24_FUNCS.c **** * MERCHANTABILITY AND FITNESS. IN NO EVENT SHALL THE AUTHOR BE LIABLE FOR
  13:Generated_Source\PSoC4/nRF24_FUNCS.c **** * ANY SPECIAL, DIRECT, INDIRECT, OR CONSEQUENTIAL DAMAGES OR ANY DAMAGES
  14:Generated_Source\PSoC4/nRF24_FUNCS.c **** * WHATSOEVER RESULTING FROM LOSS OF USE, DATA OR PROFITS, WHETHER IN AN
  15:Generated_Source\PSoC4/nRF24_FUNCS.c **** * ACTION OF CONTRACT, NEGLIGENCE OR OTHER TORTIOUS ACTION, ARISING OUT OF
  16:Generated_Source\PSoC4/nRF24_FUNCS.c **** * OR IN CONNECTION WITH THE USE OR PERFORMANCE OF THIS SOFTWARE.
  17:Generated_Source\PSoC4/nRF24_FUNCS.c **** ****************************************************************************/
  18:Generated_Source\PSoC4/nRF24_FUNCS.c **** 
  19:Generated_Source\PSoC4/nRF24_FUNCS.c **** /**
  20:Generated_Source\PSoC4/nRF24_FUNCS.c **** * @file nRF24_NRF_FUNCS.c
  21:Generated_Source\PSoC4/nRF24_FUNCS.c **** *
  22:Generated_Source\PSoC4/nRF24_FUNCS.c **** * @brief This file define all the functions available to the user.
  23:Generated_Source\PSoC4/nRF24_FUNCS.c **** */
  24:Generated_Source\PSoC4/nRF24_FUNCS.c **** 
  25:Generated_Source\PSoC4/nRF24_FUNCS.c **** #include "nRF24_CONFIG.h"
  26:Generated_Source\PSoC4/nRF24_FUNCS.c **** #include "nRF24_LL_SPI.h"
  27:Generated_Source\PSoC4/nRF24_FUNCS.c **** #include "nRF24_COMMANDS.h"
  28:Generated_Source\PSoC4/nRF24_FUNCS.c **** #include "nRF24_FUNCS.h"
  29:Generated_Source\PSoC4/nRF24_FUNCS.c **** #include "nRF24_REGS.h"
  30:Generated_Source\PSoC4/nRF24_FUNCS.c **** 
ARM GAS  C:\Users\AFDHAL~1\AppData\Local\Temp\ccielSKc.s 			page 2


  31:Generated_Source\PSoC4/nRF24_FUNCS.c **** /**
  32:Generated_Source\PSoC4/nRF24_FUNCS.c ****  * @brief Configure the radio and clear IRQs, TX and RX FIFOs.
  33:Generated_Source\PSoC4/nRF24_FUNCS.c ****  */
  34:Generated_Source\PSoC4/nRF24_FUNCS.c **** void nRF24_start(void)
  35:Generated_Source\PSoC4/nRF24_FUNCS.c **** {
  28              		.loc 1 35 0
  29              		.cfi_startproc
  30              		@ args = 0, pretend = 0, frame = 0
  31              		@ frame_needed = 0, uses_anonymous_args = 0
  32 0000 10B5     		push	{r4, lr}
  33              		.cfi_def_cfa_offset 8
  34              		.cfi_offset 4, -8
  35              		.cfi_offset 14, -4
  36:Generated_Source\PSoC4/nRF24_FUNCS.c ****     // Recommended delay to start using the nRF24
  37:Generated_Source\PSoC4/nRF24_FUNCS.c ****     CyDelay(NRF_POWER_UP_DELAY);
  36              		.loc 1 37 0
  37 0002 6420     		movs	r0, #100
  38 0004 FFF7FEFF 		bl	CyDelay
  39              	.LVL0:
  38:Generated_Source\PSoC4/nRF24_FUNCS.c ****     
  39:Generated_Source\PSoC4/nRF24_FUNCS.c ****     // Now the radio is in Power Down mode
  40:Generated_Source\PSoC4/nRF24_FUNCS.c ****     
  41:Generated_Source\PSoC4/nRF24_FUNCS.c ****     // Set SS to logic 1, CE to logic 0 and Start the SPI
  42:Generated_Source\PSoC4/nRF24_FUNCS.c **** #if defined(CY_GPIO_H) // PSoC6
  43:Generated_Source\PSoC4/nRF24_FUNCS.c ****     Cy_GPIO_Clr(CE_PORT, CE_NUM);
  44:Generated_Source\PSoC4/nRF24_FUNCS.c ****     Cy_GPIO_Set(SS_PORT, SS_NUM);
  45:Generated_Source\PSoC4/nRF24_FUNCS.c **** #else // PSoC 4 and 5LP
  46:Generated_Source\PSoC4/nRF24_FUNCS.c ****     CE_Write(0);
  40              		.loc 1 46 0
  41 0008 0020     		movs	r0, #0
  42 000a FFF7FEFF 		bl	CE_Write
  43              	.LVL1:
  47:Generated_Source\PSoC4/nRF24_FUNCS.c ****     SS_Write(1);
  44              		.loc 1 47 0
  45 000e 0120     		movs	r0, #1
  46 0010 FFF7FEFF 		bl	SS_Write
  47              	.LVL2:
  48:Generated_Source\PSoC4/nRF24_FUNCS.c **** #endif
  49:Generated_Source\PSoC4/nRF24_FUNCS.c ****     SPI_Start();
  48              		.loc 1 49 0
  49 0014 FFF7FEFF 		bl	SPI_Start
  50              	.LVL3:
  50:Generated_Source\PSoC4/nRF24_FUNCS.c **** 
  51:Generated_Source\PSoC4/nRF24_FUNCS.c ****     // Flush both nRF24 FIFOs
  52:Generated_Source\PSoC4/nRF24_FUNCS.c ****     nRF24_flush_rx_cmd();
  51              		.loc 1 52 0
  52 0018 FFF7FEFF 		bl	nRF24_flush_rx_cmd
  53              	.LVL4:
  53:Generated_Source\PSoC4/nRF24_FUNCS.c ****     nRF24_flush_tx_cmd();
  54              		.loc 1 53 0
  55 001c FFF7FEFF 		bl	nRF24_flush_tx_cmd
  56              	.LVL5:
  57              	.LBB24:
  58              	.LBB25:
  54:Generated_Source\PSoC4/nRF24_FUNCS.c ****     // Clear IRQ flags
  55:Generated_Source\PSoC4/nRF24_FUNCS.c ****     nRF24_clear_all_irqs();
  56:Generated_Source\PSoC4/nRF24_FUNCS.c ****     
ARM GAS  C:\Users\AFDHAL~1\AppData\Local\Temp\ccielSKc.s 			page 3


  57:Generated_Source\PSoC4/nRF24_FUNCS.c ****     // Configure the nRF24 with the data from the customizer
  58:Generated_Source\PSoC4/nRF24_FUNCS.c ****     nRF24_init();
  59:Generated_Source\PSoC4/nRF24_FUNCS.c ****     
  60:Generated_Source\PSoC4/nRF24_FUNCS.c ****     // After PWR_UP = 1 the radio is in Standby-I mode, 130us of delay for settling
  61:Generated_Source\PSoC4/nRF24_FUNCS.c ****     CyDelayUs(150);
  62:Generated_Source\PSoC4/nRF24_FUNCS.c **** }
  63:Generated_Source\PSoC4/nRF24_FUNCS.c **** 
  64:Generated_Source\PSoC4/nRF24_FUNCS.c **** /**
  65:Generated_Source\PSoC4/nRF24_FUNCS.c ****  * Configure the nRF radio with the data from the customizer.
  66:Generated_Source\PSoC4/nRF24_FUNCS.c ****  */
  67:Generated_Source\PSoC4/nRF24_FUNCS.c **** void nRF24_init(void)
  68:Generated_Source\PSoC4/nRF24_FUNCS.c **** {
  69:Generated_Source\PSoC4/nRF24_FUNCS.c ****     nRF24_write_register(NRF_EN_AA_REG, CUSTOMIZER_EN_AA);
  70:Generated_Source\PSoC4/nRF24_FUNCS.c ****     nRF24_write_register(NRF_EN_RXADDR_REG, CUSTOMIZER_EN_RXADDR);
  71:Generated_Source\PSoC4/nRF24_FUNCS.c ****     nRF24_write_register(NRF_SETUP_AW_REG, CUSTOMIZER_SETUP_AW);
  72:Generated_Source\PSoC4/nRF24_FUNCS.c ****     nRF24_write_register(NRF_SETUP_RETR_REG, CUSTOMIZER_SETUP_RETR);
  73:Generated_Source\PSoC4/nRF24_FUNCS.c ****     nRF24_write_register(NRF_RF_CH_REG, CUSTOMIZER_RF_CH);
  74:Generated_Source\PSoC4/nRF24_FUNCS.c ****     nRF24_write_register(NRF_RF_SETUP_REG, CUSTOMIZER_RF_SETUP);
  75:Generated_Source\PSoC4/nRF24_FUNCS.c ****     nRF24_write_register(NRF_DYNPD_REG, CUSTOMIZER_DYNPD);
  76:Generated_Source\PSoC4/nRF24_FUNCS.c ****     nRF24_write_register(NRF_FEATURE_REG, CUSTOMIZER_FEATURE);
  77:Generated_Source\PSoC4/nRF24_FUNCS.c **** 
  78:Generated_Source\PSoC4/nRF24_FUNCS.c **** // Configuring data pipes
  79:Generated_Source\PSoC4/nRF24_FUNCS.c **** #if (ENABLE_PIPE0 == 1)
  80:Generated_Source\PSoC4/nRF24_FUNCS.c ****     nRF24_write_register(NRF_RX_PW_P0_REG, CUSTOMIZER_RX_PW_P0);
  81:Generated_Source\PSoC4/nRF24_FUNCS.c **** #endif
  82:Generated_Source\PSoC4/nRF24_FUNCS.c **** #if (ENABLE_PIPE1 == 1)
  83:Generated_Source\PSoC4/nRF24_FUNCS.c ****     nRF24_write_register(NRF_RX_PW_P1_REG, CUSTOMIZER_RX_PW_P0);
  84:Generated_Source\PSoC4/nRF24_FUNCS.c **** #endif
  85:Generated_Source\PSoC4/nRF24_FUNCS.c **** #if (ENABLE_PIPE2 == 1)
  86:Generated_Source\PSoC4/nRF24_FUNCS.c ****     nRF24_write_register(NRF_RX_ADDR_P2_REG, CUSTOMIZER_RX_ADDR_P2);
  87:Generated_Source\PSoC4/nRF24_FUNCS.c ****     nRF24_write_register(NRF_RX_PW_P2_REG, CUSTOMIZER_RX_PW_P0);
  88:Generated_Source\PSoC4/nRF24_FUNCS.c **** #endif
  89:Generated_Source\PSoC4/nRF24_FUNCS.c **** #if (ENABLE_PIPE3 == 1)
  90:Generated_Source\PSoC4/nRF24_FUNCS.c ****     nRF24_write_register(NRF_RX_ADDR_P3_REG, CUSTOMIZER_RX_ADDR_P3);
  91:Generated_Source\PSoC4/nRF24_FUNCS.c ****     nRF24_write_register(NRF_RX_PW_P3_REG, CUSTOMIZER_RX_PW_P0);
  92:Generated_Source\PSoC4/nRF24_FUNCS.c **** #endif
  93:Generated_Source\PSoC4/nRF24_FUNCS.c **** #if (ENABLE_PIPE4 == 1)
  94:Generated_Source\PSoC4/nRF24_FUNCS.c ****     nRF24_write_register(NRF_RX_ADDR_P4_REG, CUSTOMIZER_RX_ADDR_P4);
  95:Generated_Source\PSoC4/nRF24_FUNCS.c ****     nRF24_write_register(NRF_RX_PW_P4_REG, CUSTOMIZER_RX_PW_P0);
  96:Generated_Source\PSoC4/nRF24_FUNCS.c **** #endif
  97:Generated_Source\PSoC4/nRF24_FUNCS.c **** #if (ENABLE_PIPE5 == 1)
  98:Generated_Source\PSoC4/nRF24_FUNCS.c ****     nRF24_write_register(NRF_RX_ADDR_P5_REG, CUSTOMIZER_RX_ADDR_P5);
  99:Generated_Source\PSoC4/nRF24_FUNCS.c ****     nRF24_write_register(NRF_RX_PW_P5_REG, CUSTOMIZER_RX_PW_P0);
 100:Generated_Source\PSoC4/nRF24_FUNCS.c **** #endif
 101:Generated_Source\PSoC4/nRF24_FUNCS.c **** 
 102:Generated_Source\PSoC4/nRF24_FUNCS.c ****     nRF24_write_register( NRF_CONFIG_REG, CUSTOMIZER_CONFIG);
 103:Generated_Source\PSoC4/nRF24_FUNCS.c **** }
 104:Generated_Source\PSoC4/nRF24_FUNCS.c **** 
 105:Generated_Source\PSoC4/nRF24_FUNCS.c **** /**
 106:Generated_Source\PSoC4/nRF24_FUNCS.c ****  * Enable the nRF24 radio.
 107:Generated_Source\PSoC4/nRF24_FUNCS.c ****  *
 108:Generated_Source\PSoC4/nRF24_FUNCS.c ****  * @todo Implement this function
 109:Generated_Source\PSoC4/nRF24_FUNCS.c ****  */
 110:Generated_Source\PSoC4/nRF24_FUNCS.c **** void nRF24_enable(void)
 111:Generated_Source\PSoC4/nRF24_FUNCS.c **** {
 112:Generated_Source\PSoC4/nRF24_FUNCS.c **** }
 113:Generated_Source\PSoC4/nRF24_FUNCS.c **** 
ARM GAS  C:\Users\AFDHAL~1\AppData\Local\Temp\ccielSKc.s 			page 4


 114:Generated_Source\PSoC4/nRF24_FUNCS.c **** /**
 115:Generated_Source\PSoC4/nRF24_FUNCS.c ****  * Stop the nRF24 radio.
 116:Generated_Source\PSoC4/nRF24_FUNCS.c ****  *
 117:Generated_Source\PSoC4/nRF24_FUNCS.c ****  * @todo Implement this function
 118:Generated_Source\PSoC4/nRF24_FUNCS.c ****  */
 119:Generated_Source\PSoC4/nRF24_FUNCS.c **** void nRF24_stop(void)
 120:Generated_Source\PSoC4/nRF24_FUNCS.c **** {
 121:Generated_Source\PSoC4/nRF24_FUNCS.c **** }
 122:Generated_Source\PSoC4/nRF24_FUNCS.c **** 
 123:Generated_Source\PSoC4/nRF24_FUNCS.c **** /**
 124:Generated_Source\PSoC4/nRF24_FUNCS.c ****  * Put the nRF24 radio on Standby-I mode.
 125:Generated_Source\PSoC4/nRF24_FUNCS.c ****  * This function doesn't put the SPI, MCU nor pins to sleep
 126:Generated_Source\PSoC4/nRF24_FUNCS.c ****  */
 127:Generated_Source\PSoC4/nRF24_FUNCS.c **** void nRF24_sleep(void)
 128:Generated_Source\PSoC4/nRF24_FUNCS.c **** {
 129:Generated_Source\PSoC4/nRF24_FUNCS.c ****     // is standby.I the lowest power mode?
 130:Generated_Source\PSoC4/nRF24_FUNCS.c ****     nRF24_set_standby_i_mode();
 131:Generated_Source\PSoC4/nRF24_FUNCS.c **** }
 132:Generated_Source\PSoC4/nRF24_FUNCS.c **** 
 133:Generated_Source\PSoC4/nRF24_FUNCS.c **** /**
 134:Generated_Source\PSoC4/nRF24_FUNCS.c ****  * Wakeup the nRF24 radio, and restore the configuration.
 135:Generated_Source\PSoC4/nRF24_FUNCS.c ****  *
 136:Generated_Source\PSoC4/nRF24_FUNCS.c ****  * @todo Implement this function.
 137:Generated_Source\PSoC4/nRF24_FUNCS.c ****  */
 138:Generated_Source\PSoC4/nRF24_FUNCS.c **** void nRF24_wakeup(void)
 139:Generated_Source\PSoC4/nRF24_FUNCS.c **** {
 140:Generated_Source\PSoC4/nRF24_FUNCS.c ****     // after leaving standby-I mode the radio need a time to
 141:Generated_Source\PSoC4/nRF24_FUNCS.c ****     // return to TX or RX Mode
 142:Generated_Source\PSoC4/nRF24_FUNCS.c ****     nRF24_set_bit(NRF_CONFIG_REG, NRF_CONFIG_PWR_UP);
 143:Generated_Source\PSoC4/nRF24_FUNCS.c ****     CyDelay(5);
 144:Generated_Source\PSoC4/nRF24_FUNCS.c **** }
 145:Generated_Source\PSoC4/nRF24_FUNCS.c **** 
 146:Generated_Source\PSoC4/nRF24_FUNCS.c **** /**
 147:Generated_Source\PSoC4/nRF24_FUNCS.c ****  * Save the nRF24 radio configuration.
 148:Generated_Source\PSoC4/nRF24_FUNCS.c ****  *
 149:Generated_Source\PSoC4/nRF24_FUNCS.c ****  * @todo Implement this function.
 150:Generated_Source\PSoC4/nRF24_FUNCS.c ****  */
 151:Generated_Source\PSoC4/nRF24_FUNCS.c **** void nRF24_save_config(void)
 152:Generated_Source\PSoC4/nRF24_FUNCS.c **** {
 153:Generated_Source\PSoC4/nRF24_FUNCS.c **** }
 154:Generated_Source\PSoC4/nRF24_FUNCS.c **** 
 155:Generated_Source\PSoC4/nRF24_FUNCS.c **** /**
 156:Generated_Source\PSoC4/nRF24_FUNCS.c ****  * Restore the nRF24 radio configuration.
 157:Generated_Source\PSoC4/nRF24_FUNCS.c ****  *
 158:Generated_Source\PSoC4/nRF24_FUNCS.c ****  * @todo Implement this function.
 159:Generated_Source\PSoC4/nRF24_FUNCS.c ****  */
 160:Generated_Source\PSoC4/nRF24_FUNCS.c **** void nRF24_restore_config(void)
 161:Generated_Source\PSoC4/nRF24_FUNCS.c **** {
 162:Generated_Source\PSoC4/nRF24_FUNCS.c **** }
 163:Generated_Source\PSoC4/nRF24_FUNCS.c **** 
 164:Generated_Source\PSoC4/nRF24_FUNCS.c **** /**
 165:Generated_Source\PSoC4/nRF24_FUNCS.c ****  * Configure the radio as Receiver or Transmitter.
 166:Generated_Source\PSoC4/nRF24_FUNCS.c ****  *
 167:Generated_Source\PSoC4/nRF24_FUNCS.c ****  * @param const nrf_mode mode: The radio can be configured as Receiver (PRX)
 168:Generated_Source\PSoC4/nRF24_FUNCS.c ****  * or Transmitter (PTX).
 169:Generated_Source\PSoC4/nRF24_FUNCS.c ****  */
 170:Generated_Source\PSoC4/nRF24_FUNCS.c **** void nRF24_set_mode(const nrf_mode mode)
ARM GAS  C:\Users\AFDHAL~1\AppData\Local\Temp\ccielSKc.s 			page 5


 171:Generated_Source\PSoC4/nRF24_FUNCS.c **** {
 172:Generated_Source\PSoC4/nRF24_FUNCS.c ****     mode ? nRF24_set_rx_mode() : nRF24_set_tx_mode();
 173:Generated_Source\PSoC4/nRF24_FUNCS.c **** }
 174:Generated_Source\PSoC4/nRF24_FUNCS.c **** 
 175:Generated_Source\PSoC4/nRF24_FUNCS.c **** /**
 176:Generated_Source\PSoC4/nRF24_FUNCS.c ****  * @brief Set radio in Power Down Mode.
 177:Generated_Source\PSoC4/nRF24_FUNCS.c ****  *
 178:Generated_Source\PSoC4/nRF24_FUNCS.c ****  * In power down mode nRF24 is disabled using minimal current consumption.
 179:Generated_Source\PSoC4/nRF24_FUNCS.c ****  * All register values available are maintained and the SPI is kept active,
 180:Generated_Source\PSoC4/nRF24_FUNCS.c ****  * enabling change of configuration and the uploading/downloading of data
 181:Generated_Source\PSoC4/nRF24_FUNCS.c ****  * registers.
 182:Generated_Source\PSoC4/nRF24_FUNCS.c ****  * Power down mode is entered by setting the PWR_UP bit (CONFIG register) to 0.
 183:Generated_Source\PSoC4/nRF24_FUNCS.c ****  */
 184:Generated_Source\PSoC4/nRF24_FUNCS.c **** void nRF24_set_power_down_mode(void)
 185:Generated_Source\PSoC4/nRF24_FUNCS.c **** {
 186:Generated_Source\PSoC4/nRF24_FUNCS.c ****     nRF24_clear_bit(NRF_CONFIG_REG, NRF_CONFIG_PWR_UP);
 187:Generated_Source\PSoC4/nRF24_FUNCS.c **** }
 188:Generated_Source\PSoC4/nRF24_FUNCS.c **** 
 189:Generated_Source\PSoC4/nRF24_FUNCS.c **** /**
 190:Generated_Source\PSoC4/nRF24_FUNCS.c ****  * @brief Set the radio in Standby I Mode.
 191:Generated_Source\PSoC4/nRF24_FUNCS.c ****  *
 192:Generated_Source\PSoC4/nRF24_FUNCS.c ****  * By setting the PWR_UP bit in the CONFIG register to 1, the device enters
 193:Generated_Source\PSoC4/nRF24_FUNCS.c ****  * standby-I mode. Standby-I mode is used to minimize average current
 194:Generated_Source\PSoC4/nRF24_FUNCS.c ****  * consumption while maintaining short start up times.
 195:Generated_Source\PSoC4/nRF24_FUNCS.c ****  * In this mode only part of the crystal oscillator is active. Change to
 196:Generated_Source\PSoC4/nRF24_FUNCS.c ****  * active modes only happens if CE is set high and when CE is set low,
 197:Generated_Source\PSoC4/nRF24_FUNCS.c ****  * the nRF24 returns to standby-I mode from both the TX and RX modes.
 198:Generated_Source\PSoC4/nRF24_FUNCS.c ****  */
 199:Generated_Source\PSoC4/nRF24_FUNCS.c **** void nRF24_set_standby_i_mode(void)
 200:Generated_Source\PSoC4/nRF24_FUNCS.c **** {
 201:Generated_Source\PSoC4/nRF24_FUNCS.c **** #if 0
 202:Generated_Source\PSoC4/nRF24_FUNCS.c ****     nRF24_listen(false);
 203:Generated_Source\PSoC4/nRF24_FUNCS.c **** #else
 204:Generated_Source\PSoC4/nRF24_FUNCS.c ****     nRF24_stop_listening();
 205:Generated_Source\PSoC4/nRF24_FUNCS.c **** #endif
 206:Generated_Source\PSoC4/nRF24_FUNCS.c ****     nRF24_set_bit(NRF_CONFIG_REG, NRF_CONFIG_PWR_UP);
 207:Generated_Source\PSoC4/nRF24_FUNCS.c **** }
 208:Generated_Source\PSoC4/nRF24_FUNCS.c **** 
 209:Generated_Source\PSoC4/nRF24_FUNCS.c **** /**
 210:Generated_Source\PSoC4/nRF24_FUNCS.c ****  * @brief Set the radio in Standby II Mode.
 211:Generated_Source\PSoC4/nRF24_FUNCS.c ****  *
 212:Generated_Source\PSoC4/nRF24_FUNCS.c ****  * In standby-II mode extra clock buffers are active and more current is used
 213:Generated_Source\PSoC4/nRF24_FUNCS.c ****  * compared to standby-I mode. nRF24 enters standby-II mode if CE is held high
 214:Generated_Source\PSoC4/nRF24_FUNCS.c ****  * on a TX device with an empty TX FIFO.
 215:Generated_Source\PSoC4/nRF24_FUNCS.c ****  * If a new packet is uploaded to the TX FIFO, the PLL immediately starts and
 216:Generated_Source\PSoC4/nRF24_FUNCS.c ****  * the packet is transmitted after the normal PLL settling  delay (130us).
 217:Generated_Source\PSoC4/nRF24_FUNCS.c ****  */
 218:Generated_Source\PSoC4/nRF24_FUNCS.c **** void nRF24_set_standby_ii_mode(void)
 219:Generated_Source\PSoC4/nRF24_FUNCS.c **** {
 220:Generated_Source\PSoC4/nRF24_FUNCS.c **** #if 0
 221:Generated_Source\PSoC4/nRF24_FUNCS.c ****     nRF24_listen(true);
 222:Generated_Source\PSoC4/nRF24_FUNCS.c **** #else
 223:Generated_Source\PSoC4/nRF24_FUNCS.c ****     nRF24_start_listening();
 224:Generated_Source\PSoC4/nRF24_FUNCS.c **** #endif
 225:Generated_Source\PSoC4/nRF24_FUNCS.c ****     nRF24_set_bit(NRF_CONFIG_REG, NRF_CONFIG_PWR_UP);
 226:Generated_Source\PSoC4/nRF24_FUNCS.c **** }
 227:Generated_Source\PSoC4/nRF24_FUNCS.c **** 
ARM GAS  C:\Users\AFDHAL~1\AppData\Local\Temp\ccielSKc.s 			page 6


 228:Generated_Source\PSoC4/nRF24_FUNCS.c **** /**
 229:Generated_Source\PSoC4/nRF24_FUNCS.c ****  * @brief Set the radio in Receiver (Rx) Mode.
 230:Generated_Source\PSoC4/nRF24_FUNCS.c ****  *
 231:Generated_Source\PSoC4/nRF24_FUNCS.c ****  * RX mode is an active mode where the nRF24 radio is used as receiver. To
 232:Generated_Source\PSoC4/nRF24_FUNCS.c ****  * enter this mode, the nRF24 must have the PWR_UP bit, PRIM_RX bit and the CE
 233:Generated_Source\PSoC4/nRF24_FUNCS.c ****  * pin set high.
 234:Generated_Source\PSoC4/nRF24_FUNCS.c ****  */
 235:Generated_Source\PSoC4/nRF24_FUNCS.c **** void nRF24_set_rx_mode(void)
 236:Generated_Source\PSoC4/nRF24_FUNCS.c **** {
 237:Generated_Source\PSoC4/nRF24_FUNCS.c ****     nRF24_set_bit(NRF_CONFIG_REG, NRF_CONFIG_PRIM_RX);
 238:Generated_Source\PSoC4/nRF24_FUNCS.c **** }
 239:Generated_Source\PSoC4/nRF24_FUNCS.c **** 
 240:Generated_Source\PSoC4/nRF24_FUNCS.c **** /**
 241:Generated_Source\PSoC4/nRF24_FUNCS.c ****  * @brief Set the radio in Transmitted (Tx) Mode.
 242:Generated_Source\PSoC4/nRF24_FUNCS.c ****  *
 243:Generated_Source\PSoC4/nRF24_FUNCS.c ****  * TX mode is an active mode for transmitting packets. To enter this mode,
 244:Generated_Source\PSoC4/nRF24_FUNCS.c ****  * the nRF24 must have the PWR_UP bit set high, PRIM_RX bit set low, a payload
 245:Generated_Source\PSoC4/nRF24_FUNCS.c ****  * in the TX FIFO and a high pulse on the CE for more than 10us.
 246:Generated_Source\PSoC4/nRF24_FUNCS.c ****  */
 247:Generated_Source\PSoC4/nRF24_FUNCS.c **** void nRF24_set_tx_mode(void)
 248:Generated_Source\PSoC4/nRF24_FUNCS.c **** {
 249:Generated_Source\PSoC4/nRF24_FUNCS.c ****     nRF24_clear_bit(NRF_CONFIG_REG, NRF_CONFIG_PRIM_RX);
 250:Generated_Source\PSoC4/nRF24_FUNCS.c **** }
 251:Generated_Source\PSoC4/nRF24_FUNCS.c **** 
 252:Generated_Source\PSoC4/nRF24_FUNCS.c **** /**
 253:Generated_Source\PSoC4/nRF24_FUNCS.c ****  * @brief Enable AutoACK in the given pipe.
 254:Generated_Source\PSoC4/nRF24_FUNCS.c ****  *
 255:Generated_Source\PSoC4/nRF24_FUNCS.c ****  * @param pipe: Enable AutoACK in the given pipe.
 256:Generated_Source\PSoC4/nRF24_FUNCS.c ****  */
 257:Generated_Source\PSoC4/nRF24_FUNCS.c **** void nRF24_enable_auto_ack(const nrf_pipe pipe)
 258:Generated_Source\PSoC4/nRF24_FUNCS.c **** {
 259:Generated_Source\PSoC4/nRF24_FUNCS.c ****     nRF24_set_bit(NRF_EN_AA_REG, pipe);
 260:Generated_Source\PSoC4/nRF24_FUNCS.c **** }
 261:Generated_Source\PSoC4/nRF24_FUNCS.c **** 
 262:Generated_Source\PSoC4/nRF24_FUNCS.c **** /**
 263:Generated_Source\PSoC4/nRF24_FUNCS.c ****  * @brief Disable AutoACK in the given pipe.
 264:Generated_Source\PSoC4/nRF24_FUNCS.c ****  *
 265:Generated_Source\PSoC4/nRF24_FUNCS.c ****  * @param pipe: Disable AutoACK in the given pipe.
 266:Generated_Source\PSoC4/nRF24_FUNCS.c ****  */
 267:Generated_Source\PSoC4/nRF24_FUNCS.c **** void nRF24_disable_auto_ack(const nrf_pipe pipe)
 268:Generated_Source\PSoC4/nRF24_FUNCS.c **** {
 269:Generated_Source\PSoC4/nRF24_FUNCS.c ****     nRF24_clear_bit(NRF_EN_AA_REG, pipe);
 270:Generated_Source\PSoC4/nRF24_FUNCS.c **** }
 271:Generated_Source\PSoC4/nRF24_FUNCS.c **** 
 272:Generated_Source\PSoC4/nRF24_FUNCS.c **** /**
 273:Generated_Source\PSoC4/nRF24_FUNCS.c ****  * @brief Set the channel where the radio will work.
 274:Generated_Source\PSoC4/nRF24_FUNCS.c ****  *
 275:Generated_Source\PSoC4/nRF24_FUNCS.c ****  * @param uint8_t channel: Channel where the radio will work.
 276:Generated_Source\PSoC4/nRF24_FUNCS.c ****  */
 277:Generated_Source\PSoC4/nRF24_FUNCS.c **** void nRF24_set_channel(uint8_t channel)
 278:Generated_Source\PSoC4/nRF24_FUNCS.c **** {
 279:Generated_Source\PSoC4/nRF24_FUNCS.c ****     if (NRF_MAX_RF_CHANNEL < channel) {
 280:Generated_Source\PSoC4/nRF24_FUNCS.c ****         channel = NRF_MAX_RF_CHANNEL;
 281:Generated_Source\PSoC4/nRF24_FUNCS.c ****     }
 282:Generated_Source\PSoC4/nRF24_FUNCS.c **** 
 283:Generated_Source\PSoC4/nRF24_FUNCS.c ****     nRF24_write_register(NRF_RF_CH_REG, channel);
 284:Generated_Source\PSoC4/nRF24_FUNCS.c **** }
ARM GAS  C:\Users\AFDHAL~1\AppData\Local\Temp\ccielSKc.s 			page 7


 285:Generated_Source\PSoC4/nRF24_FUNCS.c **** 
 286:Generated_Source\PSoC4/nRF24_FUNCS.c **** /**
 287:Generated_Source\PSoC4/nRF24_FUNCS.c ****  * @brief Set the data pipes address width.
 288:Generated_Source\PSoC4/nRF24_FUNCS.c ****  *
 289:Generated_Source\PSoC4/nRF24_FUNCS.c ****  * @param const nrf_setup_address_width addr_width:
 290:Generated_Source\PSoC4/nRF24_FUNCS.c ****  */
 291:Generated_Source\PSoC4/nRF24_FUNCS.c **** void nRF24_set_address_width(const nrf_setup_address_width addr_width)
 292:Generated_Source\PSoC4/nRF24_FUNCS.c **** {
 293:Generated_Source\PSoC4/nRF24_FUNCS.c ****     nRF24_write_register(NRF_SETUP_AW_REG, (uint8_t)addr_width);
 294:Generated_Source\PSoC4/nRF24_FUNCS.c **** }
 295:Generated_Source\PSoC4/nRF24_FUNCS.c **** 
 296:Generated_Source\PSoC4/nRF24_FUNCS.c **** /**
 297:Generated_Source\PSoC4/nRF24_FUNCS.c ****  * @brief Get the address width of the data pipes.
 298:Generated_Source\PSoC4/nRF24_FUNCS.c ****  *
 299:Generated_Source\PSoC4/nRF24_FUNCS.c ****  * @return uint8_t: Address width in bytes.
 300:Generated_Source\PSoC4/nRF24_FUNCS.c ****  */
 301:Generated_Source\PSoC4/nRF24_FUNCS.c **** uint8_t nRF24_get_address_width(void)
 302:Generated_Source\PSoC4/nRF24_FUNCS.c **** {
 303:Generated_Source\PSoC4/nRF24_FUNCS.c ****     uint8_t addr_width = 0;
 304:Generated_Source\PSoC4/nRF24_FUNCS.c ****     uint8_t reg = nRF24_read_register(NRF_SETUP_AW_REG);
 305:Generated_Source\PSoC4/nRF24_FUNCS.c **** 
 306:Generated_Source\PSoC4/nRF24_FUNCS.c ****     switch (reg) {
 307:Generated_Source\PSoC4/nRF24_FUNCS.c ****     case NRF_SETUP_AW_3BYTES:
 308:Generated_Source\PSoC4/nRF24_FUNCS.c ****         addr_width = 3;
 309:Generated_Source\PSoC4/nRF24_FUNCS.c ****         break;
 310:Generated_Source\PSoC4/nRF24_FUNCS.c ****     case NRF_SETUP_AW_4BYTES:
 311:Generated_Source\PSoC4/nRF24_FUNCS.c ****         addr_width = 4;
 312:Generated_Source\PSoC4/nRF24_FUNCS.c ****         break;
 313:Generated_Source\PSoC4/nRF24_FUNCS.c ****     case NRF_SETUP_AW_5BYTES:
 314:Generated_Source\PSoC4/nRF24_FUNCS.c ****         addr_width = 5;
 315:Generated_Source\PSoC4/nRF24_FUNCS.c ****         break;
 316:Generated_Source\PSoC4/nRF24_FUNCS.c ****     default:
 317:Generated_Source\PSoC4/nRF24_FUNCS.c ****         break;
 318:Generated_Source\PSoC4/nRF24_FUNCS.c ****     }
 319:Generated_Source\PSoC4/nRF24_FUNCS.c ****     
 320:Generated_Source\PSoC4/nRF24_FUNCS.c ****     return addr_width;
 321:Generated_Source\PSoC4/nRF24_FUNCS.c **** }
 322:Generated_Source\PSoC4/nRF24_FUNCS.c **** 
 323:Generated_Source\PSoC4/nRF24_FUNCS.c **** /**
 324:Generated_Source\PSoC4/nRF24_FUNCS.c ****  * @brief Set the address of the RX Pipe 0 in the radio.
 325:Generated_Source\PSoC4/nRF24_FUNCS.c ****  *
 326:Generated_Source\PSoC4/nRF24_FUNCS.c ****  * This function configure the address of the Rx Pipe 0 of the radio.
 327:Generated_Source\PSoC4/nRF24_FUNCS.c ****  *
 328:Generated_Source\PSoC4/nRF24_FUNCS.c ****  * @param const uint8_t* addr:
 329:Generated_Source\PSoC4/nRF24_FUNCS.c ****  * @param size_t size:
 330:Generated_Source\PSoC4/nRF24_FUNCS.c ****  */
 331:Generated_Source\PSoC4/nRF24_FUNCS.c **** void nRF24_set_rx_pipe_0_address(const uint8_t* addr, size_t size)
 332:Generated_Source\PSoC4/nRF24_FUNCS.c **** {
 333:Generated_Source\PSoC4/nRF24_FUNCS.c ****     if (NULL == addr) {
 334:Generated_Source\PSoC4/nRF24_FUNCS.c ****         return;
 335:Generated_Source\PSoC4/nRF24_FUNCS.c ****     }
 336:Generated_Source\PSoC4/nRF24_FUNCS.c **** 
 337:Generated_Source\PSoC4/nRF24_FUNCS.c ****     // TODO: Replace NRF_MAX_ADDR_SIZE with ADD_WIDTH
 338:Generated_Source\PSoC4/nRF24_FUNCS.c ****     if (NRF_MAX_ADDR_SIZE < size) {
 339:Generated_Source\PSoC4/nRF24_FUNCS.c ****         size = NRF_MAX_ADDR_SIZE;
 340:Generated_Source\PSoC4/nRF24_FUNCS.c ****     }
 341:Generated_Source\PSoC4/nRF24_FUNCS.c ****     
ARM GAS  C:\Users\AFDHAL~1\AppData\Local\Temp\ccielSKc.s 			page 8


 342:Generated_Source\PSoC4/nRF24_FUNCS.c ****     nRF24_write_long_register(NRF_RX_ADDR_P0_REG, addr, size);
 343:Generated_Source\PSoC4/nRF24_FUNCS.c **** }
 344:Generated_Source\PSoC4/nRF24_FUNCS.c **** 
 345:Generated_Source\PSoC4/nRF24_FUNCS.c **** /**
 346:Generated_Source\PSoC4/nRF24_FUNCS.c ****  * @brief Get the address of the RX Pipe 0 in the radio.
 347:Generated_Source\PSoC4/nRF24_FUNCS.c ****  *
 348:Generated_Source\PSoC4/nRF24_FUNCS.c ****  * @param uint8_t* addr:
 349:Generated_Source\PSoC4/nRF24_FUNCS.c ****  * @param size_t size:
 350:Generated_Source\PSoC4/nRF24_FUNCS.c ****  */
 351:Generated_Source\PSoC4/nRF24_FUNCS.c **** void nRF24_get_rx_pipe_0_address(uint8_t* addr, size_t size)
 352:Generated_Source\PSoC4/nRF24_FUNCS.c **** {
 353:Generated_Source\PSoC4/nRF24_FUNCS.c ****     if (NULL == addr) {
 354:Generated_Source\PSoC4/nRF24_FUNCS.c ****         return;
 355:Generated_Source\PSoC4/nRF24_FUNCS.c ****     }
 356:Generated_Source\PSoC4/nRF24_FUNCS.c **** 
 357:Generated_Source\PSoC4/nRF24_FUNCS.c ****     if (NRF_MAX_ADDR_SIZE < size) {
 358:Generated_Source\PSoC4/nRF24_FUNCS.c ****         size = NRF_MAX_ADDR_SIZE;
 359:Generated_Source\PSoC4/nRF24_FUNCS.c ****     }
 360:Generated_Source\PSoC4/nRF24_FUNCS.c ****     
 361:Generated_Source\PSoC4/nRF24_FUNCS.c ****     nRF24_read_long_register(NRF_RX_ADDR_P0_REG, addr, size);
 362:Generated_Source\PSoC4/nRF24_FUNCS.c **** }
 363:Generated_Source\PSoC4/nRF24_FUNCS.c **** 
 364:Generated_Source\PSoC4/nRF24_FUNCS.c **** /**
 365:Generated_Source\PSoC4/nRF24_FUNCS.c ****  * @brief Set the address of the RX Pipe 1 in the radio.
 366:Generated_Source\PSoC4/nRF24_FUNCS.c ****  *
 367:Generated_Source\PSoC4/nRF24_FUNCS.c ****  * This function configure the address of the Rx Pipe 1 of the radio.
 368:Generated_Source\PSoC4/nRF24_FUNCS.c ****  *
 369:Generated_Source\PSoC4/nRF24_FUNCS.c ****  * @param const uint8_t* addr:
 370:Generated_Source\PSoC4/nRF24_FUNCS.c ****  * @param size_t size:
 371:Generated_Source\PSoC4/nRF24_FUNCS.c ****  */
 372:Generated_Source\PSoC4/nRF24_FUNCS.c **** void nRF24_set_rx_pipe_1_address(const uint8_t* addr, size_t size)
 373:Generated_Source\PSoC4/nRF24_FUNCS.c **** {
 374:Generated_Source\PSoC4/nRF24_FUNCS.c ****     if (NULL == addr) {
 375:Generated_Source\PSoC4/nRF24_FUNCS.c ****         return;
 376:Generated_Source\PSoC4/nRF24_FUNCS.c ****     }
 377:Generated_Source\PSoC4/nRF24_FUNCS.c **** 
 378:Generated_Source\PSoC4/nRF24_FUNCS.c ****     if (NRF_MAX_ADDR_SIZE < size) {
 379:Generated_Source\PSoC4/nRF24_FUNCS.c ****         size = NRF_MAX_ADDR_SIZE;
 380:Generated_Source\PSoC4/nRF24_FUNCS.c ****     }
 381:Generated_Source\PSoC4/nRF24_FUNCS.c ****     
 382:Generated_Source\PSoC4/nRF24_FUNCS.c ****     nRF24_write_long_register(NRF_RX_ADDR_P1_REG, addr, size);
 383:Generated_Source\PSoC4/nRF24_FUNCS.c **** }
 384:Generated_Source\PSoC4/nRF24_FUNCS.c **** 
 385:Generated_Source\PSoC4/nRF24_FUNCS.c **** /**
 386:Generated_Source\PSoC4/nRF24_FUNCS.c ****  * @brief Get the address of the RX Pipe 1 in the radio.
 387:Generated_Source\PSoC4/nRF24_FUNCS.c ****  *
 388:Generated_Source\PSoC4/nRF24_FUNCS.c ****  * @param uint8_t* addr:
 389:Generated_Source\PSoC4/nRF24_FUNCS.c ****  * @param size_t size:
 390:Generated_Source\PSoC4/nRF24_FUNCS.c ****  */
 391:Generated_Source\PSoC4/nRF24_FUNCS.c **** void nRF24_get_rx_pipe_1_address(uint8_t* addr, size_t size)
 392:Generated_Source\PSoC4/nRF24_FUNCS.c **** {
 393:Generated_Source\PSoC4/nRF24_FUNCS.c ****     if (NULL == addr) {
 394:Generated_Source\PSoC4/nRF24_FUNCS.c ****         return;
 395:Generated_Source\PSoC4/nRF24_FUNCS.c ****     }
 396:Generated_Source\PSoC4/nRF24_FUNCS.c **** 
 397:Generated_Source\PSoC4/nRF24_FUNCS.c ****     if (NRF_MAX_ADDR_SIZE < size) {
 398:Generated_Source\PSoC4/nRF24_FUNCS.c ****         size = NRF_MAX_ADDR_SIZE;
ARM GAS  C:\Users\AFDHAL~1\AppData\Local\Temp\ccielSKc.s 			page 9


 399:Generated_Source\PSoC4/nRF24_FUNCS.c ****     }
 400:Generated_Source\PSoC4/nRF24_FUNCS.c ****     
 401:Generated_Source\PSoC4/nRF24_FUNCS.c ****     nRF24_read_long_register(NRF_RX_ADDR_P1_REG, addr, size);
 402:Generated_Source\PSoC4/nRF24_FUNCS.c **** }
 403:Generated_Source\PSoC4/nRF24_FUNCS.c **** 
 404:Generated_Source\PSoC4/nRF24_FUNCS.c **** /**
 405:Generated_Source\PSoC4/nRF24_FUNCS.c ****  * Set the address of the least significant byte of the Rx Pipe 2 in the radio.
 406:Generated_Source\PSoC4/nRF24_FUNCS.c ****  *
 407:Generated_Source\PSoC4/nRF24_FUNCS.c ****  * @param const uint8_t addr_lsb:
 408:Generated_Source\PSoC4/nRF24_FUNCS.c ****  */
 409:Generated_Source\PSoC4/nRF24_FUNCS.c **** void nRF24_set_rx_pipe_2_address(const uint8_t addr_lsb)
 410:Generated_Source\PSoC4/nRF24_FUNCS.c **** {
 411:Generated_Source\PSoC4/nRF24_FUNCS.c ****     nRF24_write_register(NRF_RX_ADDR_P2_REG, addr_lsb);
 412:Generated_Source\PSoC4/nRF24_FUNCS.c **** }
 413:Generated_Source\PSoC4/nRF24_FUNCS.c **** 
 414:Generated_Source\PSoC4/nRF24_FUNCS.c **** /**
 415:Generated_Source\PSoC4/nRF24_FUNCS.c ****  * Get the address of the Rx Pipe 2.
 416:Generated_Source\PSoC4/nRF24_FUNCS.c ****  *
 417:Generated_Source\PSoC4/nRF24_FUNCS.c ****  * @param uint8_t* addr:
 418:Generated_Source\PSoC4/nRF24_FUNCS.c ****  * @param size_t size:
 419:Generated_Source\PSoC4/nRF24_FUNCS.c ****  */
 420:Generated_Source\PSoC4/nRF24_FUNCS.c **** void nRF24_get_rx_pipe_2_address(uint8_t* addr, size_t size)
 421:Generated_Source\PSoC4/nRF24_FUNCS.c **** {
 422:Generated_Source\PSoC4/nRF24_FUNCS.c ****     if (NULL == addr) {
 423:Generated_Source\PSoC4/nRF24_FUNCS.c ****         return;
 424:Generated_Source\PSoC4/nRF24_FUNCS.c ****     }
 425:Generated_Source\PSoC4/nRF24_FUNCS.c **** 
 426:Generated_Source\PSoC4/nRF24_FUNCS.c ****     if (NRF_MAX_ADDR_SIZE < size) {
 427:Generated_Source\PSoC4/nRF24_FUNCS.c ****         size = NRF_MAX_ADDR_SIZE;
 428:Generated_Source\PSoC4/nRF24_FUNCS.c ****     }
 429:Generated_Source\PSoC4/nRF24_FUNCS.c ****     
 430:Generated_Source\PSoC4/nRF24_FUNCS.c ****     // The pipe2 address is the same as the pipe1 address except the LSB
 431:Generated_Source\PSoC4/nRF24_FUNCS.c ****     nRF24_read_long_register(NRF_RX_ADDR_P1_REG, addr, size - 1);
 432:Generated_Source\PSoC4/nRF24_FUNCS.c ****     addr[size - 1] = nRF24_read_register(NRF_RX_ADDR_P2_REG);
 433:Generated_Source\PSoC4/nRF24_FUNCS.c **** }
 434:Generated_Source\PSoC4/nRF24_FUNCS.c **** 
 435:Generated_Source\PSoC4/nRF24_FUNCS.c **** /**
 436:Generated_Source\PSoC4/nRF24_FUNCS.c ****  * Set the address of the least significant byte of the Rx Pipe 3 in the radio.
 437:Generated_Source\PSoC4/nRF24_FUNCS.c ****  *
 438:Generated_Source\PSoC4/nRF24_FUNCS.c ****  * @param const uint8_t addr_lsb:
 439:Generated_Source\PSoC4/nRF24_FUNCS.c ****  */
 440:Generated_Source\PSoC4/nRF24_FUNCS.c **** void nRF24_set_rx_pipe_3_address(const uint8_t addr_lsb)
 441:Generated_Source\PSoC4/nRF24_FUNCS.c **** {
 442:Generated_Source\PSoC4/nRF24_FUNCS.c ****     nRF24_write_register(NRF_RX_ADDR_P3_REG, addr_lsb);
 443:Generated_Source\PSoC4/nRF24_FUNCS.c **** }
 444:Generated_Source\PSoC4/nRF24_FUNCS.c **** 
 445:Generated_Source\PSoC4/nRF24_FUNCS.c **** /**
 446:Generated_Source\PSoC4/nRF24_FUNCS.c ****  * Get the address of the Rx Pipe 3.
 447:Generated_Source\PSoC4/nRF24_FUNCS.c ****  *
 448:Generated_Source\PSoC4/nRF24_FUNCS.c ****  * @param uint8_t* addr:
 449:Generated_Source\PSoC4/nRF24_FUNCS.c ****  * @param size_t size:
 450:Generated_Source\PSoC4/nRF24_FUNCS.c ****  */
 451:Generated_Source\PSoC4/nRF24_FUNCS.c **** void nRF24_get_rx_pipe_3_address(uint8_t* addr, size_t size)
 452:Generated_Source\PSoC4/nRF24_FUNCS.c **** {
 453:Generated_Source\PSoC4/nRF24_FUNCS.c ****     if (NULL == addr) {
 454:Generated_Source\PSoC4/nRF24_FUNCS.c ****         return;
 455:Generated_Source\PSoC4/nRF24_FUNCS.c ****     }
ARM GAS  C:\Users\AFDHAL~1\AppData\Local\Temp\ccielSKc.s 			page 10


 456:Generated_Source\PSoC4/nRF24_FUNCS.c **** 
 457:Generated_Source\PSoC4/nRF24_FUNCS.c ****     if (NRF_MAX_ADDR_SIZE < size) {
 458:Generated_Source\PSoC4/nRF24_FUNCS.c ****         size = NRF_MAX_ADDR_SIZE;
 459:Generated_Source\PSoC4/nRF24_FUNCS.c ****     }
 460:Generated_Source\PSoC4/nRF24_FUNCS.c ****     
 461:Generated_Source\PSoC4/nRF24_FUNCS.c ****     // The pipe3 address is the same as the pipe1 address except the LSB
 462:Generated_Source\PSoC4/nRF24_FUNCS.c ****     nRF24_read_long_register(NRF_RX_ADDR_P1_REG, addr, size - 1);
 463:Generated_Source\PSoC4/nRF24_FUNCS.c ****     addr[size - 1] = nRF24_read_register(NRF_RX_ADDR_P3_REG);
 464:Generated_Source\PSoC4/nRF24_FUNCS.c **** }
 465:Generated_Source\PSoC4/nRF24_FUNCS.c **** 
 466:Generated_Source\PSoC4/nRF24_FUNCS.c **** /**
 467:Generated_Source\PSoC4/nRF24_FUNCS.c ****  * Set the address of the least significant byte of the Rx Pipe 4 in the radio.
 468:Generated_Source\PSoC4/nRF24_FUNCS.c ****  *
 469:Generated_Source\PSoC4/nRF24_FUNCS.c ****  * @param const uint8_t addr_lsb:
 470:Generated_Source\PSoC4/nRF24_FUNCS.c ****  */
 471:Generated_Source\PSoC4/nRF24_FUNCS.c **** void nRF24_set_rx_pipe_4_address(const uint8_t addr_lsb)
 472:Generated_Source\PSoC4/nRF24_FUNCS.c **** {
 473:Generated_Source\PSoC4/nRF24_FUNCS.c ****     nRF24_write_register(NRF_RX_ADDR_P4_REG, addr_lsb);
 474:Generated_Source\PSoC4/nRF24_FUNCS.c **** }
 475:Generated_Source\PSoC4/nRF24_FUNCS.c **** 
 476:Generated_Source\PSoC4/nRF24_FUNCS.c **** /**
 477:Generated_Source\PSoC4/nRF24_FUNCS.c ****  * Get the address of the Rx Pipe 4.
 478:Generated_Source\PSoC4/nRF24_FUNCS.c ****  *
 479:Generated_Source\PSoC4/nRF24_FUNCS.c ****  * @param uint8_t* addr:
 480:Generated_Source\PSoC4/nRF24_FUNCS.c ****  * @param size_t size:
 481:Generated_Source\PSoC4/nRF24_FUNCS.c ****  */
 482:Generated_Source\PSoC4/nRF24_FUNCS.c **** void nRF24_get_rx_pipe_4_address(uint8_t* addr, size_t size)
 483:Generated_Source\PSoC4/nRF24_FUNCS.c **** {
 484:Generated_Source\PSoC4/nRF24_FUNCS.c ****     if (NULL == addr) {
 485:Generated_Source\PSoC4/nRF24_FUNCS.c ****         return;
 486:Generated_Source\PSoC4/nRF24_FUNCS.c ****     }
 487:Generated_Source\PSoC4/nRF24_FUNCS.c **** 
 488:Generated_Source\PSoC4/nRF24_FUNCS.c ****     if (NRF_MAX_ADDR_SIZE < size) {
 489:Generated_Source\PSoC4/nRF24_FUNCS.c ****         size = NRF_MAX_ADDR_SIZE;
 490:Generated_Source\PSoC4/nRF24_FUNCS.c ****     }
 491:Generated_Source\PSoC4/nRF24_FUNCS.c ****     
 492:Generated_Source\PSoC4/nRF24_FUNCS.c ****     // The pipe4 address is the same as the pipe1 address except the LSB
 493:Generated_Source\PSoC4/nRF24_FUNCS.c ****     nRF24_read_long_register(NRF_RX_ADDR_P1_REG, addr, size - 1);
 494:Generated_Source\PSoC4/nRF24_FUNCS.c ****     addr[size - 1] = nRF24_read_register(NRF_RX_ADDR_P4_REG);
 495:Generated_Source\PSoC4/nRF24_FUNCS.c **** }
 496:Generated_Source\PSoC4/nRF24_FUNCS.c **** 
 497:Generated_Source\PSoC4/nRF24_FUNCS.c **** /**
 498:Generated_Source\PSoC4/nRF24_FUNCS.c ****  * Set the address of the least significant byte of the Rx Pipe 5 in the radio.
 499:Generated_Source\PSoC4/nRF24_FUNCS.c ****  *
 500:Generated_Source\PSoC4/nRF24_FUNCS.c ****  * @param const uint8_t addr_lsb:
 501:Generated_Source\PSoC4/nRF24_FUNCS.c ****  */
 502:Generated_Source\PSoC4/nRF24_FUNCS.c **** void nRF24_set_rx_pipe_5_address(const uint8_t addr_lsb)
 503:Generated_Source\PSoC4/nRF24_FUNCS.c **** {
 504:Generated_Source\PSoC4/nRF24_FUNCS.c ****     nRF24_write_register(NRF_RX_ADDR_P5_REG, addr_lsb);
 505:Generated_Source\PSoC4/nRF24_FUNCS.c **** }
 506:Generated_Source\PSoC4/nRF24_FUNCS.c **** 
 507:Generated_Source\PSoC4/nRF24_FUNCS.c **** /**
 508:Generated_Source\PSoC4/nRF24_FUNCS.c ****  * Get the address of the Rx Pipe 5.
 509:Generated_Source\PSoC4/nRF24_FUNCS.c ****  *
 510:Generated_Source\PSoC4/nRF24_FUNCS.c ****  * @param uint8_t* addr:
 511:Generated_Source\PSoC4/nRF24_FUNCS.c ****  * @param size_t size:
 512:Generated_Source\PSoC4/nRF24_FUNCS.c ****  */
ARM GAS  C:\Users\AFDHAL~1\AppData\Local\Temp\ccielSKc.s 			page 11


 513:Generated_Source\PSoC4/nRF24_FUNCS.c **** void nRF24_get_rx_pipe_5_address(uint8_t* addr, size_t size)
 514:Generated_Source\PSoC4/nRF24_FUNCS.c **** {
 515:Generated_Source\PSoC4/nRF24_FUNCS.c ****     if (NULL == addr) {
 516:Generated_Source\PSoC4/nRF24_FUNCS.c ****         return;
 517:Generated_Source\PSoC4/nRF24_FUNCS.c ****     }
 518:Generated_Source\PSoC4/nRF24_FUNCS.c **** 
 519:Generated_Source\PSoC4/nRF24_FUNCS.c ****     if (NRF_MAX_ADDR_SIZE < size) {
 520:Generated_Source\PSoC4/nRF24_FUNCS.c ****         size = NRF_MAX_ADDR_SIZE;
 521:Generated_Source\PSoC4/nRF24_FUNCS.c ****     }
 522:Generated_Source\PSoC4/nRF24_FUNCS.c ****     
 523:Generated_Source\PSoC4/nRF24_FUNCS.c ****     // The pipe5 address is the same as the pipe1 address except the LSB
 524:Generated_Source\PSoC4/nRF24_FUNCS.c ****     nRF24_read_long_register(NRF_RX_ADDR_P1_REG, addr, size - 1);
 525:Generated_Source\PSoC4/nRF24_FUNCS.c ****     addr[size - 1] = nRF24_read_register(NRF_RX_ADDR_P5_REG);
 526:Generated_Source\PSoC4/nRF24_FUNCS.c **** }
 527:Generated_Source\PSoC4/nRF24_FUNCS.c **** 
 528:Generated_Source\PSoC4/nRF24_FUNCS.c **** /**
 529:Generated_Source\PSoC4/nRF24_FUNCS.c ****  * @brief Set the TX Address of the radio.
 530:Generated_Source\PSoC4/nRF24_FUNCS.c ****  *
 531:Generated_Source\PSoC4/nRF24_FUNCS.c ****  * @param const uint8_t* addr:
 532:Generated_Source\PSoC4/nRF24_FUNCS.c ****  * @param size_t size:
 533:Generated_Source\PSoC4/nRF24_FUNCS.c ****  */
 534:Generated_Source\PSoC4/nRF24_FUNCS.c **** void nRF24_set_tx_address(const uint8_t *const addr, size_t size)
 535:Generated_Source\PSoC4/nRF24_FUNCS.c **** {
 536:Generated_Source\PSoC4/nRF24_FUNCS.c ****     if (NULL == addr) {
 537:Generated_Source\PSoC4/nRF24_FUNCS.c ****         return;
 538:Generated_Source\PSoC4/nRF24_FUNCS.c ****     }
 539:Generated_Source\PSoC4/nRF24_FUNCS.c **** 
 540:Generated_Source\PSoC4/nRF24_FUNCS.c ****     if (NRF_MAX_ADDR_SIZE < size) {
 541:Generated_Source\PSoC4/nRF24_FUNCS.c ****         size = NRF_MAX_ADDR_SIZE;
 542:Generated_Source\PSoC4/nRF24_FUNCS.c ****     }
 543:Generated_Source\PSoC4/nRF24_FUNCS.c ****     
 544:Generated_Source\PSoC4/nRF24_FUNCS.c ****     nRF24_write_long_register(NRF_TX_ADDR_REG, addr, size);
 545:Generated_Source\PSoC4/nRF24_FUNCS.c **** }
 546:Generated_Source\PSoC4/nRF24_FUNCS.c **** 
 547:Generated_Source\PSoC4/nRF24_FUNCS.c **** /**
 548:Generated_Source\PSoC4/nRF24_FUNCS.c ****  * @brief Get the TX Address of the radio.
 549:Generated_Source\PSoC4/nRF24_FUNCS.c ****  *
 550:Generated_Source\PSoC4/nRF24_FUNCS.c ****  * @param const uint8_t* addr:
 551:Generated_Source\PSoC4/nRF24_FUNCS.c ****  * @param const size_t size:
 552:Generated_Source\PSoC4/nRF24_FUNCS.c ****  */
 553:Generated_Source\PSoC4/nRF24_FUNCS.c **** void nRF24_get_tx_address(uint8_t* addr, size_t size)
 554:Generated_Source\PSoC4/nRF24_FUNCS.c **** {
 555:Generated_Source\PSoC4/nRF24_FUNCS.c ****     if (NULL == addr) {
 556:Generated_Source\PSoC4/nRF24_FUNCS.c ****         return;
 557:Generated_Source\PSoC4/nRF24_FUNCS.c ****     }
 558:Generated_Source\PSoC4/nRF24_FUNCS.c **** 
 559:Generated_Source\PSoC4/nRF24_FUNCS.c ****     if (NRF_MAX_ADDR_SIZE < size) {
 560:Generated_Source\PSoC4/nRF24_FUNCS.c ****         size = NRF_MAX_ADDR_SIZE;
 561:Generated_Source\PSoC4/nRF24_FUNCS.c ****     }
 562:Generated_Source\PSoC4/nRF24_FUNCS.c ****     
 563:Generated_Source\PSoC4/nRF24_FUNCS.c ****     nRF24_read_long_register(NRF_TX_ADDR_REG, addr, size);
 564:Generated_Source\PSoC4/nRF24_FUNCS.c **** }
 565:Generated_Source\PSoC4/nRF24_FUNCS.c **** 
 566:Generated_Source\PSoC4/nRF24_FUNCS.c **** /**
 567:Generated_Source\PSoC4/nRF24_FUNCS.c ****  * @brief Set the payload size of the given pipe.
 568:Generated_Source\PSoC4/nRF24_FUNCS.c ****  *
 569:Generated_Source\PSoC4/nRF24_FUNCS.c ****  * Configure the payload size of the given pipe.
ARM GAS  C:\Users\AFDHAL~1\AppData\Local\Temp\ccielSKc.s 			page 12


 570:Generated_Source\PSoC4/nRF24_FUNCS.c ****  *
 571:Generated_Source\PSoC4/nRF24_FUNCS.c ****  * @param const nrf_pipe pipe:
 572:Generated_Source\PSoC4/nRF24_FUNCS.c ****  * @param uint8_t size:
 573:Generated_Source\PSoC4/nRF24_FUNCS.c ****  */
 574:Generated_Source\PSoC4/nRF24_FUNCS.c **** void nRF24_set_payload_size(const nrf_pipe_payload_size pipe, uint8_t size)
 575:Generated_Source\PSoC4/nRF24_FUNCS.c **** {
 576:Generated_Source\PSoC4/nRF24_FUNCS.c ****     if (NRF_MAX_PAYLOAD_SIZE < size) {
 577:Generated_Source\PSoC4/nRF24_FUNCS.c ****         size = NRF_MAX_PAYLOAD_SIZE;
 578:Generated_Source\PSoC4/nRF24_FUNCS.c ****     }
 579:Generated_Source\PSoC4/nRF24_FUNCS.c ****     
 580:Generated_Source\PSoC4/nRF24_FUNCS.c ****     nRF24_write_register(pipe, size);
 581:Generated_Source\PSoC4/nRF24_FUNCS.c **** }
 582:Generated_Source\PSoC4/nRF24_FUNCS.c **** 
 583:Generated_Source\PSoC4/nRF24_FUNCS.c **** /**
 584:Generated_Source\PSoC4/nRF24_FUNCS.c ****  * Get the payload size of the given pipe.
 585:Generated_Source\PSoC4/nRF24_FUNCS.c ****  *
 586:Generated_Source\PSoC4/nRF24_FUNCS.c ****  * @param const nrf_pipe pipe: Pipe to be read.
 587:Generated_Source\PSoC4/nRF24_FUNCS.c ****  *
 588:Generated_Source\PSoC4/nRF24_FUNCS.c ****  * @return uint8_t: Configured payload size of the given pipe.
 589:Generated_Source\PSoC4/nRF24_FUNCS.c ****  */
 590:Generated_Source\PSoC4/nRF24_FUNCS.c **** uint8_t nRF24_get_payload_size(const nrf_pipe_payload_size pipe)
 591:Generated_Source\PSoC4/nRF24_FUNCS.c **** {
 592:Generated_Source\PSoC4/nRF24_FUNCS.c ****     return nRF24_read_register(pipe);
 593:Generated_Source\PSoC4/nRF24_FUNCS.c **** }
 594:Generated_Source\PSoC4/nRF24_FUNCS.c **** 
 595:Generated_Source\PSoC4/nRF24_FUNCS.c **** /**
 596:Generated_Source\PSoC4/nRF24_FUNCS.c ****  * @brief Reuse last transmitted payload.
 597:Generated_Source\PSoC4/nRF24_FUNCS.c ****  *
 598:Generated_Source\PSoC4/nRF24_FUNCS.c ****  * This function issue the command ReuseTxPayload and then toggle the CE pin
 599:Generated_Source\PSoC4/nRF24_FUNCS.c ****  * to transmit the last transmitted payload.
 600:Generated_Source\PSoC4/nRF24_FUNCS.c ****  */
 601:Generated_Source\PSoC4/nRF24_FUNCS.c **** void nRF24_reuse_last_transmitted_payload(void)
 602:Generated_Source\PSoC4/nRF24_FUNCS.c **** {
 603:Generated_Source\PSoC4/nRF24_FUNCS.c ****     nRF24_reuse_tx_payload_cmd();
 604:Generated_Source\PSoC4/nRF24_FUNCS.c ****     nRF24_transmit_pulse();
 605:Generated_Source\PSoC4/nRF24_FUNCS.c **** }
 606:Generated_Source\PSoC4/nRF24_FUNCS.c **** 
 607:Generated_Source\PSoC4/nRF24_FUNCS.c **** /**
 608:Generated_Source\PSoC4/nRF24_FUNCS.c ****  * @brief Enable dynamic payload on the given pipe.
 609:Generated_Source\PSoC4/nRF24_FUNCS.c ****  *
 610:Generated_Source\PSoC4/nRF24_FUNCS.c ****  * @param const nrf_pipe pipe:
 611:Generated_Source\PSoC4/nRF24_FUNCS.c ****  */
 612:Generated_Source\PSoC4/nRF24_FUNCS.c **** void nRF24_enable_dynamic_payload(const nrf_pipe pipe)
 613:Generated_Source\PSoC4/nRF24_FUNCS.c **** {
 614:Generated_Source\PSoC4/nRF24_FUNCS.c ****     nRF24_set_bit(NRF_EN_AA_REG, pipe);
 615:Generated_Source\PSoC4/nRF24_FUNCS.c ****     nRF24_set_bit(NRF_FEATURE_REG, NRF_FEATURE_EN_ACK_PAY);
 616:Generated_Source\PSoC4/nRF24_FUNCS.c ****     nRF24_set_bit(NRF_FEATURE_REG, NRF_FEATURE_EN_DPL);
 617:Generated_Source\PSoC4/nRF24_FUNCS.c ****     nRF24_set_bit(NRF_DYNPD_REG, pipe);
 618:Generated_Source\PSoC4/nRF24_FUNCS.c **** }
 619:Generated_Source\PSoC4/nRF24_FUNCS.c **** 
 620:Generated_Source\PSoC4/nRF24_FUNCS.c **** /**
 621:Generated_Source\PSoC4/nRF24_FUNCS.c ****  * @brief Disable dynamic payload on the given pipe.
 622:Generated_Source\PSoC4/nRF24_FUNCS.c ****  *
 623:Generated_Source\PSoC4/nRF24_FUNCS.c ****  * @param const nrf_pipe pipe:
 624:Generated_Source\PSoC4/nRF24_FUNCS.c ****  */
 625:Generated_Source\PSoC4/nRF24_FUNCS.c **** void nRF24_disable_dynamic_payload(const nrf_pipe pipe)
 626:Generated_Source\PSoC4/nRF24_FUNCS.c **** {
ARM GAS  C:\Users\AFDHAL~1\AppData\Local\Temp\ccielSKc.s 			page 13


 627:Generated_Source\PSoC4/nRF24_FUNCS.c ****     nRF24_clear_bit(NRF_EN_AA_REG, pipe);
 628:Generated_Source\PSoC4/nRF24_FUNCS.c ****     nRF24_clear_bit(NRF_FEATURE_REG, NRF_FEATURE_EN_ACK_PAY);
 629:Generated_Source\PSoC4/nRF24_FUNCS.c ****     nRF24_clear_bit(NRF_FEATURE_REG, NRF_FEATURE_EN_DPL);
 630:Generated_Source\PSoC4/nRF24_FUNCS.c ****     nRF24_clear_bit(NRF_DYNPD_REG, pipe);
 631:Generated_Source\PSoC4/nRF24_FUNCS.c **** }
 632:Generated_Source\PSoC4/nRF24_FUNCS.c **** 
 633:Generated_Source\PSoC4/nRF24_FUNCS.c **** /**
 634:Generated_Source\PSoC4/nRF24_FUNCS.c ****  * @brief Enable dinamic payload length.
 635:Generated_Source\PSoC4/nRF24_FUNCS.c ****  */
 636:Generated_Source\PSoC4/nRF24_FUNCS.c **** void nRF24_enable_dynamic_payload_length(void)
 637:Generated_Source\PSoC4/nRF24_FUNCS.c **** {
 638:Generated_Source\PSoC4/nRF24_FUNCS.c ****     nRF24_set_bit(NRF_FEATURE_REG, NRF_FEATURE_EN_DPL);
 639:Generated_Source\PSoC4/nRF24_FUNCS.c **** }
 640:Generated_Source\PSoC4/nRF24_FUNCS.c **** 
 641:Generated_Source\PSoC4/nRF24_FUNCS.c **** /**
 642:Generated_Source\PSoC4/nRF24_FUNCS.c ****  * @brief Disable dynamic payload length.
 643:Generated_Source\PSoC4/nRF24_FUNCS.c ****  */
 644:Generated_Source\PSoC4/nRF24_FUNCS.c **** void nRF24_disable_dynamic_payload_length(void)
 645:Generated_Source\PSoC4/nRF24_FUNCS.c **** {
 646:Generated_Source\PSoC4/nRF24_FUNCS.c ****     nRF24_clear_bit(NRF_FEATURE_REG, NRF_FEATURE_EN_DPL);
 647:Generated_Source\PSoC4/nRF24_FUNCS.c **** }
 648:Generated_Source\PSoC4/nRF24_FUNCS.c **** 
 649:Generated_Source\PSoC4/nRF24_FUNCS.c **** /**
 650:Generated_Source\PSoC4/nRF24_FUNCS.c ****  * @brief Enable payload with ACK.
 651:Generated_Source\PSoC4/nRF24_FUNCS.c ****  */
 652:Generated_Source\PSoC4/nRF24_FUNCS.c **** void nRF24_enable_payload_with_ack(void)
 653:Generated_Source\PSoC4/nRF24_FUNCS.c **** {
 654:Generated_Source\PSoC4/nRF24_FUNCS.c ****     nRF24_set_bit(NRF_FEATURE_REG, NRF_FEATURE_EN_ACK_PAY);
 655:Generated_Source\PSoC4/nRF24_FUNCS.c **** }
 656:Generated_Source\PSoC4/nRF24_FUNCS.c **** 
 657:Generated_Source\PSoC4/nRF24_FUNCS.c **** /**
 658:Generated_Source\PSoC4/nRF24_FUNCS.c ****  * @brief Disable Payload with ACK.
 659:Generated_Source\PSoC4/nRF24_FUNCS.c ****  */
 660:Generated_Source\PSoC4/nRF24_FUNCS.c **** void nRF24_disable_payload_with_ack(void)
 661:Generated_Source\PSoC4/nRF24_FUNCS.c **** {
 662:Generated_Source\PSoC4/nRF24_FUNCS.c ****     nRF24_clear_bit(NRF_FEATURE_REG, NRF_FEATURE_EN_ACK_PAY);
 663:Generated_Source\PSoC4/nRF24_FUNCS.c **** }
 664:Generated_Source\PSoC4/nRF24_FUNCS.c **** 
 665:Generated_Source\PSoC4/nRF24_FUNCS.c **** /**
 666:Generated_Source\PSoC4/nRF24_FUNCS.c ****  * @brief Enable dynamic payload length.
 667:Generated_Source\PSoC4/nRF24_FUNCS.c ****  */
 668:Generated_Source\PSoC4/nRF24_FUNCS.c **** void nRF24_enable_payload_with_no_ack_cmd(void)
 669:Generated_Source\PSoC4/nRF24_FUNCS.c **** {
 670:Generated_Source\PSoC4/nRF24_FUNCS.c ****     nRF24_set_bit(NRF_FEATURE_REG, NRF_FEATURE_EN_DYN_ACK);
 671:Generated_Source\PSoC4/nRF24_FUNCS.c **** }
 672:Generated_Source\PSoC4/nRF24_FUNCS.c **** 
 673:Generated_Source\PSoC4/nRF24_FUNCS.c **** /**
 674:Generated_Source\PSoC4/nRF24_FUNCS.c ****  * @brief Disable Payload with no ACK.
 675:Generated_Source\PSoC4/nRF24_FUNCS.c ****  */
 676:Generated_Source\PSoC4/nRF24_FUNCS.c **** void nRF24_disable_payload_with_no_ack_cmd(void)
 677:Generated_Source\PSoC4/nRF24_FUNCS.c **** {
 678:Generated_Source\PSoC4/nRF24_FUNCS.c ****     nRF24_clear_bit(NRF_FEATURE_REG, NRF_FEATURE_EN_DYN_ACK);
 679:Generated_Source\PSoC4/nRF24_FUNCS.c **** }
 680:Generated_Source\PSoC4/nRF24_FUNCS.c **** 
 681:Generated_Source\PSoC4/nRF24_FUNCS.c **** /**
 682:Generated_Source\PSoC4/nRF24_FUNCS.c ****  * @brief Set the value of the CE pin to listen or not.
 683:Generated_Source\PSoC4/nRF24_FUNCS.c ****  *
ARM GAS  C:\Users\AFDHAL~1\AppData\Local\Temp\ccielSKc.s 			page 14


 684:Generated_Source\PSoC4/nRF24_FUNCS.c ****  * @param const bool listen: If @listen is set to true, then the radio will
 685:Generated_Source\PSoC4/nRF24_FUNCS.c ****  * listen, if set to false the radio will stop listening.
 686:Generated_Source\PSoC4/nRF24_FUNCS.c ****  
 687:Generated_Source\PSoC4/nRF24_FUNCS.c **** void nRF24_listen(const bool listen)
 688:Generated_Source\PSoC4/nRF24_FUNCS.c **** {
 689:Generated_Source\PSoC4/nRF24_FUNCS.c **** #if defined(CY_GPIO_H)
 690:Generated_Source\PSoC4/nRF24_FUNCS.c ****     listen ? Cy_GPIO_Set(CE_PORT, CE_NUM) : 
 691:Generated_Source\PSoC4/nRF24_FUNCS.c ****             Cy_GPIO_Clr(CE_PORT, CE_NUM);
 692:Generated_Source\PSoC4/nRF24_FUNCS.c **** #else
 693:Generated_Source\PSoC4/nRF24_FUNCS.c ****     listen ? CE_Write(1) : CE_Write(0);
 694:Generated_Source\PSoC4/nRF24_FUNCS.c **** #endif
 695:Generated_Source\PSoC4/nRF24_FUNCS.c **** }
 696:Generated_Source\PSoC4/nRF24_FUNCS.c **** */
 697:Generated_Source\PSoC4/nRF24_FUNCS.c **** 
 698:Generated_Source\PSoC4/nRF24_FUNCS.c **** /**
 699:Generated_Source\PSoC4/nRF24_FUNCS.c ****  * @brief The nRF24 radio will start listening.
 700:Generated_Source\PSoC4/nRF24_FUNCS.c ****  *
 701:Generated_Source\PSoC4/nRF24_FUNCS.c ****  * This function set the pin CE to logic high, this enable the radio for
 702:Generated_Source\PSoC4/nRF24_FUNCS.c ****  * listening.
 703:Generated_Source\PSoC4/nRF24_FUNCS.c ****  */
 704:Generated_Source\PSoC4/nRF24_FUNCS.c **** void nRF24_start_listening(void)
 705:Generated_Source\PSoC4/nRF24_FUNCS.c **** {
 706:Generated_Source\PSoC4/nRF24_FUNCS.c **** #if 0
 707:Generated_Source\PSoC4/nRF24_FUNCS.c ****     nRF24_listen(true);
 708:Generated_Source\PSoC4/nRF24_FUNCS.c **** #else
 709:Generated_Source\PSoC4/nRF24_FUNCS.c ****     #if defined(CY_GPIO_H)
 710:Generated_Source\PSoC4/nRF24_FUNCS.c ****     Cy_GPIO_Set(CE_PORT, CE_NUM);
 711:Generated_Source\PSoC4/nRF24_FUNCS.c ****     #else
 712:Generated_Source\PSoC4/nRF24_FUNCS.c ****     CE_Write(1);
 713:Generated_Source\PSoC4/nRF24_FUNCS.c ****     #endif
 714:Generated_Source\PSoC4/nRF24_FUNCS.c **** #endif
 715:Generated_Source\PSoC4/nRF24_FUNCS.c **** }
 716:Generated_Source\PSoC4/nRF24_FUNCS.c **** 
 717:Generated_Source\PSoC4/nRF24_FUNCS.c **** /**
 718:Generated_Source\PSoC4/nRF24_FUNCS.c ****  * @brief The nRF24 radio will stop listening.
 719:Generated_Source\PSoC4/nRF24_FUNCS.c ****  *
 720:Generated_Source\PSoC4/nRF24_FUNCS.c ****  * This function the pin CE of the nRF24 radio will be set to logic low,
 721:Generated_Source\PSoC4/nRF24_FUNCS.c ****  * this disable the radio for listening.
 722:Generated_Source\PSoC4/nRF24_FUNCS.c ****  */
 723:Generated_Source\PSoC4/nRF24_FUNCS.c **** void nRF24_stop_listening(void)
 724:Generated_Source\PSoC4/nRF24_FUNCS.c **** {
 725:Generated_Source\PSoC4/nRF24_FUNCS.c **** #if 0
 726:Generated_Source\PSoC4/nRF24_FUNCS.c ****     nRF24_listen(false);
 727:Generated_Source\PSoC4/nRF24_FUNCS.c **** #else
 728:Generated_Source\PSoC4/nRF24_FUNCS.c ****     #if defined(CY_GPIO_H)
 729:Generated_Source\PSoC4/nRF24_FUNCS.c ****     Cy_GPIO_Clr(CE_PORT, CE_NUM);
 730:Generated_Source\PSoC4/nRF24_FUNCS.c ****     #else
 731:Generated_Source\PSoC4/nRF24_FUNCS.c ****     CE_Write(0);
 732:Generated_Source\PSoC4/nRF24_FUNCS.c ****     #endif
 733:Generated_Source\PSoC4/nRF24_FUNCS.c **** #endif
 734:Generated_Source\PSoC4/nRF24_FUNCS.c **** }
 735:Generated_Source\PSoC4/nRF24_FUNCS.c **** 
 736:Generated_Source\PSoC4/nRF24_FUNCS.c **** /**
 737:Generated_Source\PSoC4/nRF24_FUNCS.c ****  * @brief Transmit pulse on the CE pin.
 738:Generated_Source\PSoC4/nRF24_FUNCS.c ****  *
 739:Generated_Source\PSoC4/nRF24_FUNCS.c ****  * With this function the CE pin of the nRF24 radio will have a pulse of 15us,
 740:Generated_Source\PSoC4/nRF24_FUNCS.c ****  * this pulse trigger a transmission of the content of the TX FIFO.
ARM GAS  C:\Users\AFDHAL~1\AppData\Local\Temp\ccielSKc.s 			page 15


 741:Generated_Source\PSoC4/nRF24_FUNCS.c ****  */
 742:Generated_Source\PSoC4/nRF24_FUNCS.c **** void nRF24_transmit_pulse(void)
 743:Generated_Source\PSoC4/nRF24_FUNCS.c **** {
 744:Generated_Source\PSoC4/nRF24_FUNCS.c **** #if defined(CY_GPIO_H)
 745:Generated_Source\PSoC4/nRF24_FUNCS.c ****     Cy_GPIO_Set(CE_PORT, CE_NUM);
 746:Generated_Source\PSoC4/nRF24_FUNCS.c ****     CyDelayUs(NRF_CE_PULSE_WIDTH);
 747:Generated_Source\PSoC4/nRF24_FUNCS.c ****     Cy_GPIO_Clr(CE_PORT, CE_NUM);
 748:Generated_Source\PSoC4/nRF24_FUNCS.c **** #else
 749:Generated_Source\PSoC4/nRF24_FUNCS.c ****     CE_Write(1);
 750:Generated_Source\PSoC4/nRF24_FUNCS.c ****     CyDelayUs(NRF_CE_PULSE_WIDTH);
 751:Generated_Source\PSoC4/nRF24_FUNCS.c ****     CE_Write(0);
 752:Generated_Source\PSoC4/nRF24_FUNCS.c **** #endif
 753:Generated_Source\PSoC4/nRF24_FUNCS.c **** }
 754:Generated_Source\PSoC4/nRF24_FUNCS.c **** 
 755:Generated_Source\PSoC4/nRF24_FUNCS.c **** /**
 756:Generated_Source\PSoC4/nRF24_FUNCS.c ****  * @brief Get the STATUS register of the nRF24.
 757:Generated_Source\PSoC4/nRF24_FUNCS.c ****  *
 758:Generated_Source\PSoC4/nRF24_FUNCS.c ****  * @return uint8_t: STATUS register of the nRF24.
 759:Generated_Source\PSoC4/nRF24_FUNCS.c ****  */
 760:Generated_Source\PSoC4/nRF24_FUNCS.c **** uint8_t nRF24_get_status(void)
 761:Generated_Source\PSoC4/nRF24_FUNCS.c **** {
 762:Generated_Source\PSoC4/nRF24_FUNCS.c ****     return nRF24_nop_cmd();
 763:Generated_Source\PSoC4/nRF24_FUNCS.c **** }
 764:Generated_Source\PSoC4/nRF24_FUNCS.c **** 
 765:Generated_Source\PSoC4/nRF24_FUNCS.c **** /**
 766:Generated_Source\PSoC4/nRF24_FUNCS.c ****  * @brief Get the number of retransmissions.
 767:Generated_Source\PSoC4/nRF24_FUNCS.c ****  *
 768:Generated_Source\PSoC4/nRF24_FUNCS.c ****  * @return uint8_t: Retransmissions count.
 769:Generated_Source\PSoC4/nRF24_FUNCS.c ****  */
 770:Generated_Source\PSoC4/nRF24_FUNCS.c **** uint8_t nRF24_get_retransmissions_count(void)
 771:Generated_Source\PSoC4/nRF24_FUNCS.c **** {
 772:Generated_Source\PSoC4/nRF24_FUNCS.c ****     uint8_t count = nRF24_read_register(NRF_OBSERVE_TX_REG);
 773:Generated_Source\PSoC4/nRF24_FUNCS.c ****     return count & NRF_OBSERVE_TX_ARC_CNT_MASK;
 774:Generated_Source\PSoC4/nRF24_FUNCS.c **** }
 775:Generated_Source\PSoC4/nRF24_FUNCS.c **** 
 776:Generated_Source\PSoC4/nRF24_FUNCS.c **** /**
 777:Generated_Source\PSoC4/nRF24_FUNCS.c ****  * @brief Get the number of lost packets.
 778:Generated_Source\PSoC4/nRF24_FUNCS.c ****  *
 779:Generated_Source\PSoC4/nRF24_FUNCS.c ****  * @return uint8_t: Lost packets.
 780:Generated_Source\PSoC4/nRF24_FUNCS.c ****  */
 781:Generated_Source\PSoC4/nRF24_FUNCS.c **** uint8_t nRF24_get_lost_packets_count(void)
 782:Generated_Source\PSoC4/nRF24_FUNCS.c **** {
 783:Generated_Source\PSoC4/nRF24_FUNCS.c ****     uint8_t lostPackets = nRF24_read_register(NRF_OBSERVE_TX_REG);
 784:Generated_Source\PSoC4/nRF24_FUNCS.c ****     lostPackets = lostPackets & NRF_OBSERVE_TX_PLOS_CNT_MASK;
 785:Generated_Source\PSoC4/nRF24_FUNCS.c ****     return lostPackets >> NRF_OBSERVE_TX_PLOS_CNT;
 786:Generated_Source\PSoC4/nRF24_FUNCS.c **** }
 787:Generated_Source\PSoC4/nRF24_FUNCS.c **** 
 788:Generated_Source\PSoC4/nRF24_FUNCS.c **** /**
 789:Generated_Source\PSoC4/nRF24_FUNCS.c ****  * Put data into the TX FIFO wihout sending it.
 790:Generated_Source\PSoC4/nRF24_FUNCS.c ****  *
 791:Generated_Source\PSoC4/nRF24_FUNCS.c ****  * @param const uint8_t* data:
 792:Generated_Source\PSoC4/nRF24_FUNCS.c ****  * @param const size_t size:
 793:Generated_Source\PSoC4/nRF24_FUNCS.c ****  */
 794:Generated_Source\PSoC4/nRF24_FUNCS.c **** void nRF24_put_in_tx_fifo(const uint8_t* data, size_t size)
 795:Generated_Source\PSoC4/nRF24_FUNCS.c **** {
 796:Generated_Source\PSoC4/nRF24_FUNCS.c ****     if (NULL == data) {
 797:Generated_Source\PSoC4/nRF24_FUNCS.c ****         return;
ARM GAS  C:\Users\AFDHAL~1\AppData\Local\Temp\ccielSKc.s 			page 16


 798:Generated_Source\PSoC4/nRF24_FUNCS.c ****     }
 799:Generated_Source\PSoC4/nRF24_FUNCS.c **** 
 800:Generated_Source\PSoC4/nRF24_FUNCS.c ****     if (NRF_MAX_PAYLOAD_SIZE < size) {
 801:Generated_Source\PSoC4/nRF24_FUNCS.c ****         size = NRF_MAX_PAYLOAD_SIZE;
 802:Generated_Source\PSoC4/nRF24_FUNCS.c ****     }
 803:Generated_Source\PSoC4/nRF24_FUNCS.c ****     
 804:Generated_Source\PSoC4/nRF24_FUNCS.c ****     nRF24_write_tx_payload_cmd(data, size);
 805:Generated_Source\PSoC4/nRF24_FUNCS.c **** }
 806:Generated_Source\PSoC4/nRF24_FUNCS.c **** 
 807:Generated_Source\PSoC4/nRF24_FUNCS.c **** /**
 808:Generated_Source\PSoC4/nRF24_FUNCS.c ****  * Put data in TX FIFO and transmit it.
 809:Generated_Source\PSoC4/nRF24_FUNCS.c ****  *
 810:Generated_Source\PSoC4/nRF24_FUNCS.c ****  * @param const uint8_t* data:
 811:Generated_Source\PSoC4/nRF24_FUNCS.c ****  * @param const size_t size:
 812:Generated_Source\PSoC4/nRF24_FUNCS.c ****  */
 813:Generated_Source\PSoC4/nRF24_FUNCS.c **** void nRF24_transmit(const uint8_t* data, size_t size)
 814:Generated_Source\PSoC4/nRF24_FUNCS.c **** {
 815:Generated_Source\PSoC4/nRF24_FUNCS.c ****     if (NULL == data) {
 816:Generated_Source\PSoC4/nRF24_FUNCS.c ****         return;
 817:Generated_Source\PSoC4/nRF24_FUNCS.c ****     }
 818:Generated_Source\PSoC4/nRF24_FUNCS.c ****     
 819:Generated_Source\PSoC4/nRF24_FUNCS.c ****     if (NRF_MAX_PAYLOAD_SIZE < size) {
 820:Generated_Source\PSoC4/nRF24_FUNCS.c ****         size = NRF_MAX_PAYLOAD_SIZE;
 821:Generated_Source\PSoC4/nRF24_FUNCS.c ****     }
 822:Generated_Source\PSoC4/nRF24_FUNCS.c **** 
 823:Generated_Source\PSoC4/nRF24_FUNCS.c ****     nRF24_put_in_tx_fifo(data, size);
 824:Generated_Source\PSoC4/nRF24_FUNCS.c ****     nRF24_transmit_pulse();
 825:Generated_Source\PSoC4/nRF24_FUNCS.c **** }
 826:Generated_Source\PSoC4/nRF24_FUNCS.c **** 
 827:Generated_Source\PSoC4/nRF24_FUNCS.c **** /**
 828:Generated_Source\PSoC4/nRF24_FUNCS.c ****  * @brief
 829:Generated_Source\PSoC4/nRF24_FUNCS.c ****  *
 830:Generated_Source\PSoC4/nRF24_FUNCS.c ****  * @return bool: True if there's data ready.
 831:Generated_Source\PSoC4/nRF24_FUNCS.c ****  */
 832:Generated_Source\PSoC4/nRF24_FUNCS.c **** bool nRF24_is_data_ready(void)
 833:Generated_Source\PSoC4/nRF24_FUNCS.c **** {
 834:Generated_Source\PSoC4/nRF24_FUNCS.c ****     return NRF_STATUS_RX_DR_MASK & nRF24_get_status();
 835:Generated_Source\PSoC4/nRF24_FUNCS.c **** }
 836:Generated_Source\PSoC4/nRF24_FUNCS.c **** 
 837:Generated_Source\PSoC4/nRF24_FUNCS.c **** /**
 838:Generated_Source\PSoC4/nRF24_FUNCS.c ****  * @brief
 839:Generated_Source\PSoC4/nRF24_FUNCS.c ****  *
 840:Generated_Source\PSoC4/nRF24_FUNCS.c ****  * @param uint8_t* data:
 841:Generated_Source\PSoC4/nRF24_FUNCS.c ****  * @param const size_t size:
 842:Generated_Source\PSoC4/nRF24_FUNCS.c ****  */
 843:Generated_Source\PSoC4/nRF24_FUNCS.c **** void nRF24_get_rx_payload(uint8_t* data, const size_t size)
 844:Generated_Source\PSoC4/nRF24_FUNCS.c **** {
 845:Generated_Source\PSoC4/nRF24_FUNCS.c ****     if (NULL == data) {
 846:Generated_Source\PSoC4/nRF24_FUNCS.c ****         return;
 847:Generated_Source\PSoC4/nRF24_FUNCS.c ****     }
 848:Generated_Source\PSoC4/nRF24_FUNCS.c **** #if defined(CY_GPIO_H)
 849:Generated_Source\PSoC4/nRF24_FUNCS.c ****     Cy_GPIO_Clr(CE_PORT, CE_NUM);
 850:Generated_Source\PSoC4/nRF24_FUNCS.c ****     nRF24_read_rx_payload_cmd(data, size);
 851:Generated_Source\PSoC4/nRF24_FUNCS.c ****     Cy_GPIO_Set(CE_PORT, CE_NUM);
 852:Generated_Source\PSoC4/nRF24_FUNCS.c **** #else
 853:Generated_Source\PSoC4/nRF24_FUNCS.c ****     CE_Write(0);
 854:Generated_Source\PSoC4/nRF24_FUNCS.c ****     nRF24_read_rx_payload_cmd(data, size);
ARM GAS  C:\Users\AFDHAL~1\AppData\Local\Temp\ccielSKc.s 			page 17


 855:Generated_Source\PSoC4/nRF24_FUNCS.c ****     CE_Write(1);
 856:Generated_Source\PSoC4/nRF24_FUNCS.c **** #endif
 857:Generated_Source\PSoC4/nRF24_FUNCS.c **** }
 858:Generated_Source\PSoC4/nRF24_FUNCS.c **** 
 859:Generated_Source\PSoC4/nRF24_FUNCS.c **** /**
 860:Generated_Source\PSoC4/nRF24_FUNCS.c ****  * @brief
 861:Generated_Source\PSoC4/nRF24_FUNCS.c ****  *
 862:Generated_Source\PSoC4/nRF24_FUNCS.c ****  * @param const uint8_t* data:
 863:Generated_Source\PSoC4/nRF24_FUNCS.c ****  * @param size_t size:
 864:Generated_Source\PSoC4/nRF24_FUNCS.c ****  */
 865:Generated_Source\PSoC4/nRF24_FUNCS.c **** void nRF24_tx_transmit_wait_no_ack(const uint8_t* data, size_t size)
 866:Generated_Source\PSoC4/nRF24_FUNCS.c **** {
 867:Generated_Source\PSoC4/nRF24_FUNCS.c ****     if (NULL == data) {
 868:Generated_Source\PSoC4/nRF24_FUNCS.c ****         return;
 869:Generated_Source\PSoC4/nRF24_FUNCS.c ****     }
 870:Generated_Source\PSoC4/nRF24_FUNCS.c **** 
 871:Generated_Source\PSoC4/nRF24_FUNCS.c ****     if (NRF_MAX_PAYLOAD_SIZE < size) {
 872:Generated_Source\PSoC4/nRF24_FUNCS.c ****         return;
 873:Generated_Source\PSoC4/nRF24_FUNCS.c ****     }
 874:Generated_Source\PSoC4/nRF24_FUNCS.c ****     
 875:Generated_Source\PSoC4/nRF24_FUNCS.c ****     nRF24_no_ack_payload_cmd(data, size);
 876:Generated_Source\PSoC4/nRF24_FUNCS.c ****     nRF24_transmit_pulse();
 877:Generated_Source\PSoC4/nRF24_FUNCS.c **** }
 878:Generated_Source\PSoC4/nRF24_FUNCS.c **** 
 879:Generated_Source\PSoC4/nRF24_FUNCS.c **** /**
 880:Generated_Source\PSoC4/nRF24_FUNCS.c ****  * @brief
 881:Generated_Source\PSoC4/nRF24_FUNCS.c ****  *
 882:Generated_Source\PSoC4/nRF24_FUNCS.c ****  * @param const nrf_pipe pipe:
 883:Generated_Source\PSoC4/nRF24_FUNCS.c ****  * @param const uint8_t* data:
 884:Generated_Source\PSoC4/nRF24_FUNCS.c ****  * @param size_t size:
 885:Generated_Source\PSoC4/nRF24_FUNCS.c ****  */
 886:Generated_Source\PSoC4/nRF24_FUNCS.c **** void nRF24_rx_write_payload(const nrf_pipe pipe, const uint8_t* data,
 887:Generated_Source\PSoC4/nRF24_FUNCS.c ****                                      size_t size)
 888:Generated_Source\PSoC4/nRF24_FUNCS.c **** {
 889:Generated_Source\PSoC4/nRF24_FUNCS.c ****     if (NULL == data) {
 890:Generated_Source\PSoC4/nRF24_FUNCS.c ****         return;
 891:Generated_Source\PSoC4/nRF24_FUNCS.c ****     }
 892:Generated_Source\PSoC4/nRF24_FUNCS.c **** 
 893:Generated_Source\PSoC4/nRF24_FUNCS.c ****     if (NRF_MAX_PAYLOAD_SIZE < size) {
 894:Generated_Source\PSoC4/nRF24_FUNCS.c ****         size = NRF_MAX_PAYLOAD_SIZE;
 895:Generated_Source\PSoC4/nRF24_FUNCS.c ****     }
 896:Generated_Source\PSoC4/nRF24_FUNCS.c ****     
 897:Generated_Source\PSoC4/nRF24_FUNCS.c ****     nRF24_write_ack_payload_cmd(pipe, data, size);
 898:Generated_Source\PSoC4/nRF24_FUNCS.c **** }
 899:Generated_Source\PSoC4/nRF24_FUNCS.c **** 
 900:Generated_Source\PSoC4/nRF24_FUNCS.c **** /**
 901:Generated_Source\PSoC4/nRF24_FUNCS.c ****  * Return the pipe number with data.
 902:Generated_Source\PSoC4/nRF24_FUNCS.c ****  *
 903:Generated_Source\PSoC4/nRF24_FUNCS.c ****  * @return uint8_t:
 904:Generated_Source\PSoC4/nRF24_FUNCS.c ****  */
 905:Generated_Source\PSoC4/nRF24_FUNCS.c **** uint8_t nRF24_get_data_pipe_with_payload(void)
 906:Generated_Source\PSoC4/nRF24_FUNCS.c **** {
 907:Generated_Source\PSoC4/nRF24_FUNCS.c ****     uint8_t pipe = nRF24_read_register(NRF_STATUS_REG);
 908:Generated_Source\PSoC4/nRF24_FUNCS.c ****     return (pipe & NRF_STATUS_PIPES_MASK) >> NRF_STATUS_PIPES_SHIFT;
 909:Generated_Source\PSoC4/nRF24_FUNCS.c **** }
 910:Generated_Source\PSoC4/nRF24_FUNCS.c **** 
 911:Generated_Source\PSoC4/nRF24_FUNCS.c **** /**
ARM GAS  C:\Users\AFDHAL~1\AppData\Local\Temp\ccielSKc.s 			page 18


 912:Generated_Source\PSoC4/nRF24_FUNCS.c ****  * @brief
 913:Generated_Source\PSoC4/nRF24_FUNCS.c ****  *
 914:Generated_Source\PSoC4/nRF24_FUNCS.c ****  * @return uint8_t:
 915:Generated_Source\PSoC4/nRF24_FUNCS.c ****  */
 916:Generated_Source\PSoC4/nRF24_FUNCS.c **** uint8_t nRF24_received_power_detector(void)
 917:Generated_Source\PSoC4/nRF24_FUNCS.c **** {
 918:Generated_Source\PSoC4/nRF24_FUNCS.c ****     return nRF24_read_bit(NRF_RPD_REG, NRF_RPD_RPD);
 919:Generated_Source\PSoC4/nRF24_FUNCS.c **** }
 920:Generated_Source\PSoC4/nRF24_FUNCS.c **** 
 921:Generated_Source\PSoC4/nRF24_FUNCS.c **** /**
 922:Generated_Source\PSoC4/nRF24_FUNCS.c ****  * @return bool: true if the TX FIFO is full, false if it have available
 923:Generated_Source\PSoC4/nRF24_FUNCS.c ****  * locations.
 924:Generated_Source\PSoC4/nRF24_FUNCS.c ****  */
 925:Generated_Source\PSoC4/nRF24_FUNCS.c **** bool nRF24_is_tx_fifo_full(void)
 926:Generated_Source\PSoC4/nRF24_FUNCS.c **** {
 927:Generated_Source\PSoC4/nRF24_FUNCS.c ****     return nRF24_read_bit(NRF_FIFO_STATUS_REG, NRF_FIFO_STATUS_TX_FULL);
 928:Generated_Source\PSoC4/nRF24_FUNCS.c **** }
 929:Generated_Source\PSoC4/nRF24_FUNCS.c **** 
 930:Generated_Source\PSoC4/nRF24_FUNCS.c **** /**
 931:Generated_Source\PSoC4/nRF24_FUNCS.c ****  * @return bool: true if the RX FIFO es empty, false if any pipe have data.
 932:Generated_Source\PSoC4/nRF24_FUNCS.c ****  */
 933:Generated_Source\PSoC4/nRF24_FUNCS.c **** bool nRF24_is_rx_fifo_empty(void)
 934:Generated_Source\PSoC4/nRF24_FUNCS.c **** {
 935:Generated_Source\PSoC4/nRF24_FUNCS.c ****     return nRF24_read_bit(NRF_FIFO_STATUS_REG, NRF_FIFO_STATUS_RX_EMPTY);
 936:Generated_Source\PSoC4/nRF24_FUNCS.c **** }
 937:Generated_Source\PSoC4/nRF24_FUNCS.c **** 
 938:Generated_Source\PSoC4/nRF24_FUNCS.c **** /**
 939:Generated_Source\PSoC4/nRF24_FUNCS.c ****  * This function will write 1 to all the three IRQ "flag" bits on the
 940:Generated_Source\PSoC4/nRF24_FUNCS.c ****  * STATUS register.
 941:Generated_Source\PSoC4/nRF24_FUNCS.c ****  */
 942:Generated_Source\PSoC4/nRF24_FUNCS.c **** void nRF24_clear_all_irqs(void)
 943:Generated_Source\PSoC4/nRF24_FUNCS.c **** {
 944:Generated_Source\PSoC4/nRF24_FUNCS.c ****     nRF24_write_register(NRF_STATUS_REG, NRF_ALL_IRQ_MASK);
  59              		.loc 1 944 0
  60 0020 7021     		movs	r1, #112
  61 0022 0720     		movs	r0, #7
  62 0024 FFF7FEFF 		bl	nRF24_write_register
  63              	.LVL6:
  64              	.LBE25:
  65              	.LBE24:
  66              	.LBB26:
  67              	.LBB27:
  69:Generated_Source\PSoC4/nRF24_FUNCS.c ****     nRF24_write_register(NRF_EN_RXADDR_REG, CUSTOMIZER_EN_RXADDR);
  68              		.loc 1 69 0
  69 0028 0021     		movs	r1, #0
  70 002a 0120     		movs	r0, #1
  71 002c FFF7FEFF 		bl	nRF24_write_register
  72              	.LVL7:
  70:Generated_Source\PSoC4/nRF24_FUNCS.c ****     nRF24_write_register(NRF_SETUP_AW_REG, CUSTOMIZER_SETUP_AW);
  73              		.loc 1 70 0
  74 0030 0321     		movs	r1, #3
  75 0032 0220     		movs	r0, #2
  76 0034 FFF7FEFF 		bl	nRF24_write_register
  77              	.LVL8:
  71:Generated_Source\PSoC4/nRF24_FUNCS.c ****     nRF24_write_register(NRF_SETUP_RETR_REG, CUSTOMIZER_SETUP_RETR);
  78              		.loc 1 71 0
  79 0038 0321     		movs	r1, #3
ARM GAS  C:\Users\AFDHAL~1\AppData\Local\Temp\ccielSKc.s 			page 19


  80 003a 0320     		movs	r0, #3
  81 003c FFF7FEFF 		bl	nRF24_write_register
  82              	.LVL9:
  72:Generated_Source\PSoC4/nRF24_FUNCS.c ****     nRF24_write_register(NRF_RF_CH_REG, CUSTOMIZER_RF_CH);
  83              		.loc 1 72 0
  84 0040 1821     		movs	r1, #24
  85 0042 0420     		movs	r0, #4
  86 0044 FFF7FEFF 		bl	nRF24_write_register
  87              	.LVL10:
  73:Generated_Source\PSoC4/nRF24_FUNCS.c ****     nRF24_write_register(NRF_RF_SETUP_REG, CUSTOMIZER_RF_SETUP);
  88              		.loc 1 73 0
  89 0048 7821     		movs	r1, #120
  90 004a 0520     		movs	r0, #5
  91 004c FFF7FEFF 		bl	nRF24_write_register
  92              	.LVL11:
  74:Generated_Source\PSoC4/nRF24_FUNCS.c ****     nRF24_write_register(NRF_DYNPD_REG, CUSTOMIZER_DYNPD);
  93              		.loc 1 74 0
  94 0050 2621     		movs	r1, #38
  95 0052 0620     		movs	r0, #6
  96 0054 FFF7FEFF 		bl	nRF24_write_register
  97              	.LVL12:
  75:Generated_Source\PSoC4/nRF24_FUNCS.c ****     nRF24_write_register(NRF_FEATURE_REG, CUSTOMIZER_FEATURE);
  98              		.loc 1 75 0
  99 0058 0021     		movs	r1, #0
 100 005a 1C20     		movs	r0, #28
 101 005c FFF7FEFF 		bl	nRF24_write_register
 102              	.LVL13:
  76:Generated_Source\PSoC4/nRF24_FUNCS.c **** 
 103              		.loc 1 76 0
 104 0060 0121     		movs	r1, #1
 105 0062 1D20     		movs	r0, #29
 106 0064 FFF7FEFF 		bl	nRF24_write_register
 107              	.LVL14:
  80:Generated_Source\PSoC4/nRF24_FUNCS.c **** #endif
 108              		.loc 1 80 0
 109 0068 0421     		movs	r1, #4
 110 006a 1120     		movs	r0, #17
 111 006c FFF7FEFF 		bl	nRF24_write_register
 112              	.LVL15:
  83:Generated_Source\PSoC4/nRF24_FUNCS.c **** #endif
 113              		.loc 1 83 0
 114 0070 0421     		movs	r1, #4
 115 0072 1220     		movs	r0, #18
 116 0074 FFF7FEFF 		bl	nRF24_write_register
 117              	.LVL16:
 102:Generated_Source\PSoC4/nRF24_FUNCS.c **** }
 118              		.loc 1 102 0
 119 0078 7F21     		movs	r1, #127
 120 007a 0020     		movs	r0, #0
 121 007c FFF7FEFF 		bl	nRF24_write_register
 122              	.LVL17:
 123              	.LBE27:
 124              	.LBE26:
  61:Generated_Source\PSoC4/nRF24_FUNCS.c **** }
 125              		.loc 1 61 0
 126 0080 9620     		movs	r0, #150
 127 0082 FFF7FEFF 		bl	CyDelayUs
ARM GAS  C:\Users\AFDHAL~1\AppData\Local\Temp\ccielSKc.s 			page 20


 128              	.LVL18:
  62:Generated_Source\PSoC4/nRF24_FUNCS.c **** 
 129              		.loc 1 62 0
 130              		@ sp needed
 131 0086 10BD     		pop	{r4, pc}
 132              		.cfi_endproc
 133              	.LFE34:
 134              		.size	nRF24_start, .-nRF24_start
 135              		.section	.text.nRF24_init,"ax",%progbits
 136              		.align	2
 137              		.global	nRF24_init
 138              		.code	16
 139              		.thumb_func
 140              		.type	nRF24_init, %function
 141              	nRF24_init:
 142              	.LFB35:
  68:Generated_Source\PSoC4/nRF24_FUNCS.c ****     nRF24_write_register(NRF_EN_AA_REG, CUSTOMIZER_EN_AA);
 143              		.loc 1 68 0
 144              		.cfi_startproc
 145              		@ args = 0, pretend = 0, frame = 0
 146              		@ frame_needed = 0, uses_anonymous_args = 0
 147 0000 10B5     		push	{r4, lr}
 148              		.cfi_def_cfa_offset 8
 149              		.cfi_offset 4, -8
 150              		.cfi_offset 14, -4
  69:Generated_Source\PSoC4/nRF24_FUNCS.c ****     nRF24_write_register(NRF_EN_RXADDR_REG, CUSTOMIZER_EN_RXADDR);
 151              		.loc 1 69 0
 152 0002 0021     		movs	r1, #0
 153 0004 0120     		movs	r0, #1
 154 0006 FFF7FEFF 		bl	nRF24_write_register
 155              	.LVL19:
  70:Generated_Source\PSoC4/nRF24_FUNCS.c ****     nRF24_write_register(NRF_SETUP_AW_REG, CUSTOMIZER_SETUP_AW);
 156              		.loc 1 70 0
 157 000a 0321     		movs	r1, #3
 158 000c 0220     		movs	r0, #2
 159 000e FFF7FEFF 		bl	nRF24_write_register
 160              	.LVL20:
  71:Generated_Source\PSoC4/nRF24_FUNCS.c ****     nRF24_write_register(NRF_SETUP_RETR_REG, CUSTOMIZER_SETUP_RETR);
 161              		.loc 1 71 0
 162 0012 0321     		movs	r1, #3
 163 0014 0320     		movs	r0, #3
 164 0016 FFF7FEFF 		bl	nRF24_write_register
 165              	.LVL21:
  72:Generated_Source\PSoC4/nRF24_FUNCS.c ****     nRF24_write_register(NRF_RF_CH_REG, CUSTOMIZER_RF_CH);
 166              		.loc 1 72 0
 167 001a 1821     		movs	r1, #24
 168 001c 0420     		movs	r0, #4
 169 001e FFF7FEFF 		bl	nRF24_write_register
 170              	.LVL22:
  73:Generated_Source\PSoC4/nRF24_FUNCS.c ****     nRF24_write_register(NRF_RF_SETUP_REG, CUSTOMIZER_RF_SETUP);
 171              		.loc 1 73 0
 172 0022 7821     		movs	r1, #120
 173 0024 0520     		movs	r0, #5
 174 0026 FFF7FEFF 		bl	nRF24_write_register
 175              	.LVL23:
  74:Generated_Source\PSoC4/nRF24_FUNCS.c ****     nRF24_write_register(NRF_DYNPD_REG, CUSTOMIZER_DYNPD);
 176              		.loc 1 74 0
ARM GAS  C:\Users\AFDHAL~1\AppData\Local\Temp\ccielSKc.s 			page 21


 177 002a 2621     		movs	r1, #38
 178 002c 0620     		movs	r0, #6
 179 002e FFF7FEFF 		bl	nRF24_write_register
 180              	.LVL24:
  75:Generated_Source\PSoC4/nRF24_FUNCS.c ****     nRF24_write_register(NRF_FEATURE_REG, CUSTOMIZER_FEATURE);
 181              		.loc 1 75 0
 182 0032 0021     		movs	r1, #0
 183 0034 1C20     		movs	r0, #28
 184 0036 FFF7FEFF 		bl	nRF24_write_register
 185              	.LVL25:
  76:Generated_Source\PSoC4/nRF24_FUNCS.c **** 
 186              		.loc 1 76 0
 187 003a 0121     		movs	r1, #1
 188 003c 1D20     		movs	r0, #29
 189 003e FFF7FEFF 		bl	nRF24_write_register
 190              	.LVL26:
  80:Generated_Source\PSoC4/nRF24_FUNCS.c **** #endif
 191              		.loc 1 80 0
 192 0042 0421     		movs	r1, #4
 193 0044 1120     		movs	r0, #17
 194 0046 FFF7FEFF 		bl	nRF24_write_register
 195              	.LVL27:
  83:Generated_Source\PSoC4/nRF24_FUNCS.c **** #endif
 196              		.loc 1 83 0
 197 004a 0421     		movs	r1, #4
 198 004c 1220     		movs	r0, #18
 199 004e FFF7FEFF 		bl	nRF24_write_register
 200              	.LVL28:
 102:Generated_Source\PSoC4/nRF24_FUNCS.c **** }
 201              		.loc 1 102 0
 202 0052 7F21     		movs	r1, #127
 203 0054 0020     		movs	r0, #0
 204 0056 FFF7FEFF 		bl	nRF24_write_register
 205              	.LVL29:
 103:Generated_Source\PSoC4/nRF24_FUNCS.c **** 
 206              		.loc 1 103 0
 207              		@ sp needed
 208 005a 10BD     		pop	{r4, pc}
 209              		.cfi_endproc
 210              	.LFE35:
 211              		.size	nRF24_init, .-nRF24_init
 212              		.section	.text.nRF24_enable,"ax",%progbits
 213              		.align	2
 214              		.global	nRF24_enable
 215              		.code	16
 216              		.thumb_func
 217              		.type	nRF24_enable, %function
 218              	nRF24_enable:
 219              	.LFB102:
 220              		.cfi_startproc
 221              		@ args = 0, pretend = 0, frame = 0
 222              		@ frame_needed = 0, uses_anonymous_args = 0
 223              		@ link register save eliminated.
 224              		@ sp needed
 225 0000 7047     		bx	lr
 226              		.cfi_endproc
 227              	.LFE102:
ARM GAS  C:\Users\AFDHAL~1\AppData\Local\Temp\ccielSKc.s 			page 22


 228              		.size	nRF24_enable, .-nRF24_enable
 229 0002 C046     		.section	.text.nRF24_stop,"ax",%progbits
 230              		.align	2
 231              		.global	nRF24_stop
 232              		.code	16
 233              		.thumb_func
 234              		.type	nRF24_stop, %function
 235              	nRF24_stop:
 236              	.LFB100:
 237              		.cfi_startproc
 238              		@ args = 0, pretend = 0, frame = 0
 239              		@ frame_needed = 0, uses_anonymous_args = 0
 240              		@ link register save eliminated.
 241              		@ sp needed
 242 0000 7047     		bx	lr
 243              		.cfi_endproc
 244              	.LFE100:
 245              		.size	nRF24_stop, .-nRF24_stop
 246 0002 C046     		.section	.text.nRF24_sleep,"ax",%progbits
 247              		.align	2
 248              		.global	nRF24_sleep
 249              		.code	16
 250              		.thumb_func
 251              		.type	nRF24_sleep, %function
 252              	nRF24_sleep:
 253              	.LFB104:
 254              		.cfi_startproc
 255              		@ args = 0, pretend = 0, frame = 0
 256              		@ frame_needed = 0, uses_anonymous_args = 0
 257 0000 10B5     		push	{r4, lr}
 258              		.cfi_def_cfa_offset 8
 259              		.cfi_offset 4, -8
 260              		.cfi_offset 14, -4
 261 0002 0020     		movs	r0, #0
 262 0004 FFF7FEFF 		bl	CE_Write
 263 0008 0121     		movs	r1, #1
 264 000a 0020     		movs	r0, #0
 265 000c FFF7FEFF 		bl	nRF24_set_bit
 266              		@ sp needed
 267 0010 10BD     		pop	{r4, pc}
 268              		.cfi_endproc
 269              	.LFE104:
 270              		.size	nRF24_sleep, .-nRF24_sleep
 271 0012 C046     		.section	.text.nRF24_wakeup,"ax",%progbits
 272              		.align	2
 273              		.global	nRF24_wakeup
 274              		.code	16
 275              		.thumb_func
 276              		.type	nRF24_wakeup, %function
 277              	nRF24_wakeup:
 278              	.LFB39:
 139:Generated_Source\PSoC4/nRF24_FUNCS.c ****     // after leaving standby-I mode the radio need a time to
 279              		.loc 1 139 0
 280              		.cfi_startproc
 281              		@ args = 0, pretend = 0, frame = 0
 282              		@ frame_needed = 0, uses_anonymous_args = 0
 139:Generated_Source\PSoC4/nRF24_FUNCS.c ****     // after leaving standby-I mode the radio need a time to
ARM GAS  C:\Users\AFDHAL~1\AppData\Local\Temp\ccielSKc.s 			page 23


 283              		.loc 1 139 0
 284 0000 10B5     		push	{r4, lr}
 285              		.cfi_def_cfa_offset 8
 286              		.cfi_offset 4, -8
 287              		.cfi_offset 14, -4
 142:Generated_Source\PSoC4/nRF24_FUNCS.c ****     CyDelay(5);
 288              		.loc 1 142 0
 289 0002 0121     		movs	r1, #1
 290 0004 0020     		movs	r0, #0
 291 0006 FFF7FEFF 		bl	nRF24_set_bit
 292              	.LVL30:
 143:Generated_Source\PSoC4/nRF24_FUNCS.c **** }
 293              		.loc 1 143 0
 294 000a 0520     		movs	r0, #5
 295 000c FFF7FEFF 		bl	CyDelay
 296              	.LVL31:
 144:Generated_Source\PSoC4/nRF24_FUNCS.c **** 
 297              		.loc 1 144 0
 298              		@ sp needed
 299 0010 10BD     		pop	{r4, pc}
 300              		.cfi_endproc
 301              	.LFE39:
 302              		.size	nRF24_wakeup, .-nRF24_wakeup
 303 0012 C046     		.section	.text.nRF24_save_config,"ax",%progbits
 304              		.align	2
 305              		.global	nRF24_save_config
 306              		.code	16
 307              		.thumb_func
 308              		.type	nRF24_save_config, %function
 309              	nRF24_save_config:
 310              	.LFB98:
 311              		.cfi_startproc
 312              		@ args = 0, pretend = 0, frame = 0
 313              		@ frame_needed = 0, uses_anonymous_args = 0
 314              		@ link register save eliminated.
 315              		@ sp needed
 316 0000 7047     		bx	lr
 317              		.cfi_endproc
 318              	.LFE98:
 319              		.size	nRF24_save_config, .-nRF24_save_config
 320 0002 C046     		.section	.text.nRF24_restore_config,"ax",%progbits
 321              		.align	2
 322              		.global	nRF24_restore_config
 323              		.code	16
 324              		.thumb_func
 325              		.type	nRF24_restore_config, %function
 326              	nRF24_restore_config:
 327              	.LFB41:
 161:Generated_Source\PSoC4/nRF24_FUNCS.c **** }
 328              		.loc 1 161 0
 329              		.cfi_startproc
 330              		@ args = 0, pretend = 0, frame = 0
 331              		@ frame_needed = 0, uses_anonymous_args = 0
 332              		@ link register save eliminated.
 162:Generated_Source\PSoC4/nRF24_FUNCS.c **** 
 333              		.loc 1 162 0
 334              		@ sp needed
ARM GAS  C:\Users\AFDHAL~1\AppData\Local\Temp\ccielSKc.s 			page 24


 335 0000 7047     		bx	lr
 336              		.cfi_endproc
 337              	.LFE41:
 338              		.size	nRF24_restore_config, .-nRF24_restore_config
 339 0002 C046     		.section	.text.nRF24_set_mode,"ax",%progbits
 340              		.align	2
 341              		.global	nRF24_set_mode
 342              		.code	16
 343              		.thumb_func
 344              		.type	nRF24_set_mode, %function
 345              	nRF24_set_mode:
 346              	.LFB42:
 171:Generated_Source\PSoC4/nRF24_FUNCS.c ****     mode ? nRF24_set_rx_mode() : nRF24_set_tx_mode();
 347              		.loc 1 171 0
 348              		.cfi_startproc
 349              		@ args = 0, pretend = 0, frame = 0
 350              		@ frame_needed = 0, uses_anonymous_args = 0
 351              	.LVL32:
 352 0000 10B5     		push	{r4, lr}
 353              		.cfi_def_cfa_offset 8
 354              		.cfi_offset 4, -8
 355              		.cfi_offset 14, -4
 356              	.LBB28:
 357              	.LBB29:
 237:Generated_Source\PSoC4/nRF24_FUNCS.c **** }
 358              		.loc 1 237 0
 359 0002 0021     		movs	r1, #0
 360              	.LBE29:
 361              	.LBE28:
 172:Generated_Source\PSoC4/nRF24_FUNCS.c **** }
 362              		.loc 1 172 0
 363 0004 0028     		cmp	r0, #0
 364 0006 03D1     		bne	.L13
 365              	.LBB31:
 366              	.LBB32:
 249:Generated_Source\PSoC4/nRF24_FUNCS.c **** }
 367              		.loc 1 249 0
 368 0008 0020     		movs	r0, #0
 369              	.LVL33:
 370 000a FFF7FEFF 		bl	nRF24_clear_bit
 371              	.LVL34:
 372              	.L9:
 373              	.LBE32:
 374              	.LBE31:
 173:Generated_Source\PSoC4/nRF24_FUNCS.c **** 
 375              		.loc 1 173 0
 376              		@ sp needed
 377 000e 10BD     		pop	{r4, pc}
 378              	.LVL35:
 379              	.L13:
 380              	.LBB33:
 381              	.LBB30:
 237:Generated_Source\PSoC4/nRF24_FUNCS.c **** }
 382              		.loc 1 237 0
 383 0010 0020     		movs	r0, #0
 384              	.LVL36:
 385 0012 FFF7FEFF 		bl	nRF24_set_bit
ARM GAS  C:\Users\AFDHAL~1\AppData\Local\Temp\ccielSKc.s 			page 25


 386              	.LVL37:
 387 0016 FAE7     		b	.L9
 388              	.LBE30:
 389              	.LBE33:
 390              		.cfi_endproc
 391              	.LFE42:
 392              		.size	nRF24_set_mode, .-nRF24_set_mode
 393              		.section	.text.nRF24_set_power_down_mode,"ax",%progbits
 394              		.align	2
 395              		.global	nRF24_set_power_down_mode
 396              		.code	16
 397              		.thumb_func
 398              		.type	nRF24_set_power_down_mode, %function
 399              	nRF24_set_power_down_mode:
 400              	.LFB43:
 185:Generated_Source\PSoC4/nRF24_FUNCS.c ****     nRF24_clear_bit(NRF_CONFIG_REG, NRF_CONFIG_PWR_UP);
 401              		.loc 1 185 0
 402              		.cfi_startproc
 403              		@ args = 0, pretend = 0, frame = 0
 404              		@ frame_needed = 0, uses_anonymous_args = 0
 405 0000 10B5     		push	{r4, lr}
 406              		.cfi_def_cfa_offset 8
 407              		.cfi_offset 4, -8
 408              		.cfi_offset 14, -4
 186:Generated_Source\PSoC4/nRF24_FUNCS.c **** }
 409              		.loc 1 186 0
 410 0002 0121     		movs	r1, #1
 411 0004 0020     		movs	r0, #0
 412 0006 FFF7FEFF 		bl	nRF24_clear_bit
 413              	.LVL38:
 187:Generated_Source\PSoC4/nRF24_FUNCS.c **** 
 414              		.loc 1 187 0
 415              		@ sp needed
 416 000a 10BD     		pop	{r4, pc}
 417              		.cfi_endproc
 418              	.LFE43:
 419              		.size	nRF24_set_power_down_mode, .-nRF24_set_power_down_mode
 420              		.section	.text.nRF24_set_standby_i_mode,"ax",%progbits
 421              		.align	2
 422              		.global	nRF24_set_standby_i_mode
 423              		.code	16
 424              		.thumb_func
 425              		.type	nRF24_set_standby_i_mode, %function
 426              	nRF24_set_standby_i_mode:
 427              	.LFB44:
 200:Generated_Source\PSoC4/nRF24_FUNCS.c **** #if 0
 428              		.loc 1 200 0
 429              		.cfi_startproc
 430              		@ args = 0, pretend = 0, frame = 0
 431              		@ frame_needed = 0, uses_anonymous_args = 0
 432 0000 10B5     		push	{r4, lr}
 433              		.cfi_def_cfa_offset 8
 434              		.cfi_offset 4, -8
 435              		.cfi_offset 14, -4
 436              	.LBB34:
 437              	.LBB35:
 731:Generated_Source\PSoC4/nRF24_FUNCS.c ****     #endif
ARM GAS  C:\Users\AFDHAL~1\AppData\Local\Temp\ccielSKc.s 			page 26


 438              		.loc 1 731 0
 439 0002 0020     		movs	r0, #0
 440 0004 FFF7FEFF 		bl	CE_Write
 441              	.LVL39:
 442              	.LBE35:
 443              	.LBE34:
 206:Generated_Source\PSoC4/nRF24_FUNCS.c **** }
 444              		.loc 1 206 0
 445 0008 0121     		movs	r1, #1
 446 000a 0020     		movs	r0, #0
 447 000c FFF7FEFF 		bl	nRF24_set_bit
 448              	.LVL40:
 207:Generated_Source\PSoC4/nRF24_FUNCS.c **** 
 449              		.loc 1 207 0
 450              		@ sp needed
 451 0010 10BD     		pop	{r4, pc}
 452              		.cfi_endproc
 453              	.LFE44:
 454              		.size	nRF24_set_standby_i_mode, .-nRF24_set_standby_i_mode
 455 0012 C046     		.section	.text.nRF24_set_standby_ii_mode,"ax",%progbits
 456              		.align	2
 457              		.global	nRF24_set_standby_ii_mode
 458              		.code	16
 459              		.thumb_func
 460              		.type	nRF24_set_standby_ii_mode, %function
 461              	nRF24_set_standby_ii_mode:
 462              	.LFB45:
 219:Generated_Source\PSoC4/nRF24_FUNCS.c **** #if 0
 463              		.loc 1 219 0
 464              		.cfi_startproc
 465              		@ args = 0, pretend = 0, frame = 0
 466              		@ frame_needed = 0, uses_anonymous_args = 0
 467 0000 10B5     		push	{r4, lr}
 468              		.cfi_def_cfa_offset 8
 469              		.cfi_offset 4, -8
 470              		.cfi_offset 14, -4
 471              	.LBB36:
 472              	.LBB37:
 712:Generated_Source\PSoC4/nRF24_FUNCS.c ****     #endif
 473              		.loc 1 712 0
 474 0002 0120     		movs	r0, #1
 475 0004 FFF7FEFF 		bl	CE_Write
 476              	.LVL41:
 477              	.LBE37:
 478              	.LBE36:
 225:Generated_Source\PSoC4/nRF24_FUNCS.c **** }
 479              		.loc 1 225 0
 480 0008 0121     		movs	r1, #1
 481 000a 0020     		movs	r0, #0
 482 000c FFF7FEFF 		bl	nRF24_set_bit
 483              	.LVL42:
 226:Generated_Source\PSoC4/nRF24_FUNCS.c **** 
 484              		.loc 1 226 0
 485              		@ sp needed
 486 0010 10BD     		pop	{r4, pc}
 487              		.cfi_endproc
 488              	.LFE45:
ARM GAS  C:\Users\AFDHAL~1\AppData\Local\Temp\ccielSKc.s 			page 27


 489              		.size	nRF24_set_standby_ii_mode, .-nRF24_set_standby_ii_mode
 490 0012 C046     		.section	.text.nRF24_set_rx_mode,"ax",%progbits
 491              		.align	2
 492              		.global	nRF24_set_rx_mode
 493              		.code	16
 494              		.thumb_func
 495              		.type	nRF24_set_rx_mode, %function
 496              	nRF24_set_rx_mode:
 497              	.LFB46:
 236:Generated_Source\PSoC4/nRF24_FUNCS.c ****     nRF24_set_bit(NRF_CONFIG_REG, NRF_CONFIG_PRIM_RX);
 498              		.loc 1 236 0
 499              		.cfi_startproc
 500              		@ args = 0, pretend = 0, frame = 0
 501              		@ frame_needed = 0, uses_anonymous_args = 0
 502 0000 10B5     		push	{r4, lr}
 503              		.cfi_def_cfa_offset 8
 504              		.cfi_offset 4, -8
 505              		.cfi_offset 14, -4
 237:Generated_Source\PSoC4/nRF24_FUNCS.c **** }
 506              		.loc 1 237 0
 507 0002 0021     		movs	r1, #0
 508 0004 0020     		movs	r0, #0
 509 0006 FFF7FEFF 		bl	nRF24_set_bit
 510              	.LVL43:
 238:Generated_Source\PSoC4/nRF24_FUNCS.c **** 
 511              		.loc 1 238 0
 512              		@ sp needed
 513 000a 10BD     		pop	{r4, pc}
 514              		.cfi_endproc
 515              	.LFE46:
 516              		.size	nRF24_set_rx_mode, .-nRF24_set_rx_mode
 517              		.section	.text.nRF24_set_tx_mode,"ax",%progbits
 518              		.align	2
 519              		.global	nRF24_set_tx_mode
 520              		.code	16
 521              		.thumb_func
 522              		.type	nRF24_set_tx_mode, %function
 523              	nRF24_set_tx_mode:
 524              	.LFB47:
 248:Generated_Source\PSoC4/nRF24_FUNCS.c ****     nRF24_clear_bit(NRF_CONFIG_REG, NRF_CONFIG_PRIM_RX);
 525              		.loc 1 248 0
 526              		.cfi_startproc
 527              		@ args = 0, pretend = 0, frame = 0
 528              		@ frame_needed = 0, uses_anonymous_args = 0
 529 0000 10B5     		push	{r4, lr}
 530              		.cfi_def_cfa_offset 8
 531              		.cfi_offset 4, -8
 532              		.cfi_offset 14, -4
 249:Generated_Source\PSoC4/nRF24_FUNCS.c **** }
 533              		.loc 1 249 0
 534 0002 0021     		movs	r1, #0
 535 0004 0020     		movs	r0, #0
 536 0006 FFF7FEFF 		bl	nRF24_clear_bit
 537              	.LVL44:
 250:Generated_Source\PSoC4/nRF24_FUNCS.c **** 
 538              		.loc 1 250 0
 539              		@ sp needed
ARM GAS  C:\Users\AFDHAL~1\AppData\Local\Temp\ccielSKc.s 			page 28


 540 000a 10BD     		pop	{r4, pc}
 541              		.cfi_endproc
 542              	.LFE47:
 543              		.size	nRF24_set_tx_mode, .-nRF24_set_tx_mode
 544              		.section	.text.nRF24_enable_auto_ack,"ax",%progbits
 545              		.align	2
 546              		.global	nRF24_enable_auto_ack
 547              		.code	16
 548              		.thumb_func
 549              		.type	nRF24_enable_auto_ack, %function
 550              	nRF24_enable_auto_ack:
 551              	.LFB48:
 258:Generated_Source\PSoC4/nRF24_FUNCS.c ****     nRF24_set_bit(NRF_EN_AA_REG, pipe);
 552              		.loc 1 258 0
 553              		.cfi_startproc
 554              		@ args = 0, pretend = 0, frame = 0
 555              		@ frame_needed = 0, uses_anonymous_args = 0
 556              	.LVL45:
 557 0000 10B5     		push	{r4, lr}
 558              		.cfi_def_cfa_offset 8
 559              		.cfi_offset 4, -8
 560              		.cfi_offset 14, -4
 258:Generated_Source\PSoC4/nRF24_FUNCS.c ****     nRF24_set_bit(NRF_EN_AA_REG, pipe);
 561              		.loc 1 258 0
 562 0002 0100     		movs	r1, r0
 259:Generated_Source\PSoC4/nRF24_FUNCS.c **** }
 563              		.loc 1 259 0
 564 0004 0120     		movs	r0, #1
 565              	.LVL46:
 566 0006 FFF7FEFF 		bl	nRF24_set_bit
 567              	.LVL47:
 260:Generated_Source\PSoC4/nRF24_FUNCS.c **** 
 568              		.loc 1 260 0
 569              		@ sp needed
 570 000a 10BD     		pop	{r4, pc}
 571              		.cfi_endproc
 572              	.LFE48:
 573              		.size	nRF24_enable_auto_ack, .-nRF24_enable_auto_ack
 574              		.section	.text.nRF24_disable_auto_ack,"ax",%progbits
 575              		.align	2
 576              		.global	nRF24_disable_auto_ack
 577              		.code	16
 578              		.thumb_func
 579              		.type	nRF24_disable_auto_ack, %function
 580              	nRF24_disable_auto_ack:
 581              	.LFB49:
 268:Generated_Source\PSoC4/nRF24_FUNCS.c ****     nRF24_clear_bit(NRF_EN_AA_REG, pipe);
 582              		.loc 1 268 0
 583              		.cfi_startproc
 584              		@ args = 0, pretend = 0, frame = 0
 585              		@ frame_needed = 0, uses_anonymous_args = 0
 586              	.LVL48:
 587 0000 10B5     		push	{r4, lr}
 588              		.cfi_def_cfa_offset 8
 589              		.cfi_offset 4, -8
 590              		.cfi_offset 14, -4
 268:Generated_Source\PSoC4/nRF24_FUNCS.c ****     nRF24_clear_bit(NRF_EN_AA_REG, pipe);
ARM GAS  C:\Users\AFDHAL~1\AppData\Local\Temp\ccielSKc.s 			page 29


 591              		.loc 1 268 0
 592 0002 0100     		movs	r1, r0
 269:Generated_Source\PSoC4/nRF24_FUNCS.c **** }
 593              		.loc 1 269 0
 594 0004 0120     		movs	r0, #1
 595              	.LVL49:
 596 0006 FFF7FEFF 		bl	nRF24_clear_bit
 597              	.LVL50:
 270:Generated_Source\PSoC4/nRF24_FUNCS.c **** 
 598              		.loc 1 270 0
 599              		@ sp needed
 600 000a 10BD     		pop	{r4, pc}
 601              		.cfi_endproc
 602              	.LFE49:
 603              		.size	nRF24_disable_auto_ack, .-nRF24_disable_auto_ack
 604              		.section	.text.nRF24_set_channel,"ax",%progbits
 605              		.align	2
 606              		.global	nRF24_set_channel
 607              		.code	16
 608              		.thumb_func
 609              		.type	nRF24_set_channel, %function
 610              	nRF24_set_channel:
 611              	.LFB50:
 278:Generated_Source\PSoC4/nRF24_FUNCS.c ****     if (NRF_MAX_RF_CHANNEL < channel) {
 612              		.loc 1 278 0
 613              		.cfi_startproc
 614              		@ args = 0, pretend = 0, frame = 0
 615              		@ frame_needed = 0, uses_anonymous_args = 0
 616              	.LVL51:
 617 0000 10B5     		push	{r4, lr}
 618              		.cfi_def_cfa_offset 8
 619              		.cfi_offset 4, -8
 620              		.cfi_offset 14, -4
 283:Generated_Source\PSoC4/nRF24_FUNCS.c **** }
 621              		.loc 1 283 0
 622 0002 011C     		adds	r1, r0, #0
 623 0004 7D28     		cmp	r0, #125
 624 0006 00D9     		bls	.L22
 625 0008 7D21     		movs	r1, #125
 626              	.L22:
 627 000a C9B2     		uxtb	r1, r1
 628 000c 0520     		movs	r0, #5
 629              	.LVL52:
 630 000e FFF7FEFF 		bl	nRF24_write_register
 631              	.LVL53:
 284:Generated_Source\PSoC4/nRF24_FUNCS.c **** 
 632              		.loc 1 284 0
 633              		@ sp needed
 634 0012 10BD     		pop	{r4, pc}
 635              		.cfi_endproc
 636              	.LFE50:
 637              		.size	nRF24_set_channel, .-nRF24_set_channel
 638              		.section	.text.nRF24_set_address_width,"ax",%progbits
 639              		.align	2
 640              		.global	nRF24_set_address_width
 641              		.code	16
 642              		.thumb_func
ARM GAS  C:\Users\AFDHAL~1\AppData\Local\Temp\ccielSKc.s 			page 30


 643              		.type	nRF24_set_address_width, %function
 644              	nRF24_set_address_width:
 645              	.LFB51:
 292:Generated_Source\PSoC4/nRF24_FUNCS.c ****     nRF24_write_register(NRF_SETUP_AW_REG, (uint8_t)addr_width);
 646              		.loc 1 292 0
 647              		.cfi_startproc
 648              		@ args = 0, pretend = 0, frame = 0
 649              		@ frame_needed = 0, uses_anonymous_args = 0
 650              	.LVL54:
 651 0000 10B5     		push	{r4, lr}
 652              		.cfi_def_cfa_offset 8
 653              		.cfi_offset 4, -8
 654              		.cfi_offset 14, -4
 292:Generated_Source\PSoC4/nRF24_FUNCS.c ****     nRF24_write_register(NRF_SETUP_AW_REG, (uint8_t)addr_width);
 655              		.loc 1 292 0
 656 0002 0100     		movs	r1, r0
 293:Generated_Source\PSoC4/nRF24_FUNCS.c **** }
 657              		.loc 1 293 0
 658 0004 0320     		movs	r0, #3
 659              	.LVL55:
 660 0006 FFF7FEFF 		bl	nRF24_write_register
 661              	.LVL56:
 294:Generated_Source\PSoC4/nRF24_FUNCS.c **** 
 662              		.loc 1 294 0
 663              		@ sp needed
 664 000a 10BD     		pop	{r4, pc}
 665              		.cfi_endproc
 666              	.LFE51:
 667              		.size	nRF24_set_address_width, .-nRF24_set_address_width
 668              		.section	.text.nRF24_get_address_width,"ax",%progbits
 669              		.align	2
 670              		.global	nRF24_get_address_width
 671              		.code	16
 672              		.thumb_func
 673              		.type	nRF24_get_address_width, %function
 674              	nRF24_get_address_width:
 675              	.LFB52:
 302:Generated_Source\PSoC4/nRF24_FUNCS.c ****     uint8_t addr_width = 0;
 676              		.loc 1 302 0
 677              		.cfi_startproc
 678              		@ args = 0, pretend = 0, frame = 0
 679              		@ frame_needed = 0, uses_anonymous_args = 0
 680              	.LVL57:
 681 0000 10B5     		push	{r4, lr}
 682              		.cfi_def_cfa_offset 8
 683              		.cfi_offset 4, -8
 684              		.cfi_offset 14, -4
 304:Generated_Source\PSoC4/nRF24_FUNCS.c **** 
 685              		.loc 1 304 0
 686 0002 0320     		movs	r0, #3
 687 0004 FFF7FEFF 		bl	nRF24_read_register
 688              	.LVL58:
 689 0008 0138     		subs	r0, r0, #1
 690              	.LVL59:
 691 000a C3B2     		uxtb	r3, r0
 692 000c 0020     		movs	r0, #0
 693 000e 022B     		cmp	r3, #2
ARM GAS  C:\Users\AFDHAL~1\AppData\Local\Temp\ccielSKc.s 			page 31


 694 0010 01D8     		bhi	.L25
 695 0012 014A     		ldr	r2, .L27
 696 0014 D05C     		ldrb	r0, [r2, r3]
 697              	.L25:
 698              	.LVL60:
 321:Generated_Source\PSoC4/nRF24_FUNCS.c **** 
 699              		.loc 1 321 0
 700              		@ sp needed
 701 0016 10BD     		pop	{r4, pc}
 702              	.L28:
 703              		.align	2
 704              	.L27:
 705 0018 00000000 		.word	.LANCHOR0
 706              		.cfi_endproc
 707              	.LFE52:
 708              		.size	nRF24_get_address_width, .-nRF24_get_address_width
 709              		.section	.text.nRF24_set_rx_pipe_0_address,"ax",%progbits
 710              		.align	2
 711              		.global	nRF24_set_rx_pipe_0_address
 712              		.code	16
 713              		.thumb_func
 714              		.type	nRF24_set_rx_pipe_0_address, %function
 715              	nRF24_set_rx_pipe_0_address:
 716              	.LFB53:
 332:Generated_Source\PSoC4/nRF24_FUNCS.c ****     if (NULL == addr) {
 717              		.loc 1 332 0
 718              		.cfi_startproc
 719              		@ args = 0, pretend = 0, frame = 0
 720              		@ frame_needed = 0, uses_anonymous_args = 0
 721              	.LVL61:
 722 0000 10B5     		push	{r4, lr}
 723              		.cfi_def_cfa_offset 8
 724              		.cfi_offset 4, -8
 725              		.cfi_offset 14, -4
 333:Generated_Source\PSoC4/nRF24_FUNCS.c ****         return;
 726              		.loc 1 333 0
 727 0002 0028     		cmp	r0, #0
 728 0004 06D0     		beq	.L29
 729              	.LVL62:
 342:Generated_Source\PSoC4/nRF24_FUNCS.c **** }
 730              		.loc 1 342 0
 731 0006 0A00     		movs	r2, r1
 732 0008 0529     		cmp	r1, #5
 733 000a 04D8     		bhi	.L35
 734              	.L31:
 735 000c 0100     		movs	r1, r0
 736              	.LVL63:
 737 000e 0A20     		movs	r0, #10
 738              	.LVL64:
 739 0010 FFF7FEFF 		bl	nRF24_write_long_register
 740              	.LVL65:
 741              	.L29:
 343:Generated_Source\PSoC4/nRF24_FUNCS.c **** 
 742              		.loc 1 343 0
 743              		@ sp needed
 744 0014 10BD     		pop	{r4, pc}
 745              	.LVL66:
ARM GAS  C:\Users\AFDHAL~1\AppData\Local\Temp\ccielSKc.s 			page 32


 746              	.L35:
 342:Generated_Source\PSoC4/nRF24_FUNCS.c **** }
 747              		.loc 1 342 0
 748 0016 0522     		movs	r2, #5
 749 0018 F8E7     		b	.L31
 750              		.cfi_endproc
 751              	.LFE53:
 752              		.size	nRF24_set_rx_pipe_0_address, .-nRF24_set_rx_pipe_0_address
 753 001a C046     		.section	.text.nRF24_get_rx_pipe_0_address,"ax",%progbits
 754              		.align	2
 755              		.global	nRF24_get_rx_pipe_0_address
 756              		.code	16
 757              		.thumb_func
 758              		.type	nRF24_get_rx_pipe_0_address, %function
 759              	nRF24_get_rx_pipe_0_address:
 760              	.LFB54:
 352:Generated_Source\PSoC4/nRF24_FUNCS.c ****     if (NULL == addr) {
 761              		.loc 1 352 0
 762              		.cfi_startproc
 763              		@ args = 0, pretend = 0, frame = 0
 764              		@ frame_needed = 0, uses_anonymous_args = 0
 765              	.LVL67:
 766 0000 10B5     		push	{r4, lr}
 767              		.cfi_def_cfa_offset 8
 768              		.cfi_offset 4, -8
 769              		.cfi_offset 14, -4
 353:Generated_Source\PSoC4/nRF24_FUNCS.c ****         return;
 770              		.loc 1 353 0
 771 0002 0028     		cmp	r0, #0
 772 0004 06D0     		beq	.L36
 773              	.LVL68:
 361:Generated_Source\PSoC4/nRF24_FUNCS.c **** }
 774              		.loc 1 361 0
 775 0006 0A00     		movs	r2, r1
 776 0008 0529     		cmp	r1, #5
 777 000a 04D8     		bhi	.L42
 778              	.L38:
 779 000c 0100     		movs	r1, r0
 780              	.LVL69:
 781 000e 0A20     		movs	r0, #10
 782              	.LVL70:
 783 0010 FFF7FEFF 		bl	nRF24_read_long_register
 784              	.LVL71:
 785              	.L36:
 362:Generated_Source\PSoC4/nRF24_FUNCS.c **** 
 786              		.loc 1 362 0
 787              		@ sp needed
 788 0014 10BD     		pop	{r4, pc}
 789              	.LVL72:
 790              	.L42:
 361:Generated_Source\PSoC4/nRF24_FUNCS.c **** }
 791              		.loc 1 361 0
 792 0016 0522     		movs	r2, #5
 793 0018 F8E7     		b	.L38
 794              		.cfi_endproc
 795              	.LFE54:
 796              		.size	nRF24_get_rx_pipe_0_address, .-nRF24_get_rx_pipe_0_address
ARM GAS  C:\Users\AFDHAL~1\AppData\Local\Temp\ccielSKc.s 			page 33


 797 001a C046     		.section	.text.nRF24_set_rx_pipe_1_address,"ax",%progbits
 798              		.align	2
 799              		.global	nRF24_set_rx_pipe_1_address
 800              		.code	16
 801              		.thumb_func
 802              		.type	nRF24_set_rx_pipe_1_address, %function
 803              	nRF24_set_rx_pipe_1_address:
 804              	.LFB55:
 373:Generated_Source\PSoC4/nRF24_FUNCS.c ****     if (NULL == addr) {
 805              		.loc 1 373 0
 806              		.cfi_startproc
 807              		@ args = 0, pretend = 0, frame = 0
 808              		@ frame_needed = 0, uses_anonymous_args = 0
 809              	.LVL73:
 810 0000 10B5     		push	{r4, lr}
 811              		.cfi_def_cfa_offset 8
 812              		.cfi_offset 4, -8
 813              		.cfi_offset 14, -4
 374:Generated_Source\PSoC4/nRF24_FUNCS.c ****         return;
 814              		.loc 1 374 0
 815 0002 0028     		cmp	r0, #0
 816 0004 06D0     		beq	.L43
 817              	.LVL74:
 382:Generated_Source\PSoC4/nRF24_FUNCS.c **** }
 818              		.loc 1 382 0
 819 0006 0A00     		movs	r2, r1
 820 0008 0529     		cmp	r1, #5
 821 000a 04D8     		bhi	.L49
 822              	.L45:
 823 000c 0100     		movs	r1, r0
 824              	.LVL75:
 825 000e 0B20     		movs	r0, #11
 826              	.LVL76:
 827 0010 FFF7FEFF 		bl	nRF24_write_long_register
 828              	.LVL77:
 829              	.L43:
 383:Generated_Source\PSoC4/nRF24_FUNCS.c **** 
 830              		.loc 1 383 0
 831              		@ sp needed
 832 0014 10BD     		pop	{r4, pc}
 833              	.LVL78:
 834              	.L49:
 382:Generated_Source\PSoC4/nRF24_FUNCS.c **** }
 835              		.loc 1 382 0
 836 0016 0522     		movs	r2, #5
 837 0018 F8E7     		b	.L45
 838              		.cfi_endproc
 839              	.LFE55:
 840              		.size	nRF24_set_rx_pipe_1_address, .-nRF24_set_rx_pipe_1_address
 841 001a C046     		.section	.text.nRF24_get_rx_pipe_1_address,"ax",%progbits
 842              		.align	2
 843              		.global	nRF24_get_rx_pipe_1_address
 844              		.code	16
 845              		.thumb_func
 846              		.type	nRF24_get_rx_pipe_1_address, %function
 847              	nRF24_get_rx_pipe_1_address:
 848              	.LFB56:
ARM GAS  C:\Users\AFDHAL~1\AppData\Local\Temp\ccielSKc.s 			page 34


 392:Generated_Source\PSoC4/nRF24_FUNCS.c ****     if (NULL == addr) {
 849              		.loc 1 392 0
 850              		.cfi_startproc
 851              		@ args = 0, pretend = 0, frame = 0
 852              		@ frame_needed = 0, uses_anonymous_args = 0
 853              	.LVL79:
 854 0000 10B5     		push	{r4, lr}
 855              		.cfi_def_cfa_offset 8
 856              		.cfi_offset 4, -8
 857              		.cfi_offset 14, -4
 393:Generated_Source\PSoC4/nRF24_FUNCS.c ****         return;
 858              		.loc 1 393 0
 859 0002 0028     		cmp	r0, #0
 860 0004 06D0     		beq	.L50
 861              	.LVL80:
 401:Generated_Source\PSoC4/nRF24_FUNCS.c **** }
 862              		.loc 1 401 0
 863 0006 0A00     		movs	r2, r1
 864 0008 0529     		cmp	r1, #5
 865 000a 04D8     		bhi	.L56
 866              	.L52:
 867 000c 0100     		movs	r1, r0
 868              	.LVL81:
 869 000e 0B20     		movs	r0, #11
 870              	.LVL82:
 871 0010 FFF7FEFF 		bl	nRF24_read_long_register
 872              	.LVL83:
 873              	.L50:
 402:Generated_Source\PSoC4/nRF24_FUNCS.c **** 
 874              		.loc 1 402 0
 875              		@ sp needed
 876 0014 10BD     		pop	{r4, pc}
 877              	.LVL84:
 878              	.L56:
 401:Generated_Source\PSoC4/nRF24_FUNCS.c **** }
 879              		.loc 1 401 0
 880 0016 0522     		movs	r2, #5
 881 0018 F8E7     		b	.L52
 882              		.cfi_endproc
 883              	.LFE56:
 884              		.size	nRF24_get_rx_pipe_1_address, .-nRF24_get_rx_pipe_1_address
 885 001a C046     		.section	.text.nRF24_set_rx_pipe_2_address,"ax",%progbits
 886              		.align	2
 887              		.global	nRF24_set_rx_pipe_2_address
 888              		.code	16
 889              		.thumb_func
 890              		.type	nRF24_set_rx_pipe_2_address, %function
 891              	nRF24_set_rx_pipe_2_address:
 892              	.LFB57:
 410:Generated_Source\PSoC4/nRF24_FUNCS.c ****     nRF24_write_register(NRF_RX_ADDR_P2_REG, addr_lsb);
 893              		.loc 1 410 0
 894              		.cfi_startproc
 895              		@ args = 0, pretend = 0, frame = 0
 896              		@ frame_needed = 0, uses_anonymous_args = 0
 897              	.LVL85:
 898 0000 10B5     		push	{r4, lr}
 899              		.cfi_def_cfa_offset 8
ARM GAS  C:\Users\AFDHAL~1\AppData\Local\Temp\ccielSKc.s 			page 35


 900              		.cfi_offset 4, -8
 901              		.cfi_offset 14, -4
 410:Generated_Source\PSoC4/nRF24_FUNCS.c ****     nRF24_write_register(NRF_RX_ADDR_P2_REG, addr_lsb);
 902              		.loc 1 410 0
 903 0002 0100     		movs	r1, r0
 411:Generated_Source\PSoC4/nRF24_FUNCS.c **** }
 904              		.loc 1 411 0
 905 0004 0C20     		movs	r0, #12
 906              	.LVL86:
 907 0006 FFF7FEFF 		bl	nRF24_write_register
 908              	.LVL87:
 412:Generated_Source\PSoC4/nRF24_FUNCS.c **** 
 909              		.loc 1 412 0
 910              		@ sp needed
 911 000a 10BD     		pop	{r4, pc}
 912              		.cfi_endproc
 913              	.LFE57:
 914              		.size	nRF24_set_rx_pipe_2_address, .-nRF24_set_rx_pipe_2_address
 915              		.section	.text.nRF24_get_rx_pipe_2_address,"ax",%progbits
 916              		.align	2
 917              		.global	nRF24_get_rx_pipe_2_address
 918              		.code	16
 919              		.thumb_func
 920              		.type	nRF24_get_rx_pipe_2_address, %function
 921              	nRF24_get_rx_pipe_2_address:
 922              	.LFB58:
 421:Generated_Source\PSoC4/nRF24_FUNCS.c ****     if (NULL == addr) {
 923              		.loc 1 421 0
 924              		.cfi_startproc
 925              		@ args = 0, pretend = 0, frame = 0
 926              		@ frame_needed = 0, uses_anonymous_args = 0
 927              	.LVL88:
 928 0000 70B5     		push	{r4, r5, r6, lr}
 929              		.cfi_def_cfa_offset 16
 930              		.cfi_offset 4, -16
 931              		.cfi_offset 5, -12
 932              		.cfi_offset 6, -8
 933              		.cfi_offset 14, -4
 421:Generated_Source\PSoC4/nRF24_FUNCS.c ****     if (NULL == addr) {
 934              		.loc 1 421 0
 935 0002 051E     		subs	r5, r0, #0
 422:Generated_Source\PSoC4/nRF24_FUNCS.c ****         return;
 936              		.loc 1 422 0
 937 0004 0CD0     		beq	.L58
 938              	.LVL89:
 431:Generated_Source\PSoC4/nRF24_FUNCS.c ****     addr[size - 1] = nRF24_read_register(NRF_RX_ADDR_P2_REG);
 939              		.loc 1 431 0
 940 0006 0529     		cmp	r1, #5
 941 0008 0BD8     		bhi	.L64
 942              	.LVL90:
 943              	.L60:
 944 000a 4C1E     		subs	r4, r1, #1
 945 000c 2200     		movs	r2, r4
 946 000e 2900     		movs	r1, r5
 947 0010 0B20     		movs	r0, #11
 948              	.LVL91:
 949 0012 FFF7FEFF 		bl	nRF24_read_long_register
ARM GAS  C:\Users\AFDHAL~1\AppData\Local\Temp\ccielSKc.s 			page 36


 950              	.LVL92:
 432:Generated_Source\PSoC4/nRF24_FUNCS.c **** }
 951              		.loc 1 432 0
 952 0016 0C20     		movs	r0, #12
 953 0018 FFF7FEFF 		bl	nRF24_read_register
 954              	.LVL93:
 955 001c 2C19     		adds	r4, r5, r4
 956 001e 2070     		strb	r0, [r4]
 957              	.LVL94:
 958              	.L58:
 433:Generated_Source\PSoC4/nRF24_FUNCS.c **** 
 959              		.loc 1 433 0
 960              		@ sp needed
 961              	.LVL95:
 962 0020 70BD     		pop	{r4, r5, r6, pc}
 963              	.LVL96:
 964              	.L64:
 431:Generated_Source\PSoC4/nRF24_FUNCS.c ****     addr[size - 1] = nRF24_read_register(NRF_RX_ADDR_P2_REG);
 965              		.loc 1 431 0
 966 0022 0521     		movs	r1, #5
 967              	.LVL97:
 968 0024 F1E7     		b	.L60
 969              		.cfi_endproc
 970              	.LFE58:
 971              		.size	nRF24_get_rx_pipe_2_address, .-nRF24_get_rx_pipe_2_address
 972 0026 C046     		.section	.text.nRF24_set_rx_pipe_3_address,"ax",%progbits
 973              		.align	2
 974              		.global	nRF24_set_rx_pipe_3_address
 975              		.code	16
 976              		.thumb_func
 977              		.type	nRF24_set_rx_pipe_3_address, %function
 978              	nRF24_set_rx_pipe_3_address:
 979              	.LFB59:
 441:Generated_Source\PSoC4/nRF24_FUNCS.c ****     nRF24_write_register(NRF_RX_ADDR_P3_REG, addr_lsb);
 980              		.loc 1 441 0
 981              		.cfi_startproc
 982              		@ args = 0, pretend = 0, frame = 0
 983              		@ frame_needed = 0, uses_anonymous_args = 0
 984              	.LVL98:
 985 0000 10B5     		push	{r4, lr}
 986              		.cfi_def_cfa_offset 8
 987              		.cfi_offset 4, -8
 988              		.cfi_offset 14, -4
 441:Generated_Source\PSoC4/nRF24_FUNCS.c ****     nRF24_write_register(NRF_RX_ADDR_P3_REG, addr_lsb);
 989              		.loc 1 441 0
 990 0002 0100     		movs	r1, r0
 442:Generated_Source\PSoC4/nRF24_FUNCS.c **** }
 991              		.loc 1 442 0
 992 0004 0D20     		movs	r0, #13
 993              	.LVL99:
 994 0006 FFF7FEFF 		bl	nRF24_write_register
 995              	.LVL100:
 443:Generated_Source\PSoC4/nRF24_FUNCS.c **** 
 996              		.loc 1 443 0
 997              		@ sp needed
 998 000a 10BD     		pop	{r4, pc}
 999              		.cfi_endproc
ARM GAS  C:\Users\AFDHAL~1\AppData\Local\Temp\ccielSKc.s 			page 37


 1000              	.LFE59:
 1001              		.size	nRF24_set_rx_pipe_3_address, .-nRF24_set_rx_pipe_3_address
 1002              		.section	.text.nRF24_get_rx_pipe_3_address,"ax",%progbits
 1003              		.align	2
 1004              		.global	nRF24_get_rx_pipe_3_address
 1005              		.code	16
 1006              		.thumb_func
 1007              		.type	nRF24_get_rx_pipe_3_address, %function
 1008              	nRF24_get_rx_pipe_3_address:
 1009              	.LFB60:
 452:Generated_Source\PSoC4/nRF24_FUNCS.c ****     if (NULL == addr) {
 1010              		.loc 1 452 0
 1011              		.cfi_startproc
 1012              		@ args = 0, pretend = 0, frame = 0
 1013              		@ frame_needed = 0, uses_anonymous_args = 0
 1014              	.LVL101:
 1015 0000 70B5     		push	{r4, r5, r6, lr}
 1016              		.cfi_def_cfa_offset 16
 1017              		.cfi_offset 4, -16
 1018              		.cfi_offset 5, -12
 1019              		.cfi_offset 6, -8
 1020              		.cfi_offset 14, -4
 452:Generated_Source\PSoC4/nRF24_FUNCS.c ****     if (NULL == addr) {
 1021              		.loc 1 452 0
 1022 0002 051E     		subs	r5, r0, #0
 453:Generated_Source\PSoC4/nRF24_FUNCS.c ****         return;
 1023              		.loc 1 453 0
 1024 0004 0CD0     		beq	.L66
 1025              	.LVL102:
 462:Generated_Source\PSoC4/nRF24_FUNCS.c ****     addr[size - 1] = nRF24_read_register(NRF_RX_ADDR_P3_REG);
 1026              		.loc 1 462 0
 1027 0006 0529     		cmp	r1, #5
 1028 0008 0BD8     		bhi	.L72
 1029              	.LVL103:
 1030              	.L68:
 1031 000a 4C1E     		subs	r4, r1, #1
 1032 000c 2200     		movs	r2, r4
 1033 000e 2900     		movs	r1, r5
 1034 0010 0B20     		movs	r0, #11
 1035              	.LVL104:
 1036 0012 FFF7FEFF 		bl	nRF24_read_long_register
 1037              	.LVL105:
 463:Generated_Source\PSoC4/nRF24_FUNCS.c **** }
 1038              		.loc 1 463 0
 1039 0016 0D20     		movs	r0, #13
 1040 0018 FFF7FEFF 		bl	nRF24_read_register
 1041              	.LVL106:
 1042 001c 2C19     		adds	r4, r5, r4
 1043 001e 2070     		strb	r0, [r4]
 1044              	.LVL107:
 1045              	.L66:
 464:Generated_Source\PSoC4/nRF24_FUNCS.c **** 
 1046              		.loc 1 464 0
 1047              		@ sp needed
 1048              	.LVL108:
 1049 0020 70BD     		pop	{r4, r5, r6, pc}
 1050              	.LVL109:
ARM GAS  C:\Users\AFDHAL~1\AppData\Local\Temp\ccielSKc.s 			page 38


 1051              	.L72:
 462:Generated_Source\PSoC4/nRF24_FUNCS.c ****     addr[size - 1] = nRF24_read_register(NRF_RX_ADDR_P3_REG);
 1052              		.loc 1 462 0
 1053 0022 0521     		movs	r1, #5
 1054              	.LVL110:
 1055 0024 F1E7     		b	.L68
 1056              		.cfi_endproc
 1057              	.LFE60:
 1058              		.size	nRF24_get_rx_pipe_3_address, .-nRF24_get_rx_pipe_3_address
 1059 0026 C046     		.section	.text.nRF24_set_rx_pipe_4_address,"ax",%progbits
 1060              		.align	2
 1061              		.global	nRF24_set_rx_pipe_4_address
 1062              		.code	16
 1063              		.thumb_func
 1064              		.type	nRF24_set_rx_pipe_4_address, %function
 1065              	nRF24_set_rx_pipe_4_address:
 1066              	.LFB61:
 472:Generated_Source\PSoC4/nRF24_FUNCS.c ****     nRF24_write_register(NRF_RX_ADDR_P4_REG, addr_lsb);
 1067              		.loc 1 472 0
 1068              		.cfi_startproc
 1069              		@ args = 0, pretend = 0, frame = 0
 1070              		@ frame_needed = 0, uses_anonymous_args = 0
 1071              	.LVL111:
 1072 0000 10B5     		push	{r4, lr}
 1073              		.cfi_def_cfa_offset 8
 1074              		.cfi_offset 4, -8
 1075              		.cfi_offset 14, -4
 472:Generated_Source\PSoC4/nRF24_FUNCS.c ****     nRF24_write_register(NRF_RX_ADDR_P4_REG, addr_lsb);
 1076              		.loc 1 472 0
 1077 0002 0100     		movs	r1, r0
 473:Generated_Source\PSoC4/nRF24_FUNCS.c **** }
 1078              		.loc 1 473 0
 1079 0004 0E20     		movs	r0, #14
 1080              	.LVL112:
 1081 0006 FFF7FEFF 		bl	nRF24_write_register
 1082              	.LVL113:
 474:Generated_Source\PSoC4/nRF24_FUNCS.c **** 
 1083              		.loc 1 474 0
 1084              		@ sp needed
 1085 000a 10BD     		pop	{r4, pc}
 1086              		.cfi_endproc
 1087              	.LFE61:
 1088              		.size	nRF24_set_rx_pipe_4_address, .-nRF24_set_rx_pipe_4_address
 1089              		.section	.text.nRF24_get_rx_pipe_4_address,"ax",%progbits
 1090              		.align	2
 1091              		.global	nRF24_get_rx_pipe_4_address
 1092              		.code	16
 1093              		.thumb_func
 1094              		.type	nRF24_get_rx_pipe_4_address, %function
 1095              	nRF24_get_rx_pipe_4_address:
 1096              	.LFB62:
 483:Generated_Source\PSoC4/nRF24_FUNCS.c ****     if (NULL == addr) {
 1097              		.loc 1 483 0
 1098              		.cfi_startproc
 1099              		@ args = 0, pretend = 0, frame = 0
 1100              		@ frame_needed = 0, uses_anonymous_args = 0
 1101              	.LVL114:
ARM GAS  C:\Users\AFDHAL~1\AppData\Local\Temp\ccielSKc.s 			page 39


 1102 0000 70B5     		push	{r4, r5, r6, lr}
 1103              		.cfi_def_cfa_offset 16
 1104              		.cfi_offset 4, -16
 1105              		.cfi_offset 5, -12
 1106              		.cfi_offset 6, -8
 1107              		.cfi_offset 14, -4
 483:Generated_Source\PSoC4/nRF24_FUNCS.c ****     if (NULL == addr) {
 1108              		.loc 1 483 0
 1109 0002 051E     		subs	r5, r0, #0
 484:Generated_Source\PSoC4/nRF24_FUNCS.c ****         return;
 1110              		.loc 1 484 0
 1111 0004 0CD0     		beq	.L74
 1112              	.LVL115:
 493:Generated_Source\PSoC4/nRF24_FUNCS.c ****     addr[size - 1] = nRF24_read_register(NRF_RX_ADDR_P4_REG);
 1113              		.loc 1 493 0
 1114 0006 0529     		cmp	r1, #5
 1115 0008 0BD8     		bhi	.L80
 1116              	.LVL116:
 1117              	.L76:
 1118 000a 4C1E     		subs	r4, r1, #1
 1119 000c 2200     		movs	r2, r4
 1120 000e 2900     		movs	r1, r5
 1121 0010 0B20     		movs	r0, #11
 1122              	.LVL117:
 1123 0012 FFF7FEFF 		bl	nRF24_read_long_register
 1124              	.LVL118:
 494:Generated_Source\PSoC4/nRF24_FUNCS.c **** }
 1125              		.loc 1 494 0
 1126 0016 0E20     		movs	r0, #14
 1127 0018 FFF7FEFF 		bl	nRF24_read_register
 1128              	.LVL119:
 1129 001c 2C19     		adds	r4, r5, r4
 1130 001e 2070     		strb	r0, [r4]
 1131              	.LVL120:
 1132              	.L74:
 495:Generated_Source\PSoC4/nRF24_FUNCS.c **** 
 1133              		.loc 1 495 0
 1134              		@ sp needed
 1135              	.LVL121:
 1136 0020 70BD     		pop	{r4, r5, r6, pc}
 1137              	.LVL122:
 1138              	.L80:
 493:Generated_Source\PSoC4/nRF24_FUNCS.c ****     addr[size - 1] = nRF24_read_register(NRF_RX_ADDR_P4_REG);
 1139              		.loc 1 493 0
 1140 0022 0521     		movs	r1, #5
 1141              	.LVL123:
 1142 0024 F1E7     		b	.L76
 1143              		.cfi_endproc
 1144              	.LFE62:
 1145              		.size	nRF24_get_rx_pipe_4_address, .-nRF24_get_rx_pipe_4_address
 1146 0026 C046     		.section	.text.nRF24_set_rx_pipe_5_address,"ax",%progbits
 1147              		.align	2
 1148              		.global	nRF24_set_rx_pipe_5_address
 1149              		.code	16
 1150              		.thumb_func
 1151              		.type	nRF24_set_rx_pipe_5_address, %function
 1152              	nRF24_set_rx_pipe_5_address:
ARM GAS  C:\Users\AFDHAL~1\AppData\Local\Temp\ccielSKc.s 			page 40


 1153              	.LFB63:
 503:Generated_Source\PSoC4/nRF24_FUNCS.c ****     nRF24_write_register(NRF_RX_ADDR_P5_REG, addr_lsb);
 1154              		.loc 1 503 0
 1155              		.cfi_startproc
 1156              		@ args = 0, pretend = 0, frame = 0
 1157              		@ frame_needed = 0, uses_anonymous_args = 0
 1158              	.LVL124:
 1159 0000 10B5     		push	{r4, lr}
 1160              		.cfi_def_cfa_offset 8
 1161              		.cfi_offset 4, -8
 1162              		.cfi_offset 14, -4
 503:Generated_Source\PSoC4/nRF24_FUNCS.c ****     nRF24_write_register(NRF_RX_ADDR_P5_REG, addr_lsb);
 1163              		.loc 1 503 0
 1164 0002 0100     		movs	r1, r0
 504:Generated_Source\PSoC4/nRF24_FUNCS.c **** }
 1165              		.loc 1 504 0
 1166 0004 0F20     		movs	r0, #15
 1167              	.LVL125:
 1168 0006 FFF7FEFF 		bl	nRF24_write_register
 1169              	.LVL126:
 505:Generated_Source\PSoC4/nRF24_FUNCS.c **** 
 1170              		.loc 1 505 0
 1171              		@ sp needed
 1172 000a 10BD     		pop	{r4, pc}
 1173              		.cfi_endproc
 1174              	.LFE63:
 1175              		.size	nRF24_set_rx_pipe_5_address, .-nRF24_set_rx_pipe_5_address
 1176              		.section	.text.nRF24_get_rx_pipe_5_address,"ax",%progbits
 1177              		.align	2
 1178              		.global	nRF24_get_rx_pipe_5_address
 1179              		.code	16
 1180              		.thumb_func
 1181              		.type	nRF24_get_rx_pipe_5_address, %function
 1182              	nRF24_get_rx_pipe_5_address:
 1183              	.LFB64:
 514:Generated_Source\PSoC4/nRF24_FUNCS.c ****     if (NULL == addr) {
 1184              		.loc 1 514 0
 1185              		.cfi_startproc
 1186              		@ args = 0, pretend = 0, frame = 0
 1187              		@ frame_needed = 0, uses_anonymous_args = 0
 1188              	.LVL127:
 1189 0000 70B5     		push	{r4, r5, r6, lr}
 1190              		.cfi_def_cfa_offset 16
 1191              		.cfi_offset 4, -16
 1192              		.cfi_offset 5, -12
 1193              		.cfi_offset 6, -8
 1194              		.cfi_offset 14, -4
 514:Generated_Source\PSoC4/nRF24_FUNCS.c ****     if (NULL == addr) {
 1195              		.loc 1 514 0
 1196 0002 051E     		subs	r5, r0, #0
 515:Generated_Source\PSoC4/nRF24_FUNCS.c ****         return;
 1197              		.loc 1 515 0
 1198 0004 0CD0     		beq	.L82
 1199              	.LVL128:
 524:Generated_Source\PSoC4/nRF24_FUNCS.c ****     addr[size - 1] = nRF24_read_register(NRF_RX_ADDR_P5_REG);
 1200              		.loc 1 524 0
 1201 0006 0529     		cmp	r1, #5
ARM GAS  C:\Users\AFDHAL~1\AppData\Local\Temp\ccielSKc.s 			page 41


 1202 0008 0BD8     		bhi	.L88
 1203              	.LVL129:
 1204              	.L84:
 1205 000a 4C1E     		subs	r4, r1, #1
 1206 000c 2200     		movs	r2, r4
 1207 000e 2900     		movs	r1, r5
 1208 0010 0B20     		movs	r0, #11
 1209              	.LVL130:
 1210 0012 FFF7FEFF 		bl	nRF24_read_long_register
 1211              	.LVL131:
 525:Generated_Source\PSoC4/nRF24_FUNCS.c **** }
 1212              		.loc 1 525 0
 1213 0016 0F20     		movs	r0, #15
 1214 0018 FFF7FEFF 		bl	nRF24_read_register
 1215              	.LVL132:
 1216 001c 2C19     		adds	r4, r5, r4
 1217 001e 2070     		strb	r0, [r4]
 1218              	.LVL133:
 1219              	.L82:
 526:Generated_Source\PSoC4/nRF24_FUNCS.c **** 
 1220              		.loc 1 526 0
 1221              		@ sp needed
 1222              	.LVL134:
 1223 0020 70BD     		pop	{r4, r5, r6, pc}
 1224              	.LVL135:
 1225              	.L88:
 524:Generated_Source\PSoC4/nRF24_FUNCS.c ****     addr[size - 1] = nRF24_read_register(NRF_RX_ADDR_P5_REG);
 1226              		.loc 1 524 0
 1227 0022 0521     		movs	r1, #5
 1228              	.LVL136:
 1229 0024 F1E7     		b	.L84
 1230              		.cfi_endproc
 1231              	.LFE64:
 1232              		.size	nRF24_get_rx_pipe_5_address, .-nRF24_get_rx_pipe_5_address
 1233 0026 C046     		.section	.text.nRF24_set_tx_address,"ax",%progbits
 1234              		.align	2
 1235              		.global	nRF24_set_tx_address
 1236              		.code	16
 1237              		.thumb_func
 1238              		.type	nRF24_set_tx_address, %function
 1239              	nRF24_set_tx_address:
 1240              	.LFB65:
 535:Generated_Source\PSoC4/nRF24_FUNCS.c ****     if (NULL == addr) {
 1241              		.loc 1 535 0
 1242              		.cfi_startproc
 1243              		@ args = 0, pretend = 0, frame = 0
 1244              		@ frame_needed = 0, uses_anonymous_args = 0
 1245              	.LVL137:
 1246 0000 10B5     		push	{r4, lr}
 1247              		.cfi_def_cfa_offset 8
 1248              		.cfi_offset 4, -8
 1249              		.cfi_offset 14, -4
 536:Generated_Source\PSoC4/nRF24_FUNCS.c ****         return;
 1250              		.loc 1 536 0
 1251 0002 0028     		cmp	r0, #0
 1252 0004 06D0     		beq	.L89
 1253              	.LVL138:
ARM GAS  C:\Users\AFDHAL~1\AppData\Local\Temp\ccielSKc.s 			page 42


 544:Generated_Source\PSoC4/nRF24_FUNCS.c **** }
 1254              		.loc 1 544 0
 1255 0006 0A00     		movs	r2, r1
 1256 0008 0529     		cmp	r1, #5
 1257 000a 04D8     		bhi	.L95
 1258              	.L91:
 1259 000c 0100     		movs	r1, r0
 1260              	.LVL139:
 1261 000e 1020     		movs	r0, #16
 1262              	.LVL140:
 1263 0010 FFF7FEFF 		bl	nRF24_write_long_register
 1264              	.LVL141:
 1265              	.L89:
 545:Generated_Source\PSoC4/nRF24_FUNCS.c **** 
 1266              		.loc 1 545 0
 1267              		@ sp needed
 1268 0014 10BD     		pop	{r4, pc}
 1269              	.LVL142:
 1270              	.L95:
 544:Generated_Source\PSoC4/nRF24_FUNCS.c **** }
 1271              		.loc 1 544 0
 1272 0016 0522     		movs	r2, #5
 1273 0018 F8E7     		b	.L91
 1274              		.cfi_endproc
 1275              	.LFE65:
 1276              		.size	nRF24_set_tx_address, .-nRF24_set_tx_address
 1277 001a C046     		.section	.text.nRF24_get_tx_address,"ax",%progbits
 1278              		.align	2
 1279              		.global	nRF24_get_tx_address
 1280              		.code	16
 1281              		.thumb_func
 1282              		.type	nRF24_get_tx_address, %function
 1283              	nRF24_get_tx_address:
 1284              	.LFB66:
 554:Generated_Source\PSoC4/nRF24_FUNCS.c ****     if (NULL == addr) {
 1285              		.loc 1 554 0
 1286              		.cfi_startproc
 1287              		@ args = 0, pretend = 0, frame = 0
 1288              		@ frame_needed = 0, uses_anonymous_args = 0
 1289              	.LVL143:
 1290 0000 10B5     		push	{r4, lr}
 1291              		.cfi_def_cfa_offset 8
 1292              		.cfi_offset 4, -8
 1293              		.cfi_offset 14, -4
 555:Generated_Source\PSoC4/nRF24_FUNCS.c ****         return;
 1294              		.loc 1 555 0
 1295 0002 0028     		cmp	r0, #0
 1296 0004 06D0     		beq	.L96
 1297              	.LVL144:
 563:Generated_Source\PSoC4/nRF24_FUNCS.c **** }
 1298              		.loc 1 563 0
 1299 0006 0A00     		movs	r2, r1
 1300 0008 0529     		cmp	r1, #5
 1301 000a 04D8     		bhi	.L102
 1302              	.L98:
 1303 000c 0100     		movs	r1, r0
 1304              	.LVL145:
ARM GAS  C:\Users\AFDHAL~1\AppData\Local\Temp\ccielSKc.s 			page 43


 1305 000e 1020     		movs	r0, #16
 1306              	.LVL146:
 1307 0010 FFF7FEFF 		bl	nRF24_read_long_register
 1308              	.LVL147:
 1309              	.L96:
 564:Generated_Source\PSoC4/nRF24_FUNCS.c **** 
 1310              		.loc 1 564 0
 1311              		@ sp needed
 1312 0014 10BD     		pop	{r4, pc}
 1313              	.LVL148:
 1314              	.L102:
 563:Generated_Source\PSoC4/nRF24_FUNCS.c **** }
 1315              		.loc 1 563 0
 1316 0016 0522     		movs	r2, #5
 1317 0018 F8E7     		b	.L98
 1318              		.cfi_endproc
 1319              	.LFE66:
 1320              		.size	nRF24_get_tx_address, .-nRF24_get_tx_address
 1321 001a C046     		.section	.text.nRF24_set_payload_size,"ax",%progbits
 1322              		.align	2
 1323              		.global	nRF24_set_payload_size
 1324              		.code	16
 1325              		.thumb_func
 1326              		.type	nRF24_set_payload_size, %function
 1327              	nRF24_set_payload_size:
 1328              	.LFB67:
 575:Generated_Source\PSoC4/nRF24_FUNCS.c ****     if (NRF_MAX_PAYLOAD_SIZE < size) {
 1329              		.loc 1 575 0
 1330              		.cfi_startproc
 1331              		@ args = 0, pretend = 0, frame = 0
 1332              		@ frame_needed = 0, uses_anonymous_args = 0
 1333              	.LVL149:
 1334 0000 10B5     		push	{r4, lr}
 1335              		.cfi_def_cfa_offset 8
 1336              		.cfi_offset 4, -8
 1337              		.cfi_offset 14, -4
 580:Generated_Source\PSoC4/nRF24_FUNCS.c **** }
 1338              		.loc 1 580 0
 1339 0002 0B1C     		adds	r3, r1, #0
 1340 0004 2029     		cmp	r1, #32
 1341 0006 00D9     		bls	.L104
 1342 0008 2023     		movs	r3, #32
 1343              	.L104:
 1344 000a D9B2     		uxtb	r1, r3
 1345              	.LVL150:
 1346 000c FFF7FEFF 		bl	nRF24_write_register
 1347              	.LVL151:
 581:Generated_Source\PSoC4/nRF24_FUNCS.c **** 
 1348              		.loc 1 581 0
 1349              		@ sp needed
 1350 0010 10BD     		pop	{r4, pc}
 1351              		.cfi_endproc
 1352              	.LFE67:
 1353              		.size	nRF24_set_payload_size, .-nRF24_set_payload_size
 1354 0012 C046     		.section	.text.nRF24_get_payload_size,"ax",%progbits
 1355              		.align	2
 1356              		.global	nRF24_get_payload_size
ARM GAS  C:\Users\AFDHAL~1\AppData\Local\Temp\ccielSKc.s 			page 44


 1357              		.code	16
 1358              		.thumb_func
 1359              		.type	nRF24_get_payload_size, %function
 1360              	nRF24_get_payload_size:
 1361              	.LFB68:
 591:Generated_Source\PSoC4/nRF24_FUNCS.c ****     return nRF24_read_register(pipe);
 1362              		.loc 1 591 0
 1363              		.cfi_startproc
 1364              		@ args = 0, pretend = 0, frame = 0
 1365              		@ frame_needed = 0, uses_anonymous_args = 0
 1366              	.LVL152:
 1367 0000 10B5     		push	{r4, lr}
 1368              		.cfi_def_cfa_offset 8
 1369              		.cfi_offset 4, -8
 1370              		.cfi_offset 14, -4
 592:Generated_Source\PSoC4/nRF24_FUNCS.c **** }
 1371              		.loc 1 592 0
 1372 0002 FFF7FEFF 		bl	nRF24_read_register
 1373              	.LVL153:
 593:Generated_Source\PSoC4/nRF24_FUNCS.c **** 
 1374              		.loc 1 593 0
 1375              		@ sp needed
 1376 0006 10BD     		pop	{r4, pc}
 1377              		.cfi_endproc
 1378              	.LFE68:
 1379              		.size	nRF24_get_payload_size, .-nRF24_get_payload_size
 1380              		.section	.text.nRF24_reuse_last_transmitted_payload,"ax",%progbits
 1381              		.align	2
 1382              		.global	nRF24_reuse_last_transmitted_payload
 1383              		.code	16
 1384              		.thumb_func
 1385              		.type	nRF24_reuse_last_transmitted_payload, %function
 1386              	nRF24_reuse_last_transmitted_payload:
 1387              	.LFB69:
 602:Generated_Source\PSoC4/nRF24_FUNCS.c ****     nRF24_reuse_tx_payload_cmd();
 1388              		.loc 1 602 0
 1389              		.cfi_startproc
 1390              		@ args = 0, pretend = 0, frame = 0
 1391              		@ frame_needed = 0, uses_anonymous_args = 0
 1392 0000 10B5     		push	{r4, lr}
 1393              		.cfi_def_cfa_offset 8
 1394              		.cfi_offset 4, -8
 1395              		.cfi_offset 14, -4
 603:Generated_Source\PSoC4/nRF24_FUNCS.c ****     nRF24_transmit_pulse();
 1396              		.loc 1 603 0
 1397 0002 FFF7FEFF 		bl	nRF24_reuse_tx_payload_cmd
 1398              	.LVL154:
 1399              	.LBB40:
 1400              	.LBB41:
 749:Generated_Source\PSoC4/nRF24_FUNCS.c ****     CyDelayUs(NRF_CE_PULSE_WIDTH);
 1401              		.loc 1 749 0
 1402 0006 0120     		movs	r0, #1
 1403 0008 FFF7FEFF 		bl	CE_Write
 1404              	.LVL155:
 750:Generated_Source\PSoC4/nRF24_FUNCS.c ****     CE_Write(0);
 1405              		.loc 1 750 0
 1406 000c 0F20     		movs	r0, #15
ARM GAS  C:\Users\AFDHAL~1\AppData\Local\Temp\ccielSKc.s 			page 45


 1407 000e FFF7FEFF 		bl	CyDelayUs
 1408              	.LVL156:
 751:Generated_Source\PSoC4/nRF24_FUNCS.c **** #endif
 1409              		.loc 1 751 0
 1410 0012 0020     		movs	r0, #0
 1411 0014 FFF7FEFF 		bl	CE_Write
 1412              	.LVL157:
 1413              	.LBE41:
 1414              	.LBE40:
 605:Generated_Source\PSoC4/nRF24_FUNCS.c **** 
 1415              		.loc 1 605 0
 1416              		@ sp needed
 1417 0018 10BD     		pop	{r4, pc}
 1418              		.cfi_endproc
 1419              	.LFE69:
 1420              		.size	nRF24_reuse_last_transmitted_payload, .-nRF24_reuse_last_transmitted_payload
 1421 001a C046     		.section	.text.nRF24_enable_dynamic_payload,"ax",%progbits
 1422              		.align	2
 1423              		.global	nRF24_enable_dynamic_payload
 1424              		.code	16
 1425              		.thumb_func
 1426              		.type	nRF24_enable_dynamic_payload, %function
 1427              	nRF24_enable_dynamic_payload:
 1428              	.LFB70:
 613:Generated_Source\PSoC4/nRF24_FUNCS.c ****     nRF24_set_bit(NRF_EN_AA_REG, pipe);
 1429              		.loc 1 613 0
 1430              		.cfi_startproc
 1431              		@ args = 0, pretend = 0, frame = 0
 1432              		@ frame_needed = 0, uses_anonymous_args = 0
 1433              	.LVL158:
 1434 0000 10B5     		push	{r4, lr}
 1435              		.cfi_def_cfa_offset 8
 1436              		.cfi_offset 4, -8
 1437              		.cfi_offset 14, -4
 613:Generated_Source\PSoC4/nRF24_FUNCS.c ****     nRF24_set_bit(NRF_EN_AA_REG, pipe);
 1438              		.loc 1 613 0
 1439 0002 0400     		movs	r4, r0
 614:Generated_Source\PSoC4/nRF24_FUNCS.c ****     nRF24_set_bit(NRF_FEATURE_REG, NRF_FEATURE_EN_ACK_PAY);
 1440              		.loc 1 614 0
 1441 0004 0100     		movs	r1, r0
 1442 0006 0120     		movs	r0, #1
 1443              	.LVL159:
 1444 0008 FFF7FEFF 		bl	nRF24_set_bit
 1445              	.LVL160:
 615:Generated_Source\PSoC4/nRF24_FUNCS.c ****     nRF24_set_bit(NRF_FEATURE_REG, NRF_FEATURE_EN_DPL);
 1446              		.loc 1 615 0
 1447 000c 0121     		movs	r1, #1
 1448 000e 1D20     		movs	r0, #29
 1449 0010 FFF7FEFF 		bl	nRF24_set_bit
 1450              	.LVL161:
 616:Generated_Source\PSoC4/nRF24_FUNCS.c ****     nRF24_set_bit(NRF_DYNPD_REG, pipe);
 1451              		.loc 1 616 0
 1452 0014 0221     		movs	r1, #2
 1453 0016 1D20     		movs	r0, #29
 1454 0018 FFF7FEFF 		bl	nRF24_set_bit
 1455              	.LVL162:
 617:Generated_Source\PSoC4/nRF24_FUNCS.c **** }
ARM GAS  C:\Users\AFDHAL~1\AppData\Local\Temp\ccielSKc.s 			page 46


 1456              		.loc 1 617 0
 1457 001c 2100     		movs	r1, r4
 1458 001e 1C20     		movs	r0, #28
 1459 0020 FFF7FEFF 		bl	nRF24_set_bit
 1460              	.LVL163:
 618:Generated_Source\PSoC4/nRF24_FUNCS.c **** 
 1461              		.loc 1 618 0
 1462              		@ sp needed
 1463 0024 10BD     		pop	{r4, pc}
 1464              		.cfi_endproc
 1465              	.LFE70:
 1466              		.size	nRF24_enable_dynamic_payload, .-nRF24_enable_dynamic_payload
 1467 0026 C046     		.section	.text.nRF24_disable_dynamic_payload,"ax",%progbits
 1468              		.align	2
 1469              		.global	nRF24_disable_dynamic_payload
 1470              		.code	16
 1471              		.thumb_func
 1472              		.type	nRF24_disable_dynamic_payload, %function
 1473              	nRF24_disable_dynamic_payload:
 1474              	.LFB71:
 626:Generated_Source\PSoC4/nRF24_FUNCS.c ****     nRF24_clear_bit(NRF_EN_AA_REG, pipe);
 1475              		.loc 1 626 0
 1476              		.cfi_startproc
 1477              		@ args = 0, pretend = 0, frame = 0
 1478              		@ frame_needed = 0, uses_anonymous_args = 0
 1479              	.LVL164:
 1480 0000 10B5     		push	{r4, lr}
 1481              		.cfi_def_cfa_offset 8
 1482              		.cfi_offset 4, -8
 1483              		.cfi_offset 14, -4
 626:Generated_Source\PSoC4/nRF24_FUNCS.c ****     nRF24_clear_bit(NRF_EN_AA_REG, pipe);
 1484              		.loc 1 626 0
 1485 0002 0400     		movs	r4, r0
 627:Generated_Source\PSoC4/nRF24_FUNCS.c ****     nRF24_clear_bit(NRF_FEATURE_REG, NRF_FEATURE_EN_ACK_PAY);
 1486              		.loc 1 627 0
 1487 0004 0100     		movs	r1, r0
 1488 0006 0120     		movs	r0, #1
 1489              	.LVL165:
 1490 0008 FFF7FEFF 		bl	nRF24_clear_bit
 1491              	.LVL166:
 628:Generated_Source\PSoC4/nRF24_FUNCS.c ****     nRF24_clear_bit(NRF_FEATURE_REG, NRF_FEATURE_EN_DPL);
 1492              		.loc 1 628 0
 1493 000c 0121     		movs	r1, #1
 1494 000e 1D20     		movs	r0, #29
 1495 0010 FFF7FEFF 		bl	nRF24_clear_bit
 1496              	.LVL167:
 629:Generated_Source\PSoC4/nRF24_FUNCS.c ****     nRF24_clear_bit(NRF_DYNPD_REG, pipe);
 1497              		.loc 1 629 0
 1498 0014 0221     		movs	r1, #2
 1499 0016 1D20     		movs	r0, #29
 1500 0018 FFF7FEFF 		bl	nRF24_clear_bit
 1501              	.LVL168:
 630:Generated_Source\PSoC4/nRF24_FUNCS.c **** }
 1502              		.loc 1 630 0
 1503 001c 2100     		movs	r1, r4
 1504 001e 1C20     		movs	r0, #28
 1505 0020 FFF7FEFF 		bl	nRF24_clear_bit
ARM GAS  C:\Users\AFDHAL~1\AppData\Local\Temp\ccielSKc.s 			page 47


 1506              	.LVL169:
 631:Generated_Source\PSoC4/nRF24_FUNCS.c **** 
 1507              		.loc 1 631 0
 1508              		@ sp needed
 1509 0024 10BD     		pop	{r4, pc}
 1510              		.cfi_endproc
 1511              	.LFE71:
 1512              		.size	nRF24_disable_dynamic_payload, .-nRF24_disable_dynamic_payload
 1513 0026 C046     		.section	.text.nRF24_enable_dynamic_payload_length,"ax",%progbits
 1514              		.align	2
 1515              		.global	nRF24_enable_dynamic_payload_length
 1516              		.code	16
 1517              		.thumb_func
 1518              		.type	nRF24_enable_dynamic_payload_length, %function
 1519              	nRF24_enable_dynamic_payload_length:
 1520              	.LFB72:
 637:Generated_Source\PSoC4/nRF24_FUNCS.c ****     nRF24_set_bit(NRF_FEATURE_REG, NRF_FEATURE_EN_DPL);
 1521              		.loc 1 637 0
 1522              		.cfi_startproc
 1523              		@ args = 0, pretend = 0, frame = 0
 1524              		@ frame_needed = 0, uses_anonymous_args = 0
 1525 0000 10B5     		push	{r4, lr}
 1526              		.cfi_def_cfa_offset 8
 1527              		.cfi_offset 4, -8
 1528              		.cfi_offset 14, -4
 638:Generated_Source\PSoC4/nRF24_FUNCS.c **** }
 1529              		.loc 1 638 0
 1530 0002 0221     		movs	r1, #2
 1531 0004 1D20     		movs	r0, #29
 1532 0006 FFF7FEFF 		bl	nRF24_set_bit
 1533              	.LVL170:
 639:Generated_Source\PSoC4/nRF24_FUNCS.c **** 
 1534              		.loc 1 639 0
 1535              		@ sp needed
 1536 000a 10BD     		pop	{r4, pc}
 1537              		.cfi_endproc
 1538              	.LFE72:
 1539              		.size	nRF24_enable_dynamic_payload_length, .-nRF24_enable_dynamic_payload_length
 1540              		.section	.text.nRF24_disable_dynamic_payload_length,"ax",%progbits
 1541              		.align	2
 1542              		.global	nRF24_disable_dynamic_payload_length
 1543              		.code	16
 1544              		.thumb_func
 1545              		.type	nRF24_disable_dynamic_payload_length, %function
 1546              	nRF24_disable_dynamic_payload_length:
 1547              	.LFB73:
 645:Generated_Source\PSoC4/nRF24_FUNCS.c ****     nRF24_clear_bit(NRF_FEATURE_REG, NRF_FEATURE_EN_DPL);
 1548              		.loc 1 645 0
 1549              		.cfi_startproc
 1550              		@ args = 0, pretend = 0, frame = 0
 1551              		@ frame_needed = 0, uses_anonymous_args = 0
 1552 0000 10B5     		push	{r4, lr}
 1553              		.cfi_def_cfa_offset 8
 1554              		.cfi_offset 4, -8
 1555              		.cfi_offset 14, -4
 646:Generated_Source\PSoC4/nRF24_FUNCS.c **** }
 1556              		.loc 1 646 0
ARM GAS  C:\Users\AFDHAL~1\AppData\Local\Temp\ccielSKc.s 			page 48


 1557 0002 0221     		movs	r1, #2
 1558 0004 1D20     		movs	r0, #29
 1559 0006 FFF7FEFF 		bl	nRF24_clear_bit
 1560              	.LVL171:
 647:Generated_Source\PSoC4/nRF24_FUNCS.c **** 
 1561              		.loc 1 647 0
 1562              		@ sp needed
 1563 000a 10BD     		pop	{r4, pc}
 1564              		.cfi_endproc
 1565              	.LFE73:
 1566              		.size	nRF24_disable_dynamic_payload_length, .-nRF24_disable_dynamic_payload_length
 1567              		.section	.text.nRF24_enable_payload_with_ack,"ax",%progbits
 1568              		.align	2
 1569              		.global	nRF24_enable_payload_with_ack
 1570              		.code	16
 1571              		.thumb_func
 1572              		.type	nRF24_enable_payload_with_ack, %function
 1573              	nRF24_enable_payload_with_ack:
 1574              	.LFB74:
 653:Generated_Source\PSoC4/nRF24_FUNCS.c ****     nRF24_set_bit(NRF_FEATURE_REG, NRF_FEATURE_EN_ACK_PAY);
 1575              		.loc 1 653 0
 1576              		.cfi_startproc
 1577              		@ args = 0, pretend = 0, frame = 0
 1578              		@ frame_needed = 0, uses_anonymous_args = 0
 1579 0000 10B5     		push	{r4, lr}
 1580              		.cfi_def_cfa_offset 8
 1581              		.cfi_offset 4, -8
 1582              		.cfi_offset 14, -4
 654:Generated_Source\PSoC4/nRF24_FUNCS.c **** }
 1583              		.loc 1 654 0
 1584 0002 0121     		movs	r1, #1
 1585 0004 1D20     		movs	r0, #29
 1586 0006 FFF7FEFF 		bl	nRF24_set_bit
 1587              	.LVL172:
 655:Generated_Source\PSoC4/nRF24_FUNCS.c **** 
 1588              		.loc 1 655 0
 1589              		@ sp needed
 1590 000a 10BD     		pop	{r4, pc}
 1591              		.cfi_endproc
 1592              	.LFE74:
 1593              		.size	nRF24_enable_payload_with_ack, .-nRF24_enable_payload_with_ack
 1594              		.section	.text.nRF24_disable_payload_with_ack,"ax",%progbits
 1595              		.align	2
 1596              		.global	nRF24_disable_payload_with_ack
 1597              		.code	16
 1598              		.thumb_func
 1599              		.type	nRF24_disable_payload_with_ack, %function
 1600              	nRF24_disable_payload_with_ack:
 1601              	.LFB75:
 661:Generated_Source\PSoC4/nRF24_FUNCS.c ****     nRF24_clear_bit(NRF_FEATURE_REG, NRF_FEATURE_EN_ACK_PAY);
 1602              		.loc 1 661 0
 1603              		.cfi_startproc
 1604              		@ args = 0, pretend = 0, frame = 0
 1605              		@ frame_needed = 0, uses_anonymous_args = 0
 1606 0000 10B5     		push	{r4, lr}
 1607              		.cfi_def_cfa_offset 8
 1608              		.cfi_offset 4, -8
ARM GAS  C:\Users\AFDHAL~1\AppData\Local\Temp\ccielSKc.s 			page 49


 1609              		.cfi_offset 14, -4
 662:Generated_Source\PSoC4/nRF24_FUNCS.c **** }
 1610              		.loc 1 662 0
 1611 0002 0121     		movs	r1, #1
 1612 0004 1D20     		movs	r0, #29
 1613 0006 FFF7FEFF 		bl	nRF24_clear_bit
 1614              	.LVL173:
 663:Generated_Source\PSoC4/nRF24_FUNCS.c **** 
 1615              		.loc 1 663 0
 1616              		@ sp needed
 1617 000a 10BD     		pop	{r4, pc}
 1618              		.cfi_endproc
 1619              	.LFE75:
 1620              		.size	nRF24_disable_payload_with_ack, .-nRF24_disable_payload_with_ack
 1621              		.section	.text.nRF24_enable_payload_with_no_ack_cmd,"ax",%progbits
 1622              		.align	2
 1623              		.global	nRF24_enable_payload_with_no_ack_cmd
 1624              		.code	16
 1625              		.thumb_func
 1626              		.type	nRF24_enable_payload_with_no_ack_cmd, %function
 1627              	nRF24_enable_payload_with_no_ack_cmd:
 1628              	.LFB76:
 669:Generated_Source\PSoC4/nRF24_FUNCS.c ****     nRF24_set_bit(NRF_FEATURE_REG, NRF_FEATURE_EN_DYN_ACK);
 1629              		.loc 1 669 0
 1630              		.cfi_startproc
 1631              		@ args = 0, pretend = 0, frame = 0
 1632              		@ frame_needed = 0, uses_anonymous_args = 0
 1633 0000 10B5     		push	{r4, lr}
 1634              		.cfi_def_cfa_offset 8
 1635              		.cfi_offset 4, -8
 1636              		.cfi_offset 14, -4
 670:Generated_Source\PSoC4/nRF24_FUNCS.c **** }
 1637              		.loc 1 670 0
 1638 0002 0021     		movs	r1, #0
 1639 0004 1D20     		movs	r0, #29
 1640 0006 FFF7FEFF 		bl	nRF24_set_bit
 1641              	.LVL174:
 671:Generated_Source\PSoC4/nRF24_FUNCS.c **** 
 1642              		.loc 1 671 0
 1643              		@ sp needed
 1644 000a 10BD     		pop	{r4, pc}
 1645              		.cfi_endproc
 1646              	.LFE76:
 1647              		.size	nRF24_enable_payload_with_no_ack_cmd, .-nRF24_enable_payload_with_no_ack_cmd
 1648              		.section	.text.nRF24_disable_payload_with_no_ack_cmd,"ax",%progbits
 1649              		.align	2
 1650              		.global	nRF24_disable_payload_with_no_ack_cmd
 1651              		.code	16
 1652              		.thumb_func
 1653              		.type	nRF24_disable_payload_with_no_ack_cmd, %function
 1654              	nRF24_disable_payload_with_no_ack_cmd:
 1655              	.LFB77:
 677:Generated_Source\PSoC4/nRF24_FUNCS.c ****     nRF24_clear_bit(NRF_FEATURE_REG, NRF_FEATURE_EN_DYN_ACK);
 1656              		.loc 1 677 0
 1657              		.cfi_startproc
 1658              		@ args = 0, pretend = 0, frame = 0
 1659              		@ frame_needed = 0, uses_anonymous_args = 0
ARM GAS  C:\Users\AFDHAL~1\AppData\Local\Temp\ccielSKc.s 			page 50


 1660 0000 10B5     		push	{r4, lr}
 1661              		.cfi_def_cfa_offset 8
 1662              		.cfi_offset 4, -8
 1663              		.cfi_offset 14, -4
 678:Generated_Source\PSoC4/nRF24_FUNCS.c **** }
 1664              		.loc 1 678 0
 1665 0002 0021     		movs	r1, #0
 1666 0004 1D20     		movs	r0, #29
 1667 0006 FFF7FEFF 		bl	nRF24_clear_bit
 1668              	.LVL175:
 679:Generated_Source\PSoC4/nRF24_FUNCS.c **** 
 1669              		.loc 1 679 0
 1670              		@ sp needed
 1671 000a 10BD     		pop	{r4, pc}
 1672              		.cfi_endproc
 1673              	.LFE77:
 1674              		.size	nRF24_disable_payload_with_no_ack_cmd, .-nRF24_disable_payload_with_no_ack_cmd
 1675              		.section	.text.nRF24_start_listening,"ax",%progbits
 1676              		.align	2
 1677              		.global	nRF24_start_listening
 1678              		.code	16
 1679              		.thumb_func
 1680              		.type	nRF24_start_listening, %function
 1681              	nRF24_start_listening:
 1682              	.LFB78:
 705:Generated_Source\PSoC4/nRF24_FUNCS.c **** #if 0
 1683              		.loc 1 705 0
 1684              		.cfi_startproc
 1685              		@ args = 0, pretend = 0, frame = 0
 1686              		@ frame_needed = 0, uses_anonymous_args = 0
 1687 0000 10B5     		push	{r4, lr}
 1688              		.cfi_def_cfa_offset 8
 1689              		.cfi_offset 4, -8
 1690              		.cfi_offset 14, -4
 712:Generated_Source\PSoC4/nRF24_FUNCS.c ****     #endif
 1691              		.loc 1 712 0
 1692 0002 0120     		movs	r0, #1
 1693 0004 FFF7FEFF 		bl	CE_Write
 1694              	.LVL176:
 715:Generated_Source\PSoC4/nRF24_FUNCS.c **** 
 1695              		.loc 1 715 0
 1696              		@ sp needed
 1697 0008 10BD     		pop	{r4, pc}
 1698              		.cfi_endproc
 1699              	.LFE78:
 1700              		.size	nRF24_start_listening, .-nRF24_start_listening
 1701 000a C046     		.section	.text.nRF24_stop_listening,"ax",%progbits
 1702              		.align	2
 1703              		.global	nRF24_stop_listening
 1704              		.code	16
 1705              		.thumb_func
 1706              		.type	nRF24_stop_listening, %function
 1707              	nRF24_stop_listening:
 1708              	.LFB79:
 724:Generated_Source\PSoC4/nRF24_FUNCS.c **** #if 0
 1709              		.loc 1 724 0
 1710              		.cfi_startproc
ARM GAS  C:\Users\AFDHAL~1\AppData\Local\Temp\ccielSKc.s 			page 51


 1711              		@ args = 0, pretend = 0, frame = 0
 1712              		@ frame_needed = 0, uses_anonymous_args = 0
 1713 0000 10B5     		push	{r4, lr}
 1714              		.cfi_def_cfa_offset 8
 1715              		.cfi_offset 4, -8
 1716              		.cfi_offset 14, -4
 731:Generated_Source\PSoC4/nRF24_FUNCS.c ****     #endif
 1717              		.loc 1 731 0
 1718 0002 0020     		movs	r0, #0
 1719 0004 FFF7FEFF 		bl	CE_Write
 1720              	.LVL177:
 734:Generated_Source\PSoC4/nRF24_FUNCS.c **** 
 1721              		.loc 1 734 0
 1722              		@ sp needed
 1723 0008 10BD     		pop	{r4, pc}
 1724              		.cfi_endproc
 1725              	.LFE79:
 1726              		.size	nRF24_stop_listening, .-nRF24_stop_listening
 1727 000a C046     		.section	.text.nRF24_transmit_pulse,"ax",%progbits
 1728              		.align	2
 1729              		.global	nRF24_transmit_pulse
 1730              		.code	16
 1731              		.thumb_func
 1732              		.type	nRF24_transmit_pulse, %function
 1733              	nRF24_transmit_pulse:
 1734              	.LFB80:
 743:Generated_Source\PSoC4/nRF24_FUNCS.c **** #if defined(CY_GPIO_H)
 1735              		.loc 1 743 0
 1736              		.cfi_startproc
 1737              		@ args = 0, pretend = 0, frame = 0
 1738              		@ frame_needed = 0, uses_anonymous_args = 0
 1739 0000 10B5     		push	{r4, lr}
 1740              		.cfi_def_cfa_offset 8
 1741              		.cfi_offset 4, -8
 1742              		.cfi_offset 14, -4
 749:Generated_Source\PSoC4/nRF24_FUNCS.c ****     CyDelayUs(NRF_CE_PULSE_WIDTH);
 1743              		.loc 1 749 0
 1744 0002 0120     		movs	r0, #1
 1745 0004 FFF7FEFF 		bl	CE_Write
 1746              	.LVL178:
 750:Generated_Source\PSoC4/nRF24_FUNCS.c ****     CE_Write(0);
 1747              		.loc 1 750 0
 1748 0008 0F20     		movs	r0, #15
 1749 000a FFF7FEFF 		bl	CyDelayUs
 1750              	.LVL179:
 751:Generated_Source\PSoC4/nRF24_FUNCS.c **** #endif
 1751              		.loc 1 751 0
 1752 000e 0020     		movs	r0, #0
 1753 0010 FFF7FEFF 		bl	CE_Write
 1754              	.LVL180:
 753:Generated_Source\PSoC4/nRF24_FUNCS.c **** 
 1755              		.loc 1 753 0
 1756              		@ sp needed
 1757 0014 10BD     		pop	{r4, pc}
 1758              		.cfi_endproc
 1759              	.LFE80:
 1760              		.size	nRF24_transmit_pulse, .-nRF24_transmit_pulse
ARM GAS  C:\Users\AFDHAL~1\AppData\Local\Temp\ccielSKc.s 			page 52


 1761 0016 C046     		.section	.text.nRF24_get_status,"ax",%progbits
 1762              		.align	2
 1763              		.global	nRF24_get_status
 1764              		.code	16
 1765              		.thumb_func
 1766              		.type	nRF24_get_status, %function
 1767              	nRF24_get_status:
 1768              	.LFB81:
 761:Generated_Source\PSoC4/nRF24_FUNCS.c ****     return nRF24_nop_cmd();
 1769              		.loc 1 761 0
 1770              		.cfi_startproc
 1771              		@ args = 0, pretend = 0, frame = 0
 1772              		@ frame_needed = 0, uses_anonymous_args = 0
 1773 0000 10B5     		push	{r4, lr}
 1774              		.cfi_def_cfa_offset 8
 1775              		.cfi_offset 4, -8
 1776              		.cfi_offset 14, -4
 762:Generated_Source\PSoC4/nRF24_FUNCS.c **** }
 1777              		.loc 1 762 0
 1778 0002 FFF7FEFF 		bl	nRF24_nop_cmd
 1779              	.LVL181:
 763:Generated_Source\PSoC4/nRF24_FUNCS.c **** 
 1780              		.loc 1 763 0
 1781              		@ sp needed
 1782 0006 10BD     		pop	{r4, pc}
 1783              		.cfi_endproc
 1784              	.LFE81:
 1785              		.size	nRF24_get_status, .-nRF24_get_status
 1786              		.section	.text.nRF24_get_retransmissions_count,"ax",%progbits
 1787              		.align	2
 1788              		.global	nRF24_get_retransmissions_count
 1789              		.code	16
 1790              		.thumb_func
 1791              		.type	nRF24_get_retransmissions_count, %function
 1792              	nRF24_get_retransmissions_count:
 1793              	.LFB82:
 771:Generated_Source\PSoC4/nRF24_FUNCS.c ****     uint8_t count = nRF24_read_register(NRF_OBSERVE_TX_REG);
 1794              		.loc 1 771 0
 1795              		.cfi_startproc
 1796              		@ args = 0, pretend = 0, frame = 0
 1797              		@ frame_needed = 0, uses_anonymous_args = 0
 1798 0000 10B5     		push	{r4, lr}
 1799              		.cfi_def_cfa_offset 8
 1800              		.cfi_offset 4, -8
 1801              		.cfi_offset 14, -4
 772:Generated_Source\PSoC4/nRF24_FUNCS.c ****     return count & NRF_OBSERVE_TX_ARC_CNT_MASK;
 1802              		.loc 1 772 0
 1803 0002 0820     		movs	r0, #8
 1804 0004 FFF7FEFF 		bl	nRF24_read_register
 1805              	.LVL182:
 773:Generated_Source\PSoC4/nRF24_FUNCS.c **** }
 1806              		.loc 1 773 0
 1807 0008 0F23     		movs	r3, #15
 774:Generated_Source\PSoC4/nRF24_FUNCS.c **** 
 1808              		.loc 1 774 0
 1809              		@ sp needed
 773:Generated_Source\PSoC4/nRF24_FUNCS.c **** }
ARM GAS  C:\Users\AFDHAL~1\AppData\Local\Temp\ccielSKc.s 			page 53


 1810              		.loc 1 773 0
 1811 000a 1840     		ands	r0, r3
 1812              	.LVL183:
 774:Generated_Source\PSoC4/nRF24_FUNCS.c **** 
 1813              		.loc 1 774 0
 1814 000c 10BD     		pop	{r4, pc}
 1815              		.cfi_endproc
 1816              	.LFE82:
 1817              		.size	nRF24_get_retransmissions_count, .-nRF24_get_retransmissions_count
 1818 000e C046     		.section	.text.nRF24_get_lost_packets_count,"ax",%progbits
 1819              		.align	2
 1820              		.global	nRF24_get_lost_packets_count
 1821              		.code	16
 1822              		.thumb_func
 1823              		.type	nRF24_get_lost_packets_count, %function
 1824              	nRF24_get_lost_packets_count:
 1825              	.LFB83:
 782:Generated_Source\PSoC4/nRF24_FUNCS.c ****     uint8_t lostPackets = nRF24_read_register(NRF_OBSERVE_TX_REG);
 1826              		.loc 1 782 0
 1827              		.cfi_startproc
 1828              		@ args = 0, pretend = 0, frame = 0
 1829              		@ frame_needed = 0, uses_anonymous_args = 0
 1830 0000 10B5     		push	{r4, lr}
 1831              		.cfi_def_cfa_offset 8
 1832              		.cfi_offset 4, -8
 1833              		.cfi_offset 14, -4
 783:Generated_Source\PSoC4/nRF24_FUNCS.c ****     lostPackets = lostPackets & NRF_OBSERVE_TX_PLOS_CNT_MASK;
 1834              		.loc 1 783 0
 1835 0002 0820     		movs	r0, #8
 1836 0004 FFF7FEFF 		bl	nRF24_read_register
 1837              	.LVL184:
 785:Generated_Source\PSoC4/nRF24_FUNCS.c **** }
 1838              		.loc 1 785 0
 1839 0008 0009     		lsrs	r0, r0, #4
 1840              	.LVL185:
 1841 000a C0B2     		uxtb	r0, r0
 786:Generated_Source\PSoC4/nRF24_FUNCS.c **** 
 1842              		.loc 1 786 0
 1843              		@ sp needed
 1844 000c 10BD     		pop	{r4, pc}
 1845              		.cfi_endproc
 1846              	.LFE83:
 1847              		.size	nRF24_get_lost_packets_count, .-nRF24_get_lost_packets_count
 1848 000e C046     		.section	.text.nRF24_put_in_tx_fifo,"ax",%progbits
 1849              		.align	2
 1850              		.global	nRF24_put_in_tx_fifo
 1851              		.code	16
 1852              		.thumb_func
 1853              		.type	nRF24_put_in_tx_fifo, %function
 1854              	nRF24_put_in_tx_fifo:
 1855              	.LFB84:
 795:Generated_Source\PSoC4/nRF24_FUNCS.c ****     if (NULL == data) {
 1856              		.loc 1 795 0
 1857              		.cfi_startproc
 1858              		@ args = 0, pretend = 0, frame = 0
 1859              		@ frame_needed = 0, uses_anonymous_args = 0
 1860              	.LVL186:
ARM GAS  C:\Users\AFDHAL~1\AppData\Local\Temp\ccielSKc.s 			page 54


 1861 0000 10B5     		push	{r4, lr}
 1862              		.cfi_def_cfa_offset 8
 1863              		.cfi_offset 4, -8
 1864              		.cfi_offset 14, -4
 796:Generated_Source\PSoC4/nRF24_FUNCS.c ****         return;
 1865              		.loc 1 796 0
 1866 0002 0028     		cmp	r0, #0
 1867 0004 03D0     		beq	.L121
 1868              	.LVL187:
 804:Generated_Source\PSoC4/nRF24_FUNCS.c **** }
 1869              		.loc 1 804 0
 1870 0006 2029     		cmp	r1, #32
 1871 0008 02D8     		bhi	.L127
 1872              	.LVL188:
 1873              	.L123:
 1874 000a FFF7FEFF 		bl	nRF24_write_tx_payload_cmd
 1875              	.LVL189:
 1876              	.L121:
 805:Generated_Source\PSoC4/nRF24_FUNCS.c **** 
 1877              		.loc 1 805 0
 1878              		@ sp needed
 1879 000e 10BD     		pop	{r4, pc}
 1880              	.LVL190:
 1881              	.L127:
 804:Generated_Source\PSoC4/nRF24_FUNCS.c **** }
 1882              		.loc 1 804 0
 1883 0010 2021     		movs	r1, #32
 1884              	.LVL191:
 1885 0012 FAE7     		b	.L123
 1886              		.cfi_endproc
 1887              	.LFE84:
 1888              		.size	nRF24_put_in_tx_fifo, .-nRF24_put_in_tx_fifo
 1889              		.section	.text.nRF24_transmit,"ax",%progbits
 1890              		.align	2
 1891              		.global	nRF24_transmit
 1892              		.code	16
 1893              		.thumb_func
 1894              		.type	nRF24_transmit, %function
 1895              	nRF24_transmit:
 1896              	.LFB85:
 814:Generated_Source\PSoC4/nRF24_FUNCS.c ****     if (NULL == data) {
 1897              		.loc 1 814 0
 1898              		.cfi_startproc
 1899              		@ args = 0, pretend = 0, frame = 0
 1900              		@ frame_needed = 0, uses_anonymous_args = 0
 1901              	.LVL192:
 1902 0000 10B5     		push	{r4, lr}
 1903              		.cfi_def_cfa_offset 8
 1904              		.cfi_offset 4, -8
 1905              		.cfi_offset 14, -4
 815:Generated_Source\PSoC4/nRF24_FUNCS.c ****         return;
 1906              		.loc 1 815 0
 1907 0002 0028     		cmp	r0, #0
 1908 0004 0CD0     		beq	.L128
 1909              	.LVL193:
 1910              	.LBB46:
 1911              	.LBB47:
ARM GAS  C:\Users\AFDHAL~1\AppData\Local\Temp\ccielSKc.s 			page 55


 804:Generated_Source\PSoC4/nRF24_FUNCS.c **** }
 1912              		.loc 1 804 0
 1913 0006 2029     		cmp	r1, #32
 1914 0008 0BD8     		bhi	.L134
 1915              	.LVL194:
 1916              	.L130:
 1917 000a FFF7FEFF 		bl	nRF24_write_tx_payload_cmd
 1918              	.LVL195:
 1919              	.LBE47:
 1920              	.LBE46:
 1921              	.LBB49:
 1922              	.LBB50:
 749:Generated_Source\PSoC4/nRF24_FUNCS.c ****     CyDelayUs(NRF_CE_PULSE_WIDTH);
 1923              		.loc 1 749 0
 1924 000e 0120     		movs	r0, #1
 1925 0010 FFF7FEFF 		bl	CE_Write
 1926              	.LVL196:
 750:Generated_Source\PSoC4/nRF24_FUNCS.c ****     CE_Write(0);
 1927              		.loc 1 750 0
 1928 0014 0F20     		movs	r0, #15
 1929 0016 FFF7FEFF 		bl	CyDelayUs
 1930              	.LVL197:
 751:Generated_Source\PSoC4/nRF24_FUNCS.c **** #endif
 1931              		.loc 1 751 0
 1932 001a 0020     		movs	r0, #0
 1933 001c FFF7FEFF 		bl	CE_Write
 1934              	.LVL198:
 1935              	.L128:
 1936              	.LBE50:
 1937              	.LBE49:
 825:Generated_Source\PSoC4/nRF24_FUNCS.c **** 
 1938              		.loc 1 825 0
 1939              		@ sp needed
 1940 0020 10BD     		pop	{r4, pc}
 1941              	.LVL199:
 1942              	.L134:
 1943              	.LBB51:
 1944              	.LBB48:
 804:Generated_Source\PSoC4/nRF24_FUNCS.c **** }
 1945              		.loc 1 804 0
 1946 0022 2021     		movs	r1, #32
 1947              	.LVL200:
 1948 0024 F1E7     		b	.L130
 1949              	.LBE48:
 1950              	.LBE51:
 1951              		.cfi_endproc
 1952              	.LFE85:
 1953              		.size	nRF24_transmit, .-nRF24_transmit
 1954 0026 C046     		.section	.text.nRF24_is_data_ready,"ax",%progbits
 1955              		.align	2
 1956              		.global	nRF24_is_data_ready
 1957              		.code	16
 1958              		.thumb_func
 1959              		.type	nRF24_is_data_ready, %function
 1960              	nRF24_is_data_ready:
 1961              	.LFB86:
 833:Generated_Source\PSoC4/nRF24_FUNCS.c ****     return NRF_STATUS_RX_DR_MASK & nRF24_get_status();
ARM GAS  C:\Users\AFDHAL~1\AppData\Local\Temp\ccielSKc.s 			page 56


 1962              		.loc 1 833 0
 1963              		.cfi_startproc
 1964              		@ args = 0, pretend = 0, frame = 0
 1965              		@ frame_needed = 0, uses_anonymous_args = 0
 1966 0000 10B5     		push	{r4, lr}
 1967              		.cfi_def_cfa_offset 8
 1968              		.cfi_offset 4, -8
 1969              		.cfi_offset 14, -4
 1970              	.LBB52:
 1971              	.LBB53:
 762:Generated_Source\PSoC4/nRF24_FUNCS.c **** }
 1972              		.loc 1 762 0
 1973 0002 FFF7FEFF 		bl	nRF24_nop_cmd
 1974              	.LVL201:
 1975              	.LBE53:
 1976              	.LBE52:
 834:Generated_Source\PSoC4/nRF24_FUNCS.c **** }
 1977              		.loc 1 834 0
 1978 0006 4006     		lsls	r0, r0, #25
 1979 0008 C00F     		lsrs	r0, r0, #31
 835:Generated_Source\PSoC4/nRF24_FUNCS.c **** 
 1980              		.loc 1 835 0
 1981              		@ sp needed
 1982 000a 10BD     		pop	{r4, pc}
 1983              		.cfi_endproc
 1984              	.LFE86:
 1985              		.size	nRF24_is_data_ready, .-nRF24_is_data_ready
 1986              		.section	.text.nRF24_get_rx_payload,"ax",%progbits
 1987              		.align	2
 1988              		.global	nRF24_get_rx_payload
 1989              		.code	16
 1990              		.thumb_func
 1991              		.type	nRF24_get_rx_payload, %function
 1992              	nRF24_get_rx_payload:
 1993              	.LFB87:
 844:Generated_Source\PSoC4/nRF24_FUNCS.c ****     if (NULL == data) {
 1994              		.loc 1 844 0
 1995              		.cfi_startproc
 1996              		@ args = 0, pretend = 0, frame = 0
 1997              		@ frame_needed = 0, uses_anonymous_args = 0
 1998              	.LVL202:
 1999 0000 70B5     		push	{r4, r5, r6, lr}
 2000              		.cfi_def_cfa_offset 16
 2001              		.cfi_offset 4, -16
 2002              		.cfi_offset 5, -12
 2003              		.cfi_offset 6, -8
 2004              		.cfi_offset 14, -4
 844:Generated_Source\PSoC4/nRF24_FUNCS.c ****     if (NULL == data) {
 2005              		.loc 1 844 0
 2006 0002 0400     		movs	r4, r0
 2007 0004 0D00     		movs	r5, r1
 845:Generated_Source\PSoC4/nRF24_FUNCS.c ****         return;
 2008              		.loc 1 845 0
 2009 0006 0028     		cmp	r0, #0
 2010 0008 09D0     		beq	.L136
 853:Generated_Source\PSoC4/nRF24_FUNCS.c ****     nRF24_read_rx_payload_cmd(data, size);
 2011              		.loc 1 853 0
ARM GAS  C:\Users\AFDHAL~1\AppData\Local\Temp\ccielSKc.s 			page 57


 2012 000a 0020     		movs	r0, #0
 2013              	.LVL203:
 2014 000c FFF7FEFF 		bl	CE_Write
 2015              	.LVL204:
 854:Generated_Source\PSoC4/nRF24_FUNCS.c ****     CE_Write(1);
 2016              		.loc 1 854 0
 2017 0010 2000     		movs	r0, r4
 2018 0012 2900     		movs	r1, r5
 2019 0014 FFF7FEFF 		bl	nRF24_read_rx_payload_cmd
 2020              	.LVL205:
 855:Generated_Source\PSoC4/nRF24_FUNCS.c **** #endif
 2021              		.loc 1 855 0
 2022 0018 0120     		movs	r0, #1
 2023 001a FFF7FEFF 		bl	CE_Write
 2024              	.LVL206:
 2025              	.L136:
 857:Generated_Source\PSoC4/nRF24_FUNCS.c **** 
 2026              		.loc 1 857 0
 2027              		@ sp needed
 2028              	.LVL207:
 2029              	.LVL208:
 2030 001e 70BD     		pop	{r4, r5, r6, pc}
 2031              		.cfi_endproc
 2032              	.LFE87:
 2033              		.size	nRF24_get_rx_payload, .-nRF24_get_rx_payload
 2034              		.section	.text.nRF24_tx_transmit_wait_no_ack,"ax",%progbits
 2035              		.align	2
 2036              		.global	nRF24_tx_transmit_wait_no_ack
 2037              		.code	16
 2038              		.thumb_func
 2039              		.type	nRF24_tx_transmit_wait_no_ack, %function
 2040              	nRF24_tx_transmit_wait_no_ack:
 2041              	.LFB88:
 866:Generated_Source\PSoC4/nRF24_FUNCS.c ****     if (NULL == data) {
 2042              		.loc 1 866 0
 2043              		.cfi_startproc
 2044              		@ args = 0, pretend = 0, frame = 0
 2045              		@ frame_needed = 0, uses_anonymous_args = 0
 2046              	.LVL209:
 2047 0000 10B5     		push	{r4, lr}
 2048              		.cfi_def_cfa_offset 8
 2049              		.cfi_offset 4, -8
 2050              		.cfi_offset 14, -4
 867:Generated_Source\PSoC4/nRF24_FUNCS.c ****         return;
 2051              		.loc 1 867 0
 2052 0002 0028     		cmp	r0, #0
 2053 0004 0CD0     		beq	.L141
 871:Generated_Source\PSoC4/nRF24_FUNCS.c ****         return;
 2054              		.loc 1 871 0
 2055 0006 2029     		cmp	r1, #32
 2056 0008 0AD8     		bhi	.L141
 875:Generated_Source\PSoC4/nRF24_FUNCS.c ****     nRF24_transmit_pulse();
 2057              		.loc 1 875 0
 2058 000a FFF7FEFF 		bl	nRF24_no_ack_payload_cmd
 2059              	.LVL210:
 2060              	.LBB56:
 2061              	.LBB57:
ARM GAS  C:\Users\AFDHAL~1\AppData\Local\Temp\ccielSKc.s 			page 58


 749:Generated_Source\PSoC4/nRF24_FUNCS.c ****     CyDelayUs(NRF_CE_PULSE_WIDTH);
 2062              		.loc 1 749 0
 2063 000e 0120     		movs	r0, #1
 2064 0010 FFF7FEFF 		bl	CE_Write
 2065              	.LVL211:
 750:Generated_Source\PSoC4/nRF24_FUNCS.c ****     CE_Write(0);
 2066              		.loc 1 750 0
 2067 0014 0F20     		movs	r0, #15
 2068 0016 FFF7FEFF 		bl	CyDelayUs
 2069              	.LVL212:
 751:Generated_Source\PSoC4/nRF24_FUNCS.c **** #endif
 2070              		.loc 1 751 0
 2071 001a 0020     		movs	r0, #0
 2072 001c FFF7FEFF 		bl	CE_Write
 2073              	.LVL213:
 2074              	.L141:
 2075              	.LBE57:
 2076              	.LBE56:
 877:Generated_Source\PSoC4/nRF24_FUNCS.c **** 
 2077              		.loc 1 877 0
 2078              		@ sp needed
 2079 0020 10BD     		pop	{r4, pc}
 2080              		.cfi_endproc
 2081              	.LFE88:
 2082              		.size	nRF24_tx_transmit_wait_no_ack, .-nRF24_tx_transmit_wait_no_ack
 2083 0022 C046     		.section	.text.nRF24_rx_write_payload,"ax",%progbits
 2084              		.align	2
 2085              		.global	nRF24_rx_write_payload
 2086              		.code	16
 2087              		.thumb_func
 2088              		.type	nRF24_rx_write_payload, %function
 2089              	nRF24_rx_write_payload:
 2090              	.LFB89:
 888:Generated_Source\PSoC4/nRF24_FUNCS.c ****     if (NULL == data) {
 2091              		.loc 1 888 0
 2092              		.cfi_startproc
 2093              		@ args = 0, pretend = 0, frame = 0
 2094              		@ frame_needed = 0, uses_anonymous_args = 0
 2095              	.LVL214:
 2096 0000 10B5     		push	{r4, lr}
 2097              		.cfi_def_cfa_offset 8
 2098              		.cfi_offset 4, -8
 2099              		.cfi_offset 14, -4
 889:Generated_Source\PSoC4/nRF24_FUNCS.c ****         return;
 2100              		.loc 1 889 0
 2101 0002 0029     		cmp	r1, #0
 2102 0004 03D0     		beq	.L146
 2103              	.LVL215:
 897:Generated_Source\PSoC4/nRF24_FUNCS.c **** }
 2104              		.loc 1 897 0
 2105 0006 202A     		cmp	r2, #32
 2106 0008 02D8     		bhi	.L152
 2107              	.LVL216:
 2108              	.L148:
 2109 000a FFF7FEFF 		bl	nRF24_write_ack_payload_cmd
 2110              	.LVL217:
 2111              	.L146:
ARM GAS  C:\Users\AFDHAL~1\AppData\Local\Temp\ccielSKc.s 			page 59


 898:Generated_Source\PSoC4/nRF24_FUNCS.c **** 
 2112              		.loc 1 898 0
 2113              		@ sp needed
 2114 000e 10BD     		pop	{r4, pc}
 2115              	.LVL218:
 2116              	.L152:
 897:Generated_Source\PSoC4/nRF24_FUNCS.c **** }
 2117              		.loc 1 897 0
 2118 0010 2022     		movs	r2, #32
 2119              	.LVL219:
 2120 0012 FAE7     		b	.L148
 2121              		.cfi_endproc
 2122              	.LFE89:
 2123              		.size	nRF24_rx_write_payload, .-nRF24_rx_write_payload
 2124              		.section	.text.nRF24_get_data_pipe_with_payload,"ax",%progbits
 2125              		.align	2
 2126              		.global	nRF24_get_data_pipe_with_payload
 2127              		.code	16
 2128              		.thumb_func
 2129              		.type	nRF24_get_data_pipe_with_payload, %function
 2130              	nRF24_get_data_pipe_with_payload:
 2131              	.LFB90:
 906:Generated_Source\PSoC4/nRF24_FUNCS.c ****     uint8_t pipe = nRF24_read_register(NRF_STATUS_REG);
 2132              		.loc 1 906 0
 2133              		.cfi_startproc
 2134              		@ args = 0, pretend = 0, frame = 0
 2135              		@ frame_needed = 0, uses_anonymous_args = 0
 2136 0000 10B5     		push	{r4, lr}
 2137              		.cfi_def_cfa_offset 8
 2138              		.cfi_offset 4, -8
 2139              		.cfi_offset 14, -4
 907:Generated_Source\PSoC4/nRF24_FUNCS.c ****     return (pipe & NRF_STATUS_PIPES_MASK) >> NRF_STATUS_PIPES_SHIFT;
 2140              		.loc 1 907 0
 2141 0002 0720     		movs	r0, #7
 2142 0004 FFF7FEFF 		bl	nRF24_read_register
 2143              	.LVL220:
 908:Generated_Source\PSoC4/nRF24_FUNCS.c **** }
 2144              		.loc 1 908 0
 2145 0008 0007     		lsls	r0, r0, #28
 2146              	.LVL221:
 2147 000a 400F     		lsrs	r0, r0, #29
 909:Generated_Source\PSoC4/nRF24_FUNCS.c **** 
 2148              		.loc 1 909 0
 2149              		@ sp needed
 2150 000c 10BD     		pop	{r4, pc}
 2151              		.cfi_endproc
 2152              	.LFE90:
 2153              		.size	nRF24_get_data_pipe_with_payload, .-nRF24_get_data_pipe_with_payload
 2154 000e C046     		.section	.text.nRF24_received_power_detector,"ax",%progbits
 2155              		.align	2
 2156              		.global	nRF24_received_power_detector
 2157              		.code	16
 2158              		.thumb_func
 2159              		.type	nRF24_received_power_detector, %function
 2160              	nRF24_received_power_detector:
 2161              	.LFB91:
 917:Generated_Source\PSoC4/nRF24_FUNCS.c ****     return nRF24_read_bit(NRF_RPD_REG, NRF_RPD_RPD);
ARM GAS  C:\Users\AFDHAL~1\AppData\Local\Temp\ccielSKc.s 			page 60


 2162              		.loc 1 917 0
 2163              		.cfi_startproc
 2164              		@ args = 0, pretend = 0, frame = 0
 2165              		@ frame_needed = 0, uses_anonymous_args = 0
 2166 0000 10B5     		push	{r4, lr}
 2167              		.cfi_def_cfa_offset 8
 2168              		.cfi_offset 4, -8
 2169              		.cfi_offset 14, -4
 918:Generated_Source\PSoC4/nRF24_FUNCS.c **** }
 2170              		.loc 1 918 0
 2171 0002 0021     		movs	r1, #0
 2172 0004 0920     		movs	r0, #9
 2173 0006 FFF7FEFF 		bl	nRF24_read_bit
 2174              	.LVL222:
 919:Generated_Source\PSoC4/nRF24_FUNCS.c **** 
 2175              		.loc 1 919 0
 2176              		@ sp needed
 2177 000a 10BD     		pop	{r4, pc}
 2178              		.cfi_endproc
 2179              	.LFE91:
 2180              		.size	nRF24_received_power_detector, .-nRF24_received_power_detector
 2181              		.section	.text.nRF24_is_tx_fifo_full,"ax",%progbits
 2182              		.align	2
 2183              		.global	nRF24_is_tx_fifo_full
 2184              		.code	16
 2185              		.thumb_func
 2186              		.type	nRF24_is_tx_fifo_full, %function
 2187              	nRF24_is_tx_fifo_full:
 2188              	.LFB92:
 926:Generated_Source\PSoC4/nRF24_FUNCS.c ****     return nRF24_read_bit(NRF_FIFO_STATUS_REG, NRF_FIFO_STATUS_TX_FULL);
 2189              		.loc 1 926 0
 2190              		.cfi_startproc
 2191              		@ args = 0, pretend = 0, frame = 0
 2192              		@ frame_needed = 0, uses_anonymous_args = 0
 2193 0000 10B5     		push	{r4, lr}
 2194              		.cfi_def_cfa_offset 8
 2195              		.cfi_offset 4, -8
 2196              		.cfi_offset 14, -4
 927:Generated_Source\PSoC4/nRF24_FUNCS.c **** }
 2197              		.loc 1 927 0
 2198 0002 0521     		movs	r1, #5
 2199 0004 1720     		movs	r0, #23
 2200 0006 FFF7FEFF 		bl	nRF24_read_bit
 2201              	.LVL223:
 928:Generated_Source\PSoC4/nRF24_FUNCS.c **** 
 2202              		.loc 1 928 0
 2203              		@ sp needed
 2204 000a 10BD     		pop	{r4, pc}
 2205              		.cfi_endproc
 2206              	.LFE92:
 2207              		.size	nRF24_is_tx_fifo_full, .-nRF24_is_tx_fifo_full
 2208              		.section	.text.nRF24_is_rx_fifo_empty,"ax",%progbits
 2209              		.align	2
 2210              		.global	nRF24_is_rx_fifo_empty
 2211              		.code	16
 2212              		.thumb_func
 2213              		.type	nRF24_is_rx_fifo_empty, %function
ARM GAS  C:\Users\AFDHAL~1\AppData\Local\Temp\ccielSKc.s 			page 61


 2214              	nRF24_is_rx_fifo_empty:
 2215              	.LFB93:
 934:Generated_Source\PSoC4/nRF24_FUNCS.c ****     return nRF24_read_bit(NRF_FIFO_STATUS_REG, NRF_FIFO_STATUS_RX_EMPTY);
 2216              		.loc 1 934 0
 2217              		.cfi_startproc
 2218              		@ args = 0, pretend = 0, frame = 0
 2219              		@ frame_needed = 0, uses_anonymous_args = 0
 2220 0000 10B5     		push	{r4, lr}
 2221              		.cfi_def_cfa_offset 8
 2222              		.cfi_offset 4, -8
 2223              		.cfi_offset 14, -4
 935:Generated_Source\PSoC4/nRF24_FUNCS.c **** }
 2224              		.loc 1 935 0
 2225 0002 0021     		movs	r1, #0
 2226 0004 1720     		movs	r0, #23
 2227 0006 FFF7FEFF 		bl	nRF24_read_bit
 2228              	.LVL224:
 936:Generated_Source\PSoC4/nRF24_FUNCS.c **** 
 2229              		.loc 1 936 0
 2230              		@ sp needed
 2231 000a 10BD     		pop	{r4, pc}
 2232              		.cfi_endproc
 2233              	.LFE93:
 2234              		.size	nRF24_is_rx_fifo_empty, .-nRF24_is_rx_fifo_empty
 2235              		.section	.text.nRF24_clear_all_irqs,"ax",%progbits
 2236              		.align	2
 2237              		.global	nRF24_clear_all_irqs
 2238              		.code	16
 2239              		.thumb_func
 2240              		.type	nRF24_clear_all_irqs, %function
 2241              	nRF24_clear_all_irqs:
 2242              	.LFB94:
 943:Generated_Source\PSoC4/nRF24_FUNCS.c ****     nRF24_write_register(NRF_STATUS_REG, NRF_ALL_IRQ_MASK);
 2243              		.loc 1 943 0
 2244              		.cfi_startproc
 2245              		@ args = 0, pretend = 0, frame = 0
 2246              		@ frame_needed = 0, uses_anonymous_args = 0
 2247 0000 10B5     		push	{r4, lr}
 2248              		.cfi_def_cfa_offset 8
 2249              		.cfi_offset 4, -8
 2250              		.cfi_offset 14, -4
 2251              		.loc 1 944 0
 2252 0002 7021     		movs	r1, #112
 2253 0004 0720     		movs	r0, #7
 2254 0006 FFF7FEFF 		bl	nRF24_write_register
 2255              	.LVL225:
 945:Generated_Source\PSoC4/nRF24_FUNCS.c **** }
 2256              		.loc 1 945 0
 2257              		@ sp needed
 2258 000a 10BD     		pop	{r4, pc}
 2259              		.cfi_endproc
 2260              	.LFE94:
 2261              		.size	nRF24_clear_all_irqs, .-nRF24_clear_all_irqs
 2262              		.section	.text.nRF24_clear_irq_flag,"ax",%progbits
 2263              		.align	2
 2264              		.global	nRF24_clear_irq_flag
 2265              		.code	16
ARM GAS  C:\Users\AFDHAL~1\AppData\Local\Temp\ccielSKc.s 			page 62


 2266              		.thumb_func
 2267              		.type	nRF24_clear_irq_flag, %function
 2268              	nRF24_clear_irq_flag:
 2269              	.LFB95:
 946:Generated_Source\PSoC4/nRF24_FUNCS.c **** 
 947:Generated_Source\PSoC4/nRF24_FUNCS.c **** /**
 948:Generated_Source\PSoC4/nRF24_FUNCS.c ****  * @brief Clears the specific IRQ flag.
 949:Generated_Source\PSoC4/nRF24_FUNCS.c ****  *
 950:Generated_Source\PSoC4/nRF24_FUNCS.c ****  * Clear the flag by writing 1 to the interrupt flag bit.
 951:Generated_Source\PSoC4/nRF24_FUNCS.c ****  *
 952:Generated_Source\PSoC4/nRF24_FUNCS.c ****  * @param nrf_irq irq_flag: Interrupt flag to clear.
 953:Generated_Source\PSoC4/nRF24_FUNCS.c ****  */
 954:Generated_Source\PSoC4/nRF24_FUNCS.c **** void nRF24_clear_irq_flag(const nrf_irq irq_flag)
 955:Generated_Source\PSoC4/nRF24_FUNCS.c **** {
 2270              		.loc 1 955 0
 2271              		.cfi_startproc
 2272              		@ args = 0, pretend = 0, frame = 0
 2273              		@ frame_needed = 0, uses_anonymous_args = 0
 2274              	.LVL226:
 956:Generated_Source\PSoC4/nRF24_FUNCS.c ****     nRF24_write_register(NRF_STATUS_REG, (1 << irq_flag));
 2275              		.loc 1 956 0
 2276 0000 0121     		movs	r1, #1
 2277 0002 8140     		lsls	r1, r1, r0
 955:Generated_Source\PSoC4/nRF24_FUNCS.c ****     nRF24_write_register(NRF_STATUS_REG, (1 << irq_flag));
 2278              		.loc 1 955 0
 2279 0004 10B5     		push	{r4, lr}
 2280              		.cfi_def_cfa_offset 8
 2281              		.cfi_offset 4, -8
 2282              		.cfi_offset 14, -4
 2283              		.loc 1 956 0
 2284 0006 C9B2     		uxtb	r1, r1
 2285 0008 0720     		movs	r0, #7
 2286              	.LVL227:
 2287 000a FFF7FEFF 		bl	nRF24_write_register
 2288              	.LVL228:
 957:Generated_Source\PSoC4/nRF24_FUNCS.c **** }
 2289              		.loc 1 957 0
 2290              		@ sp needed
 2291 000e 10BD     		pop	{r4, pc}
 2292              		.cfi_endproc
 2293              	.LFE95:
 2294              		.size	nRF24_clear_irq_flag, .-nRF24_clear_irq_flag
 2295              		.section	.text.nRF24_get_irq_flag,"ax",%progbits
 2296              		.align	2
 2297              		.global	nRF24_get_irq_flag
 2298              		.code	16
 2299              		.thumb_func
 2300              		.type	nRF24_get_irq_flag, %function
 2301              	nRF24_get_irq_flag:
 2302              	.LFB96:
 958:Generated_Source\PSoC4/nRF24_FUNCS.c **** 
 959:Generated_Source\PSoC4/nRF24_FUNCS.c **** /**
 960:Generated_Source\PSoC4/nRF24_FUNCS.c ****  * This method is used to get if any of the IRQ "flag" bits on the STATUS
 961:Generated_Source\PSoC4/nRF24_FUNCS.c ****  * register is set to 1. This function returns 0 is none of the flag bits
 962:Generated_Source\PSoC4/nRF24_FUNCS.c ****  * is not set to 1.
 963:Generated_Source\PSoC4/nRF24_FUNCS.c ****  *
 964:Generated_Source\PSoC4/nRF24_FUNCS.c ****  * @return nrf_irq: Asserted bit of the interrupt flags.
ARM GAS  C:\Users\AFDHAL~1\AppData\Local\Temp\ccielSKc.s 			page 63


 965:Generated_Source\PSoC4/nRF24_FUNCS.c ****  */
 966:Generated_Source\PSoC4/nRF24_FUNCS.c **** nrf_irq nRF24_get_irq_flag(void)
 967:Generated_Source\PSoC4/nRF24_FUNCS.c **** {
 2303              		.loc 1 967 0
 2304              		.cfi_startproc
 2305              		@ args = 0, pretend = 0, frame = 0
 2306              		@ frame_needed = 0, uses_anonymous_args = 0
 2307              	.LVL229:
 2308 0000 10B5     		push	{r4, lr}
 2309              		.cfi_def_cfa_offset 8
 2310              		.cfi_offset 4, -8
 2311              		.cfi_offset 14, -4
 968:Generated_Source\PSoC4/nRF24_FUNCS.c ****     nrf_irq irq = NRF_NONE_IRQ;
 969:Generated_Source\PSoC4/nRF24_FUNCS.c ****     
 970:Generated_Source\PSoC4/nRF24_FUNCS.c ****     // Get the STATUS register
 971:Generated_Source\PSoC4/nRF24_FUNCS.c ****     uint8_t sts = nRF24_nop_cmd();
 2312              		.loc 1 971 0
 2313 0002 FFF7FEFF 		bl	nRF24_nop_cmd
 2314              	.LVL230:
 972:Generated_Source\PSoC4/nRF24_FUNCS.c ****     
 973:Generated_Source\PSoC4/nRF24_FUNCS.c ****     // We only care if bits 4, 5 or 6 are set, so we mask the STATUS with 0x0111_0000
 974:Generated_Source\PSoC4/nRF24_FUNCS.c ****     switch (sts & NRF_ALL_IRQ_MASK) {
 2315              		.loc 1 974 0
 2316 0006 7023     		movs	r3, #112
 2317 0008 1840     		ands	r0, r3
 2318              	.LVL231:
 2319 000a 2028     		cmp	r0, #32
 2320 000c 09D0     		beq	.L161
 2321 000e 4028     		cmp	r0, #64
 2322 0010 05D0     		beq	.L164
 2323 0012 1028     		cmp	r0, #16
 2324 0014 01D0     		beq	.L167
 2325              	.LVL232:
 975:Generated_Source\PSoC4/nRF24_FUNCS.c ****     case NRF_STATUS_RX_DR_MASK:
 976:Generated_Source\PSoC4/nRF24_FUNCS.c ****         irq = NRF_RX_DR_IRQ;
 977:Generated_Source\PSoC4/nRF24_FUNCS.c ****         break;
 978:Generated_Source\PSoC4/nRF24_FUNCS.c ****     case NRF_STATUS_TX_DS_MASK:
 979:Generated_Source\PSoC4/nRF24_FUNCS.c ****         irq = NRF_TX_DS_IRQ;
 980:Generated_Source\PSoC4/nRF24_FUNCS.c ****         break;
 981:Generated_Source\PSoC4/nRF24_FUNCS.c ****     case NRF_STATUS_MAX_RT_MASK:
 982:Generated_Source\PSoC4/nRF24_FUNCS.c ****         irq = NRF_MAX_RT_IRQ;
 983:Generated_Source\PSoC4/nRF24_FUNCS.c ****         break;
 984:Generated_Source\PSoC4/nRF24_FUNCS.c ****     default:
 985:Generated_Source\PSoC4/nRF24_FUNCS.c ****         irq = NRF_ALL_IRQ_MASK;
 2326              		.loc 1 985 0
 2327 0016 7020     		movs	r0, #112
 2328              	.LVL233:
 2329              	.L162:
 986:Generated_Source\PSoC4/nRF24_FUNCS.c ****         break;
 987:Generated_Source\PSoC4/nRF24_FUNCS.c ****     }
 988:Generated_Source\PSoC4/nRF24_FUNCS.c ****     
 989:Generated_Source\PSoC4/nRF24_FUNCS.c ****     return irq;
 990:Generated_Source\PSoC4/nRF24_FUNCS.c **** }
 2330              		.loc 1 990 0
 2331              		@ sp needed
 2332 0018 10BD     		pop	{r4, pc}
 2333              	.LVL234:
ARM GAS  C:\Users\AFDHAL~1\AppData\Local\Temp\ccielSKc.s 			page 64


 2334              	.L167:
 982:Generated_Source\PSoC4/nRF24_FUNCS.c ****         break;
 2335              		.loc 1 982 0
 2336 001a 0420     		movs	r0, #4
 983:Generated_Source\PSoC4/nRF24_FUNCS.c ****     default:
 2337              		.loc 1 983 0
 2338 001c FCE7     		b	.L162
 2339              	.LVL235:
 2340              	.L164:
 976:Generated_Source\PSoC4/nRF24_FUNCS.c ****         break;
 2341              		.loc 1 976 0
 2342 001e 0620     		movs	r0, #6
 2343 0020 FAE7     		b	.L162
 2344              	.L161:
 979:Generated_Source\PSoC4/nRF24_FUNCS.c ****         break;
 2345              		.loc 1 979 0
 2346 0022 0520     		movs	r0, #5
 2347 0024 F8E7     		b	.L162
 2348              		.cfi_endproc
 2349              	.LFE96:
 2350              		.size	nRF24_get_irq_flag, .-nRF24_get_irq_flag
 2351 0026 C046     		.section	.rodata
 2352              		.align	2
 2353              		.set	.LANCHOR0,. + 0
 2354              		.type	CSWTCH.15, %object
 2355              		.size	CSWTCH.15, 3
 2356              	CSWTCH.15:
 2357 0000 03       		.byte	3
 2358 0001 04       		.byte	4
 2359 0002 05       		.byte	5
 2360              		.text
 2361              	.Letext0:
 2362              		.file 2 "c:\\program files (x86)\\cypress\\psoc creator\\4.1\\psoc creator\\import\\gnu\\arm\\5.4.
 2363              		.file 3 "c:\\program files (x86)\\cypress\\psoc creator\\4.1\\psoc creator\\import\\gnu\\arm\\5.4.
 2364              		.file 4 "c:\\program files (x86)\\cypress\\psoc creator\\4.1\\psoc creator\\import\\gnu\\arm\\5.4.
 2365              		.file 5 "Generated_Source\\PSoC4\\nRF24_REGS.h"
 2366              		.file 6 "Generated_Source\\PSoC4\\nRF24_LL_SPI.h"
 2367              		.file 7 "Generated_Source\\PSoC4\\CyLib.h"
 2368              		.file 8 "Generated_Source\\PSoC4\\CE.h"
 2369              		.file 9 "Generated_Source\\PSoC4\\SS.h"
 2370              		.file 10 "Generated_Source\\PSoC4\\SPI.h"
 2371              		.file 11 "Generated_Source\\PSoC4\\nRF24_COMMANDS.h"