ARM GAS  C:\Users\AFDHAL~1\AppData\Local\Temp\ccielSKc.s 			page 1


   1              		.syntax unified
   2              		.cpu cortex-m0
   3              		.fpu softvfp
   4              		.eabi_attribute 20, 1
   5              		.eabi_attribute 21, 1
   6              		.eabi_attribute 23, 3
   7              		.eabi_attribute 24, 1
   8              		.eabi_attribute 25, 1
   9              		.eabi_attribute 26, 1
  10              		.eabi_attribute 30, 2
  11              		.eabi_attribute 34, 0
  12              		.eabi_attribute 18, 4
  13              		.thumb
  14              		.syntax unified
  15              		.file	"nRF24_FUNCS.c"
  16              		.text
  17              	.Ltext0:
  18              		.cfi_sections	.debug_frame
  19              		.section	.text.nRF24_start,"ax",%progbits
  20              		.align	2
  21              		.global	nRF24_start
  22              		.code	16
  23              		.thumb_func
  24              		.type	nRF24_start, %function
  25              	nRF24_start:
  26              	.LFB34:
  27              		.file 1 "Generated_Source\\PSoC4\\nRF24_FUNCS.c"
   1:Generated_Source\PSoC4/nRF24_FUNCS.c **** /****************************************************************************
   2:Generated_Source\PSoC4/nRF24_FUNCS.c **** * This file is part of the nRF24 Custom Component for PSoC Devices.
   3:Generated_Source\PSoC4/nRF24_FUNCS.c **** *
   4:Generated_Source\PSoC4/nRF24_FUNCS.c **** * Copyright (C) 2017 Carlos Diaz <carlos.santiago.diaz@gmail.com>
   5:Generated_Source\PSoC4/nRF24_FUNCS.c **** *
   6:Generated_Source\PSoC4/nRF24_FUNCS.c **** * Permission to use, copy, modify, and/or distribute this software for any
   7:Generated_Source\PSoC4/nRF24_FUNCS.c **** * purpose with or without fee is hereby granted, provided that the above
   8:Generated_Source\PSoC4/nRF24_FUNCS.c **** * copyright notice and this permission notice appear in all copies.
   9:Generated_Source\PSoC4/nRF24_FUNCS.c **** *
  10:Generated_Source\PSoC4/nRF24_FUNCS.c **** * THE SOFTWARE IS PROVIDED "AS IS" AND THE AUTHOR DISCLAIMS ALL WARRANTIES
  11:Generated_Source\PSoC4/nRF24_FUNCS.c **** * WITH REGARD TO THIS SOFTWARE INCLUDING ALL IMPLIED WARRANTIES OF
  12:Generated_Source\PSoC4/nRF24_FUNCS.c **** * MERCHANTABILITY AND FITNESS. IN NO EVENT SHALL THE AUTHOR BE LIABLE FOR
  13:Generated_Source\PSoC4/nRF24_FUNCS.c **** * ANY SPECIAL, DIRECT, INDIRECT, OR CONSEQUENTIAL DAMAGES OR ANY DAMAGES
  14:Generated_Source\PSoC4/nRF24_FUNCS.c **** * WHATSOEVER RESULTING FROM LOSS OF USE, DATA OR PROFITS, WHETHER IN AN
  15:Generated_Source\PSoC4/nRF24_FUNCS.c **** * ACTION OF CONTRACT, NEGLIGENCE OR OTHER TORTIOUS ACTION, ARISING OUT OF
  16:Generated_Source\PSoC4/nRF24_FUNCS.c **** * OR IN CONNECTION WITH THE USE OR PERFORMANCE OF THIS SOFTWARE.
  17:Generated_Source\PSoC4/nRF24_FUNCS.c **** ****************************************************************************/
  18:Generated_Source\PSoC4/nRF24_FUNCS.c **** 
  19:Generated_Source\PSoC4/nRF24_FUNCS.c **** /**
  20:Generated_Source\PSoC4/nRF24_FUNCS.c **** * @file nRF24_NRF_FUNCS.c
  21:Generated_Source\PSoC4/nRF24_FUNCS.c **** *
  22:Generated_Source\PSoC4/nRF24_FUNCS.c **** * @brief This file define all the functions available to the user.
  23:Generated_Source\PSoC4/nRF24_FUNCS.c **** */
  24:Generated_Source\PSoC4/nRF24_FUNCS.c **** 
  25:Generated_Source\PSoC4/nRF24_FUNCS.c **** #include "nRF24_CONFIG.h"
  26:Generated_Source\PSoC4/nRF24_FUNCS.c **** #include "nRF24_LL_SPI.h"
  27:Generated_Source\PSoC4/nRF24_FUNCS.c **** #include "nRF24_COMMANDS.h"
  28:Generated_Source\PSoC4/nRF24_FUNCS.c **** #include "nRF24_FUNCS.h"
  29:Generated_Source\PSoC4/nRF24_FUNCS.c **** #include "nRF24_REGS.h"
  30:Generated_Source\PSoC4/nRF24_FUNCS.c **** 
ARM GAS  C:\Users\AFDHAL~1\AppData\Local\Temp\ccielSKc.s 			page 2


  31:Generated_Source\PSoC4/nRF24_FUNCS.c **** /**
  32:Generated_Source\PSoC4/nRF24_FUNCS.c ****  * @brief Configure the radio and clear IRQs, TX and RX FIFOs.
  33:Generated_Source\PSoC4/nRF24_FUNCS.c ****  */
  34:Generated_Source\PSoC4/nRF24_FUNCS.c **** void nRF24_start(void)
  35:Generated_Source\PSoC4/nRF24_FUNCS.c **** {
  28              		.loc 1 35 0
  29              		.cfi_startproc
  30              		@ args = 0, pretend = 0, frame = 0
  31              		@ frame_needed = 0, uses_anonymous_args = 0
  32 0000 10B5     		push	{r4, lr}
  33              		.cfi_def_cfa_offset 8
  34              		.cfi_offset 4, -8
  35              		.cfi_offset 14, -4
  36:Generated_Source\PSoC4/nRF24_FUNCS.c ****     // Recommended delay to start using the nRF24
  37:Generated_Source\PSoC4/nRF24_FUNCS.c ****     CyDelay(NRF_POWER_UP_DELAY);
  36              		.loc 1 37 0
  37 0002 6420     		movs	r0, #100
  38 0004 FFF7FEFF 		bl	CyDelay
  39              	.LVL0:
  38:Generated_Source\PSoC4/nRF24_FUNCS.c ****     
  39:Generated_Source\PSoC4/nRF24_FUNCS.c ****     // Now the radio is in Power Down mode
  40:Generated_Source\PSoC4/nRF24_FUNCS.c ****     
  41:Generated_Source\PSoC4/nRF24_FUNCS.c ****     // Set SS to logic 1, CE to logic 0 and Start the SPI
  42:Generated_Source\PSoC4/nRF24_FUNCS.c **** #if defined(CY_GPIO_H) // PSoC6
  43:Generated_Source\PSoC4/nRF24_FUNCS.c ****     Cy_GPIO_Clr(CE_PORT, CE_NUM);
  44:Generated_Source\PSoC4/nRF24_FUNCS.c ****     Cy_GPIO_Set(SS_PORT, SS_NUM);
  45:Generated_Source\PSoC4/nRF24_FUNCS.c **** #else // PSoC 4 and 5LP
  46:Generated_Source\PSoC4/nRF24_FUNCS.c ****     CE_Write(0);
  40              		.loc 1 46 0
  41 0008 0020     		movs	r0, #0
  42 000a FFF7FEFF 		bl	CE_Write
  43              	.LVL1:
  47:Generated_Source\PSoC4/nRF24_FUNCS.c ****     SS_Write(1);
  44              		.loc 1 47 0
  45 000e 0120     		movs	r0, #1
  46 0010 FFF7FEFF 		bl	SS_Write
  47              	.LVL2:
  48:Generated_Source\PSoC4/nRF24_FUNCS.c **** #endif
  49:Generated_Source\PSoC4/nRF24_FUNCS.c ****     SPI_Start();
  48              		.loc 1 49 0
  49 0014 FFF7FEFF 		bl	SPI_Start
  50              	.LVL3:
  50:Generated_Source\PSoC4/nRF24_FUNCS.c **** 
  51:Generated_Source\PSoC4/nRF24_FUNCS.c ****     // Flush both nRF24 FIFOs
  52:Generated_Source\PSoC4/nRF24_FUNCS.c ****     nRF24_flush_rx_cmd();
  51              		.loc 1 52 0
  52 0018 FFF7FEFF 		bl	nRF24_flush_rx_cmd
  53              	.LVL4:
  53:Generated_Source\PSoC4/nRF24_FUNCS.c ****     nRF24_flush_tx_cmd();
  54              		.loc 1 53 0
  55 001c FFF7FEFF 		bl	nRF24_flush_tx_cmd
  56              	.LVL5:
  57              	.LBB24:
  58              	.LBB25:
  54:Generated_Source\PSoC4/nRF24_FUNCS.c ****     // Clear IRQ flags
  55:Generated_Source\PSoC4/nRF24_FUNCS.c ****     nRF24_clear_all_irqs();
  56:Generated_Source\PSoC4/nRF24_FUNCS.c ****     
ARM GAS  C:\Users\AFDHAL~1\AppData\Local\Temp\ccielSKc.s 			page 3


  57:Generated_Source\PSoC4/nRF24_FUNCS.c ****     // Configure the nRF24 with the data from the customizer
  58:Generated_Source\PSoC4/nRF24_FUNCS.c ****     nRF24_init();
  59:Generated_Source\PSoC4/nRF24_FUNCS.c ****     
  60:Generated_Source\PSoC4/nRF24_FUNCS.c ****     // After PWR_UP = 1 the radio is in Standby-I mode, 130us of delay for settling
  61:Generated_Source\PSoC4/nRF24_FUNCS.c ****     CyDelayUs(150);
  62:Generated_Source\PSoC4/nRF24_FUNCS.c **** }
  63:Generated_Source\PSoC4/nRF24_FUNCS.c **** 
  64:Generated_Source\PSoC4/nRF24_FUNCS.c **** /**
  65:Generated_Source\PSoC4/nRF24_FUNCS.c ****  * Configure the nRF radio with the data from the customizer.
  66:Generated_Source\PSoC4/nRF24_FUNCS.c ****  */
  67:Generated_Source\PSoC4/nRF24_FUNCS.c **** void nRF24_init(void)
  68:Generated_Source\PSoC4/nRF24_FUNCS.c **** {
  69:Generated_Source\PSoC4/nRF24_FUNCS.c ****     nRF24_write_register(NRF_EN_AA_REG, CUSTOMIZER_EN_AA);
  70:Generated_Source\PSoC4/nRF24_FUNCS.c ****     nRF24_write_register(NRF_EN_RXADDR_REG, CUSTOMIZER_EN_RXADDR);
  71:Generated_Source\PSoC4/nRF24_FUNCS.c ****     nRF24_write_register(NRF_SETUP_AW_REG, CUSTOMIZER_SETUP_AW);
  72:Generated_Source\PSoC4/nRF24_FUNCS.c ****     nRF24_write_register(NRF_SETUP_RETR_REG, CUSTOMIZER_SETUP_RETR);
  73:Generated_Source\PSoC4/nRF24_FUNCS.c ****     nRF24_write_register(NRF_RF_CH_REG, CUSTOMIZER_RF_CH);
  74:Generated_Source\PSoC4/nRF24_FUNCS.c ****     nRF24_write_register(NRF_RF_SETUP_REG, CUSTOMIZER_RF_SETUP);
  75:Generated_Source\PSoC4/nRF24_FUNCS.c ****     nRF24_write_register(NRF_DYNPD_REG, CUSTOMIZER_DYNPD);
  76:Generated_Source\PSoC4/nRF24_FUNCS.c ****     nRF24_write_register(NRF_FEATURE_REG, CUSTOMIZER_FEATURE);
  77:Generated_Source\PSoC4/nRF24_FUNCS.c **** 
  78:Generated_Source\PSoC4/nRF24_FUNCS.c **** // Configuring data pipes
  79:Generated_Source\PSoC4/nRF24_FUNCS.c **** #if (ENABLE_PIPE0 == 1)
  80:Generated_Source\PSoC4/nRF24_FUNCS.c ****     nRF24_write_register(NRF_RX_PW_P0_REG, CUSTOMIZER_RX_PW_P0);
  81:Generated_Source\PSoC4/nRF24_FUNCS.c **** #endif
  82:Generated_Source\PSoC4/nRF24_FUNCS.c **** #if (ENABLE_PIPE1 == 1)
  83:Generated_Source\PSoC4/nRF24_FUNCS.c ****     nRF24_write_register(NRF_RX_PW_P1_REG, CUSTOMIZER_RX_PW_P0);
  84:Generated_Source\PSoC4/nRF24_FUNCS.c **** #endif
  85:Generated_Source\PSoC4/nRF24_FUNCS.c **** #if (ENABLE_PIPE2 == 1)
  86:Generated_Source\PSoC4/nRF24_FUNCS.c ****     nRF24_write_register(NRF_RX_ADDR_P2_REG, CUSTOMIZER_RX_ADDR_P2);
  87:Generated_Source\PSoC4/nRF24_FUNCS.c ****     nRF24_write_register(NRF_RX_PW_P2_REG, CUSTOMIZER_RX_PW_P0);
  88:Generated_Source\PSoC4/nRF24_FUNCS.c **** #endif
  89:Generated_Source\PSoC4/nRF24_FUNCS.c **** #if (ENABLE_PIPE3 == 1)
  90:Generated_Source\PSoC4/nRF24_FUNCS.c ****     nRF24_write_register(NRF_RX_ADDR_P3_REG, CUSTOMIZER_RX_ADDR_P3);
  91:Generated_Source\PSoC4/nRF24_FUNCS.c ****     nRF24_write_register(NRF_RX_PW_P3_REG, CUSTOMIZER_RX_PW_P0);
  92:Generated_Source\PSoC4/nRF24_FUNCS.c **** #endif
  93:Generated_Source\PSoC4/nRF24_FUNCS.c **** #if (ENABLE_PIPE4 == 1)
  94:Generated_Source\PSoC4/nRF24_FUNCS.c ****     nRF24_write_register(NRF_RX_ADDR_P4_REG, CUSTOMIZER_RX_ADDR_P4);
  95:Generated_Source\PSoC4/nRF24_FUNCS.c ****     nRF24_write_register(NRF_RX_PW_P4_REG, CUSTOMIZER_RX_PW_P0);
  96:Generated_Source\PSoC4/nRF24_FUNCS.c **** #endif
  97:Generated_Source\PSoC4/nRF24_FUNCS.c **** #if (ENABLE_PIPE5 == 1)
  98:Generated_Source\PSoC4/nRF24_FUNCS.c ****     nRF24_write_register(NRF_RX_ADDR_P5_REG, CUSTOMIZER_RX_ADDR_P5);
  99:Generated_Source\PSoC4/nRF24_FUNCS.c ****     nRF24_write_register(NRF_RX_PW_P5_REG, CUSTOMIZER_RX_PW_P0);
 100:Generated_Source\PSoC4/nRF24_FUNCS.c **** #endif
 101:Generated_Source\PSoC4/nRF24_FUNCS.c **** 
 102:Generated_Source\PSoC4/nRF24_FUNCS.c ****     nRF24_write_register( NRF_CONFIG_REG, CUSTOMIZER_CONFIG);
 103:Generated_Source\PSoC4/nRF24_FUNCS.c **** }
 104:Generated_Source\PSoC4/nRF24_FUNCS.c **** 
 105:Generated_Source\PSoC4/nRF24_FUNCS.c **** /**
 106:Generated_Source\PSoC4/nRF24_FUNCS.c ****  * Enable the nRF24 radio.
 107:Generated_Source\PSoC4/nRF24_FUNCS.c ****  *
 108:Generated_Source\PSoC4/nRF24_FUNCS.c ****  * @todo Implement this function
 109:Generated_Source\PSoC4/nRF24_FUNCS.c ****  */
 110:Generated_Source\PSoC4/nRF24_FUNCS.c **** void nRF24_enable(void)
 111:Generated_Source\PSoC4/nRF24_FUNCS.c **** {
 112:Generated_Source\PSoC4/nRF24_FUNCS.c **** }
 113:Generated_Source\PSoC4/nRF24_FUNCS.c **** 
ARM GAS  C:\Users\AFDHAL~1\AppData\Local\Temp\ccielSKc.s 			page 4


 114:Generated_Source\PSoC4/nRF24_FUNCS.c **** /**
 115:Generated_Source\PSoC4/nRF24_FUNCS.c ****  * Stop the nRF24 radio.
 116:Generated_Source\PSoC4/nRF24_FUNCS.c ****  *
 117:Generated_Source\PSoC4/nRF24_FUNCS.c ****  * @todo Implement this function
 118:Generated_Source\PSoC4/nRF24_FUNCS.c ****  */
 119:Generated_Source\PSoC4/nRF24_FUNCS.c **** void nRF24_stop(void)
 120:Generated_Source\PSoC4/nRF24_FUNCS.c **** {
 121:Generated_Source\PSoC4/nRF24_FUNCS.c **** }
 122:Generated_Source\PSoC4/nRF24_FUNCS.c **** 
 123:Generated_Source\PSoC4/nRF24_FUNCS.c **** /**
 124:Generated_Source\PSoC4/nRF24_FUNCS.c ****  * Put the nRF24 radio on Standby-I mode.
 125:Generated_Source\PSoC4/nRF24_FUNCS.c ****  * This function doesn't put the SPI, MCU nor pins to sleep
 126:Generated_Source\PSoC4/nRF24_FUNCS.c ****  */
 127:Generated_Source\PSoC4/nRF24_FUNCS.c **** void nRF24_sleep(void)
 128:Generated_Source\PSoC4/nRF24_FUNCS.c **** {
 129:Generated_Source\PSoC4/nRF24_FUNCS.c ****     // is standby.I the lowest power mode?
 130:Generated_Source\PSoC4/nRF24_FUNCS.c ****     nRF24_set_standby_i_mode();
 131:Generated_Source\PSoC4/nRF24_FUNCS.c **** }
 132:Generated_Source\PSoC4/nRF24_FUNCS.c **** 
 133:Generated_Source\PSoC4/nRF24_FUNCS.c **** /**
 134:Generated_Source\PSoC4/nRF24_FUNCS.c ****  * Wakeup the nRF24 radio, and restore the configuration.
 135:Generated_Source\PSoC4/nRF24_FUNCS.c ****  *
 136:Generated_Source\PSoC4/nRF24_FUNCS.c ****  * @todo Implement this function.
 137:Generated_Source\PSoC4/nRF24_FUNCS.c ****  */
 138:Generated_Source\PSoC4/nRF24_FUNCS.c **** void nRF24_wakeup(void)
 139:Generated_Source\PSoC4/nRF24_FUNCS.c **** {
 140:Generated_Source\PSoC4/nRF24_FUNCS.c ****     // after leaving standby-I mode the radio need a time to
 141:Generated_Source\PSoC4/nRF24_FUNCS.c ****     // return to TX or RX Mode
 142:Generated_Source\PSoC4/nRF24_FUNCS.c ****     nRF24_set_bit(NRF_CONFIG_REG, NRF_CONFIG_PWR_UP);
 143:Generated_Source\PSoC4/nRF24_FUNCS.c ****     CyDelay(5);
 144:Generated_Source\PSoC4/nRF24_FUNCS.c **** }
 145:Generated_Source\PSoC4/nRF24_FUNCS.c **** 
 146:Generated_Source\PSoC4/nRF24_FUNCS.c **** /**
 147:Generated_Source\PSoC4/nRF24_FUNCS.c ****  * Save the nRF24 radio configuration.
 148:Generated_Source\PSoC4/nRF24_FUNCS.c ****  *
 149:Generated_Source\PSoC4/nRF24_FUNCS.c ****  * @todo Implement this function.
 150:Generated_Source\PSoC4/nRF24_FUNCS.c ****  */
 151:Generated_Source\PSoC4/nRF24_FUNCS.c **** void nRF24_save_config(void)
 152:Generated_Source\PSoC4/nRF24_FUNCS.c **** {
 153:Generated_Source\PSoC4/nRF24_FUNCS.c **** }
 154:Generated_Source\PSoC4/nRF24_FUNCS.c **** 
 155:Generated_Source\PSoC4/nRF24_FUNCS.c **** /**
 156:Generated_Source\PSoC4/nRF24_FUNCS.c ****  * Restore the nRF24 radio configuration.
 157:Generated_Source\PSoC4/nRF24_FUNCS.c ****  *
 158:Generated_Source\PSoC4/nRF24_FUNCS.c ****  * @todo Implement this function.
 159:Generated_Source\PSoC4/nRF24_FUNCS.c ****  */
 160:Generated_Source\PSoC4/nRF24_FUNCS.c **** void nRF24_restore_config(void)
 161:Generated_Source\PSoC4/nRF24_FUNCS.c **** {
 162:Generated_Source\PSoC4/nRF24_FUNCS.c **** }
 163:Generated_Source\PSoC4/nRF24_FUNCS.c **** 
 164:Generated_Source\PSoC4/nRF24_FUNCS.c **** /**
 165:Generated_Source\PSoC4/nRF24_FUNCS.c ****  * Configure the radio as Receiver or Transmitter.
 166:Generated_Source\PSoC4/nRF24_FUNCS.c ****  *
 167:Generated_Source\PSoC4/nRF24_FUNCS.c ****  * @param const nrf_mode mode: The radio can be configured as Receiver (PRX)
 168:Generated_Source\PSoC4/nRF24_FUNCS.c ****  * or Transmitter (PTX).
 169:Generated_Source\PSoC4/nRF24_FUNCS.c ****  */
 170:Generated_Source\PSoC4/nRF24_FUNCS.c **** void nRF24_set_mode(const nrf_mode mode)
ARM GAS  C:\Users\AFDHAL~1\AppData\Local\Temp\ccielSKc.s 			page 5


 171:Generated_Source\PSoC4/nRF24_FUNCS.c **** {
 172:Generated_Source\PSoC4/nRF24_FUNCS.c ****     mode ? nRF24_set_rx_mode() : nRF24_set_tx_mode();
 173:Generated_Source\PSoC4/nRF24_FUNCS.c **** }
 174:Generated_Source\PSoC4/nRF24_FUNCS.c **** 
 175:Generated_Source\PSoC4/nRF24_FUNCS.c **** /**
 176:Generated_Source\PSoC4/nRF24_FUNCS.c ****  * @brief Set radio in Power Down Mode.
 177:Generated_Source\PSoC4/nRF24_FUNCS.c ****  *
 178:Generated_Source\PSoC4/nRF24_FUNCS.c ****  * In power down mode nRF24 is disabled using minimal current consumption.
 179:Generated_Source\PSoC4/nRF24_FUNCS.c ****  * All register values available are maintained and the SPI is kept active,
 180:Generated_Source\PSoC4/nRF24_FUNCS.c ****  * enabling change of configuration and the uploading/downloading of data
 181:Generated_Source\PSoC4/nRF24_FUNCS.c ****  * registers.
 182:Generated_Source\PSoC4/nRF24_FUNCS.c ****  * Power down mode is entered by setting the PWR_UP bit (CONFIG register) to 0.
 183:Generated_Source\PSoC4/nRF24_FUNCS.c ****  */
 184:Generated_Source\PSoC4/nRF24_FUNCS.c **** void nRF24_set_power_down_mode(void)
 185:Generated_Source\PSoC4/nRF24_FUNCS.c **** {
 186:Generated_Source\PSoC4/nRF24_FUNCS.c ****     nRF24_clear_bit(NRF_CONFIG_REG, NRF_CONFIG_PWR_UP);
 187:Generated_Source\PSoC4/nRF24_FUNCS.c **** }
 188:Generated_Source\PSoC4/nRF24_FUNCS.c **** 
 189:Generated_Source\PSoC4/nRF24_FUNCS.c **** /**
 190:Generated_Source\PSoC4/nRF24_FUNCS.c ****  * @brief Set the radio in Standby I Mode.
 191:Generated_Source\PSoC4/nRF24_FUNCS.c ****  *
 192:Generated_Source\PSoC4/nRF24_FUNCS.c ****  * By setting the PWR_UP bit in the CONFIG register to 1, the device enters
 193:Generated_Source\PSoC4/nRF24_FUNCS.c ****  * standby-I mode. Standby-I mode is used to minimize average current
 194:Generated_Source\PSoC4/nRF24_FUNCS.c ****  * consumption while maintaining short start up times.
 195:Generated_Source\PSoC4/nRF24_FUNCS.c ****  * In this mode only part of the crystal oscillator is active. Change to
 196:Generated_Source\PSoC4/nRF24_FUNCS.c ****  * active modes only happens if CE is set high and when CE is set low,
 197:Generated_Source\PSoC4/nRF24_FUNCS.c ****  * the nRF24 returns to standby-I mode from both the TX and RX modes.
 198:Generated_Source\PSoC4/nRF24_FUNCS.c ****  */
 199:Generated_Source\PSoC4/nRF24_FUNCS.c **** void nRF24_set_standby_i_mode(void)
 200:Generated_Source\PSoC4/nRF24_FUNCS.c **** {
 201:Generated_Source\PSoC4/nRF24_FUNCS.c **** #if 0
 202:Generated_Source\PSoC4/nRF24_FUNCS.c ****     nRF24_listen(false);
 203:Generated_Source\PSoC4/nRF24_FUNCS.c **** #else
 204:Generated_Source\PSoC4/nRF24_FUNCS.c ****     nRF24_stop_listening();
 205:Generated_Source\PSoC4/nRF24_FUNCS.c **** #endif
 206:Generated_Source\PSoC4/nRF24_FUNCS.c ****     nRF24_set_bit(NRF_CONFIG_REG, NRF_CONFIG_PWR_UP);
 207:Generated_Source\PSoC4/nRF24_FUNCS.c **** }
 208:Generated_Source\PSoC4/nRF24_FUNCS.c **** 
 209:Generated_Source\PSoC4/nRF24_FUNCS.c **** /**
 210:Generated_Source\PSoC4/nRF24_FUNCS.c ****  * @brief Set the radio in Standby II Mode.
 211:Generated_Source\PSoC4/nRF24_FUNCS.c ****  *
 212:Generated_Source\PSoC4/nRF24_FUNCS.c ****  * In standby-II mode extra clock buffers are active and more current is used
 213:Generated_Source\PSoC4/nRF24_FUNCS.c ****  * compared to standby-I mode. nRF24 enters standby-II mode if CE is held high
 214:Generated_Source\PSoC4/nRF24_FUNCS.c ****  * on a TX device with an empty TX FIFO.
 215:Generated_Source\PSoC4/nRF24_FUNCS.c ****  * If a new packet is uploaded to the TX FIFO, the PLL immediately starts and
 216:Generated_Source\PSoC4/nRF24_FUNCS.c ****  * the packet is transmitted after the normal PLL settling  delay (130us).
 217:Generated_Source\PSoC4/nRF24_FUNCS.c ****  */
 218:Generated_Source\PSoC4/nRF24_FUNCS.c **** void nRF24_set_standby_ii_mode(void)
 219:Generated_Source\PSoC4/nRF24_FUNCS.c **** {
 220:Generated_Source\PSoC4/nRF24_FUNCS.c **** #if 0
 221:Generated_Source\PSoC4/nRF24_FUNCS.c ****     nRF24_listen(true);
 222:Generated_Source\PSoC4/nRF24_FUNCS.c **** #else
 223:Generated_Source\PSoC4/nRF24_FUNCS.c ****     nRF24_start_listening();
 224:Generated_Source\PSoC4/nRF24_FUNCS.c **** #endif
 225:Generated_Source\PSoC4/nRF24_FUNCS.c ****     nRF24_set_bit(NRF_CONFIG_REG, NRF_CONFIG_PWR_UP);
 226:Generated_Source\PSoC4/nRF24_FUNCS.c **** }
 227:Generated_Source\PSoC4/nRF24_FUNCS.c **** 
ARM GAS  C:\Users\AFDHAL~1\AppData\Local\Temp\ccielSKc.s 			page 6


 228:Generated_Source\PSoC4/nRF24_FUNCS.c **** /**
 229:Generated_Source\PSoC4/nRF24_FUNCS.c ****  * @brief Set the radio in Receiver (Rx) Mode.
 230:Generated_Source\PSoC4/nRF24_FUNCS.c ****  *
 231:Generated_Source\PSoC4/nRF24_FUNCS.c ****  * RX mode is an active mode where the nRF24 radio is used as receiver. To
 232:Generated_Source\PSoC4/nRF24_FUNCS.c ****  * enter this mode, the nRF24 must have the PWR_UP bit, PRIM_RX bit and the CE
 233:Generated_Source\PSoC4/nRF24_FUNCS.c ****  * pin set high.
 234:Generated_Source\PSoC4/nRF24_FUNCS.c ****  */
 235:Generated_Source\PSoC4/nRF24_FUNCS.c **** void nRF24_set_rx_mode(void)
 236:Generated_Source\PSoC4/nRF24_FUNCS.c **** {
 237:Generated_Source\PSoC4/nRF24_FUNCS.c ****     nRF24_set_bit(NRF_CONFIG_REG, NRF_CONFIG_PRIM_RX);
 238:Generated_Source\PSoC4/nRF24_FUNCS.c **** }
 239:Generated_Source\PSoC4/nRF24_FUNCS.c **** 
 240:Generated_Source\PSoC4/nRF24_FUNCS.c **** /**
 241:Generated_Source\PSoC4/nRF24_FUNCS.c ****  * @brief Set the radio in Transmitted (Tx) Mode.
 242:Generated_Source\PSoC4/nRF24_FUNCS.c ****  *
 243:Generated_Source\PSoC4/nRF24_FUNCS.c ****  * TX mode is an active mode for transmitting packets. To enter this mode,
 244:Generated_Source\PSoC4/nRF24_FUNCS.c ****  * the nRF24 must have the PWR_UP bit set high, PRIM_RX bit set low, a payload
 245:Generated_Source\PSoC4/nRF24_FUNCS.c ****  * in the TX FIFO and a high pulse on the CE for more than 10us.
 246:Generated_Source\PSoC4/nRF24_FUNCS.c ****  */
 247:Generated_Source\PSoC4/nRF24_FUNCS.c **** void nRF24_set_tx_mode(void)
 248:Generated_Source\PSoC4/nRF24_FUNCS.c **** {
 249:Generated_Source\PSoC4/nRF24_FUNCS.c ****     nRF24_clear_bit(NRF_CONFIG_REG, NRF_CONFIG_PRIM_RX);
 250:Generated_Source\PSoC4/nRF24_FUNCS.c **** }
 251:Generated_Source\PSoC4/nRF24_FUNCS.c **** 
 252:Generated_Source\PSoC4/nRF24_FUNCS.c **** /**
 253:Generated_Source\PSoC4/nRF24_FUNCS.c ****  * @brief Enable AutoACK in the given pipe.
 254:Generated_Source\PSoC4/nRF24_FUNCS.c ****  *
 255:Generated_Source\PSoC4/nRF24_FUNCS.c ****  * @param pipe: Enable AutoACK in the given pipe.
 256:Generated_Source\PSoC4/nRF24_FUNCS.c ****  */
 257:Generated_Source\PSoC4/nRF24_FUNCS.c **** void nRF24_enable_auto_ack(const nrf_pipe pipe)
 258:Generated_Source\PSoC4/nRF24_FUNCS.c **** {
 259:Generated_Source\PSoC4/nRF24_FUNCS.c ****     nRF24_set_bit(NRF_EN_AA_REG, pipe);
 260:Generated_Source\PSoC4/nRF24_FUNCS.c **** }
 261:Generated_Source\PSoC4/nRF24_FUNCS.c **** 
 262:Generated_Source\PSoC4/nRF24_FUNCS.c **** /**
 263:Generated_Source\PSoC4/nRF24_FUNCS.c ****  * @brief Disable AutoACK in the given pipe.
 264:Generated_Source\PSoC4/nRF24_FUNCS.c ****  *
 265:Generated_Source\PSoC4/nRF24_FUNCS.c ****  * @param pipe: Disable AutoACK in the given pipe.
 266:Generated_Source\PSoC4/nRF24_FUNCS.c ****  */
 267:Generated_Source\PSoC4/nRF24_FUNCS.c **** void nRF24_disable_auto_ack(const nrf_pipe pipe)
 268:Generated_Source\PSoC4/nRF24_FUNCS.c **** {
 269:Generated_Source\PSoC4/nRF24_FUNCS.c ****     nRF24_clear_bit(NRF_EN_AA_REG, pipe);
 270:Generated_Source\PSoC4/nRF24_FUNCS.c **** }
 271:Generated_Source\PSoC4/nRF24_FUNCS.c **** 
 272:Generated_Source\PSoC4/nRF24_FUNCS.c **** /**
 273:Generated_Source\PSoC4/nRF24_FUNCS.c ****  * @brief Set the channel where the radio will work.
 274:Generated_Source\PSoC4/nRF24_FUNCS.c ****  *
 275:Generated_Source\PSoC4/nRF24_FUNCS.c ****  * @param uint8_t channel: Channel where the radio will work.
 276:Generated_Source\PSoC4/nRF24_FUNCS.c ****  */
 277:Generated_Source\PSoC4/nRF24_FUNCS.c **** void nRF24_set_channel(uint8_t channel)
 278:Generated_Source\PSoC4/nRF24_FUNCS.c **** {
 279:Generated_Source\PSoC4/nRF24_FUNCS.c ****     if (NRF_MAX_RF_CHANNEL < channel) {
 280:Generated_Source\PSoC4/nRF24_FUNCS.c ****         channel = NRF_MAX_RF_CHANNEL;
 281:Generated_Source\PSoC4/nRF24_FUNCS.c ****     }
 282:Generated_Source\PSoC4/nRF24_FUNCS.c **** 
 283:Generated_Source\PSoC4/nRF24_FUNCS.c ****     nRF24_write_register(NRF_RF_CH_REG, channel);
 284:Generated_Source\PSoC4/nRF24_FUNCS.c **** }
ARM GAS  C:\Users\AFDHAL~1\AppData\Local\Temp\ccielSKc.s 			page 7


 285:Generated_Source\PSoC4/nRF24_FUNCS.c **** 
 286:Generated_Source\PSoC4/nRF24_FUNCS.c **** /**
 287:Generated_Source\PSoC4/nRF24_FUNCS.c ****  * @brief Set the data pipes address width.
 288:Generated_Source\PSoC4/nRF24_FUNCS.c ****  *
 289:Generated_Source\PSoC4/nRF24_FUNCS.c ****  * @param const nrf_setup_address_width addr_width:
 290:Generated_Source\PSoC4/nRF24_FUNCS.c ****  */
 291:Generated_Source\PSoC4/nRF24_FUNCS.c **** void nRF24_set_address_width(const nrf_setup_address_width addr_width)
 292:Generated_Source\PSoC4/nRF24_FUNCS.c **** {
 293:Generated_Source\PSoC4/nRF24_FUNCS.c ****     nRF24_write_register(NRF_SETUP_AW_REG, (uint8_t)addr_width);
 294:Generated_Source\PSoC4/nRF24_FUNCS.c **** }
 295:Generated_Source\PSoC4/nRF24_FUNCS.c **** 
 296:Generated_Source\PSoC4/nRF24_FUNCS.c **** /**
 297:Generated_Source\PSoC4/nRF24_FUNCS.c ****  * @brief Get the address width of the data pipes.
 298:Generated_Source\PSoC4/nRF24_FUNCS.c ****  *
 299:Generated_Source\PSoC4/nRF24_FUNCS.c ****  * @return uint8_t: Address width in bytes.
 300:Generated_Source\PSoC4/nRF24_FUNCS.c ****  */
 301:Generated_Source\PSoC4/nRF24_FUNCS.c **** uint8_t nRF24_get_address_width(void)
 302:Generated_Source\PSoC4/nRF24_FUNCS.c **** {
 303:Generated_Source\PSoC4/nRF24_FUNCS.c ****     uint8_t addr_width = 0;
 304:Generated_Source\PSoC4/nRF24_FUNCS.c ****     uint8_t reg = nRF24_read_register(NRF_SETUP_AW_REG);
 305:Generated_Source\PSoC4/nRF24_FUNCS.c **** 
 306:Generated_Source\PSoC4/nRF24_FUNCS.c ****     switch (reg) {
 307:Generated_Source\PSoC4/nRF24_FUNCS.c ****     case NRF_SETUP_AW_3BYTES:
 308:Generated_Source\PSoC4/nRF24_FUNCS.c ****         addr_width = 3;
 309:Generated_Source\PSoC4/nRF24_FUNCS.c ****         break;
 310:Generated_Source\PSoC4/nRF24_FUNCS.c ****     case NRF_SETUP_AW_4BYTES:
 311:Generated_Source\PSoC4/nRF24_FUNCS.c ****         addr_width = 4;
 312:Generated_Source\PSoC4/nRF24_FUNCS.c ****         break;
 313:Generated_Source\PSoC4/nRF24_FUNCS.c ****     case NRF_SETUP_AW_5BYTES:
 314:Generated_Source\PSoC4/nRF24_FUNCS.c ****         addr_width = 5;
 315:Generated_Source\PSoC4/nRF24_FUNCS.c ****         break;
 316:Generated_Source\PSoC4/nRF24_FUNCS.c ****     default:
 317:Generated_Source\PSoC4/nRF24_FUNCS.c ****         break;
 318:Generated_Source\PSoC4/nRF24_FUNCS.c ****     }
 319:Generated_Source\PSoC4/nRF24_FUNCS.c ****     
 320:Generated_Source\PSoC4/nRF24_FUNCS.c ****     return addr_width;
 321:Generated_Source\PSoC4/nRF24_FUNCS.c **** }
 322:Generated_Source\PSoC4/nRF24_FUNCS.c **** 
 323:Generated_Source\PSoC4/nRF24_FUNCS.c **** /**
 324:Generated_Source\PSoC4/nRF24_FUNCS.c ****  * @brief Set the address of the RX Pipe 0 in the radio.
 325:Generated_Source\PSoC4/nRF24_FUNCS.c ****  *
 326:Generated_Source\PSoC4/nRF24_FUNCS.c ****  * This function configure the address of the Rx Pipe 0 of the radio.
 327:Generated_Source\PSoC4/nRF24_FUNCS.c ****  *
 328:Generated_Source\PSoC4/nRF24_FUNCS.c ****  * @param const uint8_t* addr:
 329:Generated_Source\PSoC4/nRF24_FUNCS.c ****  * @param size_t size:
 330:Generated_Source\PSoC4/nRF24_FUNCS.c ****  */
 331:Generated_Source\PSoC4/nRF24_FUNCS.c **** void nRF24_set_rx_pipe_0_address(const uint8_t* addr, size_t size)
 332:Generated_Source\PSoC4/nRF24_FUNCS.c **** {
 333:Generated_Source\PSoC4/nRF24_FUNCS.c ****     if (NULL == addr) {
 334:Generated_Source\PSoC4/nRF24_FUNCS.c ****         return;
 335:Generated_Source\PSoC4/nRF24_FUNCS.c ****     }
 336:Generated_Source\PSoC4/nRF24_FUNCS.c **** 
 337:Generated_Source\PSoC4/nRF24_FUNCS.c ****     // TODO: Replace NRF_MAX_ADDR_SIZE with ADD_WIDTH
 338:Generated_Source\PSoC4/nRF24_FUNCS.c ****     if (NRF_MAX_ADDR_SIZE < size) {
 339:Generated_Source\PSoC4/nRF24_FUNCS.c ****         size = NRF_MAX_ADDR_SIZE;
 340:Generated_Source\PSoC4/nRF24_FUNCS.c ****     }
 341:Generated_Source\PSoC4/nRF24_FUNCS.c ****     
ARM GAS  C:\Users\AFDHAL~1\AppData\Local\Temp\ccielSKc.s 			page 8


 342:Generated_Source\PSoC4/nRF24_FUNCS.c ****     nRF24_write_long_register(NRF_RX_ADDR_P0_REG, addr, size);
 343:Generated_Source\PSoC4/nRF24_FUNCS.c **** }
 344:Generated_Source\PSoC4/nRF24_FUNCS.c **** 
 345:Generated_Source\PSoC4/nRF24_FUNCS.c **** /**
 346:Generated_Source\PSoC4/nRF24_FUNCS.c ****  * @brief Get the address of the RX Pipe 0 in the radio.
 347:Generated_Source\PSoC4/nRF24_FUNCS.c ****  *
 348:Generated_Source\PSoC4/nRF24_FUNCS.c ****  * @param uint8_t* addr:
 349:Generated_Source\PSoC4/nRF24_FUNCS.c ****  * @param size_t size:
 350:Generated_Source\PSoC4/nRF24_FUNCS.c ****  */
 351:Generated_Source\PSoC4/nRF24_FUNCS.c **** void nRF24_get_rx_pipe_0_address(uint8_t* addr, size_t size)
 352:Generated_Source\PSoC4/nRF24_FUNCS.c **** {
 353:Generated_Source\PSoC4/nRF24_FUNCS.c ****     if (NULL == addr) {
 354:Generated_Source\PSoC4/nRF24_FUNCS.c ****         return;
 355:Generated_Source\PSoC4/nRF24_FUNCS.c ****     }
 356:Generated_Source\PSoC4/nRF24_FUNCS.c **** 
 357:Generated_Source\PSoC4/nRF24_FUNCS.c ****     if (NRF_MAX_ADDR_SIZE < size) {
 358:Generated_Source\PSoC4/nRF24_FUNCS.c ****         size = NRF_MAX_ADDR_SIZE;
 359:Generated_Source\PSoC4/nRF24_FUNCS.c ****     }
 360:Generated_Source\PSoC4/nRF24_FUNCS.c ****     
 361:Generated_Source\PSoC4/nRF24_FUNCS.c ****     nRF24_read_long_register(NRF_RX_ADDR_P0_REG, addr, size);
 362:Generated_Source\PSoC4/nRF24_FUNCS.c **** }
 363:Generated_Source\PSoC4/nRF24_FUNCS.c **** 
 364:Generated_Source\PSoC4/nRF24_FUNCS.c **** /**
 365:Generated_Source\PSoC4/nRF24_FUNCS.c ****  * @brief Set the address of the RX Pipe 1 in the radio.
 366:Generated_Source\PSoC4/nRF24_FUNCS.c ****  *
 367:Generated_Source\PSoC4/nRF24_FUNCS.c ****  * This function configure the address of the Rx Pipe 1 of the radio.
 368:Generated_Source\PSoC4/nRF24_FUNCS.c ****  *
 369:Generated_Source\PSoC4/nRF24_FUNCS.c ****  * @param const uint8_t* addr:
 370:Generated_Source\PSoC4/nRF24_FUNCS.c ****  * @param size_t size:
 371:Generated_Source\PSoC4/nRF24_FUNCS.c ****  */
 372:Generated_Source\PSoC4/nRF24_FUNCS.c **** void nRF24_set_rx_pipe_1_address(const uint8_t* addr, size_t size)
 373:Generated_Source\PSoC4/nRF24_FUNCS.c **** {
 374:Generated_Source\PSoC4/nRF24_FUNCS.c ****     if (NULL == addr) {
 375:Generated_Source\PSoC4/nRF24_FUNCS.c ****         return;
 376:Generated_Source\PSoC4/nRF24_FUNCS.c ****     }
 377:Generated_Source\PSoC4/nRF24_FUNCS.c **** 
 378:Generated_Source\PSoC4/nRF24_FUNCS.c ****     if (NRF_MAX_ADDR_SIZE < size) {
 379:Generated_Source\PSoC4/nRF24_FUNCS.c ****         size = NRF_MAX_ADDR_SIZE;
 380:Generated_Source\PSoC4/nRF24_FUNCS.c ****     }
 381:Generated_Source\PSoC4/nRF24_FUNCS.c ****     
 382:Generated_Source\PSoC4/nRF24_FUNCS.c ****     nRF24_write_long_register(NRF_RX_ADDR_P1_REG, addr, size);
 383:Generated_Source\PSoC4/nRF24_FUNCS.c **** }
 384:Generated_Source\PSoC4/nRF24_FUNCS.c **** 
 385:Generated_Source\PSoC4/nRF24_FUNCS.c **** /**
 386:Generated_Source\PSoC4/nRF24_FUNCS.c ****  * @brief Get the address of the RX Pipe 1 in the radio.
 387:Generated_Source\PSoC4/nRF24_FUNCS.c ****  *
 388:Generated_Source\PSoC4/nRF24_FUNCS.c ****  * @param uint8_t* addr:
 389:Generated_Source\PSoC4/nRF24_FUNCS.c ****  * @param size_t size:
 390:Generated_Source\PSoC4/nRF24_FUNCS.c ****  */
 391:Generated_Source\PSoC4/nRF24_FUNCS.c **** void nRF24_get_rx_pipe_1_address(uint8_t* addr, size_t size)
 392:Generated_Source\PSoC4/nRF24_FUNCS.c **** {
 393:Generated_Source\PSoC4/nRF24_FUNCS.c ****     if (NULL == addr) {
 394:Generated_Source\PSoC4/nRF24_FUNCS.c ****         return;
 395:Generated_Source\PSoC4/nRF24_FUNCS.c ****     }
 396:Generated_Source\PSoC4/nRF24_FUNCS.c **** 
 397:Generated_Source\PSoC4/nRF24_FUNCS.c ****     if (NRF_MAX_ADDR_SIZE < size) {
 398:Generated_Source\PSoC4/nRF24_FUNCS.c ****         size = NRF_MAX_ADDR_SIZE;
ARM GAS  C:\Users\AFDHAL~1\AppData\Local\Temp\ccielSKc.s 			page 9


 399:Generated_Source\PSoC4/nRF24_FUNCS.c ****     }
 400:Generated_Source\PSoC4/nRF24_FUNCS.c ****     
 401:Generated_Source\PSoC4/nRF24_FUNCS.c ****     nRF24_read_long_register(NRF_RX_ADDR_P1_REG, addr, size);
 402:Generated_Source\PSoC4/nRF24_FUNCS.c **** }
 403:Generated_Source\PSoC4/nRF24_FUNCS.c **** 
 404:Generated_Source\PSoC4/nRF24_FUNCS.c **** /**
 405:Generated_Source\PSoC4/nRF24_FUNCS.c ****  * Set the address of the least significant byte of the Rx Pipe 2 in the radio.
 406:Generated_Source\PSoC4/nRF24_FUNCS.c ****  *
 407:Generated_Source\PSoC4/nRF24_FUNCS.c ****  * @param const uint8_t addr_lsb:
 408:Generated_Source\PSoC4/nRF24_FUNCS.c ****  */
 409:Generated_Source\PSoC4/nRF24_FUNCS.c **** void nRF24_set_rx_pipe_2_address(const uint8_t addr_lsb)
 410:Generated_Source\PSoC4/nRF24_FUNCS.c **** {
 411:Generated_Source\PSoC4/nRF24_FUNCS.c ****     nRF24_write_register(NRF_RX_ADDR_P2_REG, addr_lsb);
 412:Generated_Source\PSoC4/nRF24_FUNCS.c **** }
 413:Generated_Source\PSoC4/nRF24_FUNCS.c **** 
 414:Generated_Source\PSoC4/nRF24_FUNCS.c **** /**
 415:Generated_Source\PSoC4/nRF24_FUNCS.c ****  * Get the address of the Rx Pipe 2.
 416:Generated_Source\PSoC4/nRF24_FUNCS.c ****  *
 417:Generated_Source\PSoC4/nRF24_FUNCS.c ****  * @param uint8_t* addr:
 418:Generated_Source\PSoC4/nRF24_FUNCS.c ****  * @param size_t size:
 419:Generated_Source\PSoC4/nRF24_FUNCS.c ****  */
 420:Generated_Source\PSoC4/nRF24_FUNCS.c **** void nRF24_get_rx_pipe_2_address(uint8_t* addr, size_t size)
 421:Generated_Source\PSoC4/nRF24_FUNCS.c **** {
 422:Generated_Source\PSoC4/nRF24_FUNCS.c ****     if (NULL == addr) {
 423:Generated_Source\PSoC4/nRF24_FUNCS.c ****         return;
 424:Generated_Source\PSoC4/nRF24_FUNCS.c ****     }
 425:Generated_Source\PSoC4/nRF24_FUNCS.c **** 
 426:Generated_Source\PSoC4/nRF24_FUNCS.c ****     if (NRF_MAX_ADDR_SIZE < size) {
 427:Generated_Source\PSoC4/nRF24_FUNCS.c ****         size = NRF_MAX_ADDR_SIZE;
 428:Generated_Source\PSoC4/nRF24_FUNCS.c ****     }
 429:Generated_Source\PSoC4/nRF24_FUNCS.c ****     
 430:Generated_Source\PSoC4/nRF24_FUNCS.c ****     // The pipe2 address is the same as the pipe1 address except the LSB
 431:Generated_Source\PSoC4/nRF24_FUNCS.c ****     nRF24_read_long_register(NRF_RX_ADDR_P1_REG, addr, size - 1);
 432:Generated_Source\PSoC4/nRF24_FUNCS.c ****     addr[size - 1] = nRF24_read_register(NRF_RX_ADDR_P2_REG);
 433:Generated_Source\PSoC4/nRF24_FUNCS.c **** }
 434:Generated_Source\PSoC4/nRF24_FUNCS.c **** 
 435:Generated_Source\PSoC4/nRF24_FUNCS.c **** /**
 436:Generated_Source\PSoC4/nRF24_FUNCS.c ****  * Set the address of the least significant byte of the Rx Pipe 3 in the radio.
 437:Generated_Source\PSoC4/nRF24_FUNCS.c ****  *
 438:Generated_Source\PSoC4/nRF24_FUNCS.c ****  * @param const uint8_t addr_lsb:
 439:Generated_Source\PSoC4/nRF24_FUNCS.c ****  */
 440:Generated_Source\PSoC4/nRF24_FUNCS.c **** void nRF24_set_rx_pipe_3_address(const uint8_t addr_lsb)
 441:Generated_Source\PSoC4/nRF24_FUNCS.c **** {
 442:Generated_Source\PSoC4/nRF24_FUNCS.c ****     nRF24_write_register(NRF_RX_ADDR_P3_REG, addr_lsb);
 443:Generated_Source\PSoC4/nRF24_FUNCS.c **** }
 444:Generated_Source\PSoC4/nRF24_FUNCS.c **** 
 445:Generated_Source\PSoC4/nRF24_FUNCS.c **** /**
 446:Generated_Source\PSoC4/nRF24_FUNCS.c ****  * Get the address of the Rx Pipe 3.
 447:Generated_Source\PSoC4/nRF24_FUNCS.c ****  *
 448:Generated_Source\PSoC4/nRF24_FUNCS.c ****  * @param uint8_t* addr:
 449:Generated_Source\PSoC4/nRF24_FUNCS.c ****  * @param size_t size:
 450:Generated_Source\PSoC4/nRF24_FUNCS.c ****  */
 451:Generated_Source\PSoC4/nRF24_FUNCS.c **** void nRF24_get_rx_pipe_3_address(uint8_t* addr, size_t size)
 452:Generated_Source\PSoC4/nRF24_FUNCS.c **** {
 453:Generated_Source\PSoC4/nRF24_FUNCS.c ****     if (NULL == addr) {
 454:Generated_Source\PSoC4/nRF24_FUNCS.c ****         return;
 455:Generated_Source\PSoC4/nRF24_FUNCS.c ****     }
ARM GAS  C:\Users\AFDHAL~1\AppData\Local\Temp\ccielSKc.s 			page 10


 456:Generated_Source\PSoC4/nRF24_FUNCS.c **** 
 457:Generated_Source\PSoC4/nRF24_FUNCS.c ****     if (NRF_MAX_ADDR_SIZE < size) {
 458:Generated_Source\PSoC4/nRF24_FUNCS.c ****         size = NRF_MAX_ADDR_SIZE;
 459:Generated_Source\PSoC4/nRF24_FUNCS.c ****     }
 460:Generated_Source\PSoC4/nRF24_FUNCS.c ****     
 461:Generated_Source\PSoC4/nRF24_FUNCS.c ****     // The pipe3 address is the same as the pipe1 address except the LSB
 462:Generated_Source\PSoC4/nRF24_FUNCS.c ****     nRF24_read_long_register(NRF_RX_ADDR_P1_REG, addr, size - 1);
 463:Generated_Source\PSoC4/nRF24_FUNCS.c ****     addr[size - 1] = nRF24_read_register(NRF_RX_ADDR_P3_REG);
 464:Generated_Source\PSoC4/nRF24_FUNCS.c **** }
 465:Generated_Source\PSoC4/nRF24_FUNCS.c **** 
 466:Generated_Source\PSoC4/nRF24_FUNCS.c **** /**
 467:Generated_Source\PSoC4/nRF24_FUNCS.c ****  * Set the address of the least significant byte of the Rx Pipe 4 in the radio.
 468:Generated_Source\PSoC4/nRF24_FUNCS.c ****  *
 469:Generated_Source\PSoC4/nRF24_FUNCS.c ****  * @param const uint8_t addr_lsb:
 470:Generated_Source\PSoC4/nRF24_FUNCS.c ****  */
 471:Generated_Source\PSoC4/nRF24_FUNCS.c **** void nRF24_set_rx_pipe_4_address(const uint8_t addr_lsb)
 472:Generated_Source\PSoC4/nRF24_FUNCS.c **** {
 473:Generated_Source\PSoC4/nRF24_FUNCS.c ****     nRF24_write_register(NRF_RX_ADDR_P4_REG, addr_lsb);
 474:Generated_Source\PSoC4/nRF24_FUNCS.c **** }
 475:Generated_Source\PSoC4/nRF24_FUNCS.c **** 
 476:Generated_Source\PSoC4/nRF24_FUNCS.c **** /**
 477:Generated_Source\PSoC4/nRF24_FUNCS.c ****  * Get the address of the Rx Pipe 4.
 478:Generated_Source\PSoC4/nRF24_FUNCS.c ****  *
 479:Generated_Source\PSoC4/nRF24_FUNCS.c ****  * @param uint8_t* addr:
 480:Generated_Source\PSoC4/nRF24_FUNCS.c ****  * @param size_t size:
 481:Generated_Source\PSoC4/nRF24_FUNCS.c ****  */
 482:Generated_Source\PSoC4/nRF24_FUNCS.c **** void nRF24_get_rx_pipe_4_address(uint8_t* addr, size_t size)
 483:Generated_Source\PSoC4/nRF24_FUNCS.c **** {
 484:Generated_Source\PSoC4/nRF24_FUNCS.c ****     if (NULL == addr) {
 485:Generated_Source\PSoC4/nRF24_FUNCS.c ****         return;
 486:Generated_Source\PSoC4/nRF24_FUNCS.c ****     }
 487:Generated_Source\PSoC4/nRF24_FUNCS.c **** 
 488:Generated_Source\PSoC4/nRF24_FUNCS.c ****     if (NRF_MAX_ADDR_SIZE < size) {
 489:Generated_Source\PSoC4/nRF24_FUNCS.c ****         size = NRF_MAX_ADDR_SIZE;
 490:Generated_Source\PSoC4/nRF24_FUNCS.c ****     }
 491:Generated_Source\PSoC4/nRF24_FUNCS.c ****     
 492:Generated_Source\PSoC4/nRF24_FUNCS.c ****     // The pipe4 address is the same as the pipe1 address except the LSB
 493:Generated_Source\PSoC4/nRF24_FUNCS.c ****     nRF24_read_long_register(NRF_RX_ADDR_P1_REG, addr, size - 1);
 494:Generated_Source\PSoC4/nRF24_FUNCS.c ****     addr[size - 1] = nRF24_read_register(NRF_RX_ADDR_P4_REG);
 495:Generated_Source\PSoC4/nRF24_FUNCS.c **** }
 496:Generated_Source\PSoC4/nRF24_FUNCS.c **** 
 497:Generated_Source\PSoC4/nRF24_FUNCS.c **** /**
 498:Generated_Source\PSoC4/nRF24_FUNCS.c ****  * Set the address of the least significant byte of the Rx Pipe 5 in the radio.
 499:Generated_Source\PSoC4/nRF24_FUNCS.c ****  *
 500:Generated_Source\PSoC4/nRF24_FUNCS.c ****  * @param const uint8_t addr_lsb:
 501:Generated_Source\PSoC4/nRF24_FUNCS.c ****  */
 502:Generated_Source\PSoC4/nRF24_FUNCS.c **** void nRF24_set_rx_pipe_5_address(const uint8_t addr_lsb)
 503:Generated_Source\PSoC4/nRF24_FUNCS.c **** {
 504:Generated_Source\PSoC4/nRF24_FUNCS.c ****     nRF24_write_register(NRF_RX_ADDR_P5_REG, addr_lsb);
 505:Generated_Source\PSoC4/nRF24_FUNCS.c **** }
 506:Generated_Source\PSoC4/nRF24_FUNCS.c **** 
 507:Generated_Source\PSoC4/nRF24_FUNCS.c **** /**
 508:Generated_Source\PSoC4/nRF24_FUNCS.c ****  * Get the address of the Rx Pipe 5.
 509:Generated_Source\PSoC4/nRF24_FUNCS.c ****  *
 510:Generated_Source\PSoC4/nRF24_FUNCS.c ****  * @param uint8_t* addr:
 511:Generated_Source\PSoC4/nRF24_FUNCS.c ****  * @param size_t size:
 512:Generated_Source\PSoC4/nRF24_FUNCS.c ****  */
ARM GAS  C:\Users\AFDHAL~1\AppData\Local\Temp\ccielSKc.s 			page 11


 513:Generated_Source\PSoC4/nRF24_FUNCS.c **** void nRF24_get_rx_pipe_5_address(uint8_t* addr, size_t size)
 514:Generated_Source\PSoC4/nRF24_FUNCS.c **** {
 515:Generated_Source\PSoC4/nRF24_FUNCS.c ****     if (NULL == addr) {
 516:Generated_Source\PSoC4/nRF24_FUNCS.c ****         return;
 517:Generated_Source\PSoC4/nRF24_FUNCS.c ****     }
 518:Generated_Source\PSoC4/nRF24_FUNCS.c **** 
 519:Generated_Source\PSoC4/nRF24_FUNCS.c ****     if (NRF_MAX_ADDR_SIZE < size) {
 520:Generated_Source\PSoC4/nRF24_FUNCS.c ****         size = NRF_MAX_ADDR_SIZE;
 521:Generated_Source\PSoC4/nRF24_FUNCS.c ****     }
 522:Generated_Source\PSoC4/nRF24_FUNCS.c ****     
 523:Generated_Source\PSoC4/nRF24_FUNCS.c ****     // The pipe5 address is the same as the pipe1 address except the LSB
 524:Generated_Source\PSoC4/nRF24_FUNCS.c ****     nRF24_read_long_register(NRF_RX_ADDR_P1_REG, addr, size - 1);
 525:Generated_Source\PSoC4/nRF24_FUNCS.c ****     addr[size - 1] = nRF24_read_register(NRF_RX_ADDR_P5_REG);
 526:Generated_Source\PSoC4/nRF24_FUNCS.c **** }
 527:Generated_Source\PSoC4/nRF24_FUNCS.c **** 
 528:Generated_Source\PSoC4/nRF24_FUNCS.c **** /**
 529:Generated_Source\PSoC4/nRF24_FUNCS.c ****  * @brief Set the TX Address of the radio.
 530:Generated_Source\PSoC4/nRF24_FUNCS.c ****  *
 531:Generated_Source\PSoC4/nRF24_FUNCS.c ****  * @param const uint8_t* addr:
 532:Generated_Source\PSoC4/nRF24_FUNCS.c ****  * @param size_t size:
 533:Generated_Source\PSoC4/nRF24_FUNCS.c ****  */
 534:Generated_Source\PSoC4/nRF24_FUNCS.c **** void nRF24_set_tx_address(const uint8_t *const addr, size_t size)
 535:Generated_Source\PSoC4/nRF24_FUNCS.c **** {
 536:Generated_Source\PSoC4/nRF24_FUNCS.c ****     if (NULL == addr) {
 537:Generated_Source\PSoC4/nRF24_FUNCS.c ****         return;
 538:Generated_Source\PSoC4/nRF24_FUNCS.c ****     }
 539:Generated_Source\PSoC4/nRF24_FUNCS.c **** 
 540:Generated_Source\PSoC4/nRF24_FUNCS.c ****     if (NRF_MAX_ADDR_SIZE < size) {
 541:Generated_Source\PSoC4/nRF24_FUNCS.c ****         size = NRF_MAX_ADDR_SIZE;
 542:Generated_Source\PSoC4/nRF24_FUNCS.c ****     }
 543:Generated_Source\PSoC4/nRF24_FUNCS.c ****     
 544:Generated_Source\PSoC4/nRF24_FUNCS.c ****     nRF24_write_long_register(NRF_TX_ADDR_REG, addr, size);
 545:Generated_Source\PSoC4/nRF24_FUNCS.c **** }
 546:Generated_Source\PSoC4/nRF24_FUNCS.c **** 
 547:Generated_Source\PSoC4/nRF24_FUNCS.c **** /**
 548:Generated_Source\PSoC4/nRF24_FUNCS.c ****  * @brief Get the TX Address of the radio.
 549:Generated_Source\PSoC4/nRF24_FUNCS.c ****  *
 550:Generated_Source\PSoC4/nRF24_FUNCS.c ****  * @param const uint8_t* addr:
 551:Generated_Source\PSoC4/nRF24_FUNCS.c ****  * @param const size_t size:
 552:Generated_Source\PSoC4/nRF24_FUNCS.c ****  */
 553:Generated_Source\PSoC4/nRF24_FUNCS.c **** void nRF24_get_tx_address(uint8_t* addr, size_t size)
 554:Generated_Source\PSoC4/nRF24_FUNCS.c **** {
 555:Generated_Source\PSoC4/nRF24_FUNCS.c ****     if (NULL == addr) {
 556:Generated_Source\PSoC4/nRF24_FUNCS.c ****         return;
 557:Generated_Source\PSoC4/nRF24_FUNCS.c ****     }
 558:Generated_Source\PSoC4/nRF24_FUNCS.c **** 
 559:Generated_Source\PSoC4/nRF24_FUNCS.c ****     if (NRF_MAX_ADDR_SIZE < size) {
 560:Generated_Source\PSoC4/nRF24_FUNCS.c ****         size = NRF_MAX_ADDR_SIZE;
 561:Generated_Source\PSoC4/nRF24_FUNCS.c ****     }
 562:Generated_Source\PSoC4/nRF24_FUNCS.c ****     
 563:Generated_Source\PSoC4/nRF24_FUNCS.c ****     nRF24_read_long_register(NRF_TX_ADDR_REG, addr, size);
 564:Generated_Source\PSoC4/nRF24_FUNCS.c **** }
 565:Generated_Source\PSoC4/nRF24_FUNCS.c **** 
 566:Generated_Source\PSoC4/nRF24_FUNCS.c **** /**
 567:Generated_Source\PSoC4/nRF24_FUNCS.c ****  * @brief Set the payload size of the given pipe.
 568:Generated_Source\PSoC4/nRF24_FUNCS.c ****  *
 569:Generated_Source\PSoC4/nRF24_FUNCS.c ****  * Configure the payload size of the given pipe.
ARM GAS  C:\Users\AFDHAL~1\AppData\Local\Temp\ccielSKc.s 			page 12


 570:Generated_Source\PSoC4/nRF24_FUNCS.c ****  *
 571:Generated_Source\PSoC4/nRF24_FUNCS.c ****  * @param const nrf_pipe pipe:
 572:Generated_Source\PSoC4/nRF24_FUNCS.c ****  * @param uint8_t size:
 573:Generated_Source\PSoC4/nRF24_FUNCS.c ****  */
 574:Generated_Source\PSoC4/nRF24_FUNCS.c **** void nRF24_set_payload_size(const nrf_pipe_payload_size pipe, uint8_t size)
 575:Generated_Source\PSoC4/nRF24_FUNCS.c **** {
 576:Generated_Source\PSoC4/nRF24_FUNCS.c ****     if (NRF_MAX_PAYLOAD_SIZE < size) {
 577:Generated_Source\PSoC4/nRF24_FUNCS.c ****         size = NRF_MAX_PAYLOAD_SIZE;
 578:Generated_Source\PSoC4/nRF24_FUNCS.c ****     }
 579:Generated_Source\PSoC4/nRF24_FUNCS.c ****     
 580:Generated_Source\PSoC4/nRF24_FUNCS.c ****     nRF24_write_register(pipe, size);
 581:Generated_Source\PSoC4/nRF24_FUNCS.c **** }
 582:Generated_Source\PSoC4/nRF24_FUNCS.c **** 
 583:Generated_Source\PSoC4/nRF24_FUNCS.c **** /**
 584:Generated_Source\PSoC4/nRF24_FUNCS.c ****  * Get the payload size of the given pipe.
 585:Generated_Source\PSoC4/nRF24_FUNCS.c ****  *
 586:Generated_Source\PSoC4/nRF24_FUNCS.c ****  * @param const nrf_pipe pipe: Pipe to be read.
 587:Generated_Source\PSoC4/nRF24_FUNCS.c ****  *
 588:Generated_Source\PSoC4/nRF24_FUNCS.c ****  * @return uint8_t: Configured payload size of the given pipe.
 589:Generated_Source\PSoC4/nRF24_FUNCS.c ****  */
 590:Generated_Source\PSoC4/nRF24_FUNCS.c **** uint8_t nRF24_get_payload_size(const nrf_pipe_payload_size pipe)
 591:Generated_Source\PSoC4/nRF24_FUNCS.c **** {
 592:Generated_Source\PSoC4/nRF24_FUNCS.c ****     return nRF24_read_register(pipe);
 593:Generated_Source\PSoC4/nRF24_FUNCS.c **** }
 594:Generated_Source\PSoC4/nRF24_FUNCS.c **** 
 595:Generated_Source\PSoC4/nRF24_FUNCS.c **** /**
 596:Generated_Source\PSoC4/nRF24_FUNCS.c ****  * @brief Reuse last transmitted payload.
 597:Generated_Source\PSoC4/nRF24_FUNCS.c ****  *
 598:Generated_Source\PSoC4/nRF24_FUNCS.c ****  * This function issue the command ReuseTxPayload and then toggle the CE pin
 599:Generated_Source\PSoC4/nRF24_FUNCS.c ****  * to transmit the last transmitted payload.
 600:Generated_Source\PSoC4/nRF24_FUNCS.c ****  */
 601:Generated_Source\PSoC4/nRF24_FUNCS.c **** void nRF24_reuse_last_transmitted_payload(void)
 602:Generated_Source\PSoC4/nRF24_FUNCS.c **** {
 603:Generated_Source\PSoC4/nRF24_FUNCS.c ****     nRF24_reuse_tx_payload_cmd();
 604:Generated_Source\PSoC4/nRF24_FUNCS.c ****     nRF24_transmit_pulse();
 605:Generated_Source\PSoC4/nRF24_FUNCS.c **** }
 606:Generated_Source\PSoC4/nRF24_FUNCS.c **** 
 607:Generated_Source\PSoC4/nRF24_FUNCS.c **** /**
 608:Generated_Source\PSoC4/nRF24_FUNCS.c ****  * @brief Enable dynamic payload on the given pipe.
 609:Generated_Source\PSoC4/nRF24_FUNCS.c ****  *
 610:Generated_Source\PSoC4/nRF24_FUNCS.c ****  * @param const nrf_pipe pipe:
 611:Generated_Source\PSoC4/nRF24_FUNCS.c ****  */
 612:Generated_Source\PSoC4/nRF24_FUNCS.c **** void nRF24_enable_dynamic_payload(const nrf_pipe pipe)
 613:Generated_Source\PSoC4/nRF24_FUNCS.c **** {
 614:Generated_Source\PSoC4/nRF24_FUNCS.c ****     nRF24_set_bit(NRF_EN_AA_REG, pipe);
 615:Generated_Source\PSoC4/nRF24_FUNCS.c ****     nRF24_set_bit(NRF_FEATURE_REG, NRF_FEATURE_EN_ACK_PAY);
 616:Generated_Source\PSoC4/nRF24_FUNCS.c ****     nRF24_set_bit(NRF_FEATURE_REG, NRF_FEATURE_EN_DPL);
 617:Generated_Source\PSoC4/nRF24_FUNCS.c ****     nRF24_set_bit(NRF_DYNPD_REG, pipe);
 618:Generated_Source\PSoC4/nRF24_FUNCS.c **** }
 619:Generated_Source\PSoC4/nRF24_FUNCS.c **** 
 620:Generated_Source\PSoC4/nRF24_FUNCS.c **** /**
 621:Generated_Source\PSoC4/nRF24_FUNCS.c ****  * @brief Disable dynamic payload on the given pipe.
 622:Generated_Source\PSoC4/nRF24_FUNCS.c ****  *
 623:Generated_Source\PSoC4/nRF24_FUNCS.c ****  * @param const nrf_pipe pipe:
 624:Generated_Source\PSoC4/nRF24_FUNCS.c ****  */
 625:Generated_Source\PSoC4/nRF24_FUNCS.c **** void nRF24_disable_dynamic_payload(const nrf_pipe pipe)
 626:Generated_Source\PSoC4/nRF24_FUNCS.c **** {
ARM GAS  C:\Users\AFDHAL~1\AppData\Local\Temp\ccielSKc.s 			page 13


 627:Generated_Source\PSoC4/nRF24_FUNCS.c ****     nRF24_clear_bit(NRF_EN_AA_REG, pipe);
 628:Generated_Source\PSoC4/nRF24_FUNCS.c ****     nRF24_clear_bit(NRF_FEATURE_REG, NRF_FEATURE_EN_ACK_PAY);
 629:Generated_Source\PSoC4/nRF24_FUNCS.c ****     nRF24_clear_bit(NRF_FEATURE_REG, NRF_FEATURE_EN_DPL);
 630:Generated_Source\PSoC4/nRF24_FUNCS.c ****     nRF24_clear_bit(NRF_DYNPD_REG, pipe);
 631:Generated_Source\PSoC4/nRF24_FUNCS.c **** }
 632:Generated_Source\PSoC4/nRF24_FUNCS.c **** 
 633:Generated_Source\PSoC4/nRF24_FUNCS.c **** /**
 634:Generated_Source\PSoC4/nRF24_FUNCS.c ****  * @brief Enable dinamic payload length.
 635:Generated_Source\PSoC4/nRF24_FUNCS.c ****  */
 636:Generated_Source\PSoC4/nRF24_FUNCS.c **** void nRF24_enable_dynamic_payload_length(void)
 637:Generated_Source\PSoC4/nRF24_FUNCS.c **** {
 638:Generated_Source\PSoC4/nRF24_FUNCS.c ****     nRF24_set_bit(NRF_FEATURE_REG, NRF_FEATURE_EN_DPL);
 639:Generated_Source\PSoC4/nRF24_FUNCS.c **** }
 640:Generated_Source\PSoC4/nRF24_FUNCS.c **** 
 641:Generated_Source\PSoC4/nRF24_FUNCS.c **** /**
 642:Generated_Source\PSoC4/nRF24_FUNCS.c ****  * @brief Disable dynamic payload length.
 643:Generated_Source\PSoC4/nRF24_FUNCS.c ****  */
 644:Generated_Source\PSoC4/nRF24_FUNCS.c **** void nRF24_disable_dynamic_payload_length(void)
 645:Generated_Source\PSoC4/nRF24_FUNCS.c **** {
 646:Generated_Source\PSoC4/nRF24_FUNCS.c ****     nRF24_clear_bit(NRF_FEATURE_REG, NRF_FEATURE_EN_DPL);
 647:Generated_Source\PSoC4/nRF24_FUNCS.c **** }
 648:Generated_Source\PSoC4/nRF24_FUNCS.c **** 
 649:Generated_Source\PSoC4/nRF24_FUNCS.c **** /**
 650:Generated_Source\PSoC4/nRF24_FUNCS.c ****  * @brief Enable payload with ACK.
 651:Generated_Source\PSoC4/nRF24_FUNCS.c ****  */
 652:Generated_Source\PSoC4/nRF24_FUNCS.c **** void nRF24_enable_payload_with_ack(void)
 653:Generated_Source\PSoC4/nRF24_FUNCS.c **** {
 654:Generated_Source\PSoC4/nRF24_FUNCS.c ****     nRF24_set_bit(NRF_FEATURE_REG, NRF_FEATURE_EN_ACK_PAY);
 655:Generated_Source\PSoC4/nRF24_FUNCS.c **** }
 656:Generated_Source\PSoC4/nRF24_FUNCS.c **** 
 657:Generated_Source\PSoC4/nRF24_FUNCS.c **** /**
 658:Generated_Source\PSoC4/nRF24_FUNCS.c ****  * @brief Disable Payload with ACK.
 659:Generated_Source\PSoC4/nRF24_FUNCS.c ****  */
 660:Generated_Source\PSoC4/nRF24_FUNCS.c **** void nRF24_disable_payload_with_ack(void)
 661:Generated_Source\PSoC4/nRF24_FUNCS.c **** {
 662:Generated_Source\PSoC4/nRF24_FUNCS.c ****     nRF24_clear_bit(NRF_FEATURE_REG, NRF_FEATURE_EN_ACK_PAY);
 663:Generated_Source\PSoC4/nRF24_FUNCS.c **** }
 664:Generated_Source\PSoC4/nRF24_FUNCS.c **** 
 665:Generated_Source\PSoC4/nRF24_FUNCS.c **** /**
 666:Generated_Source\PSoC4/nRF24_FUNCS.c ****  * @brief Enable dynamic payload length.
 667:Generated_Source\PSoC4/nRF24_FUNCS.c ****  */
 668:Generated_Source\PSoC4/nRF24_FUNCS.c **** void nRF24_enable_payload_with_no_ack_cmd(void)
 669:Generated_Source\PSoC4/nRF24_FUNCS.c **** {
 670:Generated_Source\PSoC4/nRF24_FUNCS.c ****     nRF24_set_bit(NRF_FEATURE_REG, NRF_FEATURE_EN_DYN_ACK);
 671:Generated_Source\PSoC4/nRF24_FUNCS.c **** }
 672:Generated_Source\PSoC4/nRF24_FUNCS.c **** 
 673:Generated_Source\PSoC4/nRF24_FUNCS.c **** /**
 674:Generated_Source\PSoC4/nRF24_FUNCS.c ****  * @brief Disable Payload with no ACK.
 675:Generated_Source\PSoC4/nRF24_FUNCS.c ****  */
 676:Generated_Source\PSoC4/nRF24_FUNCS.c **** void nRF24_disable_payload_with_no_ack_cmd(void)
 677:Generated_Source\PSoC4/nRF24_FUNCS.c **** {
 678:Generated_Source\PSoC4/nRF24_FUNCS.c ****     nRF24_clear_bit(NRF_FEATURE_REG, NRF_FEATURE_EN_DYN_ACK);
 679:Generated_Source\PSoC4/nRF24_FUNCS.c **** }
 680:Generated_Source\PSoC4/nRF24_FUNCS.c **** 
 681:Generated_Source\PSoC4/nRF24_FUNCS.c **** /**
 682:Generated_Source\PSoC4/nRF24_FUNCS.c ****  * @brief Set the value of the CE pin to listen or not.
 683:Generated_Source\PSoC4/nRF24_FUNCS.c ****  *
ARM GAS  C:\Users\AFDHAL~1\AppData\Local\Temp\ccielSKc.s 			page 14


 684:Generated_Source\PSoC4/nRF24_FUNCS.c ****  * @param const bool listen: If @listen is set to true, then the radio will
 685:Generated_Source\PSoC4/nRF24_FUNCS.c ****  * listen, if set to false the radio will stop listening.
 686:Generated_Source\PSoC4/nRF24_FUNCS.c ****  
 687:Generated_Source\PSoC4/nRF24_FUNCS.c **** void nRF24_listen(const bool listen)
 688:Generated_Source\PSoC4/nRF24_FUNCS.c **** {
 689:Generated_Source\PSoC4/nRF24_FUNCS.c **** #if defined(CY_GPIO_H)
 690:Generated_Source\PSoC4/nRF24_FUNCS.c ****     listen ? Cy_GPIO_Set(CE_PORT, CE_NUM) : 
 691:Generated_Source\PSoC4/nRF24_FUNCS.c ****             Cy_GPIO_Clr(CE_PORT, CE_NUM);
 692:Generated_Source\PSoC4/nRF24_FUNCS.c **** #else
 693:Generated_Source\PSoC4/nRF24_FUNCS.c ****     listen ? CE_Write(1) : CE_Write(0);
 694:Generated_Source\PSoC4/nRF24_FUNCS.c **** #endif
 695:Generated_Source\PSoC4/nRF24_FUNCS.c **** }
 696:Generated_Source\PSoC4/nRF24_FUNCS.c **** */
 697:Generated_Source\PSoC4/nRF24_FUNCS.c **** 
 698:Generated_Source\PSoC4/nRF24_FUNCS.c **** /**
 699:Generated_Source\PSoC4/nRF24_FUNCS.c ****  * @brief The nRF24 radio will start listening.
 700:Generated_Source\PSoC4/nRF24_FUNCS.c ****  *
 701:Generated_Source\PSoC4/nRF24_FUNCS.c ****  * This function set the pin CE to logic high, this enable the radio for
 702:Generated_Source\PSoC4/nRF24_FUNCS.c ****  * listening.
 703:Generated_Source\PSoC4/nRF24_FUNCS.c ****  */
 704:Generated_Source\PSoC4/nRF24_FUNCS.c **** void nRF24_start_listening(void)
 705:Generated_Source\PSoC4/nRF24_FUNCS.c **** {
 706:Generated_Source\PSoC4/nRF24_FUNCS.c **** #if 0
 707:Generated_Source\PSoC4/nRF24_FUNCS.c ****     nRF24_listen(true);
 708:Generated_Source\PSoC4/nRF24_FUNCS.c **** #else
 709:Generated_Source\PSoC4/nRF24_FUNCS.c ****     #if defined(CY_GPIO_H)
 710:Generated_Source\PSoC4/nRF24_FUNCS.c ****     Cy_GPIO_Set(CE_PORT, CE_NUM);
 711:Generated_Source\PSoC4/nRF24_FUNCS.c ****     #else
 712:Generated_Source\PSoC4/nRF24_FUNCS.c ****     CE_Write(1);
 713:Generated_Source\PSoC4/nRF24_FUNCS.c ****     #endif
 714:Generated_Source\PSoC4/nRF24_FUNCS.c **** #endif
 715:Generated_Source\PSoC4/nRF24_FUNCS.c **** }
 716:Generated_Source\PSoC4/nRF24_FUNCS.c **** 
 717:Generated_Source\PSoC4/nRF24_FUNCS.c **** /**
 718:Generated_Source\PSoC4/nRF24_FUNCS.c ****  * @brief The nRF24 radio will stop listening.
 719:Generated_Source\PSoC4/nRF24_FUNCS.c ****  *
 720:Generated_Source\PSoC4/nRF24_FUNCS.c ****  * This function the pin CE of the nRF24 radio will be set to logic low,
 721:Generated_Source\PSoC4/nRF24_FUNCS.c ****  * this disable the radio for listening.
 722:Generated_Source\PSoC4/nRF24_FUNCS.c ****  */
 723:Generated_Source\PSoC4/nRF24_FUNCS.c **** void nRF24_stop_listening(void)
 724:Generated_Source\PSoC4/nRF24_FUNCS.c **** {
 725:Generated_Source\PSoC4/nRF24_FUNCS.c **** #if 0
 726:Generated_Source\PSoC4/nRF24_FUNCS.c ****     nRF24_listen(false);
 727:Generated_Source\PSoC4/nRF24_FUNCS.c **** #else
 728:Generated_Source\PSoC4/nRF24_FUNCS.c ****     #if defined(CY_GPIO_H)
 729:Generated_Source\PSoC4/nRF24_FUNCS.c ****     Cy_GPIO_Clr(CE_PORT, CE_NUM);
 730:Generated_Source\PSoC4/nRF24_FUNCS.c ****     #else
 731:Generated_Source\PSoC4/nRF24_FUNCS.c ****     CE_Write(0);
 732:Generated_Source\PSoC4/nRF24_FUNCS.c ****     #endif
 733:Generated_Source\PSoC4/nRF24_FUNCS.c **** #endif
 734:Generated_Source\PSoC4/nRF24_FUNCS.c **** }
 735:Generated_Source\PSoC4/nRF24_FUNCS.c **** 
 736:Generated_Source\PSoC4/nRF24_FUNCS.c **** /**
 737:Generated_Source\PSoC4/nRF24_FUNCS.c ****  * @brief Transmit pulse on the CE pin.
 738:Generated_Source\PSoC4/nRF24_FUNCS.c ****  *
 739:Generated_Source\PSoC4/nRF24_FUNCS.c ****  * With this function the CE pin of the nRF24 radio will have a pulse of 15us,
 740:Generated_Source\PSoC4/nRF24_FUNCS.c ****  * this pulse trigger a transmission of the content of the TX FIFO.
ARM GAS  C:\Users\AFDHAL~1\AppData\Local\Temp\ccielSKc.s 			page 15


 741:Generated_Source\PSoC4/nRF24_FUNCS.c ****  */
 742:Generated_Source\PSoC4/nRF24_FUNCS.c **** void nRF24_transmit_pulse(void)
 743:Generated_Source\PSoC4/nRF24_FUNCS.c **** {
 744:Generated_Source\PSoC4/nRF24_FUNCS.c **** #if defined(CY_GPIO_H)
 745:Generated_Source\PSoC4/nRF24_FUNCS.c ****     Cy_GPIO_Set(CE_PORT, CE_NUM);
 746:Generated_Source\PSoC4/nRF24_FUNCS.c ****     CyDelayUs(NRF_CE_PULSE_WIDTH);
 747:Generated_Source\PSoC4/nRF24_FUNCS.c ****     Cy_GPIO_Clr(CE_PORT, CE_NUM);
 748:Generated_Source\PSoC4/nRF24_FUNCS.c **** #else
 749:Generated_Source\PSoC4/nRF24_FUNCS.c ****     CE_Write(1);
 750:Generated_Source\PSoC4/nRF24_FUNCS.c ****     CyDelayUs(NRF_CE_PULSE_WIDTH);
 751:Generated_Source\PSoC4/nRF24_FUNCS.c ****     CE_Write(0);
 752:Generated_Source\PSoC4/nRF24_FUNCS.c **** #endif
 753:Generated_Source\PSoC4/nRF24_FUNCS.c **** }
 754:Generated_Source\PSoC4/nRF24_FUNCS.c **** 
 755:Generated_Source\PSoC4/nRF24_FUNCS.c **** /**
 756:Generated_Source\PSoC4/nRF24_FUNCS.c ****  * @brief Get the STATUS register of the nRF24.
 757:Generated_Source\PSoC4/nRF24_FUNCS.c ****  *
 758:Generated_Source\PSoC4/nRF24_FUNCS.c ****  * @return uint8_t: STATUS register of the nRF24.
 759:Generated_Source\PSoC4/nRF24_FUNCS.c ****  */
 760:Generated_Source\PSoC4/nRF24_FUNCS.c **** uint8_t nRF24_get_status(void)
 761:Generated_Source\PSoC4/nRF24_FUNCS.c **** {
 762:Generated_Source\PSoC4/nRF24_FUNCS.c ****     return nRF24_nop_cmd();
 763:Generated_Source\PSoC4/nRF24_FUNCS.c **** }
 764:Generated_Source\PSoC4/nRF24_FUNCS.c **** 
 765:Generated_Source\PSoC4/nRF24_FUNCS.c **** /**
 766:Generated_Source\PSoC4/nRF24_FUNCS.c ****  * @brief Get the number of retransmissions.
 767:Generated_Source\PSoC4/nRF24_FUNCS.c ****  *
 768:Generated_Source\PSoC4/nRF24_FUNCS.c ****  * @return uint8_t: Retransmissions count.
 769:Generated_Source\PSoC4/nRF24_FUNCS.c ****  */
 770:Generated_Source\PSoC4/nRF24_FUNCS.c **** uint8_t nRF24_get_retransmissions_count(void)
 771:Generated_Source\PSoC4/nRF24_FUNCS.c **** {
 772:Generated_Source\PSoC4/nRF24_FUNCS.c ****     uint8_t count = nRF24_read_register(NRF_OBSERVE_TX_REG);
 773:Generated_Source\PSoC4/nRF24_FUNCS.c ****     return count & NRF_OBSERVE_TX_ARC_CNT_MASK;
 774:Generated_Source\PSoC4/nRF24_FUNCS.c **** }
 775:Generated_Source\PSoC4/nRF24_FUNCS.c **** 
 776:Generated_Source\PSoC4/nRF24_FUNCS.c **** /**
 777:Generated_Source\PSoC4/nRF24_FUNCS.c ****  * @brief Get the number of lost packets.
 778:Generated_Source\PSoC4/nRF24_FUNCS.c ****  *
 779:Generated_Source\PSoC4/nRF24_FUNCS.c ****  * @return uint8_t: Lost packets.
 780:Generated_Source\PSoC4/nRF24_FUNCS.c ****  */
 781:Generated_Source\PSoC4/nRF24_FUNCS.c **** uint8_t nRF24_get_lost_packets_count(void)
 782:Generated_Source\PSoC4/nRF24_FUNCS.c **** {
 783:Generated_Source\PSoC4/nRF24_FUNCS.c ****     uint8_t lostPackets = nRF24_read_register(NRF_OBSERVE_TX_REG);
 784:Generated_Source\PSoC4/nRF24_FUNCS.c ****     lostPackets = lostPackets & NRF_OBSERVE_TX_PLOS_CNT_MASK;
 785:Generated_Source\PSoC4/nRF24_FUNCS.c ****     return lostPackets >> NRF_OBSERVE_TX_PLOS_CNT;
 786:Generated_Source\PSoC4/nRF24_FUNCS.c **** }
 787:Generated_Source\PSoC4/nRF24_FUNCS.c **** 
 788:Generated_Source\PSoC4/nRF24_FUNCS.c **** /**
 789:Generated_Source\PSoC4/nRF24_FUNCS.c ****  * Put data into the TX FIFO wihout sending it.
 790:Generated_Source\PSoC4/nRF24_FUNCS.c ****  *
 791:Generated_Source\PSoC4/nRF24_FUNCS.c ****  * @param const uint8_t* data:
 792:Generated_Source\PSoC4/nRF24_FUNCS.c ****  * @param const size_t size:
 793:Generated_Source\PSoC4/nRF24_FUNCS.c ****  */
 794:Generated_Source\PSoC4/nRF24_FUNCS.c **** void nRF24_put_in_tx_fifo(const uint8_t* data, size_t size)
 795:Generated_Source\PSoC4/nRF24_FUNCS.c **** {
 796:Generated_Source\PSoC4/nRF24_FUNCS.c ****     if (NULL == data) {
 797:Generated_Source\PSoC4/nRF24_FUNCS.c ****         return;
ARM GAS  C:\Users\AFDHAL~1\AppData\Local\Temp\ccielSKc.s 			page 16


 798:Generated_Source\PSoC4/nRF24_FUNCS.c ****     }
 799:Generated_Source\PSoC4/nRF24_FUNCS.c **** 
 800:Generated_Source\PSoC4/nRF24_FUNCS.c ****     if (NRF_MAX_PAYLOAD_SIZE < size) {
 801:Generated_Source\PSoC4/nRF24_FUNCS.c ****         size = NRF_MAX_PAYLOAD_SIZE;
 802:Generated_Source\PSoC4/nRF24_FUNCS.c ****     }
 803:Generated_Source\PSoC4/nRF24_FUNCS.c ****     
 804:Generated_Source\PSoC4/nRF24_FUNCS.c ****     nRF24_write_tx_payload_cmd(data, size);
 805:Generated_Source\PSoC4/nRF24_FUNCS.c **** }
 806:Generated_Source\PSoC4/nRF24_FUNCS.c **** 
 807:Generated_Source\PSoC4/nRF24_FUNCS.c **** /**
 808:Generated_Source\PSoC4/nRF24_FUNCS.c ****  * Put data in TX FIFO and transmit it.
 809:Generated_Source\PSoC4/nRF24_FUNCS.c ****  *
 810:Generated_Source\PSoC4/nRF24_FUNCS.c ****  * @param const uint8_t* data:
 811:Generated_Source\PSoC4/nRF24_FUNCS.c ****  * @param const size_t size:
 812:Generated_Source\PSoC4/nRF24_FUNCS.c ****  */
 813:Generated_Source\PSoC4/nRF24_FUNCS.c **** void nRF24_transmit(const uint8_t* data, size_t size)
 814:Generated_Source\PSoC4/nRF24_FUNCS.c **** {
 815:Generated_Source\PSoC4/nRF24_FUNCS.c ****     if (NULL == data) {
 816:Generated_Source\PSoC4/nRF24_FUNCS.c ****         return;
 817:Generated_Source\PSoC4/nRF24_FUNCS.c ****     }
 818:Generated_Source\PSoC4/nRF24_FUNCS.c ****     
 819:Generated_Source\PSoC4/nRF24_FUNCS.c ****     if (NRF_MAX_PAYLOAD_SIZE < size) {
 820:Generated_Source\PSoC4/nRF24_FUNCS.c ****         size = NRF_MAX_PAYLOAD_SIZE;
 821:Generated_Source\PSoC4/nRF24_FUNCS.c ****     }
 822:Generated_Source\PSoC4/nRF24_FUNCS.c **** 
 823:Generated_Source\PSoC4/nRF24_FUNCS.c ****     nRF24_put_in_tx_fifo(data, size);
 824:Generated_Source\PSoC4/nRF24_FUNCS.c ****     nRF24_transmit_pulse();
 825:Generated_Source\PSoC4/nRF24_FUNCS.c **** }
 826:Generated_Source\PSoC4/nRF24_FUNCS.c **** 
 827:Generated_Source\PSoC4/nRF24_FUNCS.c **** /**
 828:Generated_Source\PSoC4/nRF24_FUNCS.c ****  * @brief
 829:Generated_Source\PSoC4/nRF24_FUNCS.c ****  *
 830:Generated_Source\PSoC4/nRF24_FUNCS.c ****  * @return bool: True if there's data ready.
 831:Generated_Source\PSoC4/nRF24_FUNCS.c ****  */
 832:Generated_Source\PSoC4/nRF24_FUNCS.c **** bool nRF24_is_data_ready(void)
 833:Generated_Source\PSoC4/nRF24_FUNCS.c **** {
 834:Generated_Source\PSoC4/nRF24_FUNCS.c ****     return NRF_STATUS_RX_DR_MASK & nRF24_get_status();
 835:Generated_Source\PSoC4/nRF24_FUNCS.c **** }
 836:Generated_Source\PSoC4/nRF24_FUNCS.c **** 
 837:Generated_Source\PSoC4/nRF24_FUNCS.c **** /**
 838:Generated_Source\PSoC4/nRF24_FUNCS.c ****  * @brief
 839:Generated_Source\PSoC4/nRF24_FUNCS.c ****  *
 840:Generated_Source\PSoC4/nRF24_FUNCS.c ****  * @param uint8_t* data:
 841:Generated_Source\PSoC4/nRF24_FUNCS.c ****  * @param const size_t size:
 842:Generated_Source\PSoC4/nRF24_FUNCS.c ****  */
 843:Generated_Source\PSoC4/nRF24_FUNCS.c **** void nRF24_get_rx_payload(uint8_t* data, const size_t size)
 844:Generated_Source\PSoC4/nRF24_FUNCS.c **** {
 845:Generated_Source\PSoC4/nRF24_FUNCS.c ****     if (NULL == data) {
 846:Generated_Source\PSoC4/nRF24_FUNCS.c ****         return;
 847:Generated_Source\PSoC4/nRF24_FUNCS.c ****     }
 848:Generated_Source\PSoC4/nRF24_FUNCS.c **** #if defined(CY_GPIO_H)
 849:Generated_Source\PSoC4/nRF24_FUNCS.c ****     Cy_GPIO_Clr(CE_PORT, CE_NUM);
 850:Generated_Source\PSoC4/nRF24_FUNCS.c ****     nRF24_read_rx_payload_cmd(data, size);
 851:Generated_Source\PSoC4/nRF24_FUNCS.c ****     Cy_GPIO_Set(CE_PORT, CE_NUM);
 852:Generated_Source\PSoC4/nRF24_FUNCS.c **** #else
 853:Generated_Source\PSoC4/nRF24_FUNCS.c ****     CE_Write(0);
 854:Generated_Source\PSoC4/nRF24_FUNCS.c ****     nRF24_read_rx_payload_cmd(data, size);
ARM GAS  C:\Users\AFDHAL~1\AppData\Local\Temp\ccielSKc.s 			page 17


 855:Generated_Source\PSoC4/nRF24_FUNCS.c ****     CE_Write(1);
 856:Generated_Source\PSoC4/nRF24_FUNCS.c **** #endif
 857:Generated_Source\PSoC4/nRF24_FUNCS.c **** }
 858:Generated_Source\PSoC4/nRF24_FUNCS.c **** 
 859:Generated_Source\PSoC4/nRF24_FUNCS.c **** /**
 860:Generated_Source\PSoC4/nRF24_FUNCS.c ****  * @brief
 861:Generated_Source\PSoC4/nRF24_FUNCS.c ****  *
 862:Generated_Source\PSoC4/nRF24_FUNCS.c ****  * @param const uint8_t* data:
 863:Generated_Source\PSoC4/nRF24_FUNCS.c ****  * @param size_t size:
 864:Generated_Source\PSoC4/nRF24_FUNCS.c ****  */
 865:Generated_Source\PSoC4/nRF24_FUNCS.c **** void nRF24_tx_transmit_wait_no_ack(const uint8_t* data, size_t size)
 866:Generated_Source\PSoC4/nRF24_FUNCS.c **** {
 867:Generated_Source\PSoC4/nRF24_FUNCS.c ****     if (NULL == data) {
 868:Generated_Source\PSoC4/nRF24_FUNCS.c ****         return;
 869:Generated_Source\PSoC4/nRF24_FUNCS.c ****     }
 870:Generated_Source\PSoC4/nRF24_FUNCS.c **** 
 871:Generated_Source\PSoC4/nRF24_FUNCS.c ****     if (NRF_MAX_PAYLOAD_SIZE < size) {
 872:Generated_Source\PSoC4/nRF24_FUNCS.c ****         return;
 873:Generated_Source\PSoC4/nRF24_FUNCS.c ****     }
 874:Generated_Source\PSoC4/nRF24_FUNCS.c ****     
 875:Generated_Source\PSoC4/nRF24_FUNCS.c ****     nRF24_no_ack_payload_cmd(data, size);
 876:Generated_Source\PSoC4/nRF24_FUNCS.c ****     nRF24_transmit_pulse();
 877:Generated_Source\PSoC4/nRF24_FUNCS.c **** }
 878:Generated_Source\PSoC4/nRF24_FUNCS.c **** 
 879:Generated_Source\PSoC4/nRF24_FUNCS.c **** /**
 880:Generated_Source\PSoC4/nRF24_FUNCS.c ****  * @brief
 881:Generated_Source\PSoC4/nRF24_FUNCS.c ****  *
 882:Generated_Source\PSoC4/nRF24_FUNCS.c ****  * @param const nrf_pipe pipe:
 883:Generated_Source\PSoC4/nRF24_FUNCS.c ****  * @param const uint8_t* data:
 884:Generated_Source\PSoC4/nRF24_FUNCS.c ****  * @param size_t size:
 885:Generated_Source\PSoC4/nRF24_FUNCS.c ****  */
 886:Generated_Source\PSoC4/nRF24_FUNCS.c **** void nRF24_rx_write_payload(const nrf_pipe pipe, const uint8_t* data,
 887:Generated_Source\PSoC4/nRF24_FUNCS.c ****                                      size_t size)
 888:Generated_Source\PSoC4/nRF24_FUNCS.c **** {
 889:Generated_Source\PSoC4/nRF24_FUNCS.c ****     if (NULL == data) {
 890:Generated_Source\PSoC4/nRF24_FUNCS.c ****         return;
 891:Generated_Source\PSoC4/nRF24_FUNCS.c ****     }
 892:Generated_Source\PSoC4/nRF24_FUNCS.c **** 
 893:Generated_Source\PSoC4/nRF24_FUNCS.c ****     if (NRF_MAX_PAYLOAD_SIZE < size) {
 894:Generated_Source\PSoC4/nRF24_FUNCS.c ****         size = NRF_MAX_PAYLOAD_SIZE;
 895:Generated_Source\PSoC4/nRF24_FUNCS.c ****     }
 896:Generated_Source\PSoC4/nRF24_FUNCS.c ****     
 897:Generated_Source\PSoC4/nRF24_FUNCS.c ****     nRF24_write_ack_payload_cmd(pipe, data, size);
 898:Generated_Source\PSoC4/nRF24_FUNCS.c **** }
 899:Generated_Source\PSoC4/nRF24_FUNCS.c **** 
 900:Generated_Source\PSoC4/nRF24_FUNCS.c **** /**
 901:Generated_Source\PSoC4/nRF24_FUNCS.c ****  * Return the pipe number with data.
 902:Generated_Source\PSoC4/nRF24_FUNCS.c ****  *
 903:Generated_Source\PSoC4/nRF24_FUNCS.c ****  * @return uint8_t:
 904:Generated_Source\PSoC4/nRF24_FUNCS.c ****  */
 905:Generated_Source\PSoC4/nRF24_FUNCS.c **** uint8_t nRF24_get_data_pipe_with_payload(void)
 906:Generated_Source\PSoC4/nRF24_FUNCS.c **** {
 907:Generated_Source\PSoC4/nRF24_FUNCS.c ****     uint8_t pipe = nRF24_read_register(NRF_STATUS_REG);
 908:Generated_Source\PSoC4/nRF24_FUNCS.c ****     return (pipe & NRF_STATUS_PIPES_MASK) >> NRF_STATUS_PIPES_SHIFT;
 909:Generated_Source\PSoC4/nRF24_FUNCS.c **** }
 910:Generated_Source\PSoC4/nRF24_FUNCS.c **** 
 911:Generated_Source\PSoC4/nRF24_FUNCS.c **** /**
ARM GAS  C:\Users\AFDHAL~1\AppData\Local\Temp\ccielSKc.s 			page 18


 912:Generated_Source\PSoC4/nRF24_FUNCS.c ****  * @brief
 913:Generated_Source\PSoC4/nRF24_FUNCS.c ****  *
 914:Generated_Source\PSoC4/nRF24_FUNCS.c ****  * @return uint8_t:
 915:Generated_Source\PSoC4/nRF24_FUNCS.c ****  */
 916:Generated_Source\PSoC4/nRF24_FUNCS.c **** uint8_t nRF24_received_power_detector(void)
 917:Generated_Source\PSoC4/nRF24_FUNCS.c **** {
 918:Generated_Source\PSoC4/nRF24_FUNCS.c ****     return nRF24_read_bit(NRF_RPD_REG, NRF_RPD_RPD);
 919:Generated_Source\PSoC4/nRF24_FUNCS.c **** }
 920:Generated_Source\PSoC4/nRF24_FUNCS.c **** 
 921:Generated_Source\PSoC4/nRF24_FUNCS.c **** /**
 922:Generated_Source\PSoC4/nRF24_FUNCS.c ****  * @return bool: true if the TX FIFO is full, false if it have available
 923:Generated_Source\PSoC4/nRF24_FUNCS.c ****  * locations.
 924:Generated_Source\PSoC4/nRF24_FUNCS.c ****  */
 925:Generated_Source\PSoC4/nRF24_FUNCS.c **** bool nRF24_is_tx_fifo_full(void)
 926:Generated_Source\PSoC4/nRF24_FUNCS.c **** {
 927:Generated_Source\PSoC4/nRF24_FUNCS.c ****     return nRF24_read_bit(NRF_FIFO_STATUS_REG, NRF_FIFO_STATUS_TX_FULL);
 928:Generated_Source\PSoC4/nRF24_FUNCS.c **** }
 929:Generated_Source\PSoC4/nRF24_FUNCS.c **** 
 930:Generated_Source\PSoC4/nRF24_FUNCS.c **** /**
 931:Generated_Source\PSoC4/nRF24_FUNCS.c ****  * @return bool: true if the RX FIFO es empty, false if any pipe have data.
 932:Generated_Source\PSoC4/nRF24_FUNCS.c ****  */
 933:Generated_Source\PSoC4/nRF24_FUNCS.c **** bool nRF24_is_rx_fifo_empty(void)
 934:Generated_Source\PSoC4/nRF24_FUNCS.c **** {
 935:Generated_Source\PSoC4/nRF24_FUNCS.c ****     return nRF24_read_bit(NRF_FIFO_STATUS_REG, NRF_FIFO_STATUS_RX_EMPTY);
 936:Generated_Source\PSoC4/nRF24_FUNCS.c **** }
 937:Generated_Source\PSoC4/nRF24_FUNCS.c **** 
 938:Generated_Source\PSoC4/nRF24_FUNCS.c **** /**
 939:Generated_Source\PSoC4/nRF24_FUNCS.c ****  * This function will write 1 to all the three IRQ "flag" bits on the
 940:Generated_Source\PSoC4/nRF24_FUNCS.c ****  * STATUS register.
 941:Generated_Source\PSoC4/nRF24_FUNCS.c ****  */
 942:Generated_Source\PSoC4/nRF24_FUNCS.c **** void nRF24_clear_all_irqs(void)
 943:Generated_Source\PSoC4/nRF24_FUNCS.c **** {
 944:Generated_Source\PSoC4/nRF24_FUNCS.c ****     nRF24_write_register(NRF_STATUS_REG, NRF_ALL_IRQ_MASK);
  59              		.loc 1 944 0
  60 0020 7021     		movs	r1, #112
  61 0022 0720     		movs	r0, #7
  62 0024 FFF7FEFF 		bl	nRF24_write_register
  63              	.LVL6:
  64              	.LBE25:
  65              	.LBE24:
  66              	.LBB26:
  67              	.LBB27:
  69:Generated_Source\PSoC4/nRF24_FUNCS.c ****     nRF24_write_register(NRF_EN_RXADDR_REG, CUSTOMIZER_EN_RXADDR);
  68              		.loc 1 69 0
  69 0028 0021     		movs	r1, #0
  70 002a 0120     		movs	r0, #1
  71 002c FFF7FEFF 		bl	nRF24_write_register
  72              	.LVL7:
  70:Generated_Source\PSoC4/nRF24_FUNCS.c ****     nRF24_write_register(NRF_SETUP_AW_REG, CUSTOMIZER_SETUP_AW);
  73              		.loc 1 70 0
  74 0030 0321     		movs	r1, #3
  75 0032 0220     		movs	r0, #2
  76 0034 FFF7FEFF 		bl	nRF24_write_register
  77              	.LVL8:
  71:Generated_Source\PSoC4/nRF24_FUNCS.c ****     nRF24_write_register(NRF_SETUP_RETR_REG, CUSTOMIZER_SETUP_RETR);
  78              		.loc 1 71 0
  79 0038 0321     		movs	r1, #3
ARM GAS  C:\Users\AFDHAL~1\AppData\Local\Temp\ccielSKc.s 			page 19


  80 003a 0320     		movs	r0, #3
  81 003c FFF7FEFF 		bl	nRF24_write_register
  82              	.LVL9:
  72:Generated_Source\PSoC4/nRF24_FUNCS.c ****     nRF24_write_register(NRF_RF_CH_REG, CUSTOMIZER_RF_CH);
  83              		.loc 1 72 0
  84 0040 1821     		movs	r1, #24
  85 0042 0420     		movs	r0, #4
  86 0044 FFF7FEFF 		bl	nRF24_write_register
  87              	.LVL10:
  73:Generated_Source\PSoC4/nRF24_FUNCS.c ****     nRF24_write_register(NRF_RF_SETUP_REG, CUSTOMIZER_RF_SETUP);
  88              		.loc 1 73 0
  89 0048 7821     		movs	r1, #120
  90 004a 0520     		movs	r0, #5
  91 004c FFF7FEFF 		bl	nRF24_write_register
  92              	.LVL11:
  74:Generated_Source\PSoC4/nRF24_FUNCS.c ****     nRF24_write_register(NRF_DYNPD_REG, CUSTOMIZER_DYNPD);
  93              		.loc 1 74 0
  94 0050 2621     		movs	r1, #38
  95 0052 0620     		movs	r0, #6
  96 0054 FFF7FEFF 		bl	nRF24_write_register
  97              	.LVL12:
  75:Generated_Source\PSoC4/nRF24_FUNCS.c ****     nRF24_write_register(NRF_FEATURE_REG, CUSTOMIZER_FEATURE);
  98              		.loc 1 75 0
  99 0058 0021     		movs	r1, #0
 100 005a 1C20     		movs	r0, #28
 101 005c FFF7FEFF 		bl	nRF24_write_register
 102              	.LVL13:
  76:Generated_Source\PSoC4/nRF24_FUNCS.c **** 
 103              		.loc 1 76 0
 104 0060 0121     		movs	r1, #1
 105 0062 1D20     		movs	r0, #29
 106 0064 FFF7FEFF 		bl	nRF24_write_register
 107              	.LVL14:
  80:Generated_Source\PSoC4/nRF24_FUNCS.c **** #endif
 108              		.loc 1 80 0
 109 0068 0421     		movs	r1, #4
 110 006a 1120     		movs	r0, #17
 111 006c FFF7FEFF 		bl	nRF24_write_register
 112              	.LVL15:
  83:Generated_Source\PSoC4/nRF24_FUNCS.c **** #endif
 113              		.loc 1 83 0
 114 0070 0421     		movs	r1, #4
 115 0072 1220     		movs	r0, #18
 116 0074 FFF7FEFF 		bl	nRF24_write_register
 117              	.LVL16:
 102:Generated_Source\PSoC4/nRF24_FUNCS.c **** }
 118              		.loc 1 102 0
 119 0078 7F21     		movs	r1, #127
 120 007a 0020     		movs	r0, #0
 121 007c FFF7FEFF 		bl	nRF24_write_register
 122              	.LVL17:
 123              	.LBE27:
 124              	.LBE26:
  61:Generated_Source\PSoC4/nRF24_FUNCS.c **** }
 125              		.loc 1 61 0
 126 0080 9620     		movs	r0, #150
 127 0082 FFF7FEFF 		bl	CyDelayUs
ARM GAS  C:\Users\AFDHAL~1\AppData\Local\Temp\ccielSKc.s 			page 20


 128              	.LVL18:
  62:Generated_Source\PSoC4/nRF24_FUNCS.c **** 
 129              		.loc 1 62 0
 130              		@ sp needed
 131 0086 10BD     		pop	{r4, pc}
 132              		.cfi_endproc
 133              	.LFE34:
 134              		.size	nRF24_start, .-nRF24_start
 135              		.section	.text.nRF24_init,"ax",%progbits
 136              		.align	2
 137              		.global	nRF24_init
 138              		.code	16
 139              		.thumb_func
 140              		.type	nRF24_init, %function
 141              	nRF24_init:
 142              	.LFB35:
  68:Generated_Source\PSoC4/nRF24_FUNCS.c ****     nRF24_write_register(NRF_EN_AA_REG, CUSTOMIZER_EN_AA);
 143              		.loc 1 68 0
 144              		.cfi_startproc
 145              		@ args = 0, pretend = 0, frame = 0
 146              		@ frame_needed = 0, uses_anonymous_args = 0
 147 0000 10B5     		push	{r4, lr}
 148              		.cfi_def_cfa_offset 8
 149              		.cfi_offset 4, -8
 150              		.cfi_offset 14, -4
  69:Generated_Source\PSoC4/nRF24_FUNCS.c ****     nRF24_write_register(NRF_EN_RXADDR_REG, CUSTOMIZER_EN_RXADDR);
 151              		.loc 1 69 0
 152 0002 0021     		movs	r1, #0
 153 0004 0120     		movs	r0, #1
 154 0006 FFF7FEFF 		bl	nRF24_write_register
 155              	.LVL19:
  70:Generated_Source\PSoC4/nRF24_FUNCS.c ****     nRF24_write_register(NRF_SETUP_AW_REG, CUSTOMIZER_SETUP_AW);
 156              		.loc 1 70 0
 157 000a 0321     		movs	r1, #3
 158 000c 0220     		movs	r0, #2
 159 000e FFF7FEFF 		bl	nRF24_write_register
 160              	.LVL20:
  71:Generated_Source\PSoC4/nRF24_FUNCS.c ****     nRF24_write_register(NRF_SETUP_RETR_REG, CUSTOMIZER_SETUP_RETR);
 161              		.loc 1 71 0
 162 0012 0321     		movs	r1, #3
 163 0014 0320     		movs	r0, #3
 164 0016 FFF7FEFF 		bl	nRF24_write_register
 165              	.LVL21:
  72:Generated_Source\PSoC4/nRF24_FUNCS.c ****     nRF24_write_register(NRF_RF_CH_REG, CUSTOMIZER_RF_CH);
 166              		.loc 1 72 0
 167 001a 1821     		movs	r1, #24
 168 001c 0420     		movs	r0, #4
 169 001e FFF7FEFF 		bl	nRF24_write_register
 170              	.LVL22:
  73:Generated_Source\PSoC4/nRF24_FUNCS.c ****     nRF24_write_register(NRF_RF_SETUP_REG, CUSTOMIZER_RF_SETUP);
 171              		.loc 1 73 0
 172 0022 7821     		movs	r1, #120
 173 0024 0520     		movs	r0, #5
 174 0026 FFF7FEFF 		bl	nRF24_write_register
 175              	.LVL23:
  74:Generated_Source\PSoC4/nRF24_FUNCS.c ****     nRF24_write_register(NRF_DYNPD_REG, CUSTOMIZER_DYNPD);
 176              		.loc 1 74 0
ARM GAS  C:\Users\AFDHAL~1\AppData\Local\Temp\ccielSKc.s 			page 21


 177 002a 2621     		movs	r1, #38
 178 002c 0620     		movs	r0, #6
 179 002e FFF7FEFF 		bl	nRF24_write_register
 180              	.LVL24:
  75:Generated_Source\PSoC4/nRF24_FUNCS.c ****     nRF24_write_register(NRF_FEATURE_REG, CUSTOMIZER_FEATURE);
 181              		.loc 1 75 0
 182 0032 0021     		movs	r1, #0
 183 0034 1C20     		movs	r0, #28
 184 0036 FFF7FEFF 		bl	nRF24_write_register
 185              	.LVL25:
  76:Generated_Source\PSoC4/nRF24_FUNCS.c **** 
 186              		.loc 1 76 0
 187 003a 0121     		movs	r1, #1
 188 003c 1D20     		movs	r0, #29
 189 003e FFF7FEFF 		bl	nRF24_write_register
 190              	.LVL26:
  80:Generated_Source\PSoC4/nRF24_FUNCS.c **** #endif
 191              		.loc 1 80 0
 192 0042 0421     		movs	r1, #4
 193 0044 1120     		movs	r0, #17
 194 0046 FFF7FEFF 		bl	nRF24_write_register
 195              	.LVL27:
  83:Generated_Source\PSoC4/nRF24_FUNCS.c **** #endif
 196              		.loc 1 83 0
 197 004a 0421     		movs	r1, #4
 198 004c 1220     		movs	r0, #18
 199 004e FFF7FEFF 		bl	nRF24_write_register
 200              	.LVL28:
 102:Generated_Source\PSoC4/nRF24_FUNCS.c **** }
 201              		.loc 1 102 0
 202 0052 7F21     		movs	r1, #127
 203 0054 0020     		movs	r0, #0
 204 0056 FFF7FEFF 		bl	nRF24_write_register
 205              	.LVL29:
 103:Generated_Source\PSoC4/nRF24_FUNCS.c **** 
 206              		.loc 1 103 0
 207              		@ sp needed
 208 005a 10BD     		pop	{r4, pc}
 209              		.cfi_endproc
 210              	.LFE35:
 211              		.size	nRF24_init, .-nRF24_init
 212              		.section	.text.nRF24_enable,"ax",%progbits
 213              		.align	2
 214              		.global	nRF24_enable
 215              		.code	16
 216              		.thumb_func
 217              		.type	nRF24_enable, %function
 218              	nRF24_enable:
 219              	.LFB102:
 220              		.cfi_startproc
 221              		@ args = 0, pretend = 0, frame = 0
 222              		@ frame_needed = 0, uses_anonymous_args = 0
 223              		@ link register save eliminated.
 224              		@ sp needed
 225 0000 7047     		bx	lr
 226              		.cfi_endproc
 227              	.LFE102:
ARM GAS  C:\Users\AFDHAL~1\AppData\Local\Temp\ccielSKc.s 			page 22


 228              		.size	nRF24_enable, .-nRF24_enable
 229 0002 C046     		.section	.text.nRF24_stop,"ax",%progbits
 230              		.align	2
 231              		.global	nRF24_stop
 232              		.code	16
 233              		.thumb_func
 234              		.type	nRF24_stop, %function
 235              	nRF24_stop:
 236              	.LFB100:
 237              		.cfi_startproc
 238              		@ args = 0, pretend = 0, frame = 0
 239              		@ frame_needed = 0, uses_anonymous_args = 0
 240              		@ link register save eliminated.
 241              		@ sp needed
 242 0000 7047     		bx	lr
 243              		.cfi_endproc
 244              	.LFE100:
 245              		.size	nRF24_stop, .-nRF24_stop
 246 0002 C046     		.section	.text.nRF24_sleep,"ax",%progbits
 247              		.align	2
 248              		.global	nRF24_sleep
 249              		.code	16
 250              		.thumb_func
 251              		.type	nRF24_sleep, %function
 252              	nRF24_sleep:
 253              	.LFB104:
 254              		.cfi_startproc
 255              		@ args = 0, pretend = 0, frame = 0
 256              		@ frame_needed = 0, uses_anonymous_args = 0
 257 0000 10B5     		push	{r4, lr}
 258              		.cfi_def_cfa_offset 8
 259              		.cfi_offset 4, -8
 260              		.cfi_offset 14, -4
 261 0002 0020     		movs	r0, #0
 262 0004 FFF7FEFF 		bl	CE_Write
 263 0008 0121     		movs	r1, #1
 264 000a 0020     		movs	r0, #0
 265 000c FFF7FEFF 		bl	nRF24_set_bit
 266              		@ sp needed
 267 0010 10BD     		pop	{r4, pc}
 268              		.cfi_endproc
 269              	.LFE104:
 270              		.size	nRF24_sleep, .-nRF24_sleep
 271 0012 C046     		.section	.text.nRF24_wakeup,"ax",%progbits
 272              		.align	2
 273              		.global	nRF24_wakeup
 274              		.code	16
 275              		.thumb_func
 276              		.type	nRF24_wakeup, %function
 277              	nRF24_wakeup:
 278              	.LFB39:
 139:Generated_Source\PSoC4/nRF24_FUNCS.c ****     // after leaving standby-I mode the radio need a time to
 279              		.loc 1 139 0
 280              		.cfi_startproc
 281              		@ args = 0, pretend = 0, frame = 0
 282              		@ frame_needed = 0, uses_anonymous_args = 0
 139:Generated_Source\PSoC4/nRF24_FUNCS.c ****     // after leaving standby-I mode the radio need a time to
ARM GAS  C:\Users\AFDHAL~1\AppData\Local\Temp\ccielSKc.s 			page 23


 283              		.loc 1 139 0
 284 0000 10B5     		push	{r4, lr}
 285              		.cfi_def_cfa_offset 8
 286              		.cfi_offset 4, -8
 287              		.cfi_offset 14, -4
 142:Generated_Source\PSoC4/nRF24_FUNCS.c ****     CyDelay(5);
 288              		.loc 1 142 0
 289 0002 0121     		movs	r1, #1
 290 0004 0020     		movs	r0, #0
 291 0006 FFF7FEFF 		bl	nRF24_set_bit
 292              	.LVL30:
 143:Generated_Source\PSoC4/nRF24_FUNCS.c **** }
 293              		.loc 1 143 0
 294 000a 0520     		movs	r0, #5
 295 000c FFF7FEFF 		bl	CyDelay
 296              	.LVL31:
 144:Generated_Source\PSoC4/nRF24_FUNCS.c **** 
 297              		.loc 1 144 0
 298              		@ sp needed
 299 0010 10BD     		pop	{r4, pc}
 300              		.cfi_endproc
 301              	.LFE39:
 302              		.size	nRF24_wakeup, .-nRF24_wakeup
 303 0012 C046     		.section	.text.nRF24_save_config,"ax",%progbits
 304              		.align	2
 305              		.global	nRF24_save_config
 306              		.code	16
 307              		.thumb_func
 308              		.type	nRF24_save_config, %function
 309              	nRF24_save_config:
 310              	.LFB98:
 311              		.cfi_startproc
 312              		@ args = 0, pretend = 0, frame = 0
 313              		@ frame_needed = 0, uses_anonymous_args = 0
 314              		@ link register save eliminated.
 315              		@ sp needed
 316 0000 7047     		bx	lr
 317              		.cfi_endproc
 318              	.LFE98:
 319              		.size	nRF24_save_config, .-nRF24_save_config
 320 0002 C046     		.section	.text.nRF24_restore_config,"ax",%progbits
 321              		.align	2
 322              		.global	nRF24_restore_config
 323              		.code	16
 324              		.thumb_func
 325              		.type	nRF24_restore_config, %function
 326              	nRF24_restore_config:
 327              	.LFB41:
 161:Generated_Source\PSoC4/nRF24_FUNCS.c **** }
 328              		.loc 1 161 0
 329              		.cfi_startproc
 330              		@ args = 0, pretend = 0, frame = 0
 331              		@ frame_needed = 0, uses_anonymous_args = 0
 332              		@ link register save eliminated.
 162:Generated_Source\PSoC4/nRF24_FUNCS.c **** 
 333              		.loc 1 162 0
 334              		@ sp needed
ARM GAS  C:\Users\AFDHAL~1\AppData\Local\Temp\ccielSKc.s 			page 24


 335 0000 7047     		bx	lr
 336              		.cfi_endproc
 337              	.LFE41:
 338              		.size	nRF24_restore_config, .-nRF24_restore_config
 339 0002 C046     		.section	.text.nRF24_set_mode,"ax",%progbits
 340              		.align	2
 341              		.global	nRF24_set_mode
 342              		.code	16
 343              		.thumb_func
 344              		.type	nRF24_set_mode, %function
 345              	nRF24_set_mode:
 346              	.LFB42:
 171:Generated_Source\PSoC4/nRF24_FUNCS.c ****     mode ? nRF24_set_rx_mode() : nRF24_set_tx_mode();
 347              		.loc 1 171 0
 348              		.cfi_startproc
 349              		@ args = 0, pretend = 0, frame = 0
 350              		@ frame_needed = 0, uses_anonymous_args = 0
 351              	.LVL32:
 352 0000 10B5     		push	{r4, lr}
 353              		.cfi_def_cfa_offset 8
 354              		.cfi_offset 4, -8
 355              		.cfi_offset 14, -4
 356              	.LBB28:
 357              	.LBB29:
 237:Generated_Source\PSoC4/nRF24_FUNCS.c **** }
 358              		.loc 1 237 0
 359 0002 0021     		movs	r1, #0
 360              	.LBE29:
 361              	.LBE28:
 172:Generated_Source\PSoC4/nRF24_FUNCS.c **** }
 362              		.loc 1 172 0
 363 0004 0028     		cmp	r0, #0
 364 0006 03D1     		bne	.L13
 365              	.LBB31:
 366              	.LBB32:
 249:Generated_Source\PSoC4/nRF24_FUNCS.c **** }
 367              		.loc 1 249 0
 368 0008 0020     		movs	r0, #0
 369              	.LVL33:
 370 000a FFF7FEFF 		bl	nRF24_clear_bit
 371              	.LVL34:
 372              	.L9:
 373              	.LBE32:
 374              	.LBE31:
 173:Generated_Source\PSoC4/nRF24_FUNCS.c **** 
 375              		.loc 1 173 0
 376              		@ sp needed
 377 000e 10BD     		pop	{r4, pc}
 378              	.LVL35:
 379              	.L13:
 380              	.LBB33:
 381              	.LBB30:
 237:Generated_Source\PSoC4/nRF24_FUNCS.c **** }
 382              		.loc 1 237 0
 383 0010 0020     		movs	r0, #0
 384              	.LVL36:
 385 0012 FFF7FEFF 		bl	nRF24_set_bit
ARM GAS  C:\Users\AFDHAL~1\AppData\Local\Temp\ccielSKc.s 			page 25


 386              	.LVL37:
 387 0016 FAE7     		b	.L9
 388              	.LBE30:
 389              	.LBE33:
 390              		.cfi_endproc
 391              	.LFE42:
 392              		.size	nRF24_set_mode, .-nRF24_set_mode
 393              		.section	.text.nRF24_set_power_down_mode,"ax",%progbits
 394              		.align	2
 395              		.global	nRF24_set_power_down_mode
 396              		.code	16
 397              		.thumb_func
 398              		.type	nRF24_set_power_down_mode, %function
 399              	nRF24_set_power_down_mode:
 400              	.LFB43:
 185:Generated_Source\PSoC4/nRF24_FUNCS.c ****     nRF24_clear_bit(NRF_CONFIG_REG, NRF_CONFIG_PWR_UP);
 401              		.loc 1 185 0
 402              		.cfi_startproc
 403              		@ args = 0, pretend = 0, frame = 0
 404              		@ frame_needed = 0, uses_anonymous_args = 0
 405 0000 10B5     		push	{r4, lr}
 406              		.cfi_def_cfa_offset 8
 407              		.cfi_offset 4, -8
 408              		.cfi_offset 14, -4
 186:Generated_Source\PSoC4/nRF24_FUNCS.c **** }
 409              		.loc 1 186 0
 410 0002 0121     		movs	r1, #1
 411 0004 0020     		movs	r0, #0
 412 0006 FFF7FEFF 		bl	nRF24_clear_bit
 413              	.LVL38:
 187:Generated_Source\PSoC4/nRF24_FUNCS.c **** 
 414              		.loc 1 187 0
 415              		@ sp needed
 416 000a 10BD     		pop	{r4, pc}
 417              		.cfi_endproc
 418              	.LFE43:
 419              		.size	nRF24_set_power_down_mode, .-nRF24_set_power_down_mode
 420              		.section	.text.nRF24_set_standby_i_mode,"ax",%progbits
 421              		.align	2
 422              		.global	nRF24_set_standby_i_mode
 423              		.code	16
 424              		.thumb_func
 425              		.type	nRF24_set_standby_i_mode, %function
 426              	nRF24_set_standby_i_mode:
 427              	.LFB44:
 200:Generated_Source\PSoC4/nRF24_FUNCS.c **** #if 0
 428              		.loc 1 200 0
 429              		.cfi_startproc
 430              		@ args = 0, pretend = 0, frame = 0
 431              		@ frame_needed = 0, uses_anonymous_args = 0
 432 0000 10B5     		push	{r4, lr}
 433              		.cfi_def_cfa_offset 8
 434              		.cfi_offset 4, -8
 435              		.cfi_offset 14, -4
 436              	.LBB34:
 437              	.LBB35:
 731:Generated_Source\PSoC4/nRF24_FUNCS.c ****     #endif
ARM GAS  C:\Users\AFDHAL~1\AppData\Local\Temp\ccielSKc.s 			page 26


 438              		.loc 1 731 0
 439 0002 0020     		movs	r0, #0
 440 0004 FFF7FEFF 		bl	CE_Write
 441              	.LVL39:
 442              	.LBE35:
 443              	.LBE34:
 206:Generated_Source\PSoC4/nRF24_FUNCS.c **** }
 444              		.loc 1 206 0
 445 0008 0121     		movs	r1, #1
 446 000a 0020     		movs	r0, #0
 447 000c FFF7FEFF 		bl	nRF24_set_bit
 448              	.LVL40:
 207:Generated_Source\PSoC4/nRF24_FUNCS.c **** 
 449              		.loc 1 207 0
 450              		@ sp needed
 451 0010 10BD     		pop	{r4, pc}
 452              		.cfi_endproc
 453              	.LFE44:
 454              		.size	nRF24_set_standby_i_mode, .-nRF24_set_standby_i_mode
 455 0012 C046     		.section	.text.nRF24_set_standby_ii_mode,"ax",%progbits
 456              		.align	2
 457              		.global	nRF24_set_standby_ii_mode
 458              		.code	16
 459              		.thumb_func
 460              		.type	nRF24_set_standby_ii_mode, %function
 461              	nRF24_set_standby_ii_mode:
 462              	.LFB45:
 219:Generated_Source\PSoC4/nRF24_FUNCS.c **** #if 0
 463              		.loc 1 219 0
 464              		.cfi_startproc
 465              		@ args = 0, pretend = 0, frame = 0
 466              		@ frame_needed = 0, uses_anonymous_args = 0
 467 0000 10B5     		push	{r4, lr}
 468              		.cfi_def_cfa_offset 8
 469              		.cfi_offset 4, -8
 470              		.cfi_offset 14, -4
 471              	.LBB36:
 472              	.LBB37:
 712:Generated_Source\PSoC4/nRF24_FUNCS.c ****     #endif
 473              		.loc 1 712 0
 474 0002 0120     		movs	r0, #1
 475 0004 FFF7FEFF 		bl	CE_Write
 476              	.LVL41:
 477              	.LBE37:
 478              	.LBE36:
 225:Generated_Source\PSoC4/nRF24_FUNCS.c **** }
 479              		.loc 1 225 0
 480 0008 0121     		movs	r1, #1
 481 000a 0020     		movs	r0, #0
 482 000c FFF7FEFF 		bl	nRF24_set_bit
 483              	.LVL42:
 226:Generated_Source\PSoC4/nRF24_FUNCS.c **** 
 484              		.loc 1 226 0
 485              		@ sp needed
 486 0010 10BD     		pop	{r4, pc}
 487              		.cfi_endproc
 488              	.LFE45:
ARM GAS  C:\Users\AFDHAL~1\AppData\Local\Temp\ccielSKc.s 			page 27


 489              		.size	nRF24_set_standby_ii_mode, .-nRF24_set_standby_ii_mode
 490 0012 C046     		.section	.text.nRF24_set_rx_mode,"ax",%progbits
 491              		.align	2
 492              		.global	nRF24_set_rx_mode
 493              		.code	16
 494              		.thumb_func
 495              		.type	nRF24_set_rx_mode, %function
 496              	nRF24_set_rx_mode:
 497              	.LFB46:
 236:Generated_Source\PSoC4/nRF24_FUNCS.c ****     nRF24_set_bit(NRF_CONFIG_REG, NRF_CONFIG_PRIM_RX);
 498              		.loc 1 236 0
 499              		.cfi_startproc
 500              		@ args = 0, pretend = 0, frame = 0
 501              		@ frame_needed = 0, uses_anonymous_args = 0
 502 0000 10B5     		push	{r4, lr}
 503              		.cfi_def_cfa_offset 8
 504              		.cfi_offset 4, -8
 505              		.cfi_offset 14, -4
 237:Generated_Source\PSoC4/nRF24_FUNCS.c **** }
 506              		.loc 1 237 0
 507 0002 0021     		movs	r1, #0
 508 0004 0020     		movs	r0, #0
 509 0006 FFF7FEFF 		bl	nRF24_set_bit
 510              	.LVL43:
 238:Generated_Source\PSoC4/nRF24_FUNCS.c **** 
 511              		.loc 1 238 0
 512              		@ sp needed
 513 000a 10BD     		pop	{r4, pc}
 514              		.cfi_endproc
 515              	.LFE46:
 516              		.size	nRF24_set_rx_mode, .-nRF24_set_rx_mode
 517              		.section	.text.nRF24_set_tx_mode,"ax",%progbits
 518              		.align	2
 519              		.global	nRF24_set_tx_mode
 520              		.code	16
 521              		.thumb_func
 522              		.type	nRF24_set_tx_mode, %function
 523              	nRF24_set_tx_mode:
 524              	.LFB47:
 248:Generated_Source\PSoC4/nRF24_FUNCS.c ****     nRF24_clear_bit(NRF_CONFIG_REG, NRF_CONFIG_PRIM_RX);
 525              		.loc 1 248 0
 526              		.cfi_startproc
 527              		@ args = 0, pretend = 0, frame = 0
 528              		@ frame_needed = 0, uses_anonymous_args = 0
 529 0000 10B5     		push	{r4, lr}
 530              		.cfi_def_cfa_offset 8
 531              		.cfi_offset 4, -8
 532              		.cfi_offset 14, -4
 249:Generated_Source\PSoC4/nRF24_FUNCS.c **** }
 533              		.loc 1 249 0
 534 0002 0021     		movs	r1, #0
 535 0004 0020     		movs	r0, #0
 536 0006 FFF7FEFF 		bl	nRF24_clear_bit
 537              	.LVL44:
 250:Generated_Source\PSoC4/nRF24_FUNCS.c **** 
 538              		.loc 1 250 0
 539              		@ sp needed
ARM GAS  C:\Users\AFDHAL~1\AppData\Local\Temp\ccielSKc.s 			page 28


 540 000a 10BD     		pop	{r4, pc}
 541              		.cfi_endproc
 542              	.LFE47:
 543              		.size	nRF24_set_tx_mode, .-nRF24_set_tx_mode
 544              		.section	.text.nRF24_enable_auto_ack,"ax",%progbits
 545              		.align	2
 546              		.global	nRF24_enable_auto_ack
 547              		.code	16
 548              		.thumb_func
 549              		.type	nRF24_enable_auto_ack, %function
 550              	nRF24_enable_auto_ack:
 551              	.LFB48:
 258:Generated_Source\PSoC4/nRF24_FUNCS.c ****     nRF24_set_bit(NRF_EN_AA_REG, pipe);
 552              		.loc 1 258 0
 553              		.cfi_startproc
 554              		@ args = 0, pretend = 0, frame = 0
 555              		@ frame_needed = 0, uses_anonymous_args = 0
 556              	.LVL45:
 557 0000 10B5     		push	{r4, lr}
 558              		.cfi_def_cfa_offset 8
 559              		.cfi_offset 4, -8
 560              		.cfi_offset 14, -4
 258:Generated_Source\PSoC4/nRF24_FUNCS.c ****     nRF24_set_bit(NRF_EN_AA_REG, pipe);
 561              		.loc 1 258 0
 562 0002 0100     		movs	r1, r0
 259:Generated_Source\PSoC4/nRF24_FUNCS.c **** }
 563              		.loc 1 259 0
 564 0004 0120     		movs	r0, #1
 565              	.LVL46:
 566 0006 FFF7FEFF 		bl	nRF24_set_bit
 567              	.LVL47:
 260:Generated_Source\PSoC4/nRF24_FUNCS.c **** 
 568              		.loc 1 260 0
 569              		@ sp needed
 570 000a 10BD     		pop	{r4, pc}
 571              		.cfi_endproc
 572              	.LFE48:
 573              		.size	nRF24_enable_auto_ack, .-nRF24_enable_auto_ack
 574              		.section	.text.nRF24_disable_auto_ack,"ax",%progbits
 575              		.align	2
 576              		.global	nRF24_disable_auto_ack
 577              		.code	16
 578              		.thumb_func
 579              		.type	nRF24_disable_auto_ack, %function
 580              	nRF24_disable_auto_ack:
 581              	.LFB49:
 268:Generated_Source\PSoC4/nRF24_FUNCS.c ****     nRF24_clear_bit(NRF_EN_AA_REG, pipe);
 582              		.loc 1 268 0
 583              		.cfi_startproc
 584              		@ args = 0, pretend = 0, frame = 0
 585              		@ frame_needed = 0, uses_anonymous_args = 0
 586              	.LVL48:
 587 0000 10B5     		push	{r4, lr}
 588              		.cfi_def_cfa_offset 8
 589              		.cfi_offset 4, -8
 590              		.cfi_offset 14, -4
 268:Generated_Source\PSoC4/nRF24_FUNCS.c ****     nRF24_clear_bit(NRF_EN_AA_REG, pipe);
ARM GAS  C:\Users\AFDHAL~1\AppData\Local\Temp\ccielSKc.s 			page 29


 591              		.loc 1 268 0
 592 0002 0100     		movs	r1, r0
 269:Generated_Source\PSoC4/nRF24_FUNCS.c **** }
 593              		.loc 1 269 0
 594 0004 0120     		movs	r0, #1
 595              	.LVL49:
 596 0006 FFF7FEFF 		bl	nRF24_clear_bit
 597              	.LVL50:
 270:Generated_Source\PSoC4/nRF24_FUNCS.c **** 
 598              		.loc 1 270 0
 599              		@ sp needed
 600 000a 10BD     		pop	{r4, pc}
 601              		.cfi_endproc
 602              	.LFE49:
 603              		.size	nRF24_disable_auto_ack, .-nRF24_disable_auto_ack
 604              		.section	.text.nRF24_set_channel,"ax",%progbits
 605              		.align	2
 606              		.global	nRF24_set_channel
 607              		.code	16
 608              		.thumb_func
 609              		.type	nRF24_set_channel, %function
 610              	nRF24_set_channel:
 611              	.LFB50:
 278:Generated_Source\PSoC4/nRF24_FUNCS.c ****     if (NRF_MAX_RF_CHANNEL < channel) {
 612              		.loc 1 278 0
 613              		.cfi_startproc
 614              		@ args = 0, pretend = 0, frame = 0
 615              		@ frame_needed = 0, uses_anonymous_args = 0
 616              	.LVL51:
 617 0000 10B5     		push	{r4, lr}
 618              		.cfi_def_cfa_offset 8
 619              		.cfi_offset 4, -8
 620              		.cfi_offset 14, -4
 283:Generated_Source\PSoC4/nRF24_FUNCS.c **** }
 621              		.loc 1 283 0
 622 0002 011C     		adds	r1, r0, #0
 623 0004 7D28     		cmp	r0, #125
 624 0006 00D9     		bls	.L22
 625 0008 7D21     		movs	r1, #125
 626              	.L22:
 627 000a C9B2     		uxtb	r1, r1
 628 000c 0520     		movs	r0, #5
 629              	.LVL52:
 630 000e FFF7FEFF 		bl	nRF24_write_register
 631              	.LVL53:
 284:Generated_Source\PSoC4/nRF24_FUNCS.c **** 
 632              		.loc 1 284 0
 633              		@ sp needed
 634 0012 10BD     		pop	{r4, pc}
 635              		.cfi_endproc
 636              	.LFE50:
 637              		.size	nRF24_set_channel, .-nRF24_set_channel
 638              		.section	.text.nRF24_set_address_width,"ax",%progbits
 639              		.align	2
 640              		.global	nRF24_set_address_width
 641              		.code	16
 642              		.thumb_func
ARM GAS  C:\Users\AFDHAL~1\AppData\Local\Temp\ccielSKc.s 			page 30


 643              		.type	nRF24_set_address_width, %function
 644              	nRF24_set_address_width:
 645              	.LFB51:
 292:Generated_Source\PSoC4/nRF24_FUNCS.c ****     nRF24_write_register(NRF_SETUP_AW_REG, (uint8_t)addr_width);
 646              		.loc 1 292 0
 647              		.cfi_startproc
 648              		@ args = 0, pretend = 0, frame = 0
 649              		@ frame_needed = 0, uses_anonymous_args = 0
 650              	.LVL54:
 651 0000 10B5     		push	{r4, lr}
 652              		.cfi_def_cfa_offset 8
 653              		.cfi_offset 4, -8
 654              		.cfi_offset 14, -4
 292:Generated_Source\PSoC4/nRF24_FUNCS.c ****     nRF24_write_register(NRF_SETUP_AW_REG, (uint8_t)addr_width);
 655              		.loc 1 292 0
 656 0002 0100     		movs	r1, r0
 293:Generated_Source\PSoC4/nRF24_FUNCS.c **** }
 657              		.loc 1 293 0
 658 0004 0320     		movs	r0, #3
 659              	.LVL55:
 660 0006 FFF7FEFF 		bl	nRF24_write_register
 661              	.LVL56:
 294:Generated_Source\PSoC4/nRF24_FUNCS.c **** 
 662              		.loc 1 294 0
 663              		@ sp needed
 664 000a 10BD     		pop	{r4, pc}
 665              		.cfi_endproc
 666              	.LFE51:
 667              		.size	nRF24_set_address_width, .-nRF24_set_address_width
 668              		.section	.text.nRF24_get_address_width,"ax",%progbits
 669              		.align	2
 670              		.global	nRF24_get_address_width
 671              		.code	16
 672              		.thumb_func
 673              		.type	nRF24_get_address_width, %function
 674              	nRF24_get_address_width:
 675              	.LFB52:
 302:Generated_Source\PSoC4/nRF24_FUNCS.c ****     uint8_t addr_width = 0;
 676              		.loc 1 302 0
 677              		.cfi_startproc
 678              		@ args = 0, pretend = 0, frame = 0
 679              		@ frame_needed = 0, uses_anonymous_args = 0
 680              	.LVL57:
 681 0000 10B5     		push	{r4, lr}
 682              		.cfi_def_cfa_offset 8
 683              		.cfi_offset 4, -8
 684              		.cfi_offset 14, -4
 304:Generated_Source\PSoC4/nRF24_FUNCS.c **** 
 685              		.loc 1 304 0
 686 0002 0320     		movs	r0, #3
 687 0004 FFF7FEFF 		bl	nRF24_read_register
 688              	.LVL58:
 689 0008 0138     		subs	r0, r0, #1
 690              	.LVL59:
 691 000a C3B2     		uxtb	r3, r0
 692 000c 0020     		movs	r0, #0
 693 000e 022B     		cmp	r3, #2
ARM GAS  C:\Users\AFDHAL~1\AppData\Local\Temp\ccielSKc.s 			page 31


 694 0010 01D8     		bhi	.L25
 695 0012 014A     		ldr	r2, .L27
 696 0014 D05C     		ldrb	r0, [r2, r3]
 697              	.L25:
 698              	.LVL60:
 321:Generated_Source\PSoC4/nRF24_FUNCS.c **** 
 699              		.loc 1 321 0
 700              		@ sp needed
 701 0016 10BD     		pop	{r4, pc}
 702              	.L28:
 703              		.align	2
 704              	.L27:
 705 0018 00000000 		.word	.LANCHOR0
 706              		.cfi_endproc
 707              	.LFE52:
 708              		.size	nRF24_get_address_width, .-nRF24_get_address_width
 709              		.section	.text.nRF24_set_rx_pipe_0_address,"ax",%progbits
 710              		.align	2
 711              		.global	nRF24_set_rx_pipe_0_address
 712              		.code	16
 713              		.thumb_func
 714              		.type	nRF24_set_rx_pipe_0_address, %function
 715              	nRF24_set_rx_pipe_0_address:
 716              	.LFB53:
 332:Generated_Source\PSoC4/nRF24_FUNCS.c ****     if (NULL == addr) {
 717              		.loc 1 332 0
 718              		.cfi_startproc
 719              		@ args = 0, pretend = 0, frame = 0
 720              		@ frame_needed = 0, uses_anonymous_args = 0
 721              	.LVL61:
 722 0000 10B5     		push	{r4, lr}
 723              		.cfi_def_cfa_offset 8
 724              		.cfi_offset 4, -8
 725              		.cfi_offset 14, -4
 333:Generated_Source\PSoC4/nRF24_FUNCS.c ****         return;
 726              		.loc 1 333 0
 727 0002 0028     		cmp	r0, #0
 728 0004 06D0     		beq	.L29
 729              	.LVL62:
 342:Generated_Source\PSoC4/nRF24_FUNCS.c **** }
 730              		.loc 1 342 0
 731 0006 0A00     		movs	r2, r1
 732 0008 0529     		cmp	r1, #5
 733 000a 04D8     		bhi	.L35
 734              	.L31:
 735 000c 0100     		movs	r1, r0
 736              	.LVL63:
 737 000e 0A20     		movs	r0, #10
 738              	.LVL64:
 739 0010 FFF7FEFF 		bl	nRF24_write_long_register
 740              	.LVL65:
 741              	.L29:
 343:Generated_Source\PSoC4/nRF24_FUNCS.c **** 
 742              		.loc 1 343 0
 743              		@ sp needed
 744 0014 10BD     		pop	{r4, pc}
 745              	.LVL66:
ARM GAS  C:\Users\AFDHAL~1\AppData\Local\Temp\ccielSKc.s 			page 32


 746              	.L35:
 342:Generated_Source\PSoC4/nRF24_FUNCS.c **** }
 747              		.loc 1 342 0
 748 0016 0522     		movs	r2, #5
 749 0018 F8E7     		b	.L31
 750              		.cfi_endproc
 751              	.LFE53:
 752              		.size	nRF24_set_rx_pipe_0_address, .-nRF24_set_rx_pipe_0_address
 753 001a C046     		.section	.text.nRF24_get_rx_pipe_0_address,"ax",%progbits
 754              		.align	2
 755              		.global	nRF24_get_rx_pipe_0_address
 756              		.code	16
 757              		.thumb_func
 758              		.type	nRF24_get_rx_pipe_0_address, %function
 759              	nRF24_get_rx_pipe_0_address:
 760              	.LFB54:
 352:Generated_Source\PSoC4/nRF24_FUNCS.c ****     if (NULL == addr) {
 761              		.loc 1 352 0
 762              		.cfi_startproc
 763              		@ args = 0, pretend = 0, frame = 0
 764              		@ frame_needed = 0, uses_anonymous_args = 0
 765              	.LVL67:
 766 0000 10B5     		push	{r4, lr}
 767              		.cfi_def_cfa_offset 8
 768              		.cfi_offset 4, -8
 769              		.cfi_offset 14, -4
 353:Generated_Source\PSoC4/nRF24_FUNCS.c ****         return;
 770              		.loc 1 353 0
 771 0002 0028     		cmp	r0, #0
 772 0004 06D0     		beq	.L36
 773              	.LVL68:
 361:Generated_Source\PSoC4/nRF24_FUNCS.c **** }
 774              		.loc 1 361 0
 775 0006 0A00     		movs	r2, r1
 776 0008 0529     		cmp	r1, #5
 777 000a 04D8     		bhi	.L42
 778              	.L38:
 779 000c 0100     		movs	r1, r0
 780              	.LVL69:
 781 000e 0A20     		movs	r0, #10
 782              	.LVL70:
 783 0010 FFF7FEFF 		bl	nRF24_read_long_register
 784              	.LVL71:
 785              	.L36:
 362:Generated_Source\PSoC4/nRF24_FUNCS.c **** 
 786              		.loc 1 362 0
 787              		@ sp needed
 788 0014 10BD     		pop	{r4, pc}
 789              	.LVL72:
 790              	.L42:
 361:Generated_Source\PSoC4/nRF24_FUNCS.c **** }
 791              		.loc 1 361 0
 792 0016 0522     		movs	r2, #5
 793 0018 F8E7     		b	.L38
 794              		.cfi_endproc
 795              	.LFE54:
 796              		.size	nRF24_get_rx_pipe_0_address, .-nRF24_get_rx_pipe_0_address
ARM GAS  C:\Users\AFDHAL~1\AppData\Local\Temp\ccielSKc.s 			page 33


 797 001a C046     		.section	.text.nRF24_set_rx_pipe_1_address,"ax",%progbits
 798              		.align	2
 799              		.global	nRF24_set_rx_pipe_1_address
 800              		.code	16
 801              		.thumb_func
 802              		.type	nRF24_set_rx_pipe_1_address, %function
 803              	nRF24_set_rx_pipe_1_address:
 804              	.LFB55:
 373:Generated_Source\PSoC4/nRF24_FUNCS.c ****     if (NULL == addr) {
 805              		.loc 1 373 0
 806              		.cfi_startproc
 807              		@ args = 0, pretend = 0, frame = 0
 808              		@ frame_needed = 0, uses_anonymous_args = 0
 809              	.LVL73:
 810 0000 10B5     		push	{r4, lr}
 811              		.cfi_def_cfa_offset 8
 812              		.cfi_offset 4, -8
 813              		.cfi_offset 14, -4
 374:Generated_Source\PSoC4/nRF24_FUNCS.c ****         return;
 814              		.loc 1 374 0
 815 0002 0028     		cmp	r0, #0
 816 0004 06D0     		beq	.L43
 817              	.LVL74:
 382:Generated_Source\PSoC4/nRF24_FUNCS.c **** }
 818              		.loc 1 382 0
 819 0006 0A00     		movs	r2, r1
 820 0008 0529     		cmp	r1, #5
 821 000a 04D8     		bhi	.L49
 822              	.L45:
 823 000c 0100     		movs	r1, r0
 824              	.LVL75:
 825 000e 0B20     		movs	r0, #11
 826              	.LVL76:
 827 0010 FFF7FEFF 		bl	nRF24_write_long_register
 828              	.LVL77:
 829              	.L43:
 383:Generated_Source\PSoC4/nRF24_FUNCS.c **** 
 830              		.loc 1 383 0
 831              		@ sp needed
 832 0014 10BD     		pop	{r4, pc}
 833              	.LVL78:
 834              	.L49:
 382:Generated_Source\PSoC4/nRF24_FUNCS.c **** }
 835              		.loc 1 382 0
 836 0016 0522     		movs	r2, #5
 837 0018 F8E7     		b	.L45
 838              		.cfi_endproc
 839              	.LFE55:
 840              		.size	nRF24_set_rx_pipe_1_address, .-nRF24_set_rx_pipe_1_address
 841 001a C046     		.section	.text.nRF24_get_rx_pipe_1_address,"ax",%progbits
 842              		.align	2
 843              		.global	nRF24_get_rx_pipe_1_address
 844              		.code	16
 845              		.thumb_func
 846              		.type	nRF24_get_rx_pipe_1_address, %function
 847              	nRF24_get_rx_pipe_1_address:
 848              	.LFB56:
ARM GAS  C:\Users\AFDHAL~1\AppData\Local\Temp\ccielSKc.s 			page 34


 392:Generated_Source\PSoC4/nRF24_FUNCS.c ****     if (NULL == addr) {
 849              		.loc 1 392 0
 850              		.cfi_startproc
 851              		@ args = 0, pretend = 0, frame = 0
 852              		@ frame_needed = 0, uses_anonymous_args = 0
 853              	.LVL79:
 854 0000 10B5     		push	{r4, lr}
 855              		.cfi_def_cfa_offset 8
 856              		.cfi_offset 4, -8
 857              		.cfi_offset 14, -4
 393:Generated_Source\PSoC4/nRF24_FUNCS.c ****         return;
 858              		.loc 1 393 0
 859 0002 0028     		cmp	r0, #0
 860 0004 06D0     		beq	.L50
 861              	.LVL80:
 401:Generated_Source\PSoC4/nRF24_FUNCS.c **** }
 862              		.loc 1 401 0
 863 0006 0A00     		movs	r2, r1
 864 0008 0529     		cmp	r1, #5
 865 000a 04D8     		bhi	.L56
 866              	.L52:
 867 000c 0100     		movs	r1, r0
 868              	.LVL81:
 869 000e 0B20     		movs	r0, #11
 870              	.LVL82:
 871 0010 FFF7FEFF 		bl	nRF24_read_long_register
 872              	.LVL83:
 873              	.L50:
 402:Generated_Source\PSoC4/nRF24_FUNCS.c **** 
 874              		.loc 1 402 0
 875              		@ sp needed
 876 0014 10BD     		pop	{r4, pc}
 877              	.LVL84:
 878              	.L56:
 401:Generated_Source\PSoC4/nRF24_FUNCS.c **** }
 879              		.loc 1 401 0
 880 0016 0522     		movs	r2, #5
 881 0018 F8E7     		b	.L52
 882              		.cfi_endproc
 883              	.LFE56:
 884              		.size	nRF24_get_rx_pipe_1_address, .-nRF24_get_rx_pipe_1_address
 885 001a C046     		.section	.text.nRF24_set_rx_pipe_2_address,"ax",%progbits
 886              		.align	2
 887              		.global	nRF24_set_rx_pipe_2_address
 888              		.code	16
 889              		.thumb_func
 890              		.type	nRF24_set_rx_pipe_2_address, %function
 891              	nRF24_set_rx_pipe_2_address:
 892              	.LFB57:
 410:Generated_Source\PSoC4/nRF24_FUNCS.c ****     nRF24_write_register(NRF_RX_ADDR_P2_REG, addr_lsb);
 893              		.loc 1 410 0
 894              		.cfi_startproc
 895              		@ args = 0, pretend = 0, frame = 0
 896              		@ frame_needed = 0, uses_anonymous_args = 0
 897              	.LVL85:
 898 0000 10B5     		push	{r4, lr}
 899              		.cfi_def_cfa_offset 8
ARM GAS  C:\Users\AFDHAL~1\AppData\Local\Temp\ccielSKc.s 			page 35


 900              		.cfi_offset 4, -8
 901              		.cfi_offset 14, -4
 410:Generated_Source\PSoC4/nRF24_FUNCS.c ****     nRF24_write_register(NRF_RX_ADDR_P2_REG, addr_lsb);
 902              		.loc 1 410 0
 903 0002 0100     		movs	r1, r0
 411:Generated_Source\PSoC4/nRF24_FUNCS.c **** }
 904              		.loc 1 411 0
 905 0004 0C20     		movs	r0, #12
 906              	.LVL86:
 907 0006 FFF7FEFF 		bl	nRF24_write_register
 908              	.LVL87:
 412:Generated_Source\PSoC4/nRF24_FUNCS.c **** 
 909              		.loc 1 412 0
 910              		@ sp needed
 911 000a 10BD     		pop	{r4, pc}
 912              		.cfi_endproc
 913              	.LFE57:
 914              		.size	nRF24_set_rx_pipe_2_address, .-nRF24_set_rx_pipe_2_address
 915              		.section	.text.nRF24_get_rx_pipe_2_address,"ax",%progbits
 916              		.align	2
 917              		.global	nRF24_get_rx_pipe_2_address
 918              		.code	16
 919              		.thumb_func
 920              		.type	nRF24_get_rx_pipe_2_address, %function
 921              	nRF24_get_rx_pipe_2_address:
 922              	.LFB58:
 421:Generated_Source\PSoC4/nRF24_FUNCS.c ****     if (NULL == addr) {
 923              		.loc 1 421 0
 924              		.cfi_startproc
 925              		@ args = 0, pretend = 0, frame = 0
 926              		@ frame_needed = 0, uses_anonymous_args = 0
 927              	.LVL88:
 928 0000 70B5     		push	{r4, r5, r6, lr}
 929              		.cfi_def_cfa_offset 16
 930              		.cfi_offset 4, -16
 931              		.cfi_offset 5, -12
 932              		.cfi_offset 6, -8
 933              		.cfi_offset 14, -4
 421:Generated_Source\PSoC4/nRF24_FUNCS.c ****     if (NULL == addr) {
 934              		.loc 1 421 0
 935 0002 051E     		subs	r5, r0, #0
 422:Generated_Source\PSoC4/nRF24_FUNCS.c ****         return;
 936              		.loc 1 422 0
 937 0004 0CD0     		beq	.L58
 938              	.LVL89:
 431:Generated_Source\PSoC4/nRF24_FUNCS.c ****     addr[size - 1] = nRF24_read_register(NRF_RX_ADDR_P2_REG);
 939              		.loc 1 431 0
 940 0006 0529     		cmp	r1, #5
 941 0008 0BD8     		bhi	.L64
 942              	.LVL90:
 943              	.L60:
 944 000a 4C1E     		subs	r4, r1, #1
 945 000c 2200     		movs	r2, r4
 946 000e 2900     		movs	r1, r5
 947 0010 0B20     		movs	r0, #11
 948              	.LVL91:
 949 0012 FFF7FEFF 		bl	nRF24_read_long_register
ARM GAS  C:\Users\AFDHAL~1\AppData\Local\Temp\ccielSKc.s 			page 36


 950              	.LVL92:
 432:Generated_Source\PSoC4/nRF24_FUNCS.c **** }
 951              		.loc 1 432 0
 952 0016 0C20     		movs	r0, #12
 953 0018 FFF7FEFF 		bl	nRF24_read_register
 954              	.LVL93:
 955 001c 2C19     		adds	r4, r5, r4
 956 001e 2070     		strb	r0, [r4]
 957              	.LVL94:
 958              	.L58:
 433:Generated_Source\PSoC4/nRF24_FUNCS.c **** 
 959              		.loc 1 433 0
 960              		@ sp needed
 961              	.LVL95:
 962 0020 70BD     		pop	{r4, r5, r6, pc}
 963              	.LVL96:
 964              	.L64:
 431:Generated_Source\PSoC4/nRF24_FUNCS.c ****     addr[size - 1] = nRF24_read_register(NRF_RX_ADDR_P2_REG);
 965              		.loc 1 431 0
 966 0022 0521     		movs	r1, #5
 967              	.LVL97:
 968 0024 F1E7     		b	.L60
 969              		.cfi_endproc
 970              	.LFE58:
 971              		.size	nRF24_get_rx_pipe_2_address, .-nRF24_get_rx_pipe_2_address
 972 0026 C046     		.section	.text.nRF24_set_rx_pipe_3_address,"ax",%progbits
 973              		.align	2
 974              		.global	nRF24_set_rx_pipe_3_address
 975              		.code	16
 976              		.thumb_func
 977              		.type	nRF24_set_rx_pipe_3_address, %function
 978              	nRF24_set_rx_pipe_3_address:
 979              	.LFB59:
 441:Generated_Source\PSoC4/nRF24_FUNCS.c ****     nRF24_write_register(NRF_RX_ADDR_P3_REG, addr_lsb);
 980              		.loc 1 441 0
 981              		.cfi_startproc
 982              		@ args = 0, pretend = 0, frame = 0
 983              		@ frame_needed = 0, uses_anonymous_args = 0
 984              	.LVL98:
 985 0000 10B5     		push	{r4, lr}
 986              		.cfi_def_cfa_offset 8
 987              		.cfi_offset 4, -8
 988              		.cfi_offset 14, -4
 441:Generated_Source\PSoC4/nRF24_FUNCS.c ****     nRF24_write_register(NRF_RX_ADDR_P3_REG, addr_lsb);
 989              		.loc 1 441 0
 990 0002 0100     		movs	r1, r0
 442:Generated_Source\PSoC4/nRF24_FUNCS.c **** }
 991              		.loc 1 442 0
 992 0004 0D20     		movs	r0, #13
 993              	.LVL99:
 994 0006 FFF7FEFF 		bl	nRF24_write_register
 995              	.LVL100:
 443:Generated_Source\PSoC4/nRF24_FUNCS.c **** 
 996              		.loc 1 443 0
 997              		@ sp needed
 998 000a 10BD     		pop	{r4, pc}
 999              		.cfi_endproc
ARM GAS  C:\Users\AFDHAL~1\AppData\Local\Temp\ccielSKc.s 			page 37


 1000              	.LFE59:
 1001              		.size	nRF24_set_rx_pipe_3_address, .-nRF24_set_rx_pipe_3_address
 1002              		.section	.text.nRF24_get_rx_pipe_3_address,"ax",%progbits
 1003              		.align	2
 1004              		.global	nRF24_get_rx_pipe_3_address
 1005              		.code	16
 1006              		.thumb_func
 1007              		.type	nRF24_get_rx_pipe_3_address, %function
 1008              	nRF24_get_rx_pipe_3_address:
 1009              	.LFB60:
 452:Generated_Source\PSoC4/nRF24_FUNCS.c ****     if (NULL == addr) {
 1010              		.loc 1 452 0
 1011              		.cfi_startproc
 1012              		@ args = 0, pretend = 0, frame = 0
 1013              		@ frame_needed = 0, uses_anonymous_args = 0
 1014              	.LVL101:
 1015 0000 70B5     		push	{r4, r5, r6, lr}
 1016              		.cfi_def_cfa_offset 16
 1017              		.cfi_offset 4, -16
 1018              		.cfi_offset 5, -12
 1019              		.cfi_offset 6, -8
 1020              		.cfi_offset 14, -4
 452:Generated_Source\PSoC4/nRF24_FUNCS.c ****     if (NULL == addr) {
 1021              		.loc 1 452 0
 1022 0002 051E     		subs	r5, r0, #0
 453:Generated_Source\PSoC4/nRF24_FUNCS.c ****         return;
 1023              		.loc 1 453 0
 1024 0004 0CD0     		beq	.L66
 1025              	.LVL102:
 462:Generated_Source\PSoC4/nRF24_FUNCS.c ****     addr[size - 1] = nRF24_read_register(NRF_RX_ADDR_P3_REG);
 1026              		.loc 1 462 0
 1027 0006 0529     		cmp	r1, #5
 1028 0008 0BD8     		bhi	.L72
 1029              	.LVL103:
 1030              	.L68:
 1031 000a 4C1E     		subs	r4, r1, #1
 1032 000c 2200     		movs	r2, r4
 1033 000e 2900     		movs	r1, r5
 1034 0010 0B20     		movs	r0, #11
 1035              	.LVL104:
 1036 0012 FFF7FEFF 		bl	nRF24_read_long_register
 1037              	.LVL105:
 463:Generated_Source\PSoC4/nRF24_FUNCS.c **** }
 1038              		.loc 1 463 0
 1039 0016 0D20     		movs	r0, #13
 1040 0018 FFF7FEFF 		bl	nRF24_read_register
 1041              	.LVL106:
 1042 001c 2C19     		adds	r4, r5, r4
 1043 001e 2070     		strb	r0, [r4]
 1044              	.LVL107:
 1045              	.L66:
 464:Generated_Source\PSoC4/nRF24_FUNCS.c **** 
 1046              		.loc 1 464 0
 1047              		@ sp needed
 1048              	.LVL108:
 1049 0020 70BD     		pop	{r4, r5, r6, pc}
 1050              	.LVL109:
ARM GAS  C:\Users\AFDHAL~1\AppData\Local\Temp\ccielSKc.s 			page 38


 1051              	.L72:
 462:Generated_Source\PSoC4/nRF24_FUNCS.c ****     addr[size - 1] = nRF24_read_register(NRF_RX_ADDR_P3_REG);
 1052              		.loc 1 462 0
 1053 0022 0521     		movs	r1, #5
 1054              	.LVL110:
 1055 0024 F1E7     		b	.L68
 1056              		.cfi_endproc
 1057              	.LFE60:
 1058              		.size	nRF24_get_rx_pipe_3_address, .-nRF24_get_rx_pipe_3_address
 1059 0026 C046     		.section	.text.nRF24_set_rx_pipe_4_address,"ax",%progbits
 1060              		.align	2
 1061              		.global	nRF24_set_rx_pipe_4_address
 1062              		.code	16
 1063              		.thumb_func
 1064              		.type	nRF24_set_rx_pipe_4_address, %function
 1065              	nRF24_set_rx_pipe_4_address:
 1066              	.LFB61:
 472:Generated_Source\PSoC4/nRF24_FUNCS.c ****     nRF24_write_register(NRF_RX_ADDR_P4_REG, addr_lsb);
 1067              		.loc 1 472 0
 1068              		.cfi_startproc
 1069              		@ args = 0, pretend = 0, frame = 0
 1070              		@ frame_needed = 0, uses_anonymous_args = 0
 1071              	.LVL111:
 1072 0000 10B5     		push	{r4, lr}
 1073              		.cfi_def_cfa_offset 8
 1074              		.cfi_offset 4, -8
 1075              		.cfi_offset 14, -4
 472:Generated_Source\PSoC4/nRF24_FUNCS.c ****     nRF24_write_register(NRF_RX_ADDR_P4_REG, addr_lsb);
 1076              		.loc 1 472 0
 1077 0002 0100     		movs	r1, r0
 473:Generated_Source\PSoC4/nRF24_FUNCS.c **** }
 1078              		.loc 1 473 0
 1079 0004 0E20     		movs	r0, #14
 1080              	.LVL112:
 1081 0006 FFF7FEFF 		bl	nRF24_write_register
 1082              	.LVL113:
 474:Generated_Source\PSoC4/nRF24_FUNCS.c **** 
 1083              		.loc 1 474 0
 1084              		@ sp needed
 1085 000a 10BD     		pop	{r4, pc}
 1086              		.cfi_endproc
 1087              	.LFE61:
 1088              		.size	nRF24_set_rx_pipe_4_address, .-nRF24_set_rx_pipe_4_address
 1089              		.section	.text.nRF24_get_rx_pipe_4_address,"ax",%progbits
 1090              		.align	2
 1091              		.global	nRF24_get_rx_pipe_4_address
 1092              		.code	16
 1093              		.thumb_func
 1094              		.type	nRF24_get_rx_pipe_4_address, %function
 1095              	nRF24_get_rx_pipe_4_address:
 1096              	.LFB62:
 483:Generated_Source\PSoC4/nRF24_FUNCS.c ****     if (NULL == addr) {
 1097              		.loc 1 483 0
 1098              		.cfi_startproc
 1099              		@ args = 0, pretend = 0, frame = 0
 1100              		@ frame_needed = 0, uses_anonymous_args = 0
 1101              	.LVL114:
ARM GAS  C:\Users\AFDHAL~1\AppData\Local\Temp\ccielSKc.s 			page 39


 1102 0000 70B5     		push	{r4, r5, r6, lr}
 1103              		.cfi_def_cfa_offset 16
 1104              		.cfi_offset 4, -16
 1105              		.cfi_offset 5, -12
 1106              		.cfi_offset 6, -8
 1107              		.cfi_offset 14, -4
 483:Generated_Source\PSoC4/nRF24_FUNCS.c ****     if (NULL == addr) {
 1108              		.loc 1 483 0
 1109 0002 051E     		subs	r5, r0, #0
 484:Generated_Source\PSoC4/nRF24_FUNCS.c ****         return;
 1110              		.loc 1 484 0
 1111 0004 0CD0     		beq	.L74
 1112              	.LVL115:
 493:Generated_Source\PSoC4/nRF24_FUNCS.c ****     addr[size - 1] = nRF24_read_register(NRF_RX_ADDR_P4_REG);
 1113              		.loc 1 493 0
 1114 0006 0529     		cmp	r1, #5
 1115 0008 0BD8     		bhi	.L80
 1116              	.LVL116:
 1117              	.L76:
 1118 000a 4C1E     		subs	r4, r1, #1
 1119 000c 2200     		movs	r2, r4
 1120 000e 2900     		movs	r1, r5
 1121 0010 0B20     		movs	r0, #11
 1122              	.LVL117:
 1123 0012 FFF7FEFF 		bl	nRF24_read_long_register
 1124              	.LVL118:
 494:Generated_Source\PSoC4/nRF24_FUNCS.c **** }
 1125              		.loc 1 494 0
 1126 0016 0E20     		movs	r0, #14
 1127 0018 FFF7FEFF 		bl	nRF24_read_register
 1128              	.LVL119:
 1129 001c 2C19     		adds	r4, r5, r4
 1130 001e 2070     		strb	r0, [r4]
 1131              	.LVL120:
 1132              	.L74:
 495:Generated_Source\PSoC4/nRF24_FUNCS.c **** 
 1133              		.loc 1 495 0
 1134              		@ sp needed
 1135              	.LVL121:
 1136 0020 70BD     		pop	{r4, r5, r6, pc}
 1137              	.LVL122:
 1138              	.L80:
 493:Generated_Source\PSoC4/nRF24_FUNCS.c ****     addr[size - 1] = nRF24_read_register(NRF_RX_ADDR_P4_REG);
 1139              		.loc 1 493 0
 1140 0022 0521     		movs	r1, #5
 1141              	.LVL123:
 1142 0024 F1E7     		b	.L76
 1143              		.cfi_endproc
 1144              	.LFE62:
 1145              		.size	nRF24_get_rx_pipe_4_address, .-nRF24_get_rx_pipe_4_address
 1146 0026 C046     		.section	.text.nRF24_set_rx_pipe_5_address,"ax",%progbits
 1147              		.align	2
 1148              		.global	nRF24_set_rx_pipe_5_address
 1149              		.code	16
 1150              		.thumb_func
 1151              		.type	nRF24_set_rx_pipe_5_address, %function
 1152              	nRF24_set_rx_pipe_5_address:
ARM GAS  C:\Users\AFDHAL~1\AppData\Local\Temp\ccielSKc.s 			page 40


 1153              	.LFB63:
 503:Generated_Source\PSoC4/nRF24_FUNCS.c ****     nRF24_write_register(NRF_RX_ADDR_P5_REG, addr_lsb);
 1154              		.loc 1 503 0
 1155              		.cfi_startproc
 1156              		@ args = 0, pretend = 0, frame = 0
 1157              		@ frame_needed = 0, uses_anonymous_args = 0
 1158              	.LVL124:
 1159 0000 10B5     		push	{r4, lr}
 1160              		.cfi_def_cfa_offset 8
 1161              		.cfi_offset 4, -8
 1162              		.cfi_offset 14, -4
 503:Generated_Source\PSoC4/nRF24_FUNCS.c ****     nRF24_write_register(NRF_RX_ADDR_P5_REG, addr_lsb);
 1163              		.loc 1 503 0
 1164 0002 0100     		movs	r1, r0
 504:Generated_Source\PSoC4/nRF24_FUNCS.c **** }
 1165              		.loc 1 504 0
 1166 0004 0F20     		movs	r0, #15
 1167              	.LVL125:
 1168 0006 FFF7FEFF 		bl	nRF24_write_register
 1169              	.LVL126:
 505:Generated_Source\PSoC4/nRF24_FUNCS.c **** 
 1170              		.loc 1 505 0
 1171              		@ sp needed
 1172 000a 10BD     		pop	{r4, pc}
 1173              		.cfi_endproc
 1174              	.LFE63:
 1175              		.size	nRF24_set_rx_pipe_5_address, .-nRF24_set_rx_pipe_5_address
 1176              		.section	.text.nRF24_get_rx_pipe_5_address,"ax",%progbits
 1177              		.align	2
 1178              		.global	nRF24_get_rx_pipe_5_address
 1179              		.code	16
 1180              		.thumb_func
 1181              		.type	nRF24_get_rx_pipe_5_address, %function
 1182              	nRF24_get_rx_pipe_5_address:
 1183              	.LFB64:
 514:Generated_Source\PSoC4/nRF24_FUNCS.c ****     if (NULL == addr) {
 1184              		.loc 1 514 0
 1185              		.cfi_startproc
 1186              		@ args = 0, pretend = 0, frame = 0
 1187              		@ frame_needed = 0, uses_anonymous_args = 0
 1188              	.LVL127:
 1189 0000 70B5     		push	{r4, r5, r6, lr}
 1190              		.cfi_def_cfa_offset 16
 1191              		.cfi_offset 4, -16
 1192              		.cfi_offset 5, -12
 1193              		.cfi_offset 6, -8
 1194              		.cfi_offset 14, -4
 514:Generated_Source\PSoC4/nRF24_FUNCS.c ****     if (NULL == addr) {
 1195              		.loc 1 514 0
 1196 0002 051E     		subs	r5, r0, #0
 515:Generated_Source\PSoC4/nRF24_FUNCS.c ****         return;
 1197              		.loc 1 515 0
 1198 0004 0CD0     		beq	.L82
 1199              	.LVL128:
 524:Generated_Source\PSoC4/nRF24_FUNCS.c ****     addr[size - 1] = nRF24_read_register(NRF_RX_ADDR_P5_REG);
 1200              		.loc 1 524 0
 1201 0006 0529     		cmp	r1, #5
ARM GAS  C:\Users\AFDHAL~1\AppData\Local\Temp\ccielSKc.s 			page 41


 1202 0008 0BD8     		bhi	.L88
 1203              	.LVL129:
 1204              	.L84:
 1205 000a 4C1E     		subs	r4, r1, #1
 1206 000c 2200     		movs	r2, r4
 1207 000e 2900     		movs	r1, r5
 1208 0010 0B20     		movs	r0, #11
 1209              	.LVL130:
 1210 0012 FFF7FEFF 		bl	nRF24_read_long_register
 1211              	.LVL131:
 525:Generated_Source\PSoC4/nRF24_FUNCS.c **** }
 1212              		.loc 1 525 0
 1213 0016 0F20     		movs	r0, #15
 1214 0018 FFF7FEFF 		bl	nRF24_read_register
 1215              	.LVL132:
 1216 001c 2C19     		adds	r4, r5, r4
 1217 001e 2070     		strb	r0, [r4]
 1218              	.LVL133:
 1219              	.L82:
 526:Generated_Source\PSoC4/nRF24_FUNCS.c **** 
 1220              		.loc 1 526 0
 1221              		@ sp needed
 1222              	.LVL134:
 1223 0020 70BD     		pop	{r4, r5, r6, pc}
 1224              	.LVL135:
 1225              	.L88:
 524:Generated_Source\PSoC4/nRF24_FUNCS.c ****     addr[size - 1] = nRF24_read_register(NRF_RX_ADDR_P5_REG);
 1226              		.loc 1 524 0
 1227 0022 0521     		movs	r1, #5
 1228              	.LVL136:
 1229 0024 F1E7     		b	.L84
 1230              		.cfi_endproc
 1231              	.LFE64:
 1232              		.size	nRF24_get_rx_pipe_5_address, .-nRF24_get_rx_pipe_5_address
 1233 0026 C046     		.section	.text.nRF24_set_tx_address,"ax",%progbits
 1234              		.align	2
 1235              		.global	nRF24_set_tx_address
 1236              		.code	16
 1237              		.thumb_func
 1238              		.type	nRF24_set_tx_address, %function
 1239              	nRF24_set_tx_address:
 1240              	.LFB65:
 535:Generated_Source\PSoC4/nRF24_FUNCS.c ****     if (NULL == addr) {
 1241              		.loc 1 535 0
 1242              		.cfi_startproc
 1243              		@ args = 0, pretend = 0, frame = 0
 1244              		@ frame_needed = 0, uses_anonymous_args = 0
 1245              	.LVL137:
 1246 0000 10B5     		push	{r4, lr}
 1247              		.cfi_def_cfa_offset 8
 1248              		.cfi_offset 4, -8
 1249              		.cfi_offset 14, -4
 536:Generated_Source\PSoC4/nRF24_FUNCS.c ****         return;
 1250              		.loc 1 536 0
 1251 0002 0028     		cmp	r0, #0
 1252 0004 06D0     		beq	.L89
 1253              	.LVL138:
ARM GAS  C:\Users\AFDHAL~1\AppData\Local\Temp\ccielSKc.s 			page 42


 544:Generated_Source\PSoC4/nRF24_FUNCS.c **** }
 1254              		.loc 1 544 0
 1255 0006 0A00     		movs	r2, r1
 1256 0008 0529     		cmp	r1, #5
 1257 000a 04D8     		bhi	.L95
 1258              	.L91:
 1259 000c 0100     		movs	r1, r0
 1260              	.LVL139:
 1261 000e 1020     		movs	r0, #16
 1262              	.LVL140:
 1263 0010 FFF7FEFF 		bl	nRF24_write_long_register
 1264              	.LVL141:
 1265              	.L89:
 545:Generated_Source\PSoC4/nRF24_FUNCS.c **** 
 1266              		.loc 1 545 0
 1267              		@ sp needed
 1268 0014 10BD     		pop	{r4, pc}
 1269              	.LVL142:
 1270              	.L95:
 544:Generated_Source\PSoC4/nRF24_FUNCS.c **** }
 1271              		.loc 1 544 0
 1272 0016 0522     		movs	r2, #5
 1273 0018 F8E7     		b	.L91
 1274              		.cfi_endproc
 1275              	.LFE65:
 1276              		.size	nRF24_set_tx_address, .-nRF24_set_tx_address
 1277 001a C046     		.section	.text.nRF24_get_tx_address,"ax",%progbits
 1278              		.align	2
 1279              		.global	nRF24_get_tx_address
 1280              		.code	16
 1281              		.thumb_func
 1282              		.type	nRF24_get_tx_address, %function
 1283              	nRF24_get_tx_address:
 1284              	.LFB66:
 554:Generated_Source\PSoC4/nRF24_FUNCS.c ****     if (NULL == addr) {
 1285              		.loc 1 554 0
 1286              		.cfi_startproc
 1287              		@ args = 0, pretend = 0, frame = 0
 1288              		@ frame_needed = 0, uses_anonymous_args = 0
 1289              	.LVL143:
 1290 0000 10B5     		push	{r4, lr}
 1291              		.cfi_def_cfa_offset 8
 1292              		.cfi_offset 4, -8
 1293              		.cfi_offset 14, -4
 555:Generated_Source\PSoC4/nRF24_FUNCS.c ****         return;
 1294              		.loc 1 555 0
 1295 0002 0028     		cmp	r0, #0
 1296 0004 06D0     		beq	.L96
 1297              	.LVL144:
 563:Generated_Source\PSoC4/nRF24_FUNCS.c **** }
 1298              		.loc 1 563 0
 1299 0006 0A00     		movs	r2, r1
 1300 0008 0529     		cmp	r1, #5
 1301 000a 04D8     		bhi	.L102
 1302              	.L98:
 1303 000c 0100     		movs	r1, r0
 1304              	.LVL145:
ARM GAS  C:\Users\AFDHAL~1\AppData\Local\Temp\ccielSKc.s 			page 43


 1305 000e 1020     		movs	r0, #16
 1306              	.LVL146:
 1307 0010 FFF7FEFF 		bl	nRF24_read_long_register
 1308              	.LVL147:
 1309              	.L96:
 564:Generated_Source\PSoC4/nRF24_FUNCS.c **** 
 1310              		.loc 1 564 0
 1311              		@ sp needed
 1312 0014 10BD     		pop	{r4, pc}
 1313              	.LVL148:
 1314              	.L102:
 563:Generated_Source\PSoC4/nRF24_FUNCS.c **** }
 1315              		.loc 1 563 0
 1316 0016 0522     		movs	r2, #5
 1317 0018 F8E7     		b	.L98
 1318              		.cfi_endproc
 1319              	.LFE66:
 1320              		.size	nRF24_get_tx_address, .-nRF24_get_tx_address
 1321 001a C046     		.section	.text.nRF24_set_payload_size,"ax",%progbits
 1322              		.align	2
 1323              		.global	nRF24_set_payload_size
 1324              		.code	16
 1325              		.thumb_func
 1326              		.type	nRF24_set_payload_size, %function
 1327              	nRF24_set_payload_size:
 1328              	.LFB67:
 575:Generated_Source\PSoC4/nRF24_FUNCS.c ****     if (NRF_MAX_PAYLOAD_SIZE < size) {
 1329              		.loc 1 575 0
 1330              		.cfi_startproc
 1331              		@ args = 0, pretend = 0, frame = 0
 1332              		@ frame_needed = 0, uses_anonymous_args = 0
 1333              	.LVL149:
 1334 0000 10B5     		push	{r4, lr}
 1335              		.cfi_def_cfa_offset 8
 1336              		.cfi_offset 4, -8
 1337              		.cfi_offset 14, -4
 580:Generated_Source\PSoC4/nRF24_FUNCS.c **** }
 1338              		.loc 1 580 0
 1339 0002 0B1C     		adds	r3, r1, #0
 1340 0004 2029     		cmp	r1, #32
 1341 0006 00D9     		bls	.L104
 1342 0008 2023     		movs	r3, #32
 1343              	.L104:
 1344 000a D9B2     		uxtb	r1, r3
 1345              	.LVL150:
 1346 000c FFF7FEFF 		bl	nRF24_write_register
 1347              	.LVL151:
 581:Generated_Source\PSoC4/nRF24_FUNCS.c **** 
 1348              		.loc 1 581 0
 1349              		@ sp needed
 1350 0010 10BD     		pop	{r4, pc}
 1351              		.cfi_endproc
 1352              	.LFE67:
 1353              		.size	nRF24_set_payload_size, .-nRF24_set_payload_size
 1354 0012 C046     		.section	.text.nRF24_get_payload_size,"ax",%progbits
 1355              		.align	2
 1356              		.global	nRF24_get_payload_size
ARM GAS  C:\Users\AFDHAL~1\AppData\Local\Temp\ccielSKc.s 			page 44


 1357              		.code	16
 1358              		.thumb_func
 1359              		.type	nRF24_get_payload_size, %function
 1360              	nRF24_get_payload_size:
 1361              	.LFB68:
 591:Generated_Source\PSoC4/nRF24_FUNCS.c ****     return nRF24_read_register(pipe);
 1362              		.loc 1 591 0
 1363              		.cfi_startproc
 1364              		@ args = 0, pretend = 0, frame = 0
 1365              		@ frame_needed = 0, uses_anonymous_args = 0
 1366              	.LVL152:
 1367 0000 10B5     		push	{r4, lr}
 1368              		.cfi_def_cfa_offset 8
 1369              		.cfi_offset 4, -8
 1370              		.cfi_offset 14, -4
 592:Generated_Source\PSoC4/nRF24_FUNCS.c **** }
 1371              		.loc 1 592 0
 1372 0002 FFF7FEFF 		bl	nRF24_read_register
 1373              	.LVL153:
 593:Generated_Source\PSoC4/nRF24_FUNCS.c **** 
 1374              		.loc 1 593 0
 1375              		@ sp needed
 1376 0006 10BD     		pop	{r4, pc}
 1377              		.cfi_endproc
 1378              	.LFE68:
 1379              		.size	nRF24_get_payload_size, .-nRF24_get_payload_size
 1380              		.section	.text.nRF24_reuse_last_transmitted_payload,"ax",%progbits
 1381              		.align	2
 1382              		.global	nRF24_reuse_last_transmitted_payload
 1383              		.code	16
 1384              		.thumb_func
 1385              		.type	nRF24_reuse_last_transmitted_payload, %function
 1386              	nRF24_reuse_last_transmitted_payload:
 1387              	.LFB69:
 602:Generated_Source\PSoC4/nRF24_FUNCS.c ****     nRF24_reuse_tx_payload_cmd();
 1388              		.loc 1 602 0
 1389              		.cfi_startproc
 1390              		@ args = 0, pretend = 0, frame = 0
 1391              		@ frame_needed = 0, uses_anonymous_args = 0
 1392 0000 10B5     		push	{r4, lr}
 1393              		.cfi_def_cfa_offset 8
 1394              		.cfi_offset 4, -8
 1395              		.cfi_offset 14, -4
 603:Generated_Source\PSoC4/nRF24_FUNCS.c ****     nRF24_transmit_pulse();
 1396              		.loc 1 603 0
 1397 0002 FFF7FEFF 		bl	nRF24_reuse_tx_payload_cmd
 1398              	.LVL154:
 1399              	.LBB40:
 1400              	.LBB41:
 749:Generated_Source\PSoC4/nRF24_FUNCS.c ****     CyDelayUs(NRF_CE_PULSE_WIDTH);
 1401              		.loc 1 749 0
 1402 0006 0120     		movs	r0, #1
 1403 0008 FFF7FEFF 		bl	CE_Write
 1404              	.LVL155:
 750:Generated_Source\PSoC4/nRF24_FUNCS.c ****     CE_Write(0);
 1405              		.loc 1 750 0
 1406 000c 0F20     		movs	r0, #15
ARM GAS  C:\Users\AFDHAL~1\AppData\Local\Temp\ccielSKc.s 			page 45


 1407 000e FFF7FEFF 		bl	CyDelayUs
 1408              	.LVL156:
 751:Generated_Source\PSoC4/nRF24_FUNCS.c **** #endif
 1409              		.loc 1 751 0
 1410 0012 0020     		movs	r0, #0
 1411 0014 FFF7FEFF 		bl	CE_Write
 1412              	.LVL157:
 1413              	.LBE41:
 1414              	.LBE40:
 605:Generated_Source\PSoC4/nRF24_FUNCS.c **** 
 1415              		.loc 1 605 0
 1416              		@ sp needed
 1417 0018 10BD     		pop	{r4, pc}
 1418              		.cfi_endproc
 1419              	.LFE69:
 1420              		.size	nRF24_reuse_last_transmitted_payload, .-nRF24_reuse_last_transmitted_payload
 1421 001a C046     		.section	.text.nRF24_enable_dynamic_payload,"ax",%progbits
 1422              		.align	2
 1423              		.global	nRF24_enable_dynamic_payload
 1424              		.code	16
 1425              		.thumb_func
 1426              		.type	nRF24_enable_dynamic_payload, %function
 1427              	nRF24_enable_dynamic_payload:
 1428              	.LFB70:
 613:Generated_Source\PSoC4/nRF24_FUNCS.c ****     nRF24_set_bit(NRF_EN_AA_REG, pipe);
 1429              		.loc 1 613 0
 1430              		.cfi_startproc
 1431              		@ args = 0, pretend = 0, frame = 0
 1432              		@ frame_needed = 0, uses_anonymous_args = 0
 1433              	.LVL158:
 1434 0000 10B5     		push	{r4, lr}
 1435              		.cfi_def_cfa_offset 8
 1436              		.cfi_offset 4, -8
 1437              		.cfi_offset 14, -4
 613:Generated_Source\PSoC4/nRF24_FUNCS.c ****     nRF24_set_bit(NRF_EN_AA_REG, pipe);
 1438              		.loc 1 613 0
 1439 0002 0400     		movs	r4, r0
 614:Generated_Source\PSoC4/nRF24_FUNCS.c ****     nRF24_set_bit(NRF_FEATURE_REG, NRF_FEATURE_EN_ACK_PAY);
 1440              		.loc 1 614 0
 1441 0004 0100     		movs	r1, r0
 1442 0006 0120     		movs	r0, #1
 1443              	.LVL159:
 1444 0008 FFF7FEFF 		bl	nRF24_set_bit
 1445              	.LVL160:
 615:Generated_Source\PSoC4/nRF24_FUNCS.c ****     nRF24_set_bit(NRF_FEATURE_REG, NRF_FEATURE_EN_DPL);
 1446              		.loc 1 615 0
 1447 000c 0121     		movs	r1, #1
 1448 000e 1D20     		movs	r0, #29
 1449 0010 FFF7FEFF 		bl	nRF24_set_bit
 1450              	.LVL161:
 616:Generated_Source\PSoC4/nRF24_FUNCS.c ****     nRF24_set_bit(NRF_DYNPD_REG, pipe);
 1451              		.loc 1 616 0
 1452 0014 0221     		movs	r1, #2
 1453 0016 1D20     		movs	r0, #29
 1454 0018 FFF7FEFF 		bl	nRF24_set_bit
 1455              	.LVL162:
 617:Generated_Source\PSoC4/nRF24_FUNCS.c **** }
ARM GAS  C:\Users\AFDHAL~1\AppData\Local\Temp\ccielSKc.s 			page 46


 1456              		.loc 1 617 0
 1457 001c 2100     		movs	r1, r4
 1458 001e 1C20     		movs	r0, #28
 1459 0020 FFF7FEFF 		bl	nRF24_set_bit
 1460              	.LVL163:
 618:Generated_Source\PSoC4/nRF24_FUNCS.c **** 
 1461              		.loc 1 618 0
 1462              		@ sp needed
 1463 0024 10BD     		pop	{r4, pc}
 1464              		.cfi_endproc
 1465              	.LFE70:
 1466              		.size	nRF24_enable_dynamic_payload, .-nRF24_enable_dynamic_payload
 1467 0026 C046     		.section	.text.nRF24_disable_dynamic_payload,"ax",%progbits
 1468              		.align	2
 1469              		.global	nRF24_disable_dynamic_payload
 1470              		.code	16
 1471              		.thumb_func
 1472              		.type	nRF24_disable_dynamic_payload, %function
 1473              	nRF24_disable_dynamic_payload:
 1474              	.LFB71:
 626:Generated_Source\PSoC4/nRF24_FUNCS.c ****     nRF24_clear_bit(NRF_EN_AA_REG, pipe);
 1475              		.loc 1 626 0
 1476              		.cfi_startproc
 1477              		@ args = 0, pretend = 0, frame = 0
 1478              		@ frame_needed = 0, uses_anonymous_args = 0
 1479              	.LVL164:
 1480 0000 10B5     		push	{r4, lr}
 1481              		.cfi_def_cfa_offset 8
 1482              		.cfi_offset 4, -8
 1483              		.cfi_offset 14, -4
 626:Generated_Source\PSoC4/nRF24_FUNCS.c ****     nRF24_clear_bit(NRF_EN_AA_REG, pipe);
 1484              		.loc 1 626 0
 1485 0002 0400     		movs	r4, r0
 627:Generated_Source\PSoC4/nRF24_FUNCS.c ****     nRF24_clear_bit(NRF_FEATURE_REG, NRF_FEATURE_EN_ACK_PAY);
 1486              		.loc 1 627 0
 1487 0004 0100     		movs	r1, r0
 1488 0006 0120     		movs	r0, #1
 1489              	.LVL165:
 1490 0008 FFF7FEFF 		bl	nRF24_clear_bit
 1491              	.LVL166:
 628:Generated_Source\PSoC4/nRF24_FUNCS.c ****     nRF24_clear_bit(NRF_FEATURE_REG, NRF_FEATURE_EN_DPL);
 1492              		.loc 1 628 0
 1493 000c 0121     		movs	r1, #1
 1494 000e 1D20     		movs	r0, #29
 1495 0010 FFF7FEFF 		bl	nRF24_clear_bit
 1496              	.LVL167:
 629:Generated_Source\PSoC4/nRF24_FUNCS.c ****     nRF24_clear_bit(NRF_DYNPD_REG, pipe);
 1497              		.loc 1 629 0
 1498 0014 0221     		movs	r1, #2
 1499 0016 1D20     		movs	r0, #29
 1500 0018 FFF7FEFF 		bl	nRF24_clear_bit
 1501              	.LVL168:
 630:Generated_Source\PSoC4/nRF24_FUNCS.c **** }
 1502              		.loc 1 630 0
 1503 001c 2100     		movs	r1, r4
 1504 001e 1C20     		movs	r0, #28
 1505 0020 FFF7FEFF 		bl	nRF24_clear_bit
ARM GAS  C:\Users\AFDHAL~1\AppData\Local\Temp\ccielSKc.s 			page 47


 1506              	.LVL169:
 631:Generated_Source\PSoC4/nRF24_FUNCS.c **** 
 1507              		.loc 1 631 0
 1508              		@ sp needed
 1509 0024 10BD     		pop	{r4, pc}
 1510              		.cfi_endproc
 1511              	.LFE71:
 1512              		.size	nRF24_disable_dynamic_payload, .-nRF24_disable_dynamic_payload
 1513 0026 C046     		.section	.text.nRF24_enable_dynamic_payload_length,"ax",%progbits
 1514              		.align	2
 1515              		.global	nRF24_enable_dynamic_payload_length
 1516              		.code	16
 1517              		.thumb_func
 1518              		.type	nRF24_enable_dynamic_payload_length, %function
 1519              	nRF24_enable_dynamic_payload_length:
 1520              	.LFB72:
 637:Generated_Source\PSoC4/nRF24_FUNCS.c ****     nRF24_set_bit(NRF_FEATURE_REG, NRF_FEATURE_EN_DPL);
 1521              		.loc 1 637 0
 1522              		.cfi_startproc
 1523              		@ args = 0, pretend = 0, frame = 0
 1524              		@ frame_needed = 0, uses_anonymous_args = 0
 1525 0000 10B5     		push	{r4, lr}
 1526              		.cfi_def_cfa_offset 8
 1527              		.cfi_offset 4, -8
 1528              		.cfi_offset 14, -4
 638:Generated_Source\PSoC4/nRF24_FUNCS.c **** }
 1529              		.loc 1 638 0
 1530 0002 0221     		movs	r1, #2
 1531 0004 1D20     		movs	r0, #29
 1532 0006 FFF7FEFF 		bl	nRF24_set_bit
 1533              	.LVL170:
 639:Generated_Source\PSoC4/nRF24_FUNCS.c **** 
 1534              		.loc 1 639 0
 1535              		@ sp needed
 1536 000a 10BD     		pop	{r4, pc}
 1537              		.cfi_endproc
 1538              	.LFE72:
 1539              		.size	nRF24_enable_dynamic_payload_length, .-nRF24_enable_dynamic_payload_length
 1540              		.section	.text.nRF24_disable_dynamic_payload_length,"ax",%progbits
 1541              		.align	2
 1542              		.global	nRF24_disable_dynamic_payload_length
 1543              		.code	16
 1544              		.thumb_func
 1545              		.type	nRF24_disable_dynamic_payload_length, %function
 1546              	nRF24_disable_dynamic_payload_length:
 1547              	.LFB73:
 645:Generated_Source\PSoC4/nRF24_FUNCS.c ****     nRF24_clear_bit(NRF_FEATURE_REG, NRF_FEATURE_EN_DPL);
 1548              		.loc 1 645 0
 1549              		.cfi_startproc
 1550              		@ args = 0, pretend = 0, frame = 0
 1551              		@ frame_needed = 0, uses_anonymous_args = 0
 1552 0000 10B5     		push	{r4, lr}
 1553              		.cfi_def_cfa_offset 8
 1554              		.cfi_offset 4, -8
 1555              		.cfi_offset 14, -4
 646:Generated_Source\PSoC4/nRF24_FUNCS.c **** }
 1556              		.loc 1 646 0
ARM GAS  C:\Users\AFDHAL~1\AppData\Local\Temp\ccielSKc.s 			page 48


 1557 0002 0221     		movs	r1, #2
 1558 0004 1D20     		movs	r0, #29
 1559 0006 FFF7FEFF 		bl	nRF24_clear_bit
 1560              	.LVL171:
 647:Generated_Source\PSoC4/nRF24_FUNCS.c **** 
 1561              		.loc 1 647 0
 1562              		@ sp needed
 1563 000a 10BD     		pop	{r4, pc}
 1564              		.cfi_endproc
 1565              	.LFE73:
 1566              		.size	nRF24_disable_dynamic_payload_length, .-nRF24_disable_dynamic_payload_length
 1567              		.section	.text.nRF24_enable_payload_with_ack,"ax",%progbits
 1568              		.align	2
 1569              		.global	nRF24_enable_payload_with_ack
 1570              		.code	16
 1571              		.thumb_func
 1572              		.type	nRF24_enable_payload_with_ack, %function
 1573              	nRF24_enable_payload_with_ack:
 1574              	.LFB74:
 653:Generated_Source\PSoC4/nRF24_FUNCS.c ****     nRF24_set_bit(NRF_FEATURE_REG, NRF_FEATURE_EN_ACK_PAY);
 1575              		.loc 1 653 0
 1576              		.cfi_startproc
 1577              		@ args = 0, pretend = 0, frame = 0
 1578              		@ frame_needed = 0, uses_anonymous_args = 0
 1579 0000 10B5     		push	{r4, lr}
 1580              		.cfi_def_cfa_offset 8
 1581              		.cfi_offset 4, -8
 1582              		.cfi_offset 14, -4
 654:Generated_Source\PSoC4/nRF24_FUNCS.c **** }
 1583              		.loc 1 654 0
 1584 0002 0121     		movs	r1, #1
 1585 0004 1D20     		movs	r0, #29
 1586 0006 FFF7FEFF 		bl	nRF24_set_bit
 1587              	.LVL172:
 655:Generated_Source\PSoC4/nRF24_FUNCS.c **** 
 1588              		.loc 1 655 0
 1589              		@ sp needed
 1590 000a 10BD     		pop	{r4, pc}
 1591              		.cfi_endproc
 1592              	.LFE74:
 1593              		.size	nRF24_enable_payload_with_ack, .-nRF24_enable_payload_with_ack
 1594              		.section	.text.nRF24_disable_payload_with_ack,"ax",%progbits
 1595              		.align	2
 1596              		.global	nRF24_disable_payload_with_ack
 1597              		.code	16
 1598              		.thumb_func
 1599              		.type	nRF24_disable_payload_with_ack, %function
 1600              	nRF24_disable_payload_with_ack:
 1601              	.LFB75:
 661:Generated_Source\PSoC4/nRF24_FUNCS.c ****     nRF24_clear_bit(NRF_FEATURE_REG, NRF_FEATURE_EN_ACK_PAY);
 1602              		.loc 1 661 0
 1603              		.cfi_startproc
 1604              		@ args = 0, pretend = 0, frame = 0
 1605              		@ frame_needed = 0, uses_anonymous_args = 0
 1606 0000 10B5     		push	{r4, lr}
 1607              		.cfi_def_cfa_offset 8
 1608              		.cfi_offset 4, -8
ARM GAS  C:\Users\AFDHAL~1\AppData\Local\Temp\ccielSKc.s 			page 49


 1609              		.cfi_offset 14, -4
 662:Generated_Source\PSoC4/nRF24_FUNCS.c **** }
 1610              		.loc 1 662 0
 1611 0002 0121     		movs	r1, #1
 1612 0004 1D20     		movs	r0, #29
 1613 0006 FFF7FEFF 		bl	nRF24_clear_bit
 1614              	.LVL173:
 663:Generated_Source\PSoC4/nRF24_FUNCS.c **** 
 1615              		.loc 1 663 0
 1616              		@ sp needed
 1617 000a 10BD     		pop	{r4, pc}
 1618              		.cfi_endproc
 1619              	.LFE75:
 1620              		.size	nRF24_disable_payload_with_ack, .-nRF24_disable_payload_with_ack
 1621              		.section	.text.nRF24_enable_payload_with_no_ack_cmd,"ax",%progbits
 1622              		.align	2
 1623              		.global	nRF24_enable_payload_with_no_ack_cmd
 1624              		.code	16
 1625              		.thumb_func
 1626              		.type	nRF24_enable_payload_with_no_ack_cmd, %function
 1627              	nRF24_enable_payload_with_no_ack_cmd:
 1628              	.LFB76:
 669:Generated_Source\PSoC4/nRF24_FUNCS.c ****     nRF24_set_bit(NRF_FEATURE_REG, NRF_FEATURE_EN_DYN_ACK);
 1629              		.loc 1 669 0
 1630              		.cfi_startproc
 1631              		@ args = 0, pretend = 0, frame = 0
 1632              		@ frame_needed = 0, uses_anonymous_args = 0
 1633 0000 10B5     		push	{r4, lr}
 1634              		.cfi_def_cfa_offset 8
 1635              		.cfi_offset 4, -8
 1636              		.cfi_offset 14, -4
 670:Generated_Source\PSoC4/nRF24_FUNCS.c **** }
 1637              		.loc 1 670 0
 1638 0002 0021     		movs	r1, #0
 1639 0004 1D20     		movs	r0, #29
 1640 0006 FFF7FEFF 		bl	nRF24_set_bit
 1641              	.LVL174:
 671:Generated_Source\PSoC4/nRF24_FUNCS.c **** 
 1642              		.loc 1 671 0
 1643              		@ sp needed
 1644 000a 10BD     		pop	{r4, pc}
 1645              		.cfi_endproc
 1646              	.LFE76:
 1647              		.size	nRF24_enable_payload_with_no_ack_cmd, .-nRF24_enable_payload_with_no_ack_cmd
 1648              		.section	.text.nRF24_disable_payload_with_no_ack_cmd,"ax",%progbits
 1649              		.align	2
 1650              		.global	nRF24_disable_payload_with_no_ack_cmd
 1651              		.code	16
 1652              		.thumb_func
 1653              		.type	nRF24_disable_payload_with_no_ack_cmd, %function
 1654              	nRF24_disable_payload_with_no_ack_cmd:
 1655              	.LFB77:
 677:Generated_Source\PSoC4/nRF24_FUNCS.c ****     nRF24_clear_bit(NRF_FEATURE_REG, NRF_FEATURE_EN_DYN_ACK);
 1656              		.loc 1 677 0
 1657              		.cfi_startproc
 1658              		@ args = 0, pretend = 0, frame = 0
 1659              		@ frame_needed = 0, uses_anonymous_args = 0
ARM GAS  C:\Users\AFDHAL~1\AppData\Local\Temp\ccielSKc.s 			page 50


 1660 0000 10B5     		push	{r4, lr}
 1661              		.cfi_def_cfa_offset 8
 1662              		.cfi_offset 4, -8
 1663              		.cfi_offset 14, -4
 678:Generated_Source\PSoC4/nRF24_FUNCS.c **** }
 1664              		.loc 1 678 0
 1665 0002 0021     		movs	r1, #0
 1666 0004 1D20     		movs	r0, #29
 1667 0006 FFF7FEFF 		bl	nRF24_clear_bit
 1668              	.LVL175:
 679:Generated_Source\PSoC4/nRF24_FUNCS.c **** 
 1669              		.loc 1 679 0
 1670              		@ sp needed
 1671 000a 10BD     		pop	{r4, pc}
 1672              		.cfi_endproc
 1673              	.LFE77:
 1674              		.size	nRF24_disable_payload_with_no_ack_cmd, .-nRF24_disable_payload_with_no_ack_cmd
 1675              		.section	.text.nRF24_start_listening,"ax",%progbits
 1676              		.align	2
 1677              		.global	nRF24_start_listening
 1678              		.code	16
 1679              		.thumb_func
 1680              		.type	nRF24_start_listening, %function
 1681              	nRF24_start_listening:
 1682              	.LFB78:
 705:Generated_Source\PSoC4/nRF24_FUNCS.c **** #if 0
 1683              		.loc 1 705 0
 1684              		.cfi_startproc
 1685              		@ args = 0, pretend = 0, frame = 0
 1686              		@ frame_needed = 0, uses_anonymous_args = 0
 1687 0000 10B5     		push	{r4, lr}
 1688              		.cfi_def_cfa_offset 8
 1689              		.cfi_offset 4, -8
 1690              		.cfi_offset 14, -4
 712:Generated_Source\PSoC4/nRF24_FUNCS.c ****     #endif
 1691              		.loc 1 712 0
 1692 0002 0120     		movs	r0, #1
 1693 0004 FFF7FEFF 		bl	CE_Write
 1694              	.LVL176:
 715:Generated_Source\PSoC4/nRF24_FUNCS.c **** 
 1695              		.loc 1 715 0
 1696              		@ sp needed
 1697 0008 10BD     		pop	{r4, pc}
 1698              		.cfi_endproc
 1699              	.LFE78:
 1700              		.size	nRF24_start_listening, .-nRF24_start_listening
 1701 000a C046     		.section	.text.nRF24_stop_listening,"ax",%progbits
 1702              		.align	2
 1703              		.global	nRF24_stop_listening
 1704              		.code	16
 1705              		.thumb_func
 1706              		.type	nRF24_stop_listening, %function
 1707              	nRF24_stop_listening:
 1708              	.LFB79:
 724:Generated_Source\PSoC4/nRF24_FUNCS.c **** #if 0
 1709              		.loc 1 724 0
 1710              		.cfi_startproc
ARM GAS  C:\Users\AFDHAL~1\AppData\Local\Temp\ccielSKc.s 			page 51


 1711              		@ args = 0, pretend = 0, frame = 0
 1712              		@ frame_needed = 0, uses_anonymous_args = 0
 1713 0000 10B5     		push	{r4, lr}
 1714              		.cfi_def_cfa_offset 8
 1715              		.cfi_offset 4, -8
 1716              		.cfi_offset 14, -4
 731:Generated_Source\PSoC4/nRF24_FUNCS.c ****     #endif
 1717              		.loc 1 731 0
 1718 0002 0020     		movs	r0, #0
 1719 0004 FFF7FEFF 		bl	CE_Write
 1720              	.LVL177:
 734:Generated_Source\PSoC4/nRF24_FUNCS.c **** 
 1721              		.loc 1 734 0
 1722              		@ sp needed
 1723 0008 10BD     		pop	{r4, pc}
 1724              		.cfi_endproc
 1725              	.LFE79:
 1726              		.size	nRF24_stop_listening, .-nRF24_stop_listening
 1727 000a C046     		.section	.text.nRF24_transmit_pulse,"ax",%progbits
 1728              		.align	2
 1729              		.global	nRF24_transmit_pulse
 1730              		.code	16
 1731              		.thumb_func
 1732              		.type	nRF24_transmit_pulse, %function
 1733              	nRF24_transmit_pulse:
 1734              	.LFB80:
 743:Generated_Source\PSoC4/nRF24_FUNCS.c **** #if defined(CY_GPIO_H)
 1735              		.loc 1 743 0
 1736              		.cfi_startproc
 1737              		@ args = 0, pretend = 0, frame = 0
 1738              		@ frame_needed = 0, uses_anonymous_args = 0
 1739 0000 10B5     		push	{r4, lr}
 1740              		.cfi_def_cfa_offset 8
 1741              		.cfi_offset 4, -8
 1742              		.cfi_offset 14, -4
 749:Generated_Source\PSoC4/nRF24_FUNCS.c ****     CyDelayUs(NRF_CE_PULSE_WIDTH);
 1743              		.loc 1 749 0
 1744 0002 0120     		movs	r0, #1
 1745 0004 FFF7FEFF 		bl	CE_Write
 1746              	.LVL178:
 750:Generated_Source\PSoC4/nRF24_FUNCS.c ****     CE_Write(0);
 1747              		.loc 1 750 0
 1748 0008 0F20     		movs	r0, #15
 1749 000a FFF7FEFF 		bl	CyDelayUs
 1750              	.LVL179:
 751:Generated_Source\PSoC4/nRF24_FUNCS.c **** #endif
 1751              		.loc 1 751 0
 1752 000e 0020     		movs	r0, #0
 1753 0010 FFF7FEFF 		bl	CE_Write
 1754              	.LVL180:
 753:Generated_Source\PSoC4/nRF24_FUNCS.c **** 
 1755              		.loc 1 753 0
 1756              		@ sp needed
 1757 0014 10BD     		pop	{r4, pc}
 1758              		.cfi_endproc
 1759              	.LFE80:
 1760              		.size	nRF24_transmit_pulse, .-nRF24_transmit_pulse
ARM GAS  C:\Users\AFDHAL~1\AppData\Local\Temp\ccielSKc.s 			page 52


 1761 0016 C046     		.section	.text.nRF24_get_status,"ax",%progbits
 1762              		.align	2
 1763              		.global	nRF24_get_status
 1764              		.code	16
 1765              		.thumb_func
 1766              		.type	nRF24_get_status, %function
 1767              	nRF24_get_status:
 1768              	.LFB81:
 761:Generated_Source\PSoC4/nRF24_FUNCS.c ****     return nRF24_nop_cmd();
 1769              		.loc 1 761 0
 1770              		.cfi_startproc
 1771              		@ args = 0, pretend = 0, frame = 0
 1772              		@ frame_needed = 0, uses_anonymous_args = 0
 1773 0000 10B5     		push	{r4, lr}
 1774              		.cfi_def_cfa_offset 8
 1775              		.cfi_offset 4, -8
 1776              		.cfi_offset 14, -4
 762:Generated_Source\PSoC4/nRF24_FUNCS.c **** }
 1777              		.loc 1 762 0
 1778 0002 FFF7FEFF 		bl	nRF24_nop_cmd
 1779              	.LVL181:
 763:Generated_Source\PSoC4/nRF24_FUNCS.c **** 
 1780              		.loc 1 763 0
 1781              		@ sp needed
 1782 0006 10BD     		pop	{r4, pc}
 1783              		.cfi_endproc
 1784              	.LFE81:
 1785              		.size	nRF24_get_status, .-nRF24_get_status
 1786              		.section	.text.nRF24_get_retransmissions_count,"ax",%progbits
 1787              		.align	2
 1788              		.global	nRF24_get_retransmissions_count
 1789              		.code	16
 1790              		.thumb_func
 1791              		.type	nRF24_get_retransmissions_count, %function
 1792              	nRF24_get_retransmissions_count:
 1793              	.LFB82:
 771:Generated_Source\PSoC4/nRF24_FUNCS.c ****     uint8_t count = nRF24_read_register(NRF_OBSERVE_TX_REG);
 1794              		.loc 1 771 0
 1795              		.cfi_startproc
 1796              		@ args = 0, pretend = 0, frame = 0
 1797              		@ frame_needed = 0, uses_anonymous_args = 0
 1798 0000 10B5     		push	{r4, lr}
 1799              		.cfi_def_cfa_offset 8
 1800              		.cfi_offset 4, -8
 1801              		.cfi_offset 14, -4
 772:Generated_Source\PSoC4/nRF24_FUNCS.c ****     return count & NRF_OBSERVE_TX_ARC_CNT_MASK;
 1802              		.loc 1 772 0
 1803 0002 0820     		movs	r0, #8
 1804 0004 FFF7FEFF 		bl	nRF24_read_register
 1805              	.LVL182:
 773:Generated_Source\PSoC4/nRF24_FUNCS.c **** }
 1806              		.loc 1 773 0
 1807 0008 0F23     		movs	r3, #15
 774:Generated_Source\PSoC4/nRF24_FUNCS.c **** 
 1808              		.loc 1 774 0
 1809              		@ sp needed
 773:Generated_Source\PSoC4/nRF24_FUNCS.c **** }
ARM GAS  C:\Users\AFDHAL~1\AppData\Local\Temp\ccielSKc.s 			page 53


 1810              		.loc 1 773 0
 1811 000a 1840     		ands	r0, r3
 1812              	.LVL183:
 774:Generated_Source\PSoC4/nRF24_FUNCS.c **** 
 1813              		.loc 1 774 0
 1814 000c 10BD     		pop	{r4, pc}
 1815              		.cfi_endproc
 1816              	.LFE82:
 1817              		.size	nRF24_get_retransmissions_count, .-nRF24_get_retransmissions_count
 1818 000e C046     		.section	.text.nRF24_get_lost_packets_count,"ax",%progbits
 1819              		.align	2
 1820              		.global	nRF24_get_lost_packets_count
 1821              		.code	16
 1822              		.thumb_func
 1823              		.type	nRF24_get_lost_packets_count, %function
 1824              	nRF24_get_lost_packets_count:
 1825              	.LFB83:
 782:Generated_Source\PSoC4/nRF24_FUNCS.c ****     uint8_t lostPackets = nRF24_read_register(NRF_OBSERVE_TX_REG);
 1826              		.loc 1 782 0
 1827              		.cfi_startproc
 1828              		@ args = 0, pretend = 0, frame = 0
 1829              		@ frame_needed = 0, uses_anonymous_args = 0
 1830 0000 10B5     		push	{r4, lr}
 1831              		.cfi_def_cfa_offset 8
 1832              		.cfi_offset 4, -8
 1833              		.cfi_offset 14, -4
 783:Generated_Source\PSoC4/nRF24_FUNCS.c ****     lostPackets = lostPackets & NRF_OBSERVE_TX_PLOS_CNT_MASK;
 1834              		.loc 1 783 0
 1835 0002 0820     		movs	r0, #8
 1836 0004 FFF7FEFF 		bl	nRF24_read_register
 1837              	.LVL184:
 785:Generated_Source\PSoC4/nRF24_FUNCS.c **** }
 1838              		.loc 1 785 0
 1839 0008 0009     		lsrs	r0, r0, #4
 1840              	.LVL185:
 1841 000a C0B2     		uxtb	r0, r0
 786:Generated_Source\PSoC4/nRF24_FUNCS.c **** 
 1842              		.loc 1 786 0
 1843              		@ sp needed
 1844 000c 10BD     		pop	{r4, pc}
 1845              		.cfi_endproc
 1846              	.LFE83:
 1847              		.size	nRF24_get_lost_packets_count, .-nRF24_get_lost_packets_count
 1848 000e C046     		.section	.text.nRF24_put_in_tx_fifo,"ax",%progbits
 1849              		.align	2
 1850              		.global	nRF24_put_in_tx_fifo
 1851              		.code	16
 1852              		.thumb_func
 1853              		.type	nRF24_put_in_tx_fifo, %function
 1854              	nRF24_put_in_tx_fifo:
 1855              	.LFB84:
 795:Generated_Source\PSoC4/nRF24_FUNCS.c ****     if (NULL == data) {
 1856              		.loc 1 795 0
 1857              		.cfi_startproc
 1858              		@ args = 0, pretend = 0, frame = 0
 1859              		@ frame_needed = 0, uses_anonymous_args = 0
 1860              	.LVL186:
ARM GAS  C:\Users\AFDHAL~1\AppData\Local\Temp\ccielSKc.s 			page 54


 1861 0000 10B5     		push	{r4, lr}
 1862              		.cfi_def_cfa_offset 8
 1863              		.cfi_offset 4, -8
 1864              		.cfi_offset 14, -4
 796:Generated_Source\PSoC4/nRF24_FUNCS.c ****         return;
 1865              		.loc 1 796 0
 1866 0002 0028     		cmp	r0, #0
 1867 0004 03D0     		beq	.L121
 1868              	.LVL187:
 804:Generated_Source\PSoC4/nRF24_FUNCS.c **** }
 1869              		.loc 1 804 0
 1870 0006 2029     		cmp	r1, #32
 1871 0008 02D8     		bhi	.L127
 1872              	.LVL188:
 1873              	.L123:
 1874 000a FFF7FEFF 		bl	nRF24_write_tx_payload_cmd
 1875              	.LVL189:
 1876              	.L121:
 805:Generated_Source\PSoC4/nRF24_FUNCS.c **** 
 1877              		.loc 1 805 0
 1878              		@ sp needed
 1879 000e 10BD     		pop	{r4, pc}
 1880              	.LVL190:
 1881              	.L127:
 804:Generated_Source\PSoC4/nRF24_FUNCS.c **** }
 1882              		.loc 1 804 0
 1883 0010 2021     		movs	r1, #32
 1884              	.LVL191:
 1885 0012 FAE7     		b	.L123
 1886              		.cfi_endproc
 1887              	.LFE84:
 1888              		.size	nRF24_put_in_tx_fifo, .-nRF24_put_in_tx_fifo
 1889              		.section	.text.nRF24_transmit,"ax",%progbits
 1890              		.align	2
 1891              		.global	nRF24_transmit
 1892              		.code	16
 1893              		.thumb_func
 1894              		.type	nRF24_transmit, %function
 1895              	nRF24_transmit:
 1896              	.LFB85:
 814:Generated_Source\PSoC4/nRF24_FUNCS.c ****     if (NULL == data) {
 1897              		.loc 1 814 0
 1898              		.cfi_startproc
 1899              		@ args = 0, pretend = 0, frame = 0
 1900              		@ frame_needed = 0, uses_anonymous_args = 0
 1901              	.LVL192:
 1902 0000 10B5     		push	{r4, lr}
 1903              		.cfi_def_cfa_offset 8
 1904              		.cfi_offset 4, -8
 1905              		.cfi_offset 14, -4
 815:Generated_Source\PSoC4/nRF24_FUNCS.c ****         return;
 1906              		.loc 1 815 0
 1907 0002 0028     		cmp	r0, #0
 1908 0004 0CD0     		beq	.L128
 1909              	.LVL193:
 1910              	.LBB46:
 1911              	.LBB47:
ARM GAS  C:\Users\AFDHAL~1\AppData\Local\Temp\ccielSKc.s 			page 55


 804:Generated_Source\PSoC4/nRF24_FUNCS.c **** }
 1912              		.loc 1 804 0
 1913 0006 2029     		cmp	r1, #32
 1914 0008 0BD8     		bhi	.L134
 1915              	.LVL194:
 1916              	.L130:
 1917 000a FFF7FEFF 		bl	nRF24_write_tx_payload_cmd
 1918              	.LVL195:
 1919              	.LBE47:
 1920              	.LBE46:
 1921              	.LBB49:
 1922              	.LBB50:
 749:Generated_Source\PSoC4/nRF24_FUNCS.c ****     CyDelayUs(NRF_CE_PULSE_WIDTH);
 1923              		.loc 1 749 0
 1924 000e 0120     		movs	r0, #1
 1925 0010 FFF7FEFF 		bl	CE_Write
 1926              	.LVL196:
 750:Generated_Source\PSoC4/nRF24_FUNCS.c ****     CE_Write(0);
 1927              		.loc 1 750 0
 1928 0014 0F20     		movs	r0, #15
 1929 0016 FFF7FEFF 		bl	CyDelayUs
 1930              	.LVL197:
 751:Generated_Source\PSoC4/nRF24_FUNCS.c **** #endif
 1931              		.loc 1 751 0
 1932 001a 0020     		movs	r0, #0
 1933 001c FFF7FEFF 		bl	CE_Write
 1934              	.LVL198:
 1935              	.L128:
 1936              	.LBE50:
 1937              	.LBE49:
 825:Generated_Source\PSoC4/nRF24_FUNCS.c **** 
 1938              		.loc 1 825 0
 1939              		@ sp needed
 1940 0020 10BD     		pop	{r4, pc}
 1941              	.LVL199:
 1942              	.L134:
 1943              	.LBB51:
 1944              	.LBB48:
 804:Generated_Source\PSoC4/nRF24_FUNCS.c **** }
 1945              		.loc 1 804 0
 1946 0022 2021     		movs	r1, #32
 1947              	.LVL200:
 1948 0024 F1E7     		b	.L130
 1949              	.LBE48:
 1950              	.LBE51:
 1951              		.cfi_endproc
 1952              	.LFE85:
 1953              		.size	nRF24_transmit, .-nRF24_transmit
 1954 0026 C046     		.section	.text.nRF24_is_data_ready,"ax",%progbits
 1955              		.align	2
 1956              		.global	nRF24_is_data_ready
 1957              		.code	16
 1958              		.thumb_func
 1959              		.type	nRF24_is_data_ready, %function
 1960              	nRF24_is_data_ready:
 1961              	.LFB86:
 833:Generated_Source\PSoC4/nRF24_FUNCS.c ****     return NRF_STATUS_RX_DR_MASK & nRF24_get_status();
ARM GAS  C:\Users\AFDHAL~1\AppData\Local\Temp\ccielSKc.s 			page 56


 1962              		.loc 1 833 0
 1963              		.cfi_startproc
 1964              		@ args = 0, pretend = 0, frame = 0
 1965              		@ frame_needed = 0, uses_anonymous_args = 0
 1966 0000 10B5     		push	{r4, lr}
 1967              		.cfi_def_cfa_offset 8
 1968              		.cfi_offset 4, -8
 1969              		.cfi_offset 14, -4
 1970              	.LBB52:
 1971              	.LBB53:
 762:Generated_Source\PSoC4/nRF24_FUNCS.c **** }
 1972              		.loc 1 762 0
 1973 0002 FFF7FEFF 		bl	nRF24_nop_cmd
 1974              	.LVL201:
 1975              	.LBE53:
 1976              	.LBE52:
 834:Generated_Source\PSoC4/nRF24_FUNCS.c **** }
 1977              		.loc 1 834 0
 1978 0006 4006     		lsls	r0, r0, #25
 1979 0008 C00F     		lsrs	r0, r0, #31
 835:Generated_Source\PSoC4/nRF24_FUNCS.c **** 
 1980              		.loc 1 835 0
 1981              		@ sp needed
 1982 000a 10BD     		pop	{r4, pc}
 1983              		.cfi_endproc
 1984              	.LFE86:
 1985              		.size	nRF24_is_data_ready, .-nRF24_is_data_ready
 1986              		.section	.text.nRF24_get_rx_payload,"ax",%progbits
 1987              		.align	2
 1988              		.global	nRF24_get_rx_payload
 1989              		.code	16
 1990              		.thumb_func
 1991              		.type	nRF24_get_rx_payload, %function
 1992              	nRF24_get_rx_payload:
 1993              	.LFB87:
 844:Generated_Source\PSoC4/nRF24_FUNCS.c ****     if (NULL == data) {
 1994              		.loc 1 844 0
 1995              		.cfi_startproc
 1996              		@ args = 0, pretend = 0, frame = 0
 1997              		@ frame_needed = 0, uses_anonymous_args = 0
 1998              	.LVL202:
 1999 0000 70B5     		push	{r4, r5, r6, lr}
 2000              		.cfi_def_cfa_offset 16
 2001              		.cfi_offset 4, -16
 2002              		.cfi_offset 5, -12
 2003              		.cfi_offset 6, -8
 2004              		.cfi_offset 14, -4
 844:Generated_Source\PSoC4/nRF24_FUNCS.c ****     if (NULL == data) {
 2005              		.loc 1 844 0
 2006 0002 0400     		movs	r4, r0
 2007 0004 0D00     		movs	r5, r1
 845:Generated_Source\PSoC4/nRF24_FUNCS.c ****         return;
 2008              		.loc 1 845 0
 2009 0006 0028     		cmp	r0, #0
 2010 0008 09D0     		beq	.L136
 853:Generated_Source\PSoC4/nRF24_FUNCS.c ****     nRF24_read_rx_payload_cmd(data, size);
 2011              		.loc 1 853 0
ARM GAS  C:\Users\AFDHAL~1\AppData\Local\Temp\ccielSKc.s 			page 57


 2012 000a 0020     		movs	r0, #0
 2013              	.LVL203:
 2014 000c FFF7FEFF 		bl	CE_Write
 2015              	.LVL204:
 854:Generated_Source\PSoC4/nRF24_FUNCS.c ****     CE_Write(1);
 2016              		.loc 1 854 0
 2017 0010 2000     		movs	r0, r4
 2018 0012 2900     		movs	r1, r5
 2019 0014 FFF7FEFF 		bl	nRF24_read_rx_payload_cmd
 2020              	.LVL205:
 855:Generated_Source\PSoC4/nRF24_FUNCS.c **** #endif
 2021              		.loc 1 855 0
 2022 0018 0120     		movs	r0, #1
 2023 001a FFF7FEFF 		bl	CE_Write
 2024              	.LVL206:
 2025              	.L136:
 857:Generated_Source\PSoC4/nRF24_FUNCS.c **** 
 2026              		.loc 1 857 0
 2027              		@ sp needed
 2028              	.LVL207:
 2029              	.LVL208:
 2030 001e 70BD     		pop	{r4, r5, r6, pc}
 2031              		.cfi_endproc
 2032              	.LFE87:
 2033              		.size	nRF24_get_rx_payload, .-nRF24_get_rx_payload
 2034              		.section	.text.nRF24_tx_transmit_wait_no_ack,"ax",%progbits
 2035              		.align	2
 2036              		.global	nRF24_tx_transmit_wait_no_ack
 2037              		.code	16
 2038              		.thumb_func
 2039              		.type	nRF24_tx_transmit_wait_no_ack, %function
 2040              	nRF24_tx_transmit_wait_no_ack:
 2041              	.LFB88:
 866:Generated_Source\PSoC4/nRF24_FUNCS.c ****     if (NULL == data) {
 2042              		.loc 1 866 0
 2043              		.cfi_startproc
 2044              		@ args = 0, pretend = 0, frame = 0
 2045              		@ frame_needed = 0, uses_anonymous_args = 0
 2046              	.LVL209:
 2047 0000 10B5     		push	{r4, lr}
 2048              		.cfi_def_cfa_offset 8
 2049              		.cfi_offset 4, -8
 2050              		.cfi_offset 14, -4
 867:Generated_Source\PSoC4/nRF24_FUNCS.c ****         return;
 2051              		.loc 1 867 0
 2052 0002 0028     		cmp	r0, #0
 2053 0004 0CD0     		beq	.L141
 871:Generated_Source\PSoC4/nRF24_FUNCS.c ****         return;
 2054              		.loc 1 871 0
 2055 0006 2029     		cmp	r1, #32
 2056 0008 0AD8     		bhi	.L141
 875:Generated_Source\PSoC4/nRF24_FUNCS.c ****     nRF24_transmit_pulse();
 2057              		.loc 1 875 0
 2058 000a FFF7FEFF 		bl	nRF24_no_ack_payload_cmd
 2059              	.LVL210:
 2060              	.LBB56:
 2061              	.LBB57:
ARM GAS  C:\Users\AFDHAL~1\AppData\Local\Temp\ccielSKc.s 			page 58


 749:Generated_Source\PSoC4/nRF24_FUNCS.c ****     CyDelayUs(NRF_CE_PULSE_WIDTH);
 2062              		.loc 1 749 0
 2063 000e 0120     		movs	r0, #1
 2064 0010 FFF7FEFF 		bl	CE_Write
 2065              	.LVL211:
 750:Generated_Source\PSoC4/nRF24_FUNCS.c ****     CE_Write(0);
 2066              		.loc 1 750 0
 2067 0014 0F20     		movs	r0, #15
 2068 0016 FFF7FEFF 		bl	CyDelayUs
 2069              	.LVL212:
 751:Generated_Source\PSoC4/nRF24_FUNCS.c **** #endif
 2070              		.loc 1 751 0
 2071 001a 0020     		movs	r0, #0
 2072 001c FFF7FEFF 		bl	CE_Write
 2073              	.LVL213:
 2074              	.L141:
 2075              	.LBE57:
 2076              	.LBE56:
 877:Generated_Source\PSoC4/nRF24_FUNCS.c **** 
 2077              		.loc 1 877 0
 2078              		@ sp needed
 2079 0020 10BD     		pop	{r4, pc}
 2080              		.cfi_endproc
 2081              	.LFE88:
 2082              		.size	nRF24_tx_transmit_wait_no_ack, .-nRF24_tx_transmit_wait_no_ack
 2083 0022 C046     		.section	.text.nRF24_rx_write_payload,"ax",%progbits
 2084              		.align	2
 2085              		.global	nRF24_rx_write_payload
 2086              		.code	16
 2087              		.thumb_func
 2088              		.type	nRF24_rx_write_payload, %function
 2089              	nRF24_rx_write_payload:
 2090              	.LFB89:
 888:Generated_Source\PSoC4/nRF24_FUNCS.c ****     if (NULL == data) {
 2091              		.loc 1 888 0
 2092              		.cfi_startproc
 2093              		@ args = 0, pretend = 0, frame = 0
 2094              		@ frame_needed = 0, uses_anonymous_args = 0
 2095              	.LVL214:
 2096 0000 10B5     		push	{r4, lr}
 2097              		.cfi_def_cfa_offset 8
 2098              		.cfi_offset 4, -8
 2099              		.cfi_offset 14, -4
 889:Generated_Source\PSoC4/nRF24_FUNCS.c ****         return;
 2100              		.loc 1 889 0
 2101 0002 0029     		cmp	r1, #0
 2102 0004 03D0     		beq	.L146
 2103              	.LVL215:
 897:Generated_Source\PSoC4/nRF24_FUNCS.c **** }
 2104              		.loc 1 897 0
 2105 0006 202A     		cmp	r2, #32
 2106 0008 02D8     		bhi	.L152
 2107              	.LVL216:
 2108              	.L148:
 2109 000a FFF7FEFF 		bl	nRF24_write_ack_payload_cmd
 2110              	.LVL217:
 2111              	.L146:
ARM GAS  C:\Users\AFDHAL~1\AppData\Local\Temp\ccielSKc.s 			page 59


 898:Generated_Source\PSoC4/nRF24_FUNCS.c **** 
 2112              		.loc 1 898 0
 2113              		@ sp needed
 2114 000e 10BD     		pop	{r4, pc}
 2115              	.LVL218:
 2116              	.L152:
 897:Generated_Source\PSoC4/nRF24_FUNCS.c **** }
 2117              		.loc 1 897 0
 2118 0010 2022     		movs	r2, #32
 2119              	.LVL219:
 2120 0012 FAE7     		b	.L148
 2121              		.cfi_endproc
 2122              	.LFE89:
 2123              		.size	nRF24_rx_write_payload, .-nRF24_rx_write_payload
 2124              		.section	.text.nRF24_get_data_pipe_with_payload,"ax",%progbits
 2125              		.align	2
 2126              		.global	nRF24_get_data_pipe_with_payload
 2127              		.code	16
 2128              		.thumb_func
 2129              		.type	nRF24_get_data_pipe_with_payload, %function
 2130              	nRF24_get_data_pipe_with_payload:
 2131              	.LFB90:
 906:Generated_Source\PSoC4/nRF24_FUNCS.c ****     uint8_t pipe = nRF24_read_register(NRF_STATUS_REG);
 2132              		.loc 1 906 0
 2133              		.cfi_startproc
 2134              		@ args = 0, pretend = 0, frame = 0
 2135              		@ frame_needed = 0, uses_anonymous_args = 0
 2136 0000 10B5     		push	{r4, lr}
 2137              		.cfi_def_cfa_offset 8
 2138              		.cfi_offset 4, -8
 2139              		.cfi_offset 14, -4
 907:Generated_Source\PSoC4/nRF24_FUNCS.c ****     return (pipe & NRF_STATUS_PIPES_MASK) >> NRF_STATUS_PIPES_SHIFT;
 2140              		.loc 1 907 0
 2141 0002 0720     		movs	r0, #7
 2142 0004 FFF7FEFF 		bl	nRF24_read_register
 2143              	.LVL220:
 908:Generated_Source\PSoC4/nRF24_FUNCS.c **** }
 2144              		.loc 1 908 0
 2145 0008 0007     		lsls	r0, r0, #28
 2146              	.LVL221:
 2147 000a 400F     		lsrs	r0, r0, #29
 909:Generated_Source\PSoC4/nRF24_FUNCS.c **** 
 2148              		.loc 1 909 0
 2149              		@ sp needed
 2150 000c 10BD     		pop	{r4, pc}
 2151              		.cfi_endproc
 2152              	.LFE90:
 2153              		.size	nRF24_get_data_pipe_with_payload, .-nRF24_get_data_pipe_with_payload
 2154 000e C046     		.section	.text.nRF24_received_power_detector,"ax",%progbits
 2155              		.align	2
 2156              		.global	nRF24_received_power_detector
 2157              		.code	16
 2158              		.thumb_func
 2159              		.type	nRF24_received_power_detector, %function
 2160              	nRF24_received_power_detector:
 2161              	.LFB91:
 917:Generated_Source\PSoC4/nRF24_FUNCS.c ****     return nRF24_read_bit(NRF_RPD_REG, NRF_RPD_RPD);
ARM GAS  C:\Users\AFDHAL~1\AppData\Local\Temp\ccielSKc.s 			page 60


 2162              		.loc 1 917 0
 2163              		.cfi_startproc
 2164              		@ args = 0, pretend = 0, frame = 0
 2165              		@ frame_needed = 0, uses_anonymous_args = 0
 2166 0000 10B5     		push	{r4, lr}
 2167              		.cfi_def_cfa_offset 8
 2168              		.cfi_offset 4, -8
 2169              		.cfi_offset 14, -4
 918:Generated_Source\PSoC4/nRF24_FUNCS.c **** }
 2170              		.loc 1 918 0
 2171 0002 0021     		movs	r1, #0
 2172 0004 0920     		movs	r0, #9
 2173 0006 FFF7FEFF 		bl	nRF24_read_bit
 2174              	.LVL222:
 919:Generated_Source\PSoC4/nRF24_FUNCS.c **** 
 2175              		.loc 1 919 0
 2176              		@ sp needed
 2177 000a 10BD     		pop	{r4, pc}
 2178              		.cfi_endproc
 2179              	.LFE91:
 2180              		.size	nRF24_received_power_detector, .-nRF24_received_power_detector
 2181              		.section	.text.nRF24_is_tx_fifo_full,"ax",%progbits
 2182              		.align	2
 2183              		.global	nRF24_is_tx_fifo_full
 2184              		.code	16
 2185              		.thumb_func
 2186              		.type	nRF24_is_tx_fifo_full, %function
 2187              	nRF24_is_tx_fifo_full:
 2188              	.LFB92:
 926:Generated_Source\PSoC4/nRF24_FUNCS.c ****     return nRF24_read_bit(NRF_FIFO_STATUS_REG, NRF_FIFO_STATUS_TX_FULL);
 2189              		.loc 1 926 0
 2190              		.cfi_startproc
 2191              		@ args = 0, pretend = 0, frame = 0
 2192              		@ frame_needed = 0, uses_anonymous_args = 0
 2193 0000 10B5     		push	{r4, lr}
 2194              		.cfi_def_cfa_offset 8
 2195              		.cfi_offset 4, -8
 2196              		.cfi_offset 14, -4
 927:Generated_Source\PSoC4/nRF24_FUNCS.c **** }
 2197              		.loc 1 927 0
 2198 0002 0521     		movs	r1, #5
 2199 0004 1720     		movs	r0, #23
 2200 0006 FFF7FEFF 		bl	nRF24_read_bit
 2201              	.LVL223:
 928:Generated_Source\PSoC4/nRF24_FUNCS.c **** 
 2202              		.loc 1 928 0
 2203              		@ sp needed
 2204 000a 10BD     		pop	{r4, pc}
 2205              		.cfi_endproc
 2206              	.LFE92:
 2207              		.size	nRF24_is_tx_fifo_full, .-nRF24_is_tx_fifo_full
 2208              		.section	.text.nRF24_is_rx_fifo_empty,"ax",%progbits
 2209              		.align	2
 2210              		.global	nRF24_is_rx_fifo_empty
 2211              		.code	16
 2212              		.thumb_func
 2213              		.type	nRF24_is_rx_fifo_empty, %function
ARM GAS  C:\Users\AFDHAL~1\AppData\Local\Temp\ccielSKc.s 			page 61


 2214              	nRF24_is_rx_fifo_empty:
 2215              	.LFB93:
 934:Generated_Source\PSoC4/nRF24_FUNCS.c ****     return nRF24_read_bit(NRF_FIFO_STATUS_REG, NRF_FIFO_STATUS_RX_EMPTY);
 2216              		.loc 1 934 0
 2217              		.cfi_startproc
 2218              		@ args = 0, pretend = 0, frame = 0
 2219              		@ frame_needed = 0, uses_anonymous_args = 0
 2220 0000 10B5     		push	{r4, lr}
 2221              		.cfi_def_cfa_offset 8
 2222              		.cfi_offset 4, -8
 2223              		.cfi_offset 14, -4
 935:Generated_Source\PSoC4/nRF24_FUNCS.c **** }
 2224              		.loc 1 935 0
 2225 0002 0021     		movs	r1, #0
 2226 0004 1720     		movs	r0, #23
 2227 0006 FFF7FEFF 		bl	nRF24_read_bit
 2228              	.LVL224:
 936:Generated_Source\PSoC4/nRF24_FUNCS.c **** 
 2229              		.loc 1 936 0
 2230              		@ sp needed
 2231 000a 10BD     		pop	{r4, pc}
 2232              		.cfi_endproc
 2233              	.LFE93:
 2234              		.size	nRF24_is_rx_fifo_empty, .-nRF24_is_rx_fifo_empty
 2235              		.section	.text.nRF24_clear_all_irqs,"ax",%progbits
 2236              		.align	2
 2237              		.global	nRF24_clear_all_irqs
 2238              		.code	16
 2239              		.thumb_func
 2240              		.type	nRF24_clear_all_irqs, %function
 2241              	nRF24_clear_all_irqs:
 2242              	.LFB94:
 943:Generated_Source\PSoC4/nRF24_FUNCS.c ****     nRF24_write_register(NRF_STATUS_REG, NRF_ALL_IRQ_MASK);
 2243              		.loc 1 943 0
 2244              		.cfi_startproc
 2245              		@ args = 0, pretend = 0, frame = 0
 2246              		@ frame_needed = 0, uses_anonymous_args = 0
 2247 0000 10B5     		push	{r4, lr}
 2248              		.cfi_def_cfa_offset 8
 2249              		.cfi_offset 4, -8
 2250              		.cfi_offset 14, -4
 2251              		.loc 1 944 0
 2252 0002 7021     		movs	r1, #112
 2253 0004 0720     		movs	r0, #7
 2254 0006 FFF7FEFF 		bl	nRF24_write_register
 2255              	.LVL225:
 945:Generated_Source\PSoC4/nRF24_FUNCS.c **** }
 2256              		.loc 1 945 0
 2257              		@ sp needed
 2258 000a 10BD     		pop	{r4, pc}
 2259              		.cfi_endproc
 2260              	.LFE94:
 2261              		.size	nRF24_clear_all_irqs, .-nRF24_clear_all_irqs
 2262              		.section	.text.nRF24_clear_irq_flag,"ax",%progbits
 2263              		.align	2
 2264              		.global	nRF24_clear_irq_flag
 2265              		.code	16
ARM GAS  C:\Users\AFDHAL~1\AppData\Local\Temp\ccielSKc.s 			page 62


 2266              		.thumb_func
 2267              		.type	nRF24_clear_irq_flag, %function
 2268              	nRF24_clear_irq_flag:
 2269              	.LFB95:
 946:Generated_Source\PSoC4/nRF24_FUNCS.c **** 
 947:Generated_Source\PSoC4/nRF24_FUNCS.c **** /**
 948:Generated_Source\PSoC4/nRF24_FUNCS.c ****  * @brief Clears the specific IRQ flag.
 949:Generated_Source\PSoC4/nRF24_FUNCS.c ****  *
 950:Generated_Source\PSoC4/nRF24_FUNCS.c ****  * Clear the flag by writing 1 to the interrupt flag bit.
 951:Generated_Source\PSoC4/nRF24_FUNCS.c ****  *
 952:Generated_Source\PSoC4/nRF24_FUNCS.c ****  * @param nrf_irq irq_flag: Interrupt flag to clear.
 953:Generated_Source\PSoC4/nRF24_FUNCS.c ****  */
 954:Generated_Source\PSoC4/nRF24_FUNCS.c **** void nRF24_clear_irq_flag(const nrf_irq irq_flag)
 955:Generated_Source\PSoC4/nRF24_FUNCS.c **** {
 2270              		.loc 1 955 0
 2271              		.cfi_startproc
 2272              		@ args = 0, pretend = 0, frame = 0
 2273              		@ frame_needed = 0, uses_anonymous_args = 0
 2274              	.LVL226:
 956:Generated_Source\PSoC4/nRF24_FUNCS.c ****     nRF24_write_register(NRF_STATUS_REG, (1 << irq_flag));
 2275              		.loc 1 956 0
 2276 0000 0121     		movs	r1, #1
 2277 0002 8140     		lsls	r1, r1, r0
 955:Generated_Source\PSoC4/nRF24_FUNCS.c ****     nRF24_write_register(NRF_STATUS_REG, (1 << irq_flag));
 2278              		.loc 1 955 0
 2279 0004 10B5     		push	{r4, lr}
 2280              		.cfi_def_cfa_offset 8
 2281              		.cfi_offset 4, -8
 2282              		.cfi_offset 14, -4
 2283              		.loc 1 956 0
 2284 0006 C9B2     		uxtb	r1, r1
 2285 0008 0720     		movs	r0, #7
 2286              	.LVL227:
 2287 000a FFF7FEFF 		bl	nRF24_write_register
 2288              	.LVL228:
 957:Generated_Source\PSoC4/nRF24_FUNCS.c **** }
 2289              		.loc 1 957 0
 2290              		@ sp needed
 2291 000e 10BD     		pop	{r4, pc}
 2292              		.cfi_endproc
 2293              	.LFE95:
 2294              		.size	nRF24_clear_irq_flag, .-nRF24_clear_irq_flag
 2295              		.section	.text.nRF24_get_irq_flag,"ax",%progbits
 2296              		.align	2
 2297              		.global	nRF24_get_irq_flag
 2298              		.code	16
 2299              		.thumb_func
 2300              		.type	nRF24_get_irq_flag, %function
 2301              	nRF24_get_irq_flag:
 2302              	.LFB96:
 958:Generated_Source\PSoC4/nRF24_FUNCS.c **** 
 959:Generated_Source\PSoC4/nRF24_FUNCS.c **** /**
 960:Generated_Source\PSoC4/nRF24_FUNCS.c ****  * This method is used to get if any of the IRQ "flag" bits on the STATUS
 961:Generated_Source\PSoC4/nRF24_FUNCS.c ****  * register is set to 1. This function returns 0 is none of the flag bits
 962:Generated_Source\PSoC4/nRF24_FUNCS.c ****  * is not set to 1.
 963:Generated_Source\PSoC4/nRF24_FUNCS.c ****  *
 964:Generated_Source\PSoC4/nRF24_FUNCS.c ****  * @return nrf_irq: Asserted bit of the interrupt flags.
ARM GAS  C:\Users\AFDHAL~1\AppData\Local\Temp\ccielSKc.s 			page 63


 965:Generated_Source\PSoC4/nRF24_FUNCS.c ****  */
 966:Generated_Source\PSoC4/nRF24_FUNCS.c **** nrf_irq nRF24_get_irq_flag(void)
 967:Generated_Source\PSoC4/nRF24_FUNCS.c **** {
 2303              		.loc 1 967 0
 2304              		.cfi_startproc
 2305              		@ args = 0, pretend = 0, frame = 0
 2306              		@ frame_needed = 0, uses_anonymous_args = 0
 2307              	.LVL229:
 2308 0000 10B5     		push	{r4, lr}
 2309              		.cfi_def_cfa_offset 8
 2310              		.cfi_offset 4, -8
 2311              		.cfi_offset 14, -4
 968:Generated_Source\PSoC4/nRF24_FUNCS.c ****     nrf_irq irq = NRF_NONE_IRQ;
 969:Generated_Source\PSoC4/nRF24_FUNCS.c ****     
 970:Generated_Source\PSoC4/nRF24_FUNCS.c ****     // Get the STATUS register
 971:Generated_Source\PSoC4/nRF24_FUNCS.c ****     uint8_t sts = nRF24_nop_cmd();
 2312              		.loc 1 971 0
 2313 0002 FFF7FEFF 		bl	nRF24_nop_cmd
 2314              	.LVL230:
 972:Generated_Source\PSoC4/nRF24_FUNCS.c ****     
 973:Generated_Source\PSoC4/nRF24_FUNCS.c ****     // We only care if bits 4, 5 or 6 are set, so we mask the STATUS with 0x0111_0000
 974:Generated_Source\PSoC4/nRF24_FUNCS.c ****     switch (sts & NRF_ALL_IRQ_MASK) {
 2315              		.loc 1 974 0
 2316 0006 7023     		movs	r3, #112
 2317 0008 1840     		ands	r0, r3
 2318              	.LVL231:
 2319 000a 2028     		cmp	r0, #32
 2320 000c 09D0     		beq	.L161
 2321 000e 4028     		cmp	r0, #64
 2322 0010 05D0     		beq	.L164
 2323 0012 1028     		cmp	r0, #16
 2324 0014 01D0     		beq	.L167
 2325              	.LVL232:
 975:Generated_Source\PSoC4/nRF24_FUNCS.c ****     case NRF_STATUS_RX_DR_MASK:
 976:Generated_Source\PSoC4/nRF24_FUNCS.c ****         irq = NRF_RX_DR_IRQ;
 977:Generated_Source\PSoC4/nRF24_FUNCS.c ****         break;
 978:Generated_Source\PSoC4/nRF24_FUNCS.c ****     case NRF_STATUS_TX_DS_MASK:
 979:Generated_Source\PSoC4/nRF24_FUNCS.c ****         irq = NRF_TX_DS_IRQ;
 980:Generated_Source\PSoC4/nRF24_FUNCS.c ****         break;
 981:Generated_Source\PSoC4/nRF24_FUNCS.c ****     case NRF_STATUS_MAX_RT_MASK:
 982:Generated_Source\PSoC4/nRF24_FUNCS.c ****         irq = NRF_MAX_RT_IRQ;
 983:Generated_Source\PSoC4/nRF24_FUNCS.c ****         break;
 984:Generated_Source\PSoC4/nRF24_FUNCS.c ****     default:
 985:Generated_Source\PSoC4/nRF24_FUNCS.c ****         irq = NRF_ALL_IRQ_MASK;
 2326              		.loc 1 985 0
 2327 0016 7020     		movs	r0, #112
 2328              	.LVL233:
 2329              	.L162:
 986:Generated_Source\PSoC4/nRF24_FUNCS.c ****         break;
 987:Generated_Source\PSoC4/nRF24_FUNCS.c ****     }
 988:Generated_Source\PSoC4/nRF24_FUNCS.c ****     
 989:Generated_Source\PSoC4/nRF24_FUNCS.c ****     return irq;
 990:Generated_Source\PSoC4/nRF24_FUNCS.c **** }
 2330              		.loc 1 990 0
 2331              		@ sp needed
 2332 0018 10BD     		pop	{r4, pc}
 2333              	.LVL234:
ARM GAS  C:\Users\AFDHAL~1\AppData\Local\Temp\ccielSKc.s 			page 64


 2334              	.L167:
 982:Generated_Source\PSoC4/nRF24_FUNCS.c ****         break;
 2335              		.loc 1 982 0
 2336 001a 0420     		movs	r0, #4
 983:Generated_Source\PSoC4/nRF24_FUNCS.c ****     default:
 2337              		.loc 1 983 0
 2338 001c FCE7     		b	.L162
 2339              	.LVL235:
 2340              	.L164:
 976:Generated_Source\PSoC4/nRF24_FUNCS.c ****         break;
 2341              		.loc 1 976 0
 2342 001e 0620     		movs	r0, #6
 2343 0020 FAE7     		b	.L162
 2344              	.L161:
 979:Generated_Source\PSoC4/nRF24_FUNCS.c ****         break;
 2345              		.loc 1 979 0
 2346 0022 0520     		movs	r0, #5
 2347 0024 F8E7     		b	.L162
 2348              		.cfi_endproc
 2349              	.LFE96:
 2350              		.size	nRF24_get_irq_flag, .-nRF24_get_irq_flag
 2351 0026 C046     		.section	.rodata
 2352              		.align	2
 2353              		.set	.LANCHOR0,. + 0
 2354              		.type	CSWTCH.15, %object
 2355              		.size	CSWTCH.15, 3
 2356              	CSWTCH.15:
 2357 0000 03       		.byte	3
 2358 0001 04       		.byte	4
 2359 0002 05       		.byte	5
 2360              		.text
 2361              	.Letext0:
 2362              		.file 2 "c:\\program files (x86)\\cypress\\psoc creator\\4.1\\psoc creator\\import\\gnu\\arm\\5.4.
 2363              		.file 3 "c:\\program files (x86)\\cypress\\psoc creator\\4.1\\psoc creator\\import\\gnu\\arm\\5.4.
 2364              		.file 4 "c:\\program files (x86)\\cypress\\psoc creator\\4.1\\psoc creator\\import\\gnu\\arm\\5.4.
 2365              		.file 5 "Generated_Source\\PSoC4\\nRF24_REGS.h"
 2366              		.file 6 "Generated_Source\\PSoC4\\nRF24_LL_SPI.h"
 2367              		.file 7 "Generated_Source\\PSoC4\\CyLib.h"
 2368              		.file 8 "Generated_Source\\PSoC4\\CE.h"
 2369              		.file 9 "Generated_Source\\PSoC4\\SS.h"
 2370              		.file 10 "Generated_Source\\PSoC4\\SPI.h"
 2371              		.file 11 "Generated_Source\\PSoC4\\nRF24_COMMANDS.h"
 2372              		.section	.debug_info,"",%progbits
 2373              	.Ldebug_info0:
 2374 0000 C8170000 		.4byte	0x17c8
 2375 0004 0400     		.2byte	0x4
 2376 0006 00000000 		.4byte	.Ldebug_abbrev0
 2377 000a 04       		.byte	0x4
 2378 000b 01       		.uleb128 0x1
 2379 000c CE030000 		.4byte	.LASF215
 2380 0010 0C       		.byte	0xc
 2381 0011 5D0C0000 		.4byte	.LASF216
 2382 0015 07050000 		.4byte	.LASF217
 2383 0019 30000000 		.4byte	.Ldebug_ranges0+0x30
 2384 001d 00000000 		.4byte	0
 2385 0021 00000000 		.4byte	.Ldebug_line0
 2386 0025 02       		.uleb128 0x2
ARM GAS  C:\Users\AFDHAL~1\AppData\Local\Temp\ccielSKc.s 			page 65


 2387 0026 01       		.byte	0x1
 2388 0027 06       		.byte	0x6
 2389 0028 CE0E0000 		.4byte	.LASF0
 2390 002c 03       		.uleb128 0x3
 2391 002d 820C0000 		.4byte	.LASF9
 2392 0031 02       		.byte	0x2
 2393 0032 1D       		.byte	0x1d
 2394 0033 37000000 		.4byte	0x37
 2395 0037 02       		.uleb128 0x2
 2396 0038 01       		.byte	0x1
 2397 0039 08       		.byte	0x8
 2398 003a DA0D0000 		.4byte	.LASF1
 2399 003e 02       		.uleb128 0x2
 2400 003f 02       		.byte	0x2
 2401 0040 05       		.byte	0x5
 2402 0041 5E0B0000 		.4byte	.LASF2
 2403 0045 02       		.uleb128 0x2
 2404 0046 02       		.byte	0x2
 2405 0047 07       		.byte	0x7
 2406 0048 DA0E0000 		.4byte	.LASF3
 2407 004c 02       		.uleb128 0x2
 2408 004d 04       		.byte	0x4
 2409 004e 05       		.byte	0x5
 2410 004f C00B0000 		.4byte	.LASF4
 2411 0053 02       		.uleb128 0x2
 2412 0054 04       		.byte	0x4
 2413 0055 07       		.byte	0x7
 2414 0056 530D0000 		.4byte	.LASF5
 2415 005a 02       		.uleb128 0x2
 2416 005b 08       		.byte	0x8
 2417 005c 05       		.byte	0x5
 2418 005d 82080000 		.4byte	.LASF6
 2419 0061 02       		.uleb128 0x2
 2420 0062 08       		.byte	0x8
 2421 0063 07       		.byte	0x7
 2422 0064 8C040000 		.4byte	.LASF7
 2423 0068 04       		.uleb128 0x4
 2424 0069 04       		.byte	0x4
 2425 006a 05       		.byte	0x5
 2426 006b 696E7400 		.ascii	"int\000"
 2427 006f 02       		.uleb128 0x2
 2428 0070 04       		.byte	0x4
 2429 0071 07       		.byte	0x7
 2430 0072 0F010000 		.4byte	.LASF8
 2431 0076 03       		.uleb128 0x3
 2432 0077 11080000 		.4byte	.LASF10
 2433 007b 03       		.byte	0x3
 2434 007c 18       		.byte	0x18
 2435 007d 2C000000 		.4byte	0x2c
 2436 0081 02       		.uleb128 0x2
 2437 0082 04       		.byte	0x4
 2438 0083 04       		.byte	0x4
 2439 0084 A2030000 		.4byte	.LASF11
 2440 0088 02       		.uleb128 0x2
 2441 0089 08       		.byte	0x8
 2442 008a 04       		.byte	0x4
 2443 008b 7B0F0000 		.4byte	.LASF12
ARM GAS  C:\Users\AFDHAL~1\AppData\Local\Temp\ccielSKc.s 			page 66


 2444 008f 02       		.uleb128 0x2
 2445 0090 01       		.byte	0x1
 2446 0091 08       		.byte	0x8
 2447 0092 66070000 		.4byte	.LASF13
 2448 0096 03       		.uleb128 0x3
 2449 0097 3D060000 		.4byte	.LASF14
 2450 009b 04       		.byte	0x4
 2451 009c D8       		.byte	0xd8
 2452 009d 6F000000 		.4byte	0x6f
 2453 00a1 02       		.uleb128 0x2
 2454 00a2 08       		.byte	0x8
 2455 00a3 04       		.byte	0x4
 2456 00a4 930A0000 		.4byte	.LASF15
 2457 00a8 02       		.uleb128 0x2
 2458 00a9 04       		.byte	0x4
 2459 00aa 07       		.byte	0x7
 2460 00ab 170D0000 		.4byte	.LASF16
 2461 00af 05       		.uleb128 0x5
 2462 00b0 01       		.byte	0x1
 2463 00b1 37000000 		.4byte	0x37
 2464 00b5 05       		.byte	0x5
 2465 00b6 1F       		.byte	0x1f
 2466 00b7 58010000 		.4byte	0x158
 2467 00bb 06       		.uleb128 0x6
 2468 00bc 29100000 		.4byte	.LASF17
 2469 00c0 00       		.byte	0
 2470 00c1 06       		.uleb128 0x6
 2471 00c2 450D0000 		.4byte	.LASF18
 2472 00c6 01       		.byte	0x1
 2473 00c7 06       		.uleb128 0x6
 2474 00c8 7B0B0000 		.4byte	.LASF19
 2475 00cc 02       		.byte	0x2
 2476 00cd 06       		.uleb128 0x6
 2477 00ce AC0C0000 		.4byte	.LASF20
 2478 00d2 03       		.byte	0x3
 2479 00d3 06       		.uleb128 0x6
 2480 00d4 1B020000 		.4byte	.LASF21
 2481 00d8 04       		.byte	0x4
 2482 00d9 06       		.uleb128 0x6
 2483 00da 61080000 		.4byte	.LASF22
 2484 00de 05       		.byte	0x5
 2485 00df 06       		.uleb128 0x6
 2486 00e0 350B0000 		.4byte	.LASF23
 2487 00e4 06       		.byte	0x6
 2488 00e5 06       		.uleb128 0x6
 2489 00e6 2E060000 		.4byte	.LASF24
 2490 00ea 07       		.byte	0x7
 2491 00eb 06       		.uleb128 0x6
 2492 00ec 280C0000 		.4byte	.LASF25
 2493 00f0 08       		.byte	0x8
 2494 00f1 06       		.uleb128 0x6
 2495 00f2 A00C0000 		.4byte	.LASF26
 2496 00f6 09       		.byte	0x9
 2497 00f7 06       		.uleb128 0x6
 2498 00f8 B5020000 		.4byte	.LASF27
 2499 00fc 0A       		.byte	0xa
 2500 00fd 06       		.uleb128 0x6
ARM GAS  C:\Users\AFDHAL~1\AppData\Local\Temp\ccielSKc.s 			page 67


 2501 00fe E80D0000 		.4byte	.LASF28
 2502 0102 0B       		.byte	0xb
 2503 0103 06       		.uleb128 0x6
 2504 0104 6F080000 		.4byte	.LASF29
 2505 0108 0C       		.byte	0xc
 2506 0109 06       		.uleb128 0x6
 2507 010a 03020000 		.4byte	.LASF30
 2508 010e 0D       		.byte	0xd
 2509 010f 06       		.uleb128 0x6
 2510 0110 96060000 		.4byte	.LASF31
 2511 0114 0E       		.byte	0xe
 2512 0115 06       		.uleb128 0x6
 2513 0116 EA070000 		.4byte	.LASF32
 2514 011a 0F       		.byte	0xf
 2515 011b 06       		.uleb128 0x6
 2516 011c 90080000 		.4byte	.LASF33
 2517 0120 10       		.byte	0x10
 2518 0121 06       		.uleb128 0x6
 2519 0122 58090000 		.4byte	.LASF34
 2520 0126 11       		.byte	0x11
 2521 0127 06       		.uleb128 0x6
 2522 0128 5D030000 		.4byte	.LASF35
 2523 012c 12       		.byte	0x12
 2524 012d 06       		.uleb128 0x6
 2525 012e 120E0000 		.4byte	.LASF36
 2526 0132 13       		.byte	0x13
 2527 0133 06       		.uleb128 0x6
 2528 0134 06090000 		.4byte	.LASF37
 2529 0138 14       		.byte	0x14
 2530 0139 06       		.uleb128 0x6
 2531 013a 49020000 		.4byte	.LASF38
 2532 013e 15       		.byte	0x15
 2533 013f 06       		.uleb128 0x6
 2534 0140 990D0000 		.4byte	.LASF39
 2535 0144 16       		.byte	0x16
 2536 0145 06       		.uleb128 0x6
 2537 0146 55000000 		.4byte	.LASF40
 2538 014a 17       		.byte	0x17
 2539 014b 06       		.uleb128 0x6
 2540 014c 6D020000 		.4byte	.LASF41
 2541 0150 1C       		.byte	0x1c
 2542 0151 06       		.uleb128 0x6
 2543 0152 32030000 		.4byte	.LASF42
 2544 0156 1D       		.byte	0x1d
 2545 0157 00       		.byte	0
 2546 0158 05       		.uleb128 0x5
 2547 0159 01       		.byte	0x1
 2548 015a 37000000 		.4byte	0x37
 2549 015e 05       		.byte	0x5
 2550 015f 4C       		.byte	0x4c
 2551 0160 89010000 		.4byte	0x189
 2552 0164 06       		.uleb128 0x6
 2553 0165 A9060000 		.4byte	.LASF43
 2554 0169 00       		.byte	0
 2555 016a 06       		.uleb128 0x6
 2556 016b B3060000 		.4byte	.LASF44
 2557 016f 01       		.byte	0x1
ARM GAS  C:\Users\AFDHAL~1\AppData\Local\Temp\ccielSKc.s 			page 68


 2558 0170 06       		.uleb128 0x6
 2559 0171 BD060000 		.4byte	.LASF45
 2560 0175 02       		.byte	0x2
 2561 0176 06       		.uleb128 0x6
 2562 0177 C7060000 		.4byte	.LASF46
 2563 017b 03       		.byte	0x3
 2564 017c 06       		.uleb128 0x6
 2565 017d D1060000 		.4byte	.LASF47
 2566 0181 04       		.byte	0x4
 2567 0182 06       		.uleb128 0x6
 2568 0183 DB060000 		.4byte	.LASF48
 2569 0187 05       		.byte	0x5
 2570 0188 00       		.byte	0
 2571 0189 03       		.uleb128 0x3
 2572 018a B0050000 		.4byte	.LASF49
 2573 018e 05       		.byte	0x5
 2574 018f 53       		.byte	0x53
 2575 0190 58010000 		.4byte	0x158
 2576 0194 05       		.uleb128 0x5
 2577 0195 01       		.byte	0x1
 2578 0196 37000000 		.4byte	0x37
 2579 019a 05       		.byte	0x5
 2580 019b 5F       		.byte	0x5f
 2581 019c C5010000 		.4byte	0x1c5
 2582 01a0 06       		.uleb128 0x6
 2583 01a1 1D0F0000 		.4byte	.LASF50
 2584 01a5 11       		.byte	0x11
 2585 01a6 06       		.uleb128 0x6
 2586 01a7 880E0000 		.4byte	.LASF51
 2587 01ab 12       		.byte	0x12
 2588 01ac 06       		.uleb128 0x6
 2589 01ad 12100000 		.4byte	.LASF52
 2590 01b1 13       		.byte	0x13
 2591 01b2 06       		.uleb128 0x6
 2592 01b3 ED0E0000 		.4byte	.LASF53
 2593 01b7 14       		.byte	0x14
 2594 01b8 06       		.uleb128 0x6
 2595 01b9 5B0E0000 		.4byte	.LASF54
 2596 01bd 15       		.byte	0x15
 2597 01be 06       		.uleb128 0x6
 2598 01bf FB0D0000 		.4byte	.LASF55
 2599 01c3 16       		.byte	0x16
 2600 01c4 00       		.byte	0
 2601 01c5 03       		.uleb128 0x3
 2602 01c6 6D100000 		.4byte	.LASF56
 2603 01ca 05       		.byte	0x5
 2604 01cb 66       		.byte	0x66
 2605 01cc 94010000 		.4byte	0x194
 2606 01d0 05       		.uleb128 0x5
 2607 01d1 01       		.byte	0x1
 2608 01d2 37000000 		.4byte	0x37
 2609 01d6 05       		.byte	0x5
 2610 01d7 69       		.byte	0x69
 2611 01d8 E9010000 		.4byte	0x1e9
 2612 01dc 06       		.uleb128 0x6
 2613 01dd 69090000 		.4byte	.LASF57
 2614 01e1 00       		.byte	0
ARM GAS  C:\Users\AFDHAL~1\AppData\Local\Temp\ccielSKc.s 			page 69


 2615 01e2 06       		.uleb128 0x6
 2616 01e3 B6070000 		.4byte	.LASF58
 2617 01e7 01       		.byte	0x1
 2618 01e8 00       		.byte	0
 2619 01e9 03       		.uleb128 0x3
 2620 01ea 40020000 		.4byte	.LASF59
 2621 01ee 05       		.byte	0x5
 2622 01ef 6C       		.byte	0x6c
 2623 01f0 D0010000 		.4byte	0x1d0
 2624 01f4 05       		.uleb128 0x5
 2625 01f5 01       		.byte	0x1
 2626 01f6 37000000 		.4byte	0x37
 2627 01fa 05       		.byte	0x5
 2628 01fb 6E       		.byte	0x6e
 2629 01fc 19020000 		.4byte	0x219
 2630 0200 06       		.uleb128 0x6
 2631 0201 32010000 		.4byte	.LASF60
 2632 0205 00       		.byte	0
 2633 0206 06       		.uleb128 0x6
 2634 0207 CA000000 		.4byte	.LASF61
 2635 020b 04       		.byte	0x4
 2636 020c 06       		.uleb128 0x6
 2637 020d C90B0000 		.4byte	.LASF62
 2638 0211 05       		.byte	0x5
 2639 0212 06       		.uleb128 0x6
 2640 0213 19080000 		.4byte	.LASF63
 2641 0217 06       		.byte	0x6
 2642 0218 00       		.byte	0
 2643 0219 03       		.uleb128 0x3
 2644 021a E1050000 		.4byte	.LASF64
 2645 021e 05       		.byte	0x5
 2646 021f 73       		.byte	0x73
 2647 0220 F4010000 		.4byte	0x1f4
 2648 0224 05       		.uleb128 0x5
 2649 0225 01       		.byte	0x1
 2650 0226 37000000 		.4byte	0x37
 2651 022a 05       		.byte	0x5
 2652 022b 76       		.byte	0x76
 2653 022c 5B020000 		.4byte	0x25b
 2654 0230 06       		.uleb128 0x6
 2655 0231 BD0C0000 		.4byte	.LASF65
 2656 0235 00       		.byte	0
 2657 0236 06       		.uleb128 0x6
 2658 0237 58060000 		.4byte	.LASF66
 2659 023b 01       		.byte	0x1
 2660 023c 06       		.uleb128 0x6
 2661 023d 9B100000 		.4byte	.LASF67
 2662 0241 02       		.byte	0x2
 2663 0242 06       		.uleb128 0x6
 2664 0243 690F0000 		.4byte	.LASF68
 2665 0247 03       		.byte	0x3
 2666 0248 06       		.uleb128 0x6
 2667 0249 8B010000 		.4byte	.LASF69
 2668 024d 04       		.byte	0x4
 2669 024e 06       		.uleb128 0x6
 2670 024f B4000000 		.4byte	.LASF70
 2671 0253 05       		.byte	0x5
ARM GAS  C:\Users\AFDHAL~1\AppData\Local\Temp\ccielSKc.s 			page 70


 2672 0254 06       		.uleb128 0x6
 2673 0255 E5060000 		.4byte	.LASF71
 2674 0259 06       		.byte	0x6
 2675 025a 00       		.byte	0
 2676 025b 05       		.uleb128 0x5
 2677 025c 01       		.byte	0x1
 2678 025d 37000000 		.4byte	0x37
 2679 0261 05       		.byte	0x5
 2680 0262 81       		.byte	0x81
 2681 0263 8C020000 		.4byte	0x28c
 2682 0267 06       		.uleb128 0x6
 2683 0268 D9000000 		.4byte	.LASF72
 2684 026c 00       		.byte	0
 2685 026d 06       		.uleb128 0x6
 2686 026e 820F0000 		.4byte	.LASF73
 2687 0272 01       		.byte	0x1
 2688 0273 06       		.uleb128 0x6
 2689 0274 940F0000 		.4byte	.LASF74
 2690 0278 02       		.byte	0x2
 2691 0279 06       		.uleb128 0x6
 2692 027a A60F0000 		.4byte	.LASF75
 2693 027e 03       		.byte	0x3
 2694 027f 06       		.uleb128 0x6
 2695 0280 B80F0000 		.4byte	.LASF76
 2696 0284 04       		.byte	0x4
 2697 0285 06       		.uleb128 0x6
 2698 0286 CA0F0000 		.4byte	.LASF77
 2699 028a 05       		.byte	0x5
 2700 028b 00       		.byte	0
 2701 028c 05       		.uleb128 0x5
 2702 028d 01       		.byte	0x1
 2703 028e 37000000 		.4byte	0x37
 2704 0292 05       		.byte	0x5
 2705 0293 8B       		.byte	0x8b
 2706 0294 BD020000 		.4byte	0x2bd
 2707 0298 06       		.uleb128 0x6
 2708 0299 9F090000 		.4byte	.LASF78
 2709 029d 00       		.byte	0
 2710 029e 06       		.uleb128 0x6
 2711 029f B4090000 		.4byte	.LASF79
 2712 02a3 01       		.byte	0x1
 2713 02a4 06       		.uleb128 0x6
 2714 02a5 C9090000 		.4byte	.LASF80
 2715 02a9 02       		.byte	0x2
 2716 02aa 06       		.uleb128 0x6
 2717 02ab DE090000 		.4byte	.LASF81
 2718 02af 03       		.byte	0x3
 2719 02b0 06       		.uleb128 0x6
 2720 02b1 F3090000 		.4byte	.LASF82
 2721 02b5 04       		.byte	0x4
 2722 02b6 06       		.uleb128 0x6
 2723 02b7 080A0000 		.4byte	.LASF83
 2724 02bb 05       		.byte	0x5
 2725 02bc 00       		.byte	0
 2726 02bd 05       		.uleb128 0x5
 2727 02be 01       		.byte	0x1
 2728 02bf 37000000 		.4byte	0x37
ARM GAS  C:\Users\AFDHAL~1\AppData\Local\Temp\ccielSKc.s 			page 71


 2729 02c3 05       		.byte	0x5
 2730 02c4 95       		.byte	0x95
 2731 02c5 DC020000 		.4byte	0x2dc
 2732 02c9 06       		.uleb128 0x6
 2733 02ca A2010000 		.4byte	.LASF84
 2734 02ce 01       		.byte	0x1
 2735 02cf 06       		.uleb128 0x6
 2736 02d0 8C0C0000 		.4byte	.LASF85
 2737 02d4 02       		.byte	0x2
 2738 02d5 06       		.uleb128 0x6
 2739 02d6 21070000 		.4byte	.LASF86
 2740 02da 03       		.byte	0x3
 2741 02db 00       		.byte	0
 2742 02dc 03       		.uleb128 0x3
 2743 02dd C2070000 		.4byte	.LASF87
 2744 02e1 05       		.byte	0x5
 2745 02e2 99       		.byte	0x99
 2746 02e3 BD020000 		.4byte	0x2bd
 2747 02e7 05       		.uleb128 0x5
 2748 02e8 01       		.byte	0x1
 2749 02e9 37000000 		.4byte	0x37
 2750 02ed 05       		.byte	0x5
 2751 02ee 9C       		.byte	0x9c
 2752 02ef 00030000 		.4byte	0x300
 2753 02f3 06       		.uleb128 0x6
 2754 02f4 C0040000 		.4byte	.LASF88
 2755 02f8 00       		.byte	0
 2756 02f9 06       		.uleb128 0x6
 2757 02fa D3040000 		.4byte	.LASF89
 2758 02fe 04       		.byte	0x4
 2759 02ff 00       		.byte	0
 2760 0300 05       		.uleb128 0x5
 2761 0301 01       		.byte	0x1
 2762 0302 37000000 		.4byte	0x37
 2763 0306 05       		.byte	0x5
 2764 0307 CA       		.byte	0xca
 2765 0308 31030000 		.4byte	0x331
 2766 030c 06       		.uleb128 0x6
 2767 030d AA0D0000 		.4byte	.LASF90
 2768 0311 01       		.byte	0x1
 2769 0312 06       		.uleb128 0x6
 2770 0313 680B0000 		.4byte	.LASF91
 2771 0317 03       		.byte	0x3
 2772 0318 06       		.uleb128 0x6
 2773 0319 EF040000 		.4byte	.LASF92
 2774 031d 03       		.byte	0x3
 2775 031e 06       		.uleb128 0x6
 2776 031f 720E0000 		.4byte	.LASF93
 2777 0323 04       		.byte	0x4
 2778 0324 06       		.uleb128 0x6
 2779 0325 CD0A0000 		.4byte	.LASF94
 2780 0329 05       		.byte	0x5
 2781 032a 06       		.uleb128 0x6
 2782 032b 3B0C0000 		.4byte	.LASF95
 2783 032f 07       		.byte	0x7
 2784 0330 00       		.byte	0
 2785 0331 05       		.uleb128 0x5
ARM GAS  C:\Users\AFDHAL~1\AppData\Local\Temp\ccielSKc.s 			page 72


 2786 0332 01       		.byte	0x1
 2787 0333 37000000 		.4byte	0x37
 2788 0337 05       		.byte	0x5
 2789 0338 E9       		.byte	0xe9
 2790 0339 50030000 		.4byte	0x350
 2791 033d 06       		.uleb128 0x6
 2792 033e 69000000 		.4byte	.LASF96
 2793 0342 10       		.byte	0x10
 2794 0343 06       		.uleb128 0x6
 2795 0344 7B020000 		.4byte	.LASF97
 2796 0348 20       		.byte	0x20
 2797 0349 06       		.uleb128 0x6
 2798 034a 1C010000 		.4byte	.LASF98
 2799 034e 40       		.byte	0x40
 2800 034f 00       		.byte	0
 2801 0350 07       		.uleb128 0x7
 2802 0351 01       		.byte	0x1
 2803 0352 37000000 		.4byte	0x37
 2804 0356 05       		.byte	0x5
 2805 0357 0001     		.2byte	0x100
 2806 0359 6A030000 		.4byte	0x36a
 2807 035d 06       		.uleb128 0x6
 2808 035e 01030000 		.4byte	.LASF99
 2809 0362 00       		.byte	0
 2810 0363 06       		.uleb128 0x6
 2811 0364 83100000 		.4byte	.LASF100
 2812 0368 04       		.byte	0x4
 2813 0369 00       		.byte	0
 2814 036a 07       		.uleb128 0x7
 2815 036b 01       		.byte	0x1
 2816 036c 37000000 		.4byte	0x37
 2817 0370 05       		.byte	0x5
 2818 0371 0501     		.2byte	0x105
 2819 0373 84030000 		.4byte	0x384
 2820 0377 06       		.uleb128 0x6
 2821 0378 EC0A0000 		.4byte	.LASF101
 2822 037c 0F       		.byte	0xf
 2823 037d 06       		.uleb128 0x6
 2824 037e A3040000 		.4byte	.LASF102
 2825 0382 F0       		.byte	0xf0
 2826 0383 00       		.byte	0
 2827 0384 07       		.uleb128 0x7
 2828 0385 01       		.byte	0x1
 2829 0386 37000000 		.4byte	0x37
 2830 038a 05       		.byte	0x5
 2831 038b 0B01     		.2byte	0x10b
 2832 038d 98030000 		.4byte	0x398
 2833 0391 06       		.uleb128 0x6
 2834 0392 3E080000 		.4byte	.LASF103
 2835 0396 00       		.byte	0
 2836 0397 00       		.byte	0
 2837 0398 07       		.uleb128 0x7
 2838 0399 01       		.byte	0x1
 2839 039a 37000000 		.4byte	0x37
 2840 039e 05       		.byte	0x5
 2841 039f 1501     		.2byte	0x115
 2842 03a1 C4030000 		.4byte	0x3c4
ARM GAS  C:\Users\AFDHAL~1\AppData\Local\Temp\ccielSKc.s 			page 73


 2843 03a5 06       		.uleb128 0x6
 2844 03a6 B40A0000 		.4byte	.LASF104
 2845 03aa 00       		.byte	0
 2846 03ab 06       		.uleb128 0x6
 2847 03ac 460B0000 		.4byte	.LASF105
 2848 03b0 01       		.byte	0x1
 2849 03b1 06       		.uleb128 0x6
 2850 03b2 B5030000 		.4byte	.LASF106
 2851 03b6 04       		.byte	0x4
 2852 03b7 06       		.uleb128 0x6
 2853 03b8 810D0000 		.4byte	.LASF107
 2854 03bc 05       		.byte	0x5
 2855 03bd 06       		.uleb128 0x6
 2856 03be 54100000 		.4byte	.LASF108
 2857 03c2 06       		.byte	0x6
 2858 03c3 00       		.byte	0
 2859 03c4 07       		.uleb128 0x7
 2860 03c5 01       		.byte	0x1
 2861 03c6 37000000 		.4byte	0x37
 2862 03ca 05       		.byte	0x5
 2863 03cb 1E01     		.2byte	0x11e
 2864 03cd F6030000 		.4byte	0x3f6
 2865 03d1 06       		.uleb128 0x6
 2866 03d2 1E110000 		.4byte	.LASF109
 2867 03d6 00       		.byte	0
 2868 03d7 06       		.uleb128 0x6
 2869 03d8 2F110000 		.4byte	.LASF110
 2870 03dc 01       		.byte	0x1
 2871 03dd 06       		.uleb128 0x6
 2872 03de 00000000 		.4byte	.LASF111
 2873 03e2 02       		.byte	0x2
 2874 03e3 06       		.uleb128 0x6
 2875 03e4 11000000 		.4byte	.LASF112
 2876 03e8 03       		.byte	0x3
 2877 03e9 06       		.uleb128 0x6
 2878 03ea 22000000 		.4byte	.LASF113
 2879 03ee 04       		.byte	0x4
 2880 03ef 06       		.uleb128 0x6
 2881 03f0 33000000 		.4byte	.LASF114
 2882 03f4 05       		.byte	0x5
 2883 03f5 00       		.byte	0
 2884 03f6 07       		.uleb128 0x7
 2885 03f7 01       		.byte	0x1
 2886 03f8 37000000 		.4byte	0x37
 2887 03fc 05       		.byte	0x5
 2888 03fd 2801     		.2byte	0x128
 2889 03ff 16040000 		.4byte	0x416
 2890 0403 06       		.uleb128 0x6
 2891 0404 470A0000 		.4byte	.LASF115
 2892 0408 00       		.byte	0
 2893 0409 06       		.uleb128 0x6
 2894 040a 4A080000 		.4byte	.LASF116
 2895 040e 01       		.byte	0x1
 2896 040f 06       		.uleb128 0x6
 2897 0410 1D0A0000 		.4byte	.LASF117
 2898 0414 02       		.byte	0x2
 2899 0415 00       		.byte	0
ARM GAS  C:\Users\AFDHAL~1\AppData\Local\Temp\ccielSKc.s 			page 74


 2900 0416 07       		.uleb128 0x7
 2901 0417 01       		.byte	0x1
 2902 0418 37000000 		.4byte	0x37
 2903 041c 05       		.byte	0x5
 2904 041d 4001     		.2byte	0x140
 2905 041f 54040000 		.4byte	0x454
 2906 0423 06       		.uleb128 0x6
 2907 0424 27080000 		.4byte	.LASF118
 2908 0428 01       		.byte	0x1
 2909 0429 06       		.uleb128 0x6
 2910 042a 46090000 		.4byte	.LASF119
 2911 042e 05       		.byte	0x5
 2912 042f 06       		.uleb128 0x6
 2913 0430 400F0000 		.4byte	.LASF120
 2914 0434 0F       		.byte	0xf
 2915 0435 06       		.uleb128 0x6
 2916 0436 7F050000 		.4byte	.LASF121
 2917 043a 20       		.byte	0x20
 2918 043b 06       		.uleb128 0x6
 2919 043c 33090000 		.4byte	.LASF122
 2920 0440 64       		.byte	0x64
 2921 0441 06       		.uleb128 0x6
 2922 0442 5A020000 		.4byte	.LASF123
 2923 0446 7D       		.byte	0x7d
 2924 0447 06       		.uleb128 0x6
 2925 0448 64010000 		.4byte	.LASF124
 2926 044c 70       		.byte	0x70
 2927 044d 06       		.uleb128 0x6
 2928 044e 75010000 		.4byte	.LASF125
 2929 0452 0E       		.byte	0xe
 2930 0453 00       		.byte	0
 2931 0454 08       		.uleb128 0x8
 2932 0455 2E020000 		.4byte	.LASF126
 2933 0459 01       		.byte	0x1
 2934 045a EB       		.byte	0xeb
 2935 045b 01       		.byte	0x1
 2936 045c 08       		.uleb128 0x8
 2937 045d 68050000 		.4byte	.LASF127
 2938 0461 01       		.byte	0x1
 2939 0462 F7       		.byte	0xf7
 2940 0463 01       		.byte	0x1
 2941 0464 09       		.uleb128 0x9
 2942 0465 6C040000 		.4byte	.LASF128
 2943 0469 01       		.byte	0x1
 2944 046a C002     		.2byte	0x2c0
 2945 046c 01       		.byte	0x1
 2946 046d 09       		.uleb128 0x9
 2947 046e AB0B0000 		.4byte	.LASF129
 2948 0472 01       		.byte	0x1
 2949 0473 D302     		.2byte	0x2d3
 2950 0475 01       		.byte	0x1
 2951 0476 08       		.uleb128 0x8
 2952 0477 230E0000 		.4byte	.LASF130
 2953 047b 01       		.byte	0x1
 2954 047c C7       		.byte	0xc7
 2955 047d 01       		.byte	0x1
 2956 047e 0A       		.uleb128 0xa
ARM GAS  C:\Users\AFDHAL~1\AppData\Local\Temp\ccielSKc.s 			page 75


 2957 047f 91020000 		.4byte	.LASF218
 2958 0483 01       		.byte	0x1
 2959 0484 1A03     		.2byte	0x31a
 2960 0486 01       		.byte	0x1
 2961 0487 A4040000 		.4byte	0x4a4
 2962 048b 0B       		.uleb128 0xb
 2963 048c FD070000 		.4byte	.LASF131
 2964 0490 01       		.byte	0x1
 2965 0491 1A03     		.2byte	0x31a
 2966 0493 A4040000 		.4byte	0x4a4
 2967 0497 0B       		.uleb128 0xb
 2968 0498 75090000 		.4byte	.LASF132
 2969 049c 01       		.byte	0x1
 2970 049d 1A03     		.2byte	0x31a
 2971 049f 96000000 		.4byte	0x96
 2972 04a3 00       		.byte	0
 2973 04a4 0C       		.uleb128 0xc
 2974 04a5 04       		.byte	0x4
 2975 04a6 AA040000 		.4byte	0x4aa
 2976 04aa 0D       		.uleb128 0xd
 2977 04ab 76000000 		.4byte	0x76
 2978 04af 0E       		.uleb128 0xe
 2979 04b0 B9050000 		.4byte	.LASF219
 2980 04b4 01       		.byte	0x1
 2981 04b5 F802     		.2byte	0x2f8
 2982 04b7 76000000 		.4byte	0x76
 2983 04bb 01       		.byte	0x1
 2984 04bc 09       		.uleb128 0x9
 2985 04bd B6010000 		.4byte	.LASF133
 2986 04c1 01       		.byte	0x1
 2987 04c2 AE03     		.2byte	0x3ae
 2988 04c4 01       		.byte	0x1
 2989 04c5 08       		.uleb128 0x8
 2990 04c6 010C0000 		.4byte	.LASF134
 2991 04ca 01       		.byte	0x1
 2992 04cb 43       		.byte	0x43
 2993 04cc 01       		.byte	0x1
 2994 04cd 0F       		.uleb128 0xf
 2995 04ce 15070000 		.4byte	.LASF135
 2996 04d2 01       		.byte	0x1
 2997 04d3 22       		.byte	0x22
 2998 04d4 00000000 		.4byte	.LFB34
 2999 04d8 88000000 		.4byte	.LFE34-.LFB34
 3000 04dc 01       		.uleb128 0x1
 3001 04dd 9C       		.byte	0x9c
 3002 04de 8C060000 		.4byte	0x68c
 3003 04e2 10       		.uleb128 0x10
 3004 04e3 BC040000 		.4byte	0x4bc
 3005 04e7 20000000 		.4byte	.LBB24
 3006 04eb 08000000 		.4byte	.LBE24-.LBB24
 3007 04ef 01       		.byte	0x1
 3008 04f0 37       		.byte	0x37
 3009 04f1 0B050000 		.4byte	0x50b
 3010 04f5 11       		.uleb128 0x11
 3011 04f6 28000000 		.4byte	.LVL6
 3012 04fa EF160000 		.4byte	0x16ef
 3013 04fe 12       		.uleb128 0x12
ARM GAS  C:\Users\AFDHAL~1\AppData\Local\Temp\ccielSKc.s 			page 76


 3014 04ff 01       		.uleb128 0x1
 3015 0500 50       		.byte	0x50
 3016 0501 01       		.uleb128 0x1
 3017 0502 37       		.byte	0x37
 3018 0503 12       		.uleb128 0x12
 3019 0504 01       		.uleb128 0x1
 3020 0505 51       		.byte	0x51
 3021 0506 02       		.uleb128 0x2
 3022 0507 08       		.byte	0x8
 3023 0508 70       		.byte	0x70
 3024 0509 00       		.byte	0
 3025 050a 00       		.byte	0
 3026 050b 10       		.uleb128 0x10
 3027 050c C5040000 		.4byte	0x4c5
 3028 0510 28000000 		.4byte	.LBB26
 3029 0514 58000000 		.4byte	.LBE26-.LBB26
 3030 0518 01       		.byte	0x1
 3031 0519 3A       		.byte	0x3a
 3032 051a 26060000 		.4byte	0x626
 3033 051e 13       		.uleb128 0x13
 3034 051f 30000000 		.4byte	.LVL7
 3035 0523 EF160000 		.4byte	0x16ef
 3036 0527 36050000 		.4byte	0x536
 3037 052b 12       		.uleb128 0x12
 3038 052c 01       		.uleb128 0x1
 3039 052d 50       		.byte	0x50
 3040 052e 01       		.uleb128 0x1
 3041 052f 31       		.byte	0x31
 3042 0530 12       		.uleb128 0x12
 3043 0531 01       		.uleb128 0x1
 3044 0532 51       		.byte	0x51
 3045 0533 01       		.uleb128 0x1
 3046 0534 30       		.byte	0x30
 3047 0535 00       		.byte	0
 3048 0536 13       		.uleb128 0x13
 3049 0537 38000000 		.4byte	.LVL8
 3050 053b EF160000 		.4byte	0x16ef
 3051 053f 4E050000 		.4byte	0x54e
 3052 0543 12       		.uleb128 0x12
 3053 0544 01       		.uleb128 0x1
 3054 0545 50       		.byte	0x50
 3055 0546 01       		.uleb128 0x1
 3056 0547 32       		.byte	0x32
 3057 0548 12       		.uleb128 0x12
 3058 0549 01       		.uleb128 0x1
 3059 054a 51       		.byte	0x51
 3060 054b 01       		.uleb128 0x1
 3061 054c 33       		.byte	0x33
 3062 054d 00       		.byte	0
 3063 054e 13       		.uleb128 0x13
 3064 054f 40000000 		.4byte	.LVL9
 3065 0553 EF160000 		.4byte	0x16ef
 3066 0557 66050000 		.4byte	0x566
 3067 055b 12       		.uleb128 0x12
 3068 055c 01       		.uleb128 0x1
 3069 055d 50       		.byte	0x50
 3070 055e 01       		.uleb128 0x1
ARM GAS  C:\Users\AFDHAL~1\AppData\Local\Temp\ccielSKc.s 			page 77


 3071 055f 33       		.byte	0x33
 3072 0560 12       		.uleb128 0x12
 3073 0561 01       		.uleb128 0x1
 3074 0562 51       		.byte	0x51
 3075 0563 01       		.uleb128 0x1
 3076 0564 33       		.byte	0x33
 3077 0565 00       		.byte	0
 3078 0566 13       		.uleb128 0x13
 3079 0567 48000000 		.4byte	.LVL10
 3080 056b EF160000 		.4byte	0x16ef
 3081 056f 7E050000 		.4byte	0x57e
 3082 0573 12       		.uleb128 0x12
 3083 0574 01       		.uleb128 0x1
 3084 0575 50       		.byte	0x50
 3085 0576 01       		.uleb128 0x1
 3086 0577 34       		.byte	0x34
 3087 0578 12       		.uleb128 0x12
 3088 0579 01       		.uleb128 0x1
 3089 057a 51       		.byte	0x51
 3090 057b 01       		.uleb128 0x1
 3091 057c 48       		.byte	0x48
 3092 057d 00       		.byte	0
 3093 057e 13       		.uleb128 0x13
 3094 057f 50000000 		.4byte	.LVL11
 3095 0583 EF160000 		.4byte	0x16ef
 3096 0587 97050000 		.4byte	0x597
 3097 058b 12       		.uleb128 0x12
 3098 058c 01       		.uleb128 0x1
 3099 058d 50       		.byte	0x50
 3100 058e 01       		.uleb128 0x1
 3101 058f 35       		.byte	0x35
 3102 0590 12       		.uleb128 0x12
 3103 0591 01       		.uleb128 0x1
 3104 0592 51       		.byte	0x51
 3105 0593 02       		.uleb128 0x2
 3106 0594 08       		.byte	0x8
 3107 0595 78       		.byte	0x78
 3108 0596 00       		.byte	0
 3109 0597 13       		.uleb128 0x13
 3110 0598 58000000 		.4byte	.LVL12
 3111 059c EF160000 		.4byte	0x16ef
 3112 05a0 B0050000 		.4byte	0x5b0
 3113 05a4 12       		.uleb128 0x12
 3114 05a5 01       		.uleb128 0x1
 3115 05a6 50       		.byte	0x50
 3116 05a7 01       		.uleb128 0x1
 3117 05a8 36       		.byte	0x36
 3118 05a9 12       		.uleb128 0x12
 3119 05aa 01       		.uleb128 0x1
 3120 05ab 51       		.byte	0x51
 3121 05ac 02       		.uleb128 0x2
 3122 05ad 08       		.byte	0x8
 3123 05ae 26       		.byte	0x26
 3124 05af 00       		.byte	0
 3125 05b0 13       		.uleb128 0x13
 3126 05b1 60000000 		.4byte	.LVL13
 3127 05b5 EF160000 		.4byte	0x16ef
ARM GAS  C:\Users\AFDHAL~1\AppData\Local\Temp\ccielSKc.s 			page 78


 3128 05b9 C8050000 		.4byte	0x5c8
 3129 05bd 12       		.uleb128 0x12
 3130 05be 01       		.uleb128 0x1
 3131 05bf 50       		.byte	0x50
 3132 05c0 01       		.uleb128 0x1
 3133 05c1 4C       		.byte	0x4c
 3134 05c2 12       		.uleb128 0x12
 3135 05c3 01       		.uleb128 0x1
 3136 05c4 51       		.byte	0x51
 3137 05c5 01       		.uleb128 0x1
 3138 05c6 30       		.byte	0x30
 3139 05c7 00       		.byte	0
 3140 05c8 13       		.uleb128 0x13
 3141 05c9 68000000 		.4byte	.LVL14
 3142 05cd EF160000 		.4byte	0x16ef
 3143 05d1 E0050000 		.4byte	0x5e0
 3144 05d5 12       		.uleb128 0x12
 3145 05d6 01       		.uleb128 0x1
 3146 05d7 50       		.byte	0x50
 3147 05d8 01       		.uleb128 0x1
 3148 05d9 4D       		.byte	0x4d
 3149 05da 12       		.uleb128 0x12
 3150 05db 01       		.uleb128 0x1
 3151 05dc 51       		.byte	0x51
 3152 05dd 01       		.uleb128 0x1
 3153 05de 31       		.byte	0x31
 3154 05df 00       		.byte	0
 3155 05e0 13       		.uleb128 0x13
 3156 05e1 70000000 		.4byte	.LVL15
 3157 05e5 EF160000 		.4byte	0x16ef
 3158 05e9 F8050000 		.4byte	0x5f8
 3159 05ed 12       		.uleb128 0x12
 3160 05ee 01       		.uleb128 0x1
 3161 05ef 50       		.byte	0x50
 3162 05f0 01       		.uleb128 0x1
 3163 05f1 41       		.byte	0x41
 3164 05f2 12       		.uleb128 0x12
 3165 05f3 01       		.uleb128 0x1
 3166 05f4 51       		.byte	0x51
 3167 05f5 01       		.uleb128 0x1
 3168 05f6 34       		.byte	0x34
 3169 05f7 00       		.byte	0
 3170 05f8 13       		.uleb128 0x13
 3171 05f9 78000000 		.4byte	.LVL16
 3172 05fd EF160000 		.4byte	0x16ef
 3173 0601 10060000 		.4byte	0x610
 3174 0605 12       		.uleb128 0x12
 3175 0606 01       		.uleb128 0x1
 3176 0607 50       		.byte	0x50
 3177 0608 01       		.uleb128 0x1
 3178 0609 42       		.byte	0x42
 3179 060a 12       		.uleb128 0x12
 3180 060b 01       		.uleb128 0x1
 3181 060c 51       		.byte	0x51
 3182 060d 01       		.uleb128 0x1
 3183 060e 34       		.byte	0x34
 3184 060f 00       		.byte	0
ARM GAS  C:\Users\AFDHAL~1\AppData\Local\Temp\ccielSKc.s 			page 79


 3185 0610 11       		.uleb128 0x11
 3186 0611 80000000 		.4byte	.LVL17
 3187 0615 EF160000 		.4byte	0x16ef
 3188 0619 12       		.uleb128 0x12
 3189 061a 01       		.uleb128 0x1
 3190 061b 50       		.byte	0x50
 3191 061c 01       		.uleb128 0x1
 3192 061d 30       		.byte	0x30
 3193 061e 12       		.uleb128 0x12
 3194 061f 01       		.uleb128 0x1
 3195 0620 51       		.byte	0x51
 3196 0621 02       		.uleb128 0x2
 3197 0622 08       		.byte	0x8
 3198 0623 7F       		.byte	0x7f
 3199 0624 00       		.byte	0
 3200 0625 00       		.byte	0
 3201 0626 13       		.uleb128 0x13
 3202 0627 08000000 		.4byte	.LVL0
 3203 062b FA160000 		.4byte	0x16fa
 3204 062f 3A060000 		.4byte	0x63a
 3205 0633 12       		.uleb128 0x12
 3206 0634 01       		.uleb128 0x1
 3207 0635 50       		.byte	0x50
 3208 0636 02       		.uleb128 0x2
 3209 0637 08       		.byte	0x8
 3210 0638 64       		.byte	0x64
 3211 0639 00       		.byte	0
 3212 063a 13       		.uleb128 0x13
 3213 063b 0E000000 		.4byte	.LVL1
 3214 063f 05170000 		.4byte	0x1705
 3215 0643 4D060000 		.4byte	0x64d
 3216 0647 12       		.uleb128 0x12
 3217 0648 01       		.uleb128 0x1
 3218 0649 50       		.byte	0x50
 3219 064a 01       		.uleb128 0x1
 3220 064b 30       		.byte	0x30
 3221 064c 00       		.byte	0
 3222 064d 13       		.uleb128 0x13
 3223 064e 14000000 		.4byte	.LVL2
 3224 0652 10170000 		.4byte	0x1710
 3225 0656 60060000 		.4byte	0x660
 3226 065a 12       		.uleb128 0x12
 3227 065b 01       		.uleb128 0x1
 3228 065c 50       		.byte	0x50
 3229 065d 01       		.uleb128 0x1
 3230 065e 31       		.byte	0x31
 3231 065f 00       		.byte	0
 3232 0660 14       		.uleb128 0x14
 3233 0661 18000000 		.4byte	.LVL3
 3234 0665 1B170000 		.4byte	0x171b
 3235 0669 14       		.uleb128 0x14
 3236 066a 1C000000 		.4byte	.LVL4
 3237 066e 26170000 		.4byte	0x1726
 3238 0672 14       		.uleb128 0x14
 3239 0673 20000000 		.4byte	.LVL5
 3240 0677 31170000 		.4byte	0x1731
 3241 067b 11       		.uleb128 0x11
ARM GAS  C:\Users\AFDHAL~1\AppData\Local\Temp\ccielSKc.s 			page 80


 3242 067c 86000000 		.4byte	.LVL18
 3243 0680 3C170000 		.4byte	0x173c
 3244 0684 12       		.uleb128 0x12
 3245 0685 01       		.uleb128 0x1
 3246 0686 50       		.byte	0x50
 3247 0687 02       		.uleb128 0x2
 3248 0688 08       		.byte	0x8
 3249 0689 96       		.byte	0x96
 3250 068a 00       		.byte	0
 3251 068b 00       		.byte	0
 3252 068c 15       		.uleb128 0x15
 3253 068d C5040000 		.4byte	0x4c5
 3254 0691 00000000 		.4byte	.LFB35
 3255 0695 5C000000 		.4byte	.LFE35-.LFB35
 3256 0699 01       		.uleb128 0x1
 3257 069a 9C       		.byte	0x9c
 3258 069b A7070000 		.4byte	0x7a7
 3259 069f 13       		.uleb128 0x13
 3260 06a0 0A000000 		.4byte	.LVL19
 3261 06a4 EF160000 		.4byte	0x16ef
 3262 06a8 B7060000 		.4byte	0x6b7
 3263 06ac 12       		.uleb128 0x12
 3264 06ad 01       		.uleb128 0x1
 3265 06ae 50       		.byte	0x50
 3266 06af 01       		.uleb128 0x1
 3267 06b0 31       		.byte	0x31
 3268 06b1 12       		.uleb128 0x12
 3269 06b2 01       		.uleb128 0x1
 3270 06b3 51       		.byte	0x51
 3271 06b4 01       		.uleb128 0x1
 3272 06b5 30       		.byte	0x30
 3273 06b6 00       		.byte	0
 3274 06b7 13       		.uleb128 0x13
 3275 06b8 12000000 		.4byte	.LVL20
 3276 06bc EF160000 		.4byte	0x16ef
 3277 06c0 CF060000 		.4byte	0x6cf
 3278 06c4 12       		.uleb128 0x12
 3279 06c5 01       		.uleb128 0x1
 3280 06c6 50       		.byte	0x50
 3281 06c7 01       		.uleb128 0x1
 3282 06c8 32       		.byte	0x32
 3283 06c9 12       		.uleb128 0x12
 3284 06ca 01       		.uleb128 0x1
 3285 06cb 51       		.byte	0x51
 3286 06cc 01       		.uleb128 0x1
 3287 06cd 33       		.byte	0x33
 3288 06ce 00       		.byte	0
 3289 06cf 13       		.uleb128 0x13
 3290 06d0 1A000000 		.4byte	.LVL21
 3291 06d4 EF160000 		.4byte	0x16ef
 3292 06d8 E7060000 		.4byte	0x6e7
 3293 06dc 12       		.uleb128 0x12
 3294 06dd 01       		.uleb128 0x1
 3295 06de 50       		.byte	0x50
 3296 06df 01       		.uleb128 0x1
 3297 06e0 33       		.byte	0x33
 3298 06e1 12       		.uleb128 0x12
ARM GAS  C:\Users\AFDHAL~1\AppData\Local\Temp\ccielSKc.s 			page 81


 3299 06e2 01       		.uleb128 0x1
 3300 06e3 51       		.byte	0x51
 3301 06e4 01       		.uleb128 0x1
 3302 06e5 33       		.byte	0x33
 3303 06e6 00       		.byte	0
 3304 06e7 13       		.uleb128 0x13
 3305 06e8 22000000 		.4byte	.LVL22
 3306 06ec EF160000 		.4byte	0x16ef
 3307 06f0 FF060000 		.4byte	0x6ff
 3308 06f4 12       		.uleb128 0x12
 3309 06f5 01       		.uleb128 0x1
 3310 06f6 50       		.byte	0x50
 3311 06f7 01       		.uleb128 0x1
 3312 06f8 34       		.byte	0x34
 3313 06f9 12       		.uleb128 0x12
 3314 06fa 01       		.uleb128 0x1
 3315 06fb 51       		.byte	0x51
 3316 06fc 01       		.uleb128 0x1
 3317 06fd 48       		.byte	0x48
 3318 06fe 00       		.byte	0
 3319 06ff 13       		.uleb128 0x13
 3320 0700 2A000000 		.4byte	.LVL23
 3321 0704 EF160000 		.4byte	0x16ef
 3322 0708 18070000 		.4byte	0x718
 3323 070c 12       		.uleb128 0x12
 3324 070d 01       		.uleb128 0x1
 3325 070e 50       		.byte	0x50
 3326 070f 01       		.uleb128 0x1
 3327 0710 35       		.byte	0x35
 3328 0711 12       		.uleb128 0x12
 3329 0712 01       		.uleb128 0x1
 3330 0713 51       		.byte	0x51
 3331 0714 02       		.uleb128 0x2
 3332 0715 08       		.byte	0x8
 3333 0716 78       		.byte	0x78
 3334 0717 00       		.byte	0
 3335 0718 13       		.uleb128 0x13
 3336 0719 32000000 		.4byte	.LVL24
 3337 071d EF160000 		.4byte	0x16ef
 3338 0721 31070000 		.4byte	0x731
 3339 0725 12       		.uleb128 0x12
 3340 0726 01       		.uleb128 0x1
 3341 0727 50       		.byte	0x50
 3342 0728 01       		.uleb128 0x1
 3343 0729 36       		.byte	0x36
 3344 072a 12       		.uleb128 0x12
 3345 072b 01       		.uleb128 0x1
 3346 072c 51       		.byte	0x51
 3347 072d 02       		.uleb128 0x2
 3348 072e 08       		.byte	0x8
 3349 072f 26       		.byte	0x26
 3350 0730 00       		.byte	0
 3351 0731 13       		.uleb128 0x13
 3352 0732 3A000000 		.4byte	.LVL25
 3353 0736 EF160000 		.4byte	0x16ef
 3354 073a 49070000 		.4byte	0x749
 3355 073e 12       		.uleb128 0x12
ARM GAS  C:\Users\AFDHAL~1\AppData\Local\Temp\ccielSKc.s 			page 82


 3356 073f 01       		.uleb128 0x1
 3357 0740 50       		.byte	0x50
 3358 0741 01       		.uleb128 0x1
 3359 0742 4C       		.byte	0x4c
 3360 0743 12       		.uleb128 0x12
 3361 0744 01       		.uleb128 0x1
 3362 0745 51       		.byte	0x51
 3363 0746 01       		.uleb128 0x1
 3364 0747 30       		.byte	0x30
 3365 0748 00       		.byte	0
 3366 0749 13       		.uleb128 0x13
 3367 074a 42000000 		.4byte	.LVL26
 3368 074e EF160000 		.4byte	0x16ef
 3369 0752 61070000 		.4byte	0x761
 3370 0756 12       		.uleb128 0x12
 3371 0757 01       		.uleb128 0x1
 3372 0758 50       		.byte	0x50
 3373 0759 01       		.uleb128 0x1
 3374 075a 4D       		.byte	0x4d
 3375 075b 12       		.uleb128 0x12
 3376 075c 01       		.uleb128 0x1
 3377 075d 51       		.byte	0x51
 3378 075e 01       		.uleb128 0x1
 3379 075f 31       		.byte	0x31
 3380 0760 00       		.byte	0
 3381 0761 13       		.uleb128 0x13
 3382 0762 4A000000 		.4byte	.LVL27
 3383 0766 EF160000 		.4byte	0x16ef
 3384 076a 79070000 		.4byte	0x779
 3385 076e 12       		.uleb128 0x12
 3386 076f 01       		.uleb128 0x1
 3387 0770 50       		.byte	0x50
 3388 0771 01       		.uleb128 0x1
 3389 0772 41       		.byte	0x41
 3390 0773 12       		.uleb128 0x12
 3391 0774 01       		.uleb128 0x1
 3392 0775 51       		.byte	0x51
 3393 0776 01       		.uleb128 0x1
 3394 0777 34       		.byte	0x34
 3395 0778 00       		.byte	0
 3396 0779 13       		.uleb128 0x13
 3397 077a 52000000 		.4byte	.LVL28
 3398 077e EF160000 		.4byte	0x16ef
 3399 0782 91070000 		.4byte	0x791
 3400 0786 12       		.uleb128 0x12
 3401 0787 01       		.uleb128 0x1
 3402 0788 50       		.byte	0x50
 3403 0789 01       		.uleb128 0x1
 3404 078a 42       		.byte	0x42
 3405 078b 12       		.uleb128 0x12
 3406 078c 01       		.uleb128 0x1
 3407 078d 51       		.byte	0x51
 3408 078e 01       		.uleb128 0x1
 3409 078f 34       		.byte	0x34
 3410 0790 00       		.byte	0
 3411 0791 11       		.uleb128 0x11
 3412 0792 5A000000 		.4byte	.LVL29
ARM GAS  C:\Users\AFDHAL~1\AppData\Local\Temp\ccielSKc.s 			page 83


 3413 0796 EF160000 		.4byte	0x16ef
 3414 079a 12       		.uleb128 0x12
 3415 079b 01       		.uleb128 0x1
 3416 079c 50       		.byte	0x50
 3417 079d 01       		.uleb128 0x1
 3418 079e 30       		.byte	0x30
 3419 079f 12       		.uleb128 0x12
 3420 07a0 01       		.uleb128 0x1
 3421 07a1 51       		.byte	0x51
 3422 07a2 02       		.uleb128 0x2
 3423 07a3 08       		.byte	0x8
 3424 07a4 7F       		.byte	0x7f
 3425 07a5 00       		.byte	0
 3426 07a6 00       		.byte	0
 3427 07a7 0F       		.uleb128 0xf
 3428 07a8 A8030000 		.4byte	.LASF136
 3429 07ac 01       		.byte	0x1
 3430 07ad 8A       		.byte	0x8a
 3431 07ae 00000000 		.4byte	.LFB39
 3432 07b2 12000000 		.4byte	.LFE39-.LFB39
 3433 07b6 01       		.uleb128 0x1
 3434 07b7 9C       		.byte	0x9c
 3435 07b8 E4070000 		.4byte	0x7e4
 3436 07bc 13       		.uleb128 0x13
 3437 07bd 0A000000 		.4byte	.LVL30
 3438 07c1 47170000 		.4byte	0x1747
 3439 07c5 D4070000 		.4byte	0x7d4
 3440 07c9 12       		.uleb128 0x12
 3441 07ca 01       		.uleb128 0x1
 3442 07cb 50       		.byte	0x50
 3443 07cc 01       		.uleb128 0x1
 3444 07cd 30       		.byte	0x30
 3445 07ce 12       		.uleb128 0x12
 3446 07cf 01       		.uleb128 0x1
 3447 07d0 51       		.byte	0x51
 3448 07d1 01       		.uleb128 0x1
 3449 07d2 31       		.byte	0x31
 3450 07d3 00       		.byte	0
 3451 07d4 11       		.uleb128 0x11
 3452 07d5 10000000 		.4byte	.LVL31
 3453 07d9 FA160000 		.4byte	0x16fa
 3454 07dd 12       		.uleb128 0x12
 3455 07de 01       		.uleb128 0x1
 3456 07df 50       		.byte	0x50
 3457 07e0 01       		.uleb128 0x1
 3458 07e1 35       		.byte	0x35
 3459 07e2 00       		.byte	0
 3460 07e3 00       		.byte	0
 3461 07e4 08       		.uleb128 0x8
 3462 07e5 640A0000 		.4byte	.LASF137
 3463 07e9 01       		.byte	0x1
 3464 07ea A0       		.byte	0xa0
 3465 07eb 01       		.byte	0x1
 3466 07ec 16       		.uleb128 0x16
 3467 07ed E4070000 		.4byte	0x7e4
 3468 07f1 00000000 		.4byte	.LFB41
 3469 07f5 02000000 		.4byte	.LFE41-.LFB41
ARM GAS  C:\Users\AFDHAL~1\AppData\Local\Temp\ccielSKc.s 			page 84


 3470 07f9 01       		.uleb128 0x1
 3471 07fa 9C       		.byte	0x9c
 3472 07fb 0F       		.uleb128 0xf
 3473 07fc E9050000 		.4byte	.LASF138
 3474 0800 01       		.byte	0x1
 3475 0801 AA       		.byte	0xaa
 3476 0802 00000000 		.4byte	.LFB42
 3477 0806 18000000 		.4byte	.LFE42-.LFB42
 3478 080a 01       		.uleb128 0x1
 3479 080b 9C       		.byte	0x9c
 3480 080c 67080000 		.4byte	0x867
 3481 0810 17       		.uleb128 0x17
 3482 0811 16020000 		.4byte	.LASF142
 3483 0815 01       		.byte	0x1
 3484 0816 AA       		.byte	0xaa
 3485 0817 67080000 		.4byte	0x867
 3486 081b 00000000 		.4byte	.LLST0
 3487 081f 18       		.uleb128 0x18
 3488 0820 54040000 		.4byte	0x454
 3489 0824 02000000 		.4byte	.LBB28
 3490 0828 00000000 		.4byte	.Ldebug_ranges0+0
 3491 082c 01       		.byte	0x1
 3492 082d AC       		.byte	0xac
 3493 082e 42080000 		.4byte	0x842
 3494 0832 11       		.uleb128 0x11
 3495 0833 16000000 		.4byte	.LVL37
 3496 0837 47170000 		.4byte	0x1747
 3497 083b 12       		.uleb128 0x12
 3498 083c 01       		.uleb128 0x1
 3499 083d 50       		.byte	0x50
 3500 083e 01       		.uleb128 0x1
 3501 083f 30       		.byte	0x30
 3502 0840 00       		.byte	0
 3503 0841 00       		.byte	0
 3504 0842 19       		.uleb128 0x19
 3505 0843 5C040000 		.4byte	0x45c
 3506 0847 08000000 		.4byte	.LBB31
 3507 084b 06000000 		.4byte	.LBE31-.LBB31
 3508 084f 01       		.byte	0x1
 3509 0850 AC       		.byte	0xac
 3510 0851 11       		.uleb128 0x11
 3511 0852 0E000000 		.4byte	.LVL34
 3512 0856 52170000 		.4byte	0x1752
 3513 085a 12       		.uleb128 0x12
 3514 085b 01       		.uleb128 0x1
 3515 085c 50       		.byte	0x50
 3516 085d 01       		.uleb128 0x1
 3517 085e 30       		.byte	0x30
 3518 085f 12       		.uleb128 0x12
 3519 0860 01       		.uleb128 0x1
 3520 0861 51       		.byte	0x51
 3521 0862 01       		.uleb128 0x1
 3522 0863 30       		.byte	0x30
 3523 0864 00       		.byte	0
 3524 0865 00       		.byte	0
 3525 0866 00       		.byte	0
 3526 0867 0D       		.uleb128 0xd
ARM GAS  C:\Users\AFDHAL~1\AppData\Local\Temp\ccielSKc.s 			page 85


 3527 0868 E9010000 		.4byte	0x1e9
 3528 086c 0F       		.uleb128 0xf
 3529 086d 18030000 		.4byte	.LASF139
 3530 0871 01       		.byte	0x1
 3531 0872 B8       		.byte	0xb8
 3532 0873 00000000 		.4byte	.LFB43
 3533 0877 0C000000 		.4byte	.LFE43-.LFB43
 3534 087b 01       		.uleb128 0x1
 3535 087c 9C       		.byte	0x9c
 3536 087d 96080000 		.4byte	0x896
 3537 0881 11       		.uleb128 0x11
 3538 0882 0A000000 		.4byte	.LVL38
 3539 0886 52170000 		.4byte	0x1752
 3540 088a 12       		.uleb128 0x12
 3541 088b 01       		.uleb128 0x1
 3542 088c 50       		.byte	0x50
 3543 088d 01       		.uleb128 0x1
 3544 088e 30       		.byte	0x30
 3545 088f 12       		.uleb128 0x12
 3546 0890 01       		.uleb128 0x1
 3547 0891 51       		.byte	0x51
 3548 0892 01       		.uleb128 0x1
 3549 0893 31       		.byte	0x31
 3550 0894 00       		.byte	0
 3551 0895 00       		.byte	0
 3552 0896 15       		.uleb128 0x15
 3553 0897 76040000 		.4byte	0x476
 3554 089b 00000000 		.4byte	.LFB44
 3555 089f 12000000 		.4byte	.LFE44-.LFB44
 3556 08a3 01       		.uleb128 0x1
 3557 08a4 9C       		.byte	0x9c
 3558 08a5 E1080000 		.4byte	0x8e1
 3559 08a9 10       		.uleb128 0x10
 3560 08aa 6D040000 		.4byte	0x46d
 3561 08ae 02000000 		.4byte	.LBB34
 3562 08b2 06000000 		.4byte	.LBE34-.LBB34
 3563 08b6 01       		.byte	0x1
 3564 08b7 CC       		.byte	0xcc
 3565 08b8 CC080000 		.4byte	0x8cc
 3566 08bc 11       		.uleb128 0x11
 3567 08bd 08000000 		.4byte	.LVL39
 3568 08c1 05170000 		.4byte	0x1705
 3569 08c5 12       		.uleb128 0x12
 3570 08c6 01       		.uleb128 0x1
 3571 08c7 50       		.byte	0x50
 3572 08c8 01       		.uleb128 0x1
 3573 08c9 30       		.byte	0x30
 3574 08ca 00       		.byte	0
 3575 08cb 00       		.byte	0
 3576 08cc 11       		.uleb128 0x11
 3577 08cd 10000000 		.4byte	.LVL40
 3578 08d1 47170000 		.4byte	0x1747
 3579 08d5 12       		.uleb128 0x12
 3580 08d6 01       		.uleb128 0x1
 3581 08d7 50       		.byte	0x50
 3582 08d8 01       		.uleb128 0x1
 3583 08d9 30       		.byte	0x30
ARM GAS  C:\Users\AFDHAL~1\AppData\Local\Temp\ccielSKc.s 			page 86


 3584 08da 12       		.uleb128 0x12
 3585 08db 01       		.uleb128 0x1
 3586 08dc 51       		.byte	0x51
 3587 08dd 01       		.uleb128 0x1
 3588 08de 31       		.byte	0x31
 3589 08df 00       		.byte	0
 3590 08e0 00       		.byte	0
 3591 08e1 0F       		.uleb128 0xf
 3592 08e2 410E0000 		.4byte	.LASF140
 3593 08e6 01       		.byte	0x1
 3594 08e7 DA       		.byte	0xda
 3595 08e8 00000000 		.4byte	.LFB45
 3596 08ec 12000000 		.4byte	.LFE45-.LFB45
 3597 08f0 01       		.uleb128 0x1
 3598 08f1 9C       		.byte	0x9c
 3599 08f2 2E090000 		.4byte	0x92e
 3600 08f6 10       		.uleb128 0x10
 3601 08f7 64040000 		.4byte	0x464
 3602 08fb 02000000 		.4byte	.LBB36
 3603 08ff 06000000 		.4byte	.LBE36-.LBB36
 3604 0903 01       		.byte	0x1
 3605 0904 DF       		.byte	0xdf
 3606 0905 19090000 		.4byte	0x919
 3607 0909 11       		.uleb128 0x11
 3608 090a 08000000 		.4byte	.LVL41
 3609 090e 05170000 		.4byte	0x1705
 3610 0912 12       		.uleb128 0x12
 3611 0913 01       		.uleb128 0x1
 3612 0914 50       		.byte	0x50
 3613 0915 01       		.uleb128 0x1
 3614 0916 31       		.byte	0x31
 3615 0917 00       		.byte	0
 3616 0918 00       		.byte	0
 3617 0919 11       		.uleb128 0x11
 3618 091a 10000000 		.4byte	.LVL42
 3619 091e 47170000 		.4byte	0x1747
 3620 0922 12       		.uleb128 0x12
 3621 0923 01       		.uleb128 0x1
 3622 0924 50       		.byte	0x50
 3623 0925 01       		.uleb128 0x1
 3624 0926 30       		.byte	0x30
 3625 0927 12       		.uleb128 0x12
 3626 0928 01       		.uleb128 0x1
 3627 0929 51       		.byte	0x51
 3628 092a 01       		.uleb128 0x1
 3629 092b 31       		.byte	0x31
 3630 092c 00       		.byte	0
 3631 092d 00       		.byte	0
 3632 092e 15       		.uleb128 0x15
 3633 092f 54040000 		.4byte	0x454
 3634 0933 00000000 		.4byte	.LFB46
 3635 0937 0C000000 		.4byte	.LFE46-.LFB46
 3636 093b 01       		.uleb128 0x1
 3637 093c 9C       		.byte	0x9c
 3638 093d 56090000 		.4byte	0x956
 3639 0941 11       		.uleb128 0x11
 3640 0942 0A000000 		.4byte	.LVL43
ARM GAS  C:\Users\AFDHAL~1\AppData\Local\Temp\ccielSKc.s 			page 87


 3641 0946 47170000 		.4byte	0x1747
 3642 094a 12       		.uleb128 0x12
 3643 094b 01       		.uleb128 0x1
 3644 094c 50       		.byte	0x50
 3645 094d 01       		.uleb128 0x1
 3646 094e 30       		.byte	0x30
 3647 094f 12       		.uleb128 0x12
 3648 0950 01       		.uleb128 0x1
 3649 0951 51       		.byte	0x51
 3650 0952 01       		.uleb128 0x1
 3651 0953 30       		.byte	0x30
 3652 0954 00       		.byte	0
 3653 0955 00       		.byte	0
 3654 0956 15       		.uleb128 0x15
 3655 0957 5C040000 		.4byte	0x45c
 3656 095b 00000000 		.4byte	.LFB47
 3657 095f 0C000000 		.4byte	.LFE47-.LFB47
 3658 0963 01       		.uleb128 0x1
 3659 0964 9C       		.byte	0x9c
 3660 0965 7E090000 		.4byte	0x97e
 3661 0969 11       		.uleb128 0x11
 3662 096a 0A000000 		.4byte	.LVL44
 3663 096e 52170000 		.4byte	0x1752
 3664 0972 12       		.uleb128 0x12
 3665 0973 01       		.uleb128 0x1
 3666 0974 50       		.byte	0x50
 3667 0975 01       		.uleb128 0x1
 3668 0976 30       		.byte	0x30
 3669 0977 12       		.uleb128 0x12
 3670 0978 01       		.uleb128 0x1
 3671 0979 51       		.byte	0x51
 3672 097a 01       		.uleb128 0x1
 3673 097b 30       		.byte	0x30
 3674 097c 00       		.byte	0
 3675 097d 00       		.byte	0
 3676 097e 1A       		.uleb128 0x1a
 3677 097f D00C0000 		.4byte	.LASF141
 3678 0983 01       		.byte	0x1
 3679 0984 0101     		.2byte	0x101
 3680 0986 00000000 		.4byte	.LFB48
 3681 098a 0C000000 		.4byte	.LFE48-.LFB48
 3682 098e 01       		.uleb128 0x1
 3683 098f 9C       		.byte	0x9c
 3684 0990 B4090000 		.4byte	0x9b4
 3685 0994 1B       		.uleb128 0x1b
 3686 0995 7A050000 		.4byte	.LASF143
 3687 0999 01       		.byte	0x1
 3688 099a 0101     		.2byte	0x101
 3689 099c B4090000 		.4byte	0x9b4
 3690 09a0 3A000000 		.4byte	.LLST1
 3691 09a4 11       		.uleb128 0x11
 3692 09a5 0A000000 		.4byte	.LVL47
 3693 09a9 47170000 		.4byte	0x1747
 3694 09ad 12       		.uleb128 0x12
 3695 09ae 01       		.uleb128 0x1
 3696 09af 50       		.byte	0x50
 3697 09b0 01       		.uleb128 0x1
ARM GAS  C:\Users\AFDHAL~1\AppData\Local\Temp\ccielSKc.s 			page 88


 3698 09b1 31       		.byte	0x31
 3699 09b2 00       		.byte	0
 3700 09b3 00       		.byte	0
 3701 09b4 0D       		.uleb128 0xd
 3702 09b5 89010000 		.4byte	0x189
 3703 09b9 1A       		.uleb128 0x1a
 3704 09ba 9D000000 		.4byte	.LASF144
 3705 09be 01       		.byte	0x1
 3706 09bf 0B01     		.2byte	0x10b
 3707 09c1 00000000 		.4byte	.LFB49
 3708 09c5 0C000000 		.4byte	.LFE49-.LFB49
 3709 09c9 01       		.uleb128 0x1
 3710 09ca 9C       		.byte	0x9c
 3711 09cb EF090000 		.4byte	0x9ef
 3712 09cf 1B       		.uleb128 0x1b
 3713 09d0 7A050000 		.4byte	.LASF143
 3714 09d4 01       		.byte	0x1
 3715 09d5 0B01     		.2byte	0x10b
 3716 09d7 B4090000 		.4byte	0x9b4
 3717 09db 5B000000 		.4byte	.LLST2
 3718 09df 11       		.uleb128 0x11
 3719 09e0 0A000000 		.4byte	.LVL50
 3720 09e4 52170000 		.4byte	0x1752
 3721 09e8 12       		.uleb128 0x12
 3722 09e9 01       		.uleb128 0x1
 3723 09ea 50       		.byte	0x50
 3724 09eb 01       		.uleb128 0x1
 3725 09ec 31       		.byte	0x31
 3726 09ed 00       		.byte	0
 3727 09ee 00       		.byte	0
 3728 09ef 1A       		.uleb128 0x1a
 3729 09f0 080B0000 		.4byte	.LASF145
 3730 09f4 01       		.byte	0x1
 3731 09f5 1501     		.2byte	0x115
 3732 09f7 00000000 		.4byte	.LFB50
 3733 09fb 14000000 		.4byte	.LFE50-.LFB50
 3734 09ff 01       		.uleb128 0x1
 3735 0a00 9C       		.byte	0x9c
 3736 0a01 250A0000 		.4byte	0xa25
 3737 0a05 1B       		.uleb128 0x1b
 3738 0a06 E40A0000 		.4byte	.LASF146
 3739 0a0a 01       		.byte	0x1
 3740 0a0b 1501     		.2byte	0x115
 3741 0a0d 76000000 		.4byte	0x76
 3742 0a11 7C000000 		.4byte	.LLST3
 3743 0a15 11       		.uleb128 0x11
 3744 0a16 12000000 		.4byte	.LVL53
 3745 0a1a EF160000 		.4byte	0x16ef
 3746 0a1e 12       		.uleb128 0x12
 3747 0a1f 01       		.uleb128 0x1
 3748 0a20 50       		.byte	0x50
 3749 0a21 01       		.uleb128 0x1
 3750 0a22 35       		.byte	0x35
 3751 0a23 00       		.byte	0
 3752 0a24 00       		.byte	0
 3753 0a25 1A       		.uleb128 0x1a
 3754 0a26 9F0E0000 		.4byte	.LASF147
ARM GAS  C:\Users\AFDHAL~1\AppData\Local\Temp\ccielSKc.s 			page 89


 3755 0a2a 01       		.byte	0x1
 3756 0a2b 2301     		.2byte	0x123
 3757 0a2d 00000000 		.4byte	.LFB51
 3758 0a31 0C000000 		.4byte	.LFE51-.LFB51
 3759 0a35 01       		.uleb128 0x1
 3760 0a36 9C       		.byte	0x9c
 3761 0a37 5B0A0000 		.4byte	0xa5b
 3762 0a3b 1B       		.uleb128 0x1b
 3763 0a3c 520C0000 		.4byte	.LASF148
 3764 0a40 01       		.byte	0x1
 3765 0a41 2301     		.2byte	0x123
 3766 0a43 5B0A0000 		.4byte	0xa5b
 3767 0a47 CC000000 		.4byte	.LLST4
 3768 0a4b 11       		.uleb128 0x11
 3769 0a4c 0A000000 		.4byte	.LVL56
 3770 0a50 EF160000 		.4byte	0x16ef
 3771 0a54 12       		.uleb128 0x12
 3772 0a55 01       		.uleb128 0x1
 3773 0a56 50       		.byte	0x50
 3774 0a57 01       		.uleb128 0x1
 3775 0a58 33       		.byte	0x33
 3776 0a59 00       		.byte	0
 3777 0a5a 00       		.byte	0
 3778 0a5b 0D       		.uleb128 0xd
 3779 0a5c DC020000 		.4byte	0x2dc
 3780 0a60 1C       		.uleb128 0x1c
 3781 0a61 FA0F0000 		.4byte	.LASF166
 3782 0a65 01       		.byte	0x1
 3783 0a66 2D01     		.2byte	0x12d
 3784 0a68 76000000 		.4byte	0x76
 3785 0a6c 00000000 		.4byte	.LFB52
 3786 0a70 1C000000 		.4byte	.LFE52-.LFB52
 3787 0a74 01       		.uleb128 0x1
 3788 0a75 9C       		.byte	0x9c
 3789 0a76 AA0A0000 		.4byte	0xaaa
 3790 0a7a 1D       		.uleb128 0x1d
 3791 0a7b 520C0000 		.4byte	.LASF148
 3792 0a7f 01       		.byte	0x1
 3793 0a80 2F01     		.2byte	0x12f
 3794 0a82 76000000 		.4byte	0x76
 3795 0a86 ED000000 		.4byte	.LLST5
 3796 0a8a 1E       		.uleb128 0x1e
 3797 0a8b 72656700 		.ascii	"reg\000"
 3798 0a8f 01       		.byte	0x1
 3799 0a90 3001     		.2byte	0x130
 3800 0a92 76000000 		.4byte	0x76
 3801 0a96 0C010000 		.4byte	.LLST6
 3802 0a9a 11       		.uleb128 0x11
 3803 0a9b 08000000 		.4byte	.LVL58
 3804 0a9f 5D170000 		.4byte	0x175d
 3805 0aa3 12       		.uleb128 0x12
 3806 0aa4 01       		.uleb128 0x1
 3807 0aa5 50       		.byte	0x50
 3808 0aa6 01       		.uleb128 0x1
 3809 0aa7 33       		.byte	0x33
 3810 0aa8 00       		.byte	0
 3811 0aa9 00       		.byte	0
ARM GAS  C:\Users\AFDHAL~1\AppData\Local\Temp\ccielSKc.s 			page 90


 3812 0aaa 1A       		.uleb128 0x1a
 3813 0aab 38100000 		.4byte	.LASF149
 3814 0aaf 01       		.byte	0x1
 3815 0ab0 4B01     		.2byte	0x14b
 3816 0ab2 00000000 		.4byte	.LFB53
 3817 0ab6 1A000000 		.4byte	.LFE53-.LFB53
 3818 0aba 01       		.uleb128 0x1
 3819 0abb 9C       		.byte	0x9c
 3820 0abc F70A0000 		.4byte	0xaf7
 3821 0ac0 1B       		.uleb128 0x1b
 3822 0ac1 3C0E0000 		.4byte	.LASF150
 3823 0ac5 01       		.byte	0x1
 3824 0ac6 4B01     		.2byte	0x14b
 3825 0ac8 A4040000 		.4byte	0x4a4
 3826 0acc 1F010000 		.4byte	.LLST7
 3827 0ad0 1B       		.uleb128 0x1b
 3828 0ad1 75090000 		.4byte	.LASF132
 3829 0ad5 01       		.byte	0x1
 3830 0ad6 4B01     		.2byte	0x14b
 3831 0ad8 96000000 		.4byte	0x96
 3832 0adc 56010000 		.4byte	.LLST8
 3833 0ae0 11       		.uleb128 0x11
 3834 0ae1 14000000 		.4byte	.LVL65
 3835 0ae5 68170000 		.4byte	0x1768
 3836 0ae9 12       		.uleb128 0x12
 3837 0aea 01       		.uleb128 0x1
 3838 0aeb 50       		.byte	0x50
 3839 0aec 01       		.uleb128 0x1
 3840 0aed 3A       		.byte	0x3a
 3841 0aee 12       		.uleb128 0x12
 3842 0aef 01       		.uleb128 0x1
 3843 0af0 51       		.byte	0x51
 3844 0af1 03       		.uleb128 0x3
 3845 0af2 F3       		.byte	0xf3
 3846 0af3 01       		.uleb128 0x1
 3847 0af4 50       		.byte	0x50
 3848 0af5 00       		.byte	0
 3849 0af6 00       		.byte	0
 3850 0af7 1A       		.uleb128 0x1a
 3851 0af8 E7010000 		.4byte	.LASF151
 3852 0afc 01       		.byte	0x1
 3853 0afd 5F01     		.2byte	0x15f
 3854 0aff 00000000 		.4byte	.LFB54
 3855 0b03 1A000000 		.4byte	.LFE54-.LFB54
 3856 0b07 01       		.uleb128 0x1
 3857 0b08 9C       		.byte	0x9c
 3858 0b09 440B0000 		.4byte	0xb44
 3859 0b0d 1B       		.uleb128 0x1b
 3860 0b0e 3C0E0000 		.4byte	.LASF150
 3861 0b12 01       		.byte	0x1
 3862 0b13 5F01     		.2byte	0x15f
 3863 0b15 440B0000 		.4byte	0xb44
 3864 0b19 C7010000 		.4byte	.LLST9
 3865 0b1d 1B       		.uleb128 0x1b
 3866 0b1e 75090000 		.4byte	.LASF132
 3867 0b22 01       		.byte	0x1
 3868 0b23 5F01     		.2byte	0x15f
ARM GAS  C:\Users\AFDHAL~1\AppData\Local\Temp\ccielSKc.s 			page 91


 3869 0b25 96000000 		.4byte	0x96
 3870 0b29 FE010000 		.4byte	.LLST10
 3871 0b2d 11       		.uleb128 0x11
 3872 0b2e 14000000 		.4byte	.LVL71
 3873 0b32 73170000 		.4byte	0x1773
 3874 0b36 12       		.uleb128 0x12
 3875 0b37 01       		.uleb128 0x1
 3876 0b38 50       		.byte	0x50
 3877 0b39 01       		.uleb128 0x1
 3878 0b3a 3A       		.byte	0x3a
 3879 0b3b 12       		.uleb128 0x12
 3880 0b3c 01       		.uleb128 0x1
 3881 0b3d 51       		.byte	0x51
 3882 0b3e 03       		.uleb128 0x3
 3883 0b3f F3       		.byte	0xf3
 3884 0b40 01       		.uleb128 0x1
 3885 0b41 50       		.byte	0x50
 3886 0b42 00       		.byte	0
 3887 0b43 00       		.byte	0
 3888 0b44 0C       		.uleb128 0xc
 3889 0b45 04       		.byte	0x4
 3890 0b46 76000000 		.4byte	0x76
 3891 0b4a 1A       		.uleb128 0x1a
 3892 0b4b 650D0000 		.4byte	.LASF152
 3893 0b4f 01       		.byte	0x1
 3894 0b50 7401     		.2byte	0x174
 3895 0b52 00000000 		.4byte	.LFB55
 3896 0b56 1A000000 		.4byte	.LFE55-.LFB55
 3897 0b5a 01       		.uleb128 0x1
 3898 0b5b 9C       		.byte	0x9c
 3899 0b5c 970B0000 		.4byte	0xb97
 3900 0b60 1B       		.uleb128 0x1b
 3901 0b61 3C0E0000 		.4byte	.LASF150
 3902 0b65 01       		.byte	0x1
 3903 0b66 7401     		.2byte	0x174
 3904 0b68 A4040000 		.4byte	0x4a4
 3905 0b6c 6F020000 		.4byte	.LLST11
 3906 0b70 1B       		.uleb128 0x1b
 3907 0b71 75090000 		.4byte	.LASF132
 3908 0b75 01       		.byte	0x1
 3909 0b76 7401     		.2byte	0x174
 3910 0b78 96000000 		.4byte	0x96
 3911 0b7c A6020000 		.4byte	.LLST12
 3912 0b80 11       		.uleb128 0x11
 3913 0b81 14000000 		.4byte	.LVL77
 3914 0b85 68170000 		.4byte	0x1768
 3915 0b89 12       		.uleb128 0x12
 3916 0b8a 01       		.uleb128 0x1
 3917 0b8b 50       		.byte	0x50
 3918 0b8c 01       		.uleb128 0x1
 3919 0b8d 3B       		.byte	0x3b
 3920 0b8e 12       		.uleb128 0x12
 3921 0b8f 01       		.uleb128 0x1
 3922 0b90 51       		.byte	0x51
 3923 0b91 03       		.uleb128 0x3
 3924 0b92 F3       		.byte	0xf3
 3925 0b93 01       		.uleb128 0x1
ARM GAS  C:\Users\AFDHAL~1\AppData\Local\Temp\ccielSKc.s 			page 92


 3926 0b94 50       		.byte	0x50
 3927 0b95 00       		.byte	0
 3928 0b96 00       		.byte	0
 3929 0b97 1A       		.uleb128 0x1a
 3930 0b98 9A070000 		.4byte	.LASF153
 3931 0b9c 01       		.byte	0x1
 3932 0b9d 8701     		.2byte	0x187
 3933 0b9f 00000000 		.4byte	.LFB56
 3934 0ba3 1A000000 		.4byte	.LFE56-.LFB56
 3935 0ba7 01       		.uleb128 0x1
 3936 0ba8 9C       		.byte	0x9c
 3937 0ba9 E40B0000 		.4byte	0xbe4
 3938 0bad 1B       		.uleb128 0x1b
 3939 0bae 3C0E0000 		.4byte	.LASF150
 3940 0bb2 01       		.byte	0x1
 3941 0bb3 8701     		.2byte	0x187
 3942 0bb5 440B0000 		.4byte	0xb44
 3943 0bb9 17030000 		.4byte	.LLST13
 3944 0bbd 1B       		.uleb128 0x1b
 3945 0bbe 75090000 		.4byte	.LASF132
 3946 0bc2 01       		.byte	0x1
 3947 0bc3 8701     		.2byte	0x187
 3948 0bc5 96000000 		.4byte	0x96
 3949 0bc9 4E030000 		.4byte	.LLST14
 3950 0bcd 11       		.uleb128 0x11
 3951 0bce 14000000 		.4byte	.LVL83
 3952 0bd2 73170000 		.4byte	0x1773
 3953 0bd6 12       		.uleb128 0x12
 3954 0bd7 01       		.uleb128 0x1
 3955 0bd8 50       		.byte	0x50
 3956 0bd9 01       		.uleb128 0x1
 3957 0bda 3B       		.byte	0x3b
 3958 0bdb 12       		.uleb128 0x12
 3959 0bdc 01       		.uleb128 0x1
 3960 0bdd 51       		.byte	0x51
 3961 0bde 03       		.uleb128 0x3
 3962 0bdf F3       		.byte	0xf3
 3963 0be0 01       		.uleb128 0x1
 3964 0be1 50       		.byte	0x50
 3965 0be2 00       		.byte	0
 3966 0be3 00       		.byte	0
 3967 0be4 1A       		.uleb128 0x1a
 3968 0be5 17090000 		.4byte	.LASF154
 3969 0be9 01       		.byte	0x1
 3970 0bea 9901     		.2byte	0x199
 3971 0bec 00000000 		.4byte	.LFB57
 3972 0bf0 0C000000 		.4byte	.LFE57-.LFB57
 3973 0bf4 01       		.uleb128 0x1
 3974 0bf5 9C       		.byte	0x9c
 3975 0bf6 1A0C0000 		.4byte	0xc1a
 3976 0bfa 1B       		.uleb128 0x1b
 3977 0bfb E0080000 		.4byte	.LASF155
 3978 0bff 01       		.byte	0x1
 3979 0c00 9901     		.2byte	0x199
 3980 0c02 AA040000 		.4byte	0x4aa
 3981 0c06 BF030000 		.4byte	.LLST15
 3982 0c0a 11       		.uleb128 0x11
ARM GAS  C:\Users\AFDHAL~1\AppData\Local\Temp\ccielSKc.s 			page 93


 3983 0c0b 0A000000 		.4byte	.LVL87
 3984 0c0f EF160000 		.4byte	0x16ef
 3985 0c13 12       		.uleb128 0x12
 3986 0c14 01       		.uleb128 0x1
 3987 0c15 50       		.byte	0x50
 3988 0c16 01       		.uleb128 0x1
 3989 0c17 3C       		.byte	0x3c
 3990 0c18 00       		.byte	0
 3991 0c19 00       		.byte	0
 3992 0c1a 1A       		.uleb128 0x1a
 3993 0c1b 0C0C0000 		.4byte	.LASF156
 3994 0c1f 01       		.byte	0x1
 3995 0c20 A401     		.2byte	0x1a4
 3996 0c22 00000000 		.4byte	.LFB58
 3997 0c26 26000000 		.4byte	.LFE58-.LFB58
 3998 0c2a 01       		.uleb128 0x1
 3999 0c2b 9C       		.byte	0x9c
 4000 0c2c 7F0C0000 		.4byte	0xc7f
 4001 0c30 1B       		.uleb128 0x1b
 4002 0c31 3C0E0000 		.4byte	.LASF150
 4003 0c35 01       		.byte	0x1
 4004 0c36 A401     		.2byte	0x1a4
 4005 0c38 440B0000 		.4byte	0xb44
 4006 0c3c E0030000 		.4byte	.LLST16
 4007 0c40 1B       		.uleb128 0x1b
 4008 0c41 75090000 		.4byte	.LASF132
 4009 0c45 01       		.byte	0x1
 4010 0c46 A401     		.2byte	0x1a4
 4011 0c48 96000000 		.4byte	0x96
 4012 0c4c 17040000 		.4byte	.LLST17
 4013 0c50 13       		.uleb128 0x13
 4014 0c51 16000000 		.4byte	.LVL92
 4015 0c55 73170000 		.4byte	0x1773
 4016 0c59 6F0C0000 		.4byte	0xc6f
 4017 0c5d 12       		.uleb128 0x12
 4018 0c5e 01       		.uleb128 0x1
 4019 0c5f 50       		.byte	0x50
 4020 0c60 01       		.uleb128 0x1
 4021 0c61 3B       		.byte	0x3b
 4022 0c62 12       		.uleb128 0x12
 4023 0c63 01       		.uleb128 0x1
 4024 0c64 51       		.byte	0x51
 4025 0c65 02       		.uleb128 0x2
 4026 0c66 75       		.byte	0x75
 4027 0c67 00       		.sleb128 0
 4028 0c68 12       		.uleb128 0x12
 4029 0c69 01       		.uleb128 0x1
 4030 0c6a 52       		.byte	0x52
 4031 0c6b 02       		.uleb128 0x2
 4032 0c6c 74       		.byte	0x74
 4033 0c6d 00       		.sleb128 0
 4034 0c6e 00       		.byte	0
 4035 0c6f 11       		.uleb128 0x11
 4036 0c70 1C000000 		.4byte	.LVL93
 4037 0c74 5D170000 		.4byte	0x175d
 4038 0c78 12       		.uleb128 0x12
 4039 0c79 01       		.uleb128 0x1
ARM GAS  C:\Users\AFDHAL~1\AppData\Local\Temp\ccielSKc.s 			page 94


 4040 0c7a 50       		.byte	0x50
 4041 0c7b 01       		.uleb128 0x1
 4042 0c7c 3C       		.byte	0x3c
 4043 0c7d 00       		.byte	0
 4044 0c7e 00       		.byte	0
 4045 0c7f 1A       		.uleb128 0x1a
 4046 0c80 BE0D0000 		.4byte	.LASF157
 4047 0c84 01       		.byte	0x1
 4048 0c85 B801     		.2byte	0x1b8
 4049 0c87 00000000 		.4byte	.LFB59
 4050 0c8b 0C000000 		.4byte	.LFE59-.LFB59
 4051 0c8f 01       		.uleb128 0x1
 4052 0c90 9C       		.byte	0x9c
 4053 0c91 B50C0000 		.4byte	0xcb5
 4054 0c95 1B       		.uleb128 0x1b
 4055 0c96 E0080000 		.4byte	.LASF155
 4056 0c9a 01       		.byte	0x1
 4057 0c9b B801     		.2byte	0x1b8
 4058 0c9d AA040000 		.4byte	0x4aa
 4059 0ca1 A8040000 		.4byte	.LLST18
 4060 0ca5 11       		.uleb128 0x11
 4061 0ca6 0A000000 		.4byte	.LVL100
 4062 0caa EF160000 		.4byte	0x16ef
 4063 0cae 12       		.uleb128 0x12
 4064 0caf 01       		.uleb128 0x1
 4065 0cb0 50       		.byte	0x50
 4066 0cb1 01       		.uleb128 0x1
 4067 0cb2 3D       		.byte	0x3d
 4068 0cb3 00       		.byte	0
 4069 0cb4 00       		.byte	0
 4070 0cb5 1A       		.uleb128 0x1a
 4071 0cb6 02110000 		.4byte	.LASF158
 4072 0cba 01       		.byte	0x1
 4073 0cbb C301     		.2byte	0x1c3
 4074 0cbd 00000000 		.4byte	.LFB60
 4075 0cc1 26000000 		.4byte	.LFE60-.LFB60
 4076 0cc5 01       		.uleb128 0x1
 4077 0cc6 9C       		.byte	0x9c
 4078 0cc7 1A0D0000 		.4byte	0xd1a
 4079 0ccb 1B       		.uleb128 0x1b
 4080 0ccc 3C0E0000 		.4byte	.LASF150
 4081 0cd0 01       		.byte	0x1
 4082 0cd1 C301     		.2byte	0x1c3
 4083 0cd3 440B0000 		.4byte	0xb44
 4084 0cd7 C9040000 		.4byte	.LLST19
 4085 0cdb 1B       		.uleb128 0x1b
 4086 0cdc 75090000 		.4byte	.LASF132
 4087 0ce0 01       		.byte	0x1
 4088 0ce1 C301     		.2byte	0x1c3
 4089 0ce3 96000000 		.4byte	0x96
 4090 0ce7 00050000 		.4byte	.LLST20
 4091 0ceb 13       		.uleb128 0x13
 4092 0cec 16000000 		.4byte	.LVL105
 4093 0cf0 73170000 		.4byte	0x1773
 4094 0cf4 0A0D0000 		.4byte	0xd0a
 4095 0cf8 12       		.uleb128 0x12
 4096 0cf9 01       		.uleb128 0x1
ARM GAS  C:\Users\AFDHAL~1\AppData\Local\Temp\ccielSKc.s 			page 95


 4097 0cfa 50       		.byte	0x50
 4098 0cfb 01       		.uleb128 0x1
 4099 0cfc 3B       		.byte	0x3b
 4100 0cfd 12       		.uleb128 0x12
 4101 0cfe 01       		.uleb128 0x1
 4102 0cff 51       		.byte	0x51
 4103 0d00 02       		.uleb128 0x2
 4104 0d01 75       		.byte	0x75
 4105 0d02 00       		.sleb128 0
 4106 0d03 12       		.uleb128 0x12
 4107 0d04 01       		.uleb128 0x1
 4108 0d05 52       		.byte	0x52
 4109 0d06 02       		.uleb128 0x2
 4110 0d07 74       		.byte	0x74
 4111 0d08 00       		.sleb128 0
 4112 0d09 00       		.byte	0
 4113 0d0a 11       		.uleb128 0x11
 4114 0d0b 1C000000 		.4byte	.LVL106
 4115 0d0f 5D170000 		.4byte	0x175d
 4116 0d13 12       		.uleb128 0x12
 4117 0d14 01       		.uleb128 0x1
 4118 0d15 50       		.byte	0x50
 4119 0d16 01       		.uleb128 0x1
 4120 0d17 3D       		.byte	0x3d
 4121 0d18 00       		.byte	0
 4122 0d19 00       		.byte	0
 4123 0d1a 1A       		.uleb128 0x1a
 4124 0d1b CB010000 		.4byte	.LASF159
 4125 0d1f 01       		.byte	0x1
 4126 0d20 D701     		.2byte	0x1d7
 4127 0d22 00000000 		.4byte	.LFB61
 4128 0d26 0C000000 		.4byte	.LFE61-.LFB61
 4129 0d2a 01       		.uleb128 0x1
 4130 0d2b 9C       		.byte	0x9c
 4131 0d2c 500D0000 		.4byte	0xd50
 4132 0d30 1B       		.uleb128 0x1b
 4133 0d31 E0080000 		.4byte	.LASF155
 4134 0d35 01       		.byte	0x1
 4135 0d36 D701     		.2byte	0x1d7
 4136 0d38 AA040000 		.4byte	0x4aa
 4137 0d3c 91050000 		.4byte	.LLST21
 4138 0d40 11       		.uleb128 0x11
 4139 0d41 0A000000 		.4byte	.LVL113
 4140 0d45 EF160000 		.4byte	0x16ef
 4141 0d49 12       		.uleb128 0x12
 4142 0d4a 01       		.uleb128 0x1
 4143 0d4b 50       		.byte	0x50
 4144 0d4c 01       		.uleb128 0x1
 4145 0d4d 3E       		.byte	0x3e
 4146 0d4e 00       		.byte	0
 4147 0d4f 00       		.byte	0
 4148 0d50 1A       		.uleb128 0x1a
 4149 0d51 94050000 		.4byte	.LASF160
 4150 0d55 01       		.byte	0x1
 4151 0d56 E201     		.2byte	0x1e2
 4152 0d58 00000000 		.4byte	.LFB62
 4153 0d5c 26000000 		.4byte	.LFE62-.LFB62
ARM GAS  C:\Users\AFDHAL~1\AppData\Local\Temp\ccielSKc.s 			page 96


 4154 0d60 01       		.uleb128 0x1
 4155 0d61 9C       		.byte	0x9c
 4156 0d62 B50D0000 		.4byte	0xdb5
 4157 0d66 1B       		.uleb128 0x1b
 4158 0d67 3C0E0000 		.4byte	.LASF150
 4159 0d6b 01       		.byte	0x1
 4160 0d6c E201     		.2byte	0x1e2
 4161 0d6e 440B0000 		.4byte	0xb44
 4162 0d72 B2050000 		.4byte	.LLST22
 4163 0d76 1B       		.uleb128 0x1b
 4164 0d77 75090000 		.4byte	.LASF132
 4165 0d7b 01       		.byte	0x1
 4166 0d7c E201     		.2byte	0x1e2
 4167 0d7e 96000000 		.4byte	0x96
 4168 0d82 E9050000 		.4byte	.LLST23
 4169 0d86 13       		.uleb128 0x13
 4170 0d87 16000000 		.4byte	.LVL118
 4171 0d8b 73170000 		.4byte	0x1773
 4172 0d8f A50D0000 		.4byte	0xda5
 4173 0d93 12       		.uleb128 0x12
 4174 0d94 01       		.uleb128 0x1
 4175 0d95 50       		.byte	0x50
 4176 0d96 01       		.uleb128 0x1
 4177 0d97 3B       		.byte	0x3b
 4178 0d98 12       		.uleb128 0x12
 4179 0d99 01       		.uleb128 0x1
 4180 0d9a 51       		.byte	0x51
 4181 0d9b 02       		.uleb128 0x2
 4182 0d9c 75       		.byte	0x75
 4183 0d9d 00       		.sleb128 0
 4184 0d9e 12       		.uleb128 0x12
 4185 0d9f 01       		.uleb128 0x1
 4186 0da0 52       		.byte	0x52
 4187 0da1 02       		.uleb128 0x2
 4188 0da2 74       		.byte	0x74
 4189 0da3 00       		.sleb128 0
 4190 0da4 00       		.byte	0
 4191 0da5 11       		.uleb128 0x11
 4192 0da6 1C000000 		.4byte	.LVL119
 4193 0daa 5D170000 		.4byte	0x175d
 4194 0dae 12       		.uleb128 0x12
 4195 0daf 01       		.uleb128 0x1
 4196 0db0 50       		.byte	0x50
 4197 0db1 01       		.uleb128 0x1
 4198 0db2 3E       		.byte	0x3e
 4199 0db3 00       		.byte	0
 4200 0db4 00       		.byte	0
 4201 0db5 1A       		.uleb128 0x1a
 4202 0db6 4A070000 		.4byte	.LASF161
 4203 0dba 01       		.byte	0x1
 4204 0dbb F601     		.2byte	0x1f6
 4205 0dbd 00000000 		.4byte	.LFB63
 4206 0dc1 0C000000 		.4byte	.LFE63-.LFB63
 4207 0dc5 01       		.uleb128 0x1
 4208 0dc6 9C       		.byte	0x9c
 4209 0dc7 EB0D0000 		.4byte	0xdeb
 4210 0dcb 1B       		.uleb128 0x1b
ARM GAS  C:\Users\AFDHAL~1\AppData\Local\Temp\ccielSKc.s 			page 97


 4211 0dcc E0080000 		.4byte	.LASF155
 4212 0dd0 01       		.byte	0x1
 4213 0dd1 F601     		.2byte	0x1f6
 4214 0dd3 AA040000 		.4byte	0x4aa
 4215 0dd7 7A060000 		.4byte	.LLST24
 4216 0ddb 11       		.uleb128 0x11
 4217 0ddc 0A000000 		.4byte	.LVL126
 4218 0de0 EF160000 		.4byte	0x16ef
 4219 0de4 12       		.uleb128 0x12
 4220 0de5 01       		.uleb128 0x1
 4221 0de6 50       		.byte	0x50
 4222 0de7 01       		.uleb128 0x1
 4223 0de8 3F       		.byte	0x3f
 4224 0de9 00       		.byte	0
 4225 0dea 00       		.byte	0
 4226 0deb 1A       		.uleb128 0x1a
 4227 0dec 83090000 		.4byte	.LASF162
 4228 0df0 01       		.byte	0x1
 4229 0df1 0102     		.2byte	0x201
 4230 0df3 00000000 		.4byte	.LFB64
 4231 0df7 26000000 		.4byte	.LFE64-.LFB64
 4232 0dfb 01       		.uleb128 0x1
 4233 0dfc 9C       		.byte	0x9c
 4234 0dfd 500E0000 		.4byte	0xe50
 4235 0e01 1B       		.uleb128 0x1b
 4236 0e02 3C0E0000 		.4byte	.LASF150
 4237 0e06 01       		.byte	0x1
 4238 0e07 0102     		.2byte	0x201
 4239 0e09 440B0000 		.4byte	0xb44
 4240 0e0d 9B060000 		.4byte	.LLST25
 4241 0e11 1B       		.uleb128 0x1b
 4242 0e12 75090000 		.4byte	.LASF132
 4243 0e16 01       		.byte	0x1
 4244 0e17 0102     		.2byte	0x201
 4245 0e19 96000000 		.4byte	0x96
 4246 0e1d D2060000 		.4byte	.LLST26
 4247 0e21 13       		.uleb128 0x13
 4248 0e22 16000000 		.4byte	.LVL131
 4249 0e26 73170000 		.4byte	0x1773
 4250 0e2a 400E0000 		.4byte	0xe40
 4251 0e2e 12       		.uleb128 0x12
 4252 0e2f 01       		.uleb128 0x1
 4253 0e30 50       		.byte	0x50
 4254 0e31 01       		.uleb128 0x1
 4255 0e32 3B       		.byte	0x3b
 4256 0e33 12       		.uleb128 0x12
 4257 0e34 01       		.uleb128 0x1
 4258 0e35 51       		.byte	0x51
 4259 0e36 02       		.uleb128 0x2
 4260 0e37 75       		.byte	0x75
 4261 0e38 00       		.sleb128 0
 4262 0e39 12       		.uleb128 0x12
 4263 0e3a 01       		.uleb128 0x1
 4264 0e3b 52       		.byte	0x52
 4265 0e3c 02       		.uleb128 0x2
 4266 0e3d 74       		.byte	0x74
 4267 0e3e 00       		.sleb128 0
ARM GAS  C:\Users\AFDHAL~1\AppData\Local\Temp\ccielSKc.s 			page 98


 4268 0e3f 00       		.byte	0
 4269 0e40 11       		.uleb128 0x11
 4270 0e41 1C000000 		.4byte	.LVL132
 4271 0e45 5D170000 		.4byte	0x175d
 4272 0e49 12       		.uleb128 0x12
 4273 0e4a 01       		.uleb128 0x1
 4274 0e4b 50       		.byte	0x50
 4275 0e4c 01       		.uleb128 0x1
 4276 0e4d 3F       		.byte	0x3f
 4277 0e4e 00       		.byte	0
 4278 0e4f 00       		.byte	0
 4279 0e50 1A       		.uleb128 0x1a
 4280 0e51 35070000 		.4byte	.LASF163
 4281 0e55 01       		.byte	0x1
 4282 0e56 1602     		.2byte	0x216
 4283 0e58 00000000 		.4byte	.LFB65
 4284 0e5c 1A000000 		.4byte	.LFE65-.LFB65
 4285 0e60 01       		.uleb128 0x1
 4286 0e61 9C       		.byte	0x9c
 4287 0e62 9D0E0000 		.4byte	0xe9d
 4288 0e66 1B       		.uleb128 0x1b
 4289 0e67 3C0E0000 		.4byte	.LASF150
 4290 0e6b 01       		.byte	0x1
 4291 0e6c 1602     		.2byte	0x216
 4292 0e6e 9D0E0000 		.4byte	0xe9d
 4293 0e72 63070000 		.4byte	.LLST27
 4294 0e76 1B       		.uleb128 0x1b
 4295 0e77 75090000 		.4byte	.LASF132
 4296 0e7b 01       		.byte	0x1
 4297 0e7c 1602     		.2byte	0x216
 4298 0e7e 96000000 		.4byte	0x96
 4299 0e82 9A070000 		.4byte	.LLST28
 4300 0e86 11       		.uleb128 0x11
 4301 0e87 14000000 		.4byte	.LVL141
 4302 0e8b 68170000 		.4byte	0x1768
 4303 0e8f 12       		.uleb128 0x12
 4304 0e90 01       		.uleb128 0x1
 4305 0e91 50       		.byte	0x50
 4306 0e92 01       		.uleb128 0x1
 4307 0e93 40       		.byte	0x40
 4308 0e94 12       		.uleb128 0x12
 4309 0e95 01       		.uleb128 0x1
 4310 0e96 51       		.byte	0x51
 4311 0e97 03       		.uleb128 0x3
 4312 0e98 F3       		.byte	0xf3
 4313 0e99 01       		.uleb128 0x1
 4314 0e9a 50       		.byte	0x50
 4315 0e9b 00       		.byte	0
 4316 0e9c 00       		.byte	0
 4317 0e9d 0D       		.uleb128 0xd
 4318 0e9e A4040000 		.4byte	0x4a4
 4319 0ea2 1A       		.uleb128 0x1a
 4320 0ea3 9F0A0000 		.4byte	.LASF164
 4321 0ea7 01       		.byte	0x1
 4322 0ea8 2902     		.2byte	0x229
 4323 0eaa 00000000 		.4byte	.LFB66
 4324 0eae 1A000000 		.4byte	.LFE66-.LFB66
ARM GAS  C:\Users\AFDHAL~1\AppData\Local\Temp\ccielSKc.s 			page 99


 4325 0eb2 01       		.uleb128 0x1
 4326 0eb3 9C       		.byte	0x9c
 4327 0eb4 EF0E0000 		.4byte	0xeef
 4328 0eb8 1B       		.uleb128 0x1b
 4329 0eb9 3C0E0000 		.4byte	.LASF150
 4330 0ebd 01       		.byte	0x1
 4331 0ebe 2902     		.2byte	0x229
 4332 0ec0 440B0000 		.4byte	0xb44
 4333 0ec4 0B080000 		.4byte	.LLST29
 4334 0ec8 1B       		.uleb128 0x1b
 4335 0ec9 75090000 		.4byte	.LASF132
 4336 0ecd 01       		.byte	0x1
 4337 0ece 2902     		.2byte	0x229
 4338 0ed0 96000000 		.4byte	0x96
 4339 0ed4 42080000 		.4byte	.LLST30
 4340 0ed8 11       		.uleb128 0x11
 4341 0ed9 14000000 		.4byte	.LVL147
 4342 0edd 73170000 		.4byte	0x1773
 4343 0ee1 12       		.uleb128 0x12
 4344 0ee2 01       		.uleb128 0x1
 4345 0ee3 50       		.byte	0x50
 4346 0ee4 01       		.uleb128 0x1
 4347 0ee5 40       		.byte	0x40
 4348 0ee6 12       		.uleb128 0x12
 4349 0ee7 01       		.uleb128 0x1
 4350 0ee8 51       		.byte	0x51
 4351 0ee9 03       		.uleb128 0x3
 4352 0eea F3       		.byte	0xf3
 4353 0eeb 01       		.uleb128 0x1
 4354 0eec 50       		.byte	0x50
 4355 0eed 00       		.byte	0
 4356 0eee 00       		.byte	0
 4357 0eef 1A       		.uleb128 0x1a
 4358 0ef0 CA050000 		.4byte	.LASF165
 4359 0ef4 01       		.byte	0x1
 4360 0ef5 3E02     		.2byte	0x23e
 4361 0ef7 00000000 		.4byte	.LFB67
 4362 0efb 12000000 		.4byte	.LFE67-.LFB67
 4363 0eff 01       		.uleb128 0x1
 4364 0f00 9C       		.byte	0x9c
 4365 0f01 2F0F0000 		.4byte	0xf2f
 4366 0f05 1B       		.uleb128 0x1b
 4367 0f06 7A050000 		.4byte	.LASF143
 4368 0f0a 01       		.byte	0x1
 4369 0f0b 3E02     		.2byte	0x23e
 4370 0f0d 2F0F0000 		.4byte	0xf2f
 4371 0f11 B3080000 		.4byte	.LLST31
 4372 0f15 1B       		.uleb128 0x1b
 4373 0f16 75090000 		.4byte	.LASF132
 4374 0f1a 01       		.byte	0x1
 4375 0f1b 3E02     		.2byte	0x23e
 4376 0f1d 76000000 		.4byte	0x76
 4377 0f21 D4080000 		.4byte	.LLST32
 4378 0f25 14       		.uleb128 0x14
 4379 0f26 10000000 		.4byte	.LVL151
 4380 0f2a EF160000 		.4byte	0x16ef
 4381 0f2e 00       		.byte	0
ARM GAS  C:\Users\AFDHAL~1\AppData\Local\Temp\ccielSKc.s 			page 100


 4382 0f2f 0D       		.uleb128 0xd
 4383 0f30 C5010000 		.4byte	0x1c5
 4384 0f34 1C       		.uleb128 0x1c
 4385 0f35 6A060000 		.4byte	.LASF167
 4386 0f39 01       		.byte	0x1
 4387 0f3a 4E02     		.2byte	0x24e
 4388 0f3c 76000000 		.4byte	0x76
 4389 0f40 00000000 		.4byte	.LFB68
 4390 0f44 08000000 		.4byte	.LFE68-.LFB68
 4391 0f48 01       		.uleb128 0x1
 4392 0f49 9C       		.byte	0x9c
 4393 0f4a 680F0000 		.4byte	0xf68
 4394 0f4e 1B       		.uleb128 0x1b
 4395 0f4f 7A050000 		.4byte	.LASF143
 4396 0f53 01       		.byte	0x1
 4397 0f54 4E02     		.2byte	0x24e
 4398 0f56 2F0F0000 		.4byte	0xf2f
 4399 0f5a 24090000 		.4byte	.LLST33
 4400 0f5e 14       		.uleb128 0x14
 4401 0f5f 06000000 		.4byte	.LVL153
 4402 0f63 5D170000 		.4byte	0x175d
 4403 0f67 00       		.byte	0
 4404 0f68 09       		.uleb128 0x9
 4405 0f69 D70B0000 		.4byte	.LASF168
 4406 0f6d 01       		.byte	0x1
 4407 0f6e E602     		.2byte	0x2e6
 4408 0f70 01       		.byte	0x1
 4409 0f71 1A       		.uleb128 0x1a
 4410 0f72 3F010000 		.4byte	.LASF169
 4411 0f76 01       		.byte	0x1
 4412 0f77 5902     		.2byte	0x259
 4413 0f79 00000000 		.4byte	.LFB69
 4414 0f7d 1A000000 		.4byte	.LFE69-.LFB69
 4415 0f81 01       		.uleb128 0x1
 4416 0f82 9C       		.byte	0x9c
 4417 0f83 DB0F0000 		.4byte	0xfdb
 4418 0f87 1F       		.uleb128 0x1f
 4419 0f88 680F0000 		.4byte	0xf68
 4420 0f8c 06000000 		.4byte	.LBB40
 4421 0f90 12000000 		.4byte	.LBE40-.LBB40
 4422 0f94 01       		.byte	0x1
 4423 0f95 5C02     		.2byte	0x25c
 4424 0f97 D10F0000 		.4byte	0xfd1
 4425 0f9b 13       		.uleb128 0x13
 4426 0f9c 0C000000 		.4byte	.LVL155
 4427 0fa0 05170000 		.4byte	0x1705
 4428 0fa4 AE0F0000 		.4byte	0xfae
 4429 0fa8 12       		.uleb128 0x12
 4430 0fa9 01       		.uleb128 0x1
 4431 0faa 50       		.byte	0x50
 4432 0fab 01       		.uleb128 0x1
 4433 0fac 31       		.byte	0x31
 4434 0fad 00       		.byte	0
 4435 0fae 13       		.uleb128 0x13
 4436 0faf 12000000 		.4byte	.LVL156
 4437 0fb3 3C170000 		.4byte	0x173c
 4438 0fb7 C10F0000 		.4byte	0xfc1
ARM GAS  C:\Users\AFDHAL~1\AppData\Local\Temp\ccielSKc.s 			page 101


 4439 0fbb 12       		.uleb128 0x12
 4440 0fbc 01       		.uleb128 0x1
 4441 0fbd 50       		.byte	0x50
 4442 0fbe 01       		.uleb128 0x1
 4443 0fbf 3F       		.byte	0x3f
 4444 0fc0 00       		.byte	0
 4445 0fc1 11       		.uleb128 0x11
 4446 0fc2 18000000 		.4byte	.LVL157
 4447 0fc6 05170000 		.4byte	0x1705
 4448 0fca 12       		.uleb128 0x12
 4449 0fcb 01       		.uleb128 0x1
 4450 0fcc 50       		.byte	0x50
 4451 0fcd 01       		.uleb128 0x1
 4452 0fce 30       		.byte	0x30
 4453 0fcf 00       		.byte	0
 4454 0fd0 00       		.byte	0
 4455 0fd1 14       		.uleb128 0x14
 4456 0fd2 06000000 		.4byte	.LVL154
 4457 0fd6 7E170000 		.4byte	0x177e
 4458 0fda 00       		.byte	0
 4459 0fdb 1A       		.uleb128 0x1a
 4460 0fdc 80000000 		.4byte	.LASF170
 4461 0fe0 01       		.byte	0x1
 4462 0fe1 6402     		.2byte	0x264
 4463 0fe3 00000000 		.4byte	.LFB70
 4464 0fe7 26000000 		.4byte	.LFE70-.LFB70
 4465 0feb 01       		.uleb128 0x1
 4466 0fec 9C       		.byte	0x9c
 4467 0fed 60100000 		.4byte	0x1060
 4468 0ff1 1B       		.uleb128 0x1b
 4469 0ff2 7A050000 		.4byte	.LASF143
 4470 0ff6 01       		.byte	0x1
 4471 0ff7 6402     		.2byte	0x264
 4472 0ff9 B4090000 		.4byte	0x9b4
 4473 0ffd 45090000 		.4byte	.LLST34
 4474 1001 13       		.uleb128 0x13
 4475 1002 0C000000 		.4byte	.LVL160
 4476 1006 47170000 		.4byte	0x1747
 4477 100a 1A100000 		.4byte	0x101a
 4478 100e 12       		.uleb128 0x12
 4479 100f 01       		.uleb128 0x1
 4480 1010 50       		.byte	0x50
 4481 1011 01       		.uleb128 0x1
 4482 1012 31       		.byte	0x31
 4483 1013 12       		.uleb128 0x12
 4484 1014 01       		.uleb128 0x1
 4485 1015 51       		.byte	0x51
 4486 1016 02       		.uleb128 0x2
 4487 1017 74       		.byte	0x74
 4488 1018 00       		.sleb128 0
 4489 1019 00       		.byte	0
 4490 101a 13       		.uleb128 0x13
 4491 101b 14000000 		.4byte	.LVL161
 4492 101f 47170000 		.4byte	0x1747
 4493 1023 32100000 		.4byte	0x1032
 4494 1027 12       		.uleb128 0x12
 4495 1028 01       		.uleb128 0x1
ARM GAS  C:\Users\AFDHAL~1\AppData\Local\Temp\ccielSKc.s 			page 102


 4496 1029 50       		.byte	0x50
 4497 102a 01       		.uleb128 0x1
 4498 102b 4D       		.byte	0x4d
 4499 102c 12       		.uleb128 0x12
 4500 102d 01       		.uleb128 0x1
 4501 102e 51       		.byte	0x51
 4502 102f 01       		.uleb128 0x1
 4503 1030 31       		.byte	0x31
 4504 1031 00       		.byte	0
 4505 1032 13       		.uleb128 0x13
 4506 1033 1C000000 		.4byte	.LVL162
 4507 1037 47170000 		.4byte	0x1747
 4508 103b 4A100000 		.4byte	0x104a
 4509 103f 12       		.uleb128 0x12
 4510 1040 01       		.uleb128 0x1
 4511 1041 50       		.byte	0x50
 4512 1042 01       		.uleb128 0x1
 4513 1043 4D       		.byte	0x4d
 4514 1044 12       		.uleb128 0x12
 4515 1045 01       		.uleb128 0x1
 4516 1046 51       		.byte	0x51
 4517 1047 01       		.uleb128 0x1
 4518 1048 32       		.byte	0x32
 4519 1049 00       		.byte	0
 4520 104a 11       		.uleb128 0x11
 4521 104b 24000000 		.4byte	.LVL163
 4522 104f 47170000 		.4byte	0x1747
 4523 1053 12       		.uleb128 0x12
 4524 1054 01       		.uleb128 0x1
 4525 1055 50       		.byte	0x50
 4526 1056 01       		.uleb128 0x1
 4527 1057 4C       		.byte	0x4c
 4528 1058 12       		.uleb128 0x12
 4529 1059 01       		.uleb128 0x1
 4530 105a 51       		.byte	0x51
 4531 105b 02       		.uleb128 0x2
 4532 105c 74       		.byte	0x74
 4533 105d 00       		.sleb128 0
 4534 105e 00       		.byte	0
 4535 105f 00       		.byte	0
 4536 1060 1A       		.uleb128 0x1a
 4537 1061 AB100000 		.4byte	.LASF171
 4538 1065 01       		.byte	0x1
 4539 1066 7102     		.2byte	0x271
 4540 1068 00000000 		.4byte	.LFB71
 4541 106c 26000000 		.4byte	.LFE71-.LFB71
 4542 1070 01       		.uleb128 0x1
 4543 1071 9C       		.byte	0x9c
 4544 1072 E5100000 		.4byte	0x10e5
 4545 1076 1B       		.uleb128 0x1b
 4546 1077 7A050000 		.4byte	.LASF143
 4547 107b 01       		.byte	0x1
 4548 107c 7102     		.2byte	0x271
 4549 107e B4090000 		.4byte	0x9b4
 4550 1082 66090000 		.4byte	.LLST35
 4551 1086 13       		.uleb128 0x13
 4552 1087 0C000000 		.4byte	.LVL166
ARM GAS  C:\Users\AFDHAL~1\AppData\Local\Temp\ccielSKc.s 			page 103


 4553 108b 52170000 		.4byte	0x1752
 4554 108f 9F100000 		.4byte	0x109f
 4555 1093 12       		.uleb128 0x12
 4556 1094 01       		.uleb128 0x1
 4557 1095 50       		.byte	0x50
 4558 1096 01       		.uleb128 0x1
 4559 1097 31       		.byte	0x31
 4560 1098 12       		.uleb128 0x12
 4561 1099 01       		.uleb128 0x1
 4562 109a 51       		.byte	0x51
 4563 109b 02       		.uleb128 0x2
 4564 109c 74       		.byte	0x74
 4565 109d 00       		.sleb128 0
 4566 109e 00       		.byte	0
 4567 109f 13       		.uleb128 0x13
 4568 10a0 14000000 		.4byte	.LVL167
 4569 10a4 52170000 		.4byte	0x1752
 4570 10a8 B7100000 		.4byte	0x10b7
 4571 10ac 12       		.uleb128 0x12
 4572 10ad 01       		.uleb128 0x1
 4573 10ae 50       		.byte	0x50
 4574 10af 01       		.uleb128 0x1
 4575 10b0 4D       		.byte	0x4d
 4576 10b1 12       		.uleb128 0x12
 4577 10b2 01       		.uleb128 0x1
 4578 10b3 51       		.byte	0x51
 4579 10b4 01       		.uleb128 0x1
 4580 10b5 31       		.byte	0x31
 4581 10b6 00       		.byte	0
 4582 10b7 13       		.uleb128 0x13
 4583 10b8 1C000000 		.4byte	.LVL168
 4584 10bc 52170000 		.4byte	0x1752
 4585 10c0 CF100000 		.4byte	0x10cf
 4586 10c4 12       		.uleb128 0x12
 4587 10c5 01       		.uleb128 0x1
 4588 10c6 50       		.byte	0x50
 4589 10c7 01       		.uleb128 0x1
 4590 10c8 4D       		.byte	0x4d
 4591 10c9 12       		.uleb128 0x12
 4592 10ca 01       		.uleb128 0x1
 4593 10cb 51       		.byte	0x51
 4594 10cc 01       		.uleb128 0x1
 4595 10cd 32       		.byte	0x32
 4596 10ce 00       		.byte	0
 4597 10cf 11       		.uleb128 0x11
 4598 10d0 24000000 		.4byte	.LVL169
 4599 10d4 52170000 		.4byte	0x1752
 4600 10d8 12       		.uleb128 0x12
 4601 10d9 01       		.uleb128 0x1
 4602 10da 50       		.byte	0x50
 4603 10db 01       		.uleb128 0x1
 4604 10dc 4C       		.byte	0x4c
 4605 10dd 12       		.uleb128 0x12
 4606 10de 01       		.uleb128 0x1
 4607 10df 51       		.byte	0x51
 4608 10e0 02       		.uleb128 0x2
 4609 10e1 74       		.byte	0x74
ARM GAS  C:\Users\AFDHAL~1\AppData\Local\Temp\ccielSKc.s 			page 104


 4610 10e2 00       		.sleb128 0
 4611 10e3 00       		.byte	0
 4612 10e4 00       		.byte	0
 4613 10e5 1A       		.uleb128 0x1a
 4614 10e6 EB000000 		.4byte	.LASF172
 4615 10ea 01       		.byte	0x1
 4616 10eb 7C02     		.2byte	0x27c
 4617 10ed 00000000 		.4byte	.LFB72
 4618 10f1 0C000000 		.4byte	.LFE72-.LFB72
 4619 10f5 01       		.uleb128 0x1
 4620 10f6 9C       		.byte	0x9c
 4621 10f7 10110000 		.4byte	0x1110
 4622 10fb 11       		.uleb128 0x11
 4623 10fc 0A000000 		.4byte	.LVL170
 4624 1100 47170000 		.4byte	0x1747
 4625 1104 12       		.uleb128 0x12
 4626 1105 01       		.uleb128 0x1
 4627 1106 50       		.byte	0x50
 4628 1107 01       		.uleb128 0x1
 4629 1108 4D       		.byte	0x4d
 4630 1109 12       		.uleb128 0x12
 4631 110a 01       		.uleb128 0x1
 4632 110b 51       		.byte	0x51
 4633 110c 01       		.uleb128 0x1
 4634 110d 32       		.byte	0x32
 4635 110e 00       		.byte	0
 4636 110f 00       		.byte	0
 4637 1110 1A       		.uleb128 0x1a
 4638 1111 200D0000 		.4byte	.LASF173
 4639 1115 01       		.byte	0x1
 4640 1116 8402     		.2byte	0x284
 4641 1118 00000000 		.4byte	.LFB73
 4642 111c 0C000000 		.4byte	.LFE73-.LFB73
 4643 1120 01       		.uleb128 0x1
 4644 1121 9C       		.byte	0x9c
 4645 1122 3B110000 		.4byte	0x113b
 4646 1126 11       		.uleb128 0x11
 4647 1127 0A000000 		.4byte	.LVL171
 4648 112b 52170000 		.4byte	0x1752
 4649 112f 12       		.uleb128 0x12
 4650 1130 01       		.uleb128 0x1
 4651 1131 50       		.byte	0x50
 4652 1132 01       		.uleb128 0x1
 4653 1133 4D       		.byte	0x4d
 4654 1134 12       		.uleb128 0x12
 4655 1135 01       		.uleb128 0x1
 4656 1136 51       		.byte	0x51
 4657 1137 01       		.uleb128 0x1
 4658 1138 32       		.byte	0x32
 4659 1139 00       		.byte	0
 4660 113a 00       		.byte	0
 4661 113b 1A       		.uleb128 0x1a
 4662 113c F90C0000 		.4byte	.LASF174
 4663 1140 01       		.byte	0x1
 4664 1141 8C02     		.2byte	0x28c
 4665 1143 00000000 		.4byte	.LFB74
 4666 1147 0C000000 		.4byte	.LFE74-.LFB74
ARM GAS  C:\Users\AFDHAL~1\AppData\Local\Temp\ccielSKc.s 			page 105


 4667 114b 01       		.uleb128 0x1
 4668 114c 9C       		.byte	0x9c
 4669 114d 66110000 		.4byte	0x1166
 4670 1151 11       		.uleb128 0x11
 4671 1152 0A000000 		.4byte	.LVL172
 4672 1156 47170000 		.4byte	0x1747
 4673 115a 12       		.uleb128 0x12
 4674 115b 01       		.uleb128 0x1
 4675 115c 50       		.byte	0x50
 4676 115d 01       		.uleb128 0x1
 4677 115e 4D       		.byte	0x4d
 4678 115f 12       		.uleb128 0x12
 4679 1160 01       		.uleb128 0x1
 4680 1161 51       		.byte	0x51
 4681 1162 01       		.uleb128 0x1
 4682 1163 31       		.byte	0x31
 4683 1164 00       		.byte	0
 4684 1165 00       		.byte	0
 4685 1166 1A       		.uleb128 0x1a
 4686 1167 A0080000 		.4byte	.LASF175
 4687 116b 01       		.byte	0x1
 4688 116c 9402     		.2byte	0x294
 4689 116e 00000000 		.4byte	.LFB75
 4690 1172 0C000000 		.4byte	.LFE75-.LFB75
 4691 1176 01       		.uleb128 0x1
 4692 1177 9C       		.byte	0x9c
 4693 1178 91110000 		.4byte	0x1191
 4694 117c 11       		.uleb128 0x11
 4695 117d 0A000000 		.4byte	.LVL173
 4696 1181 52170000 		.4byte	0x1752
 4697 1185 12       		.uleb128 0x12
 4698 1186 01       		.uleb128 0x1
 4699 1187 50       		.byte	0x50
 4700 1188 01       		.uleb128 0x1
 4701 1189 4D       		.byte	0x4d
 4702 118a 12       		.uleb128 0x12
 4703 118b 01       		.uleb128 0x1
 4704 118c 51       		.byte	0x51
 4705 118d 01       		.uleb128 0x1
 4706 118e 31       		.byte	0x31
 4707 118f 00       		.byte	0
 4708 1190 00       		.byte	0
 4709 1191 1A       		.uleb128 0x1a
 4710 1192 C9100000 		.4byte	.LASF176
 4711 1196 01       		.byte	0x1
 4712 1197 9C02     		.2byte	0x29c
 4713 1199 00000000 		.4byte	.LFB76
 4714 119d 0C000000 		.4byte	.LFE76-.LFB76
 4715 11a1 01       		.uleb128 0x1
 4716 11a2 9C       		.byte	0x9c
 4717 11a3 BC110000 		.4byte	0x11bc
 4718 11a7 11       		.uleb128 0x11
 4719 11a8 0A000000 		.4byte	.LVL174
 4720 11ac 47170000 		.4byte	0x1747
 4721 11b0 12       		.uleb128 0x12
 4722 11b1 01       		.uleb128 0x1
 4723 11b2 50       		.byte	0x50
ARM GAS  C:\Users\AFDHAL~1\AppData\Local\Temp\ccielSKc.s 			page 106


 4724 11b3 01       		.uleb128 0x1
 4725 11b4 4D       		.byte	0x4d
 4726 11b5 12       		.uleb128 0x12
 4727 11b6 01       		.uleb128 0x1
 4728 11b7 51       		.byte	0x51
 4729 11b8 01       		.uleb128 0x1
 4730 11b9 30       		.byte	0x30
 4731 11ba 00       		.byte	0
 4732 11bb 00       		.byte	0
 4733 11bc 1A       		.uleb128 0x1a
 4734 11bd 6E030000 		.4byte	.LASF177
 4735 11c1 01       		.byte	0x1
 4736 11c2 A402     		.2byte	0x2a4
 4737 11c4 00000000 		.4byte	.LFB77
 4738 11c8 0C000000 		.4byte	.LFE77-.LFB77
 4739 11cc 01       		.uleb128 0x1
 4740 11cd 9C       		.byte	0x9c
 4741 11ce E7110000 		.4byte	0x11e7
 4742 11d2 11       		.uleb128 0x11
 4743 11d3 0A000000 		.4byte	.LVL175
 4744 11d7 52170000 		.4byte	0x1752
 4745 11db 12       		.uleb128 0x12
 4746 11dc 01       		.uleb128 0x1
 4747 11dd 50       		.byte	0x50
 4748 11de 01       		.uleb128 0x1
 4749 11df 4D       		.byte	0x4d
 4750 11e0 12       		.uleb128 0x12
 4751 11e1 01       		.uleb128 0x1
 4752 11e2 51       		.byte	0x51
 4753 11e3 01       		.uleb128 0x1
 4754 11e4 30       		.byte	0x30
 4755 11e5 00       		.byte	0
 4756 11e6 00       		.byte	0
 4757 11e7 15       		.uleb128 0x15
 4758 11e8 64040000 		.4byte	0x464
 4759 11ec 00000000 		.4byte	.LFB78
 4760 11f0 0A000000 		.4byte	.LFE78-.LFB78
 4761 11f4 01       		.uleb128 0x1
 4762 11f5 9C       		.byte	0x9c
 4763 11f6 0A120000 		.4byte	0x120a
 4764 11fa 11       		.uleb128 0x11
 4765 11fb 08000000 		.4byte	.LVL176
 4766 11ff 05170000 		.4byte	0x1705
 4767 1203 12       		.uleb128 0x12
 4768 1204 01       		.uleb128 0x1
 4769 1205 50       		.byte	0x50
 4770 1206 01       		.uleb128 0x1
 4771 1207 31       		.byte	0x31
 4772 1208 00       		.byte	0
 4773 1209 00       		.byte	0
 4774 120a 15       		.uleb128 0x15
 4775 120b 6D040000 		.4byte	0x46d
 4776 120f 00000000 		.4byte	.LFB79
 4777 1213 0A000000 		.4byte	.LFE79-.LFB79
 4778 1217 01       		.uleb128 0x1
 4779 1218 9C       		.byte	0x9c
 4780 1219 2D120000 		.4byte	0x122d
ARM GAS  C:\Users\AFDHAL~1\AppData\Local\Temp\ccielSKc.s 			page 107


 4781 121d 11       		.uleb128 0x11
 4782 121e 08000000 		.4byte	.LVL177
 4783 1222 05170000 		.4byte	0x1705
 4784 1226 12       		.uleb128 0x12
 4785 1227 01       		.uleb128 0x1
 4786 1228 50       		.byte	0x50
 4787 1229 01       		.uleb128 0x1
 4788 122a 30       		.byte	0x30
 4789 122b 00       		.byte	0
 4790 122c 00       		.byte	0
 4791 122d 15       		.uleb128 0x15
 4792 122e 680F0000 		.4byte	0xf68
 4793 1232 00000000 		.4byte	.LFB80
 4794 1236 16000000 		.4byte	.LFE80-.LFB80
 4795 123a 01       		.uleb128 0x1
 4796 123b 9C       		.byte	0x9c
 4797 123c 76120000 		.4byte	0x1276
 4798 1240 13       		.uleb128 0x13
 4799 1241 08000000 		.4byte	.LVL178
 4800 1245 05170000 		.4byte	0x1705
 4801 1249 53120000 		.4byte	0x1253
 4802 124d 12       		.uleb128 0x12
 4803 124e 01       		.uleb128 0x1
 4804 124f 50       		.byte	0x50
 4805 1250 01       		.uleb128 0x1
 4806 1251 31       		.byte	0x31
 4807 1252 00       		.byte	0
 4808 1253 13       		.uleb128 0x13
 4809 1254 0E000000 		.4byte	.LVL179
 4810 1258 3C170000 		.4byte	0x173c
 4811 125c 66120000 		.4byte	0x1266
 4812 1260 12       		.uleb128 0x12
 4813 1261 01       		.uleb128 0x1
 4814 1262 50       		.byte	0x50
 4815 1263 01       		.uleb128 0x1
 4816 1264 3F       		.byte	0x3f
 4817 1265 00       		.byte	0
 4818 1266 11       		.uleb128 0x11
 4819 1267 14000000 		.4byte	.LVL180
 4820 126b 05170000 		.4byte	0x1705
 4821 126f 12       		.uleb128 0x12
 4822 1270 01       		.uleb128 0x1
 4823 1271 50       		.byte	0x50
 4824 1272 01       		.uleb128 0x1
 4825 1273 30       		.byte	0x30
 4826 1274 00       		.byte	0
 4827 1275 00       		.byte	0
 4828 1276 15       		.uleb128 0x15
 4829 1277 AF040000 		.4byte	0x4af
 4830 127b 00000000 		.4byte	.LFB81
 4831 127f 08000000 		.4byte	.LFE81-.LFB81
 4832 1283 01       		.uleb128 0x1
 4833 1284 9C       		.byte	0x9c
 4834 1285 93120000 		.4byte	0x1293
 4835 1289 14       		.uleb128 0x14
 4836 128a 06000000 		.4byte	.LVL181
 4837 128e 89170000 		.4byte	0x1789
ARM GAS  C:\Users\AFDHAL~1\AppData\Local\Temp\ccielSKc.s 			page 108


 4838 1292 00       		.byte	0
 4839 1293 1C       		.uleb128 0x1c
 4840 1294 E1020000 		.4byte	.LASF178
 4841 1298 01       		.byte	0x1
 4842 1299 0203     		.2byte	0x302
 4843 129b 76000000 		.4byte	0x76
 4844 129f 00000000 		.4byte	.LFB82
 4845 12a3 0E000000 		.4byte	.LFE82-.LFB82
 4846 12a7 01       		.uleb128 0x1
 4847 12a8 9C       		.byte	0x9c
 4848 12a9 CD120000 		.4byte	0x12cd
 4849 12ad 1D       		.uleb128 0x1d
 4850 12ae 5C040000 		.4byte	.LASF179
 4851 12b2 01       		.byte	0x1
 4852 12b3 0403     		.2byte	0x304
 4853 12b5 76000000 		.4byte	0x76
 4854 12b9 87090000 		.4byte	.LLST36
 4855 12bd 11       		.uleb128 0x11
 4856 12be 08000000 		.4byte	.LVL182
 4857 12c2 5D170000 		.4byte	0x175d
 4858 12c6 12       		.uleb128 0x12
 4859 12c7 01       		.uleb128 0x1
 4860 12c8 50       		.byte	0x50
 4861 12c9 01       		.uleb128 0x1
 4862 12ca 38       		.byte	0x38
 4863 12cb 00       		.byte	0
 4864 12cc 00       		.byte	0
 4865 12cd 1C       		.uleb128 0x1c
 4866 12ce E9080000 		.4byte	.LASF180
 4867 12d2 01       		.byte	0x1
 4868 12d3 0D03     		.2byte	0x30d
 4869 12d5 76000000 		.4byte	0x76
 4870 12d9 00000000 		.4byte	.LFB83
 4871 12dd 0E000000 		.4byte	.LFE83-.LFB83
 4872 12e1 01       		.uleb128 0x1
 4873 12e2 9C       		.byte	0x9c
 4874 12e3 07130000 		.4byte	0x1307
 4875 12e7 1D       		.uleb128 0x1d
 4876 12e8 340F0000 		.4byte	.LASF181
 4877 12ec 01       		.byte	0x1
 4878 12ed 0F03     		.2byte	0x30f
 4879 12ef 76000000 		.4byte	0x76
 4880 12f3 9A090000 		.4byte	.LLST37
 4881 12f7 11       		.uleb128 0x11
 4882 12f8 08000000 		.4byte	.LVL184
 4883 12fc 5D170000 		.4byte	0x175d
 4884 1300 12       		.uleb128 0x12
 4885 1301 01       		.uleb128 0x1
 4886 1302 50       		.byte	0x50
 4887 1303 01       		.uleb128 0x1
 4888 1304 38       		.byte	0x38
 4889 1305 00       		.byte	0
 4890 1306 00       		.byte	0
 4891 1307 15       		.uleb128 0x15
 4892 1308 7E040000 		.4byte	0x47e
 4893 130c 00000000 		.4byte	.LFB84
 4894 1310 14000000 		.4byte	.LFE84-.LFB84
ARM GAS  C:\Users\AFDHAL~1\AppData\Local\Temp\ccielSKc.s 			page 109


 4895 1314 01       		.uleb128 0x1
 4896 1315 9C       		.byte	0x9c
 4897 1316 36130000 		.4byte	0x1336
 4898 131a 20       		.uleb128 0x20
 4899 131b 8B040000 		.4byte	0x48b
 4900 131f B2090000 		.4byte	.LLST38
 4901 1323 20       		.uleb128 0x20
 4902 1324 97040000 		.4byte	0x497
 4903 1328 DE090000 		.4byte	.LLST39
 4904 132c 14       		.uleb128 0x14
 4905 132d 0E000000 		.4byte	.LVL189
 4906 1331 94170000 		.4byte	0x1794
 4907 1335 00       		.byte	0
 4908 1336 1A       		.uleb128 0x1a
 4909 1337 A6020000 		.4byte	.LASF182
 4910 133b 01       		.byte	0x1
 4911 133c 2D03     		.2byte	0x32d
 4912 133e 00000000 		.4byte	.LFB85
 4913 1342 26000000 		.4byte	.LFE85-.LFB85
 4914 1346 01       		.uleb128 0x1
 4915 1347 9C       		.byte	0x9c
 4916 1348 E3130000 		.4byte	0x13e3
 4917 134c 1B       		.uleb128 0x1b
 4918 134d FD070000 		.4byte	.LASF131
 4919 1351 01       		.byte	0x1
 4920 1352 2D03     		.2byte	0x32d
 4921 1354 A4040000 		.4byte	0x4a4
 4922 1358 730A0000 		.4byte	.LLST40
 4923 135c 1B       		.uleb128 0x1b
 4924 135d 75090000 		.4byte	.LASF132
 4925 1361 01       		.byte	0x1
 4926 1362 2D03     		.2byte	0x32d
 4927 1364 96000000 		.4byte	0x96
 4928 1368 9F0A0000 		.4byte	.LLST41
 4929 136c 21       		.uleb128 0x21
 4930 136d 7E040000 		.4byte	0x47e
 4931 1371 06000000 		.4byte	.LBB46
 4932 1375 18000000 		.4byte	.Ldebug_ranges0+0x18
 4933 1379 01       		.byte	0x1
 4934 137a 3703     		.2byte	0x337
 4935 137c 9C130000 		.4byte	0x139c
 4936 1380 20       		.uleb128 0x20
 4937 1381 97040000 		.4byte	0x497
 4938 1385 340B0000 		.4byte	.LLST42
 4939 1389 20       		.uleb128 0x20
 4940 138a 8B040000 		.4byte	0x48b
 4941 138e BE0B0000 		.4byte	.LLST43
 4942 1392 14       		.uleb128 0x14
 4943 1393 0E000000 		.4byte	.LVL195
 4944 1397 94170000 		.4byte	0x1794
 4945 139b 00       		.byte	0
 4946 139c 22       		.uleb128 0x22
 4947 139d 680F0000 		.4byte	0xf68
 4948 13a1 0E000000 		.4byte	.LBB49
 4949 13a5 12000000 		.4byte	.LBE49-.LBB49
 4950 13a9 01       		.byte	0x1
 4951 13aa 3803     		.2byte	0x338
ARM GAS  C:\Users\AFDHAL~1\AppData\Local\Temp\ccielSKc.s 			page 110


 4952 13ac 13       		.uleb128 0x13
 4953 13ad 14000000 		.4byte	.LVL196
 4954 13b1 05170000 		.4byte	0x1705
 4955 13b5 BF130000 		.4byte	0x13bf
 4956 13b9 12       		.uleb128 0x12
 4957 13ba 01       		.uleb128 0x1
 4958 13bb 50       		.byte	0x50
 4959 13bc 01       		.uleb128 0x1
 4960 13bd 31       		.byte	0x31
 4961 13be 00       		.byte	0
 4962 13bf 13       		.uleb128 0x13
 4963 13c0 1A000000 		.4byte	.LVL197
 4964 13c4 3C170000 		.4byte	0x173c
 4965 13c8 D2130000 		.4byte	0x13d2
 4966 13cc 12       		.uleb128 0x12
 4967 13cd 01       		.uleb128 0x1
 4968 13ce 50       		.byte	0x50
 4969 13cf 01       		.uleb128 0x1
 4970 13d0 3F       		.byte	0x3f
 4971 13d1 00       		.byte	0
 4972 13d2 11       		.uleb128 0x11
 4973 13d3 20000000 		.4byte	.LVL198
 4974 13d7 05170000 		.4byte	0x1705
 4975 13db 12       		.uleb128 0x12
 4976 13dc 01       		.uleb128 0x1
 4977 13dd 50       		.byte	0x50
 4978 13de 01       		.uleb128 0x1
 4979 13df 30       		.byte	0x30
 4980 13e0 00       		.byte	0
 4981 13e1 00       		.byte	0
 4982 13e2 00       		.byte	0
 4983 13e3 1C       		.uleb128 0x1c
 4984 13e4 44060000 		.4byte	.LASF183
 4985 13e8 01       		.byte	0x1
 4986 13e9 4003     		.2byte	0x340
 4987 13eb 18140000 		.4byte	0x1418
 4988 13ef 00000000 		.4byte	.LFB86
 4989 13f3 0C000000 		.4byte	.LFE86-.LFB86
 4990 13f7 01       		.uleb128 0x1
 4991 13f8 9C       		.byte	0x9c
 4992 13f9 18140000 		.4byte	0x1418
 4993 13fd 22       		.uleb128 0x22
 4994 13fe AF040000 		.4byte	0x4af
 4995 1402 02000000 		.4byte	.LBB52
 4996 1406 04000000 		.4byte	.LBE52-.LBB52
 4997 140a 01       		.byte	0x1
 4998 140b 4203     		.2byte	0x342
 4999 140d 14       		.uleb128 0x14
 5000 140e 06000000 		.4byte	.LVL201
 5001 1412 89170000 		.4byte	0x1789
 5002 1416 00       		.byte	0
 5003 1417 00       		.byte	0
 5004 1418 02       		.uleb128 0x2
 5005 1419 01       		.byte	0x1
 5006 141a 02       		.byte	0x2
 5007 141b 5E0A0000 		.4byte	.LASF184
 5008 141f 1A       		.uleb128 0x1a
ARM GAS  C:\Users\AFDHAL~1\AppData\Local\Temp\ccielSKc.s 			page 111


 5009 1420 EC0B0000 		.4byte	.LASF185
 5010 1424 01       		.byte	0x1
 5011 1425 4B03     		.2byte	0x34b
 5012 1427 00000000 		.4byte	.LFB87
 5013 142b 20000000 		.4byte	.LFE87-.LFB87
 5014 142f 01       		.uleb128 0x1
 5015 1430 9C       		.byte	0x9c
 5016 1431 92140000 		.4byte	0x1492
 5017 1435 1B       		.uleb128 0x1b
 5018 1436 FD070000 		.4byte	.LASF131
 5019 143a 01       		.byte	0x1
 5020 143b 4B03     		.2byte	0x34b
 5021 143d 440B0000 		.4byte	0xb44
 5022 1441 EA0B0000 		.4byte	.LLST44
 5023 1445 1B       		.uleb128 0x1b
 5024 1446 75090000 		.4byte	.LASF132
 5025 144a 01       		.byte	0x1
 5026 144b 4B03     		.2byte	0x34b
 5027 144d 92140000 		.4byte	0x1492
 5028 1451 160C0000 		.4byte	.LLST45
 5029 1455 13       		.uleb128 0x13
 5030 1456 10000000 		.4byte	.LVL204
 5031 145a 05170000 		.4byte	0x1705
 5032 145e 68140000 		.4byte	0x1468
 5033 1462 12       		.uleb128 0x12
 5034 1463 01       		.uleb128 0x1
 5035 1464 50       		.byte	0x50
 5036 1465 01       		.uleb128 0x1
 5037 1466 30       		.byte	0x30
 5038 1467 00       		.byte	0
 5039 1468 13       		.uleb128 0x13
 5040 1469 18000000 		.4byte	.LVL205
 5041 146d 9F170000 		.4byte	0x179f
 5042 1471 82140000 		.4byte	0x1482
 5043 1475 12       		.uleb128 0x12
 5044 1476 01       		.uleb128 0x1
 5045 1477 50       		.byte	0x50
 5046 1478 02       		.uleb128 0x2
 5047 1479 74       		.byte	0x74
 5048 147a 00       		.sleb128 0
 5049 147b 12       		.uleb128 0x12
 5050 147c 01       		.uleb128 0x1
 5051 147d 51       		.byte	0x51
 5052 147e 02       		.uleb128 0x2
 5053 147f 75       		.byte	0x75
 5054 1480 00       		.sleb128 0
 5055 1481 00       		.byte	0
 5056 1482 11       		.uleb128 0x11
 5057 1483 1E000000 		.4byte	.LVL206
 5058 1487 05170000 		.4byte	0x1705
 5059 148b 12       		.uleb128 0x12
 5060 148c 01       		.uleb128 0x1
 5061 148d 50       		.byte	0x50
 5062 148e 01       		.uleb128 0x1
 5063 148f 31       		.byte	0x31
 5064 1490 00       		.byte	0
 5065 1491 00       		.byte	0
ARM GAS  C:\Users\AFDHAL~1\AppData\Local\Temp\ccielSKc.s 			page 112


 5066 1492 0D       		.uleb128 0xd
 5067 1493 96000000 		.4byte	0x96
 5068 1497 1A       		.uleb128 0x1a
 5069 1498 DC0F0000 		.4byte	.LASF186
 5070 149c 01       		.byte	0x1
 5071 149d 6103     		.2byte	0x361
 5072 149f 00000000 		.4byte	.LFB88
 5073 14a3 22000000 		.4byte	.LFE88-.LFB88
 5074 14a7 01       		.uleb128 0x1
 5075 14a8 9C       		.byte	0x9c
 5076 14a9 30150000 		.4byte	0x1530
 5077 14ad 1B       		.uleb128 0x1b
 5078 14ae FD070000 		.4byte	.LASF131
 5079 14b2 01       		.byte	0x1
 5080 14b3 6103     		.2byte	0x361
 5081 14b5 A4040000 		.4byte	0x4a4
 5082 14b9 420C0000 		.4byte	.LLST46
 5083 14bd 1B       		.uleb128 0x1b
 5084 14be 75090000 		.4byte	.LASF132
 5085 14c2 01       		.byte	0x1
 5086 14c3 6103     		.2byte	0x361
 5087 14c5 96000000 		.4byte	0x96
 5088 14c9 630C0000 		.4byte	.LLST47
 5089 14cd 1F       		.uleb128 0x1f
 5090 14ce 680F0000 		.4byte	0xf68
 5091 14d2 0E000000 		.4byte	.LBB56
 5092 14d6 12000000 		.4byte	.LBE56-.LBB56
 5093 14da 01       		.byte	0x1
 5094 14db 6C03     		.2byte	0x36c
 5095 14dd 17150000 		.4byte	0x1517
 5096 14e1 13       		.uleb128 0x13
 5097 14e2 14000000 		.4byte	.LVL211
 5098 14e6 05170000 		.4byte	0x1705
 5099 14ea F4140000 		.4byte	0x14f4
 5100 14ee 12       		.uleb128 0x12
 5101 14ef 01       		.uleb128 0x1
 5102 14f0 50       		.byte	0x50
 5103 14f1 01       		.uleb128 0x1
 5104 14f2 31       		.byte	0x31
 5105 14f3 00       		.byte	0
 5106 14f4 13       		.uleb128 0x13
 5107 14f5 1A000000 		.4byte	.LVL212
 5108 14f9 3C170000 		.4byte	0x173c
 5109 14fd 07150000 		.4byte	0x1507
 5110 1501 12       		.uleb128 0x12
 5111 1502 01       		.uleb128 0x1
 5112 1503 50       		.byte	0x50
 5113 1504 01       		.uleb128 0x1
 5114 1505 3F       		.byte	0x3f
 5115 1506 00       		.byte	0
 5116 1507 11       		.uleb128 0x11
 5117 1508 20000000 		.4byte	.LVL213
 5118 150c 05170000 		.4byte	0x1705
 5119 1510 12       		.uleb128 0x12
 5120 1511 01       		.uleb128 0x1
 5121 1512 50       		.byte	0x50
 5122 1513 01       		.uleb128 0x1
ARM GAS  C:\Users\AFDHAL~1\AppData\Local\Temp\ccielSKc.s 			page 113


 5123 1514 30       		.byte	0x30
 5124 1515 00       		.byte	0
 5125 1516 00       		.byte	0
 5126 1517 11       		.uleb128 0x11
 5127 1518 0E000000 		.4byte	.LVL210
 5128 151c AA170000 		.4byte	0x17aa
 5129 1520 12       		.uleb128 0x12
 5130 1521 01       		.uleb128 0x1
 5131 1522 50       		.byte	0x50
 5132 1523 03       		.uleb128 0x3
 5133 1524 F3       		.byte	0xf3
 5134 1525 01       		.uleb128 0x1
 5135 1526 50       		.byte	0x50
 5136 1527 12       		.uleb128 0x12
 5137 1528 01       		.uleb128 0x1
 5138 1529 51       		.byte	0x51
 5139 152a 03       		.uleb128 0x3
 5140 152b F3       		.byte	0xf3
 5141 152c 01       		.uleb128 0x1
 5142 152d 51       		.byte	0x51
 5143 152e 00       		.byte	0
 5144 152f 00       		.byte	0
 5145 1530 1A       		.uleb128 0x1a
 5146 1531 300A0000 		.4byte	.LASF187
 5147 1535 01       		.byte	0x1
 5148 1536 7603     		.2byte	0x376
 5149 1538 00000000 		.4byte	.LFB89
 5150 153c 14000000 		.4byte	.LFE89-.LFB89
 5151 1540 01       		.uleb128 0x1
 5152 1541 9C       		.byte	0x9c
 5153 1542 80150000 		.4byte	0x1580
 5154 1546 1B       		.uleb128 0x1b
 5155 1547 7A050000 		.4byte	.LASF143
 5156 154b 01       		.byte	0x1
 5157 154c 7603     		.2byte	0x376
 5158 154e B4090000 		.4byte	0x9b4
 5159 1552 840C0000 		.4byte	.LLST48
 5160 1556 1B       		.uleb128 0x1b
 5161 1557 FD070000 		.4byte	.LASF131
 5162 155b 01       		.byte	0x1
 5163 155c 7603     		.2byte	0x376
 5164 155e A4040000 		.4byte	0x4a4
 5165 1562 B00C0000 		.4byte	.LLST49
 5166 1566 1B       		.uleb128 0x1b
 5167 1567 75090000 		.4byte	.LASF132
 5168 156b 01       		.byte	0x1
 5169 156c 7703     		.2byte	0x377
 5170 156e 96000000 		.4byte	0x96
 5171 1572 DC0C0000 		.4byte	.LLST50
 5172 1576 14       		.uleb128 0x14
 5173 1577 0E000000 		.4byte	.LVL217
 5174 157b B5170000 		.4byte	0x17b5
 5175 157f 00       		.byte	0
 5176 1580 1C       		.uleb128 0x1c
 5177 1581 0D060000 		.4byte	.LASF188
 5178 1585 01       		.byte	0x1
 5179 1586 8903     		.2byte	0x389
ARM GAS  C:\Users\AFDHAL~1\AppData\Local\Temp\ccielSKc.s 			page 114


 5180 1588 76000000 		.4byte	0x76
 5181 158c 00000000 		.4byte	.LFB90
 5182 1590 0E000000 		.4byte	.LFE90-.LFB90
 5183 1594 01       		.uleb128 0x1
 5184 1595 9C       		.byte	0x9c
 5185 1596 BA150000 		.4byte	0x15ba
 5186 159a 1D       		.uleb128 0x1d
 5187 159b 7A050000 		.4byte	.LASF143
 5188 159f 01       		.byte	0x1
 5189 15a0 8B03     		.2byte	0x38b
 5190 15a2 76000000 		.4byte	0x76
 5191 15a6 710D0000 		.4byte	.LLST51
 5192 15aa 11       		.uleb128 0x11
 5193 15ab 08000000 		.4byte	.LVL220
 5194 15af 5D170000 		.4byte	0x175d
 5195 15b3 12       		.uleb128 0x12
 5196 15b4 01       		.uleb128 0x1
 5197 15b5 50       		.byte	0x50
 5198 15b6 01       		.uleb128 0x1
 5199 15b7 37       		.byte	0x37
 5200 15b8 00       		.byte	0
 5201 15b9 00       		.byte	0
 5202 15ba 1C       		.uleb128 0x1c
 5203 15bb 8D0B0000 		.4byte	.LASF189
 5204 15bf 01       		.byte	0x1
 5205 15c0 9403     		.2byte	0x394
 5206 15c2 76000000 		.4byte	0x76
 5207 15c6 00000000 		.4byte	.LFB91
 5208 15ca 0C000000 		.4byte	.LFE91-.LFB91
 5209 15ce 01       		.uleb128 0x1
 5210 15cf 9C       		.byte	0x9c
 5211 15d0 E9150000 		.4byte	0x15e9
 5212 15d4 11       		.uleb128 0x11
 5213 15d5 0A000000 		.4byte	.LVL222
 5214 15d9 C0170000 		.4byte	0x17c0
 5215 15dd 12       		.uleb128 0x12
 5216 15de 01       		.uleb128 0x1
 5217 15df 50       		.byte	0x50
 5218 15e0 01       		.uleb128 0x1
 5219 15e1 39       		.byte	0x39
 5220 15e2 12       		.uleb128 0x12
 5221 15e3 01       		.uleb128 0x1
 5222 15e4 51       		.byte	0x51
 5223 15e5 01       		.uleb128 0x1
 5224 15e6 30       		.byte	0x30
 5225 15e7 00       		.byte	0
 5226 15e8 00       		.byte	0
 5227 15e9 1C       		.uleb128 0x1c
 5228 15ea 530F0000 		.4byte	.LASF190
 5229 15ee 01       		.byte	0x1
 5230 15ef 9D03     		.2byte	0x39d
 5231 15f1 18140000 		.4byte	0x1418
 5232 15f5 00000000 		.4byte	.LFB92
 5233 15f9 0C000000 		.4byte	.LFE92-.LFB92
 5234 15fd 01       		.uleb128 0x1
 5235 15fe 9C       		.byte	0x9c
 5236 15ff 18160000 		.4byte	0x1618
ARM GAS  C:\Users\AFDHAL~1\AppData\Local\Temp\ccielSKc.s 			page 115


 5237 1603 11       		.uleb128 0x11
 5238 1604 0A000000 		.4byte	.LVL223
 5239 1608 C0170000 		.4byte	0x17c0
 5240 160c 12       		.uleb128 0x12
 5241 160d 01       		.uleb128 0x1
 5242 160e 50       		.byte	0x50
 5243 160f 01       		.uleb128 0x1
 5244 1610 47       		.byte	0x47
 5245 1611 12       		.uleb128 0x12
 5246 1612 01       		.uleb128 0x1
 5247 1613 51       		.byte	0x51
 5248 1614 01       		.uleb128 0x1
 5249 1615 35       		.byte	0x35
 5250 1616 00       		.byte	0
 5251 1617 00       		.byte	0
 5252 1618 1C       		.uleb128 0x1c
 5253 1619 B70E0000 		.4byte	.LASF191
 5254 161d 01       		.byte	0x1
 5255 161e A503     		.2byte	0x3a5
 5256 1620 18140000 		.4byte	0x1418
 5257 1624 00000000 		.4byte	.LFB93
 5258 1628 0C000000 		.4byte	.LFE93-.LFB93
 5259 162c 01       		.uleb128 0x1
 5260 162d 9C       		.byte	0x9c
 5261 162e 47160000 		.4byte	0x1647
 5262 1632 11       		.uleb128 0x11
 5263 1633 0A000000 		.4byte	.LVL224
 5264 1637 C0170000 		.4byte	0x17c0
 5265 163b 12       		.uleb128 0x12
 5266 163c 01       		.uleb128 0x1
 5267 163d 50       		.byte	0x50
 5268 163e 01       		.uleb128 0x1
 5269 163f 47       		.byte	0x47
 5270 1640 12       		.uleb128 0x12
 5271 1641 01       		.uleb128 0x1
 5272 1642 51       		.byte	0x51
 5273 1643 01       		.uleb128 0x1
 5274 1644 30       		.byte	0x30
 5275 1645 00       		.byte	0
 5276 1646 00       		.byte	0
 5277 1647 15       		.uleb128 0x15
 5278 1648 BC040000 		.4byte	0x4bc
 5279 164c 00000000 		.4byte	.LFB94
 5280 1650 0C000000 		.4byte	.LFE94-.LFB94
 5281 1654 01       		.uleb128 0x1
 5282 1655 9C       		.byte	0x9c
 5283 1656 70160000 		.4byte	0x1670
 5284 165a 11       		.uleb128 0x11
 5285 165b 0A000000 		.4byte	.LVL225
 5286 165f EF160000 		.4byte	0x16ef
 5287 1663 12       		.uleb128 0x12
 5288 1664 01       		.uleb128 0x1
 5289 1665 50       		.byte	0x50
 5290 1666 01       		.uleb128 0x1
 5291 1667 37       		.byte	0x37
 5292 1668 12       		.uleb128 0x12
 5293 1669 01       		.uleb128 0x1
ARM GAS  C:\Users\AFDHAL~1\AppData\Local\Temp\ccielSKc.s 			page 116


 5294 166a 51       		.byte	0x51
 5295 166b 02       		.uleb128 0x2
 5296 166c 08       		.byte	0x8
 5297 166d 70       		.byte	0x70
 5298 166e 00       		.byte	0
 5299 166f 00       		.byte	0
 5300 1670 1A       		.uleb128 0x1a
 5301 1671 F8050000 		.4byte	.LASF192
 5302 1675 01       		.byte	0x1
 5303 1676 BA03     		.2byte	0x3ba
 5304 1678 00000000 		.4byte	.LFB95
 5305 167c 10000000 		.4byte	.LFE95-.LFB95
 5306 1680 01       		.uleb128 0x1
 5307 1681 9C       		.byte	0x9c
 5308 1682 A6160000 		.4byte	0x16a6
 5309 1686 1B       		.uleb128 0x1b
 5310 1687 44000000 		.4byte	.LASF193
 5311 168b 01       		.byte	0x1
 5312 168c BA03     		.2byte	0x3ba
 5313 168e A6160000 		.4byte	0x16a6
 5314 1692 840D0000 		.4byte	.LLST52
 5315 1696 11       		.uleb128 0x11
 5316 1697 0E000000 		.4byte	.LVL228
 5317 169b EF160000 		.4byte	0x16ef
 5318 169f 12       		.uleb128 0x12
 5319 16a0 01       		.uleb128 0x1
 5320 16a1 50       		.byte	0x50
 5321 16a2 01       		.uleb128 0x1
 5322 16a3 37       		.byte	0x37
 5323 16a4 00       		.byte	0
 5324 16a5 00       		.byte	0
 5325 16a6 0D       		.uleb128 0xd
 5326 16a7 19020000 		.4byte	0x219
 5327 16ab 1C       		.uleb128 0x1c
 5328 16ac E60C0000 		.4byte	.LASF194
 5329 16b0 01       		.byte	0x1
 5330 16b1 C603     		.2byte	0x3c6
 5331 16b3 19020000 		.4byte	0x219
 5332 16b7 00000000 		.4byte	.LFB96
 5333 16bb 26000000 		.4byte	.LFE96-.LFB96
 5334 16bf 01       		.uleb128 0x1
 5335 16c0 9C       		.byte	0x9c
 5336 16c1 EF160000 		.4byte	0x16ef
 5337 16c5 1E       		.uleb128 0x1e
 5338 16c6 69727100 		.ascii	"irq\000"
 5339 16ca 01       		.byte	0x1
 5340 16cb C803     		.2byte	0x3c8
 5341 16cd 19020000 		.4byte	0x219
 5342 16d1 A50D0000 		.4byte	.LLST53
 5343 16d5 1E       		.uleb128 0x1e
 5344 16d6 73747300 		.ascii	"sts\000"
 5345 16da 01       		.byte	0x1
 5346 16db CB03     		.2byte	0x3cb
 5347 16dd 76000000 		.4byte	0x76
 5348 16e1 E90D0000 		.4byte	.LLST54
 5349 16e5 14       		.uleb128 0x14
 5350 16e6 06000000 		.4byte	.LVL230
ARM GAS  C:\Users\AFDHAL~1\AppData\Local\Temp\ccielSKc.s 			page 117


 5351 16ea 89170000 		.4byte	0x1789
 5352 16ee 00       		.byte	0
 5353 16ef 23       		.uleb128 0x23
 5354 16f0 81060000 		.4byte	.LASF195
 5355 16f4 81060000 		.4byte	.LASF195
 5356 16f8 06       		.byte	0x6
 5357 16f9 23       		.byte	0x23
 5358 16fa 23       		.uleb128 0x23
 5359 16fb 4D000000 		.4byte	.LASF196
 5360 16ff 4D000000 		.4byte	.LASF196
 5361 1703 07       		.byte	0x7
 5362 1704 D9       		.byte	0xd9
 5363 1705 23       		.uleb128 0x23
 5364 1706 7A090000 		.4byte	.LASF197
 5365 170a 7A090000 		.4byte	.LASF197
 5366 170e 08       		.byte	0x8
 5367 170f 33       		.byte	0x33
 5368 1710 23       		.uleb128 0x23
 5369 1711 E6040000 		.4byte	.LASF198
 5370 1715 E6040000 		.4byte	.LASF198
 5371 1719 09       		.byte	0x9
 5372 171a 33       		.byte	0x33
 5373 171b 23       		.uleb128 0x23
 5374 171c 82040000 		.4byte	.LASF199
 5375 1720 82040000 		.4byte	.LASF199
 5376 1724 0A       		.byte	0xa
 5377 1725 72       		.byte	0x72
 5378 1726 23       		.uleb128 0x23
 5379 1727 87070000 		.4byte	.LASF200
 5380 172b 87070000 		.4byte	.LASF200
 5381 172f 0B       		.byte	0xb
 5382 1730 2C       		.byte	0x2c
 5383 1731 23       		.uleb128 0x23
 5384 1732 BF080000 		.4byte	.LASF201
 5385 1736 BF080000 		.4byte	.LASF201
 5386 173a 0B       		.byte	0xb
 5387 173b 2D       		.byte	0x2d
 5388 173c 23       		.uleb128 0x23
 5389 173d 62040000 		.4byte	.LASF202
 5390 1741 62040000 		.4byte	.LASF202
 5391 1745 07       		.byte	0x7
 5392 1746 DA       		.byte	0xda
 5393 1747 23       		.uleb128 0x23
 5394 1748 94030000 		.4byte	.LASF203
 5395 174c 94030000 		.4byte	.LASF203
 5396 1750 06       		.byte	0x6
 5397 1751 28       		.byte	0x28
 5398 1752 23       		.uleb128 0x23
 5399 1753 DA070000 		.4byte	.LASF204
 5400 1757 DA070000 		.4byte	.LASF204
 5401 175b 06       		.byte	0x6
 5402 175c 27       		.byte	0x27
 5403 175d 23       		.uleb128 0x23
 5404 175e EE100000 		.4byte	.LASF205
 5405 1762 EE100000 		.4byte	.LASF205
 5406 1766 06       		.byte	0x6
 5407 1767 21       		.byte	0x21
ARM GAS  C:\Users\AFDHAL~1\AppData\Local\Temp\ccielSKc.s 			page 118


 5408 1768 23       		.uleb128 0x23
 5409 1769 FB060000 		.4byte	.LASF206
 5410 176d FB060000 		.4byte	.LASF206
 5411 1771 06       		.byte	0x6
 5412 1772 24       		.byte	0x24
 5413 1773 23       		.uleb128 0x23
 5414 1774 040F0000 		.4byte	.LASF207
 5415 1778 040F0000 		.4byte	.LASF207
 5416 177c 06       		.byte	0x6
 5417 177d 22       		.byte	0x22
 5418 177e 23       		.uleb128 0x23
 5419 177f 42030000 		.4byte	.LASF208
 5420 1783 42030000 		.4byte	.LASF208
 5421 1787 0B       		.byte	0xb
 5422 1788 29       		.byte	0x29
 5423 1789 23       		.uleb128 0x23
 5424 178a D2080000 		.4byte	.LASF209
 5425 178e D2080000 		.4byte	.LASF209
 5426 1792 0B       		.byte	0xb
 5427 1793 31       		.byte	0x31
 5428 1794 23       		.uleb128 0x23
 5429 1795 1A0B0000 		.4byte	.LASF210
 5430 1799 1A0B0000 		.4byte	.LASF210
 5431 179d 0B       		.byte	0xb
 5432 179e 2B       		.byte	0x2b
 5433 179f 23       		.uleb128 0x23
 5434 17a0 790A0000 		.4byte	.LASF211
 5435 17a4 790A0000 		.4byte	.LASF211
 5436 17a8 0B       		.byte	0xb
 5437 17a9 2A       		.byte	0x2a
 5438 17aa 23       		.uleb128 0x23
 5439 17ab C8020000 		.4byte	.LASF212
 5440 17af C8020000 		.4byte	.LASF212
 5441 17b3 0B       		.byte	0xb
 5442 17b4 30       		.byte	0x30
 5443 17b5 23       		.uleb128 0x23
 5444 17b6 6B070000 		.4byte	.LASF213
 5445 17ba 6B070000 		.4byte	.LASF213
 5446 17be 0B       		.byte	0xb
 5447 17bf 2F       		.byte	0x2f
 5448 17c0 23       		.uleb128 0x23
 5449 17c1 02080000 		.4byte	.LASF214
 5450 17c5 02080000 		.4byte	.LASF214
 5451 17c9 06       		.byte	0x6
 5452 17ca 25       		.byte	0x25
 5453 17cb 00       		.byte	0
 5454              		.section	.debug_abbrev,"",%progbits
 5455              	.Ldebug_abbrev0:
 5456 0000 01       		.uleb128 0x1
 5457 0001 11       		.uleb128 0x11
 5458 0002 01       		.byte	0x1
 5459 0003 25       		.uleb128 0x25
 5460 0004 0E       		.uleb128 0xe
 5461 0005 13       		.uleb128 0x13
 5462 0006 0B       		.uleb128 0xb
 5463 0007 03       		.uleb128 0x3
 5464 0008 0E       		.uleb128 0xe
ARM GAS  C:\Users\AFDHAL~1\AppData\Local\Temp\ccielSKc.s 			page 119


 5465 0009 1B       		.uleb128 0x1b
 5466 000a 0E       		.uleb128 0xe
 5467 000b 55       		.uleb128 0x55
 5468 000c 17       		.uleb128 0x17
 5469 000d 11       		.uleb128 0x11
 5470 000e 01       		.uleb128 0x1
 5471 000f 10       		.uleb128 0x10
 5472 0010 17       		.uleb128 0x17
 5473 0011 00       		.byte	0
 5474 0012 00       		.byte	0
 5475 0013 02       		.uleb128 0x2
 5476 0014 24       		.uleb128 0x24
 5477 0015 00       		.byte	0
 5478 0016 0B       		.uleb128 0xb
 5479 0017 0B       		.uleb128 0xb
 5480 0018 3E       		.uleb128 0x3e
 5481 0019 0B       		.uleb128 0xb
 5482 001a 03       		.uleb128 0x3
 5483 001b 0E       		.uleb128 0xe
 5484 001c 00       		.byte	0
 5485 001d 00       		.byte	0
 5486 001e 03       		.uleb128 0x3
 5487 001f 16       		.uleb128 0x16
 5488 0020 00       		.byte	0
 5489 0021 03       		.uleb128 0x3
 5490 0022 0E       		.uleb128 0xe
 5491 0023 3A       		.uleb128 0x3a
 5492 0024 0B       		.uleb128 0xb
 5493 0025 3B       		.uleb128 0x3b
 5494 0026 0B       		.uleb128 0xb
 5495 0027 49       		.uleb128 0x49
 5496 0028 13       		.uleb128 0x13
 5497 0029 00       		.byte	0
 5498 002a 00       		.byte	0
 5499 002b 04       		.uleb128 0x4
 5500 002c 24       		.uleb128 0x24
 5501 002d 00       		.byte	0
 5502 002e 0B       		.uleb128 0xb
 5503 002f 0B       		.uleb128 0xb
 5504 0030 3E       		.uleb128 0x3e
 5505 0031 0B       		.uleb128 0xb
 5506 0032 03       		.uleb128 0x3
 5507 0033 08       		.uleb128 0x8
 5508 0034 00       		.byte	0
 5509 0035 00       		.byte	0
 5510 0036 05       		.uleb128 0x5
 5511 0037 04       		.uleb128 0x4
 5512 0038 01       		.byte	0x1
 5513 0039 0B       		.uleb128 0xb
 5514 003a 0B       		.uleb128 0xb
 5515 003b 49       		.uleb128 0x49
 5516 003c 13       		.uleb128 0x13
 5517 003d 3A       		.uleb128 0x3a
 5518 003e 0B       		.uleb128 0xb
 5519 003f 3B       		.uleb128 0x3b
 5520 0040 0B       		.uleb128 0xb
 5521 0041 01       		.uleb128 0x1
ARM GAS  C:\Users\AFDHAL~1\AppData\Local\Temp\ccielSKc.s 			page 120


 5522 0042 13       		.uleb128 0x13
 5523 0043 00       		.byte	0
 5524 0044 00       		.byte	0
 5525 0045 06       		.uleb128 0x6
 5526 0046 28       		.uleb128 0x28
 5527 0047 00       		.byte	0
 5528 0048 03       		.uleb128 0x3
 5529 0049 0E       		.uleb128 0xe
 5530 004a 1C       		.uleb128 0x1c
 5531 004b 0B       		.uleb128 0xb
 5532 004c 00       		.byte	0
 5533 004d 00       		.byte	0
 5534 004e 07       		.uleb128 0x7
 5535 004f 04       		.uleb128 0x4
 5536 0050 01       		.byte	0x1
 5537 0051 0B       		.uleb128 0xb
 5538 0052 0B       		.uleb128 0xb
 5539 0053 49       		.uleb128 0x49
 5540 0054 13       		.uleb128 0x13
 5541 0055 3A       		.uleb128 0x3a
 5542 0056 0B       		.uleb128 0xb
 5543 0057 3B       		.uleb128 0x3b
 5544 0058 05       		.uleb128 0x5
 5545 0059 01       		.uleb128 0x1
 5546 005a 13       		.uleb128 0x13
 5547 005b 00       		.byte	0
 5548 005c 00       		.byte	0
 5549 005d 08       		.uleb128 0x8
 5550 005e 2E       		.uleb128 0x2e
 5551 005f 00       		.byte	0
 5552 0060 3F       		.uleb128 0x3f
 5553 0061 19       		.uleb128 0x19
 5554 0062 03       		.uleb128 0x3
 5555 0063 0E       		.uleb128 0xe
 5556 0064 3A       		.uleb128 0x3a
 5557 0065 0B       		.uleb128 0xb
 5558 0066 3B       		.uleb128 0x3b
 5559 0067 0B       		.uleb128 0xb
 5560 0068 27       		.uleb128 0x27
 5561 0069 19       		.uleb128 0x19
 5562 006a 20       		.uleb128 0x20
 5563 006b 0B       		.uleb128 0xb
 5564 006c 00       		.byte	0
 5565 006d 00       		.byte	0
 5566 006e 09       		.uleb128 0x9
 5567 006f 2E       		.uleb128 0x2e
 5568 0070 00       		.byte	0
 5569 0071 3F       		.uleb128 0x3f
 5570 0072 19       		.uleb128 0x19
 5571 0073 03       		.uleb128 0x3
 5572 0074 0E       		.uleb128 0xe
 5573 0075 3A       		.uleb128 0x3a
 5574 0076 0B       		.uleb128 0xb
 5575 0077 3B       		.uleb128 0x3b
 5576 0078 05       		.uleb128 0x5
 5577 0079 27       		.uleb128 0x27
 5578 007a 19       		.uleb128 0x19
ARM GAS  C:\Users\AFDHAL~1\AppData\Local\Temp\ccielSKc.s 			page 121


 5579 007b 20       		.uleb128 0x20
 5580 007c 0B       		.uleb128 0xb
 5581 007d 00       		.byte	0
 5582 007e 00       		.byte	0
 5583 007f 0A       		.uleb128 0xa
 5584 0080 2E       		.uleb128 0x2e
 5585 0081 01       		.byte	0x1
 5586 0082 3F       		.uleb128 0x3f
 5587 0083 19       		.uleb128 0x19
 5588 0084 03       		.uleb128 0x3
 5589 0085 0E       		.uleb128 0xe
 5590 0086 3A       		.uleb128 0x3a
 5591 0087 0B       		.uleb128 0xb
 5592 0088 3B       		.uleb128 0x3b
 5593 0089 05       		.uleb128 0x5
 5594 008a 27       		.uleb128 0x27
 5595 008b 19       		.uleb128 0x19
 5596 008c 20       		.uleb128 0x20
 5597 008d 0B       		.uleb128 0xb
 5598 008e 01       		.uleb128 0x1
 5599 008f 13       		.uleb128 0x13
 5600 0090 00       		.byte	0
 5601 0091 00       		.byte	0
 5602 0092 0B       		.uleb128 0xb
 5603 0093 05       		.uleb128 0x5
 5604 0094 00       		.byte	0
 5605 0095 03       		.uleb128 0x3
 5606 0096 0E       		.uleb128 0xe
 5607 0097 3A       		.uleb128 0x3a
 5608 0098 0B       		.uleb128 0xb
 5609 0099 3B       		.uleb128 0x3b
 5610 009a 05       		.uleb128 0x5
 5611 009b 49       		.uleb128 0x49
 5612 009c 13       		.uleb128 0x13
 5613 009d 00       		.byte	0
 5614 009e 00       		.byte	0
 5615 009f 0C       		.uleb128 0xc
 5616 00a0 0F       		.uleb128 0xf
 5617 00a1 00       		.byte	0
 5618 00a2 0B       		.uleb128 0xb
 5619 00a3 0B       		.uleb128 0xb
 5620 00a4 49       		.uleb128 0x49
 5621 00a5 13       		.uleb128 0x13
 5622 00a6 00       		.byte	0
 5623 00a7 00       		.byte	0
 5624 00a8 0D       		.uleb128 0xd
 5625 00a9 26       		.uleb128 0x26
 5626 00aa 00       		.byte	0
 5627 00ab 49       		.uleb128 0x49
 5628 00ac 13       		.uleb128 0x13
 5629 00ad 00       		.byte	0
 5630 00ae 00       		.byte	0
 5631 00af 0E       		.uleb128 0xe
 5632 00b0 2E       		.uleb128 0x2e
 5633 00b1 00       		.byte	0
 5634 00b2 3F       		.uleb128 0x3f
 5635 00b3 19       		.uleb128 0x19
ARM GAS  C:\Users\AFDHAL~1\AppData\Local\Temp\ccielSKc.s 			page 122


 5636 00b4 03       		.uleb128 0x3
 5637 00b5 0E       		.uleb128 0xe
 5638 00b6 3A       		.uleb128 0x3a
 5639 00b7 0B       		.uleb128 0xb
 5640 00b8 3B       		.uleb128 0x3b
 5641 00b9 05       		.uleb128 0x5
 5642 00ba 27       		.uleb128 0x27
 5643 00bb 19       		.uleb128 0x19
 5644 00bc 49       		.uleb128 0x49
 5645 00bd 13       		.uleb128 0x13
 5646 00be 20       		.uleb128 0x20
 5647 00bf 0B       		.uleb128 0xb
 5648 00c0 00       		.byte	0
 5649 00c1 00       		.byte	0
 5650 00c2 0F       		.uleb128 0xf
 5651 00c3 2E       		.uleb128 0x2e
 5652 00c4 01       		.byte	0x1
 5653 00c5 3F       		.uleb128 0x3f
 5654 00c6 19       		.uleb128 0x19
 5655 00c7 03       		.uleb128 0x3
 5656 00c8 0E       		.uleb128 0xe
 5657 00c9 3A       		.uleb128 0x3a
 5658 00ca 0B       		.uleb128 0xb
 5659 00cb 3B       		.uleb128 0x3b
 5660 00cc 0B       		.uleb128 0xb
 5661 00cd 27       		.uleb128 0x27
 5662 00ce 19       		.uleb128 0x19
 5663 00cf 11       		.uleb128 0x11
 5664 00d0 01       		.uleb128 0x1
 5665 00d1 12       		.uleb128 0x12
 5666 00d2 06       		.uleb128 0x6
 5667 00d3 40       		.uleb128 0x40
 5668 00d4 18       		.uleb128 0x18
 5669 00d5 9742     		.uleb128 0x2117
 5670 00d7 19       		.uleb128 0x19
 5671 00d8 01       		.uleb128 0x1
 5672 00d9 13       		.uleb128 0x13
 5673 00da 00       		.byte	0
 5674 00db 00       		.byte	0
 5675 00dc 10       		.uleb128 0x10
 5676 00dd 1D       		.uleb128 0x1d
 5677 00de 01       		.byte	0x1
 5678 00df 31       		.uleb128 0x31
 5679 00e0 13       		.uleb128 0x13
 5680 00e1 11       		.uleb128 0x11
 5681 00e2 01       		.uleb128 0x1
 5682 00e3 12       		.uleb128 0x12
 5683 00e4 06       		.uleb128 0x6
 5684 00e5 58       		.uleb128 0x58
 5685 00e6 0B       		.uleb128 0xb
 5686 00e7 59       		.uleb128 0x59
 5687 00e8 0B       		.uleb128 0xb
 5688 00e9 01       		.uleb128 0x1
 5689 00ea 13       		.uleb128 0x13
 5690 00eb 00       		.byte	0
 5691 00ec 00       		.byte	0
 5692 00ed 11       		.uleb128 0x11
ARM GAS  C:\Users\AFDHAL~1\AppData\Local\Temp\ccielSKc.s 			page 123


 5693 00ee 898201   		.uleb128 0x4109
 5694 00f1 01       		.byte	0x1
 5695 00f2 11       		.uleb128 0x11
 5696 00f3 01       		.uleb128 0x1
 5697 00f4 31       		.uleb128 0x31
 5698 00f5 13       		.uleb128 0x13
 5699 00f6 00       		.byte	0
 5700 00f7 00       		.byte	0
 5701 00f8 12       		.uleb128 0x12
 5702 00f9 8A8201   		.uleb128 0x410a
 5703 00fc 00       		.byte	0
 5704 00fd 02       		.uleb128 0x2
 5705 00fe 18       		.uleb128 0x18
 5706 00ff 9142     		.uleb128 0x2111
 5707 0101 18       		.uleb128 0x18
 5708 0102 00       		.byte	0
 5709 0103 00       		.byte	0
 5710 0104 13       		.uleb128 0x13
 5711 0105 898201   		.uleb128 0x4109
 5712 0108 01       		.byte	0x1
 5713 0109 11       		.uleb128 0x11
 5714 010a 01       		.uleb128 0x1
 5715 010b 31       		.uleb128 0x31
 5716 010c 13       		.uleb128 0x13
 5717 010d 01       		.uleb128 0x1
 5718 010e 13       		.uleb128 0x13
 5719 010f 00       		.byte	0
 5720 0110 00       		.byte	0
 5721 0111 14       		.uleb128 0x14
 5722 0112 898201   		.uleb128 0x4109
 5723 0115 00       		.byte	0
 5724 0116 11       		.uleb128 0x11
 5725 0117 01       		.uleb128 0x1
 5726 0118 31       		.uleb128 0x31
 5727 0119 13       		.uleb128 0x13
 5728 011a 00       		.byte	0
 5729 011b 00       		.byte	0
 5730 011c 15       		.uleb128 0x15
 5731 011d 2E       		.uleb128 0x2e
 5732 011e 01       		.byte	0x1
 5733 011f 31       		.uleb128 0x31
 5734 0120 13       		.uleb128 0x13
 5735 0121 11       		.uleb128 0x11
 5736 0122 01       		.uleb128 0x1
 5737 0123 12       		.uleb128 0x12
 5738 0124 06       		.uleb128 0x6
 5739 0125 40       		.uleb128 0x40
 5740 0126 18       		.uleb128 0x18
 5741 0127 9742     		.uleb128 0x2117
 5742 0129 19       		.uleb128 0x19
 5743 012a 01       		.uleb128 0x1
 5744 012b 13       		.uleb128 0x13
 5745 012c 00       		.byte	0
 5746 012d 00       		.byte	0
 5747 012e 16       		.uleb128 0x16
 5748 012f 2E       		.uleb128 0x2e
 5749 0130 00       		.byte	0
ARM GAS  C:\Users\AFDHAL~1\AppData\Local\Temp\ccielSKc.s 			page 124


 5750 0131 31       		.uleb128 0x31
 5751 0132 13       		.uleb128 0x13
 5752 0133 11       		.uleb128 0x11
 5753 0134 01       		.uleb128 0x1
 5754 0135 12       		.uleb128 0x12
 5755 0136 06       		.uleb128 0x6
 5756 0137 40       		.uleb128 0x40
 5757 0138 18       		.uleb128 0x18
 5758 0139 9742     		.uleb128 0x2117
 5759 013b 19       		.uleb128 0x19
 5760 013c 00       		.byte	0
 5761 013d 00       		.byte	0
 5762 013e 17       		.uleb128 0x17
 5763 013f 05       		.uleb128 0x5
 5764 0140 00       		.byte	0
 5765 0141 03       		.uleb128 0x3
 5766 0142 0E       		.uleb128 0xe
 5767 0143 3A       		.uleb128 0x3a
 5768 0144 0B       		.uleb128 0xb
 5769 0145 3B       		.uleb128 0x3b
 5770 0146 0B       		.uleb128 0xb
 5771 0147 49       		.uleb128 0x49
 5772 0148 13       		.uleb128 0x13
 5773 0149 02       		.uleb128 0x2
 5774 014a 17       		.uleb128 0x17
 5775 014b 00       		.byte	0
 5776 014c 00       		.byte	0
 5777 014d 18       		.uleb128 0x18
 5778 014e 1D       		.uleb128 0x1d
 5779 014f 01       		.byte	0x1
 5780 0150 31       		.uleb128 0x31
 5781 0151 13       		.uleb128 0x13
 5782 0152 52       		.uleb128 0x52
 5783 0153 01       		.uleb128 0x1
 5784 0154 55       		.uleb128 0x55
 5785 0155 17       		.uleb128 0x17
 5786 0156 58       		.uleb128 0x58
 5787 0157 0B       		.uleb128 0xb
 5788 0158 59       		.uleb128 0x59
 5789 0159 0B       		.uleb128 0xb
 5790 015a 01       		.uleb128 0x1
 5791 015b 13       		.uleb128 0x13
 5792 015c 00       		.byte	0
 5793 015d 00       		.byte	0
 5794 015e 19       		.uleb128 0x19
 5795 015f 1D       		.uleb128 0x1d
 5796 0160 01       		.byte	0x1
 5797 0161 31       		.uleb128 0x31
 5798 0162 13       		.uleb128 0x13
 5799 0163 11       		.uleb128 0x11
 5800 0164 01       		.uleb128 0x1
 5801 0165 12       		.uleb128 0x12
 5802 0166 06       		.uleb128 0x6
 5803 0167 58       		.uleb128 0x58
 5804 0168 0B       		.uleb128 0xb
 5805 0169 59       		.uleb128 0x59
 5806 016a 0B       		.uleb128 0xb
ARM GAS  C:\Users\AFDHAL~1\AppData\Local\Temp\ccielSKc.s 			page 125


 5807 016b 00       		.byte	0
 5808 016c 00       		.byte	0
 5809 016d 1A       		.uleb128 0x1a
 5810 016e 2E       		.uleb128 0x2e
 5811 016f 01       		.byte	0x1
 5812 0170 3F       		.uleb128 0x3f
 5813 0171 19       		.uleb128 0x19
 5814 0172 03       		.uleb128 0x3
 5815 0173 0E       		.uleb128 0xe
 5816 0174 3A       		.uleb128 0x3a
 5817 0175 0B       		.uleb128 0xb
 5818 0176 3B       		.uleb128 0x3b
 5819 0177 05       		.uleb128 0x5
 5820 0178 27       		.uleb128 0x27
 5821 0179 19       		.uleb128 0x19
 5822 017a 11       		.uleb128 0x11
 5823 017b 01       		.uleb128 0x1
 5824 017c 12       		.uleb128 0x12
 5825 017d 06       		.uleb128 0x6
 5826 017e 40       		.uleb128 0x40
 5827 017f 18       		.uleb128 0x18
 5828 0180 9742     		.uleb128 0x2117
 5829 0182 19       		.uleb128 0x19
 5830 0183 01       		.uleb128 0x1
 5831 0184 13       		.uleb128 0x13
 5832 0185 00       		.byte	0
 5833 0186 00       		.byte	0
 5834 0187 1B       		.uleb128 0x1b
 5835 0188 05       		.uleb128 0x5
 5836 0189 00       		.byte	0
 5837 018a 03       		.uleb128 0x3
 5838 018b 0E       		.uleb128 0xe
 5839 018c 3A       		.uleb128 0x3a
 5840 018d 0B       		.uleb128 0xb
 5841 018e 3B       		.uleb128 0x3b
 5842 018f 05       		.uleb128 0x5
 5843 0190 49       		.uleb128 0x49
 5844 0191 13       		.uleb128 0x13
 5845 0192 02       		.uleb128 0x2
 5846 0193 17       		.uleb128 0x17
 5847 0194 00       		.byte	0
 5848 0195 00       		.byte	0
 5849 0196 1C       		.uleb128 0x1c
 5850 0197 2E       		.uleb128 0x2e
 5851 0198 01       		.byte	0x1
 5852 0199 3F       		.uleb128 0x3f
 5853 019a 19       		.uleb128 0x19
 5854 019b 03       		.uleb128 0x3
 5855 019c 0E       		.uleb128 0xe
 5856 019d 3A       		.uleb128 0x3a
 5857 019e 0B       		.uleb128 0xb
 5858 019f 3B       		.uleb128 0x3b
 5859 01a0 05       		.uleb128 0x5
 5860 01a1 27       		.uleb128 0x27
 5861 01a2 19       		.uleb128 0x19
 5862 01a3 49       		.uleb128 0x49
 5863 01a4 13       		.uleb128 0x13
ARM GAS  C:\Users\AFDHAL~1\AppData\Local\Temp\ccielSKc.s 			page 126


 5864 01a5 11       		.uleb128 0x11
 5865 01a6 01       		.uleb128 0x1
 5866 01a7 12       		.uleb128 0x12
 5867 01a8 06       		.uleb128 0x6
 5868 01a9 40       		.uleb128 0x40
 5869 01aa 18       		.uleb128 0x18
 5870 01ab 9742     		.uleb128 0x2117
 5871 01ad 19       		.uleb128 0x19
 5872 01ae 01       		.uleb128 0x1
 5873 01af 13       		.uleb128 0x13
 5874 01b0 00       		.byte	0
 5875 01b1 00       		.byte	0
 5876 01b2 1D       		.uleb128 0x1d
 5877 01b3 34       		.uleb128 0x34
 5878 01b4 00       		.byte	0
 5879 01b5 03       		.uleb128 0x3
 5880 01b6 0E       		.uleb128 0xe
 5881 01b7 3A       		.uleb128 0x3a
 5882 01b8 0B       		.uleb128 0xb
 5883 01b9 3B       		.uleb128 0x3b
 5884 01ba 05       		.uleb128 0x5
 5885 01bb 49       		.uleb128 0x49
 5886 01bc 13       		.uleb128 0x13
 5887 01bd 02       		.uleb128 0x2
 5888 01be 17       		.uleb128 0x17
 5889 01bf 00       		.byte	0
 5890 01c0 00       		.byte	0
 5891 01c1 1E       		.uleb128 0x1e
 5892 01c2 34       		.uleb128 0x34
 5893 01c3 00       		.byte	0
 5894 01c4 03       		.uleb128 0x3
 5895 01c5 08       		.uleb128 0x8
 5896 01c6 3A       		.uleb128 0x3a
 5897 01c7 0B       		.uleb128 0xb
 5898 01c8 3B       		.uleb128 0x3b
 5899 01c9 05       		.uleb128 0x5
 5900 01ca 49       		.uleb128 0x49
 5901 01cb 13       		.uleb128 0x13
 5902 01cc 02       		.uleb128 0x2
 5903 01cd 17       		.uleb128 0x17
 5904 01ce 00       		.byte	0
 5905 01cf 00       		.byte	0
 5906 01d0 1F       		.uleb128 0x1f
 5907 01d1 1D       		.uleb128 0x1d
 5908 01d2 01       		.byte	0x1
 5909 01d3 31       		.uleb128 0x31
 5910 01d4 13       		.uleb128 0x13
 5911 01d5 11       		.uleb128 0x11
 5912 01d6 01       		.uleb128 0x1
 5913 01d7 12       		.uleb128 0x12
 5914 01d8 06       		.uleb128 0x6
 5915 01d9 58       		.uleb128 0x58
 5916 01da 0B       		.uleb128 0xb
 5917 01db 59       		.uleb128 0x59
 5918 01dc 05       		.uleb128 0x5
 5919 01dd 01       		.uleb128 0x1
 5920 01de 13       		.uleb128 0x13
ARM GAS  C:\Users\AFDHAL~1\AppData\Local\Temp\ccielSKc.s 			page 127


 5921 01df 00       		.byte	0
 5922 01e0 00       		.byte	0
 5923 01e1 20       		.uleb128 0x20
 5924 01e2 05       		.uleb128 0x5
 5925 01e3 00       		.byte	0
 5926 01e4 31       		.uleb128 0x31
 5927 01e5 13       		.uleb128 0x13
 5928 01e6 02       		.uleb128 0x2
 5929 01e7 17       		.uleb128 0x17
 5930 01e8 00       		.byte	0
 5931 01e9 00       		.byte	0
 5932 01ea 21       		.uleb128 0x21
 5933 01eb 1D       		.uleb128 0x1d
 5934 01ec 01       		.byte	0x1
 5935 01ed 31       		.uleb128 0x31
 5936 01ee 13       		.uleb128 0x13
 5937 01ef 52       		.uleb128 0x52
 5938 01f0 01       		.uleb128 0x1
 5939 01f1 55       		.uleb128 0x55
 5940 01f2 17       		.uleb128 0x17
 5941 01f3 58       		.uleb128 0x58
 5942 01f4 0B       		.uleb128 0xb
 5943 01f5 59       		.uleb128 0x59
 5944 01f6 05       		.uleb128 0x5
 5945 01f7 01       		.uleb128 0x1
 5946 01f8 13       		.uleb128 0x13
 5947 01f9 00       		.byte	0
 5948 01fa 00       		.byte	0
 5949 01fb 22       		.uleb128 0x22
 5950 01fc 1D       		.uleb128 0x1d
 5951 01fd 01       		.byte	0x1
 5952 01fe 31       		.uleb128 0x31
 5953 01ff 13       		.uleb128 0x13
 5954 0200 11       		.uleb128 0x11
 5955 0201 01       		.uleb128 0x1
 5956 0202 12       		.uleb128 0x12
 5957 0203 06       		.uleb128 0x6
 5958 0204 58       		.uleb128 0x58
 5959 0205 0B       		.uleb128 0xb
 5960 0206 59       		.uleb128 0x59
 5961 0207 05       		.uleb128 0x5
 5962 0208 00       		.byte	0
 5963 0209 00       		.byte	0
 5964 020a 23       		.uleb128 0x23
 5965 020b 2E       		.uleb128 0x2e
 5966 020c 00       		.byte	0
 5967 020d 3F       		.uleb128 0x3f
 5968 020e 19       		.uleb128 0x19
 5969 020f 3C       		.uleb128 0x3c
 5970 0210 19       		.uleb128 0x19
 5971 0211 6E       		.uleb128 0x6e
 5972 0212 0E       		.uleb128 0xe
 5973 0213 03       		.uleb128 0x3
 5974 0214 0E       		.uleb128 0xe
 5975 0215 3A       		.uleb128 0x3a
 5976 0216 0B       		.uleb128 0xb
 5977 0217 3B       		.uleb128 0x3b
ARM GAS  C:\Users\AFDHAL~1\AppData\Local\Temp\ccielSKc.s 			page 128


 5978 0218 0B       		.uleb128 0xb
 5979 0219 00       		.byte	0
 5980 021a 00       		.byte	0
 5981 021b 00       		.byte	0
 5982              		.section	.debug_loc,"",%progbits
 5983              	.Ldebug_loc0:
 5984              	.LLST0:
 5985 0000 00000000 		.4byte	.LVL32
 5986 0004 0A000000 		.4byte	.LVL33
 5987 0008 0100     		.2byte	0x1
 5988 000a 50       		.byte	0x50
 5989 000b 0A000000 		.4byte	.LVL33
 5990 000f 10000000 		.4byte	.LVL35
 5991 0013 0400     		.2byte	0x4
 5992 0015 F3       		.byte	0xf3
 5993 0016 01       		.uleb128 0x1
 5994 0017 50       		.byte	0x50
 5995 0018 9F       		.byte	0x9f
 5996 0019 10000000 		.4byte	.LVL35
 5997 001d 12000000 		.4byte	.LVL36
 5998 0021 0100     		.2byte	0x1
 5999 0023 50       		.byte	0x50
 6000 0024 12000000 		.4byte	.LVL36
 6001 0028 18000000 		.4byte	.LFE42
 6002 002c 0400     		.2byte	0x4
 6003 002e F3       		.byte	0xf3
 6004 002f 01       		.uleb128 0x1
 6005 0030 50       		.byte	0x50
 6006 0031 9F       		.byte	0x9f
 6007 0032 00000000 		.4byte	0
 6008 0036 00000000 		.4byte	0
 6009              	.LLST1:
 6010 003a 00000000 		.4byte	.LVL45
 6011 003e 06000000 		.4byte	.LVL46
 6012 0042 0100     		.2byte	0x1
 6013 0044 50       		.byte	0x50
 6014 0045 06000000 		.4byte	.LVL46
 6015 0049 0C000000 		.4byte	.LFE48
 6016 004d 0400     		.2byte	0x4
 6017 004f F3       		.byte	0xf3
 6018 0050 01       		.uleb128 0x1
 6019 0051 50       		.byte	0x50
 6020 0052 9F       		.byte	0x9f
 6021 0053 00000000 		.4byte	0
 6022 0057 00000000 		.4byte	0
 6023              	.LLST2:
 6024 005b 00000000 		.4byte	.LVL48
 6025 005f 06000000 		.4byte	.LVL49
 6026 0063 0100     		.2byte	0x1
 6027 0065 50       		.byte	0x50
 6028 0066 06000000 		.4byte	.LVL49
 6029 006a 0C000000 		.4byte	.LFE49
 6030 006e 0400     		.2byte	0x4
 6031 0070 F3       		.byte	0xf3
 6032 0071 01       		.uleb128 0x1
 6033 0072 50       		.byte	0x50
 6034 0073 9F       		.byte	0x9f
ARM GAS  C:\Users\AFDHAL~1\AppData\Local\Temp\ccielSKc.s 			page 129


 6035 0074 00000000 		.4byte	0
 6036 0078 00000000 		.4byte	0
 6037              	.LLST3:
 6038 007c 00000000 		.4byte	.LVL51
 6039 0080 00000000 		.4byte	.LVL51
 6040 0084 0100     		.2byte	0x1
 6041 0086 50       		.byte	0x50
 6042 0087 00000000 		.4byte	.LVL51
 6043 008b 0E000000 		.4byte	.LVL52
 6044 008f 1400     		.2byte	0x14
 6045 0091 70       		.byte	0x70
 6046 0092 00       		.sleb128 0
 6047 0093 12       		.byte	0x12
 6048 0094 08       		.byte	0x8
 6049 0095 FF       		.byte	0xff
 6050 0096 1A       		.byte	0x1a
 6051 0097 08       		.byte	0x8
 6052 0098 7D       		.byte	0x7d
 6053 0099 16       		.byte	0x16
 6054 009a 14       		.byte	0x14
 6055 009b 08       		.byte	0x8
 6056 009c FF       		.byte	0xff
 6057 009d 1A       		.byte	0x1a
 6058 009e 2D       		.byte	0x2d
 6059 009f 28       		.byte	0x28
 6060 00a0 0100     		.2byte	0x1
 6061 00a2 16       		.byte	0x16
 6062 00a3 13       		.byte	0x13
 6063 00a4 9F       		.byte	0x9f
 6064 00a5 0E000000 		.4byte	.LVL52
 6065 00a9 14000000 		.4byte	.LFE50
 6066 00ad 1500     		.2byte	0x15
 6067 00af F3       		.byte	0xf3
 6068 00b0 01       		.uleb128 0x1
 6069 00b1 50       		.byte	0x50
 6070 00b2 12       		.byte	0x12
 6071 00b3 08       		.byte	0x8
 6072 00b4 FF       		.byte	0xff
 6073 00b5 1A       		.byte	0x1a
 6074 00b6 08       		.byte	0x8
 6075 00b7 7D       		.byte	0x7d
 6076 00b8 16       		.byte	0x16
 6077 00b9 14       		.byte	0x14
 6078 00ba 08       		.byte	0x8
 6079 00bb FF       		.byte	0xff
 6080 00bc 1A       		.byte	0x1a
 6081 00bd 2D       		.byte	0x2d
 6082 00be 28       		.byte	0x28
 6083 00bf 0100     		.2byte	0x1
 6084 00c1 16       		.byte	0x16
 6085 00c2 13       		.byte	0x13
 6086 00c3 9F       		.byte	0x9f
 6087 00c4 00000000 		.4byte	0
 6088 00c8 00000000 		.4byte	0
 6089              	.LLST4:
 6090 00cc 00000000 		.4byte	.LVL54
 6091 00d0 06000000 		.4byte	.LVL55
ARM GAS  C:\Users\AFDHAL~1\AppData\Local\Temp\ccielSKc.s 			page 130


 6092 00d4 0100     		.2byte	0x1
 6093 00d6 50       		.byte	0x50
 6094 00d7 06000000 		.4byte	.LVL55
 6095 00db 0C000000 		.4byte	.LFE51
 6096 00df 0400     		.2byte	0x4
 6097 00e1 F3       		.byte	0xf3
 6098 00e2 01       		.uleb128 0x1
 6099 00e3 50       		.byte	0x50
 6100 00e4 9F       		.byte	0x9f
 6101 00e5 00000000 		.4byte	0
 6102 00e9 00000000 		.4byte	0
 6103              	.LLST5:
 6104 00ed 00000000 		.4byte	.LVL57
 6105 00f1 16000000 		.4byte	.LVL60
 6106 00f5 0200     		.2byte	0x2
 6107 00f7 30       		.byte	0x30
 6108 00f8 9F       		.byte	0x9f
 6109 00f9 16000000 		.4byte	.LVL60
 6110 00fd 1C000000 		.4byte	.LFE52
 6111 0101 0100     		.2byte	0x1
 6112 0103 50       		.byte	0x50
 6113 0104 00000000 		.4byte	0
 6114 0108 00000000 		.4byte	0
 6115              	.LLST6:
 6116 010c 08000000 		.4byte	.LVL58
 6117 0110 0A000000 		.4byte	.LVL59
 6118 0114 0100     		.2byte	0x1
 6119 0116 50       		.byte	0x50
 6120 0117 00000000 		.4byte	0
 6121 011b 00000000 		.4byte	0
 6122              	.LLST7:
 6123 011f 00000000 		.4byte	.LVL61
 6124 0123 10000000 		.4byte	.LVL64
 6125 0127 0100     		.2byte	0x1
 6126 0129 50       		.byte	0x50
 6127 012a 10000000 		.4byte	.LVL64
 6128 012e 13000000 		.4byte	.LVL65-1
 6129 0132 0100     		.2byte	0x1
 6130 0134 51       		.byte	0x51
 6131 0135 13000000 		.4byte	.LVL65-1
 6132 0139 16000000 		.4byte	.LVL66
 6133 013d 0400     		.2byte	0x4
 6134 013f F3       		.byte	0xf3
 6135 0140 01       		.uleb128 0x1
 6136 0141 50       		.byte	0x50
 6137 0142 9F       		.byte	0x9f
 6138 0143 16000000 		.4byte	.LVL66
 6139 0147 1A000000 		.4byte	.LFE53
 6140 014b 0100     		.2byte	0x1
 6141 014d 50       		.byte	0x50
 6142 014e 00000000 		.4byte	0
 6143 0152 00000000 		.4byte	0
 6144              	.LLST8:
 6145 0156 00000000 		.4byte	.LVL61
 6146 015a 06000000 		.4byte	.LVL62
 6147 015e 0100     		.2byte	0x1
 6148 0160 51       		.byte	0x51
ARM GAS  C:\Users\AFDHAL~1\AppData\Local\Temp\ccielSKc.s 			page 131


 6149 0161 06000000 		.4byte	.LVL62
 6150 0165 0E000000 		.4byte	.LVL63
 6151 0169 1500     		.2byte	0x15
 6152 016b 71       		.byte	0x71
 6153 016c 00       		.sleb128 0
 6154 016d 12       		.byte	0x12
 6155 016e 40       		.byte	0x40
 6156 016f 4B       		.byte	0x4b
 6157 0170 24       		.byte	0x24
 6158 0171 22       		.byte	0x22
 6159 0172 35       		.byte	0x35
 6160 0173 16       		.byte	0x16
 6161 0174 14       		.byte	0x14
 6162 0175 40       		.byte	0x40
 6163 0176 4B       		.byte	0x4b
 6164 0177 24       		.byte	0x24
 6165 0178 22       		.byte	0x22
 6166 0179 2D       		.byte	0x2d
 6167 017a 28       		.byte	0x28
 6168 017b 0100     		.2byte	0x1
 6169 017d 16       		.byte	0x16
 6170 017e 13       		.byte	0x13
 6171 017f 9F       		.byte	0x9f
 6172 0180 0E000000 		.4byte	.LVL63
 6173 0184 14000000 		.4byte	.LVL65
 6174 0188 1600     		.2byte	0x16
 6175 018a F3       		.byte	0xf3
 6176 018b 01       		.uleb128 0x1
 6177 018c 51       		.byte	0x51
 6178 018d 12       		.byte	0x12
 6179 018e 40       		.byte	0x40
 6180 018f 4B       		.byte	0x4b
 6181 0190 24       		.byte	0x24
 6182 0191 22       		.byte	0x22
 6183 0192 35       		.byte	0x35
 6184 0193 16       		.byte	0x16
 6185 0194 14       		.byte	0x14
 6186 0195 40       		.byte	0x40
 6187 0196 4B       		.byte	0x4b
 6188 0197 24       		.byte	0x24
 6189 0198 22       		.byte	0x22
 6190 0199 2D       		.byte	0x2d
 6191 019a 28       		.byte	0x28
 6192 019b 0100     		.2byte	0x1
 6193 019d 16       		.byte	0x16
 6194 019e 13       		.byte	0x13
 6195 019f 9F       		.byte	0x9f
 6196 01a0 16000000 		.4byte	.LVL66
 6197 01a4 1A000000 		.4byte	.LFE53
 6198 01a8 1500     		.2byte	0x15
 6199 01aa 71       		.byte	0x71
 6200 01ab 00       		.sleb128 0
 6201 01ac 12       		.byte	0x12
 6202 01ad 40       		.byte	0x40
 6203 01ae 4B       		.byte	0x4b
 6204 01af 24       		.byte	0x24
 6205 01b0 22       		.byte	0x22
ARM GAS  C:\Users\AFDHAL~1\AppData\Local\Temp\ccielSKc.s 			page 132


 6206 01b1 35       		.byte	0x35
 6207 01b2 16       		.byte	0x16
 6208 01b3 14       		.byte	0x14
 6209 01b4 40       		.byte	0x40
 6210 01b5 4B       		.byte	0x4b
 6211 01b6 24       		.byte	0x24
 6212 01b7 22       		.byte	0x22
 6213 01b8 2D       		.byte	0x2d
 6214 01b9 28       		.byte	0x28
 6215 01ba 0100     		.2byte	0x1
 6216 01bc 16       		.byte	0x16
 6217 01bd 13       		.byte	0x13
 6218 01be 9F       		.byte	0x9f
 6219 01bf 00000000 		.4byte	0
 6220 01c3 00000000 		.4byte	0
 6221              	.LLST9:
 6222 01c7 00000000 		.4byte	.LVL67
 6223 01cb 10000000 		.4byte	.LVL70
 6224 01cf 0100     		.2byte	0x1
 6225 01d1 50       		.byte	0x50
 6226 01d2 10000000 		.4byte	.LVL70
 6227 01d6 13000000 		.4byte	.LVL71-1
 6228 01da 0100     		.2byte	0x1
 6229 01dc 51       		.byte	0x51
 6230 01dd 13000000 		.4byte	.LVL71-1
 6231 01e1 16000000 		.4byte	.LVL72
 6232 01e5 0400     		.2byte	0x4
 6233 01e7 F3       		.byte	0xf3
 6234 01e8 01       		.uleb128 0x1
 6235 01e9 50       		.byte	0x50
 6236 01ea 9F       		.byte	0x9f
 6237 01eb 16000000 		.4byte	.LVL72
 6238 01ef 1A000000 		.4byte	.LFE54
 6239 01f3 0100     		.2byte	0x1
 6240 01f5 50       		.byte	0x50
 6241 01f6 00000000 		.4byte	0
 6242 01fa 00000000 		.4byte	0
 6243              	.LLST10:
 6244 01fe 00000000 		.4byte	.LVL67
 6245 0202 06000000 		.4byte	.LVL68
 6246 0206 0100     		.2byte	0x1
 6247 0208 51       		.byte	0x51
 6248 0209 06000000 		.4byte	.LVL68
 6249 020d 0E000000 		.4byte	.LVL69
 6250 0211 1500     		.2byte	0x15
 6251 0213 71       		.byte	0x71
 6252 0214 00       		.sleb128 0
 6253 0215 12       		.byte	0x12
 6254 0216 40       		.byte	0x40
 6255 0217 4B       		.byte	0x4b
 6256 0218 24       		.byte	0x24
 6257 0219 22       		.byte	0x22
 6258 021a 35       		.byte	0x35
 6259 021b 16       		.byte	0x16
 6260 021c 14       		.byte	0x14
 6261 021d 40       		.byte	0x40
 6262 021e 4B       		.byte	0x4b
ARM GAS  C:\Users\AFDHAL~1\AppData\Local\Temp\ccielSKc.s 			page 133


 6263 021f 24       		.byte	0x24
 6264 0220 22       		.byte	0x22
 6265 0221 2D       		.byte	0x2d
 6266 0222 28       		.byte	0x28
 6267 0223 0100     		.2byte	0x1
 6268 0225 16       		.byte	0x16
 6269 0226 13       		.byte	0x13
 6270 0227 9F       		.byte	0x9f
 6271 0228 0E000000 		.4byte	.LVL69
 6272 022c 14000000 		.4byte	.LVL71
 6273 0230 1600     		.2byte	0x16
 6274 0232 F3       		.byte	0xf3
 6275 0233 01       		.uleb128 0x1
 6276 0234 51       		.byte	0x51
 6277 0235 12       		.byte	0x12
 6278 0236 40       		.byte	0x40
 6279 0237 4B       		.byte	0x4b
 6280 0238 24       		.byte	0x24
 6281 0239 22       		.byte	0x22
 6282 023a 35       		.byte	0x35
 6283 023b 16       		.byte	0x16
 6284 023c 14       		.byte	0x14
 6285 023d 40       		.byte	0x40
 6286 023e 4B       		.byte	0x4b
 6287 023f 24       		.byte	0x24
 6288 0240 22       		.byte	0x22
 6289 0241 2D       		.byte	0x2d
 6290 0242 28       		.byte	0x28
 6291 0243 0100     		.2byte	0x1
 6292 0245 16       		.byte	0x16
 6293 0246 13       		.byte	0x13
 6294 0247 9F       		.byte	0x9f
 6295 0248 16000000 		.4byte	.LVL72
 6296 024c 1A000000 		.4byte	.LFE54
 6297 0250 1500     		.2byte	0x15
 6298 0252 71       		.byte	0x71
 6299 0253 00       		.sleb128 0
 6300 0254 12       		.byte	0x12
 6301 0255 40       		.byte	0x40
 6302 0256 4B       		.byte	0x4b
 6303 0257 24       		.byte	0x24
 6304 0258 22       		.byte	0x22
 6305 0259 35       		.byte	0x35
 6306 025a 16       		.byte	0x16
 6307 025b 14       		.byte	0x14
 6308 025c 40       		.byte	0x40
 6309 025d 4B       		.byte	0x4b
 6310 025e 24       		.byte	0x24
 6311 025f 22       		.byte	0x22
 6312 0260 2D       		.byte	0x2d
 6313 0261 28       		.byte	0x28
 6314 0262 0100     		.2byte	0x1
 6315 0264 16       		.byte	0x16
 6316 0265 13       		.byte	0x13
 6317 0266 9F       		.byte	0x9f
 6318 0267 00000000 		.4byte	0
 6319 026b 00000000 		.4byte	0
ARM GAS  C:\Users\AFDHAL~1\AppData\Local\Temp\ccielSKc.s 			page 134


 6320              	.LLST11:
 6321 026f 00000000 		.4byte	.LVL73
 6322 0273 10000000 		.4byte	.LVL76
 6323 0277 0100     		.2byte	0x1
 6324 0279 50       		.byte	0x50
 6325 027a 10000000 		.4byte	.LVL76
 6326 027e 13000000 		.4byte	.LVL77-1
 6327 0282 0100     		.2byte	0x1
 6328 0284 51       		.byte	0x51
 6329 0285 13000000 		.4byte	.LVL77-1
 6330 0289 16000000 		.4byte	.LVL78
 6331 028d 0400     		.2byte	0x4
 6332 028f F3       		.byte	0xf3
 6333 0290 01       		.uleb128 0x1
 6334 0291 50       		.byte	0x50
 6335 0292 9F       		.byte	0x9f
 6336 0293 16000000 		.4byte	.LVL78
 6337 0297 1A000000 		.4byte	.LFE55
 6338 029b 0100     		.2byte	0x1
 6339 029d 50       		.byte	0x50
 6340 029e 00000000 		.4byte	0
 6341 02a2 00000000 		.4byte	0
 6342              	.LLST12:
 6343 02a6 00000000 		.4byte	.LVL73
 6344 02aa 06000000 		.4byte	.LVL74
 6345 02ae 0100     		.2byte	0x1
 6346 02b0 51       		.byte	0x51
 6347 02b1 06000000 		.4byte	.LVL74
 6348 02b5 0E000000 		.4byte	.LVL75
 6349 02b9 1500     		.2byte	0x15
 6350 02bb 71       		.byte	0x71
 6351 02bc 00       		.sleb128 0
 6352 02bd 12       		.byte	0x12
 6353 02be 40       		.byte	0x40
 6354 02bf 4B       		.byte	0x4b
 6355 02c0 24       		.byte	0x24
 6356 02c1 22       		.byte	0x22
 6357 02c2 35       		.byte	0x35
 6358 02c3 16       		.byte	0x16
 6359 02c4 14       		.byte	0x14
 6360 02c5 40       		.byte	0x40
 6361 02c6 4B       		.byte	0x4b
 6362 02c7 24       		.byte	0x24
 6363 02c8 22       		.byte	0x22
 6364 02c9 2D       		.byte	0x2d
 6365 02ca 28       		.byte	0x28
 6366 02cb 0100     		.2byte	0x1
 6367 02cd 16       		.byte	0x16
 6368 02ce 13       		.byte	0x13
 6369 02cf 9F       		.byte	0x9f
 6370 02d0 0E000000 		.4byte	.LVL75
 6371 02d4 14000000 		.4byte	.LVL77
 6372 02d8 1600     		.2byte	0x16
 6373 02da F3       		.byte	0xf3
 6374 02db 01       		.uleb128 0x1
 6375 02dc 51       		.byte	0x51
 6376 02dd 12       		.byte	0x12
ARM GAS  C:\Users\AFDHAL~1\AppData\Local\Temp\ccielSKc.s 			page 135


 6377 02de 40       		.byte	0x40
 6378 02df 4B       		.byte	0x4b
 6379 02e0 24       		.byte	0x24
 6380 02e1 22       		.byte	0x22
 6381 02e2 35       		.byte	0x35
 6382 02e3 16       		.byte	0x16
 6383 02e4 14       		.byte	0x14
 6384 02e5 40       		.byte	0x40
 6385 02e6 4B       		.byte	0x4b
 6386 02e7 24       		.byte	0x24
 6387 02e8 22       		.byte	0x22
 6388 02e9 2D       		.byte	0x2d
 6389 02ea 28       		.byte	0x28
 6390 02eb 0100     		.2byte	0x1
 6391 02ed 16       		.byte	0x16
 6392 02ee 13       		.byte	0x13
 6393 02ef 9F       		.byte	0x9f
 6394 02f0 16000000 		.4byte	.LVL78
 6395 02f4 1A000000 		.4byte	.LFE55
 6396 02f8 1500     		.2byte	0x15
 6397 02fa 71       		.byte	0x71
 6398 02fb 00       		.sleb128 0
 6399 02fc 12       		.byte	0x12
 6400 02fd 40       		.byte	0x40
 6401 02fe 4B       		.byte	0x4b
 6402 02ff 24       		.byte	0x24
 6403 0300 22       		.byte	0x22
 6404 0301 35       		.byte	0x35
 6405 0302 16       		.byte	0x16
 6406 0303 14       		.byte	0x14
 6407 0304 40       		.byte	0x40
 6408 0305 4B       		.byte	0x4b
 6409 0306 24       		.byte	0x24
 6410 0307 22       		.byte	0x22
 6411 0308 2D       		.byte	0x2d
 6412 0309 28       		.byte	0x28
 6413 030a 0100     		.2byte	0x1
 6414 030c 16       		.byte	0x16
 6415 030d 13       		.byte	0x13
 6416 030e 9F       		.byte	0x9f
 6417 030f 00000000 		.4byte	0
 6418 0313 00000000 		.4byte	0
 6419              	.LLST13:
 6420 0317 00000000 		.4byte	.LVL79
 6421 031b 10000000 		.4byte	.LVL82
 6422 031f 0100     		.2byte	0x1
 6423 0321 50       		.byte	0x50
 6424 0322 10000000 		.4byte	.LVL82
 6425 0326 13000000 		.4byte	.LVL83-1
 6426 032a 0100     		.2byte	0x1
 6427 032c 51       		.byte	0x51
 6428 032d 13000000 		.4byte	.LVL83-1
 6429 0331 16000000 		.4byte	.LVL84
 6430 0335 0400     		.2byte	0x4
 6431 0337 F3       		.byte	0xf3
 6432 0338 01       		.uleb128 0x1
 6433 0339 50       		.byte	0x50
ARM GAS  C:\Users\AFDHAL~1\AppData\Local\Temp\ccielSKc.s 			page 136


 6434 033a 9F       		.byte	0x9f
 6435 033b 16000000 		.4byte	.LVL84
 6436 033f 1A000000 		.4byte	.LFE56
 6437 0343 0100     		.2byte	0x1
 6438 0345 50       		.byte	0x50
 6439 0346 00000000 		.4byte	0
 6440 034a 00000000 		.4byte	0
 6441              	.LLST14:
 6442 034e 00000000 		.4byte	.LVL79
 6443 0352 06000000 		.4byte	.LVL80
 6444 0356 0100     		.2byte	0x1
 6445 0358 51       		.byte	0x51
 6446 0359 06000000 		.4byte	.LVL80
 6447 035d 0E000000 		.4byte	.LVL81
 6448 0361 1500     		.2byte	0x15
 6449 0363 71       		.byte	0x71
 6450 0364 00       		.sleb128 0
 6451 0365 12       		.byte	0x12
 6452 0366 40       		.byte	0x40
 6453 0367 4B       		.byte	0x4b
 6454 0368 24       		.byte	0x24
 6455 0369 22       		.byte	0x22
 6456 036a 35       		.byte	0x35
 6457 036b 16       		.byte	0x16
 6458 036c 14       		.byte	0x14
 6459 036d 40       		.byte	0x40
 6460 036e 4B       		.byte	0x4b
 6461 036f 24       		.byte	0x24
 6462 0370 22       		.byte	0x22
 6463 0371 2D       		.byte	0x2d
 6464 0372 28       		.byte	0x28
 6465 0373 0100     		.2byte	0x1
 6466 0375 16       		.byte	0x16
 6467 0376 13       		.byte	0x13
 6468 0377 9F       		.byte	0x9f
 6469 0378 0E000000 		.4byte	.LVL81
 6470 037c 14000000 		.4byte	.LVL83
 6471 0380 1600     		.2byte	0x16
 6472 0382 F3       		.byte	0xf3
 6473 0383 01       		.uleb128 0x1
 6474 0384 51       		.byte	0x51
 6475 0385 12       		.byte	0x12
 6476 0386 40       		.byte	0x40
 6477 0387 4B       		.byte	0x4b
 6478 0388 24       		.byte	0x24
 6479 0389 22       		.byte	0x22
 6480 038a 35       		.byte	0x35
 6481 038b 16       		.byte	0x16
 6482 038c 14       		.byte	0x14
 6483 038d 40       		.byte	0x40
 6484 038e 4B       		.byte	0x4b
 6485 038f 24       		.byte	0x24
 6486 0390 22       		.byte	0x22
 6487 0391 2D       		.byte	0x2d
 6488 0392 28       		.byte	0x28
 6489 0393 0100     		.2byte	0x1
 6490 0395 16       		.byte	0x16
ARM GAS  C:\Users\AFDHAL~1\AppData\Local\Temp\ccielSKc.s 			page 137


 6491 0396 13       		.byte	0x13
 6492 0397 9F       		.byte	0x9f
 6493 0398 16000000 		.4byte	.LVL84
 6494 039c 1A000000 		.4byte	.LFE56
 6495 03a0 1500     		.2byte	0x15
 6496 03a2 71       		.byte	0x71
 6497 03a3 00       		.sleb128 0
 6498 03a4 12       		.byte	0x12
 6499 03a5 40       		.byte	0x40
 6500 03a6 4B       		.byte	0x4b
 6501 03a7 24       		.byte	0x24
 6502 03a8 22       		.byte	0x22
 6503 03a9 35       		.byte	0x35
 6504 03aa 16       		.byte	0x16
 6505 03ab 14       		.byte	0x14
 6506 03ac 40       		.byte	0x40
 6507 03ad 4B       		.byte	0x4b
 6508 03ae 24       		.byte	0x24
 6509 03af 22       		.byte	0x22
 6510 03b0 2D       		.byte	0x2d
 6511 03b1 28       		.byte	0x28
 6512 03b2 0100     		.2byte	0x1
 6513 03b4 16       		.byte	0x16
 6514 03b5 13       		.byte	0x13
 6515 03b6 9F       		.byte	0x9f
 6516 03b7 00000000 		.4byte	0
 6517 03bb 00000000 		.4byte	0
 6518              	.LLST15:
 6519 03bf 00000000 		.4byte	.LVL85
 6520 03c3 06000000 		.4byte	.LVL86
 6521 03c7 0100     		.2byte	0x1
 6522 03c9 50       		.byte	0x50
 6523 03ca 06000000 		.4byte	.LVL86
 6524 03ce 0C000000 		.4byte	.LFE57
 6525 03d2 0400     		.2byte	0x4
 6526 03d4 F3       		.byte	0xf3
 6527 03d5 01       		.uleb128 0x1
 6528 03d6 50       		.byte	0x50
 6529 03d7 9F       		.byte	0x9f
 6530 03d8 00000000 		.4byte	0
 6531 03dc 00000000 		.4byte	0
 6532              	.LLST16:
 6533 03e0 00000000 		.4byte	.LVL88
 6534 03e4 12000000 		.4byte	.LVL91
 6535 03e8 0100     		.2byte	0x1
 6536 03ea 50       		.byte	0x50
 6537 03eb 12000000 		.4byte	.LVL91
 6538 03ef 20000000 		.4byte	.LVL95
 6539 03f3 0100     		.2byte	0x1
 6540 03f5 55       		.byte	0x55
 6541 03f6 20000000 		.4byte	.LVL95
 6542 03fa 22000000 		.4byte	.LVL96
 6543 03fe 0400     		.2byte	0x4
 6544 0400 F3       		.byte	0xf3
 6545 0401 01       		.uleb128 0x1
 6546 0402 50       		.byte	0x50
 6547 0403 9F       		.byte	0x9f
ARM GAS  C:\Users\AFDHAL~1\AppData\Local\Temp\ccielSKc.s 			page 138


 6548 0404 22000000 		.4byte	.LVL96
 6549 0408 26000000 		.4byte	.LFE58
 6550 040c 0100     		.2byte	0x1
 6551 040e 50       		.byte	0x50
 6552 040f 00000000 		.4byte	0
 6553 0413 00000000 		.4byte	0
 6554              	.LLST17:
 6555 0417 00000000 		.4byte	.LVL88
 6556 041b 06000000 		.4byte	.LVL89
 6557 041f 0100     		.2byte	0x1
 6558 0421 51       		.byte	0x51
 6559 0422 06000000 		.4byte	.LVL89
 6560 0426 0A000000 		.4byte	.LVL90
 6561 042a 1500     		.2byte	0x15
 6562 042c 71       		.byte	0x71
 6563 042d 00       		.sleb128 0
 6564 042e 12       		.byte	0x12
 6565 042f 40       		.byte	0x40
 6566 0430 4B       		.byte	0x4b
 6567 0431 24       		.byte	0x24
 6568 0432 22       		.byte	0x22
 6569 0433 35       		.byte	0x35
 6570 0434 16       		.byte	0x16
 6571 0435 14       		.byte	0x14
 6572 0436 40       		.byte	0x40
 6573 0437 4B       		.byte	0x4b
 6574 0438 24       		.byte	0x24
 6575 0439 22       		.byte	0x22
 6576 043a 2D       		.byte	0x2d
 6577 043b 28       		.byte	0x28
 6578 043c 0100     		.2byte	0x1
 6579 043e 16       		.byte	0x16
 6580 043f 13       		.byte	0x13
 6581 0440 9F       		.byte	0x9f
 6582 0441 0A000000 		.4byte	.LVL90
 6583 0445 20000000 		.4byte	.LVL94
 6584 0449 1600     		.2byte	0x16
 6585 044b F3       		.byte	0xf3
 6586 044c 01       		.uleb128 0x1
 6587 044d 51       		.byte	0x51
 6588 044e 12       		.byte	0x12
 6589 044f 40       		.byte	0x40
 6590 0450 4B       		.byte	0x4b
 6591 0451 24       		.byte	0x24
 6592 0452 22       		.byte	0x22
 6593 0453 35       		.byte	0x35
 6594 0454 16       		.byte	0x16
 6595 0455 14       		.byte	0x14
 6596 0456 40       		.byte	0x40
 6597 0457 4B       		.byte	0x4b
 6598 0458 24       		.byte	0x24
 6599 0459 22       		.byte	0x22
 6600 045a 2D       		.byte	0x2d
 6601 045b 28       		.byte	0x28
 6602 045c 0100     		.2byte	0x1
 6603 045e 16       		.byte	0x16
 6604 045f 13       		.byte	0x13
ARM GAS  C:\Users\AFDHAL~1\AppData\Local\Temp\ccielSKc.s 			page 139


 6605 0460 9F       		.byte	0x9f
 6606 0461 22000000 		.4byte	.LVL96
 6607 0465 24000000 		.4byte	.LVL97
 6608 0469 1500     		.2byte	0x15
 6609 046b 71       		.byte	0x71
 6610 046c 00       		.sleb128 0
 6611 046d 12       		.byte	0x12
 6612 046e 40       		.byte	0x40
 6613 046f 4B       		.byte	0x4b
 6614 0470 24       		.byte	0x24
 6615 0471 22       		.byte	0x22
 6616 0472 35       		.byte	0x35
 6617 0473 16       		.byte	0x16
 6618 0474 14       		.byte	0x14
 6619 0475 40       		.byte	0x40
 6620 0476 4B       		.byte	0x4b
 6621 0477 24       		.byte	0x24
 6622 0478 22       		.byte	0x22
 6623 0479 2D       		.byte	0x2d
 6624 047a 28       		.byte	0x28
 6625 047b 0100     		.2byte	0x1
 6626 047d 16       		.byte	0x16
 6627 047e 13       		.byte	0x13
 6628 047f 9F       		.byte	0x9f
 6629 0480 24000000 		.4byte	.LVL97
 6630 0484 26000000 		.4byte	.LFE58
 6631 0488 1600     		.2byte	0x16
 6632 048a F3       		.byte	0xf3
 6633 048b 01       		.uleb128 0x1
 6634 048c 51       		.byte	0x51
 6635 048d 12       		.byte	0x12
 6636 048e 40       		.byte	0x40
 6637 048f 4B       		.byte	0x4b
 6638 0490 24       		.byte	0x24
 6639 0491 22       		.byte	0x22
 6640 0492 35       		.byte	0x35
 6641 0493 16       		.byte	0x16
 6642 0494 14       		.byte	0x14
 6643 0495 40       		.byte	0x40
 6644 0496 4B       		.byte	0x4b
 6645 0497 24       		.byte	0x24
 6646 0498 22       		.byte	0x22
 6647 0499 2D       		.byte	0x2d
 6648 049a 28       		.byte	0x28
 6649 049b 0100     		.2byte	0x1
 6650 049d 16       		.byte	0x16
 6651 049e 13       		.byte	0x13
 6652 049f 9F       		.byte	0x9f
 6653 04a0 00000000 		.4byte	0
 6654 04a4 00000000 		.4byte	0
 6655              	.LLST18:
 6656 04a8 00000000 		.4byte	.LVL98
 6657 04ac 06000000 		.4byte	.LVL99
 6658 04b0 0100     		.2byte	0x1
 6659 04b2 50       		.byte	0x50
 6660 04b3 06000000 		.4byte	.LVL99
 6661 04b7 0C000000 		.4byte	.LFE59
ARM GAS  C:\Users\AFDHAL~1\AppData\Local\Temp\ccielSKc.s 			page 140


 6662 04bb 0400     		.2byte	0x4
 6663 04bd F3       		.byte	0xf3
 6664 04be 01       		.uleb128 0x1
 6665 04bf 50       		.byte	0x50
 6666 04c0 9F       		.byte	0x9f
 6667 04c1 00000000 		.4byte	0
 6668 04c5 00000000 		.4byte	0
 6669              	.LLST19:
 6670 04c9 00000000 		.4byte	.LVL101
 6671 04cd 12000000 		.4byte	.LVL104
 6672 04d1 0100     		.2byte	0x1
 6673 04d3 50       		.byte	0x50
 6674 04d4 12000000 		.4byte	.LVL104
 6675 04d8 20000000 		.4byte	.LVL108
 6676 04dc 0100     		.2byte	0x1
 6677 04de 55       		.byte	0x55
 6678 04df 20000000 		.4byte	.LVL108
 6679 04e3 22000000 		.4byte	.LVL109
 6680 04e7 0400     		.2byte	0x4
 6681 04e9 F3       		.byte	0xf3
 6682 04ea 01       		.uleb128 0x1
 6683 04eb 50       		.byte	0x50
 6684 04ec 9F       		.byte	0x9f
 6685 04ed 22000000 		.4byte	.LVL109
 6686 04f1 26000000 		.4byte	.LFE60
 6687 04f5 0100     		.2byte	0x1
 6688 04f7 50       		.byte	0x50
 6689 04f8 00000000 		.4byte	0
 6690 04fc 00000000 		.4byte	0
 6691              	.LLST20:
 6692 0500 00000000 		.4byte	.LVL101
 6693 0504 06000000 		.4byte	.LVL102
 6694 0508 0100     		.2byte	0x1
 6695 050a 51       		.byte	0x51
 6696 050b 06000000 		.4byte	.LVL102
 6697 050f 0A000000 		.4byte	.LVL103
 6698 0513 1500     		.2byte	0x15
 6699 0515 71       		.byte	0x71
 6700 0516 00       		.sleb128 0
 6701 0517 12       		.byte	0x12
 6702 0518 40       		.byte	0x40
 6703 0519 4B       		.byte	0x4b
 6704 051a 24       		.byte	0x24
 6705 051b 22       		.byte	0x22
 6706 051c 35       		.byte	0x35
 6707 051d 16       		.byte	0x16
 6708 051e 14       		.byte	0x14
 6709 051f 40       		.byte	0x40
 6710 0520 4B       		.byte	0x4b
 6711 0521 24       		.byte	0x24
 6712 0522 22       		.byte	0x22
 6713 0523 2D       		.byte	0x2d
 6714 0524 28       		.byte	0x28
 6715 0525 0100     		.2byte	0x1
 6716 0527 16       		.byte	0x16
 6717 0528 13       		.byte	0x13
 6718 0529 9F       		.byte	0x9f
ARM GAS  C:\Users\AFDHAL~1\AppData\Local\Temp\ccielSKc.s 			page 141


 6719 052a 0A000000 		.4byte	.LVL103
 6720 052e 20000000 		.4byte	.LVL107
 6721 0532 1600     		.2byte	0x16
 6722 0534 F3       		.byte	0xf3
 6723 0535 01       		.uleb128 0x1
 6724 0536 51       		.byte	0x51
 6725 0537 12       		.byte	0x12
 6726 0538 40       		.byte	0x40
 6727 0539 4B       		.byte	0x4b
 6728 053a 24       		.byte	0x24
 6729 053b 22       		.byte	0x22
 6730 053c 35       		.byte	0x35
 6731 053d 16       		.byte	0x16
 6732 053e 14       		.byte	0x14
 6733 053f 40       		.byte	0x40
 6734 0540 4B       		.byte	0x4b
 6735 0541 24       		.byte	0x24
 6736 0542 22       		.byte	0x22
 6737 0543 2D       		.byte	0x2d
 6738 0544 28       		.byte	0x28
 6739 0545 0100     		.2byte	0x1
 6740 0547 16       		.byte	0x16
 6741 0548 13       		.byte	0x13
 6742 0549 9F       		.byte	0x9f
 6743 054a 22000000 		.4byte	.LVL109
 6744 054e 24000000 		.4byte	.LVL110
 6745 0552 1500     		.2byte	0x15
 6746 0554 71       		.byte	0x71
 6747 0555 00       		.sleb128 0
 6748 0556 12       		.byte	0x12
 6749 0557 40       		.byte	0x40
 6750 0558 4B       		.byte	0x4b
 6751 0559 24       		.byte	0x24
 6752 055a 22       		.byte	0x22
 6753 055b 35       		.byte	0x35
 6754 055c 16       		.byte	0x16
 6755 055d 14       		.byte	0x14
 6756 055e 40       		.byte	0x40
 6757 055f 4B       		.byte	0x4b
 6758 0560 24       		.byte	0x24
 6759 0561 22       		.byte	0x22
 6760 0562 2D       		.byte	0x2d
 6761 0563 28       		.byte	0x28
 6762 0564 0100     		.2byte	0x1
 6763 0566 16       		.byte	0x16
 6764 0567 13       		.byte	0x13
 6765 0568 9F       		.byte	0x9f
 6766 0569 24000000 		.4byte	.LVL110
 6767 056d 26000000 		.4byte	.LFE60
 6768 0571 1600     		.2byte	0x16
 6769 0573 F3       		.byte	0xf3
 6770 0574 01       		.uleb128 0x1
 6771 0575 51       		.byte	0x51
 6772 0576 12       		.byte	0x12
 6773 0577 40       		.byte	0x40
 6774 0578 4B       		.byte	0x4b
 6775 0579 24       		.byte	0x24
ARM GAS  C:\Users\AFDHAL~1\AppData\Local\Temp\ccielSKc.s 			page 142


 6776 057a 22       		.byte	0x22
 6777 057b 35       		.byte	0x35
 6778 057c 16       		.byte	0x16
 6779 057d 14       		.byte	0x14
 6780 057e 40       		.byte	0x40
 6781 057f 4B       		.byte	0x4b
 6782 0580 24       		.byte	0x24
 6783 0581 22       		.byte	0x22
 6784 0582 2D       		.byte	0x2d
 6785 0583 28       		.byte	0x28
 6786 0584 0100     		.2byte	0x1
 6787 0586 16       		.byte	0x16
 6788 0587 13       		.byte	0x13
 6789 0588 9F       		.byte	0x9f
 6790 0589 00000000 		.4byte	0
 6791 058d 00000000 		.4byte	0
 6792              	.LLST21:
 6793 0591 00000000 		.4byte	.LVL111
 6794 0595 06000000 		.4byte	.LVL112
 6795 0599 0100     		.2byte	0x1
 6796 059b 50       		.byte	0x50
 6797 059c 06000000 		.4byte	.LVL112
 6798 05a0 0C000000 		.4byte	.LFE61
 6799 05a4 0400     		.2byte	0x4
 6800 05a6 F3       		.byte	0xf3
 6801 05a7 01       		.uleb128 0x1
 6802 05a8 50       		.byte	0x50
 6803 05a9 9F       		.byte	0x9f
 6804 05aa 00000000 		.4byte	0
 6805 05ae 00000000 		.4byte	0
 6806              	.LLST22:
 6807 05b2 00000000 		.4byte	.LVL114
 6808 05b6 12000000 		.4byte	.LVL117
 6809 05ba 0100     		.2byte	0x1
 6810 05bc 50       		.byte	0x50
 6811 05bd 12000000 		.4byte	.LVL117
 6812 05c1 20000000 		.4byte	.LVL121
 6813 05c5 0100     		.2byte	0x1
 6814 05c7 55       		.byte	0x55
 6815 05c8 20000000 		.4byte	.LVL121
 6816 05cc 22000000 		.4byte	.LVL122
 6817 05d0 0400     		.2byte	0x4
 6818 05d2 F3       		.byte	0xf3
 6819 05d3 01       		.uleb128 0x1
 6820 05d4 50       		.byte	0x50
 6821 05d5 9F       		.byte	0x9f
 6822 05d6 22000000 		.4byte	.LVL122
 6823 05da 26000000 		.4byte	.LFE62
 6824 05de 0100     		.2byte	0x1
 6825 05e0 50       		.byte	0x50
 6826 05e1 00000000 		.4byte	0
 6827 05e5 00000000 		.4byte	0
 6828              	.LLST23:
 6829 05e9 00000000 		.4byte	.LVL114
 6830 05ed 06000000 		.4byte	.LVL115
 6831 05f1 0100     		.2byte	0x1
 6832 05f3 51       		.byte	0x51
ARM GAS  C:\Users\AFDHAL~1\AppData\Local\Temp\ccielSKc.s 			page 143


 6833 05f4 06000000 		.4byte	.LVL115
 6834 05f8 0A000000 		.4byte	.LVL116
 6835 05fc 1500     		.2byte	0x15
 6836 05fe 71       		.byte	0x71
 6837 05ff 00       		.sleb128 0
 6838 0600 12       		.byte	0x12
 6839 0601 40       		.byte	0x40
 6840 0602 4B       		.byte	0x4b
 6841 0603 24       		.byte	0x24
 6842 0604 22       		.byte	0x22
 6843 0605 35       		.byte	0x35
 6844 0606 16       		.byte	0x16
 6845 0607 14       		.byte	0x14
 6846 0608 40       		.byte	0x40
 6847 0609 4B       		.byte	0x4b
 6848 060a 24       		.byte	0x24
 6849 060b 22       		.byte	0x22
 6850 060c 2D       		.byte	0x2d
 6851 060d 28       		.byte	0x28
 6852 060e 0100     		.2byte	0x1
 6853 0610 16       		.byte	0x16
 6854 0611 13       		.byte	0x13
 6855 0612 9F       		.byte	0x9f
 6856 0613 0A000000 		.4byte	.LVL116
 6857 0617 20000000 		.4byte	.LVL120
 6858 061b 1600     		.2byte	0x16
 6859 061d F3       		.byte	0xf3
 6860 061e 01       		.uleb128 0x1
 6861 061f 51       		.byte	0x51
 6862 0620 12       		.byte	0x12
 6863 0621 40       		.byte	0x40
 6864 0622 4B       		.byte	0x4b
 6865 0623 24       		.byte	0x24
 6866 0624 22       		.byte	0x22
 6867 0625 35       		.byte	0x35
 6868 0626 16       		.byte	0x16
 6869 0627 14       		.byte	0x14
 6870 0628 40       		.byte	0x40
 6871 0629 4B       		.byte	0x4b
 6872 062a 24       		.byte	0x24
 6873 062b 22       		.byte	0x22
 6874 062c 2D       		.byte	0x2d
 6875 062d 28       		.byte	0x28
 6876 062e 0100     		.2byte	0x1
 6877 0630 16       		.byte	0x16
 6878 0631 13       		.byte	0x13
 6879 0632 9F       		.byte	0x9f
 6880 0633 22000000 		.4byte	.LVL122
 6881 0637 24000000 		.4byte	.LVL123
 6882 063b 1500     		.2byte	0x15
 6883 063d 71       		.byte	0x71
 6884 063e 00       		.sleb128 0
 6885 063f 12       		.byte	0x12
 6886 0640 40       		.byte	0x40
 6887 0641 4B       		.byte	0x4b
 6888 0642 24       		.byte	0x24
 6889 0643 22       		.byte	0x22
ARM GAS  C:\Users\AFDHAL~1\AppData\Local\Temp\ccielSKc.s 			page 144


 6890 0644 35       		.byte	0x35
 6891 0645 16       		.byte	0x16
 6892 0646 14       		.byte	0x14
 6893 0647 40       		.byte	0x40
 6894 0648 4B       		.byte	0x4b
 6895 0649 24       		.byte	0x24
 6896 064a 22       		.byte	0x22
 6897 064b 2D       		.byte	0x2d
 6898 064c 28       		.byte	0x28
 6899 064d 0100     		.2byte	0x1
 6900 064f 16       		.byte	0x16
 6901 0650 13       		.byte	0x13
 6902 0651 9F       		.byte	0x9f
 6903 0652 24000000 		.4byte	.LVL123
 6904 0656 26000000 		.4byte	.LFE62
 6905 065a 1600     		.2byte	0x16
 6906 065c F3       		.byte	0xf3
 6907 065d 01       		.uleb128 0x1
 6908 065e 51       		.byte	0x51
 6909 065f 12       		.byte	0x12
 6910 0660 40       		.byte	0x40
 6911 0661 4B       		.byte	0x4b
 6912 0662 24       		.byte	0x24
 6913 0663 22       		.byte	0x22
 6914 0664 35       		.byte	0x35
 6915 0665 16       		.byte	0x16
 6916 0666 14       		.byte	0x14
 6917 0667 40       		.byte	0x40
 6918 0668 4B       		.byte	0x4b
 6919 0669 24       		.byte	0x24
 6920 066a 22       		.byte	0x22
 6921 066b 2D       		.byte	0x2d
 6922 066c 28       		.byte	0x28
 6923 066d 0100     		.2byte	0x1
 6924 066f 16       		.byte	0x16
 6925 0670 13       		.byte	0x13
 6926 0671 9F       		.byte	0x9f
 6927 0672 00000000 		.4byte	0
 6928 0676 00000000 		.4byte	0
 6929              	.LLST24:
 6930 067a 00000000 		.4byte	.LVL124
 6931 067e 06000000 		.4byte	.LVL125
 6932 0682 0100     		.2byte	0x1
 6933 0684 50       		.byte	0x50
 6934 0685 06000000 		.4byte	.LVL125
 6935 0689 0C000000 		.4byte	.LFE63
 6936 068d 0400     		.2byte	0x4
 6937 068f F3       		.byte	0xf3
 6938 0690 01       		.uleb128 0x1
 6939 0691 50       		.byte	0x50
 6940 0692 9F       		.byte	0x9f
 6941 0693 00000000 		.4byte	0
 6942 0697 00000000 		.4byte	0
 6943              	.LLST25:
 6944 069b 00000000 		.4byte	.LVL127
 6945 069f 12000000 		.4byte	.LVL130
 6946 06a3 0100     		.2byte	0x1
ARM GAS  C:\Users\AFDHAL~1\AppData\Local\Temp\ccielSKc.s 			page 145


 6947 06a5 50       		.byte	0x50
 6948 06a6 12000000 		.4byte	.LVL130
 6949 06aa 20000000 		.4byte	.LVL134
 6950 06ae 0100     		.2byte	0x1
 6951 06b0 55       		.byte	0x55
 6952 06b1 20000000 		.4byte	.LVL134
 6953 06b5 22000000 		.4byte	.LVL135
 6954 06b9 0400     		.2byte	0x4
 6955 06bb F3       		.byte	0xf3
 6956 06bc 01       		.uleb128 0x1
 6957 06bd 50       		.byte	0x50
 6958 06be 9F       		.byte	0x9f
 6959 06bf 22000000 		.4byte	.LVL135
 6960 06c3 26000000 		.4byte	.LFE64
 6961 06c7 0100     		.2byte	0x1
 6962 06c9 50       		.byte	0x50
 6963 06ca 00000000 		.4byte	0
 6964 06ce 00000000 		.4byte	0
 6965              	.LLST26:
 6966 06d2 00000000 		.4byte	.LVL127
 6967 06d6 06000000 		.4byte	.LVL128
 6968 06da 0100     		.2byte	0x1
 6969 06dc 51       		.byte	0x51
 6970 06dd 06000000 		.4byte	.LVL128
 6971 06e1 0A000000 		.4byte	.LVL129
 6972 06e5 1500     		.2byte	0x15
 6973 06e7 71       		.byte	0x71
 6974 06e8 00       		.sleb128 0
 6975 06e9 12       		.byte	0x12
 6976 06ea 40       		.byte	0x40
 6977 06eb 4B       		.byte	0x4b
 6978 06ec 24       		.byte	0x24
 6979 06ed 22       		.byte	0x22
 6980 06ee 35       		.byte	0x35
 6981 06ef 16       		.byte	0x16
 6982 06f0 14       		.byte	0x14
 6983 06f1 40       		.byte	0x40
 6984 06f2 4B       		.byte	0x4b
 6985 06f3 24       		.byte	0x24
 6986 06f4 22       		.byte	0x22
 6987 06f5 2D       		.byte	0x2d
 6988 06f6 28       		.byte	0x28
 6989 06f7 0100     		.2byte	0x1
 6990 06f9 16       		.byte	0x16
 6991 06fa 13       		.byte	0x13
 6992 06fb 9F       		.byte	0x9f
 6993 06fc 0A000000 		.4byte	.LVL129
 6994 0700 20000000 		.4byte	.LVL133
 6995 0704 1600     		.2byte	0x16
 6996 0706 F3       		.byte	0xf3
 6997 0707 01       		.uleb128 0x1
 6998 0708 51       		.byte	0x51
 6999 0709 12       		.byte	0x12
 7000 070a 40       		.byte	0x40
 7001 070b 4B       		.byte	0x4b
 7002 070c 24       		.byte	0x24
 7003 070d 22       		.byte	0x22
ARM GAS  C:\Users\AFDHAL~1\AppData\Local\Temp\ccielSKc.s 			page 146


 7004 070e 35       		.byte	0x35
 7005 070f 16       		.byte	0x16
 7006 0710 14       		.byte	0x14
 7007 0711 40       		.byte	0x40
 7008 0712 4B       		.byte	0x4b
 7009 0713 24       		.byte	0x24
 7010 0714 22       		.byte	0x22
 7011 0715 2D       		.byte	0x2d
 7012 0716 28       		.byte	0x28
 7013 0717 0100     		.2byte	0x1
 7014 0719 16       		.byte	0x16
 7015 071a 13       		.byte	0x13
 7016 071b 9F       		.byte	0x9f
 7017 071c 22000000 		.4byte	.LVL135
 7018 0720 24000000 		.4byte	.LVL136
 7019 0724 1500     		.2byte	0x15
 7020 0726 71       		.byte	0x71
 7021 0727 00       		.sleb128 0
 7022 0728 12       		.byte	0x12
 7023 0729 40       		.byte	0x40
 7024 072a 4B       		.byte	0x4b
 7025 072b 24       		.byte	0x24
 7026 072c 22       		.byte	0x22
 7027 072d 35       		.byte	0x35
 7028 072e 16       		.byte	0x16
 7029 072f 14       		.byte	0x14
 7030 0730 40       		.byte	0x40
 7031 0731 4B       		.byte	0x4b
 7032 0732 24       		.byte	0x24
 7033 0733 22       		.byte	0x22
 7034 0734 2D       		.byte	0x2d
 7035 0735 28       		.byte	0x28
 7036 0736 0100     		.2byte	0x1
 7037 0738 16       		.byte	0x16
 7038 0739 13       		.byte	0x13
 7039 073a 9F       		.byte	0x9f
 7040 073b 24000000 		.4byte	.LVL136
 7041 073f 26000000 		.4byte	.LFE64
 7042 0743 1600     		.2byte	0x16
 7043 0745 F3       		.byte	0xf3
 7044 0746 01       		.uleb128 0x1
 7045 0747 51       		.byte	0x51
 7046 0748 12       		.byte	0x12
 7047 0749 40       		.byte	0x40
 7048 074a 4B       		.byte	0x4b
 7049 074b 24       		.byte	0x24
 7050 074c 22       		.byte	0x22
 7051 074d 35       		.byte	0x35
 7052 074e 16       		.byte	0x16
 7053 074f 14       		.byte	0x14
 7054 0750 40       		.byte	0x40
 7055 0751 4B       		.byte	0x4b
 7056 0752 24       		.byte	0x24
 7057 0753 22       		.byte	0x22
 7058 0754 2D       		.byte	0x2d
 7059 0755 28       		.byte	0x28
 7060 0756 0100     		.2byte	0x1
ARM GAS  C:\Users\AFDHAL~1\AppData\Local\Temp\ccielSKc.s 			page 147


 7061 0758 16       		.byte	0x16
 7062 0759 13       		.byte	0x13
 7063 075a 9F       		.byte	0x9f
 7064 075b 00000000 		.4byte	0
 7065 075f 00000000 		.4byte	0
 7066              	.LLST27:
 7067 0763 00000000 		.4byte	.LVL137
 7068 0767 10000000 		.4byte	.LVL140
 7069 076b 0100     		.2byte	0x1
 7070 076d 50       		.byte	0x50
 7071 076e 10000000 		.4byte	.LVL140
 7072 0772 13000000 		.4byte	.LVL141-1
 7073 0776 0100     		.2byte	0x1
 7074 0778 51       		.byte	0x51
 7075 0779 13000000 		.4byte	.LVL141-1
 7076 077d 16000000 		.4byte	.LVL142
 7077 0781 0400     		.2byte	0x4
 7078 0783 F3       		.byte	0xf3
 7079 0784 01       		.uleb128 0x1
 7080 0785 50       		.byte	0x50
 7081 0786 9F       		.byte	0x9f
 7082 0787 16000000 		.4byte	.LVL142
 7083 078b 1A000000 		.4byte	.LFE65
 7084 078f 0100     		.2byte	0x1
 7085 0791 50       		.byte	0x50
 7086 0792 00000000 		.4byte	0
 7087 0796 00000000 		.4byte	0
 7088              	.LLST28:
 7089 079a 00000000 		.4byte	.LVL137
 7090 079e 06000000 		.4byte	.LVL138
 7091 07a2 0100     		.2byte	0x1
 7092 07a4 51       		.byte	0x51
 7093 07a5 06000000 		.4byte	.LVL138
 7094 07a9 0E000000 		.4byte	.LVL139
 7095 07ad 1500     		.2byte	0x15
 7096 07af 71       		.byte	0x71
 7097 07b0 00       		.sleb128 0
 7098 07b1 12       		.byte	0x12
 7099 07b2 40       		.byte	0x40
 7100 07b3 4B       		.byte	0x4b
 7101 07b4 24       		.byte	0x24
 7102 07b5 22       		.byte	0x22
 7103 07b6 35       		.byte	0x35
 7104 07b7 16       		.byte	0x16
 7105 07b8 14       		.byte	0x14
 7106 07b9 40       		.byte	0x40
 7107 07ba 4B       		.byte	0x4b
 7108 07bb 24       		.byte	0x24
 7109 07bc 22       		.byte	0x22
 7110 07bd 2D       		.byte	0x2d
 7111 07be 28       		.byte	0x28
 7112 07bf 0100     		.2byte	0x1
 7113 07c1 16       		.byte	0x16
 7114 07c2 13       		.byte	0x13
 7115 07c3 9F       		.byte	0x9f
 7116 07c4 0E000000 		.4byte	.LVL139
 7117 07c8 14000000 		.4byte	.LVL141
ARM GAS  C:\Users\AFDHAL~1\AppData\Local\Temp\ccielSKc.s 			page 148


 7118 07cc 1600     		.2byte	0x16
 7119 07ce F3       		.byte	0xf3
 7120 07cf 01       		.uleb128 0x1
 7121 07d0 51       		.byte	0x51
 7122 07d1 12       		.byte	0x12
 7123 07d2 40       		.byte	0x40
 7124 07d3 4B       		.byte	0x4b
 7125 07d4 24       		.byte	0x24
 7126 07d5 22       		.byte	0x22
 7127 07d6 35       		.byte	0x35
 7128 07d7 16       		.byte	0x16
 7129 07d8 14       		.byte	0x14
 7130 07d9 40       		.byte	0x40
 7131 07da 4B       		.byte	0x4b
 7132 07db 24       		.byte	0x24
 7133 07dc 22       		.byte	0x22
 7134 07dd 2D       		.byte	0x2d
 7135 07de 28       		.byte	0x28
 7136 07df 0100     		.2byte	0x1
 7137 07e1 16       		.byte	0x16
 7138 07e2 13       		.byte	0x13
 7139 07e3 9F       		.byte	0x9f
 7140 07e4 16000000 		.4byte	.LVL142
 7141 07e8 1A000000 		.4byte	.LFE65
 7142 07ec 1500     		.2byte	0x15
 7143 07ee 71       		.byte	0x71
 7144 07ef 00       		.sleb128 0
 7145 07f0 12       		.byte	0x12
 7146 07f1 40       		.byte	0x40
 7147 07f2 4B       		.byte	0x4b
 7148 07f3 24       		.byte	0x24
 7149 07f4 22       		.byte	0x22
 7150 07f5 35       		.byte	0x35
 7151 07f6 16       		.byte	0x16
 7152 07f7 14       		.byte	0x14
 7153 07f8 40       		.byte	0x40
 7154 07f9 4B       		.byte	0x4b
 7155 07fa 24       		.byte	0x24
 7156 07fb 22       		.byte	0x22
 7157 07fc 2D       		.byte	0x2d
 7158 07fd 28       		.byte	0x28
 7159 07fe 0100     		.2byte	0x1
 7160 0800 16       		.byte	0x16
 7161 0801 13       		.byte	0x13
 7162 0802 9F       		.byte	0x9f
 7163 0803 00000000 		.4byte	0
 7164 0807 00000000 		.4byte	0
 7165              	.LLST29:
 7166 080b 00000000 		.4byte	.LVL143
 7167 080f 10000000 		.4byte	.LVL146
 7168 0813 0100     		.2byte	0x1
 7169 0815 50       		.byte	0x50
 7170 0816 10000000 		.4byte	.LVL146
 7171 081a 13000000 		.4byte	.LVL147-1
 7172 081e 0100     		.2byte	0x1
 7173 0820 51       		.byte	0x51
 7174 0821 13000000 		.4byte	.LVL147-1
ARM GAS  C:\Users\AFDHAL~1\AppData\Local\Temp\ccielSKc.s 			page 149


 7175 0825 16000000 		.4byte	.LVL148
 7176 0829 0400     		.2byte	0x4
 7177 082b F3       		.byte	0xf3
 7178 082c 01       		.uleb128 0x1
 7179 082d 50       		.byte	0x50
 7180 082e 9F       		.byte	0x9f
 7181 082f 16000000 		.4byte	.LVL148
 7182 0833 1A000000 		.4byte	.LFE66
 7183 0837 0100     		.2byte	0x1
 7184 0839 50       		.byte	0x50
 7185 083a 00000000 		.4byte	0
 7186 083e 00000000 		.4byte	0
 7187              	.LLST30:
 7188 0842 00000000 		.4byte	.LVL143
 7189 0846 06000000 		.4byte	.LVL144
 7190 084a 0100     		.2byte	0x1
 7191 084c 51       		.byte	0x51
 7192 084d 06000000 		.4byte	.LVL144
 7193 0851 0E000000 		.4byte	.LVL145
 7194 0855 1500     		.2byte	0x15
 7195 0857 71       		.byte	0x71
 7196 0858 00       		.sleb128 0
 7197 0859 12       		.byte	0x12
 7198 085a 40       		.byte	0x40
 7199 085b 4B       		.byte	0x4b
 7200 085c 24       		.byte	0x24
 7201 085d 22       		.byte	0x22
 7202 085e 35       		.byte	0x35
 7203 085f 16       		.byte	0x16
 7204 0860 14       		.byte	0x14
 7205 0861 40       		.byte	0x40
 7206 0862 4B       		.byte	0x4b
 7207 0863 24       		.byte	0x24
 7208 0864 22       		.byte	0x22
 7209 0865 2D       		.byte	0x2d
 7210 0866 28       		.byte	0x28
 7211 0867 0100     		.2byte	0x1
 7212 0869 16       		.byte	0x16
 7213 086a 13       		.byte	0x13
 7214 086b 9F       		.byte	0x9f
 7215 086c 0E000000 		.4byte	.LVL145
 7216 0870 14000000 		.4byte	.LVL147
 7217 0874 1600     		.2byte	0x16
 7218 0876 F3       		.byte	0xf3
 7219 0877 01       		.uleb128 0x1
 7220 0878 51       		.byte	0x51
 7221 0879 12       		.byte	0x12
 7222 087a 40       		.byte	0x40
 7223 087b 4B       		.byte	0x4b
 7224 087c 24       		.byte	0x24
 7225 087d 22       		.byte	0x22
 7226 087e 35       		.byte	0x35
 7227 087f 16       		.byte	0x16
 7228 0880 14       		.byte	0x14
 7229 0881 40       		.byte	0x40
 7230 0882 4B       		.byte	0x4b
 7231 0883 24       		.byte	0x24
ARM GAS  C:\Users\AFDHAL~1\AppData\Local\Temp\ccielSKc.s 			page 150


 7232 0884 22       		.byte	0x22
 7233 0885 2D       		.byte	0x2d
 7234 0886 28       		.byte	0x28
 7235 0887 0100     		.2byte	0x1
 7236 0889 16       		.byte	0x16
 7237 088a 13       		.byte	0x13
 7238 088b 9F       		.byte	0x9f
 7239 088c 16000000 		.4byte	.LVL148
 7240 0890 1A000000 		.4byte	.LFE66
 7241 0894 1500     		.2byte	0x15
 7242 0896 71       		.byte	0x71
 7243 0897 00       		.sleb128 0
 7244 0898 12       		.byte	0x12
 7245 0899 40       		.byte	0x40
 7246 089a 4B       		.byte	0x4b
 7247 089b 24       		.byte	0x24
 7248 089c 22       		.byte	0x22
 7249 089d 35       		.byte	0x35
 7250 089e 16       		.byte	0x16
 7251 089f 14       		.byte	0x14
 7252 08a0 40       		.byte	0x40
 7253 08a1 4B       		.byte	0x4b
 7254 08a2 24       		.byte	0x24
 7255 08a3 22       		.byte	0x22
 7256 08a4 2D       		.byte	0x2d
 7257 08a5 28       		.byte	0x28
 7258 08a6 0100     		.2byte	0x1
 7259 08a8 16       		.byte	0x16
 7260 08a9 13       		.byte	0x13
 7261 08aa 9F       		.byte	0x9f
 7262 08ab 00000000 		.4byte	0
 7263 08af 00000000 		.4byte	0
 7264              	.LLST31:
 7265 08b3 00000000 		.4byte	.LVL149
 7266 08b7 0F000000 		.4byte	.LVL151-1
 7267 08bb 0100     		.2byte	0x1
 7268 08bd 50       		.byte	0x50
 7269 08be 0F000000 		.4byte	.LVL151-1
 7270 08c2 12000000 		.4byte	.LFE67
 7271 08c6 0400     		.2byte	0x4
 7272 08c8 F3       		.byte	0xf3
 7273 08c9 01       		.uleb128 0x1
 7274 08ca 50       		.byte	0x50
 7275 08cb 9F       		.byte	0x9f
 7276 08cc 00000000 		.4byte	0
 7277 08d0 00000000 		.4byte	0
 7278              	.LLST32:
 7279 08d4 00000000 		.4byte	.LVL149
 7280 08d8 00000000 		.4byte	.LVL149
 7281 08dc 0100     		.2byte	0x1
 7282 08de 51       		.byte	0x51
 7283 08df 00000000 		.4byte	.LVL149
 7284 08e3 0C000000 		.4byte	.LVL150
 7285 08e7 1400     		.2byte	0x14
 7286 08e9 71       		.byte	0x71
 7287 08ea 00       		.sleb128 0
 7288 08eb 12       		.byte	0x12
ARM GAS  C:\Users\AFDHAL~1\AppData\Local\Temp\ccielSKc.s 			page 151


 7289 08ec 08       		.byte	0x8
 7290 08ed FF       		.byte	0xff
 7291 08ee 1A       		.byte	0x1a
 7292 08ef 08       		.byte	0x8
 7293 08f0 20       		.byte	0x20
 7294 08f1 16       		.byte	0x16
 7295 08f2 14       		.byte	0x14
 7296 08f3 08       		.byte	0x8
 7297 08f4 FF       		.byte	0xff
 7298 08f5 1A       		.byte	0x1a
 7299 08f6 2D       		.byte	0x2d
 7300 08f7 28       		.byte	0x28
 7301 08f8 0100     		.2byte	0x1
 7302 08fa 16       		.byte	0x16
 7303 08fb 13       		.byte	0x13
 7304 08fc 9F       		.byte	0x9f
 7305 08fd 0C000000 		.4byte	.LVL150
 7306 0901 12000000 		.4byte	.LFE67
 7307 0905 1500     		.2byte	0x15
 7308 0907 F3       		.byte	0xf3
 7309 0908 01       		.uleb128 0x1
 7310 0909 51       		.byte	0x51
 7311 090a 12       		.byte	0x12
 7312 090b 08       		.byte	0x8
 7313 090c FF       		.byte	0xff
 7314 090d 1A       		.byte	0x1a
 7315 090e 08       		.byte	0x8
 7316 090f 20       		.byte	0x20
 7317 0910 16       		.byte	0x16
 7318 0911 14       		.byte	0x14
 7319 0912 08       		.byte	0x8
 7320 0913 FF       		.byte	0xff
 7321 0914 1A       		.byte	0x1a
 7322 0915 2D       		.byte	0x2d
 7323 0916 28       		.byte	0x28
 7324 0917 0100     		.2byte	0x1
 7325 0919 16       		.byte	0x16
 7326 091a 13       		.byte	0x13
 7327 091b 9F       		.byte	0x9f
 7328 091c 00000000 		.4byte	0
 7329 0920 00000000 		.4byte	0
 7330              	.LLST33:
 7331 0924 00000000 		.4byte	.LVL152
 7332 0928 05000000 		.4byte	.LVL153-1
 7333 092c 0100     		.2byte	0x1
 7334 092e 50       		.byte	0x50
 7335 092f 05000000 		.4byte	.LVL153-1
 7336 0933 08000000 		.4byte	.LFE68
 7337 0937 0400     		.2byte	0x4
 7338 0939 F3       		.byte	0xf3
 7339 093a 01       		.uleb128 0x1
 7340 093b 50       		.byte	0x50
 7341 093c 9F       		.byte	0x9f
 7342 093d 00000000 		.4byte	0
 7343 0941 00000000 		.4byte	0
 7344              	.LLST34:
 7345 0945 00000000 		.4byte	.LVL158
ARM GAS  C:\Users\AFDHAL~1\AppData\Local\Temp\ccielSKc.s 			page 152


 7346 0949 08000000 		.4byte	.LVL159
 7347 094d 0100     		.2byte	0x1
 7348 094f 50       		.byte	0x50
 7349 0950 08000000 		.4byte	.LVL159
 7350 0954 26000000 		.4byte	.LFE70
 7351 0958 0400     		.2byte	0x4
 7352 095a F3       		.byte	0xf3
 7353 095b 01       		.uleb128 0x1
 7354 095c 50       		.byte	0x50
 7355 095d 9F       		.byte	0x9f
 7356 095e 00000000 		.4byte	0
 7357 0962 00000000 		.4byte	0
 7358              	.LLST35:
 7359 0966 00000000 		.4byte	.LVL164
 7360 096a 08000000 		.4byte	.LVL165
 7361 096e 0100     		.2byte	0x1
 7362 0970 50       		.byte	0x50
 7363 0971 08000000 		.4byte	.LVL165
 7364 0975 26000000 		.4byte	.LFE71
 7365 0979 0400     		.2byte	0x4
 7366 097b F3       		.byte	0xf3
 7367 097c 01       		.uleb128 0x1
 7368 097d 50       		.byte	0x50
 7369 097e 9F       		.byte	0x9f
 7370 097f 00000000 		.4byte	0
 7371 0983 00000000 		.4byte	0
 7372              	.LLST36:
 7373 0987 08000000 		.4byte	.LVL182
 7374 098b 0C000000 		.4byte	.LVL183
 7375 098f 0100     		.2byte	0x1
 7376 0991 50       		.byte	0x50
 7377 0992 00000000 		.4byte	0
 7378 0996 00000000 		.4byte	0
 7379              	.LLST37:
 7380 099a 08000000 		.4byte	.LVL184
 7381 099e 0A000000 		.4byte	.LVL185
 7382 09a2 0600     		.2byte	0x6
 7383 09a4 70       		.byte	0x70
 7384 09a5 00       		.sleb128 0
 7385 09a6 09       		.byte	0x9
 7386 09a7 F0       		.byte	0xf0
 7387 09a8 1A       		.byte	0x1a
 7388 09a9 9F       		.byte	0x9f
 7389 09aa 00000000 		.4byte	0
 7390 09ae 00000000 		.4byte	0
 7391              	.LLST38:
 7392 09b2 00000000 		.4byte	.LVL186
 7393 09b6 0D000000 		.4byte	.LVL189-1
 7394 09ba 0100     		.2byte	0x1
 7395 09bc 50       		.byte	0x50
 7396 09bd 0D000000 		.4byte	.LVL189-1
 7397 09c1 10000000 		.4byte	.LVL190
 7398 09c5 0400     		.2byte	0x4
 7399 09c7 F3       		.byte	0xf3
 7400 09c8 01       		.uleb128 0x1
 7401 09c9 50       		.byte	0x50
 7402 09ca 9F       		.byte	0x9f
ARM GAS  C:\Users\AFDHAL~1\AppData\Local\Temp\ccielSKc.s 			page 153


 7403 09cb 10000000 		.4byte	.LVL190
 7404 09cf 14000000 		.4byte	.LFE84
 7405 09d3 0100     		.2byte	0x1
 7406 09d5 50       		.byte	0x50
 7407 09d6 00000000 		.4byte	0
 7408 09da 00000000 		.4byte	0
 7409              	.LLST39:
 7410 09de 00000000 		.4byte	.LVL186
 7411 09e2 06000000 		.4byte	.LVL187
 7412 09e6 0100     		.2byte	0x1
 7413 09e8 51       		.byte	0x51
 7414 09e9 06000000 		.4byte	.LVL187
 7415 09ed 0A000000 		.4byte	.LVL188
 7416 09f1 1600     		.2byte	0x16
 7417 09f3 71       		.byte	0x71
 7418 09f4 00       		.sleb128 0
 7419 09f5 12       		.byte	0x12
 7420 09f6 40       		.byte	0x40
 7421 09f7 4B       		.byte	0x4b
 7422 09f8 24       		.byte	0x24
 7423 09f9 22       		.byte	0x22
 7424 09fa 08       		.byte	0x8
 7425 09fb 20       		.byte	0x20
 7426 09fc 16       		.byte	0x16
 7427 09fd 14       		.byte	0x14
 7428 09fe 40       		.byte	0x40
 7429 09ff 4B       		.byte	0x4b
 7430 0a00 24       		.byte	0x24
 7431 0a01 22       		.byte	0x22
 7432 0a02 2D       		.byte	0x2d
 7433 0a03 28       		.byte	0x28
 7434 0a04 0100     		.2byte	0x1
 7435 0a06 16       		.byte	0x16
 7436 0a07 13       		.byte	0x13
 7437 0a08 9F       		.byte	0x9f
 7438 0a09 0A000000 		.4byte	.LVL188
 7439 0a0d 0E000000 		.4byte	.LVL189
 7440 0a11 1700     		.2byte	0x17
 7441 0a13 F3       		.byte	0xf3
 7442 0a14 01       		.uleb128 0x1
 7443 0a15 51       		.byte	0x51
 7444 0a16 12       		.byte	0x12
 7445 0a17 40       		.byte	0x40
 7446 0a18 4B       		.byte	0x4b
 7447 0a19 24       		.byte	0x24
 7448 0a1a 22       		.byte	0x22
 7449 0a1b 08       		.byte	0x8
 7450 0a1c 20       		.byte	0x20
 7451 0a1d 16       		.byte	0x16
 7452 0a1e 14       		.byte	0x14
 7453 0a1f 40       		.byte	0x40
 7454 0a20 4B       		.byte	0x4b
 7455 0a21 24       		.byte	0x24
 7456 0a22 22       		.byte	0x22
 7457 0a23 2D       		.byte	0x2d
 7458 0a24 28       		.byte	0x28
 7459 0a25 0100     		.2byte	0x1
ARM GAS  C:\Users\AFDHAL~1\AppData\Local\Temp\ccielSKc.s 			page 154


 7460 0a27 16       		.byte	0x16
 7461 0a28 13       		.byte	0x13
 7462 0a29 9F       		.byte	0x9f
 7463 0a2a 10000000 		.4byte	.LVL190
 7464 0a2e 12000000 		.4byte	.LVL191
 7465 0a32 1600     		.2byte	0x16
 7466 0a34 71       		.byte	0x71
 7467 0a35 00       		.sleb128 0
 7468 0a36 12       		.byte	0x12
 7469 0a37 40       		.byte	0x40
 7470 0a38 4B       		.byte	0x4b
 7471 0a39 24       		.byte	0x24
 7472 0a3a 22       		.byte	0x22
 7473 0a3b 08       		.byte	0x8
 7474 0a3c 20       		.byte	0x20
 7475 0a3d 16       		.byte	0x16
 7476 0a3e 14       		.byte	0x14
 7477 0a3f 40       		.byte	0x40
 7478 0a40 4B       		.byte	0x4b
 7479 0a41 24       		.byte	0x24
 7480 0a42 22       		.byte	0x22
 7481 0a43 2D       		.byte	0x2d
 7482 0a44 28       		.byte	0x28
 7483 0a45 0100     		.2byte	0x1
 7484 0a47 16       		.byte	0x16
 7485 0a48 13       		.byte	0x13
 7486 0a49 9F       		.byte	0x9f
 7487 0a4a 12000000 		.4byte	.LVL191
 7488 0a4e 14000000 		.4byte	.LFE84
 7489 0a52 1700     		.2byte	0x17
 7490 0a54 F3       		.byte	0xf3
 7491 0a55 01       		.uleb128 0x1
 7492 0a56 51       		.byte	0x51
 7493 0a57 12       		.byte	0x12
 7494 0a58 40       		.byte	0x40
 7495 0a59 4B       		.byte	0x4b
 7496 0a5a 24       		.byte	0x24
 7497 0a5b 22       		.byte	0x22
 7498 0a5c 08       		.byte	0x8
 7499 0a5d 20       		.byte	0x20
 7500 0a5e 16       		.byte	0x16
 7501 0a5f 14       		.byte	0x14
 7502 0a60 40       		.byte	0x40
 7503 0a61 4B       		.byte	0x4b
 7504 0a62 24       		.byte	0x24
 7505 0a63 22       		.byte	0x22
 7506 0a64 2D       		.byte	0x2d
 7507 0a65 28       		.byte	0x28
 7508 0a66 0100     		.2byte	0x1
 7509 0a68 16       		.byte	0x16
 7510 0a69 13       		.byte	0x13
 7511 0a6a 9F       		.byte	0x9f
 7512 0a6b 00000000 		.4byte	0
 7513 0a6f 00000000 		.4byte	0
 7514              	.LLST40:
 7515 0a73 00000000 		.4byte	.LVL192
 7516 0a77 0D000000 		.4byte	.LVL195-1
ARM GAS  C:\Users\AFDHAL~1\AppData\Local\Temp\ccielSKc.s 			page 155


 7517 0a7b 0100     		.2byte	0x1
 7518 0a7d 50       		.byte	0x50
 7519 0a7e 0D000000 		.4byte	.LVL195-1
 7520 0a82 22000000 		.4byte	.LVL199
 7521 0a86 0400     		.2byte	0x4
 7522 0a88 F3       		.byte	0xf3
 7523 0a89 01       		.uleb128 0x1
 7524 0a8a 50       		.byte	0x50
 7525 0a8b 9F       		.byte	0x9f
 7526 0a8c 22000000 		.4byte	.LVL199
 7527 0a90 26000000 		.4byte	.LFE85
 7528 0a94 0100     		.2byte	0x1
 7529 0a96 50       		.byte	0x50
 7530 0a97 00000000 		.4byte	0
 7531 0a9b 00000000 		.4byte	0
 7532              	.LLST41:
 7533 0a9f 00000000 		.4byte	.LVL192
 7534 0aa3 06000000 		.4byte	.LVL193
 7535 0aa7 0100     		.2byte	0x1
 7536 0aa9 51       		.byte	0x51
 7537 0aaa 06000000 		.4byte	.LVL193
 7538 0aae 0A000000 		.4byte	.LVL194
 7539 0ab2 1600     		.2byte	0x16
 7540 0ab4 71       		.byte	0x71
 7541 0ab5 00       		.sleb128 0
 7542 0ab6 12       		.byte	0x12
 7543 0ab7 40       		.byte	0x40
 7544 0ab8 4B       		.byte	0x4b
 7545 0ab9 24       		.byte	0x24
 7546 0aba 22       		.byte	0x22
 7547 0abb 08       		.byte	0x8
 7548 0abc 20       		.byte	0x20
 7549 0abd 16       		.byte	0x16
 7550 0abe 14       		.byte	0x14
 7551 0abf 40       		.byte	0x40
 7552 0ac0 4B       		.byte	0x4b
 7553 0ac1 24       		.byte	0x24
 7554 0ac2 22       		.byte	0x22
 7555 0ac3 2D       		.byte	0x2d
 7556 0ac4 28       		.byte	0x28
 7557 0ac5 0100     		.2byte	0x1
 7558 0ac7 16       		.byte	0x16
 7559 0ac8 13       		.byte	0x13
 7560 0ac9 9F       		.byte	0x9f
 7561 0aca 0A000000 		.4byte	.LVL194
 7562 0ace 20000000 		.4byte	.LVL198
 7563 0ad2 1700     		.2byte	0x17
 7564 0ad4 F3       		.byte	0xf3
 7565 0ad5 01       		.uleb128 0x1
 7566 0ad6 51       		.byte	0x51
 7567 0ad7 12       		.byte	0x12
 7568 0ad8 40       		.byte	0x40
 7569 0ad9 4B       		.byte	0x4b
 7570 0ada 24       		.byte	0x24
 7571 0adb 22       		.byte	0x22
 7572 0adc 08       		.byte	0x8
 7573 0add 20       		.byte	0x20
ARM GAS  C:\Users\AFDHAL~1\AppData\Local\Temp\ccielSKc.s 			page 156


 7574 0ade 16       		.byte	0x16
 7575 0adf 14       		.byte	0x14
 7576 0ae0 40       		.byte	0x40
 7577 0ae1 4B       		.byte	0x4b
 7578 0ae2 24       		.byte	0x24
 7579 0ae3 22       		.byte	0x22
 7580 0ae4 2D       		.byte	0x2d
 7581 0ae5 28       		.byte	0x28
 7582 0ae6 0100     		.2byte	0x1
 7583 0ae8 16       		.byte	0x16
 7584 0ae9 13       		.byte	0x13
 7585 0aea 9F       		.byte	0x9f
 7586 0aeb 22000000 		.4byte	.LVL199
 7587 0aef 24000000 		.4byte	.LVL200
 7588 0af3 1600     		.2byte	0x16
 7589 0af5 71       		.byte	0x71
 7590 0af6 00       		.sleb128 0
 7591 0af7 12       		.byte	0x12
 7592 0af8 40       		.byte	0x40
 7593 0af9 4B       		.byte	0x4b
 7594 0afa 24       		.byte	0x24
 7595 0afb 22       		.byte	0x22
 7596 0afc 08       		.byte	0x8
 7597 0afd 20       		.byte	0x20
 7598 0afe 16       		.byte	0x16
 7599 0aff 14       		.byte	0x14
 7600 0b00 40       		.byte	0x40
 7601 0b01 4B       		.byte	0x4b
 7602 0b02 24       		.byte	0x24
 7603 0b03 22       		.byte	0x22
 7604 0b04 2D       		.byte	0x2d
 7605 0b05 28       		.byte	0x28
 7606 0b06 0100     		.2byte	0x1
 7607 0b08 16       		.byte	0x16
 7608 0b09 13       		.byte	0x13
 7609 0b0a 9F       		.byte	0x9f
 7610 0b0b 24000000 		.4byte	.LVL200
 7611 0b0f 26000000 		.4byte	.LFE85
 7612 0b13 1700     		.2byte	0x17
 7613 0b15 F3       		.byte	0xf3
 7614 0b16 01       		.uleb128 0x1
 7615 0b17 51       		.byte	0x51
 7616 0b18 12       		.byte	0x12
 7617 0b19 40       		.byte	0x40
 7618 0b1a 4B       		.byte	0x4b
 7619 0b1b 24       		.byte	0x24
 7620 0b1c 22       		.byte	0x22
 7621 0b1d 08       		.byte	0x8
 7622 0b1e 20       		.byte	0x20
 7623 0b1f 16       		.byte	0x16
 7624 0b20 14       		.byte	0x14
 7625 0b21 40       		.byte	0x40
 7626 0b22 4B       		.byte	0x4b
 7627 0b23 24       		.byte	0x24
 7628 0b24 22       		.byte	0x22
 7629 0b25 2D       		.byte	0x2d
 7630 0b26 28       		.byte	0x28
ARM GAS  C:\Users\AFDHAL~1\AppData\Local\Temp\ccielSKc.s 			page 157


 7631 0b27 0100     		.2byte	0x1
 7632 0b29 16       		.byte	0x16
 7633 0b2a 13       		.byte	0x13
 7634 0b2b 9F       		.byte	0x9f
 7635 0b2c 00000000 		.4byte	0
 7636 0b30 00000000 		.4byte	0
 7637              	.LLST42:
 7638 0b34 06000000 		.4byte	.LVL193
 7639 0b38 0A000000 		.4byte	.LVL194
 7640 0b3c 1600     		.2byte	0x16
 7641 0b3e 71       		.byte	0x71
 7642 0b3f 00       		.sleb128 0
 7643 0b40 12       		.byte	0x12
 7644 0b41 40       		.byte	0x40
 7645 0b42 4B       		.byte	0x4b
 7646 0b43 24       		.byte	0x24
 7647 0b44 22       		.byte	0x22
 7648 0b45 08       		.byte	0x8
 7649 0b46 20       		.byte	0x20
 7650 0b47 16       		.byte	0x16
 7651 0b48 14       		.byte	0x14
 7652 0b49 40       		.byte	0x40
 7653 0b4a 4B       		.byte	0x4b
 7654 0b4b 24       		.byte	0x24
 7655 0b4c 22       		.byte	0x22
 7656 0b4d 2D       		.byte	0x2d
 7657 0b4e 28       		.byte	0x28
 7658 0b4f 0100     		.2byte	0x1
 7659 0b51 16       		.byte	0x16
 7660 0b52 13       		.byte	0x13
 7661 0b53 9F       		.byte	0x9f
 7662 0b54 0A000000 		.4byte	.LVL194
 7663 0b58 0E000000 		.4byte	.LVL195
 7664 0b5c 1700     		.2byte	0x17
 7665 0b5e F3       		.byte	0xf3
 7666 0b5f 01       		.uleb128 0x1
 7667 0b60 51       		.byte	0x51
 7668 0b61 12       		.byte	0x12
 7669 0b62 40       		.byte	0x40
 7670 0b63 4B       		.byte	0x4b
 7671 0b64 24       		.byte	0x24
 7672 0b65 22       		.byte	0x22
 7673 0b66 08       		.byte	0x8
 7674 0b67 20       		.byte	0x20
 7675 0b68 16       		.byte	0x16
 7676 0b69 14       		.byte	0x14
 7677 0b6a 40       		.byte	0x40
 7678 0b6b 4B       		.byte	0x4b
 7679 0b6c 24       		.byte	0x24
 7680 0b6d 22       		.byte	0x22
 7681 0b6e 2D       		.byte	0x2d
 7682 0b6f 28       		.byte	0x28
 7683 0b70 0100     		.2byte	0x1
 7684 0b72 16       		.byte	0x16
 7685 0b73 13       		.byte	0x13
 7686 0b74 9F       		.byte	0x9f
 7687 0b75 22000000 		.4byte	.LVL199
ARM GAS  C:\Users\AFDHAL~1\AppData\Local\Temp\ccielSKc.s 			page 158


 7688 0b79 24000000 		.4byte	.LVL200
 7689 0b7d 1600     		.2byte	0x16
 7690 0b7f 71       		.byte	0x71
 7691 0b80 00       		.sleb128 0
 7692 0b81 12       		.byte	0x12
 7693 0b82 40       		.byte	0x40
 7694 0b83 4B       		.byte	0x4b
 7695 0b84 24       		.byte	0x24
 7696 0b85 22       		.byte	0x22
 7697 0b86 08       		.byte	0x8
 7698 0b87 20       		.byte	0x20
 7699 0b88 16       		.byte	0x16
 7700 0b89 14       		.byte	0x14
 7701 0b8a 40       		.byte	0x40
 7702 0b8b 4B       		.byte	0x4b
 7703 0b8c 24       		.byte	0x24
 7704 0b8d 22       		.byte	0x22
 7705 0b8e 2D       		.byte	0x2d
 7706 0b8f 28       		.byte	0x28
 7707 0b90 0100     		.2byte	0x1
 7708 0b92 16       		.byte	0x16
 7709 0b93 13       		.byte	0x13
 7710 0b94 9F       		.byte	0x9f
 7711 0b95 24000000 		.4byte	.LVL200
 7712 0b99 26000000 		.4byte	.LFE85
 7713 0b9d 1700     		.2byte	0x17
 7714 0b9f F3       		.byte	0xf3
 7715 0ba0 01       		.uleb128 0x1
 7716 0ba1 51       		.byte	0x51
 7717 0ba2 12       		.byte	0x12
 7718 0ba3 40       		.byte	0x40
 7719 0ba4 4B       		.byte	0x4b
 7720 0ba5 24       		.byte	0x24
 7721 0ba6 22       		.byte	0x22
 7722 0ba7 08       		.byte	0x8
 7723 0ba8 20       		.byte	0x20
 7724 0ba9 16       		.byte	0x16
 7725 0baa 14       		.byte	0x14
 7726 0bab 40       		.byte	0x40
 7727 0bac 4B       		.byte	0x4b
 7728 0bad 24       		.byte	0x24
 7729 0bae 22       		.byte	0x22
 7730 0baf 2D       		.byte	0x2d
 7731 0bb0 28       		.byte	0x28
 7732 0bb1 0100     		.2byte	0x1
 7733 0bb3 16       		.byte	0x16
 7734 0bb4 13       		.byte	0x13
 7735 0bb5 9F       		.byte	0x9f
 7736 0bb6 00000000 		.4byte	0
 7737 0bba 00000000 		.4byte	0
 7738              	.LLST43:
 7739 0bbe 06000000 		.4byte	.LVL193
 7740 0bc2 0D000000 		.4byte	.LVL195-1
 7741 0bc6 0100     		.2byte	0x1
 7742 0bc8 50       		.byte	0x50
 7743 0bc9 0D000000 		.4byte	.LVL195-1
 7744 0bcd 0E000000 		.4byte	.LVL195
ARM GAS  C:\Users\AFDHAL~1\AppData\Local\Temp\ccielSKc.s 			page 159


 7745 0bd1 0400     		.2byte	0x4
 7746 0bd3 F3       		.byte	0xf3
 7747 0bd4 01       		.uleb128 0x1
 7748 0bd5 50       		.byte	0x50
 7749 0bd6 9F       		.byte	0x9f
 7750 0bd7 22000000 		.4byte	.LVL199
 7751 0bdb 26000000 		.4byte	.LFE85
 7752 0bdf 0100     		.2byte	0x1
 7753 0be1 50       		.byte	0x50
 7754 0be2 00000000 		.4byte	0
 7755 0be6 00000000 		.4byte	0
 7756              	.LLST44:
 7757 0bea 00000000 		.4byte	.LVL202
 7758 0bee 0C000000 		.4byte	.LVL203
 7759 0bf2 0100     		.2byte	0x1
 7760 0bf4 50       		.byte	0x50
 7761 0bf5 0C000000 		.4byte	.LVL203
 7762 0bf9 1E000000 		.4byte	.LVL207
 7763 0bfd 0100     		.2byte	0x1
 7764 0bff 54       		.byte	0x54
 7765 0c00 1E000000 		.4byte	.LVL207
 7766 0c04 20000000 		.4byte	.LFE87
 7767 0c08 0400     		.2byte	0x4
 7768 0c0a F3       		.byte	0xf3
 7769 0c0b 01       		.uleb128 0x1
 7770 0c0c 50       		.byte	0x50
 7771 0c0d 9F       		.byte	0x9f
 7772 0c0e 00000000 		.4byte	0
 7773 0c12 00000000 		.4byte	0
 7774              	.LLST45:
 7775 0c16 00000000 		.4byte	.LVL202
 7776 0c1a 0F000000 		.4byte	.LVL204-1
 7777 0c1e 0100     		.2byte	0x1
 7778 0c20 51       		.byte	0x51
 7779 0c21 0F000000 		.4byte	.LVL204-1
 7780 0c25 1E000000 		.4byte	.LVL208
 7781 0c29 0100     		.2byte	0x1
 7782 0c2b 55       		.byte	0x55
 7783 0c2c 1E000000 		.4byte	.LVL208
 7784 0c30 20000000 		.4byte	.LFE87
 7785 0c34 0400     		.2byte	0x4
 7786 0c36 F3       		.byte	0xf3
 7787 0c37 01       		.uleb128 0x1
 7788 0c38 51       		.byte	0x51
 7789 0c39 9F       		.byte	0x9f
 7790 0c3a 00000000 		.4byte	0
 7791 0c3e 00000000 		.4byte	0
 7792              	.LLST46:
 7793 0c42 00000000 		.4byte	.LVL209
 7794 0c46 0D000000 		.4byte	.LVL210-1
 7795 0c4a 0100     		.2byte	0x1
 7796 0c4c 50       		.byte	0x50
 7797 0c4d 0D000000 		.4byte	.LVL210-1
 7798 0c51 22000000 		.4byte	.LFE88
 7799 0c55 0400     		.2byte	0x4
 7800 0c57 F3       		.byte	0xf3
 7801 0c58 01       		.uleb128 0x1
ARM GAS  C:\Users\AFDHAL~1\AppData\Local\Temp\ccielSKc.s 			page 160


 7802 0c59 50       		.byte	0x50
 7803 0c5a 9F       		.byte	0x9f
 7804 0c5b 00000000 		.4byte	0
 7805 0c5f 00000000 		.4byte	0
 7806              	.LLST47:
 7807 0c63 00000000 		.4byte	.LVL209
 7808 0c67 0D000000 		.4byte	.LVL210-1
 7809 0c6b 0100     		.2byte	0x1
 7810 0c6d 51       		.byte	0x51
 7811 0c6e 0D000000 		.4byte	.LVL210-1
 7812 0c72 22000000 		.4byte	.LFE88
 7813 0c76 0400     		.2byte	0x4
 7814 0c78 F3       		.byte	0xf3
 7815 0c79 01       		.uleb128 0x1
 7816 0c7a 51       		.byte	0x51
 7817 0c7b 9F       		.byte	0x9f
 7818 0c7c 00000000 		.4byte	0
 7819 0c80 00000000 		.4byte	0
 7820              	.LLST48:
 7821 0c84 00000000 		.4byte	.LVL214
 7822 0c88 0D000000 		.4byte	.LVL217-1
 7823 0c8c 0100     		.2byte	0x1
 7824 0c8e 50       		.byte	0x50
 7825 0c8f 0D000000 		.4byte	.LVL217-1
 7826 0c93 10000000 		.4byte	.LVL218
 7827 0c97 0400     		.2byte	0x4
 7828 0c99 F3       		.byte	0xf3
 7829 0c9a 01       		.uleb128 0x1
 7830 0c9b 50       		.byte	0x50
 7831 0c9c 9F       		.byte	0x9f
 7832 0c9d 10000000 		.4byte	.LVL218
 7833 0ca1 14000000 		.4byte	.LFE89
 7834 0ca5 0100     		.2byte	0x1
 7835 0ca7 50       		.byte	0x50
 7836 0ca8 00000000 		.4byte	0
 7837 0cac 00000000 		.4byte	0
 7838              	.LLST49:
 7839 0cb0 00000000 		.4byte	.LVL214
 7840 0cb4 0D000000 		.4byte	.LVL217-1
 7841 0cb8 0100     		.2byte	0x1
 7842 0cba 51       		.byte	0x51
 7843 0cbb 0D000000 		.4byte	.LVL217-1
 7844 0cbf 10000000 		.4byte	.LVL218
 7845 0cc3 0400     		.2byte	0x4
 7846 0cc5 F3       		.byte	0xf3
 7847 0cc6 01       		.uleb128 0x1
 7848 0cc7 51       		.byte	0x51
 7849 0cc8 9F       		.byte	0x9f
 7850 0cc9 10000000 		.4byte	.LVL218
 7851 0ccd 14000000 		.4byte	.LFE89
 7852 0cd1 0100     		.2byte	0x1
 7853 0cd3 51       		.byte	0x51
 7854 0cd4 00000000 		.4byte	0
 7855 0cd8 00000000 		.4byte	0
 7856              	.LLST50:
 7857 0cdc 00000000 		.4byte	.LVL214
 7858 0ce0 06000000 		.4byte	.LVL215
ARM GAS  C:\Users\AFDHAL~1\AppData\Local\Temp\ccielSKc.s 			page 161


 7859 0ce4 0100     		.2byte	0x1
 7860 0ce6 52       		.byte	0x52
 7861 0ce7 06000000 		.4byte	.LVL215
 7862 0ceb 0A000000 		.4byte	.LVL216
 7863 0cef 1600     		.2byte	0x16
 7864 0cf1 72       		.byte	0x72
 7865 0cf2 00       		.sleb128 0
 7866 0cf3 12       		.byte	0x12
 7867 0cf4 40       		.byte	0x40
 7868 0cf5 4B       		.byte	0x4b
 7869 0cf6 24       		.byte	0x24
 7870 0cf7 22       		.byte	0x22
 7871 0cf8 08       		.byte	0x8
 7872 0cf9 20       		.byte	0x20
 7873 0cfa 16       		.byte	0x16
 7874 0cfb 14       		.byte	0x14
 7875 0cfc 40       		.byte	0x40
 7876 0cfd 4B       		.byte	0x4b
 7877 0cfe 24       		.byte	0x24
 7878 0cff 22       		.byte	0x22
 7879 0d00 2D       		.byte	0x2d
 7880 0d01 28       		.byte	0x28
 7881 0d02 0100     		.2byte	0x1
 7882 0d04 16       		.byte	0x16
 7883 0d05 13       		.byte	0x13
 7884 0d06 9F       		.byte	0x9f
 7885 0d07 0A000000 		.4byte	.LVL216
 7886 0d0b 0E000000 		.4byte	.LVL217
 7887 0d0f 1700     		.2byte	0x17
 7888 0d11 F3       		.byte	0xf3
 7889 0d12 01       		.uleb128 0x1
 7890 0d13 52       		.byte	0x52
 7891 0d14 12       		.byte	0x12
 7892 0d15 40       		.byte	0x40
 7893 0d16 4B       		.byte	0x4b
 7894 0d17 24       		.byte	0x24
 7895 0d18 22       		.byte	0x22
 7896 0d19 08       		.byte	0x8
 7897 0d1a 20       		.byte	0x20
 7898 0d1b 16       		.byte	0x16
 7899 0d1c 14       		.byte	0x14
 7900 0d1d 40       		.byte	0x40
 7901 0d1e 4B       		.byte	0x4b
 7902 0d1f 24       		.byte	0x24
 7903 0d20 22       		.byte	0x22
 7904 0d21 2D       		.byte	0x2d
 7905 0d22 28       		.byte	0x28
 7906 0d23 0100     		.2byte	0x1
 7907 0d25 16       		.byte	0x16
 7908 0d26 13       		.byte	0x13
 7909 0d27 9F       		.byte	0x9f
 7910 0d28 10000000 		.4byte	.LVL218
 7911 0d2c 12000000 		.4byte	.LVL219
 7912 0d30 1600     		.2byte	0x16
 7913 0d32 72       		.byte	0x72
 7914 0d33 00       		.sleb128 0
 7915 0d34 12       		.byte	0x12
ARM GAS  C:\Users\AFDHAL~1\AppData\Local\Temp\ccielSKc.s 			page 162


 7916 0d35 40       		.byte	0x40
 7917 0d36 4B       		.byte	0x4b
 7918 0d37 24       		.byte	0x24
 7919 0d38 22       		.byte	0x22
 7920 0d39 08       		.byte	0x8
 7921 0d3a 20       		.byte	0x20
 7922 0d3b 16       		.byte	0x16
 7923 0d3c 14       		.byte	0x14
 7924 0d3d 40       		.byte	0x40
 7925 0d3e 4B       		.byte	0x4b
 7926 0d3f 24       		.byte	0x24
 7927 0d40 22       		.byte	0x22
 7928 0d41 2D       		.byte	0x2d
 7929 0d42 28       		.byte	0x28
 7930 0d43 0100     		.2byte	0x1
 7931 0d45 16       		.byte	0x16
 7932 0d46 13       		.byte	0x13
 7933 0d47 9F       		.byte	0x9f
 7934 0d48 12000000 		.4byte	.LVL219
 7935 0d4c 14000000 		.4byte	.LFE89
 7936 0d50 1700     		.2byte	0x17
 7937 0d52 F3       		.byte	0xf3
 7938 0d53 01       		.uleb128 0x1
 7939 0d54 52       		.byte	0x52
 7940 0d55 12       		.byte	0x12
 7941 0d56 40       		.byte	0x40
 7942 0d57 4B       		.byte	0x4b
 7943 0d58 24       		.byte	0x24
 7944 0d59 22       		.byte	0x22
 7945 0d5a 08       		.byte	0x8
 7946 0d5b 20       		.byte	0x20
 7947 0d5c 16       		.byte	0x16
 7948 0d5d 14       		.byte	0x14
 7949 0d5e 40       		.byte	0x40
 7950 0d5f 4B       		.byte	0x4b
 7951 0d60 24       		.byte	0x24
 7952 0d61 22       		.byte	0x22
 7953 0d62 2D       		.byte	0x2d
 7954 0d63 28       		.byte	0x28
 7955 0d64 0100     		.2byte	0x1
 7956 0d66 16       		.byte	0x16
 7957 0d67 13       		.byte	0x13
 7958 0d68 9F       		.byte	0x9f
 7959 0d69 00000000 		.4byte	0
 7960 0d6d 00000000 		.4byte	0
 7961              	.LLST51:
 7962 0d71 08000000 		.4byte	.LVL220
 7963 0d75 0A000000 		.4byte	.LVL221
 7964 0d79 0100     		.2byte	0x1
 7965 0d7b 50       		.byte	0x50
 7966 0d7c 00000000 		.4byte	0
 7967 0d80 00000000 		.4byte	0
 7968              	.LLST52:
 7969 0d84 00000000 		.4byte	.LVL226
 7970 0d88 0A000000 		.4byte	.LVL227
 7971 0d8c 0100     		.2byte	0x1
 7972 0d8e 50       		.byte	0x50
ARM GAS  C:\Users\AFDHAL~1\AppData\Local\Temp\ccielSKc.s 			page 163


 7973 0d8f 0A000000 		.4byte	.LVL227
 7974 0d93 10000000 		.4byte	.LFE95
 7975 0d97 0400     		.2byte	0x4
 7976 0d99 F3       		.byte	0xf3
 7977 0d9a 01       		.uleb128 0x1
 7978 0d9b 50       		.byte	0x50
 7979 0d9c 9F       		.byte	0x9f
 7980 0d9d 00000000 		.4byte	0
 7981 0da1 00000000 		.4byte	0
 7982              	.LLST53:
 7983 0da5 00000000 		.4byte	.LVL229
 7984 0da9 16000000 		.4byte	.LVL232
 7985 0dad 0200     		.2byte	0x2
 7986 0daf 30       		.byte	0x30
 7987 0db0 9F       		.byte	0x9f
 7988 0db1 16000000 		.4byte	.LVL232
 7989 0db5 18000000 		.4byte	.LVL233
 7990 0db9 0300     		.2byte	0x3
 7991 0dbb 08       		.byte	0x8
 7992 0dbc 70       		.byte	0x70
 7993 0dbd 9F       		.byte	0x9f
 7994 0dbe 18000000 		.4byte	.LVL233
 7995 0dc2 1A000000 		.4byte	.LVL234
 7996 0dc6 0100     		.2byte	0x1
 7997 0dc8 50       		.byte	0x50
 7998 0dc9 1A000000 		.4byte	.LVL234
 7999 0dcd 1E000000 		.4byte	.LVL235
 8000 0dd1 0200     		.2byte	0x2
 8001 0dd3 34       		.byte	0x34
 8002 0dd4 9F       		.byte	0x9f
 8003 0dd5 1E000000 		.4byte	.LVL235
 8004 0dd9 26000000 		.4byte	.LFE96
 8005 0ddd 0200     		.2byte	0x2
 8006 0ddf 30       		.byte	0x30
 8007 0de0 9F       		.byte	0x9f
 8008 0de1 00000000 		.4byte	0
 8009 0de5 00000000 		.4byte	0
 8010              	.LLST54:
 8011 0de9 06000000 		.4byte	.LVL230
 8012 0ded 0A000000 		.4byte	.LVL231
 8013 0df1 0100     		.2byte	0x1
 8014 0df3 50       		.byte	0x50
 8015 0df4 00000000 		.4byte	0
 8016 0df8 00000000 		.4byte	0
 8017              		.section	.debug_aranges,"",%progbits
 8018 0000 EC010000 		.4byte	0x1ec
 8019 0004 0200     		.2byte	0x2
 8020 0006 00000000 		.4byte	.Ldebug_info0
 8021 000a 04       		.byte	0x4
 8022 000b 00       		.byte	0
 8023 000c 0000     		.2byte	0
 8024 000e 0000     		.2byte	0
 8025 0010 00000000 		.4byte	.LFB34
 8026 0014 88000000 		.4byte	.LFE34-.LFB34
 8027 0018 00000000 		.4byte	.LFB35
 8028 001c 5C000000 		.4byte	.LFE35-.LFB35
 8029 0020 00000000 		.4byte	.LFB39
ARM GAS  C:\Users\AFDHAL~1\AppData\Local\Temp\ccielSKc.s 			page 164


 8030 0024 12000000 		.4byte	.LFE39-.LFB39
 8031 0028 00000000 		.4byte	.LFB41
 8032 002c 02000000 		.4byte	.LFE41-.LFB41
 8033 0030 00000000 		.4byte	.LFB42
 8034 0034 18000000 		.4byte	.LFE42-.LFB42
 8035 0038 00000000 		.4byte	.LFB43
 8036 003c 0C000000 		.4byte	.LFE43-.LFB43
 8037 0040 00000000 		.4byte	.LFB44
 8038 0044 12000000 		.4byte	.LFE44-.LFB44
 8039 0048 00000000 		.4byte	.LFB45
 8040 004c 12000000 		.4byte	.LFE45-.LFB45
 8041 0050 00000000 		.4byte	.LFB46
 8042 0054 0C000000 		.4byte	.LFE46-.LFB46
 8043 0058 00000000 		.4byte	.LFB47
 8044 005c 0C000000 		.4byte	.LFE47-.LFB47
 8045 0060 00000000 		.4byte	.LFB48
 8046 0064 0C000000 		.4byte	.LFE48-.LFB48
 8047 0068 00000000 		.4byte	.LFB49
 8048 006c 0C000000 		.4byte	.LFE49-.LFB49
 8049 0070 00000000 		.4byte	.LFB50
 8050 0074 14000000 		.4byte	.LFE50-.LFB50
 8051 0078 00000000 		.4byte	.LFB51
 8052 007c 0C000000 		.4byte	.LFE51-.LFB51
 8053 0080 00000000 		.4byte	.LFB52
 8054 0084 1C000000 		.4byte	.LFE52-.LFB52
 8055 0088 00000000 		.4byte	.LFB53
 8056 008c 1A000000 		.4byte	.LFE53-.LFB53
 8057 0090 00000000 		.4byte	.LFB54
 8058 0094 1A000000 		.4byte	.LFE54-.LFB54
 8059 0098 00000000 		.4byte	.LFB55
 8060 009c 1A000000 		.4byte	.LFE55-.LFB55
 8061 00a0 00000000 		.4byte	.LFB56
 8062 00a4 1A000000 		.4byte	.LFE56-.LFB56
 8063 00a8 00000000 		.4byte	.LFB57
 8064 00ac 0C000000 		.4byte	.LFE57-.LFB57
 8065 00b0 00000000 		.4byte	.LFB58
 8066 00b4 26000000 		.4byte	.LFE58-.LFB58
 8067 00b8 00000000 		.4byte	.LFB59
 8068 00bc 0C000000 		.4byte	.LFE59-.LFB59
 8069 00c0 00000000 		.4byte	.LFB60
 8070 00c4 26000000 		.4byte	.LFE60-.LFB60
 8071 00c8 00000000 		.4byte	.LFB61
 8072 00cc 0C000000 		.4byte	.LFE61-.LFB61
 8073 00d0 00000000 		.4byte	.LFB62
 8074 00d4 26000000 		.4byte	.LFE62-.LFB62
 8075 00d8 00000000 		.4byte	.LFB63
 8076 00dc 0C000000 		.4byte	.LFE63-.LFB63
 8077 00e0 00000000 		.4byte	.LFB64
 8078 00e4 26000000 		.4byte	.LFE64-.LFB64
 8079 00e8 00000000 		.4byte	.LFB65
 8080 00ec 1A000000 		.4byte	.LFE65-.LFB65
 8081 00f0 00000000 		.4byte	.LFB66
 8082 00f4 1A000000 		.4byte	.LFE66-.LFB66
 8083 00f8 00000000 		.4byte	.LFB67
 8084 00fc 12000000 		.4byte	.LFE67-.LFB67
 8085 0100 00000000 		.4byte	.LFB68
 8086 0104 08000000 		.4byte	.LFE68-.LFB68
ARM GAS  C:\Users\AFDHAL~1\AppData\Local\Temp\ccielSKc.s 			page 165


 8087 0108 00000000 		.4byte	.LFB69
 8088 010c 1A000000 		.4byte	.LFE69-.LFB69
 8089 0110 00000000 		.4byte	.LFB70
 8090 0114 26000000 		.4byte	.LFE70-.LFB70
 8091 0118 00000000 		.4byte	.LFB71
 8092 011c 26000000 		.4byte	.LFE71-.LFB71
 8093 0120 00000000 		.4byte	.LFB72
 8094 0124 0C000000 		.4byte	.LFE72-.LFB72
 8095 0128 00000000 		.4byte	.LFB73
 8096 012c 0C000000 		.4byte	.LFE73-.LFB73
 8097 0130 00000000 		.4byte	.LFB74
 8098 0134 0C000000 		.4byte	.LFE74-.LFB74
 8099 0138 00000000 		.4byte	.LFB75
 8100 013c 0C000000 		.4byte	.LFE75-.LFB75
 8101 0140 00000000 		.4byte	.LFB76
 8102 0144 0C000000 		.4byte	.LFE76-.LFB76
 8103 0148 00000000 		.4byte	.LFB77
 8104 014c 0C000000 		.4byte	.LFE77-.LFB77
 8105 0150 00000000 		.4byte	.LFB78
 8106 0154 0A000000 		.4byte	.LFE78-.LFB78
 8107 0158 00000000 		.4byte	.LFB79
 8108 015c 0A000000 		.4byte	.LFE79-.LFB79
 8109 0160 00000000 		.4byte	.LFB80
 8110 0164 16000000 		.4byte	.LFE80-.LFB80
 8111 0168 00000000 		.4byte	.LFB81
 8112 016c 08000000 		.4byte	.LFE81-.LFB81
 8113 0170 00000000 		.4byte	.LFB82
 8114 0174 0E000000 		.4byte	.LFE82-.LFB82
 8115 0178 00000000 		.4byte	.LFB83
 8116 017c 0E000000 		.4byte	.LFE83-.LFB83
 8117 0180 00000000 		.4byte	.LFB84
 8118 0184 14000000 		.4byte	.LFE84-.LFB84
 8119 0188 00000000 		.4byte	.LFB85
 8120 018c 26000000 		.4byte	.LFE85-.LFB85
 8121 0190 00000000 		.4byte	.LFB86
 8122 0194 0C000000 		.4byte	.LFE86-.LFB86
 8123 0198 00000000 		.4byte	.LFB87
 8124 019c 20000000 		.4byte	.LFE87-.LFB87
 8125 01a0 00000000 		.4byte	.LFB88
 8126 01a4 22000000 		.4byte	.LFE88-.LFB88
 8127 01a8 00000000 		.4byte	.LFB89
 8128 01ac 14000000 		.4byte	.LFE89-.LFB89
 8129 01b0 00000000 		.4byte	.LFB90
 8130 01b4 0E000000 		.4byte	.LFE90-.LFB90
 8131 01b8 00000000 		.4byte	.LFB91
 8132 01bc 0C000000 		.4byte	.LFE91-.LFB91
 8133 01c0 00000000 		.4byte	.LFB92
 8134 01c4 0C000000 		.4byte	.LFE92-.LFB92
 8135 01c8 00000000 		.4byte	.LFB93
 8136 01cc 0C000000 		.4byte	.LFE93-.LFB93
 8137 01d0 00000000 		.4byte	.LFB94
 8138 01d4 0C000000 		.4byte	.LFE94-.LFB94
 8139 01d8 00000000 		.4byte	.LFB95
 8140 01dc 10000000 		.4byte	.LFE95-.LFB95
 8141 01e0 00000000 		.4byte	.LFB96
 8142 01e4 26000000 		.4byte	.LFE96-.LFB96
 8143 01e8 00000000 		.4byte	0
ARM GAS  C:\Users\AFDHAL~1\AppData\Local\Temp\ccielSKc.s 			page 166


 8144 01ec 00000000 		.4byte	0
 8145              		.section	.debug_ranges,"",%progbits
 8146              	.Ldebug_ranges0:
 8147 0000 02000000 		.4byte	.LBB28
 8148 0004 04000000 		.4byte	.LBE28
 8149 0008 10000000 		.4byte	.LBB33
 8150 000c 18000000 		.4byte	.LBE33
 8151 0010 00000000 		.4byte	0
 8152 0014 00000000 		.4byte	0
 8153 0018 06000000 		.4byte	.LBB46
 8154 001c 0E000000 		.4byte	.LBE46
 8155 0020 22000000 		.4byte	.LBB51
 8156 0024 26000000 		.4byte	.LBE51
 8157 0028 00000000 		.4byte	0
 8158 002c 00000000 		.4byte	0
 8159 0030 00000000 		.4byte	.LFB34
 8160 0034 88000000 		.4byte	.LFE34
 8161 0038 00000000 		.4byte	.LFB35
 8162 003c 5C000000 		.4byte	.LFE35
 8163 0040 00000000 		.4byte	.LFB39
 8164 0044 12000000 		.4byte	.LFE39
 8165 0048 00000000 		.4byte	.LFB41
 8166 004c 02000000 		.4byte	.LFE41
 8167 0050 00000000 		.4byte	.LFB42
 8168 0054 18000000 		.4byte	.LFE42
 8169 0058 00000000 		.4byte	.LFB43
 8170 005c 0C000000 		.4byte	.LFE43
 8171 0060 00000000 		.4byte	.LFB44
 8172 0064 12000000 		.4byte	.LFE44
 8173 0068 00000000 		.4byte	.LFB45
 8174 006c 12000000 		.4byte	.LFE45
 8175 0070 00000000 		.4byte	.LFB46
 8176 0074 0C000000 		.4byte	.LFE46
 8177 0078 00000000 		.4byte	.LFB47
 8178 007c 0C000000 		.4byte	.LFE47
 8179 0080 00000000 		.4byte	.LFB48
 8180 0084 0C000000 		.4byte	.LFE48
 8181 0088 00000000 		.4byte	.LFB49
 8182 008c 0C000000 		.4byte	.LFE49
 8183 0090 00000000 		.4byte	.LFB50
 8184 0094 14000000 		.4byte	.LFE50
 8185 0098 00000000 		.4byte	.LFB51
 8186 009c 0C000000 		.4byte	.LFE51
 8187 00a0 00000000 		.4byte	.LFB52
 8188 00a4 1C000000 		.4byte	.LFE52
 8189 00a8 00000000 		.4byte	.LFB53
 8190 00ac 1A000000 		.4byte	.LFE53
 8191 00b0 00000000 		.4byte	.LFB54
 8192 00b4 1A000000 		.4byte	.LFE54
 8193 00b8 00000000 		.4byte	.LFB55
 8194 00bc 1A000000 		.4byte	.LFE55
 8195 00c0 00000000 		.4byte	.LFB56
 8196 00c4 1A000000 		.4byte	.LFE56
 8197 00c8 00000000 		.4byte	.LFB57
 8198 00cc 0C000000 		.4byte	.LFE57
 8199 00d0 00000000 		.4byte	.LFB58
 8200 00d4 26000000 		.4byte	.LFE58
ARM GAS  C:\Users\AFDHAL~1\AppData\Local\Temp\ccielSKc.s 			page 167


 8201 00d8 00000000 		.4byte	.LFB59
 8202 00dc 0C000000 		.4byte	.LFE59
 8203 00e0 00000000 		.4byte	.LFB60
 8204 00e4 26000000 		.4byte	.LFE60
 8205 00e8 00000000 		.4byte	.LFB61
 8206 00ec 0C000000 		.4byte	.LFE61
 8207 00f0 00000000 		.4byte	.LFB62
 8208 00f4 26000000 		.4byte	.LFE62
 8209 00f8 00000000 		.4byte	.LFB63
 8210 00fc 0C000000 		.4byte	.LFE63
 8211 0100 00000000 		.4byte	.LFB64
 8212 0104 26000000 		.4byte	.LFE64
 8213 0108 00000000 		.4byte	.LFB65
 8214 010c 1A000000 		.4byte	.LFE65
 8215 0110 00000000 		.4byte	.LFB66
 8216 0114 1A000000 		.4byte	.LFE66
 8217 0118 00000000 		.4byte	.LFB67
 8218 011c 12000000 		.4byte	.LFE67
 8219 0120 00000000 		.4byte	.LFB68
 8220 0124 08000000 		.4byte	.LFE68
 8221 0128 00000000 		.4byte	.LFB69
 8222 012c 1A000000 		.4byte	.LFE69
 8223 0130 00000000 		.4byte	.LFB70
 8224 0134 26000000 		.4byte	.LFE70
 8225 0138 00000000 		.4byte	.LFB71
 8226 013c 26000000 		.4byte	.LFE71
 8227 0140 00000000 		.4byte	.LFB72
 8228 0144 0C000000 		.4byte	.LFE72
 8229 0148 00000000 		.4byte	.LFB73
 8230 014c 0C000000 		.4byte	.LFE73
 8231 0150 00000000 		.4byte	.LFB74
 8232 0154 0C000000 		.4byte	.LFE74
 8233 0158 00000000 		.4byte	.LFB75
 8234 015c 0C000000 		.4byte	.LFE75
 8235 0160 00000000 		.4byte	.LFB76
 8236 0164 0C000000 		.4byte	.LFE76
 8237 0168 00000000 		.4byte	.LFB77
 8238 016c 0C000000 		.4byte	.LFE77
 8239 0170 00000000 		.4byte	.LFB78
 8240 0174 0A000000 		.4byte	.LFE78
 8241 0178 00000000 		.4byte	.LFB79
 8242 017c 0A000000 		.4byte	.LFE79
 8243 0180 00000000 		.4byte	.LFB80
 8244 0184 16000000 		.4byte	.LFE80
 8245 0188 00000000 		.4byte	.LFB81
 8246 018c 08000000 		.4byte	.LFE81
 8247 0190 00000000 		.4byte	.LFB82
 8248 0194 0E000000 		.4byte	.LFE82
 8249 0198 00000000 		.4byte	.LFB83
 8250 019c 0E000000 		.4byte	.LFE83
 8251 01a0 00000000 		.4byte	.LFB84
 8252 01a4 14000000 		.4byte	.LFE84
 8253 01a8 00000000 		.4byte	.LFB85
 8254 01ac 26000000 		.4byte	.LFE85
 8255 01b0 00000000 		.4byte	.LFB86
 8256 01b4 0C000000 		.4byte	.LFE86
 8257 01b8 00000000 		.4byte	.LFB87
ARM GAS  C:\Users\AFDHAL~1\AppData\Local\Temp\ccielSKc.s 			page 168


 8258 01bc 20000000 		.4byte	.LFE87
 8259 01c0 00000000 		.4byte	.LFB88
 8260 01c4 22000000 		.4byte	.LFE88
 8261 01c8 00000000 		.4byte	.LFB89
 8262 01cc 14000000 		.4byte	.LFE89
 8263 01d0 00000000 		.4byte	.LFB90
 8264 01d4 0E000000 		.4byte	.LFE90
 8265 01d8 00000000 		.4byte	.LFB91
 8266 01dc 0C000000 		.4byte	.LFE91
 8267 01e0 00000000 		.4byte	.LFB92
 8268 01e4 0C000000 		.4byte	.LFE92
 8269 01e8 00000000 		.4byte	.LFB93
 8270 01ec 0C000000 		.4byte	.LFE93
 8271 01f0 00000000 		.4byte	.LFB94
 8272 01f4 0C000000 		.4byte	.LFE94
 8273 01f8 00000000 		.4byte	.LFB95
 8274 01fc 10000000 		.4byte	.LFE95
 8275 0200 00000000 		.4byte	.LFB96
 8276 0204 26000000 		.4byte	.LFE96
 8277 0208 00000000 		.4byte	0
 8278 020c 00000000 		.4byte	0
 8279              		.section	.debug_line,"",%progbits
 8280              	.Ldebug_line0:
 8281 0000 07070000 		.section	.debug_str,"MS",%progbits,1
 8281      02001402 
 8281      00000201 
 8281      FB0E0D00 
 8281      01010101 
 8282              	.LASF111:
 8283 0000 4E52465F 		.ascii	"NRF_DYNPD_DPL_P2\000"
 8283      44594E50 
 8283      445F4450 
 8283      4C5F5032 
 8283      00
 8284              	.LASF112:
 8285 0011 4E52465F 		.ascii	"NRF_DYNPD_DPL_P3\000"
 8285      44594E50 
 8285      445F4450 
 8285      4C5F5033 
 8285      00
 8286              	.LASF113:
 8287 0022 4E52465F 		.ascii	"NRF_DYNPD_DPL_P4\000"
 8287      44594E50 
 8287      445F4450 
 8287      4C5F5034 
 8287      00
 8288              	.LASF114:
 8289 0033 4E52465F 		.ascii	"NRF_DYNPD_DPL_P5\000"
 8289      44594E50 
 8289      445F4450 
 8289      4C5F5035 
 8289      00
 8290              	.LASF193:
 8291 0044 6972715F 		.ascii	"irq_flag\000"
 8291      666C6167 
 8291      00
 8292              	.LASF196:
ARM GAS  C:\Users\AFDHAL~1\AppData\Local\Temp\ccielSKc.s 			page 169


 8293 004d 43794465 		.ascii	"CyDelay\000"
 8293      6C617900 
 8294              	.LASF40:
 8295 0055 4E52465F 		.ascii	"NRF_FIFO_STATUS_REG\000"
 8295      4649464F 
 8295      5F535441 
 8295      5455535F 
 8295      52454700 
 8296              	.LASF96:
 8297 0069 4E52465F 		.ascii	"NRF_STATUS_MAX_RT_MASK\000"
 8297      53544154 
 8297      55535F4D 
 8297      41585F52 
 8297      545F4D41 
 8298              	.LASF170:
 8299 0080 6E524632 		.ascii	"nRF24_enable_dynamic_payload\000"
 8299      345F656E 
 8299      61626C65 
 8299      5F64796E 
 8299      616D6963 
 8300              	.LASF144:
 8301 009d 6E524632 		.ascii	"nRF24_disable_auto_ack\000"
 8301      345F6469 
 8301      7361626C 
 8301      655F6175 
 8301      746F5F61 
 8302              	.LASF70:
 8303 00b4 4E52465F 		.ascii	"NRF_CONFIG_MASK_TX_DS\000"
 8303      434F4E46 
 8303      49475F4D 
 8303      41534B5F 
 8303      54585F44 
 8304              	.LASF61:
 8305 00ca 4E52465F 		.ascii	"NRF_MAX_RT_IRQ\000"
 8305      4D41585F 
 8305      52545F49 
 8305      525100
 8306              	.LASF72:
 8307 00d9 4E52465F 		.ascii	"NRF_EN_AA_ENAA_P0\000"
 8307      454E5F41 
 8307      415F454E 
 8307      41415F50 
 8307      3000
 8308              	.LASF172:
 8309 00eb 6E524632 		.ascii	"nRF24_enable_dynamic_payload_length\000"
 8309      345F656E 
 8309      61626C65 
 8309      5F64796E 
 8309      616D6963 
 8310              	.LASF8:
 8311 010f 756E7369 		.ascii	"unsigned int\000"
 8311      676E6564 
 8311      20696E74 
 8311      00
 8312              	.LASF98:
 8313 011c 4E52465F 		.ascii	"NRF_STATUS_RX_DR_MASK\000"
 8313      53544154 
ARM GAS  C:\Users\AFDHAL~1\AppData\Local\Temp\ccielSKc.s 			page 170


 8313      55535F52 
 8313      585F4452 
 8313      5F4D4153 
 8314              	.LASF60:
 8315 0132 4E52465F 		.ascii	"NRF_NONE_IRQ\000"
 8315      4E4F4E45 
 8315      5F495251 
 8315      00
 8316              	.LASF169:
 8317 013f 6E524632 		.ascii	"nRF24_reuse_last_transmitted_payload\000"
 8317      345F7265 
 8317      7573655F 
 8317      6C617374 
 8317      5F747261 
 8318              	.LASF124:
 8319 0164 4E52465F 		.ascii	"NRF_ALL_IRQ_MASK\000"
 8319      414C4C5F 
 8319      4952515F 
 8319      4D41534B 
 8319      00
 8320              	.LASF125:
 8321 0175 4E52465F 		.ascii	"NRF_STATUS_PIPES_MASK\000"
 8321      53544154 
 8321      55535F50 
 8321      49504553 
 8321      5F4D4153 
 8322              	.LASF69:
 8323 018b 4E52465F 		.ascii	"NRF_CONFIG_MASK_MAX_RT\000"
 8323      434F4E46 
 8323      49475F4D 
 8323      41534B5F 
 8323      4D41585F 
 8324              	.LASF84:
 8325 01a2 4E52465F 		.ascii	"NRF_SETUP_AW_3BYTES\000"
 8325      53455455 
 8325      505F4157 
 8325      5F334259 
 8325      54455300 
 8326              	.LASF133:
 8327 01b6 6E524632 		.ascii	"nRF24_clear_all_irqs\000"
 8327      345F636C 
 8327      6561725F 
 8327      616C6C5F 
 8327      69727173 
 8328              	.LASF159:
 8329 01cb 6E524632 		.ascii	"nRF24_set_rx_pipe_4_address\000"
 8329      345F7365 
 8329      745F7278 
 8329      5F706970 
 8329      655F345F 
 8330              	.LASF151:
 8331 01e7 6E524632 		.ascii	"nRF24_get_rx_pipe_0_address\000"
 8331      345F6765 
 8331      745F7278 
 8331      5F706970 
 8331      655F305F 
 8332              	.LASF30:
ARM GAS  C:\Users\AFDHAL~1\AppData\Local\Temp\ccielSKc.s 			page 171


 8333 0203 4E52465F 		.ascii	"NRF_RX_ADDR_P3_REG\000"
 8333      52585F41 
 8333      4444525F 
 8333      50335F52 
 8333      454700
 8334              	.LASF142:
 8335 0216 6D6F6465 		.ascii	"mode\000"
 8335      00
 8336              	.LASF21:
 8337 021b 4E52465F 		.ascii	"NRF_SETUP_RETR_REG\000"
 8337      53455455 
 8337      505F5245 
 8337      54525F52 
 8337      454700
 8338              	.LASF126:
 8339 022e 6E524632 		.ascii	"nRF24_set_rx_mode\000"
 8339      345F7365 
 8339      745F7278 
 8339      5F6D6F64 
 8339      6500
 8340              	.LASF59:
 8341 0240 6E72665F 		.ascii	"nrf_mode\000"
 8341      6D6F6465 
 8341      00
 8342              	.LASF38:
 8343 0249 4E52465F 		.ascii	"NRF_RX_PW_P4_REG\000"
 8343      52585F50 
 8343      575F5034 
 8343      5F524547 
 8343      00
 8344              	.LASF123:
 8345 025a 4E52465F 		.ascii	"NRF_MAX_RF_CHANNEL\000"
 8345      4D41585F 
 8345      52465F43 
 8345      48414E4E 
 8345      454C00
 8346              	.LASF41:
 8347 026d 4E52465F 		.ascii	"NRF_DYNPD_REG\000"
 8347      44594E50 
 8347      445F5245 
 8347      4700
 8348              	.LASF97:
 8349 027b 4E52465F 		.ascii	"NRF_STATUS_TX_DS_MASK\000"
 8349      53544154 
 8349      55535F54 
 8349      585F4453 
 8349      5F4D4153 
 8350              	.LASF218:
 8351 0291 6E524632 		.ascii	"nRF24_put_in_tx_fifo\000"
 8351      345F7075 
 8351      745F696E 
 8351      5F74785F 
 8351      6669666F 
 8352              	.LASF182:
 8353 02a6 6E524632 		.ascii	"nRF24_transmit\000"
 8353      345F7472 
 8353      616E736D 
ARM GAS  C:\Users\AFDHAL~1\AppData\Local\Temp\ccielSKc.s 			page 172


 8353      697400
 8354              	.LASF27:
 8355 02b5 4E52465F 		.ascii	"NRF_RX_ADDR_P0_REG\000"
 8355      52585F41 
 8355      4444525F 
 8355      50305F52 
 8355      454700
 8356              	.LASF212:
 8357 02c8 6E524632 		.ascii	"nRF24_no_ack_payload_cmd\000"
 8357      345F6E6F 
 8357      5F61636B 
 8357      5F706179 
 8357      6C6F6164 
 8358              	.LASF178:
 8359 02e1 6E524632 		.ascii	"nRF24_get_retransmissions_count\000"
 8359      345F6765 
 8359      745F7265 
 8359      7472616E 
 8359      736D6973 
 8360              	.LASF99:
 8361 0301 4E52465F 		.ascii	"NRF_OBSERVE_TX_ARC_CNT\000"
 8361      4F425345 
 8361      5256455F 
 8361      54585F41 
 8361      52435F43 
 8362              	.LASF139:
 8363 0318 6E524632 		.ascii	"nRF24_set_power_down_mode\000"
 8363      345F7365 
 8363      745F706F 
 8363      7765725F 
 8363      646F776E 
 8364              	.LASF42:
 8365 0332 4E52465F 		.ascii	"NRF_FEATURE_REG\000"
 8365      46454154 
 8365      5552455F 
 8365      52454700 
 8366              	.LASF208:
 8367 0342 6E524632 		.ascii	"nRF24_reuse_tx_payload_cmd\000"
 8367      345F7265 
 8367      7573655F 
 8367      74785F70 
 8367      61796C6F 
 8368              	.LASF35:
 8369 035d 4E52465F 		.ascii	"NRF_RX_PW_P1_REG\000"
 8369      52585F50 
 8369      575F5031 
 8369      5F524547 
 8369      00
 8370              	.LASF177:
 8371 036e 6E524632 		.ascii	"nRF24_disable_payload_with_no_ack_cmd\000"
 8371      345F6469 
 8371      7361626C 
 8371      655F7061 
 8371      796C6F61 
 8372              	.LASF203:
 8373 0394 6E524632 		.ascii	"nRF24_set_bit\000"
 8373      345F7365 
ARM GAS  C:\Users\AFDHAL~1\AppData\Local\Temp\ccielSKc.s 			page 173


 8373      745F6269 
 8373      7400
 8374              	.LASF11:
 8375 03a2 666C6F61 		.ascii	"float\000"
 8375      7400
 8376              	.LASF136:
 8377 03a8 6E524632 		.ascii	"nRF24_wakeup\000"
 8377      345F7761 
 8377      6B657570 
 8377      00
 8378              	.LASF106:
 8379 03b5 4E52465F 		.ascii	"NRF_FIFO_STATUS_TX_EMPTY\000"
 8379      4649464F 
 8379      5F535441 
 8379      5455535F 
 8379      54585F45 
 8380              	.LASF215:
 8381 03ce 474E5520 		.ascii	"GNU C11 5.4.1 20160609 (release) [ARM/embedded-5-br"
 8381      43313120 
 8381      352E342E 
 8381      31203230 
 8381      31363036 
 8382 0401 616E6368 		.ascii	"anch revision 237715] -mcpu=cortex-m0 -mthumb -g -O"
 8382      20726576 
 8382      6973696F 
 8382      6E203233 
 8382      37373135 
 8383 0434 33202D66 		.ascii	"3 -ffunction-sections -ffat-lto-objects\000"
 8383      66756E63 
 8383      74696F6E 
 8383      2D736563 
 8383      74696F6E 
 8384              	.LASF179:
 8385 045c 636F756E 		.ascii	"count\000"
 8385      7400
 8386              	.LASF202:
 8387 0462 43794465 		.ascii	"CyDelayUs\000"
 8387      6C617955 
 8387      7300
 8388              	.LASF128:
 8389 046c 6E524632 		.ascii	"nRF24_start_listening\000"
 8389      345F7374 
 8389      6172745F 
 8389      6C697374 
 8389      656E696E 
 8390              	.LASF199:
 8391 0482 5350495F 		.ascii	"SPI_Start\000"
 8391      53746172 
 8391      7400
 8392              	.LASF7:
 8393 048c 6C6F6E67 		.ascii	"long long unsigned int\000"
 8393      206C6F6E 
 8393      6720756E 
 8393      7369676E 
 8393      65642069 
 8394              	.LASF102:
 8395 04a3 4E52465F 		.ascii	"NRF_OBSERVE_TX_PLOS_CNT_MASK\000"
ARM GAS  C:\Users\AFDHAL~1\AppData\Local\Temp\ccielSKc.s 			page 174


 8395      4F425345 
 8395      5256455F 
 8395      54585F50 
 8395      4C4F535F 
 8396              	.LASF88:
 8397 04c0 4E52465F 		.ascii	"NRF_SETUP_RETR_ARC\000"
 8397      53455455 
 8397      505F5245 
 8397      54525F41 
 8397      524300
 8398              	.LASF89:
 8399 04d3 4E52465F 		.ascii	"NRF_SETUP_RETR_ARD\000"
 8399      53455455 
 8399      505F5245 
 8399      54525F41 
 8399      524400
 8400              	.LASF198:
 8401 04e6 53535F57 		.ascii	"SS_Write\000"
 8401      72697465 
 8401      00
 8402              	.LASF92:
 8403 04ef 4E52465F 		.ascii	"NRF_RF_SETUP_RF_DR_HIGH\000"
 8403      52465F53 
 8403      45545550 
 8403      5F52465F 
 8403      44525F48 
 8404              	.LASF217:
 8405 0507 433A5C55 		.ascii	"C:\\Users\\AfdhalAtiffTan\\Documents\\PSoC Creator\\"
 8405      73657273 
 8405      5C416664 
 8405      68616C41 
 8405      74696666 
 8406 0536 736D6172 		.ascii	"smart_winch_prototype\\Workspace01\\Prototype.cydsn"
 8406      745F7769 
 8406      6E63685F 
 8406      70726F74 
 8406      6F747970 
 8407 0567 00       		.ascii	"\000"
 8408              	.LASF127:
 8409 0568 6E524632 		.ascii	"nRF24_set_tx_mode\000"
 8409      345F7365 
 8409      745F7478 
 8409      5F6D6F64 
 8409      6500
 8410              	.LASF143:
 8411 057a 70697065 		.ascii	"pipe\000"
 8411      00
 8412              	.LASF121:
 8413 057f 4E52465F 		.ascii	"NRF_MAX_PAYLOAD_SIZE\000"
 8413      4D41585F 
 8413      5041594C 
 8413      4F41445F 
 8413      53495A45 
 8414              	.LASF160:
 8415 0594 6E524632 		.ascii	"nRF24_get_rx_pipe_4_address\000"
 8415      345F6765 
 8415      745F7278 
ARM GAS  C:\Users\AFDHAL~1\AppData\Local\Temp\ccielSKc.s 			page 175


 8415      5F706970 
 8415      655F345F 
 8416              	.LASF49:
 8417 05b0 6E72665F 		.ascii	"nrf_pipe\000"
 8417      70697065 
 8417      00
 8418              	.LASF219:
 8419 05b9 6E524632 		.ascii	"nRF24_get_status\000"
 8419      345F6765 
 8419      745F7374 
 8419      61747573 
 8419      00
 8420              	.LASF165:
 8421 05ca 6E524632 		.ascii	"nRF24_set_payload_size\000"
 8421      345F7365 
 8421      745F7061 
 8421      796C6F61 
 8421      645F7369 
 8422              	.LASF64:
 8423 05e1 6E72665F 		.ascii	"nrf_irq\000"
 8423      69727100 
 8424              	.LASF138:
 8425 05e9 6E524632 		.ascii	"nRF24_set_mode\000"
 8425      345F7365 
 8425      745F6D6F 
 8425      646500
 8426              	.LASF192:
 8427 05f8 6E524632 		.ascii	"nRF24_clear_irq_flag\000"
 8427      345F636C 
 8427      6561725F 
 8427      6972715F 
 8427      666C6167 
 8428              	.LASF188:
 8429 060d 6E524632 		.ascii	"nRF24_get_data_pipe_with_payload\000"
 8429      345F6765 
 8429      745F6461 
 8429      74615F70 
 8429      6970655F 
 8430              	.LASF24:
 8431 062e 4E52465F 		.ascii	"NRF_STATUS_REG\000"
 8431      53544154 
 8431      55535F52 
 8431      454700
 8432              	.LASF14:
 8433 063d 73697A65 		.ascii	"size_t\000"
 8433      5F7400
 8434              	.LASF183:
 8435 0644 6E524632 		.ascii	"nRF24_is_data_ready\000"
 8435      345F6973 
 8435      5F646174 
 8435      615F7265 
 8435      61647900 
 8436              	.LASF66:
 8437 0658 4E52465F 		.ascii	"NRF_CONFIG_PWR_UP\000"
 8437      434F4E46 
 8437      49475F50 
 8437      57525F55 
ARM GAS  C:\Users\AFDHAL~1\AppData\Local\Temp\ccielSKc.s 			page 176


 8437      5000
 8438              	.LASF167:
 8439 066a 6E524632 		.ascii	"nRF24_get_payload_size\000"
 8439      345F6765 
 8439      745F7061 
 8439      796C6F61 
 8439      645F7369 
 8440              	.LASF195:
 8441 0681 6E524632 		.ascii	"nRF24_write_register\000"
 8441      345F7772 
 8441      6974655F 
 8441      72656769 
 8441      73746572 
 8442              	.LASF31:
 8443 0696 4E52465F 		.ascii	"NRF_RX_ADDR_P4_REG\000"
 8443      52585F41 
 8443      4444525F 
 8443      50345F52 
 8443      454700
 8444              	.LASF43:
 8445 06a9 4E52465F 		.ascii	"NRF_PIPE0\000"
 8445      50495045 
 8445      3000
 8446              	.LASF44:
 8447 06b3 4E52465F 		.ascii	"NRF_PIPE1\000"
 8447      50495045 
 8447      3100
 8448              	.LASF45:
 8449 06bd 4E52465F 		.ascii	"NRF_PIPE2\000"
 8449      50495045 
 8449      3200
 8450              	.LASF46:
 8451 06c7 4E52465F 		.ascii	"NRF_PIPE3\000"
 8451      50495045 
 8451      3300
 8452              	.LASF47:
 8453 06d1 4E52465F 		.ascii	"NRF_PIPE4\000"
 8453      50495045 
 8453      3400
 8454              	.LASF48:
 8455 06db 4E52465F 		.ascii	"NRF_PIPE5\000"
 8455      50495045 
 8455      3500
 8456              	.LASF71:
 8457 06e5 4E52465F 		.ascii	"NRF_CONFIG_MASK_RX_DR\000"
 8457      434F4E46 
 8457      49475F4D 
 8457      41534B5F 
 8457      52585F44 
 8458              	.LASF206:
 8459 06fb 6E524632 		.ascii	"nRF24_write_long_register\000"
 8459      345F7772 
 8459      6974655F 
 8459      6C6F6E67 
 8459      5F726567 
 8460              	.LASF135:
 8461 0715 6E524632 		.ascii	"nRF24_start\000"
ARM GAS  C:\Users\AFDHAL~1\AppData\Local\Temp\ccielSKc.s 			page 177


 8461      345F7374 
 8461      61727400 
 8462              	.LASF86:
 8463 0721 4E52465F 		.ascii	"NRF_SETUP_AW_5BYTES\000"
 8463      53455455 
 8463      505F4157 
 8463      5F354259 
 8463      54455300 
 8464              	.LASF163:
 8465 0735 6E524632 		.ascii	"nRF24_set_tx_address\000"
 8465      345F7365 
 8465      745F7478 
 8465      5F616464 
 8465      72657373 
 8466              	.LASF161:
 8467 074a 6E524632 		.ascii	"nRF24_set_rx_pipe_5_address\000"
 8467      345F7365 
 8467      745F7278 
 8467      5F706970 
 8467      655F355F 
 8468              	.LASF13:
 8469 0766 63686172 		.ascii	"char\000"
 8469      00
 8470              	.LASF213:
 8471 076b 6E524632 		.ascii	"nRF24_write_ack_payload_cmd\000"
 8471      345F7772 
 8471      6974655F 
 8471      61636B5F 
 8471      7061796C 
 8472              	.LASF200:
 8473 0787 6E524632 		.ascii	"nRF24_flush_rx_cmd\000"
 8473      345F666C 
 8473      7573685F 
 8473      72785F63 
 8473      6D6400
 8474              	.LASF153:
 8475 079a 6E524632 		.ascii	"nRF24_get_rx_pipe_1_address\000"
 8475      345F6765 
 8475      745F7278 
 8475      5F706970 
 8475      655F315F 
 8476              	.LASF58:
 8477 07b6 4E52465F 		.ascii	"NRF_MODE_RX\000"
 8477      4D4F4445 
 8477      5F525800 
 8478              	.LASF87:
 8479 07c2 6E72665F 		.ascii	"nrf_setup_address_width\000"
 8479      73657475 
 8479      705F6164 
 8479      64726573 
 8479      735F7769 
 8480              	.LASF204:
 8481 07da 6E524632 		.ascii	"nRF24_clear_bit\000"
 8481      345F636C 
 8481      6561725F 
 8481      62697400 
 8482              	.LASF32:
ARM GAS  C:\Users\AFDHAL~1\AppData\Local\Temp\ccielSKc.s 			page 178


 8483 07ea 4E52465F 		.ascii	"NRF_RX_ADDR_P5_REG\000"
 8483      52585F41 
 8483      4444525F 
 8483      50355F52 
 8483      454700
 8484              	.LASF131:
 8485 07fd 64617461 		.ascii	"data\000"
 8485      00
 8486              	.LASF214:
 8487 0802 6E524632 		.ascii	"nRF24_read_bit\000"
 8487      345F7265 
 8487      61645F62 
 8487      697400
 8488              	.LASF10:
 8489 0811 75696E74 		.ascii	"uint8_t\000"
 8489      385F7400 
 8490              	.LASF63:
 8491 0819 4E52465F 		.ascii	"NRF_RX_DR_IRQ\000"
 8491      52585F44 
 8491      525F4952 
 8491      5100
 8492              	.LASF118:
 8493 0827 4E52465F 		.ascii	"NRF_STATUS_PIPES_SHIFT\000"
 8493      53544154 
 8493      55535F50 
 8493      49504553 
 8493      5F534849 
 8494              	.LASF103:
 8495 083e 4E52465F 		.ascii	"NRF_RPD_RPD\000"
 8495      5250445F 
 8495      52504400 
 8496              	.LASF116:
 8497 084a 4E52465F 		.ascii	"NRF_FEATURE_EN_ACK_PAY\000"
 8497      46454154 
 8497      5552455F 
 8497      454E5F41 
 8497      434B5F50 
 8498              	.LASF22:
 8499 0861 4E52465F 		.ascii	"NRF_RF_CH_REG\000"
 8499      52465F43 
 8499      485F5245 
 8499      4700
 8500              	.LASF29:
 8501 086f 4E52465F 		.ascii	"NRF_RX_ADDR_P2_REG\000"
 8501      52585F41 
 8501      4444525F 
 8501      50325F52 
 8501      454700
 8502              	.LASF6:
 8503 0882 6C6F6E67 		.ascii	"long long int\000"
 8503      206C6F6E 
 8503      6720696E 
 8503      7400
 8504              	.LASF33:
 8505 0890 4E52465F 		.ascii	"NRF_TX_ADDR_REG\000"
 8505      54585F41 
 8505      4444525F 
ARM GAS  C:\Users\AFDHAL~1\AppData\Local\Temp\ccielSKc.s 			page 179


 8505      52454700 
 8506              	.LASF175:
 8507 08a0 6E524632 		.ascii	"nRF24_disable_payload_with_ack\000"
 8507      345F6469 
 8507      7361626C 
 8507      655F7061 
 8507      796C6F61 
 8508              	.LASF201:
 8509 08bf 6E524632 		.ascii	"nRF24_flush_tx_cmd\000"
 8509      345F666C 
 8509      7573685F 
 8509      74785F63 
 8509      6D6400
 8510              	.LASF209:
 8511 08d2 6E524632 		.ascii	"nRF24_nop_cmd\000"
 8511      345F6E6F 
 8511      705F636D 
 8511      6400
 8512              	.LASF155:
 8513 08e0 61646472 		.ascii	"addr_lsb\000"
 8513      5F6C7362 
 8513      00
 8514              	.LASF180:
 8515 08e9 6E524632 		.ascii	"nRF24_get_lost_packets_count\000"
 8515      345F6765 
 8515      745F6C6F 
 8515      73745F70 
 8515      61636B65 
 8516              	.LASF37:
 8517 0906 4E52465F 		.ascii	"NRF_RX_PW_P3_REG\000"
 8517      52585F50 
 8517      575F5033 
 8517      5F524547 
 8517      00
 8518              	.LASF154:
 8519 0917 6E524632 		.ascii	"nRF24_set_rx_pipe_2_address\000"
 8519      345F7365 
 8519      745F7278 
 8519      5F706970 
 8519      655F325F 
 8520              	.LASF122:
 8521 0933 4E52465F 		.ascii	"NRF_POWER_UP_DELAY\000"
 8521      504F5745 
 8521      525F5550 
 8521      5F44454C 
 8521      415900
 8522              	.LASF119:
 8523 0946 4E52465F 		.ascii	"NRF_MAX_ADDR_SIZE\000"
 8523      4D41585F 
 8523      41444452 
 8523      5F53495A 
 8523      4500
 8524              	.LASF34:
 8525 0958 4E52465F 		.ascii	"NRF_RX_PW_P0_REG\000"
 8525      52585F50 
 8525      575F5030 
 8525      5F524547 
ARM GAS  C:\Users\AFDHAL~1\AppData\Local\Temp\ccielSKc.s 			page 180


 8525      00
 8526              	.LASF57:
 8527 0969 4E52465F 		.ascii	"NRF_MODE_TX\000"
 8527      4D4F4445 
 8527      5F545800 
 8528              	.LASF132:
 8529 0975 73697A65 		.ascii	"size\000"
 8529      00
 8530              	.LASF197:
 8531 097a 43455F57 		.ascii	"CE_Write\000"
 8531      72697465 
 8531      00
 8532              	.LASF162:
 8533 0983 6E524632 		.ascii	"nRF24_get_rx_pipe_5_address\000"
 8533      345F6765 
 8533      745F7278 
 8533      5F706970 
 8533      655F355F 
 8534              	.LASF78:
 8535 099f 4E52465F 		.ascii	"NRF_EN_RXADDR_ERX_P0\000"
 8535      454E5F52 
 8535      58414444 
 8535      525F4552 
 8535      585F5030 
 8536              	.LASF79:
 8537 09b4 4E52465F 		.ascii	"NRF_EN_RXADDR_ERX_P1\000"
 8537      454E5F52 
 8537      58414444 
 8537      525F4552 
 8537      585F5031 
 8538              	.LASF80:
 8539 09c9 4E52465F 		.ascii	"NRF_EN_RXADDR_ERX_P2\000"
 8539      454E5F52 
 8539      58414444 
 8539      525F4552 
 8539      585F5032 
 8540              	.LASF81:
 8541 09de 4E52465F 		.ascii	"NRF_EN_RXADDR_ERX_P3\000"
 8541      454E5F52 
 8541      58414444 
 8541      525F4552 
 8541      585F5033 
 8542              	.LASF82:
 8543 09f3 4E52465F 		.ascii	"NRF_EN_RXADDR_ERX_P4\000"
 8543      454E5F52 
 8543      58414444 
 8543      525F4552 
 8543      585F5034 
 8544              	.LASF83:
 8545 0a08 4E52465F 		.ascii	"NRF_EN_RXADDR_ERX_P5\000"
 8545      454E5F52 
 8545      58414444 
 8545      525F4552 
 8545      585F5035 
 8546              	.LASF117:
 8547 0a1d 4E52465F 		.ascii	"NRF_FEATURE_EN_DPL\000"
 8547      46454154 
ARM GAS  C:\Users\AFDHAL~1\AppData\Local\Temp\ccielSKc.s 			page 181


 8547      5552455F 
 8547      454E5F44 
 8547      504C00
 8548              	.LASF187:
 8549 0a30 6E524632 		.ascii	"nRF24_rx_write_payload\000"
 8549      345F7278 
 8549      5F777269 
 8549      74655F70 
 8549      61796C6F 
 8550              	.LASF115:
 8551 0a47 4E52465F 		.ascii	"NRF_FEATURE_EN_DYN_ACK\000"
 8551      46454154 
 8551      5552455F 
 8551      454E5F44 
 8551      594E5F41 
 8552              	.LASF184:
 8553 0a5e 5F426F6F 		.ascii	"_Bool\000"
 8553      6C00
 8554              	.LASF137:
 8555 0a64 6E524632 		.ascii	"nRF24_restore_config\000"
 8555      345F7265 
 8555      73746F72 
 8555      655F636F 
 8555      6E666967 
 8556              	.LASF211:
 8557 0a79 6E524632 		.ascii	"nRF24_read_rx_payload_cmd\000"
 8557      345F7265 
 8557      61645F72 
 8557      785F7061 
 8557      796C6F61 
 8558              	.LASF15:
 8559 0a93 6C6F6E67 		.ascii	"long double\000"
 8559      20646F75 
 8559      626C6500 
 8560              	.LASF164:
 8561 0a9f 6E524632 		.ascii	"nRF24_get_tx_address\000"
 8561      345F6765 
 8561      745F7478 
 8561      5F616464 
 8561      72657373 
 8562              	.LASF104:
 8563 0ab4 4E52465F 		.ascii	"NRF_FIFO_STATUS_RX_EMPTY\000"
 8563      4649464F 
 8563      5F535441 
 8563      5455535F 
 8563      52585F45 
 8564              	.LASF94:
 8565 0acd 4E52465F 		.ascii	"NRF_RF_SETUP_RF_DR_LOW\000"
 8565      52465F53 
 8565      45545550 
 8565      5F52465F 
 8565      44525F4C 
 8566              	.LASF146:
 8567 0ae4 6368616E 		.ascii	"channel\000"
 8567      6E656C00 
 8568              	.LASF101:
 8569 0aec 4E52465F 		.ascii	"NRF_OBSERVE_TX_ARC_CNT_MASK\000"
ARM GAS  C:\Users\AFDHAL~1\AppData\Local\Temp\ccielSKc.s 			page 182


 8569      4F425345 
 8569      5256455F 
 8569      54585F41 
 8569      52435F43 
 8570              	.LASF145:
 8571 0b08 6E524632 		.ascii	"nRF24_set_channel\000"
 8571      345F7365 
 8571      745F6368 
 8571      616E6E65 
 8571      6C00
 8572              	.LASF210:
 8573 0b1a 6E524632 		.ascii	"nRF24_write_tx_payload_cmd\000"
 8573      345F7772 
 8573      6974655F 
 8573      74785F70 
 8573      61796C6F 
 8574              	.LASF23:
 8575 0b35 4E52465F 		.ascii	"NRF_RF_SETUP_REG\000"
 8575      52465F53 
 8575      45545550 
 8575      5F524547 
 8575      00
 8576              	.LASF105:
 8577 0b46 4E52465F 		.ascii	"NRF_FIFO_STATUS_RX_FULL\000"
 8577      4649464F 
 8577      5F535441 
 8577      5455535F 
 8577      52585F46 
 8578              	.LASF2:
 8579 0b5e 73686F72 		.ascii	"short int\000"
 8579      7420696E 
 8579      7400
 8580              	.LASF91:
 8581 0b68 4E52465F 		.ascii	"NRF_RF_SETUP_RF_DR\000"
 8581      52465F53 
 8581      45545550 
 8581      5F52465F 
 8581      445200
 8582              	.LASF19:
 8583 0b7b 4E52465F 		.ascii	"NRF_EN_RXADDR_REG\000"
 8583      454E5F52 
 8583      58414444 
 8583      525F5245 
 8583      4700
 8584              	.LASF189:
 8585 0b8d 6E524632 		.ascii	"nRF24_received_power_detector\000"
 8585      345F7265 
 8585      63656976 
 8585      65645F70 
 8585      6F776572 
 8586              	.LASF129:
 8587 0bab 6E524632 		.ascii	"nRF24_stop_listening\000"
 8587      345F7374 
 8587      6F705F6C 
 8587      69737465 
 8587      6E696E67 
 8588              	.LASF4:
ARM GAS  C:\Users\AFDHAL~1\AppData\Local\Temp\ccielSKc.s 			page 183


 8589 0bc0 6C6F6E67 		.ascii	"long int\000"
 8589      20696E74 
 8589      00
 8590              	.LASF62:
 8591 0bc9 4E52465F 		.ascii	"NRF_TX_DS_IRQ\000"
 8591      54585F44 
 8591      535F4952 
 8591      5100
 8592              	.LASF168:
 8593 0bd7 6E524632 		.ascii	"nRF24_transmit_pulse\000"
 8593      345F7472 
 8593      616E736D 
 8593      69745F70 
 8593      756C7365 
 8594              	.LASF185:
 8595 0bec 6E524632 		.ascii	"nRF24_get_rx_payload\000"
 8595      345F6765 
 8595      745F7278 
 8595      5F706179 
 8595      6C6F6164 
 8596              	.LASF134:
 8597 0c01 6E524632 		.ascii	"nRF24_init\000"
 8597      345F696E 
 8597      697400
 8598              	.LASF156:
 8599 0c0c 6E524632 		.ascii	"nRF24_get_rx_pipe_2_address\000"
 8599      345F6765 
 8599      745F7278 
 8599      5F706970 
 8599      655F325F 
 8600              	.LASF25:
 8601 0c28 4E52465F 		.ascii	"NRF_OBSERVE_TX_REG\000"
 8601      4F425345 
 8601      5256455F 
 8601      54585F52 
 8601      454700
 8602              	.LASF95:
 8603 0c3b 4E52465F 		.ascii	"NRF_RF_SETUP_CONT_WAVE\000"
 8603      52465F53 
 8603      45545550 
 8603      5F434F4E 
 8603      545F5741 
 8604              	.LASF148:
 8605 0c52 61646472 		.ascii	"addr_width\000"
 8605      5F776964 
 8605      746800
 8606              	.LASF216:
 8607 0c5d 47656E65 		.ascii	"Generated_Source\\PSoC4\\nRF24_FUNCS.c\000"
 8607      72617465 
 8607      645F536F 
 8607      75726365 
 8607      5C50536F 
 8608              	.LASF9:
 8609 0c82 5F5F7569 		.ascii	"__uint8_t\000"
 8609      6E74385F 
 8609      7400
 8610              	.LASF85:
ARM GAS  C:\Users\AFDHAL~1\AppData\Local\Temp\ccielSKc.s 			page 184


 8611 0c8c 4E52465F 		.ascii	"NRF_SETUP_AW_4BYTES\000"
 8611      53455455 
 8611      505F4157 
 8611      5F344259 
 8611      54455300 
 8612              	.LASF26:
 8613 0ca0 4E52465F 		.ascii	"NRF_RPD_REG\000"
 8613      5250445F 
 8613      52454700 
 8614              	.LASF20:
 8615 0cac 4E52465F 		.ascii	"NRF_SETUP_AW_REG\000"
 8615      53455455 
 8615      505F4157 
 8615      5F524547 
 8615      00
 8616              	.LASF65:
 8617 0cbd 4E52465F 		.ascii	"NRF_CONFIG_PRIM_RX\000"
 8617      434F4E46 
 8617      49475F50 
 8617      52494D5F 
 8617      525800
 8618              	.LASF141:
 8619 0cd0 6E524632 		.ascii	"nRF24_enable_auto_ack\000"
 8619      345F656E 
 8619      61626C65 
 8619      5F617574 
 8619      6F5F6163 
 8620              	.LASF194:
 8621 0ce6 6E524632 		.ascii	"nRF24_get_irq_flag\000"
 8621      345F6765 
 8621      745F6972 
 8621      715F666C 
 8621      616700
 8622              	.LASF174:
 8623 0cf9 6E524632 		.ascii	"nRF24_enable_payload_with_ack\000"
 8623      345F656E 
 8623      61626C65 
 8623      5F706179 
 8623      6C6F6164 
 8624              	.LASF16:
 8625 0d17 73697A65 		.ascii	"sizetype\000"
 8625      74797065 
 8625      00
 8626              	.LASF173:
 8627 0d20 6E524632 		.ascii	"nRF24_disable_dynamic_payload_length\000"
 8627      345F6469 
 8627      7361626C 
 8627      655F6479 
 8627      6E616D69 
 8628              	.LASF18:
 8629 0d45 4E52465F 		.ascii	"NRF_EN_AA_REG\000"
 8629      454E5F41 
 8629      415F5245 
 8629      4700
 8630              	.LASF5:
 8631 0d53 6C6F6E67 		.ascii	"long unsigned int\000"
 8631      20756E73 
ARM GAS  C:\Users\AFDHAL~1\AppData\Local\Temp\ccielSKc.s 			page 185


 8631      69676E65 
 8631      6420696E 
 8631      7400
 8632              	.LASF152:
 8633 0d65 6E524632 		.ascii	"nRF24_set_rx_pipe_1_address\000"
 8633      345F7365 
 8633      745F7278 
 8633      5F706970 
 8633      655F315F 
 8634              	.LASF107:
 8635 0d81 4E52465F 		.ascii	"NRF_FIFO_STATUS_TX_FULL\000"
 8635      4649464F 
 8635      5F535441 
 8635      5455535F 
 8635      54585F46 
 8636              	.LASF39:
 8637 0d99 4E52465F 		.ascii	"NRF_RX_PW_P5_REG\000"
 8637      52585F50 
 8637      575F5035 
 8637      5F524547 
 8637      00
 8638              	.LASF90:
 8639 0daa 4E52465F 		.ascii	"NRF_RF_SETUP_RF_PWR\000"
 8639      52465F53 
 8639      45545550 
 8639      5F52465F 
 8639      50575200 
 8640              	.LASF157:
 8641 0dbe 6E524632 		.ascii	"nRF24_set_rx_pipe_3_address\000"
 8641      345F7365 
 8641      745F7278 
 8641      5F706970 
 8641      655F335F 
 8642              	.LASF1:
 8643 0dda 756E7369 		.ascii	"unsigned char\000"
 8643      676E6564 
 8643      20636861 
 8643      7200
 8644              	.LASF28:
 8645 0de8 4E52465F 		.ascii	"NRF_RX_ADDR_P1_REG\000"
 8645      52585F41 
 8645      4444525F 
 8645      50315F52 
 8645      454700
 8646              	.LASF55:
 8647 0dfb 4E52465F 		.ascii	"NRF_PIPE5_PAYLOAD_SIZE\000"
 8647      50495045 
 8647      355F5041 
 8647      594C4F41 
 8647      445F5349 
 8648              	.LASF36:
 8649 0e12 4E52465F 		.ascii	"NRF_RX_PW_P2_REG\000"
 8649      52585F50 
 8649      575F5032 
 8649      5F524547 
 8649      00
 8650              	.LASF130:
ARM GAS  C:\Users\AFDHAL~1\AppData\Local\Temp\ccielSKc.s 			page 186


 8651 0e23 6E524632 		.ascii	"nRF24_set_standby_i_mode\000"
 8651      345F7365 
 8651      745F7374 
 8651      616E6462 
 8651      795F695F 
 8652              	.LASF150:
 8653 0e3c 61646472 		.ascii	"addr\000"
 8653      00
 8654              	.LASF140:
 8655 0e41 6E524632 		.ascii	"nRF24_set_standby_ii_mode\000"
 8655      345F7365 
 8655      745F7374 
 8655      616E6462 
 8655      795F6969 
 8656              	.LASF54:
 8657 0e5b 4E52465F 		.ascii	"NRF_PIPE4_PAYLOAD_SIZE\000"
 8657      50495045 
 8657      345F5041 
 8657      594C4F41 
 8657      445F5349 
 8658              	.LASF93:
 8659 0e72 4E52465F 		.ascii	"NRF_RF_SETUP_PLL_LOCK\000"
 8659      52465F53 
 8659      45545550 
 8659      5F504C4C 
 8659      5F4C4F43 
 8660              	.LASF51:
 8661 0e88 4E52465F 		.ascii	"NRF_PIPE1_PAYLOAD_SIZE\000"
 8661      50495045 
 8661      315F5041 
 8661      594C4F41 
 8661      445F5349 
 8662              	.LASF147:
 8663 0e9f 6E524632 		.ascii	"nRF24_set_address_width\000"
 8663      345F7365 
 8663      745F6164 
 8663      64726573 
 8663      735F7769 
 8664              	.LASF191:
 8665 0eb7 6E524632 		.ascii	"nRF24_is_rx_fifo_empty\000"
 8665      345F6973 
 8665      5F72785F 
 8665      6669666F 
 8665      5F656D70 
 8666              	.LASF0:
 8667 0ece 7369676E 		.ascii	"signed char\000"
 8667      65642063 
 8667      68617200 
 8668              	.LASF3:
 8669 0eda 73686F72 		.ascii	"short unsigned int\000"
 8669      7420756E 
 8669      7369676E 
 8669      65642069 
 8669      6E7400
 8670              	.LASF53:
 8671 0eed 4E52465F 		.ascii	"NRF_PIPE3_PAYLOAD_SIZE\000"
 8671      50495045 
ARM GAS  C:\Users\AFDHAL~1\AppData\Local\Temp\ccielSKc.s 			page 187


 8671      335F5041 
 8671      594C4F41 
 8671      445F5349 
 8672              	.LASF207:
 8673 0f04 6E524632 		.ascii	"nRF24_read_long_register\000"
 8673      345F7265 
 8673      61645F6C 
 8673      6F6E675F 
 8673      72656769 
 8674              	.LASF50:
 8675 0f1d 4E52465F 		.ascii	"NRF_PIPE0_PAYLOAD_SIZE\000"
 8675      50495045 
 8675      305F5041 
 8675      594C4F41 
 8675      445F5349 
 8676              	.LASF181:
 8677 0f34 6C6F7374 		.ascii	"lostPackets\000"
 8677      5061636B 
 8677      65747300 
 8678              	.LASF120:
 8679 0f40 4E52465F 		.ascii	"NRF_CE_PULSE_WIDTH\000"
 8679      43455F50 
 8679      554C5345 
 8679      5F574944 
 8679      544800
 8680              	.LASF190:
 8681 0f53 6E524632 		.ascii	"nRF24_is_tx_fifo_full\000"
 8681      345F6973 
 8681      5F74785F 
 8681      6669666F 
 8681      5F66756C 
 8682              	.LASF68:
 8683 0f69 4E52465F 		.ascii	"NRF_CONFIG_EN_CRC\000"
 8683      434F4E46 
 8683      49475F45 
 8683      4E5F4352 
 8683      4300
 8684              	.LASF12:
 8685 0f7b 646F7562 		.ascii	"double\000"
 8685      6C6500
 8686              	.LASF73:
 8687 0f82 4E52465F 		.ascii	"NRF_EN_AA_ENAA_P1\000"
 8687      454E5F41 
 8687      415F454E 
 8687      41415F50 
 8687      3100
 8688              	.LASF74:
 8689 0f94 4E52465F 		.ascii	"NRF_EN_AA_ENAA_P2\000"
 8689      454E5F41 
 8689      415F454E 
 8689      41415F50 
 8689      3200
 8690              	.LASF75:
 8691 0fa6 4E52465F 		.ascii	"NRF_EN_AA_ENAA_P3\000"
 8691      454E5F41 
 8691      415F454E 
 8691      41415F50 
ARM GAS  C:\Users\AFDHAL~1\AppData\Local\Temp\ccielSKc.s 			page 188


 8691      3300
 8692              	.LASF76:
 8693 0fb8 4E52465F 		.ascii	"NRF_EN_AA_ENAA_P4\000"
 8693      454E5F41 
 8693      415F454E 
 8693      41415F50 
 8693      3400
 8694              	.LASF77:
 8695 0fca 4E52465F 		.ascii	"NRF_EN_AA_ENAA_P5\000"
 8695      454E5F41 
 8695      415F454E 
 8695      41415F50 
 8695      3500
 8696              	.LASF186:
 8697 0fdc 6E524632 		.ascii	"nRF24_tx_transmit_wait_no_ack\000"
 8697      345F7478 
 8697      5F747261 
 8697      6E736D69 
 8697      745F7761 
 8698              	.LASF166:
 8699 0ffa 6E524632 		.ascii	"nRF24_get_address_width\000"
 8699      345F6765 
 8699      745F6164 
 8699      64726573 
 8699      735F7769 
 8700              	.LASF52:
 8701 1012 4E52465F 		.ascii	"NRF_PIPE2_PAYLOAD_SIZE\000"
 8701      50495045 
 8701      325F5041 
 8701      594C4F41 
 8701      445F5349 
 8702              	.LASF17:
 8703 1029 4E52465F 		.ascii	"NRF_CONFIG_REG\000"
 8703      434F4E46 
 8703      49475F52 
 8703      454700
 8704              	.LASF149:
 8705 1038 6E524632 		.ascii	"nRF24_set_rx_pipe_0_address\000"
 8705      345F7365 
 8705      745F7278 
 8705      5F706970 
 8705      655F305F 
 8706              	.LASF108:
 8707 1054 4E52465F 		.ascii	"NRF_FIFO_STATUS_TX_REUSE\000"
 8707      4649464F 
 8707      5F535441 
 8707      5455535F 
 8707      54585F52 
 8708              	.LASF56:
 8709 106d 6E72665F 		.ascii	"nrf_pipe_payload_size\000"
 8709      70697065 
 8709      5F706179 
 8709      6C6F6164 
 8709      5F73697A 
 8710              	.LASF100:
 8711 1083 4E52465F 		.ascii	"NRF_OBSERVE_TX_PLOS_CNT\000"
 8711      4F425345 
ARM GAS  C:\Users\AFDHAL~1\AppData\Local\Temp\ccielSKc.s 			page 189


 8711      5256455F 
 8711      54585F50 
 8711      4C4F535F 
 8712              	.LASF67:
 8713 109b 4E52465F 		.ascii	"NRF_CONFIG_CRCO\000"
 8713      434F4E46 
 8713      49475F43 
 8713      52434F00 
 8714              	.LASF171:
 8715 10ab 6E524632 		.ascii	"nRF24_disable_dynamic_payload\000"
 8715      345F6469 
 8715      7361626C 
 8715      655F6479 
 8715      6E616D69 
 8716              	.LASF176:
 8717 10c9 6E524632 		.ascii	"nRF24_enable_payload_with_no_ack_cmd\000"
 8717      345F656E 
 8717      61626C65 
 8717      5F706179 
 8717      6C6F6164 
 8718              	.LASF205:
 8719 10ee 6E524632 		.ascii	"nRF24_read_register\000"
 8719      345F7265 
 8719      61645F72 
 8719      65676973 
 8719      74657200 
 8720              	.LASF158:
 8721 1102 6E524632 		.ascii	"nRF24_get_rx_pipe_3_address\000"
 8721      345F6765 
 8721      745F7278 
 8721      5F706970 
 8721      655F335F 
 8722              	.LASF109:
 8723 111e 4E52465F 		.ascii	"NRF_DYNPD_DPL_P0\000"
 8723      44594E50 
 8723      445F4450 
 8723      4C5F5030 
 8723      00
 8724              	.LASF110:
 8725 112f 4E52465F 		.ascii	"NRF_DYNPD_DPL_P1\000"
 8725      44594E50 
 8725      445F4450 
 8725      4C5F5031 
 8725      00
 8726              		.ident	"GCC: (GNU Tools for ARM Embedded Processors) 5.4.1 20160609 (release) [ARM/embedded-5-bran
