ARM GAS  C:\Users\AFDHAL~1\AppData\Local\Temp\ccMqbXug.s 			page 1


   1              		.syntax unified
   2              		.cpu cortex-m0
   3              		.fpu softvfp
   4              		.eabi_attribute 20, 1
   5              		.eabi_attribute 21, 1
   6              		.eabi_attribute 23, 3
   7              		.eabi_attribute 24, 1
   8              		.eabi_attribute 25, 1
   9              		.eabi_attribute 26, 1
  10              		.eabi_attribute 30, 2
  11              		.eabi_attribute 34, 0
  12              		.eabi_attribute 18, 4
  13              		.thumb
  14              		.syntax unified
  15              		.file	"NRF_ISR.c"
  16              		.text
  17              	.Ltext0:
  18              		.cfi_sections	.debug_frame
  19              		.section	.text.NRF_ISR_Interrupt,"ax",%progbits
  20              		.align	2
  21              		.global	NRF_ISR_Interrupt
  22              		.code	16
  23              		.thumb_func
  24              		.type	NRF_ISR_Interrupt, %function
  25              	NRF_ISR_Interrupt:
  26              	.LFB4:
  27              		.file 1 "Generated_Source\\PSoC4\\NRF_ISR.c"
   1:Generated_Source\PSoC4/NRF_ISR.c **** /*******************************************************************************
   2:Generated_Source\PSoC4/NRF_ISR.c **** * File Name: NRF_ISR.c  
   3:Generated_Source\PSoC4/NRF_ISR.c **** * Version 1.70
   4:Generated_Source\PSoC4/NRF_ISR.c **** *
   5:Generated_Source\PSoC4/NRF_ISR.c **** *  Description:
   6:Generated_Source\PSoC4/NRF_ISR.c **** *   API for controlling the state of an interrupt.
   7:Generated_Source\PSoC4/NRF_ISR.c **** *
   8:Generated_Source\PSoC4/NRF_ISR.c **** *
   9:Generated_Source\PSoC4/NRF_ISR.c **** *  Note:
  10:Generated_Source\PSoC4/NRF_ISR.c **** *
  11:Generated_Source\PSoC4/NRF_ISR.c **** ********************************************************************************
  12:Generated_Source\PSoC4/NRF_ISR.c **** * Copyright 2008-2015, Cypress Semiconductor Corporation.  All rights reserved.
  13:Generated_Source\PSoC4/NRF_ISR.c **** * You may use this file only in accordance with the license, terms, conditions, 
  14:Generated_Source\PSoC4/NRF_ISR.c **** * disclaimers, and limitations in the end user license agreement accompanying 
  15:Generated_Source\PSoC4/NRF_ISR.c **** * the software package with which this file was provided.
  16:Generated_Source\PSoC4/NRF_ISR.c **** *******************************************************************************/
  17:Generated_Source\PSoC4/NRF_ISR.c **** 
  18:Generated_Source\PSoC4/NRF_ISR.c **** 
  19:Generated_Source\PSoC4/NRF_ISR.c **** #include <cydevice_trm.h>
  20:Generated_Source\PSoC4/NRF_ISR.c **** #include <CyLib.h>
  21:Generated_Source\PSoC4/NRF_ISR.c **** #include <NRF_ISR.h>
  22:Generated_Source\PSoC4/NRF_ISR.c **** #include "cyapicallbacks.h"
  23:Generated_Source\PSoC4/NRF_ISR.c **** 
  24:Generated_Source\PSoC4/NRF_ISR.c **** #if !defined(NRF_ISR__REMOVED) /* Check for removal by optimization */
  25:Generated_Source\PSoC4/NRF_ISR.c **** 
  26:Generated_Source\PSoC4/NRF_ISR.c **** /*******************************************************************************
  27:Generated_Source\PSoC4/NRF_ISR.c **** *  Place your includes, defines and code here 
  28:Generated_Source\PSoC4/NRF_ISR.c **** ********************************************************************************/
  29:Generated_Source\PSoC4/NRF_ISR.c **** /* `#START NRF_ISR_intc` */
  30:Generated_Source\PSoC4/NRF_ISR.c **** 
ARM GAS  C:\Users\AFDHAL~1\AppData\Local\Temp\ccMqbXug.s 			page 2


  31:Generated_Source\PSoC4/NRF_ISR.c **** /* `#END` */
  32:Generated_Source\PSoC4/NRF_ISR.c **** 
  33:Generated_Source\PSoC4/NRF_ISR.c **** extern cyisraddress CyRamVectors[CYINT_IRQ_BASE + CY_NUM_INTERRUPTS];
  34:Generated_Source\PSoC4/NRF_ISR.c **** 
  35:Generated_Source\PSoC4/NRF_ISR.c **** /* Declared in startup, used to set unused interrupts to. */
  36:Generated_Source\PSoC4/NRF_ISR.c **** CY_ISR_PROTO(IntDefaultHandler);
  37:Generated_Source\PSoC4/NRF_ISR.c **** 
  38:Generated_Source\PSoC4/NRF_ISR.c **** 
  39:Generated_Source\PSoC4/NRF_ISR.c **** /*******************************************************************************
  40:Generated_Source\PSoC4/NRF_ISR.c **** * Function Name: NRF_ISR_Start
  41:Generated_Source\PSoC4/NRF_ISR.c **** ********************************************************************************
  42:Generated_Source\PSoC4/NRF_ISR.c **** *
  43:Generated_Source\PSoC4/NRF_ISR.c **** * Summary:
  44:Generated_Source\PSoC4/NRF_ISR.c **** *  Set up the interrupt and enable it. This function disables the interrupt, 
  45:Generated_Source\PSoC4/NRF_ISR.c **** *  sets the default interrupt vector, sets the priority from the value in the
  46:Generated_Source\PSoC4/NRF_ISR.c **** *  Design Wide Resources Interrupt Editor, then enables the interrupt to the 
  47:Generated_Source\PSoC4/NRF_ISR.c **** *  interrupt controller.
  48:Generated_Source\PSoC4/NRF_ISR.c **** *
  49:Generated_Source\PSoC4/NRF_ISR.c **** * Parameters:  
  50:Generated_Source\PSoC4/NRF_ISR.c **** *   None
  51:Generated_Source\PSoC4/NRF_ISR.c **** *
  52:Generated_Source\PSoC4/NRF_ISR.c **** * Return:
  53:Generated_Source\PSoC4/NRF_ISR.c **** *   None
  54:Generated_Source\PSoC4/NRF_ISR.c **** *
  55:Generated_Source\PSoC4/NRF_ISR.c **** *******************************************************************************/
  56:Generated_Source\PSoC4/NRF_ISR.c **** void NRF_ISR_Start(void)
  57:Generated_Source\PSoC4/NRF_ISR.c **** {
  58:Generated_Source\PSoC4/NRF_ISR.c ****     /* For all we know the interrupt is active. */
  59:Generated_Source\PSoC4/NRF_ISR.c ****     NRF_ISR_Disable();
  60:Generated_Source\PSoC4/NRF_ISR.c **** 
  61:Generated_Source\PSoC4/NRF_ISR.c ****     /* Set the ISR to point to the NRF_ISR Interrupt. */
  62:Generated_Source\PSoC4/NRF_ISR.c ****     NRF_ISR_SetVector(&NRF_ISR_Interrupt);
  63:Generated_Source\PSoC4/NRF_ISR.c **** 
  64:Generated_Source\PSoC4/NRF_ISR.c ****     /* Set the priority. */
  65:Generated_Source\PSoC4/NRF_ISR.c ****     NRF_ISR_SetPriority((uint8)NRF_ISR_INTC_PRIOR_NUMBER);
  66:Generated_Source\PSoC4/NRF_ISR.c **** 
  67:Generated_Source\PSoC4/NRF_ISR.c ****     /* Enable it. */
  68:Generated_Source\PSoC4/NRF_ISR.c ****     NRF_ISR_Enable();
  69:Generated_Source\PSoC4/NRF_ISR.c **** }
  70:Generated_Source\PSoC4/NRF_ISR.c **** 
  71:Generated_Source\PSoC4/NRF_ISR.c **** 
  72:Generated_Source\PSoC4/NRF_ISR.c **** /*******************************************************************************
  73:Generated_Source\PSoC4/NRF_ISR.c **** * Function Name: NRF_ISR_StartEx
  74:Generated_Source\PSoC4/NRF_ISR.c **** ********************************************************************************
  75:Generated_Source\PSoC4/NRF_ISR.c **** *
  76:Generated_Source\PSoC4/NRF_ISR.c **** * Summary:
  77:Generated_Source\PSoC4/NRF_ISR.c **** *  Sets up the interrupt and enables it. This function disables the interrupt,
  78:Generated_Source\PSoC4/NRF_ISR.c **** *  sets the interrupt vector based on the address passed in, sets the priority 
  79:Generated_Source\PSoC4/NRF_ISR.c **** *  from the value in the Design Wide Resources Interrupt Editor, then enables 
  80:Generated_Source\PSoC4/NRF_ISR.c **** *  the interrupt to the interrupt controller.
  81:Generated_Source\PSoC4/NRF_ISR.c **** *  
  82:Generated_Source\PSoC4/NRF_ISR.c **** *  When defining ISR functions, the CY_ISR and CY_ISR_PROTO macros should be 
  83:Generated_Source\PSoC4/NRF_ISR.c **** *  used to provide consistent definition across compilers:
  84:Generated_Source\PSoC4/NRF_ISR.c **** *  
  85:Generated_Source\PSoC4/NRF_ISR.c **** *  Function definition example:
  86:Generated_Source\PSoC4/NRF_ISR.c **** *   CY_ISR(MyISR)
  87:Generated_Source\PSoC4/NRF_ISR.c **** *   {
ARM GAS  C:\Users\AFDHAL~1\AppData\Local\Temp\ccMqbXug.s 			page 3


  88:Generated_Source\PSoC4/NRF_ISR.c **** *   }
  89:Generated_Source\PSoC4/NRF_ISR.c **** *   Function prototype example:
  90:Generated_Source\PSoC4/NRF_ISR.c **** *   CY_ISR_PROTO(MyISR);
  91:Generated_Source\PSoC4/NRF_ISR.c **** *
  92:Generated_Source\PSoC4/NRF_ISR.c **** * Parameters:  
  93:Generated_Source\PSoC4/NRF_ISR.c **** *   address: Address of the ISR to set in the interrupt vector table.
  94:Generated_Source\PSoC4/NRF_ISR.c **** *
  95:Generated_Source\PSoC4/NRF_ISR.c **** * Return:
  96:Generated_Source\PSoC4/NRF_ISR.c **** *   None
  97:Generated_Source\PSoC4/NRF_ISR.c **** *
  98:Generated_Source\PSoC4/NRF_ISR.c **** *******************************************************************************/
  99:Generated_Source\PSoC4/NRF_ISR.c **** void NRF_ISR_StartEx(cyisraddress address)
 100:Generated_Source\PSoC4/NRF_ISR.c **** {
 101:Generated_Source\PSoC4/NRF_ISR.c ****     /* For all we know the interrupt is active. */
 102:Generated_Source\PSoC4/NRF_ISR.c ****     NRF_ISR_Disable();
 103:Generated_Source\PSoC4/NRF_ISR.c **** 
 104:Generated_Source\PSoC4/NRF_ISR.c ****     /* Set the ISR to point to the NRF_ISR Interrupt. */
 105:Generated_Source\PSoC4/NRF_ISR.c ****     NRF_ISR_SetVector(address);
 106:Generated_Source\PSoC4/NRF_ISR.c **** 
 107:Generated_Source\PSoC4/NRF_ISR.c ****     /* Set the priority. */
 108:Generated_Source\PSoC4/NRF_ISR.c ****     NRF_ISR_SetPriority((uint8)NRF_ISR_INTC_PRIOR_NUMBER);
 109:Generated_Source\PSoC4/NRF_ISR.c **** 
 110:Generated_Source\PSoC4/NRF_ISR.c ****     /* Enable it. */
 111:Generated_Source\PSoC4/NRF_ISR.c ****     NRF_ISR_Enable();
 112:Generated_Source\PSoC4/NRF_ISR.c **** }
 113:Generated_Source\PSoC4/NRF_ISR.c **** 
 114:Generated_Source\PSoC4/NRF_ISR.c **** 
 115:Generated_Source\PSoC4/NRF_ISR.c **** /*******************************************************************************
 116:Generated_Source\PSoC4/NRF_ISR.c **** * Function Name: NRF_ISR_Stop
 117:Generated_Source\PSoC4/NRF_ISR.c **** ********************************************************************************
 118:Generated_Source\PSoC4/NRF_ISR.c **** *
 119:Generated_Source\PSoC4/NRF_ISR.c **** * Summary:
 120:Generated_Source\PSoC4/NRF_ISR.c **** *   Disables and removes the interrupt.
 121:Generated_Source\PSoC4/NRF_ISR.c **** *
 122:Generated_Source\PSoC4/NRF_ISR.c **** * Parameters:  
 123:Generated_Source\PSoC4/NRF_ISR.c **** *   None
 124:Generated_Source\PSoC4/NRF_ISR.c **** *
 125:Generated_Source\PSoC4/NRF_ISR.c **** * Return:
 126:Generated_Source\PSoC4/NRF_ISR.c **** *   None
 127:Generated_Source\PSoC4/NRF_ISR.c **** *
 128:Generated_Source\PSoC4/NRF_ISR.c **** *******************************************************************************/
 129:Generated_Source\PSoC4/NRF_ISR.c **** void NRF_ISR_Stop(void)
 130:Generated_Source\PSoC4/NRF_ISR.c **** {
 131:Generated_Source\PSoC4/NRF_ISR.c ****     /* Disable this interrupt. */
 132:Generated_Source\PSoC4/NRF_ISR.c ****     NRF_ISR_Disable();
 133:Generated_Source\PSoC4/NRF_ISR.c **** 
 134:Generated_Source\PSoC4/NRF_ISR.c ****     /* Set the ISR to point to the passive one. */
 135:Generated_Source\PSoC4/NRF_ISR.c ****     NRF_ISR_SetVector(&IntDefaultHandler);
 136:Generated_Source\PSoC4/NRF_ISR.c **** }
 137:Generated_Source\PSoC4/NRF_ISR.c **** 
 138:Generated_Source\PSoC4/NRF_ISR.c **** 
 139:Generated_Source\PSoC4/NRF_ISR.c **** /*******************************************************************************
 140:Generated_Source\PSoC4/NRF_ISR.c **** * Function Name: NRF_ISR_Interrupt
 141:Generated_Source\PSoC4/NRF_ISR.c **** ********************************************************************************
 142:Generated_Source\PSoC4/NRF_ISR.c **** *
 143:Generated_Source\PSoC4/NRF_ISR.c **** * Summary:
 144:Generated_Source\PSoC4/NRF_ISR.c **** *   The default Interrupt Service Routine for NRF_ISR.
ARM GAS  C:\Users\AFDHAL~1\AppData\Local\Temp\ccMqbXug.s 			page 4


 145:Generated_Source\PSoC4/NRF_ISR.c **** *
 146:Generated_Source\PSoC4/NRF_ISR.c **** *   Add custom code between the START and END comments to keep the next version
 147:Generated_Source\PSoC4/NRF_ISR.c **** *   of this file from over-writing your code.
 148:Generated_Source\PSoC4/NRF_ISR.c **** *
 149:Generated_Source\PSoC4/NRF_ISR.c **** *   Note You may use either the default ISR by using this API, or you may define
 150:Generated_Source\PSoC4/NRF_ISR.c **** *   your own separate ISR through ISR_StartEx().
 151:Generated_Source\PSoC4/NRF_ISR.c **** *
 152:Generated_Source\PSoC4/NRF_ISR.c **** * Parameters:  
 153:Generated_Source\PSoC4/NRF_ISR.c **** *   None
 154:Generated_Source\PSoC4/NRF_ISR.c **** *
 155:Generated_Source\PSoC4/NRF_ISR.c **** * Return:
 156:Generated_Source\PSoC4/NRF_ISR.c **** *   None
 157:Generated_Source\PSoC4/NRF_ISR.c **** *
 158:Generated_Source\PSoC4/NRF_ISR.c **** *******************************************************************************/
 159:Generated_Source\PSoC4/NRF_ISR.c **** CY_ISR(NRF_ISR_Interrupt)
 160:Generated_Source\PSoC4/NRF_ISR.c **** {
  28              		.loc 1 160 0
  29              		.cfi_startproc
  30              		@ args = 0, pretend = 0, frame = 0
  31              		@ frame_needed = 0, uses_anonymous_args = 0
  32              		@ link register save eliminated.
 161:Generated_Source\PSoC4/NRF_ISR.c ****     #ifdef NRF_ISR_INTERRUPT_INTERRUPT_CALLBACK
 162:Generated_Source\PSoC4/NRF_ISR.c ****         NRF_ISR_Interrupt_InterruptCallback();
 163:Generated_Source\PSoC4/NRF_ISR.c ****     #endif /* NRF_ISR_INTERRUPT_INTERRUPT_CALLBACK */ 
 164:Generated_Source\PSoC4/NRF_ISR.c **** 
 165:Generated_Source\PSoC4/NRF_ISR.c ****     /*  Place your Interrupt code here. */
 166:Generated_Source\PSoC4/NRF_ISR.c ****     /* `#START NRF_ISR_Interrupt` */
 167:Generated_Source\PSoC4/NRF_ISR.c **** 
 168:Generated_Source\PSoC4/NRF_ISR.c ****     /* `#END` */
 169:Generated_Source\PSoC4/NRF_ISR.c **** }
  33              		.loc 1 169 0
  34              		@ sp needed
  35 0000 7047     		bx	lr
  36              		.cfi_endproc
  37              	.LFE4:
  38              		.size	NRF_ISR_Interrupt, .-NRF_ISR_Interrupt
  39 0002 C046     		.section	.text.NRF_ISR_Start,"ax",%progbits
  40              		.align	2
  41              		.global	NRF_ISR_Start
  42              		.code	16
  43              		.thumb_func
  44              		.type	NRF_ISR_Start, %function
  45              	NRF_ISR_Start:
  46              	.LFB1:
  57:Generated_Source\PSoC4/NRF_ISR.c ****     /* For all we know the interrupt is active. */
  47              		.loc 1 57 0
  48              		.cfi_startproc
  49              		@ args = 0, pretend = 0, frame = 0
  50              		@ frame_needed = 0, uses_anonymous_args = 0
  51 0000 10B5     		push	{r4, lr}
  52              		.cfi_def_cfa_offset 8
  53              		.cfi_offset 4, -8
  54              		.cfi_offset 14, -4
  55              	.LBB26:
  56              	.LBB27:
 170:Generated_Source\PSoC4/NRF_ISR.c **** 
 171:Generated_Source\PSoC4/NRF_ISR.c **** 
ARM GAS  C:\Users\AFDHAL~1\AppData\Local\Temp\ccMqbXug.s 			page 5


 172:Generated_Source\PSoC4/NRF_ISR.c **** /*******************************************************************************
 173:Generated_Source\PSoC4/NRF_ISR.c **** * Function Name: NRF_ISR_SetVector
 174:Generated_Source\PSoC4/NRF_ISR.c **** ********************************************************************************
 175:Generated_Source\PSoC4/NRF_ISR.c **** *
 176:Generated_Source\PSoC4/NRF_ISR.c **** * Summary:
 177:Generated_Source\PSoC4/NRF_ISR.c **** *   Change the ISR vector for the Interrupt. Note calling NRF_ISR_Start
 178:Generated_Source\PSoC4/NRF_ISR.c **** *   will override any effect this method would have had. To set the vector 
 179:Generated_Source\PSoC4/NRF_ISR.c **** *   before the component has been started use NRF_ISR_StartEx instead.
 180:Generated_Source\PSoC4/NRF_ISR.c **** * 
 181:Generated_Source\PSoC4/NRF_ISR.c **** *   When defining ISR functions, the CY_ISR and CY_ISR_PROTO macros should be 
 182:Generated_Source\PSoC4/NRF_ISR.c **** *   used to provide consistent definition across compilers:
 183:Generated_Source\PSoC4/NRF_ISR.c **** *
 184:Generated_Source\PSoC4/NRF_ISR.c **** *   Function definition example:
 185:Generated_Source\PSoC4/NRF_ISR.c **** *   CY_ISR(MyISR)
 186:Generated_Source\PSoC4/NRF_ISR.c **** *   {
 187:Generated_Source\PSoC4/NRF_ISR.c **** *   }
 188:Generated_Source\PSoC4/NRF_ISR.c **** *
 189:Generated_Source\PSoC4/NRF_ISR.c **** *   Function prototype example:
 190:Generated_Source\PSoC4/NRF_ISR.c **** *     CY_ISR_PROTO(MyISR);
 191:Generated_Source\PSoC4/NRF_ISR.c **** *
 192:Generated_Source\PSoC4/NRF_ISR.c **** * Parameters:
 193:Generated_Source\PSoC4/NRF_ISR.c **** *   address: Address of the ISR to set in the interrupt vector table.
 194:Generated_Source\PSoC4/NRF_ISR.c **** *
 195:Generated_Source\PSoC4/NRF_ISR.c **** * Return:
 196:Generated_Source\PSoC4/NRF_ISR.c **** *   None
 197:Generated_Source\PSoC4/NRF_ISR.c **** *
 198:Generated_Source\PSoC4/NRF_ISR.c **** *******************************************************************************/
 199:Generated_Source\PSoC4/NRF_ISR.c **** void NRF_ISR_SetVector(cyisraddress address)
 200:Generated_Source\PSoC4/NRF_ISR.c **** {
 201:Generated_Source\PSoC4/NRF_ISR.c ****     CyRamVectors[CYINT_IRQ_BASE + NRF_ISR__INTC_NUMBER] = address;
 202:Generated_Source\PSoC4/NRF_ISR.c **** }
 203:Generated_Source\PSoC4/NRF_ISR.c **** 
 204:Generated_Source\PSoC4/NRF_ISR.c **** 
 205:Generated_Source\PSoC4/NRF_ISR.c **** /*******************************************************************************
 206:Generated_Source\PSoC4/NRF_ISR.c **** * Function Name: NRF_ISR_GetVector
 207:Generated_Source\PSoC4/NRF_ISR.c **** ********************************************************************************
 208:Generated_Source\PSoC4/NRF_ISR.c **** *
 209:Generated_Source\PSoC4/NRF_ISR.c **** * Summary:
 210:Generated_Source\PSoC4/NRF_ISR.c **** *   Gets the "address" of the current ISR vector for the Interrupt.
 211:Generated_Source\PSoC4/NRF_ISR.c **** *
 212:Generated_Source\PSoC4/NRF_ISR.c **** * Parameters:
 213:Generated_Source\PSoC4/NRF_ISR.c **** *   None
 214:Generated_Source\PSoC4/NRF_ISR.c **** *
 215:Generated_Source\PSoC4/NRF_ISR.c **** * Return:
 216:Generated_Source\PSoC4/NRF_ISR.c **** *   Address of the ISR in the interrupt vector table.
 217:Generated_Source\PSoC4/NRF_ISR.c **** *
 218:Generated_Source\PSoC4/NRF_ISR.c **** *******************************************************************************/
 219:Generated_Source\PSoC4/NRF_ISR.c **** cyisraddress NRF_ISR_GetVector(void)
 220:Generated_Source\PSoC4/NRF_ISR.c **** {
 221:Generated_Source\PSoC4/NRF_ISR.c ****     return CyRamVectors[CYINT_IRQ_BASE + NRF_ISR__INTC_NUMBER];
 222:Generated_Source\PSoC4/NRF_ISR.c **** }
 223:Generated_Source\PSoC4/NRF_ISR.c **** 
 224:Generated_Source\PSoC4/NRF_ISR.c **** 
 225:Generated_Source\PSoC4/NRF_ISR.c **** /*******************************************************************************
 226:Generated_Source\PSoC4/NRF_ISR.c **** * Function Name: NRF_ISR_SetPriority
 227:Generated_Source\PSoC4/NRF_ISR.c **** ********************************************************************************
 228:Generated_Source\PSoC4/NRF_ISR.c **** *
ARM GAS  C:\Users\AFDHAL~1\AppData\Local\Temp\ccMqbXug.s 			page 6


 229:Generated_Source\PSoC4/NRF_ISR.c **** * Summary:
 230:Generated_Source\PSoC4/NRF_ISR.c **** *   Sets the Priority of the Interrupt. 
 231:Generated_Source\PSoC4/NRF_ISR.c **** *
 232:Generated_Source\PSoC4/NRF_ISR.c **** *   Note calling NRF_ISR_Start or NRF_ISR_StartEx will 
 233:Generated_Source\PSoC4/NRF_ISR.c **** *   override any effect this API would have had. This API should only be called
 234:Generated_Source\PSoC4/NRF_ISR.c **** *   after NRF_ISR_Start or NRF_ISR_StartEx has been called. 
 235:Generated_Source\PSoC4/NRF_ISR.c **** *   To set the initial priority for the component, use the Design-Wide Resources
 236:Generated_Source\PSoC4/NRF_ISR.c **** *   Interrupt Editor.
 237:Generated_Source\PSoC4/NRF_ISR.c **** *
 238:Generated_Source\PSoC4/NRF_ISR.c **** *   Note This API has no effect on Non-maskable interrupt NMI).
 239:Generated_Source\PSoC4/NRF_ISR.c **** *
 240:Generated_Source\PSoC4/NRF_ISR.c **** * Parameters:
 241:Generated_Source\PSoC4/NRF_ISR.c **** *   priority: Priority of the interrupt, 0 being the highest priority
 242:Generated_Source\PSoC4/NRF_ISR.c **** *             PSoC 3 and PSoC 5LP: Priority is from 0 to 7.
 243:Generated_Source\PSoC4/NRF_ISR.c **** *             PSoC 4: Priority is from 0 to 3.
 244:Generated_Source\PSoC4/NRF_ISR.c **** *
 245:Generated_Source\PSoC4/NRF_ISR.c **** * Return:
 246:Generated_Source\PSoC4/NRF_ISR.c **** *   None
 247:Generated_Source\PSoC4/NRF_ISR.c **** *
 248:Generated_Source\PSoC4/NRF_ISR.c **** *******************************************************************************/
 249:Generated_Source\PSoC4/NRF_ISR.c **** void NRF_ISR_SetPriority(uint8 priority)
 250:Generated_Source\PSoC4/NRF_ISR.c **** {
 251:Generated_Source\PSoC4/NRF_ISR.c **** 	uint8 interruptState;
 252:Generated_Source\PSoC4/NRF_ISR.c ****     uint32 priorityOffset = ((NRF_ISR__INTC_NUMBER % 4u) * 8u) + 6u;
 253:Generated_Source\PSoC4/NRF_ISR.c ****     
 254:Generated_Source\PSoC4/NRF_ISR.c **** 	interruptState = CyEnterCriticalSection();
 255:Generated_Source\PSoC4/NRF_ISR.c ****     *NRF_ISR_INTC_PRIOR = (*NRF_ISR_INTC_PRIOR & (uint32)(~NRF_ISR__INTC_PRIOR_MASK)) |
 256:Generated_Source\PSoC4/NRF_ISR.c ****                                     ((uint32)priority << priorityOffset);
 257:Generated_Source\PSoC4/NRF_ISR.c **** 	CyExitCriticalSection(interruptState);
 258:Generated_Source\PSoC4/NRF_ISR.c **** }
 259:Generated_Source\PSoC4/NRF_ISR.c **** 
 260:Generated_Source\PSoC4/NRF_ISR.c **** 
 261:Generated_Source\PSoC4/NRF_ISR.c **** /*******************************************************************************
 262:Generated_Source\PSoC4/NRF_ISR.c **** * Function Name: NRF_ISR_GetPriority
 263:Generated_Source\PSoC4/NRF_ISR.c **** ********************************************************************************
 264:Generated_Source\PSoC4/NRF_ISR.c **** *
 265:Generated_Source\PSoC4/NRF_ISR.c **** * Summary:
 266:Generated_Source\PSoC4/NRF_ISR.c **** *   Gets the Priority of the Interrupt.
 267:Generated_Source\PSoC4/NRF_ISR.c **** *
 268:Generated_Source\PSoC4/NRF_ISR.c **** * Parameters:
 269:Generated_Source\PSoC4/NRF_ISR.c **** *   None
 270:Generated_Source\PSoC4/NRF_ISR.c **** *
 271:Generated_Source\PSoC4/NRF_ISR.c **** * Return:
 272:Generated_Source\PSoC4/NRF_ISR.c **** *   Priority of the interrupt, 0 being the highest priority
 273:Generated_Source\PSoC4/NRF_ISR.c **** *    PSoC 3 and PSoC 5LP: Priority is from 0 to 7.
 274:Generated_Source\PSoC4/NRF_ISR.c **** *    PSoC 4: Priority is from 0 to 3.
 275:Generated_Source\PSoC4/NRF_ISR.c **** *
 276:Generated_Source\PSoC4/NRF_ISR.c **** *******************************************************************************/
 277:Generated_Source\PSoC4/NRF_ISR.c **** uint8 NRF_ISR_GetPriority(void)
 278:Generated_Source\PSoC4/NRF_ISR.c **** {
 279:Generated_Source\PSoC4/NRF_ISR.c ****     uint32 priority;
 280:Generated_Source\PSoC4/NRF_ISR.c **** 	uint32 priorityOffset = ((NRF_ISR__INTC_NUMBER % 4u) * 8u) + 6u;
 281:Generated_Source\PSoC4/NRF_ISR.c **** 
 282:Generated_Source\PSoC4/NRF_ISR.c ****     priority = (*NRF_ISR_INTC_PRIOR & NRF_ISR__INTC_PRIOR_MASK) >> priorityOffset;
 283:Generated_Source\PSoC4/NRF_ISR.c **** 
 284:Generated_Source\PSoC4/NRF_ISR.c ****     return (uint8)priority;
 285:Generated_Source\PSoC4/NRF_ISR.c **** }
ARM GAS  C:\Users\AFDHAL~1\AppData\Local\Temp\ccMqbXug.s 			page 7


 286:Generated_Source\PSoC4/NRF_ISR.c **** 
 287:Generated_Source\PSoC4/NRF_ISR.c **** 
 288:Generated_Source\PSoC4/NRF_ISR.c **** /*******************************************************************************
 289:Generated_Source\PSoC4/NRF_ISR.c **** * Function Name: NRF_ISR_Enable
 290:Generated_Source\PSoC4/NRF_ISR.c **** ********************************************************************************
 291:Generated_Source\PSoC4/NRF_ISR.c **** *
 292:Generated_Source\PSoC4/NRF_ISR.c **** * Summary:
 293:Generated_Source\PSoC4/NRF_ISR.c **** *   Enables the interrupt to the interrupt controller. Do not call this function
 294:Generated_Source\PSoC4/NRF_ISR.c **** *   unless ISR_Start() has been called or the functionality of the ISR_Start() 
 295:Generated_Source\PSoC4/NRF_ISR.c **** *   function, which sets the vector and the priority, has been called.
 296:Generated_Source\PSoC4/NRF_ISR.c **** *
 297:Generated_Source\PSoC4/NRF_ISR.c **** * Parameters:
 298:Generated_Source\PSoC4/NRF_ISR.c **** *   None
 299:Generated_Source\PSoC4/NRF_ISR.c **** *
 300:Generated_Source\PSoC4/NRF_ISR.c **** * Return:
 301:Generated_Source\PSoC4/NRF_ISR.c **** *   None
 302:Generated_Source\PSoC4/NRF_ISR.c **** *
 303:Generated_Source\PSoC4/NRF_ISR.c **** *******************************************************************************/
 304:Generated_Source\PSoC4/NRF_ISR.c **** void NRF_ISR_Enable(void)
 305:Generated_Source\PSoC4/NRF_ISR.c **** {
 306:Generated_Source\PSoC4/NRF_ISR.c ****     /* Enable the general interrupt. */
 307:Generated_Source\PSoC4/NRF_ISR.c ****     *NRF_ISR_INTC_SET_EN = NRF_ISR__INTC_MASK;
 308:Generated_Source\PSoC4/NRF_ISR.c **** }
 309:Generated_Source\PSoC4/NRF_ISR.c **** 
 310:Generated_Source\PSoC4/NRF_ISR.c **** 
 311:Generated_Source\PSoC4/NRF_ISR.c **** /*******************************************************************************
 312:Generated_Source\PSoC4/NRF_ISR.c **** * Function Name: NRF_ISR_GetState
 313:Generated_Source\PSoC4/NRF_ISR.c **** ********************************************************************************
 314:Generated_Source\PSoC4/NRF_ISR.c **** *
 315:Generated_Source\PSoC4/NRF_ISR.c **** * Summary:
 316:Generated_Source\PSoC4/NRF_ISR.c **** *   Gets the state (enabled, disabled) of the Interrupt.
 317:Generated_Source\PSoC4/NRF_ISR.c **** *
 318:Generated_Source\PSoC4/NRF_ISR.c **** * Parameters:
 319:Generated_Source\PSoC4/NRF_ISR.c **** *   None
 320:Generated_Source\PSoC4/NRF_ISR.c **** *
 321:Generated_Source\PSoC4/NRF_ISR.c **** * Return:
 322:Generated_Source\PSoC4/NRF_ISR.c **** *   1 if enabled, 0 if disabled.
 323:Generated_Source\PSoC4/NRF_ISR.c **** *
 324:Generated_Source\PSoC4/NRF_ISR.c **** *******************************************************************************/
 325:Generated_Source\PSoC4/NRF_ISR.c **** uint8 NRF_ISR_GetState(void)
 326:Generated_Source\PSoC4/NRF_ISR.c **** {
 327:Generated_Source\PSoC4/NRF_ISR.c ****     /* Get the state of the general interrupt. */
 328:Generated_Source\PSoC4/NRF_ISR.c ****     return ((*NRF_ISR_INTC_SET_EN & (uint32)NRF_ISR__INTC_MASK) != 0u) ? 1u:0u;
 329:Generated_Source\PSoC4/NRF_ISR.c **** }
 330:Generated_Source\PSoC4/NRF_ISR.c **** 
 331:Generated_Source\PSoC4/NRF_ISR.c **** 
 332:Generated_Source\PSoC4/NRF_ISR.c **** /*******************************************************************************
 333:Generated_Source\PSoC4/NRF_ISR.c **** * Function Name: NRF_ISR_Disable
 334:Generated_Source\PSoC4/NRF_ISR.c **** ********************************************************************************
 335:Generated_Source\PSoC4/NRF_ISR.c **** *
 336:Generated_Source\PSoC4/NRF_ISR.c **** * Summary:
 337:Generated_Source\PSoC4/NRF_ISR.c **** *   Disables the Interrupt in the interrupt controller.
 338:Generated_Source\PSoC4/NRF_ISR.c **** *
 339:Generated_Source\PSoC4/NRF_ISR.c **** * Parameters:
 340:Generated_Source\PSoC4/NRF_ISR.c **** *   None
 341:Generated_Source\PSoC4/NRF_ISR.c **** *
 342:Generated_Source\PSoC4/NRF_ISR.c **** * Return:
ARM GAS  C:\Users\AFDHAL~1\AppData\Local\Temp\ccMqbXug.s 			page 8


 343:Generated_Source\PSoC4/NRF_ISR.c **** *   None
 344:Generated_Source\PSoC4/NRF_ISR.c **** *
 345:Generated_Source\PSoC4/NRF_ISR.c **** *******************************************************************************/
 346:Generated_Source\PSoC4/NRF_ISR.c **** void NRF_ISR_Disable(void)
 347:Generated_Source\PSoC4/NRF_ISR.c **** {
 348:Generated_Source\PSoC4/NRF_ISR.c ****     /* Disable the general interrupt. */
 349:Generated_Source\PSoC4/NRF_ISR.c ****     *NRF_ISR_INTC_CLR_EN = NRF_ISR__INTC_MASK;
  57              		.loc 1 349 0
  58 0002 1024     		movs	r4, #16
  59 0004 084B     		ldr	r3, .L3
  60              	.LBE27:
  61              	.LBE26:
  62              	.LBB29:
  63              	.LBB30:
 201:Generated_Source\PSoC4/NRF_ISR.c **** }
  64              		.loc 1 201 0
  65 0006 094A     		ldr	r2, .L3+4
  66              	.LBE30:
  67              	.LBE29:
  68              	.LBB33:
  69              	.LBB28:
  70              		.loc 1 349 0
  71 0008 1C60     		str	r4, [r3]
  72              	.LVL0:
  73              	.LBE28:
  74              	.LBE33:
  75              	.LBB34:
  76              	.LBB31:
 201:Generated_Source\PSoC4/NRF_ISR.c **** }
  77              		.loc 1 201 0
  78 000a 094B     		ldr	r3, .L3+8
  79              	.LBE31:
  80              	.LBE34:
  69:Generated_Source\PSoC4/NRF_ISR.c **** 
  81              		.loc 1 69 0
  82              		@ sp needed
  83              	.LBB35:
  84              	.LBB32:
 201:Generated_Source\PSoC4/NRF_ISR.c **** }
  85              		.loc 1 201 0
  86 000c 1A65     		str	r2, [r3, #80]
  87              	.LVL1:
  88              	.LBE32:
  89              	.LBE35:
  90              	.LBB36:
  91              	.LBB37:
 254:Generated_Source\PSoC4/NRF_ISR.c ****     *NRF_ISR_INTC_PRIOR = (*NRF_ISR_INTC_PRIOR & (uint32)(~NRF_ISR__INTC_PRIOR_MASK)) |
  92              		.loc 1 254 0
  93 000e FFF7FEFF 		bl	CyEnterCriticalSection
  94              	.LVL2:
 255:Generated_Source\PSoC4/NRF_ISR.c ****                                     ((uint32)priority << priorityOffset);
  95              		.loc 1 255 0
  96 0012 C023     		movs	r3, #192
  97 0014 074A     		ldr	r2, .L3+12
  98 0016 1168     		ldr	r1, [r2]
  99 0018 0B43     		orrs	r3, r1
 100 001a 1360     		str	r3, [r2]
ARM GAS  C:\Users\AFDHAL~1\AppData\Local\Temp\ccMqbXug.s 			page 9


 257:Generated_Source\PSoC4/NRF_ISR.c **** }
 101              		.loc 1 257 0
 102 001c FFF7FEFF 		bl	CyExitCriticalSection
 103              	.LVL3:
 104              	.LBE37:
 105              	.LBE36:
 106              	.LBB38:
 107              	.LBB39:
 307:Generated_Source\PSoC4/NRF_ISR.c **** }
 108              		.loc 1 307 0
 109 0020 054B     		ldr	r3, .L3+16
 110 0022 1C60     		str	r4, [r3]
 111              	.LBE39:
 112              	.LBE38:
  69:Generated_Source\PSoC4/NRF_ISR.c **** 
 113              		.loc 1 69 0
 114 0024 10BD     		pop	{r4, pc}
 115              	.L4:
 116 0026 C046     		.align	2
 117              	.L3:
 118 0028 80E100E0 		.word	-536813184
 119 002c 00000000 		.word	NRF_ISR_Interrupt
 120 0030 00000000 		.word	CyRamVectors
 121 0034 04E400E0 		.word	-536812540
 122 0038 00E100E0 		.word	-536813312
 123              		.cfi_endproc
 124              	.LFE1:
 125              		.size	NRF_ISR_Start, .-NRF_ISR_Start
 126              		.section	.text.NRF_ISR_StartEx,"ax",%progbits
 127              		.align	2
 128              		.global	NRF_ISR_StartEx
 129              		.code	16
 130              		.thumb_func
 131              		.type	NRF_ISR_StartEx, %function
 132              	NRF_ISR_StartEx:
 133              	.LFB2:
 100:Generated_Source\PSoC4/NRF_ISR.c ****     /* For all we know the interrupt is active. */
 134              		.loc 1 100 0
 135              		.cfi_startproc
 136              		@ args = 0, pretend = 0, frame = 0
 137              		@ frame_needed = 0, uses_anonymous_args = 0
 138              	.LVL4:
 139 0000 10B5     		push	{r4, lr}
 140              		.cfi_def_cfa_offset 8
 141              		.cfi_offset 4, -8
 142              		.cfi_offset 14, -4
 143              	.LBB48:
 144              	.LBB49:
 145              		.loc 1 349 0
 146 0002 1024     		movs	r4, #16
 147 0004 074B     		ldr	r3, .L6
 148              	.LBE49:
 149              	.LBE48:
 112:Generated_Source\PSoC4/NRF_ISR.c **** 
 150              		.loc 1 112 0
 151              		@ sp needed
 152              	.LBB51:
ARM GAS  C:\Users\AFDHAL~1\AppData\Local\Temp\ccMqbXug.s 			page 10


 153              	.LBB50:
 154              		.loc 1 349 0
 155 0006 1C60     		str	r4, [r3]
 156              	.LVL5:
 157              	.LBE50:
 158              	.LBE51:
 159              	.LBB52:
 160              	.LBB53:
 201:Generated_Source\PSoC4/NRF_ISR.c **** }
 161              		.loc 1 201 0
 162 0008 074B     		ldr	r3, .L6+4
 163 000a 1865     		str	r0, [r3, #80]
 164              	.LVL6:
 165              	.LBE53:
 166              	.LBE52:
 167              	.LBB54:
 168              	.LBB55:
 254:Generated_Source\PSoC4/NRF_ISR.c ****     *NRF_ISR_INTC_PRIOR = (*NRF_ISR_INTC_PRIOR & (uint32)(~NRF_ISR__INTC_PRIOR_MASK)) |
 169              		.loc 1 254 0
 170 000c FFF7FEFF 		bl	CyEnterCriticalSection
 171              	.LVL7:
 255:Generated_Source\PSoC4/NRF_ISR.c ****                                     ((uint32)priority << priorityOffset);
 172              		.loc 1 255 0
 173 0010 C023     		movs	r3, #192
 174 0012 064A     		ldr	r2, .L6+8
 175 0014 1168     		ldr	r1, [r2]
 176 0016 0B43     		orrs	r3, r1
 177 0018 1360     		str	r3, [r2]
 257:Generated_Source\PSoC4/NRF_ISR.c **** }
 178              		.loc 1 257 0
 179 001a FFF7FEFF 		bl	CyExitCriticalSection
 180              	.LVL8:
 181              	.LBE55:
 182              	.LBE54:
 183              	.LBB56:
 184              	.LBB57:
 307:Generated_Source\PSoC4/NRF_ISR.c **** }
 185              		.loc 1 307 0
 186 001e 044B     		ldr	r3, .L6+12
 187 0020 1C60     		str	r4, [r3]
 188              	.LBE57:
 189              	.LBE56:
 112:Generated_Source\PSoC4/NRF_ISR.c **** 
 190              		.loc 1 112 0
 191 0022 10BD     		pop	{r4, pc}
 192              	.L7:
 193              		.align	2
 194              	.L6:
 195 0024 80E100E0 		.word	-536813184
 196 0028 00000000 		.word	CyRamVectors
 197 002c 04E400E0 		.word	-536812540
 198 0030 00E100E0 		.word	-536813312
 199              		.cfi_endproc
 200              	.LFE2:
 201              		.size	NRF_ISR_StartEx, .-NRF_ISR_StartEx
 202              		.section	.text.NRF_ISR_Stop,"ax",%progbits
 203              		.align	2
ARM GAS  C:\Users\AFDHAL~1\AppData\Local\Temp\ccMqbXug.s 			page 11


 204              		.global	NRF_ISR_Stop
 205              		.code	16
 206              		.thumb_func
 207              		.type	NRF_ISR_Stop, %function
 208              	NRF_ISR_Stop:
 209              	.LFB3:
 130:Generated_Source\PSoC4/NRF_ISR.c ****     /* Disable this interrupt. */
 210              		.loc 1 130 0
 211              		.cfi_startproc
 212              		@ args = 0, pretend = 0, frame = 0
 213              		@ frame_needed = 0, uses_anonymous_args = 0
 214              		@ link register save eliminated.
 215              	.LBB58:
 216              	.LBB59:
 217              		.loc 1 349 0
 218 0000 1022     		movs	r2, #16
 219 0002 034B     		ldr	r3, .L9
 220              	.LBE59:
 221              	.LBE58:
 136:Generated_Source\PSoC4/NRF_ISR.c **** 
 222              		.loc 1 136 0
 223              		@ sp needed
 224              	.LBB61:
 225              	.LBB60:
 226              		.loc 1 349 0
 227 0004 1A60     		str	r2, [r3]
 228              	.LVL9:
 229              	.LBE60:
 230              	.LBE61:
 231              	.LBB62:
 232              	.LBB63:
 201:Generated_Source\PSoC4/NRF_ISR.c **** }
 233              		.loc 1 201 0
 234 0006 034A     		ldr	r2, .L9+4
 235 0008 034B     		ldr	r3, .L9+8
 236 000a 1A65     		str	r2, [r3, #80]
 237              	.LVL10:
 238              	.LBE63:
 239              	.LBE62:
 136:Generated_Source\PSoC4/NRF_ISR.c **** 
 240              		.loc 1 136 0
 241 000c 7047     		bx	lr
 242              	.L10:
 243 000e C046     		.align	2
 244              	.L9:
 245 0010 80E100E0 		.word	-536813184
 246 0014 00000000 		.word	IntDefaultHandler
 247 0018 00000000 		.word	CyRamVectors
 248              		.cfi_endproc
 249              	.LFE3:
 250              		.size	NRF_ISR_Stop, .-NRF_ISR_Stop
 251              		.section	.text.NRF_ISR_SetVector,"ax",%progbits
 252              		.align	2
 253              		.global	NRF_ISR_SetVector
 254              		.code	16
 255              		.thumb_func
 256              		.type	NRF_ISR_SetVector, %function
ARM GAS  C:\Users\AFDHAL~1\AppData\Local\Temp\ccMqbXug.s 			page 12


 257              	NRF_ISR_SetVector:
 258              	.LFB5:
 200:Generated_Source\PSoC4/NRF_ISR.c ****     CyRamVectors[CYINT_IRQ_BASE + NRF_ISR__INTC_NUMBER] = address;
 259              		.loc 1 200 0
 260              		.cfi_startproc
 261              		@ args = 0, pretend = 0, frame = 0
 262              		@ frame_needed = 0, uses_anonymous_args = 0
 263              		@ link register save eliminated.
 264              	.LVL11:
 201:Generated_Source\PSoC4/NRF_ISR.c **** }
 265              		.loc 1 201 0
 266 0000 014B     		ldr	r3, .L12
 202:Generated_Source\PSoC4/NRF_ISR.c **** 
 267              		.loc 1 202 0
 268              		@ sp needed
 201:Generated_Source\PSoC4/NRF_ISR.c **** }
 269              		.loc 1 201 0
 270 0002 1865     		str	r0, [r3, #80]
 202:Generated_Source\PSoC4/NRF_ISR.c **** 
 271              		.loc 1 202 0
 272 0004 7047     		bx	lr
 273              	.L13:
 274 0006 C046     		.align	2
 275              	.L12:
 276 0008 00000000 		.word	CyRamVectors
 277              		.cfi_endproc
 278              	.LFE5:
 279              		.size	NRF_ISR_SetVector, .-NRF_ISR_SetVector
 280              		.section	.text.NRF_ISR_GetVector,"ax",%progbits
 281              		.align	2
 282              		.global	NRF_ISR_GetVector
 283              		.code	16
 284              		.thumb_func
 285              		.type	NRF_ISR_GetVector, %function
 286              	NRF_ISR_GetVector:
 287              	.LFB6:
 220:Generated_Source\PSoC4/NRF_ISR.c ****     return CyRamVectors[CYINT_IRQ_BASE + NRF_ISR__INTC_NUMBER];
 288              		.loc 1 220 0
 289              		.cfi_startproc
 290              		@ args = 0, pretend = 0, frame = 0
 291              		@ frame_needed = 0, uses_anonymous_args = 0
 292              		@ link register save eliminated.
 221:Generated_Source\PSoC4/NRF_ISR.c **** }
 293              		.loc 1 221 0
 294 0000 014B     		ldr	r3, .L15
 222:Generated_Source\PSoC4/NRF_ISR.c **** 
 295              		.loc 1 222 0
 296              		@ sp needed
 221:Generated_Source\PSoC4/NRF_ISR.c **** }
 297              		.loc 1 221 0
 298 0002 186D     		ldr	r0, [r3, #80]
 222:Generated_Source\PSoC4/NRF_ISR.c **** 
 299              		.loc 1 222 0
 300 0004 7047     		bx	lr
 301              	.L16:
 302 0006 C046     		.align	2
 303              	.L15:
ARM GAS  C:\Users\AFDHAL~1\AppData\Local\Temp\ccMqbXug.s 			page 13


 304 0008 00000000 		.word	CyRamVectors
 305              		.cfi_endproc
 306              	.LFE6:
 307              		.size	NRF_ISR_GetVector, .-NRF_ISR_GetVector
 308              		.section	.text.NRF_ISR_SetPriority,"ax",%progbits
 309              		.align	2
 310              		.global	NRF_ISR_SetPriority
 311              		.code	16
 312              		.thumb_func
 313              		.type	NRF_ISR_SetPriority, %function
 314              	NRF_ISR_SetPriority:
 315              	.LFB7:
 250:Generated_Source\PSoC4/NRF_ISR.c **** 	uint8 interruptState;
 316              		.loc 1 250 0
 317              		.cfi_startproc
 318              		@ args = 0, pretend = 0, frame = 0
 319              		@ frame_needed = 0, uses_anonymous_args = 0
 320              	.LVL12:
 321 0000 10B5     		push	{r4, lr}
 322              		.cfi_def_cfa_offset 8
 323              		.cfi_offset 4, -8
 324              		.cfi_offset 14, -4
 250:Generated_Source\PSoC4/NRF_ISR.c **** 	uint8 interruptState;
 325              		.loc 1 250 0
 326 0002 0400     		movs	r4, r0
 254:Generated_Source\PSoC4/NRF_ISR.c ****     *NRF_ISR_INTC_PRIOR = (*NRF_ISR_INTC_PRIOR & (uint32)(~NRF_ISR__INTC_PRIOR_MASK)) |
 327              		.loc 1 254 0
 328 0004 FFF7FEFF 		bl	CyEnterCriticalSection
 329              	.LVL13:
 255:Generated_Source\PSoC4/NRF_ISR.c ****                                     ((uint32)priority << priorityOffset);
 330              		.loc 1 255 0
 331 0008 C021     		movs	r1, #192
 332 000a 044A     		ldr	r2, .L18
 333 000c A401     		lsls	r4, r4, #6
 334 000e 1368     		ldr	r3, [r2]
 258:Generated_Source\PSoC4/NRF_ISR.c **** 
 335              		.loc 1 258 0
 336              		@ sp needed
 255:Generated_Source\PSoC4/NRF_ISR.c ****                                     ((uint32)priority << priorityOffset);
 337              		.loc 1 255 0
 338 0010 8B43     		bics	r3, r1
 339 0012 1C43     		orrs	r4, r3
 340 0014 1460     		str	r4, [r2]
 257:Generated_Source\PSoC4/NRF_ISR.c **** }
 341              		.loc 1 257 0
 342 0016 FFF7FEFF 		bl	CyExitCriticalSection
 343              	.LVL14:
 258:Generated_Source\PSoC4/NRF_ISR.c **** 
 344              		.loc 1 258 0
 345 001a 10BD     		pop	{r4, pc}
 346              	.L19:
 347              		.align	2
 348              	.L18:
 349 001c 04E400E0 		.word	-536812540
 350              		.cfi_endproc
 351              	.LFE7:
 352              		.size	NRF_ISR_SetPriority, .-NRF_ISR_SetPriority
ARM GAS  C:\Users\AFDHAL~1\AppData\Local\Temp\ccMqbXug.s 			page 14


 353              		.section	.text.NRF_ISR_GetPriority,"ax",%progbits
 354              		.align	2
 355              		.global	NRF_ISR_GetPriority
 356              		.code	16
 357              		.thumb_func
 358              		.type	NRF_ISR_GetPriority, %function
 359              	NRF_ISR_GetPriority:
 360              	.LFB8:
 278:Generated_Source\PSoC4/NRF_ISR.c ****     uint32 priority;
 361              		.loc 1 278 0
 362              		.cfi_startproc
 363              		@ args = 0, pretend = 0, frame = 0
 364              		@ frame_needed = 0, uses_anonymous_args = 0
 365              		@ link register save eliminated.
 366              	.LVL15:
 282:Generated_Source\PSoC4/NRF_ISR.c **** 
 367              		.loc 1 282 0
 368 0000 024B     		ldr	r3, .L21
 285:Generated_Source\PSoC4/NRF_ISR.c **** 
 369              		.loc 1 285 0
 370              		@ sp needed
 282:Generated_Source\PSoC4/NRF_ISR.c **** 
 371              		.loc 1 282 0
 372 0002 1868     		ldr	r0, [r3]
 373              	.LVL16:
 284:Generated_Source\PSoC4/NRF_ISR.c **** }
 374              		.loc 1 284 0
 375 0004 0006     		lsls	r0, r0, #24
 376              	.LVL17:
 377 0006 800F     		lsrs	r0, r0, #30
 285:Generated_Source\PSoC4/NRF_ISR.c **** 
 378              		.loc 1 285 0
 379 0008 7047     		bx	lr
 380              	.L22:
 381 000a C046     		.align	2
 382              	.L21:
 383 000c 04E400E0 		.word	-536812540
 384              		.cfi_endproc
 385              	.LFE8:
 386              		.size	NRF_ISR_GetPriority, .-NRF_ISR_GetPriority
 387              		.section	.text.NRF_ISR_Enable,"ax",%progbits
 388              		.align	2
 389              		.global	NRF_ISR_Enable
 390              		.code	16
 391              		.thumb_func
 392              		.type	NRF_ISR_Enable, %function
 393              	NRF_ISR_Enable:
 394              	.LFB9:
 305:Generated_Source\PSoC4/NRF_ISR.c ****     /* Enable the general interrupt. */
 395              		.loc 1 305 0
 396              		.cfi_startproc
 397              		@ args = 0, pretend = 0, frame = 0
 398              		@ frame_needed = 0, uses_anonymous_args = 0
 399              		@ link register save eliminated.
 307:Generated_Source\PSoC4/NRF_ISR.c **** }
 400              		.loc 1 307 0
 401 0000 1022     		movs	r2, #16
ARM GAS  C:\Users\AFDHAL~1\AppData\Local\Temp\ccMqbXug.s 			page 15


 402 0002 014B     		ldr	r3, .L24
 308:Generated_Source\PSoC4/NRF_ISR.c **** 
 403              		.loc 1 308 0
 404              		@ sp needed
 307:Generated_Source\PSoC4/NRF_ISR.c **** }
 405              		.loc 1 307 0
 406 0004 1A60     		str	r2, [r3]
 308:Generated_Source\PSoC4/NRF_ISR.c **** 
 407              		.loc 1 308 0
 408 0006 7047     		bx	lr
 409              	.L25:
 410              		.align	2
 411              	.L24:
 412 0008 00E100E0 		.word	-536813312
 413              		.cfi_endproc
 414              	.LFE9:
 415              		.size	NRF_ISR_Enable, .-NRF_ISR_Enable
 416              		.section	.text.NRF_ISR_GetState,"ax",%progbits
 417              		.align	2
 418              		.global	NRF_ISR_GetState
 419              		.code	16
 420              		.thumb_func
 421              		.type	NRF_ISR_GetState, %function
 422              	NRF_ISR_GetState:
 423              	.LFB10:
 326:Generated_Source\PSoC4/NRF_ISR.c ****     /* Get the state of the general interrupt. */
 424              		.loc 1 326 0
 425              		.cfi_startproc
 426              		@ args = 0, pretend = 0, frame = 0
 427              		@ frame_needed = 0, uses_anonymous_args = 0
 428              		@ link register save eliminated.
 328:Generated_Source\PSoC4/NRF_ISR.c **** }
 429              		.loc 1 328 0
 430 0000 024B     		ldr	r3, .L27
 329:Generated_Source\PSoC4/NRF_ISR.c **** 
 431              		.loc 1 329 0
 432              		@ sp needed
 328:Generated_Source\PSoC4/NRF_ISR.c **** }
 433              		.loc 1 328 0
 434 0002 1868     		ldr	r0, [r3]
 435 0004 C006     		lsls	r0, r0, #27
 436 0006 C00F     		lsrs	r0, r0, #31
 329:Generated_Source\PSoC4/NRF_ISR.c **** 
 437              		.loc 1 329 0
 438 0008 7047     		bx	lr
 439              	.L28:
 440 000a C046     		.align	2
 441              	.L27:
 442 000c 00E100E0 		.word	-536813312
 443              		.cfi_endproc
 444              	.LFE10:
 445              		.size	NRF_ISR_GetState, .-NRF_ISR_GetState
 446              		.section	.text.NRF_ISR_Disable,"ax",%progbits
 447              		.align	2
 448              		.global	NRF_ISR_Disable
 449              		.code	16
 450              		.thumb_func
ARM GAS  C:\Users\AFDHAL~1\AppData\Local\Temp\ccMqbXug.s 			page 16


 451              		.type	NRF_ISR_Disable, %function
 452              	NRF_ISR_Disable:
 453              	.LFB11:
 347:Generated_Source\PSoC4/NRF_ISR.c ****     /* Disable the general interrupt. */
 454              		.loc 1 347 0
 455              		.cfi_startproc
 456              		@ args = 0, pretend = 0, frame = 0
 457              		@ frame_needed = 0, uses_anonymous_args = 0
 458              		@ link register save eliminated.
 459              		.loc 1 349 0
 460 0000 1022     		movs	r2, #16
 461 0002 014B     		ldr	r3, .L30
 350:Generated_Source\PSoC4/NRF_ISR.c **** }
 462              		.loc 1 350 0
 463              		@ sp needed
 349:Generated_Source\PSoC4/NRF_ISR.c **** }
 464              		.loc 1 349 0
 465 0004 1A60     		str	r2, [r3]
 466              		.loc 1 350 0
 467 0006 7047     		bx	lr
 468              	.L31:
 469              		.align	2
 470              	.L30:
 471 0008 80E100E0 		.word	-536813184
 472              		.cfi_endproc
 473              	.LFE11:
 474              		.size	NRF_ISR_Disable, .-NRF_ISR_Disable
 475              		.section	.text.NRF_ISR_SetPending,"ax",%progbits
 476              		.align	2
 477              		.global	NRF_ISR_SetPending
 478              		.code	16
 479              		.thumb_func
 480              		.type	NRF_ISR_SetPending, %function
 481              	NRF_ISR_SetPending:
 482              	.LFB12:
 351:Generated_Source\PSoC4/NRF_ISR.c **** 
 352:Generated_Source\PSoC4/NRF_ISR.c **** 
 353:Generated_Source\PSoC4/NRF_ISR.c **** /*******************************************************************************
 354:Generated_Source\PSoC4/NRF_ISR.c **** * Function Name: NRF_ISR_SetPending
 355:Generated_Source\PSoC4/NRF_ISR.c **** ********************************************************************************
 356:Generated_Source\PSoC4/NRF_ISR.c **** *
 357:Generated_Source\PSoC4/NRF_ISR.c **** * Summary:
 358:Generated_Source\PSoC4/NRF_ISR.c **** *   Causes the Interrupt to enter the pending state, a software method of
 359:Generated_Source\PSoC4/NRF_ISR.c **** *   generating the interrupt.
 360:Generated_Source\PSoC4/NRF_ISR.c **** *
 361:Generated_Source\PSoC4/NRF_ISR.c **** * Parameters:
 362:Generated_Source\PSoC4/NRF_ISR.c **** *   None
 363:Generated_Source\PSoC4/NRF_ISR.c **** *
 364:Generated_Source\PSoC4/NRF_ISR.c **** * Return:
 365:Generated_Source\PSoC4/NRF_ISR.c **** *   None
 366:Generated_Source\PSoC4/NRF_ISR.c **** *
 367:Generated_Source\PSoC4/NRF_ISR.c **** * Side Effects:
 368:Generated_Source\PSoC4/NRF_ISR.c **** *   If interrupts are enabled and the interrupt is set up properly, the ISR is
 369:Generated_Source\PSoC4/NRF_ISR.c **** *   entered (depending on the priority of this interrupt and other pending 
 370:Generated_Source\PSoC4/NRF_ISR.c **** *   interrupts).
 371:Generated_Source\PSoC4/NRF_ISR.c **** *
 372:Generated_Source\PSoC4/NRF_ISR.c **** *******************************************************************************/
ARM GAS  C:\Users\AFDHAL~1\AppData\Local\Temp\ccMqbXug.s 			page 17


 373:Generated_Source\PSoC4/NRF_ISR.c **** void NRF_ISR_SetPending(void)
 374:Generated_Source\PSoC4/NRF_ISR.c **** {
 483              		.loc 1 374 0
 484              		.cfi_startproc
 485              		@ args = 0, pretend = 0, frame = 0
 486              		@ frame_needed = 0, uses_anonymous_args = 0
 487              		@ link register save eliminated.
 375:Generated_Source\PSoC4/NRF_ISR.c ****     *NRF_ISR_INTC_SET_PD = NRF_ISR__INTC_MASK;
 488              		.loc 1 375 0
 489 0000 1022     		movs	r2, #16
 490 0002 014B     		ldr	r3, .L33
 376:Generated_Source\PSoC4/NRF_ISR.c **** }
 491              		.loc 1 376 0
 492              		@ sp needed
 375:Generated_Source\PSoC4/NRF_ISR.c ****     *NRF_ISR_INTC_SET_PD = NRF_ISR__INTC_MASK;
 493              		.loc 1 375 0
 494 0004 1A60     		str	r2, [r3]
 495              		.loc 1 376 0
 496 0006 7047     		bx	lr
 497              	.L34:
 498              		.align	2
 499              	.L33:
 500 0008 00E200E0 		.word	-536813056
 501              		.cfi_endproc
 502              	.LFE12:
 503              		.size	NRF_ISR_SetPending, .-NRF_ISR_SetPending
 504              		.section	.text.NRF_ISR_ClearPending,"ax",%progbits
 505              		.align	2
 506              		.global	NRF_ISR_ClearPending
 507              		.code	16
 508              		.thumb_func
 509              		.type	NRF_ISR_ClearPending, %function
 510              	NRF_ISR_ClearPending:
 511              	.LFB13:
 377:Generated_Source\PSoC4/NRF_ISR.c **** 
 378:Generated_Source\PSoC4/NRF_ISR.c **** 
 379:Generated_Source\PSoC4/NRF_ISR.c **** /*******************************************************************************
 380:Generated_Source\PSoC4/NRF_ISR.c **** * Function Name: NRF_ISR_ClearPending
 381:Generated_Source\PSoC4/NRF_ISR.c **** ********************************************************************************
 382:Generated_Source\PSoC4/NRF_ISR.c **** *
 383:Generated_Source\PSoC4/NRF_ISR.c **** * Summary:
 384:Generated_Source\PSoC4/NRF_ISR.c **** *   Clears a pending interrupt in the interrupt controller.
 385:Generated_Source\PSoC4/NRF_ISR.c **** *
 386:Generated_Source\PSoC4/NRF_ISR.c **** *   Note Some interrupt sources are clear-on-read and require the block 
 387:Generated_Source\PSoC4/NRF_ISR.c **** *   interrupt/status register to be read/cleared with the appropriate block API 
 388:Generated_Source\PSoC4/NRF_ISR.c **** *   (GPIO, UART, and so on). Otherwise the ISR will continue to remain in 
 389:Generated_Source\PSoC4/NRF_ISR.c **** *   pending state even though the interrupt itself is cleared using this API.
 390:Generated_Source\PSoC4/NRF_ISR.c **** *
 391:Generated_Source\PSoC4/NRF_ISR.c **** * Parameters:
 392:Generated_Source\PSoC4/NRF_ISR.c **** *   None
 393:Generated_Source\PSoC4/NRF_ISR.c **** *
 394:Generated_Source\PSoC4/NRF_ISR.c **** * Return:
 395:Generated_Source\PSoC4/NRF_ISR.c **** *   None
 396:Generated_Source\PSoC4/NRF_ISR.c **** *
 397:Generated_Source\PSoC4/NRF_ISR.c **** *******************************************************************************/
 398:Generated_Source\PSoC4/NRF_ISR.c **** void NRF_ISR_ClearPending(void)
 399:Generated_Source\PSoC4/NRF_ISR.c **** {
ARM GAS  C:\Users\AFDHAL~1\AppData\Local\Temp\ccMqbXug.s 			page 18


 512              		.loc 1 399 0
 513              		.cfi_startproc
 514              		@ args = 0, pretend = 0, frame = 0
 515              		@ frame_needed = 0, uses_anonymous_args = 0
 516              		@ link register save eliminated.
 400:Generated_Source\PSoC4/NRF_ISR.c ****     *NRF_ISR_INTC_CLR_PD = NRF_ISR__INTC_MASK;
 517              		.loc 1 400 0
 518 0000 1022     		movs	r2, #16
 519 0002 014B     		ldr	r3, .L36
 401:Generated_Source\PSoC4/NRF_ISR.c **** }
 520              		.loc 1 401 0
 521              		@ sp needed
 400:Generated_Source\PSoC4/NRF_ISR.c ****     *NRF_ISR_INTC_CLR_PD = NRF_ISR__INTC_MASK;
 522              		.loc 1 400 0
 523 0004 1A60     		str	r2, [r3]
 524              		.loc 1 401 0
 525 0006 7047     		bx	lr
 526              	.L37:
 527              		.align	2
 528              	.L36:
 529 0008 80E200E0 		.word	-536812928
 530              		.cfi_endproc
 531              	.LFE13:
 532              		.size	NRF_ISR_ClearPending, .-NRF_ISR_ClearPending
 533              		.text
 534              	.Letext0:
 535              		.file 2 "Generated_Source\\PSoC4/cytypes.h"
 536              		.file 3 "Generated_Source\\PSoC4/CyLib.h"