ARM GAS  C:\Users\AFDHAL~1\AppData\Local\Temp\ccbEnBby.s 			page 1


   1              		.syntax unified
   2              		.cpu cortex-m0
   3              		.fpu softvfp
   4              		.eabi_attribute 20, 1
   5              		.eabi_attribute 21, 1
   6              		.eabi_attribute 23, 3
   7              		.eabi_attribute 24, 1
   8              		.eabi_attribute 25, 1
   9              		.eabi_attribute 26, 1
  10              		.eabi_attribute 30, 2
  11              		.eabi_attribute 34, 0
  12              		.eabi_attribute 18, 4
  13              		.thumb
  14              		.syntax unified
  15              		.file	"pid.c"
  16              		.text
  17              	.Ltext0:
  18              		.cfi_sections	.debug_frame
  19              		.section	.text.PID_Set_Gains,"ax",%progbits
  20              		.align	2
  21              		.global	PID_Set_Gains
  22              		.code	16
  23              		.thumb_func
  24              		.type	PID_Set_Gains, %function
  25              	PID_Set_Gains:
  26              	.LFB34:
  27              		.file 1 "pid.c"
   1:pid.c         **** /*******************************************************************************
   2:pid.c         **** * File Name: pid.c  
   3:pid.c         **** * Version 0.1
   4:pid.c         **** * 16th October 2017
   5:pid.c         **** *
   6:pid.c         **** *  Description:
   7:pid.c         **** *   APIs for PID controller.
   8:pid.c         **** *
   9:pid.c         **** *
  10:pid.c         **** *  Note:  
  11:pid.c         **** *   Future: 
  12:pid.c         **** *       -Implement decay variable for integral.
  13:pid.c         **** *       -Implement filter for PD.
  14:pid.c         **** ********************************************************************************
  15:pid.c         ****  * Copyright AfdhalAtiffTan, 2017
  16:pid.c         ****  * All Rights Reserved
  17:pid.c         ****  * UNPUBLISHED, LICENSED SOFTWARE.
  18:pid.c         **** *******************************************************************************/
  19:pid.c         **** 
  20:pid.c         **** #include "pid.h"
  21:pid.c         **** 
  22:pid.c         **** //gain for p, i, and d.
  23:pid.c         **** static float kp,ki,kd;
  24:pid.c         **** 
  25:pid.c         **** //setpoint is the desired target, input is the feedback (e.g. rotary encoder), and output is the fi
  26:pid.c         **** static float *setpoint, *input, *output;
  27:pid.c         **** 
  28:pid.c         **** //errors
  29:pid.c         **** static float error, input_previous, error_integrated, input_differentiated;
  30:pid.c         **** 
ARM GAS  C:\Users\AFDHAL~1\AppData\Local\Temp\ccbEnBby.s 			page 2


  31:pid.c         **** //limits
  32:pid.c         **** static float out_min, out_max;
  33:pid.c         **** 
  34:pid.c         **** 
  35:pid.c         **** /*******************************************************************************
  36:pid.c         **** * Function Name: PID_Set_Gains
  37:pid.c         **** ********************************************************************************
  38:pid.c         **** *
  39:pid.c         **** * Summary:
  40:pid.c         **** *  Set the gain for all components (Propotional, Integral, Derivative)
  41:pid.c         **** *
  42:pid.c         **** * Parameters:  
  43:pid.c         **** *   *_kp: Gain for proportional.
  44:pid.c         **** *   *_ki: Gain for integral.
  45:pid.c         **** *   *_kd: Gain for derivative.
  46:pid.c         **** *
  47:pid.c         **** * Return:
  48:pid.c         **** *   None
  49:pid.c         **** *
  50:pid.c         **** *******************************************************************************/
  51:pid.c         **** void PID_Set_Gains(float _kp, float _ki, float _kd)
  52:pid.c         **** {
  28              		.loc 1 52 0
  29              		.cfi_startproc
  30              		@ args = 0, pretend = 0, frame = 0
  31              		@ frame_needed = 0, uses_anonymous_args = 0
  32              		@ link register save eliminated.
  33              	.LVL0:
  53:pid.c         ****     kp = _kp;
  34              		.loc 1 53 0
  35 0000 024B     		ldr	r3, .L2
  54:pid.c         ****     ki = _ki;
  55:pid.c         ****     kd = _kd;
  56:pid.c         **** }
  36              		.loc 1 56 0
  37              		@ sp needed
  53:pid.c         ****     kp = _kp;
  38              		.loc 1 53 0
  39 0002 1860     		str	r0, [r3]
  54:pid.c         ****     ki = _ki;
  40              		.loc 1 54 0
  41 0004 5960     		str	r1, [r3, #4]
  55:pid.c         **** }
  42              		.loc 1 55 0
  43 0006 9A60     		str	r2, [r3, #8]
  44              		.loc 1 56 0
  45 0008 7047     		bx	lr
  46              	.L3:
  47 000a C046     		.align	2
  48              	.L2:
  49 000c 00000000 		.word	.LANCHOR0
  50              		.cfi_endproc
  51              	.LFE34:
  52              		.size	PID_Set_Gains, .-PID_Set_Gains
  53              		.section	.text.PID_Init,"ax",%progbits
  54              		.align	2
  55              		.global	PID_Init
ARM GAS  C:\Users\AFDHAL~1\AppData\Local\Temp\ccbEnBby.s 			page 3


  56              		.code	16
  57              		.thumb_func
  58              		.type	PID_Init, %function
  59              	PID_Init:
  60              	.LFB35:
  57:pid.c         **** 
  58:pid.c         **** 
  59:pid.c         **** /*******************************************************************************
  60:pid.c         **** * Function Name: PID_Init
  61:pid.c         **** ********************************************************************************
  62:pid.c         **** *
  63:pid.c         **** * Summary:
  64:pid.c         **** *  Initialised all cumulated variables to zero and initialise variables.
  65:pid.c         **** *
  66:pid.c         **** * Parameters:  
  67:pid.c         **** *   None.
  68:pid.c         **** *
  69:pid.c         **** * Return:
  70:pid.c         **** *   None
  71:pid.c         **** *
  72:pid.c         **** *******************************************************************************/
  73:pid.c         **** void PID_Init()
  74:pid.c         **** {
  61              		.loc 1 74 0
  62              		.cfi_startproc
  63              		@ args = 0, pretend = 0, frame = 0
  64              		@ frame_needed = 0, uses_anonymous_args = 0
  65              		@ link register save eliminated.
  75:pid.c         ****     kp = 1.0;
  66              		.loc 1 75 0
  67 0000 FE22     		movs	r2, #254
  68 0002 064B     		ldr	r3, .L5
  69 0004 9205     		lsls	r2, r2, #22
  70 0006 1A60     		str	r2, [r3]
  76:pid.c         ****     ki = 0.0;
  71              		.loc 1 76 0
  72 0008 0022     		movs	r2, #0
  73 000a 5A60     		str	r2, [r3, #4]
  77:pid.c         ****     kd = 0.0;
  74              		.loc 1 77 0
  75 000c 9A60     		str	r2, [r3, #8]
  78:pid.c         ****     
  79:pid.c         ****     input_previous = 0.0;
  76              		.loc 1 79 0
  77 000e DA60     		str	r2, [r3, #12]
  80:pid.c         ****     error_integrated = 0.0;
  78              		.loc 1 80 0
  79 0010 1A61     		str	r2, [r3, #16]
  81:pid.c         ****     
  82:pid.c         ****     out_min = -65535.0;
  80              		.loc 1 82 0
  81 0012 034A     		ldr	r2, .L5+4
  83:pid.c         ****     out_max = 65535.0;
  84:pid.c         **** }
  82              		.loc 1 84 0
  83              		@ sp needed
  82:pid.c         ****     out_max = 65535.0;
ARM GAS  C:\Users\AFDHAL~1\AppData\Local\Temp\ccbEnBby.s 			page 4


  84              		.loc 1 82 0
  85 0014 5A61     		str	r2, [r3, #20]
  83:pid.c         ****     out_max = 65535.0;
  86              		.loc 1 83 0
  87 0016 034A     		ldr	r2, .L5+8
  88 0018 9A61     		str	r2, [r3, #24]
  89              		.loc 1 84 0
  90 001a 7047     		bx	lr
  91              	.L6:
  92              		.align	2
  93              	.L5:
  94 001c 00000000 		.word	.LANCHOR0
  95 0020 00FF7FC7 		.word	-947912960
  96 0024 00FF7F47 		.word	1199570688
  97              		.cfi_endproc
  98              	.LFE35:
  99              		.size	PID_Init, .-PID_Init
 100              		.section	.text.PID_Set_Setpoint,"ax",%progbits
 101              		.align	2
 102              		.global	PID_Set_Setpoint
 103              		.code	16
 104              		.thumb_func
 105              		.type	PID_Set_Setpoint, %function
 106              	PID_Set_Setpoint:
 107              	.LFB36:
  85:pid.c         **** 
  86:pid.c         **** 
  87:pid.c         **** /*******************************************************************************
  88:pid.c         **** * Function Name: PID_Set_Setpoint
  89:pid.c         **** ********************************************************************************
  90:pid.c         **** *
  91:pid.c         **** * Summary:
  92:pid.c         **** *  Set the location of "setpoint" variable (e.g. desired position)
  93:pid.c         **** *
  94:pid.c         **** * Parameters:  
  95:pid.c         **** *   *_setpoint: The address of an "setpoint" variable (must use & operator)
  96:pid.c         **** *
  97:pid.c         **** * Return:
  98:pid.c         **** *   None
  99:pid.c         **** *
 100:pid.c         **** *******************************************************************************/
 101:pid.c         **** void PID_Set_Setpoint(float *_setpoint)
 102:pid.c         **** {
 108              		.loc 1 102 0
 109              		.cfi_startproc
 110              		@ args = 0, pretend = 0, frame = 0
 111              		@ frame_needed = 0, uses_anonymous_args = 0
 112              		@ link register save eliminated.
 113              	.LVL1:
 103:pid.c         ****     setpoint = _setpoint;
 114              		.loc 1 103 0
 115 0000 014B     		ldr	r3, .L8
 104:pid.c         **** }
 116              		.loc 1 104 0
 117              		@ sp needed
 103:pid.c         ****     setpoint = _setpoint;
 118              		.loc 1 103 0
ARM GAS  C:\Users\AFDHAL~1\AppData\Local\Temp\ccbEnBby.s 			page 5


 119 0002 D861     		str	r0, [r3, #28]
 120              		.loc 1 104 0
 121 0004 7047     		bx	lr
 122              	.L9:
 123 0006 C046     		.align	2
 124              	.L8:
 125 0008 00000000 		.word	.LANCHOR0
 126              		.cfi_endproc
 127              	.LFE36:
 128              		.size	PID_Set_Setpoint, .-PID_Set_Setpoint
 129              		.section	.text.PID_Set_Input,"ax",%progbits
 130              		.align	2
 131              		.global	PID_Set_Input
 132              		.code	16
 133              		.thumb_func
 134              		.type	PID_Set_Input, %function
 135              	PID_Set_Input:
 136              	.LFB37:
 105:pid.c         **** 
 106:pid.c         **** 
 107:pid.c         **** /*******************************************************************************
 108:pid.c         **** * Function Name: PID_Set_Input
 109:pid.c         **** ********************************************************************************
 110:pid.c         **** *
 111:pid.c         **** * Summary:
 112:pid.c         **** *  Set the location of "feedback" variable (e.g. reading from rotary decoder)
 113:pid.c         **** *
 114:pid.c         **** * Parameters:  
 115:pid.c         **** *   *_input: The address of a "feedback" variable (must use & operator)
 116:pid.c         **** *
 117:pid.c         **** * Return:
 118:pid.c         **** *   None
 119:pid.c         **** *
 120:pid.c         **** *******************************************************************************/
 121:pid.c         **** void PID_Set_Input(float *_input)
 122:pid.c         **** {
 137              		.loc 1 122 0
 138              		.cfi_startproc
 139              		@ args = 0, pretend = 0, frame = 0
 140              		@ frame_needed = 0, uses_anonymous_args = 0
 141              		@ link register save eliminated.
 142              	.LVL2:
 123:pid.c         ****     input = _input;
 143              		.loc 1 123 0
 144 0000 014B     		ldr	r3, .L11
 124:pid.c         **** }
 145              		.loc 1 124 0
 146              		@ sp needed
 123:pid.c         ****     input = _input;
 147              		.loc 1 123 0
 148 0002 1862     		str	r0, [r3, #32]
 149              		.loc 1 124 0
 150 0004 7047     		bx	lr
 151              	.L12:
 152 0006 C046     		.align	2
 153              	.L11:
 154 0008 00000000 		.word	.LANCHOR0
ARM GAS  C:\Users\AFDHAL~1\AppData\Local\Temp\ccbEnBby.s 			page 6


 155              		.cfi_endproc
 156              	.LFE37:
 157              		.size	PID_Set_Input, .-PID_Set_Input
 158              		.section	.text.PID_Set_Output,"ax",%progbits
 159              		.align	2
 160              		.global	PID_Set_Output
 161              		.code	16
 162              		.thumb_func
 163              		.type	PID_Set_Output, %function
 164              	PID_Set_Output:
 165              	.LFB38:
 125:pid.c         **** 
 126:pid.c         **** 
 127:pid.c         **** /*******************************************************************************
 128:pid.c         **** * Function Name: PID_Set_Output
 129:pid.c         **** ********************************************************************************
 130:pid.c         **** *
 131:pid.c         **** * Summary:
 132:pid.c         **** *  Set the location of "output" variable (e.g. output to pwm)
 133:pid.c         **** *
 134:pid.c         **** * Parameters:  
 135:pid.c         **** *   *_output: The address of an "output" variable (must use & operator)
 136:pid.c         **** *
 137:pid.c         **** * Return:
 138:pid.c         **** *   None
 139:pid.c         **** *
 140:pid.c         **** *******************************************************************************/
 141:pid.c         **** void PID_Set_Output(float *_output)
 142:pid.c         **** {
 166              		.loc 1 142 0
 167              		.cfi_startproc
 168              		@ args = 0, pretend = 0, frame = 0
 169              		@ frame_needed = 0, uses_anonymous_args = 0
 170              		@ link register save eliminated.
 171              	.LVL3:
 143:pid.c         ****     output = _output;
 172              		.loc 1 143 0
 173 0000 014B     		ldr	r3, .L14
 144:pid.c         **** }
 174              		.loc 1 144 0
 175              		@ sp needed
 143:pid.c         ****     output = _output;
 176              		.loc 1 143 0
 177 0002 5862     		str	r0, [r3, #36]
 178              		.loc 1 144 0
 179 0004 7047     		bx	lr
 180              	.L15:
 181 0006 C046     		.align	2
 182              	.L14:
 183 0008 00000000 		.word	.LANCHOR0
 184              		.cfi_endproc
 185              	.LFE38:
 186              		.size	PID_Set_Output, .-PID_Set_Output
 187              		.section	.text.PID_Set_Output_Limits,"ax",%progbits
 188              		.align	2
 189              		.global	PID_Set_Output_Limits
 190              		.code	16
ARM GAS  C:\Users\AFDHAL~1\AppData\Local\Temp\ccbEnBby.s 			page 7


 191              		.thumb_func
 192              		.type	PID_Set_Output_Limits, %function
 193              	PID_Set_Output_Limits:
 194              	.LFB39:
 145:pid.c         **** 
 146:pid.c         **** 
 147:pid.c         **** /*******************************************************************************
 148:pid.c         **** * Function Name: PID_Set_Output_Limits
 149:pid.c         **** ********************************************************************************
 150:pid.c         **** *
 151:pid.c         **** * Summary:
 152:pid.c         **** *  Set the upper and lower limit for the output so that windup can be avoided.
 153:pid.c         **** *
 154:pid.c         **** * Parameters:  
 155:pid.c         **** *   _out_min: The lowest number that the output is allowed.
 156:pid.c         **** *   _out_max: The highest number that the output is allowed.
 157:pid.c         **** *
 158:pid.c         **** * Return:
 159:pid.c         **** *   None
 160:pid.c         **** *
 161:pid.c         **** *******************************************************************************/
 162:pid.c         **** void PID_Set_Output_Limits(float _out_min, float _out_max)
 163:pid.c         **** {
 195              		.loc 1 163 0
 196              		.cfi_startproc
 197              		@ args = 0, pretend = 0, frame = 0
 198              		@ frame_needed = 0, uses_anonymous_args = 0
 199              		@ link register save eliminated.
 200              	.LVL4:
 164:pid.c         ****     out_min = _out_min;
 201              		.loc 1 164 0
 202 0000 014B     		ldr	r3, .L17
 165:pid.c         ****     out_max = _out_max;
 166:pid.c         **** }
 203              		.loc 1 166 0
 204              		@ sp needed
 164:pid.c         ****     out_min = _out_min;
 205              		.loc 1 164 0
 206 0002 5861     		str	r0, [r3, #20]
 165:pid.c         ****     out_max = _out_max;
 207              		.loc 1 165 0
 208 0004 9961     		str	r1, [r3, #24]
 209              		.loc 1 166 0
 210 0006 7047     		bx	lr
 211              	.L18:
 212              		.align	2
 213              	.L17:
 214 0008 00000000 		.word	.LANCHOR0
 215              		.cfi_endproc
 216              	.LFE39:
 217              		.size	PID_Set_Output_Limits, .-PID_Set_Output_Limits
 218              		.global	__aeabi_fsub
 219              		.global	__aeabi_fmul
 220              		.global	__aeabi_fadd
 221              		.global	__aeabi_fcmpgt
 222              		.global	__aeabi_fcmplt
 223              		.global	__aeabi_fcmpeq
ARM GAS  C:\Users\AFDHAL~1\AppData\Local\Temp\ccbEnBby.s 			page 8


 224              		.global	__aeabi_f2d
 225              		.global	__aeabi_ddiv
 226              		.global	__aeabi_dmul
 227              		.global	__aeabi_dadd
 228              		.global	__aeabi_d2f
 229              		.section	.text.PID_Tick,"ax",%progbits
 230              		.align	2
 231              		.global	PID_Tick
 232              		.code	16
 233              		.thumb_func
 234              		.type	PID_Tick, %function
 235              	PID_Tick:
 236              	.LFB40:
 167:pid.c         **** 
 168:pid.c         **** 
 169:pid.c         **** /*******************************************************************************
 170:pid.c         **** * Function Name: PID_Tick
 171:pid.c         **** ********************************************************************************
 172:pid.c         **** *
 173:pid.c         **** * Summary:
 174:pid.c         **** *   This function should be called periodically (e.g. 100Hz) during runtime.
 175:pid.c         **** *   It handles PID maths and its output.
 176:pid.c         **** *
 177:pid.c         **** * Parameters:  
 178:pid.c         **** *   None
 179:pid.c         **** *
 180:pid.c         **** * Return:
 181:pid.c         **** *   None
 182:pid.c         **** *
 183:pid.c         **** *******************************************************************************/
 184:pid.c         **** CY_ISR(PID_Tick)
 185:pid.c         **** {
 237              		.loc 1 185 0
 238              		.cfi_startproc
 239              		@ args = 0, pretend = 0, frame = 8
 240              		@ frame_needed = 0, uses_anonymous_args = 0
 241 0000 F0B5     		push	{r4, r5, r6, r7, lr}
 242              		.cfi_def_cfa_offset 20
 243              		.cfi_offset 4, -20
 244              		.cfi_offset 5, -16
 245              		.cfi_offset 6, -12
 246              		.cfi_offset 7, -8
 247              		.cfi_offset 14, -4
 248 0002 5646     		mov	r6, r10
 249 0004 4446     		mov	r4, r8
 250 0006 4D46     		mov	r5, r9
 251 0008 5F46     		mov	r7, fp
 252 000a F0B4     		push	{r4, r5, r6, r7}
 253              		.cfi_def_cfa_offset 36
 254              		.cfi_offset 8, -36
 255              		.cfi_offset 9, -32
 256              		.cfi_offset 10, -28
 257              		.cfi_offset 11, -24
 186:pid.c         **** //    static int cnt=0;
 187:pid.c         ****      
 188:pid.c         **** //    //heartbeat on led
 189:pid.c         **** //    if(cnt++>15)
ARM GAS  C:\Users\AFDHAL~1\AppData\Local\Temp\ccbEnBby.s 			page 9


 190:pid.c         **** //    {
 191:pid.c         **** //        cnt=0;
 192:pid.c         **** //        LED_Write(~LED_Read());
 193:pid.c         **** //    }        
 194:pid.c         ****      
 195:pid.c         ****     //<Proportional>
 196:pid.c         ****     error = *setpoint - *input;    
 258              		.loc 1 196 0
 259 000c 3E4C     		ldr	r4, .L35
 185:pid.c         **** //    static int cnt=0;
 260              		.loc 1 185 0
 261 000e 83B0     		sub	sp, sp, #12
 262              		.cfi_def_cfa_offset 48
 263              		.loc 1 196 0
 264 0010 236A     		ldr	r3, [r4, #32]
 265 0012 9846     		mov	r8, r3
 266 0014 4246     		mov	r2, r8
 267 0016 E369     		ldr	r3, [r4, #28]
 268 0018 1168     		ldr	r1, [r2]
 269 001a 1868     		ldr	r0, [r3]
 270 001c FFF7FEFF 		bl	__aeabi_fsub
 271              	.LVL5:
 197:pid.c         ****     *output = kp*error;
 272              		.loc 1 197 0
 273 0020 2168     		ldr	r1, [r4]
 196:pid.c         ****     *output = kp*error;
 274              		.loc 1 196 0
 275 0022 061C     		adds	r6, r0, #0
 276              		.loc 1 197 0
 277 0024 FFF7FEFF 		bl	__aeabi_fmul
 278              	.LVL6:
 279 0028 656A     		ldr	r5, [r4, #36]
 280 002a 0190     		str	r0, [sp, #4]
 281 002c 2860     		str	r0, [r5]
 198:pid.c         ****     //</Proportional>
 199:pid.c         ****     
 200:pid.c         ****     //<Integration>
 201:pid.c         ****     error_integrated += error;
 282              		.loc 1 201 0
 283 002e 2169     		ldr	r1, [r4, #16]
 284 0030 301C     		adds	r0, r6, #0
 285 0032 FFF7FEFF 		bl	__aeabi_fadd
 286              	.LVL7:
 202:pid.c         ****         
 203:pid.c         ****     //preventing integrator windup   
 204:pid.c         ****     error_integrated = error_integrated > out_max ? out_max : error_integrated;
 287              		.loc 1 204 0
 288 0036 A369     		ldr	r3, [r4, #24]
 201:pid.c         ****         
 289              		.loc 1 201 0
 290 0038 061C     		adds	r6, r0, #0
 291              		.loc 1 204 0
 292 003a 191C     		adds	r1, r3, #0
 293 003c 9A46     		mov	r10, r3
 294 003e FFF7FEFF 		bl	__aeabi_fcmpgt
 295              	.LVL8:
 296 0042 0028     		cmp	r0, #0
ARM GAS  C:\Users\AFDHAL~1\AppData\Local\Temp\ccbEnBby.s 			page 10


 297 0044 00D0     		beq	.L20
 298 0046 5646     		mov	r6, r10
 299              	.L20:
 205:pid.c         ****     error_integrated = error_integrated < out_min ? out_min : error_integrated;
 300              		.loc 1 205 0 discriminator 4
 301 0048 6369     		ldr	r3, [r4, #20]
 302 004a 301C     		adds	r0, r6, #0
 303 004c 191C     		adds	r1, r3, #0
 304 004e 9946     		mov	r9, r3
 305 0050 FFF7FEFF 		bl	__aeabi_fcmplt
 306              	.LVL9:
 307 0054 0028     		cmp	r0, #0
 308 0056 00D0     		beq	.L22
 309              		.loc 1 205 0 is_stmt 0
 310 0058 4E46     		mov	r6, r9
 311              	.L22:
 206:pid.c         ****     
 207:pid.c         ****     //reseting integrator
 208:pid.c         ****     if(ki == 0.0)
 312              		.loc 1 208 0 is_stmt 1 discriminator 4
 313 005a 0027     		movs	r7, #0
 314 005c 6368     		ldr	r3, [r4, #4]
 205:pid.c         ****     error_integrated = error_integrated < out_min ? out_min : error_integrated;
 315              		.loc 1 205 0 discriminator 4
 316 005e 2661     		str	r6, [r4, #16]
 317              		.loc 1 208 0 discriminator 4
 318 0060 391C     		adds	r1, r7, #0
 319 0062 181C     		adds	r0, r3, #0
 320 0064 9B46     		mov	fp, r3
 321 0066 FFF7FEFF 		bl	__aeabi_fcmpeq
 322              	.LVL10:
 323 006a 0028     		cmp	r0, #0
 324 006c 48D1     		bne	.L24
 325 006e 301C     		adds	r0, r6, #0
 326 0070 FFF7FEFF 		bl	__aeabi_f2d
 327              	.LVL11:
 328 0074 0600     		movs	r6, r0
 329 0076 0F00     		movs	r7, r1
 330              	.L25:
 209:pid.c         ****         error_integrated = 0.0;
 210:pid.c         ****     
 211:pid.c         ****     *output += ki/1000.0*error_integrated; //added divide by 1000 to allow for fractional math
 331              		.loc 1 211 0
 332 0078 5846     		mov	r0, fp
 333 007a FFF7FEFF 		bl	__aeabi_f2d
 334              	.LVL12:
 335 007e 0022     		movs	r2, #0
 336 0080 224B     		ldr	r3, .L35+4
 337 0082 FFF7FEFF 		bl	__aeabi_ddiv
 338              	.LVL13:
 339 0086 3200     		movs	r2, r6
 340 0088 3B00     		movs	r3, r7
 341 008a FFF7FEFF 		bl	__aeabi_dmul
 342              	.LVL14:
 343 008e 0600     		movs	r6, r0
 344 0090 0198     		ldr	r0, [sp, #4]
 345 0092 0F00     		movs	r7, r1
ARM GAS  C:\Users\AFDHAL~1\AppData\Local\Temp\ccbEnBby.s 			page 11


 346 0094 FFF7FEFF 		bl	__aeabi_f2d
 347              	.LVL15:
 348 0098 0200     		movs	r2, r0
 349 009a 0B00     		movs	r3, r1
 350 009c 3000     		movs	r0, r6
 351 009e 3900     		movs	r1, r7
 352 00a0 FFF7FEFF 		bl	__aeabi_dadd
 353              	.LVL16:
 354 00a4 FFF7FEFF 		bl	__aeabi_d2f
 355              	.LVL17:
 212:pid.c         ****     //</Integration>
 213:pid.c         ****     
 214:pid.c         ****     //<Differentiation> (“Derivative on Measurement”)
 215:pid.c         ****     input_differentiated = *input - input_previous;    
 356              		.loc 1 215 0
 357 00a8 4346     		mov	r3, r8
 211:pid.c         ****     //</Integration>
 358              		.loc 1 211 0
 359 00aa 2860     		str	r0, [r5]
 360              		.loc 1 215 0
 361 00ac 1F68     		ldr	r7, [r3]
 362 00ae E168     		ldr	r1, [r4, #12]
 211:pid.c         ****     //</Integration>
 363              		.loc 1 211 0
 364 00b0 061C     		adds	r6, r0, #0
 365              		.loc 1 215 0
 366 00b2 381C     		adds	r0, r7, #0
 367 00b4 FFF7FEFF 		bl	__aeabi_fsub
 368              	.LVL18:
 216:pid.c         ****     input_previous = *input;
 217:pid.c         ****     
 218:pid.c         ****     *output -= kd * input_differentiated;
 369              		.loc 1 218 0
 370 00b8 A168     		ldr	r1, [r4, #8]
 216:pid.c         ****     input_previous = *input;
 371              		.loc 1 216 0
 372 00ba E760     		str	r7, [r4, #12]
 373              		.loc 1 218 0
 374 00bc FFF7FEFF 		bl	__aeabi_fmul
 375              	.LVL19:
 376 00c0 011C     		adds	r1, r0, #0
 377 00c2 301C     		adds	r0, r6, #0
 378 00c4 FFF7FEFF 		bl	__aeabi_fsub
 379              	.LVL20:
 380 00c8 041C     		adds	r4, r0, #0
 219:pid.c         ****     //</Differentiation>
 220:pid.c         ****     
 221:pid.c         ****     //output clamp
 222:pid.c         ****     *output = *output > out_max ? out_max : *output;
 381              		.loc 1 222 0
 382 00ca 011C     		adds	r1, r0, #0
 383 00cc 5046     		mov	r0, r10
 384 00ce FFF7FEFF 		bl	__aeabi_fcmplt
 385              	.LVL21:
 386 00d2 0028     		cmp	r0, #0
 387 00d4 00D0     		beq	.L26
 388 00d6 5446     		mov	r4, r10
ARM GAS  C:\Users\AFDHAL~1\AppData\Local\Temp\ccbEnBby.s 			page 12


 389              	.L26:
 223:pid.c         ****     *output = *output < out_min ? out_min : *output;
 390              		.loc 1 223 0 discriminator 4
 391 00d8 4946     		mov	r1, r9
 392 00da 201C     		adds	r0, r4, #0
 393 00dc FFF7FEFF 		bl	__aeabi_fcmplt
 394              	.LVL22:
 395 00e0 0028     		cmp	r0, #0
 396 00e2 00D0     		beq	.L28
 397              		.loc 1 223 0 is_stmt 0
 398 00e4 4C46     		mov	r4, r9
 399              	.L28:
 224:pid.c         ****             
 225:pid.c         ****     PID_Tick_Timer_ClearInterrupt(PID_Tick_Timer_INTR_MASK_TC);
 400              		.loc 1 225 0 is_stmt 1 discriminator 4
 401 00e6 0120     		movs	r0, #1
 223:pid.c         ****     *output = *output < out_min ? out_min : *output;
 402              		.loc 1 223 0 discriminator 4
 403 00e8 2C60     		str	r4, [r5]
 404              		.loc 1 225 0 discriminator 4
 405 00ea FFF7FEFF 		bl	PID_Tick_Timer_ClearInterrupt
 406              	.LVL23:
 226:pid.c         ****     PID_ISR_ClearPending();
 407              		.loc 1 226 0 discriminator 4
 408 00ee FFF7FEFF 		bl	PID_ISR_ClearPending
 409              	.LVL24:
 227:pid.c         **** }
 410              		.loc 1 227 0 discriminator 4
 411 00f2 03B0     		add	sp, sp, #12
 412              		@ sp needed
 413 00f4 3CBC     		pop	{r2, r3, r4, r5}
 414 00f6 9046     		mov	r8, r2
 415 00f8 9946     		mov	r9, r3
 416 00fa A246     		mov	r10, r4
 417 00fc AB46     		mov	fp, r5
 418 00fe F0BD     		pop	{r4, r5, r6, r7, pc}
 419              	.L24:
 209:pid.c         ****     
 420              		.loc 1 209 0
 421 0100 2761     		str	r7, [r4, #16]
 422 0102 0026     		movs	r6, #0
 423 0104 0027     		movs	r7, #0
 424 0106 B7E7     		b	.L25
 425              	.L36:
 426              		.align	2
 427              	.L35:
 428 0108 00000000 		.word	.LANCHOR0
 429 010c 00408F40 		.word	1083129856
 430              		.cfi_endproc
 431              	.LFE40:
 432              		.size	PID_Tick, .-PID_Tick
 433              		.bss
 434              		.align	2
 435              		.set	.LANCHOR0,. + 0
 436              		.type	kp, %object
 437              		.size	kp, 4
 438              	kp:
ARM GAS  C:\Users\AFDHAL~1\AppData\Local\Temp\ccbEnBby.s 			page 13


 439 0000 00000000 		.space	4
 440              		.type	ki, %object
 441              		.size	ki, 4
 442              	ki:
 443 0004 00000000 		.space	4
 444              		.type	kd, %object
 445              		.size	kd, 4
 446              	kd:
 447 0008 00000000 		.space	4
 448              		.type	input_previous, %object
 449              		.size	input_previous, 4
 450              	input_previous:
 451 000c 00000000 		.space	4
 452              		.type	error_integrated, %object
 453              		.size	error_integrated, 4
 454              	error_integrated:
 455 0010 00000000 		.space	4
 456              		.type	out_min, %object
 457              		.size	out_min, 4
 458              	out_min:
 459 0014 00000000 		.space	4
 460              		.type	out_max, %object
 461              		.size	out_max, 4
 462              	out_max:
 463 0018 00000000 		.space	4
 464              		.type	setpoint, %object
 465              		.size	setpoint, 4
 466              	setpoint:
 467 001c 00000000 		.space	4
 468              		.type	input, %object
 469              		.size	input, 4
 470              	input:
 471 0020 00000000 		.space	4
 472              		.type	output, %object
 473              		.size	output, 4
 474              	output:
 475 0024 00000000 		.space	4
 476              		.text
 477              	.Letext0:
 478              		.file 2 "Generated_Source\\PSoC4/PID_Tick_Timer.h"
 479              		.file 3 "Generated_Source\\PSoC4/PID_ISR.h"
 480              		.file 4 "Generated_Source\\PSoC4/cytypes.h"
 481              		.file 5 "Generated_Source\\PSoC4/nRF24_REGS.h"