ARM GAS  C:\Users\AFDHAL~1\AppData\Local\Temp\ccSYCZD3.s 			page 1


   1              		.syntax unified
   2              		.cpu cortex-m0
   3              		.fpu softvfp
   4              		.eabi_attribute 20, 1
   5              		.eabi_attribute 21, 1
   6              		.eabi_attribute 23, 3
   7              		.eabi_attribute 24, 1
   8              		.eabi_attribute 25, 1
   9              		.eabi_attribute 26, 1
  10              		.eabi_attribute 30, 2
  11              		.eabi_attribute 34, 0
  12              		.eabi_attribute 18, 4
  13              		.thumb
  14              		.syntax unified
  15              		.file	"QuadDec.c"
  16              		.text
  17              	.Ltext0:
  18              		.cfi_sections	.debug_frame
  19              		.section	.text.QuadDec_Init,"ax",%progbits
  20              		.align	2
  21              		.global	QuadDec_Init
  22              		.code	16
  23              		.thumb_func
  24              		.type	QuadDec_Init, %function
  25              	QuadDec_Init:
  26              	.LFB1:
  27              		.file 1 "Generated_Source\\PSoC4\\QuadDec.c"
   1:Generated_Source\PSoC4/QuadDec.c **** /*******************************************************************************
   2:Generated_Source\PSoC4/QuadDec.c **** * File Name: QuadDec.c
   3:Generated_Source\PSoC4/QuadDec.c **** * Version 2.10
   4:Generated_Source\PSoC4/QuadDec.c **** *
   5:Generated_Source\PSoC4/QuadDec.c **** * Description:
   6:Generated_Source\PSoC4/QuadDec.c **** *  This file provides the source code to the API for the QuadDec
   7:Generated_Source\PSoC4/QuadDec.c **** *  component
   8:Generated_Source\PSoC4/QuadDec.c **** *
   9:Generated_Source\PSoC4/QuadDec.c **** * Note:
  10:Generated_Source\PSoC4/QuadDec.c **** *  None
  11:Generated_Source\PSoC4/QuadDec.c **** *
  12:Generated_Source\PSoC4/QuadDec.c **** ********************************************************************************
  13:Generated_Source\PSoC4/QuadDec.c **** * Copyright 2013-2015, Cypress Semiconductor Corporation.  All rights reserved.
  14:Generated_Source\PSoC4/QuadDec.c **** * You may use this file only in accordance with the license, terms, conditions,
  15:Generated_Source\PSoC4/QuadDec.c **** * disclaimers, and limitations in the end user license agreement accompanying
  16:Generated_Source\PSoC4/QuadDec.c **** * the software package with which this file was provided.
  17:Generated_Source\PSoC4/QuadDec.c **** *******************************************************************************/
  18:Generated_Source\PSoC4/QuadDec.c **** 
  19:Generated_Source\PSoC4/QuadDec.c **** #include "QuadDec.h"
  20:Generated_Source\PSoC4/QuadDec.c **** 
  21:Generated_Source\PSoC4/QuadDec.c **** uint8 QuadDec_initVar = 0u;
  22:Generated_Source\PSoC4/QuadDec.c **** 
  23:Generated_Source\PSoC4/QuadDec.c **** 
  24:Generated_Source\PSoC4/QuadDec.c **** /*******************************************************************************
  25:Generated_Source\PSoC4/QuadDec.c **** * Function Name: QuadDec_Init
  26:Generated_Source\PSoC4/QuadDec.c **** ********************************************************************************
  27:Generated_Source\PSoC4/QuadDec.c **** *
  28:Generated_Source\PSoC4/QuadDec.c **** * Summary:
  29:Generated_Source\PSoC4/QuadDec.c **** *  Initialize/Restore default QuadDec configuration.
  30:Generated_Source\PSoC4/QuadDec.c **** *
ARM GAS  C:\Users\AFDHAL~1\AppData\Local\Temp\ccSYCZD3.s 			page 2


  31:Generated_Source\PSoC4/QuadDec.c **** * Parameters:
  32:Generated_Source\PSoC4/QuadDec.c **** *  None
  33:Generated_Source\PSoC4/QuadDec.c **** *
  34:Generated_Source\PSoC4/QuadDec.c **** * Return:
  35:Generated_Source\PSoC4/QuadDec.c **** *  None
  36:Generated_Source\PSoC4/QuadDec.c **** *
  37:Generated_Source\PSoC4/QuadDec.c **** *******************************************************************************/
  38:Generated_Source\PSoC4/QuadDec.c **** void QuadDec_Init(void)
  39:Generated_Source\PSoC4/QuadDec.c **** {
  28              		.loc 1 39 0
  29              		.cfi_startproc
  30              		@ args = 0, pretend = 0, frame = 0
  31              		@ frame_needed = 0, uses_anonymous_args = 0
  40:Generated_Source\PSoC4/QuadDec.c **** 
  41:Generated_Source\PSoC4/QuadDec.c ****     /* Set values from customizer to CTRL */
  42:Generated_Source\PSoC4/QuadDec.c ****     #if (QuadDec__QUAD == QuadDec_CONFIG)
  43:Generated_Source\PSoC4/QuadDec.c ****         QuadDec_CONTROL_REG = QuadDec_CTRL_QUAD_BASE_CONFIG;
  32              		.loc 1 43 0
  33 0000 C823     		movs	r3, #200
  44:Generated_Source\PSoC4/QuadDec.c ****         
  45:Generated_Source\PSoC4/QuadDec.c ****         /* Set values from customizer to CTRL1 */
  46:Generated_Source\PSoC4/QuadDec.c ****         QuadDec_TRIG_CONTROL1_REG  = QuadDec_QUAD_SIGNALS_MODES;
  34              		.loc 1 46 0
  35 0002 C322     		movs	r2, #195
  39:Generated_Source\PSoC4/QuadDec.c **** 
  36              		.loc 1 39 0
  37 0004 10B5     		push	{r4, lr}
  38              		.cfi_def_cfa_offset 8
  39              		.cfi_offset 4, -8
  40              		.cfi_offset 14, -4
  43:Generated_Source\PSoC4/QuadDec.c ****         
  41              		.loc 1 43 0
  42 0006 0E4C     		ldr	r4, .L2
  43 0008 9B04     		lsls	r3, r3, #18
  44 000a 2360     		str	r3, [r4]
  45              		.loc 1 46 0
  46 000c 0D4B     		ldr	r3, .L2+4
  47 000e 9200     		lsls	r2, r2, #2
  48 0010 1A60     		str	r2, [r3]
  49              	.LVL0:
  50              	.LBB26:
  51              	.LBB27:
  47:Generated_Source\PSoC4/QuadDec.c **** 
  48:Generated_Source\PSoC4/QuadDec.c ****         /* Set values from customizer to INTR */
  49:Generated_Source\PSoC4/QuadDec.c ****         QuadDec_SetInterruptMode(QuadDec_QUAD_INTERRUPT_MASK);
  50:Generated_Source\PSoC4/QuadDec.c ****         
  51:Generated_Source\PSoC4/QuadDec.c ****          /* Set other values */
  52:Generated_Source\PSoC4/QuadDec.c ****         QuadDec_SetCounterMode(QuadDec_COUNT_DOWN);
  53:Generated_Source\PSoC4/QuadDec.c ****         QuadDec_WritePeriod(QuadDec_QUAD_PERIOD_INIT_VALUE);
  54:Generated_Source\PSoC4/QuadDec.c ****         QuadDec_WriteCounter(QuadDec_QUAD_PERIOD_INIT_VALUE);
  55:Generated_Source\PSoC4/QuadDec.c ****     #endif  /* (QuadDec__QUAD == QuadDec_CONFIG) */
  56:Generated_Source\PSoC4/QuadDec.c **** 
  57:Generated_Source\PSoC4/QuadDec.c ****     #if (QuadDec__TIMER == QuadDec_CONFIG)
  58:Generated_Source\PSoC4/QuadDec.c ****         QuadDec_CONTROL_REG = QuadDec_CTRL_TIMER_BASE_CONFIG;
  59:Generated_Source\PSoC4/QuadDec.c ****         
  60:Generated_Source\PSoC4/QuadDec.c ****         /* Set values from customizer to CTRL1 */
  61:Generated_Source\PSoC4/QuadDec.c ****         QuadDec_TRIG_CONTROL1_REG  = QuadDec_TIMER_SIGNALS_MODES;
ARM GAS  C:\Users\AFDHAL~1\AppData\Local\Temp\ccSYCZD3.s 			page 3


  62:Generated_Source\PSoC4/QuadDec.c ****     
  63:Generated_Source\PSoC4/QuadDec.c ****         /* Set values from customizer to INTR */
  64:Generated_Source\PSoC4/QuadDec.c ****         QuadDec_SetInterruptMode(QuadDec_TC_INTERRUPT_MASK);
  65:Generated_Source\PSoC4/QuadDec.c ****         
  66:Generated_Source\PSoC4/QuadDec.c ****         /* Set other values from customizer */
  67:Generated_Source\PSoC4/QuadDec.c ****         QuadDec_WritePeriod(QuadDec_TC_PERIOD_VALUE );
  68:Generated_Source\PSoC4/QuadDec.c **** 
  69:Generated_Source\PSoC4/QuadDec.c ****         #if (QuadDec__COMPARE == QuadDec_TC_COMP_CAP_MODE)
  70:Generated_Source\PSoC4/QuadDec.c ****             QuadDec_WriteCompare(QuadDec_TC_COMPARE_VALUE);
  71:Generated_Source\PSoC4/QuadDec.c **** 
  72:Generated_Source\PSoC4/QuadDec.c ****             #if (1u == QuadDec_TC_COMPARE_SWAP)
  73:Generated_Source\PSoC4/QuadDec.c ****                 QuadDec_SetCompareSwap(1u);
  74:Generated_Source\PSoC4/QuadDec.c ****                 QuadDec_WriteCompareBuf(QuadDec_TC_COMPARE_BUF_VALUE);
  75:Generated_Source\PSoC4/QuadDec.c ****             #endif  /* (1u == QuadDec_TC_COMPARE_SWAP) */
  76:Generated_Source\PSoC4/QuadDec.c ****         #endif  /* (QuadDec__COMPARE == QuadDec_TC_COMP_CAP_MODE) */
  77:Generated_Source\PSoC4/QuadDec.c **** 
  78:Generated_Source\PSoC4/QuadDec.c ****         /* Initialize counter value */
  79:Generated_Source\PSoC4/QuadDec.c ****         #if (QuadDec_CY_TCPWM_V2 && QuadDec_TIMER_UPDOWN_CNT_USED && !QuadDec_CY_TCPWM_4000)
  80:Generated_Source\PSoC4/QuadDec.c ****             QuadDec_WriteCounter(1u);
  81:Generated_Source\PSoC4/QuadDec.c ****         #elif(QuadDec__COUNT_DOWN == QuadDec_TC_COUNTER_MODE)
  82:Generated_Source\PSoC4/QuadDec.c ****             QuadDec_WriteCounter(QuadDec_TC_PERIOD_VALUE);
  83:Generated_Source\PSoC4/QuadDec.c ****         #else
  84:Generated_Source\PSoC4/QuadDec.c ****             QuadDec_WriteCounter(0u);
  85:Generated_Source\PSoC4/QuadDec.c ****         #endif /* (QuadDec_CY_TCPWM_V2 && QuadDec_TIMER_UPDOWN_CNT_USED && !QuadDec_CY_TCPWM_4000) 
  86:Generated_Source\PSoC4/QuadDec.c ****     #endif  /* (QuadDec__TIMER == QuadDec_CONFIG) */
  87:Generated_Source\PSoC4/QuadDec.c **** 
  88:Generated_Source\PSoC4/QuadDec.c ****     #if (QuadDec__PWM_SEL == QuadDec_CONFIG)
  89:Generated_Source\PSoC4/QuadDec.c ****         QuadDec_CONTROL_REG = QuadDec_CTRL_PWM_BASE_CONFIG;
  90:Generated_Source\PSoC4/QuadDec.c **** 
  91:Generated_Source\PSoC4/QuadDec.c ****         #if (QuadDec__PWM_PR == QuadDec_PWM_MODE)
  92:Generated_Source\PSoC4/QuadDec.c ****             QuadDec_CONTROL_REG |= QuadDec_CTRL_PWM_RUN_MODE;
  93:Generated_Source\PSoC4/QuadDec.c ****             QuadDec_WriteCounter(QuadDec_PWM_PR_INIT_VALUE);
  94:Generated_Source\PSoC4/QuadDec.c ****         #else
  95:Generated_Source\PSoC4/QuadDec.c ****             QuadDec_CONTROL_REG |= QuadDec_CTRL_PWM_ALIGN | QuadDec_CTRL_PWM_KILL_EVENT;
  96:Generated_Source\PSoC4/QuadDec.c ****             
  97:Generated_Source\PSoC4/QuadDec.c ****             /* Initialize counter value */
  98:Generated_Source\PSoC4/QuadDec.c ****             #if (QuadDec_CY_TCPWM_V2 && QuadDec_PWM_UPDOWN_CNT_USED && !QuadDec_CY_TCPWM_4000)
  99:Generated_Source\PSoC4/QuadDec.c ****                 QuadDec_WriteCounter(1u);
 100:Generated_Source\PSoC4/QuadDec.c ****             #elif (QuadDec__RIGHT == QuadDec_PWM_ALIGN)
 101:Generated_Source\PSoC4/QuadDec.c ****                 QuadDec_WriteCounter(QuadDec_PWM_PERIOD_VALUE);
 102:Generated_Source\PSoC4/QuadDec.c ****             #else 
 103:Generated_Source\PSoC4/QuadDec.c ****                 QuadDec_WriteCounter(0u);
 104:Generated_Source\PSoC4/QuadDec.c ****             #endif  /* (QuadDec_CY_TCPWM_V2 && QuadDec_PWM_UPDOWN_CNT_USED && !QuadDec_CY_TCPWM_400
 105:Generated_Source\PSoC4/QuadDec.c ****         #endif  /* (QuadDec__PWM_PR == QuadDec_PWM_MODE) */
 106:Generated_Source\PSoC4/QuadDec.c **** 
 107:Generated_Source\PSoC4/QuadDec.c ****         #if (QuadDec__PWM_DT == QuadDec_PWM_MODE)
 108:Generated_Source\PSoC4/QuadDec.c ****             QuadDec_CONTROL_REG |= QuadDec_CTRL_PWM_DEAD_TIME_CYCLE;
 109:Generated_Source\PSoC4/QuadDec.c ****         #endif  /* (QuadDec__PWM_DT == QuadDec_PWM_MODE) */
 110:Generated_Source\PSoC4/QuadDec.c **** 
 111:Generated_Source\PSoC4/QuadDec.c ****         #if (QuadDec__PWM == QuadDec_PWM_MODE)
 112:Generated_Source\PSoC4/QuadDec.c ****             QuadDec_CONTROL_REG |= QuadDec_CTRL_PWM_PRESCALER;
 113:Generated_Source\PSoC4/QuadDec.c ****         #endif  /* (QuadDec__PWM == QuadDec_PWM_MODE) */
 114:Generated_Source\PSoC4/QuadDec.c **** 
 115:Generated_Source\PSoC4/QuadDec.c ****         /* Set values from customizer to CTRL1 */
 116:Generated_Source\PSoC4/QuadDec.c ****         QuadDec_TRIG_CONTROL1_REG  = QuadDec_PWM_SIGNALS_MODES;
 117:Generated_Source\PSoC4/QuadDec.c ****     
 118:Generated_Source\PSoC4/QuadDec.c ****         /* Set values from customizer to INTR */
ARM GAS  C:\Users\AFDHAL~1\AppData\Local\Temp\ccSYCZD3.s 			page 4


 119:Generated_Source\PSoC4/QuadDec.c ****         QuadDec_SetInterruptMode(QuadDec_PWM_INTERRUPT_MASK);
 120:Generated_Source\PSoC4/QuadDec.c **** 
 121:Generated_Source\PSoC4/QuadDec.c ****         /* Set values from customizer to CTRL2 */
 122:Generated_Source\PSoC4/QuadDec.c ****         #if (QuadDec__PWM_PR == QuadDec_PWM_MODE)
 123:Generated_Source\PSoC4/QuadDec.c ****             QuadDec_TRIG_CONTROL2_REG =
 124:Generated_Source\PSoC4/QuadDec.c ****                     (QuadDec_CC_MATCH_NO_CHANGE    |
 125:Generated_Source\PSoC4/QuadDec.c ****                     QuadDec_OVERLOW_NO_CHANGE      |
 126:Generated_Source\PSoC4/QuadDec.c ****                     QuadDec_UNDERFLOW_NO_CHANGE);
 127:Generated_Source\PSoC4/QuadDec.c ****         #else
 128:Generated_Source\PSoC4/QuadDec.c ****             #if (QuadDec__LEFT == QuadDec_PWM_ALIGN)
 129:Generated_Source\PSoC4/QuadDec.c ****                 QuadDec_TRIG_CONTROL2_REG = QuadDec_PWM_MODE_LEFT;
 130:Generated_Source\PSoC4/QuadDec.c ****             #endif  /* ( QuadDec_PWM_LEFT == QuadDec_PWM_ALIGN) */
 131:Generated_Source\PSoC4/QuadDec.c **** 
 132:Generated_Source\PSoC4/QuadDec.c ****             #if (QuadDec__RIGHT == QuadDec_PWM_ALIGN)
 133:Generated_Source\PSoC4/QuadDec.c ****                 QuadDec_TRIG_CONTROL2_REG = QuadDec_PWM_MODE_RIGHT;
 134:Generated_Source\PSoC4/QuadDec.c ****             #endif  /* ( QuadDec_PWM_RIGHT == QuadDec_PWM_ALIGN) */
 135:Generated_Source\PSoC4/QuadDec.c **** 
 136:Generated_Source\PSoC4/QuadDec.c ****             #if (QuadDec__CENTER == QuadDec_PWM_ALIGN)
 137:Generated_Source\PSoC4/QuadDec.c ****                 QuadDec_TRIG_CONTROL2_REG = QuadDec_PWM_MODE_CENTER;
 138:Generated_Source\PSoC4/QuadDec.c ****             #endif  /* ( QuadDec_PWM_CENTER == QuadDec_PWM_ALIGN) */
 139:Generated_Source\PSoC4/QuadDec.c **** 
 140:Generated_Source\PSoC4/QuadDec.c ****             #if (QuadDec__ASYMMETRIC == QuadDec_PWM_ALIGN)
 141:Generated_Source\PSoC4/QuadDec.c ****                 QuadDec_TRIG_CONTROL2_REG = QuadDec_PWM_MODE_ASYM;
 142:Generated_Source\PSoC4/QuadDec.c ****             #endif  /* (QuadDec__ASYMMETRIC == QuadDec_PWM_ALIGN) */
 143:Generated_Source\PSoC4/QuadDec.c ****         #endif  /* (QuadDec__PWM_PR == QuadDec_PWM_MODE) */
 144:Generated_Source\PSoC4/QuadDec.c **** 
 145:Generated_Source\PSoC4/QuadDec.c ****         /* Set other values from customizer */
 146:Generated_Source\PSoC4/QuadDec.c ****         QuadDec_WritePeriod(QuadDec_PWM_PERIOD_VALUE );
 147:Generated_Source\PSoC4/QuadDec.c ****         QuadDec_WriteCompare(QuadDec_PWM_COMPARE_VALUE);
 148:Generated_Source\PSoC4/QuadDec.c **** 
 149:Generated_Source\PSoC4/QuadDec.c ****         #if (1u == QuadDec_PWM_COMPARE_SWAP)
 150:Generated_Source\PSoC4/QuadDec.c ****             QuadDec_SetCompareSwap(1u);
 151:Generated_Source\PSoC4/QuadDec.c ****             QuadDec_WriteCompareBuf(QuadDec_PWM_COMPARE_BUF_VALUE);
 152:Generated_Source\PSoC4/QuadDec.c ****         #endif  /* (1u == QuadDec_PWM_COMPARE_SWAP) */
 153:Generated_Source\PSoC4/QuadDec.c **** 
 154:Generated_Source\PSoC4/QuadDec.c ****         #if (1u == QuadDec_PWM_PERIOD_SWAP)
 155:Generated_Source\PSoC4/QuadDec.c ****             QuadDec_SetPeriodSwap(1u);
 156:Generated_Source\PSoC4/QuadDec.c ****             QuadDec_WritePeriodBuf(QuadDec_PWM_PERIOD_BUF_VALUE);
 157:Generated_Source\PSoC4/QuadDec.c ****         #endif  /* (1u == QuadDec_PWM_PERIOD_SWAP) */
 158:Generated_Source\PSoC4/QuadDec.c ****     #endif  /* (QuadDec__PWM_SEL == QuadDec_CONFIG) */
 159:Generated_Source\PSoC4/QuadDec.c ****     
 160:Generated_Source\PSoC4/QuadDec.c **** }
 161:Generated_Source\PSoC4/QuadDec.c **** 
 162:Generated_Source\PSoC4/QuadDec.c **** 
 163:Generated_Source\PSoC4/QuadDec.c **** /*******************************************************************************
 164:Generated_Source\PSoC4/QuadDec.c **** * Function Name: QuadDec_Enable
 165:Generated_Source\PSoC4/QuadDec.c **** ********************************************************************************
 166:Generated_Source\PSoC4/QuadDec.c **** *
 167:Generated_Source\PSoC4/QuadDec.c **** * Summary:
 168:Generated_Source\PSoC4/QuadDec.c **** *  Enables the QuadDec.
 169:Generated_Source\PSoC4/QuadDec.c **** *
 170:Generated_Source\PSoC4/QuadDec.c **** * Parameters:
 171:Generated_Source\PSoC4/QuadDec.c **** *  None
 172:Generated_Source\PSoC4/QuadDec.c **** *
 173:Generated_Source\PSoC4/QuadDec.c **** * Return:
 174:Generated_Source\PSoC4/QuadDec.c **** *  None
 175:Generated_Source\PSoC4/QuadDec.c **** *
ARM GAS  C:\Users\AFDHAL~1\AppData\Local\Temp\ccSYCZD3.s 			page 5


 176:Generated_Source\PSoC4/QuadDec.c **** *******************************************************************************/
 177:Generated_Source\PSoC4/QuadDec.c **** void QuadDec_Enable(void)
 178:Generated_Source\PSoC4/QuadDec.c **** {
 179:Generated_Source\PSoC4/QuadDec.c ****     uint8 enableInterrupts;
 180:Generated_Source\PSoC4/QuadDec.c **** 
 181:Generated_Source\PSoC4/QuadDec.c ****     enableInterrupts = CyEnterCriticalSection();
 182:Generated_Source\PSoC4/QuadDec.c ****     QuadDec_BLOCK_CONTROL_REG |= QuadDec_MASK;
 183:Generated_Source\PSoC4/QuadDec.c ****     CyExitCriticalSection(enableInterrupts);
 184:Generated_Source\PSoC4/QuadDec.c **** 
 185:Generated_Source\PSoC4/QuadDec.c ****     /* Start Timer or PWM if start input is absent */
 186:Generated_Source\PSoC4/QuadDec.c ****     #if (QuadDec__PWM_SEL == QuadDec_CONFIG)
 187:Generated_Source\PSoC4/QuadDec.c ****         #if (0u == QuadDec_PWM_START_SIGNAL_PRESENT)
 188:Generated_Source\PSoC4/QuadDec.c ****             QuadDec_TriggerCommand(QuadDec_MASK, QuadDec_CMD_START);
 189:Generated_Source\PSoC4/QuadDec.c ****         #endif /* (0u == QuadDec_PWM_START_SIGNAL_PRESENT) */
 190:Generated_Source\PSoC4/QuadDec.c ****     #endif /* (QuadDec__PWM_SEL == QuadDec_CONFIG) */
 191:Generated_Source\PSoC4/QuadDec.c **** 
 192:Generated_Source\PSoC4/QuadDec.c ****     #if (QuadDec__TIMER == QuadDec_CONFIG)
 193:Generated_Source\PSoC4/QuadDec.c ****         #if (0u == QuadDec_TC_START_SIGNAL_PRESENT)
 194:Generated_Source\PSoC4/QuadDec.c ****             QuadDec_TriggerCommand(QuadDec_MASK, QuadDec_CMD_START);
 195:Generated_Source\PSoC4/QuadDec.c ****         #endif /* (0u == QuadDec_TC_START_SIGNAL_PRESENT) */
 196:Generated_Source\PSoC4/QuadDec.c ****     #endif /* (QuadDec__TIMER == QuadDec_CONFIG) */
 197:Generated_Source\PSoC4/QuadDec.c ****     
 198:Generated_Source\PSoC4/QuadDec.c ****     #if (QuadDec__QUAD == QuadDec_CONFIG)
 199:Generated_Source\PSoC4/QuadDec.c ****         #if (0u != QuadDec_QUAD_AUTO_START)
 200:Generated_Source\PSoC4/QuadDec.c ****             QuadDec_TriggerCommand(QuadDec_MASK, QuadDec_CMD_RELOAD);
 201:Generated_Source\PSoC4/QuadDec.c ****         #endif /* (0u != QuadDec_QUAD_AUTO_START) */
 202:Generated_Source\PSoC4/QuadDec.c ****     #endif  /* (QuadDec__QUAD == QuadDec_CONFIG) */
 203:Generated_Source\PSoC4/QuadDec.c **** }
 204:Generated_Source\PSoC4/QuadDec.c **** 
 205:Generated_Source\PSoC4/QuadDec.c **** 
 206:Generated_Source\PSoC4/QuadDec.c **** /*******************************************************************************
 207:Generated_Source\PSoC4/QuadDec.c **** * Function Name: QuadDec_Start
 208:Generated_Source\PSoC4/QuadDec.c **** ********************************************************************************
 209:Generated_Source\PSoC4/QuadDec.c **** *
 210:Generated_Source\PSoC4/QuadDec.c **** * Summary:
 211:Generated_Source\PSoC4/QuadDec.c **** *  Initializes the QuadDec with default customizer
 212:Generated_Source\PSoC4/QuadDec.c **** *  values when called the first time and enables the QuadDec.
 213:Generated_Source\PSoC4/QuadDec.c **** *  For subsequent calls the configuration is left unchanged and the component is
 214:Generated_Source\PSoC4/QuadDec.c **** *  just enabled.
 215:Generated_Source\PSoC4/QuadDec.c **** *
 216:Generated_Source\PSoC4/QuadDec.c **** * Parameters:
 217:Generated_Source\PSoC4/QuadDec.c **** *  None
 218:Generated_Source\PSoC4/QuadDec.c **** *
 219:Generated_Source\PSoC4/QuadDec.c **** * Return:
 220:Generated_Source\PSoC4/QuadDec.c **** *  None
 221:Generated_Source\PSoC4/QuadDec.c **** *
 222:Generated_Source\PSoC4/QuadDec.c **** * Global variables:
 223:Generated_Source\PSoC4/QuadDec.c **** *  QuadDec_initVar: global variable is used to indicate initial
 224:Generated_Source\PSoC4/QuadDec.c **** *  configuration of this component.  The variable is initialized to zero and set
 225:Generated_Source\PSoC4/QuadDec.c **** *  to 1 the first time QuadDec_Start() is called. This allows
 226:Generated_Source\PSoC4/QuadDec.c **** *  enabling/disabling a component without re-initialization in all subsequent
 227:Generated_Source\PSoC4/QuadDec.c **** *  calls to the QuadDec_Start() routine.
 228:Generated_Source\PSoC4/QuadDec.c **** *
 229:Generated_Source\PSoC4/QuadDec.c **** *******************************************************************************/
 230:Generated_Source\PSoC4/QuadDec.c **** void QuadDec_Start(void)
 231:Generated_Source\PSoC4/QuadDec.c **** {
 232:Generated_Source\PSoC4/QuadDec.c ****     if (0u == QuadDec_initVar)
ARM GAS  C:\Users\AFDHAL~1\AppData\Local\Temp\ccSYCZD3.s 			page 6


 233:Generated_Source\PSoC4/QuadDec.c ****     {
 234:Generated_Source\PSoC4/QuadDec.c ****         QuadDec_Init();
 235:Generated_Source\PSoC4/QuadDec.c ****         QuadDec_initVar = 1u;
 236:Generated_Source\PSoC4/QuadDec.c ****     }
 237:Generated_Source\PSoC4/QuadDec.c **** 
 238:Generated_Source\PSoC4/QuadDec.c ****     QuadDec_Enable();
 239:Generated_Source\PSoC4/QuadDec.c **** }
 240:Generated_Source\PSoC4/QuadDec.c **** 
 241:Generated_Source\PSoC4/QuadDec.c **** 
 242:Generated_Source\PSoC4/QuadDec.c **** /*******************************************************************************
 243:Generated_Source\PSoC4/QuadDec.c **** * Function Name: QuadDec_Stop
 244:Generated_Source\PSoC4/QuadDec.c **** ********************************************************************************
 245:Generated_Source\PSoC4/QuadDec.c **** *
 246:Generated_Source\PSoC4/QuadDec.c **** * Summary:
 247:Generated_Source\PSoC4/QuadDec.c **** *  Disables the QuadDec.
 248:Generated_Source\PSoC4/QuadDec.c **** *
 249:Generated_Source\PSoC4/QuadDec.c **** * Parameters:
 250:Generated_Source\PSoC4/QuadDec.c **** *  None
 251:Generated_Source\PSoC4/QuadDec.c **** *
 252:Generated_Source\PSoC4/QuadDec.c **** * Return:
 253:Generated_Source\PSoC4/QuadDec.c **** *  None
 254:Generated_Source\PSoC4/QuadDec.c **** *
 255:Generated_Source\PSoC4/QuadDec.c **** *******************************************************************************/
 256:Generated_Source\PSoC4/QuadDec.c **** void QuadDec_Stop(void)
 257:Generated_Source\PSoC4/QuadDec.c **** {
 258:Generated_Source\PSoC4/QuadDec.c ****     uint8 enableInterrupts;
 259:Generated_Source\PSoC4/QuadDec.c **** 
 260:Generated_Source\PSoC4/QuadDec.c ****     enableInterrupts = CyEnterCriticalSection();
 261:Generated_Source\PSoC4/QuadDec.c **** 
 262:Generated_Source\PSoC4/QuadDec.c ****     QuadDec_BLOCK_CONTROL_REG &= (uint32)~QuadDec_MASK;
 263:Generated_Source\PSoC4/QuadDec.c **** 
 264:Generated_Source\PSoC4/QuadDec.c ****     CyExitCriticalSection(enableInterrupts);
 265:Generated_Source\PSoC4/QuadDec.c **** }
 266:Generated_Source\PSoC4/QuadDec.c **** 
 267:Generated_Source\PSoC4/QuadDec.c **** 
 268:Generated_Source\PSoC4/QuadDec.c **** /*******************************************************************************
 269:Generated_Source\PSoC4/QuadDec.c **** * Function Name: QuadDec_SetMode
 270:Generated_Source\PSoC4/QuadDec.c **** ********************************************************************************
 271:Generated_Source\PSoC4/QuadDec.c **** *
 272:Generated_Source\PSoC4/QuadDec.c **** * Summary:
 273:Generated_Source\PSoC4/QuadDec.c **** *  Sets the operation mode of the QuadDec. This function is used when
 274:Generated_Source\PSoC4/QuadDec.c **** *  configured as a generic QuadDec and the actual mode of operation is
 275:Generated_Source\PSoC4/QuadDec.c **** *  set at runtime. The mode must be set while the component is disabled.
 276:Generated_Source\PSoC4/QuadDec.c **** *
 277:Generated_Source\PSoC4/QuadDec.c **** * Parameters:
 278:Generated_Source\PSoC4/QuadDec.c **** *  mode: Mode for the QuadDec to operate in
 279:Generated_Source\PSoC4/QuadDec.c **** *   Values:
 280:Generated_Source\PSoC4/QuadDec.c **** *   - QuadDec_MODE_TIMER_COMPARE - Timer / Counter with
 281:Generated_Source\PSoC4/QuadDec.c **** *                                                 compare capability
 282:Generated_Source\PSoC4/QuadDec.c **** *         - QuadDec_MODE_TIMER_CAPTURE - Timer / Counter with
 283:Generated_Source\PSoC4/QuadDec.c **** *                                                 capture capability
 284:Generated_Source\PSoC4/QuadDec.c **** *         - QuadDec_MODE_QUAD - Quadrature decoder
 285:Generated_Source\PSoC4/QuadDec.c **** *         - QuadDec_MODE_PWM - PWM
 286:Generated_Source\PSoC4/QuadDec.c **** *         - QuadDec_MODE_PWM_DT - PWM with dead time
 287:Generated_Source\PSoC4/QuadDec.c **** *         - QuadDec_MODE_PWM_PR - PWM with pseudo random capability
 288:Generated_Source\PSoC4/QuadDec.c **** *
 289:Generated_Source\PSoC4/QuadDec.c **** * Return:
ARM GAS  C:\Users\AFDHAL~1\AppData\Local\Temp\ccSYCZD3.s 			page 7


 290:Generated_Source\PSoC4/QuadDec.c **** *  None
 291:Generated_Source\PSoC4/QuadDec.c **** *
 292:Generated_Source\PSoC4/QuadDec.c **** *******************************************************************************/
 293:Generated_Source\PSoC4/QuadDec.c **** void QuadDec_SetMode(uint32 mode)
 294:Generated_Source\PSoC4/QuadDec.c **** {
 295:Generated_Source\PSoC4/QuadDec.c ****     uint8 enableInterrupts;
 296:Generated_Source\PSoC4/QuadDec.c **** 
 297:Generated_Source\PSoC4/QuadDec.c ****     enableInterrupts = CyEnterCriticalSection();
 298:Generated_Source\PSoC4/QuadDec.c **** 
 299:Generated_Source\PSoC4/QuadDec.c ****     QuadDec_CONTROL_REG &= (uint32)~QuadDec_MODE_MASK;
 300:Generated_Source\PSoC4/QuadDec.c ****     QuadDec_CONTROL_REG |= mode;
 301:Generated_Source\PSoC4/QuadDec.c **** 
 302:Generated_Source\PSoC4/QuadDec.c ****     CyExitCriticalSection(enableInterrupts);
 303:Generated_Source\PSoC4/QuadDec.c **** }
 304:Generated_Source\PSoC4/QuadDec.c **** 
 305:Generated_Source\PSoC4/QuadDec.c **** 
 306:Generated_Source\PSoC4/QuadDec.c **** /*******************************************************************************
 307:Generated_Source\PSoC4/QuadDec.c **** * Function Name: QuadDec_SetQDMode
 308:Generated_Source\PSoC4/QuadDec.c **** ********************************************************************************
 309:Generated_Source\PSoC4/QuadDec.c **** *
 310:Generated_Source\PSoC4/QuadDec.c **** * Summary:
 311:Generated_Source\PSoC4/QuadDec.c **** *  Sets the the Quadrature Decoder to one of the 3 supported modes.
 312:Generated_Source\PSoC4/QuadDec.c **** *  Its functionality is only applicable to Quadrature Decoder operation.
 313:Generated_Source\PSoC4/QuadDec.c **** *
 314:Generated_Source\PSoC4/QuadDec.c **** * Parameters:
 315:Generated_Source\PSoC4/QuadDec.c **** *  qdMode: Quadrature Decoder mode
 316:Generated_Source\PSoC4/QuadDec.c **** *   Values:
 317:Generated_Source\PSoC4/QuadDec.c **** *         - QuadDec_MODE_X1 - Counts on phi 1 rising
 318:Generated_Source\PSoC4/QuadDec.c **** *         - QuadDec_MODE_X2 - Counts on both edges of phi1 (2x faster)
 319:Generated_Source\PSoC4/QuadDec.c **** *         - QuadDec_MODE_X4 - Counts on both edges of phi1 and phi2
 320:Generated_Source\PSoC4/QuadDec.c **** *                                        (4x faster)
 321:Generated_Source\PSoC4/QuadDec.c **** *
 322:Generated_Source\PSoC4/QuadDec.c **** * Return:
 323:Generated_Source\PSoC4/QuadDec.c **** *  None
 324:Generated_Source\PSoC4/QuadDec.c **** *
 325:Generated_Source\PSoC4/QuadDec.c **** *******************************************************************************/
 326:Generated_Source\PSoC4/QuadDec.c **** void QuadDec_SetQDMode(uint32 qdMode)
 327:Generated_Source\PSoC4/QuadDec.c **** {
 328:Generated_Source\PSoC4/QuadDec.c ****     uint8 enableInterrupts;
 329:Generated_Source\PSoC4/QuadDec.c **** 
 330:Generated_Source\PSoC4/QuadDec.c ****     enableInterrupts = CyEnterCriticalSection();
 331:Generated_Source\PSoC4/QuadDec.c **** 
 332:Generated_Source\PSoC4/QuadDec.c ****     QuadDec_CONTROL_REG &= (uint32)~QuadDec_QUAD_MODE_MASK;
 333:Generated_Source\PSoC4/QuadDec.c ****     QuadDec_CONTROL_REG |= qdMode;
 334:Generated_Source\PSoC4/QuadDec.c **** 
 335:Generated_Source\PSoC4/QuadDec.c ****     CyExitCriticalSection(enableInterrupts);
 336:Generated_Source\PSoC4/QuadDec.c **** }
 337:Generated_Source\PSoC4/QuadDec.c **** 
 338:Generated_Source\PSoC4/QuadDec.c **** 
 339:Generated_Source\PSoC4/QuadDec.c **** /*******************************************************************************
 340:Generated_Source\PSoC4/QuadDec.c **** * Function Name: QuadDec_SetPrescaler
 341:Generated_Source\PSoC4/QuadDec.c **** ********************************************************************************
 342:Generated_Source\PSoC4/QuadDec.c **** *
 343:Generated_Source\PSoC4/QuadDec.c **** * Summary:
 344:Generated_Source\PSoC4/QuadDec.c **** *  Sets the prescaler value that is applied to the clock input.  Not applicable
 345:Generated_Source\PSoC4/QuadDec.c **** *  to a PWM with the dead time mode or Quadrature Decoder mode.
 346:Generated_Source\PSoC4/QuadDec.c **** *
ARM GAS  C:\Users\AFDHAL~1\AppData\Local\Temp\ccSYCZD3.s 			page 8


 347:Generated_Source\PSoC4/QuadDec.c **** * Parameters:
 348:Generated_Source\PSoC4/QuadDec.c **** *  prescaler: Prescaler divider value
 349:Generated_Source\PSoC4/QuadDec.c **** *   Values:
 350:Generated_Source\PSoC4/QuadDec.c **** *         - QuadDec_PRESCALE_DIVBY1    - Divide by 1 (no prescaling)
 351:Generated_Source\PSoC4/QuadDec.c **** *         - QuadDec_PRESCALE_DIVBY2    - Divide by 2
 352:Generated_Source\PSoC4/QuadDec.c **** *         - QuadDec_PRESCALE_DIVBY4    - Divide by 4
 353:Generated_Source\PSoC4/QuadDec.c **** *         - QuadDec_PRESCALE_DIVBY8    - Divide by 8
 354:Generated_Source\PSoC4/QuadDec.c **** *         - QuadDec_PRESCALE_DIVBY16   - Divide by 16
 355:Generated_Source\PSoC4/QuadDec.c **** *         - QuadDec_PRESCALE_DIVBY32   - Divide by 32
 356:Generated_Source\PSoC4/QuadDec.c **** *         - QuadDec_PRESCALE_DIVBY64   - Divide by 64
 357:Generated_Source\PSoC4/QuadDec.c **** *         - QuadDec_PRESCALE_DIVBY128  - Divide by 128
 358:Generated_Source\PSoC4/QuadDec.c **** *
 359:Generated_Source\PSoC4/QuadDec.c **** * Return:
 360:Generated_Source\PSoC4/QuadDec.c **** *  None
 361:Generated_Source\PSoC4/QuadDec.c **** *
 362:Generated_Source\PSoC4/QuadDec.c **** *******************************************************************************/
 363:Generated_Source\PSoC4/QuadDec.c **** void QuadDec_SetPrescaler(uint32 prescaler)
 364:Generated_Source\PSoC4/QuadDec.c **** {
 365:Generated_Source\PSoC4/QuadDec.c ****     uint8 enableInterrupts;
 366:Generated_Source\PSoC4/QuadDec.c **** 
 367:Generated_Source\PSoC4/QuadDec.c ****     enableInterrupts = CyEnterCriticalSection();
 368:Generated_Source\PSoC4/QuadDec.c **** 
 369:Generated_Source\PSoC4/QuadDec.c ****     QuadDec_CONTROL_REG &= (uint32)~QuadDec_PRESCALER_MASK;
 370:Generated_Source\PSoC4/QuadDec.c ****     QuadDec_CONTROL_REG |= prescaler;
 371:Generated_Source\PSoC4/QuadDec.c **** 
 372:Generated_Source\PSoC4/QuadDec.c ****     CyExitCriticalSection(enableInterrupts);
 373:Generated_Source\PSoC4/QuadDec.c **** }
 374:Generated_Source\PSoC4/QuadDec.c **** 
 375:Generated_Source\PSoC4/QuadDec.c **** 
 376:Generated_Source\PSoC4/QuadDec.c **** /*******************************************************************************
 377:Generated_Source\PSoC4/QuadDec.c **** * Function Name: QuadDec_SetOneShot
 378:Generated_Source\PSoC4/QuadDec.c **** ********************************************************************************
 379:Generated_Source\PSoC4/QuadDec.c **** *
 380:Generated_Source\PSoC4/QuadDec.c **** * Summary:
 381:Generated_Source\PSoC4/QuadDec.c **** *  Writes the register that controls whether the QuadDec runs
 382:Generated_Source\PSoC4/QuadDec.c **** *  continuously or stops when terminal count is reached.  By default the
 383:Generated_Source\PSoC4/QuadDec.c **** *  QuadDec operates in the continuous mode.
 384:Generated_Source\PSoC4/QuadDec.c **** *
 385:Generated_Source\PSoC4/QuadDec.c **** * Parameters:
 386:Generated_Source\PSoC4/QuadDec.c **** *  oneShotEnable
 387:Generated_Source\PSoC4/QuadDec.c **** *   Values:
 388:Generated_Source\PSoC4/QuadDec.c **** *     - 0 - Continuous
 389:Generated_Source\PSoC4/QuadDec.c **** *     - 1 - Enable One Shot
 390:Generated_Source\PSoC4/QuadDec.c **** *
 391:Generated_Source\PSoC4/QuadDec.c **** * Return:
 392:Generated_Source\PSoC4/QuadDec.c **** *  None
 393:Generated_Source\PSoC4/QuadDec.c **** *
 394:Generated_Source\PSoC4/QuadDec.c **** *******************************************************************************/
 395:Generated_Source\PSoC4/QuadDec.c **** void QuadDec_SetOneShot(uint32 oneShotEnable)
 396:Generated_Source\PSoC4/QuadDec.c **** {
 397:Generated_Source\PSoC4/QuadDec.c ****     uint8 enableInterrupts;
 398:Generated_Source\PSoC4/QuadDec.c **** 
 399:Generated_Source\PSoC4/QuadDec.c ****     enableInterrupts = CyEnterCriticalSection();
 400:Generated_Source\PSoC4/QuadDec.c **** 
 401:Generated_Source\PSoC4/QuadDec.c ****     QuadDec_CONTROL_REG &= (uint32)~QuadDec_ONESHOT_MASK;
 402:Generated_Source\PSoC4/QuadDec.c ****     QuadDec_CONTROL_REG |= ((uint32)((oneShotEnable & QuadDec_1BIT_MASK) <<
 403:Generated_Source\PSoC4/QuadDec.c ****                                                                QuadDec_ONESHOT_SHIFT));
ARM GAS  C:\Users\AFDHAL~1\AppData\Local\Temp\ccSYCZD3.s 			page 9


 404:Generated_Source\PSoC4/QuadDec.c **** 
 405:Generated_Source\PSoC4/QuadDec.c ****     CyExitCriticalSection(enableInterrupts);
 406:Generated_Source\PSoC4/QuadDec.c **** }
 407:Generated_Source\PSoC4/QuadDec.c **** 
 408:Generated_Source\PSoC4/QuadDec.c **** 
 409:Generated_Source\PSoC4/QuadDec.c **** /*******************************************************************************
 410:Generated_Source\PSoC4/QuadDec.c **** * Function Name: QuadDec_SetPWMMode
 411:Generated_Source\PSoC4/QuadDec.c **** ********************************************************************************
 412:Generated_Source\PSoC4/QuadDec.c **** *
 413:Generated_Source\PSoC4/QuadDec.c **** * Summary:
 414:Generated_Source\PSoC4/QuadDec.c **** *  Writes the control register that determines what mode of operation the PWM
 415:Generated_Source\PSoC4/QuadDec.c **** *  output lines are driven in.  There is a setting for what to do on a
 416:Generated_Source\PSoC4/QuadDec.c **** *  comparison match (CC_MATCH), on an overflow (OVERFLOW) and on an underflow
 417:Generated_Source\PSoC4/QuadDec.c **** *  (UNDERFLOW).  The value for each of the three must be ORed together to form
 418:Generated_Source\PSoC4/QuadDec.c **** *  the mode.
 419:Generated_Source\PSoC4/QuadDec.c **** *
 420:Generated_Source\PSoC4/QuadDec.c **** * Parameters:
 421:Generated_Source\PSoC4/QuadDec.c **** *  modeMask: A combination of three mode settings.  Mask must include a value
 422:Generated_Source\PSoC4/QuadDec.c **** *  for each of the three or use one of the preconfigured PWM settings.
 423:Generated_Source\PSoC4/QuadDec.c **** *   Values:
 424:Generated_Source\PSoC4/QuadDec.c **** *     - CC_MATCH_SET        - Set on comparison match
 425:Generated_Source\PSoC4/QuadDec.c **** *     - CC_MATCH_CLEAR      - Clear on comparison match
 426:Generated_Source\PSoC4/QuadDec.c **** *     - CC_MATCH_INVERT     - Invert on comparison match
 427:Generated_Source\PSoC4/QuadDec.c **** *     - CC_MATCH_NO_CHANGE  - No change on comparison match
 428:Generated_Source\PSoC4/QuadDec.c **** *     - OVERLOW_SET         - Set on overflow
 429:Generated_Source\PSoC4/QuadDec.c **** *     - OVERLOW_CLEAR       - Clear on  overflow
 430:Generated_Source\PSoC4/QuadDec.c **** *     - OVERLOW_INVERT      - Invert on overflow
 431:Generated_Source\PSoC4/QuadDec.c **** *     - OVERLOW_NO_CHANGE   - No change on overflow
 432:Generated_Source\PSoC4/QuadDec.c **** *     - UNDERFLOW_SET       - Set on underflow
 433:Generated_Source\PSoC4/QuadDec.c **** *     - UNDERFLOW_CLEAR     - Clear on underflow
 434:Generated_Source\PSoC4/QuadDec.c **** *     - UNDERFLOW_INVERT    - Invert on underflow
 435:Generated_Source\PSoC4/QuadDec.c **** *     - UNDERFLOW_NO_CHANGE - No change on underflow
 436:Generated_Source\PSoC4/QuadDec.c **** *     - PWM_MODE_LEFT       - Setting for left aligned PWM.  Should be combined
 437:Generated_Source\PSoC4/QuadDec.c **** *                             with up counting mode
 438:Generated_Source\PSoC4/QuadDec.c **** *     - PWM_MODE_RIGHT      - Setting for right aligned PWM.  Should be combined
 439:Generated_Source\PSoC4/QuadDec.c **** *                             with down counting mode
 440:Generated_Source\PSoC4/QuadDec.c **** *     - PWM_MODE_CENTER     - Setting for center aligned PWM.  Should be
 441:Generated_Source\PSoC4/QuadDec.c **** *                             combined with up/down 0 mode
 442:Generated_Source\PSoC4/QuadDec.c **** *     - PWM_MODE_ASYM       - Setting for asymmetric PWM.  Should be combined
 443:Generated_Source\PSoC4/QuadDec.c **** *                             with up/down 1 mode
 444:Generated_Source\PSoC4/QuadDec.c **** *
 445:Generated_Source\PSoC4/QuadDec.c **** * Return:
 446:Generated_Source\PSoC4/QuadDec.c **** *  None
 447:Generated_Source\PSoC4/QuadDec.c **** *
 448:Generated_Source\PSoC4/QuadDec.c **** *******************************************************************************/
 449:Generated_Source\PSoC4/QuadDec.c **** void QuadDec_SetPWMMode(uint32 modeMask)
 450:Generated_Source\PSoC4/QuadDec.c **** {
 451:Generated_Source\PSoC4/QuadDec.c ****     QuadDec_TRIG_CONTROL2_REG = (modeMask & QuadDec_6BIT_MASK);
 452:Generated_Source\PSoC4/QuadDec.c **** }
 453:Generated_Source\PSoC4/QuadDec.c **** 
 454:Generated_Source\PSoC4/QuadDec.c **** 
 455:Generated_Source\PSoC4/QuadDec.c **** 
 456:Generated_Source\PSoC4/QuadDec.c **** /*******************************************************************************
 457:Generated_Source\PSoC4/QuadDec.c **** * Function Name: QuadDec_SetPWMSyncKill
 458:Generated_Source\PSoC4/QuadDec.c **** ********************************************************************************
 459:Generated_Source\PSoC4/QuadDec.c **** *
 460:Generated_Source\PSoC4/QuadDec.c **** * Summary:
ARM GAS  C:\Users\AFDHAL~1\AppData\Local\Temp\ccSYCZD3.s 			page 10


 461:Generated_Source\PSoC4/QuadDec.c **** *  Writes the register that controls whether the PWM kill signal (stop input)
 462:Generated_Source\PSoC4/QuadDec.c **** *  causes asynchronous or synchronous kill operation.  By default the kill
 463:Generated_Source\PSoC4/QuadDec.c **** *  operation is asynchronous.  This functionality is only applicable to the PWM
 464:Generated_Source\PSoC4/QuadDec.c **** *  and PWM with dead time modes.
 465:Generated_Source\PSoC4/QuadDec.c **** *
 466:Generated_Source\PSoC4/QuadDec.c **** *  For Synchronous mode the kill signal disables both the line and line_n
 467:Generated_Source\PSoC4/QuadDec.c **** *  signals until the next terminal count.
 468:Generated_Source\PSoC4/QuadDec.c **** *
 469:Generated_Source\PSoC4/QuadDec.c **** *  For Asynchronous mode the kill signal disables both the line and line_n
 470:Generated_Source\PSoC4/QuadDec.c **** *  signals when the kill signal is present.  This mode should only be used
 471:Generated_Source\PSoC4/QuadDec.c **** *  when the kill signal (stop input) is configured in the pass through mode
 472:Generated_Source\PSoC4/QuadDec.c **** *  (Level sensitive signal).
 473:Generated_Source\PSoC4/QuadDec.c **** 
 474:Generated_Source\PSoC4/QuadDec.c **** *
 475:Generated_Source\PSoC4/QuadDec.c **** * Parameters:
 476:Generated_Source\PSoC4/QuadDec.c **** *  syncKillEnable
 477:Generated_Source\PSoC4/QuadDec.c **** *   Values:
 478:Generated_Source\PSoC4/QuadDec.c **** *     - 0 - Asynchronous
 479:Generated_Source\PSoC4/QuadDec.c **** *     - 1 - Synchronous
 480:Generated_Source\PSoC4/QuadDec.c **** *
 481:Generated_Source\PSoC4/QuadDec.c **** * Return:
 482:Generated_Source\PSoC4/QuadDec.c **** *  None
 483:Generated_Source\PSoC4/QuadDec.c **** *
 484:Generated_Source\PSoC4/QuadDec.c **** *******************************************************************************/
 485:Generated_Source\PSoC4/QuadDec.c **** void QuadDec_SetPWMSyncKill(uint32 syncKillEnable)
 486:Generated_Source\PSoC4/QuadDec.c **** {
 487:Generated_Source\PSoC4/QuadDec.c ****     uint8 enableInterrupts;
 488:Generated_Source\PSoC4/QuadDec.c **** 
 489:Generated_Source\PSoC4/QuadDec.c ****     enableInterrupts = CyEnterCriticalSection();
 490:Generated_Source\PSoC4/QuadDec.c **** 
 491:Generated_Source\PSoC4/QuadDec.c ****     QuadDec_CONTROL_REG &= (uint32)~QuadDec_PWM_SYNC_KILL_MASK;
 492:Generated_Source\PSoC4/QuadDec.c ****     QuadDec_CONTROL_REG |= ((uint32)((syncKillEnable & QuadDec_1BIT_MASK)  <<
 493:Generated_Source\PSoC4/QuadDec.c ****                                                QuadDec_PWM_SYNC_KILL_SHIFT));
 494:Generated_Source\PSoC4/QuadDec.c **** 
 495:Generated_Source\PSoC4/QuadDec.c ****     CyExitCriticalSection(enableInterrupts);
 496:Generated_Source\PSoC4/QuadDec.c **** }
 497:Generated_Source\PSoC4/QuadDec.c **** 
 498:Generated_Source\PSoC4/QuadDec.c **** 
 499:Generated_Source\PSoC4/QuadDec.c **** /*******************************************************************************
 500:Generated_Source\PSoC4/QuadDec.c **** * Function Name: QuadDec_SetPWMStopOnKill
 501:Generated_Source\PSoC4/QuadDec.c **** ********************************************************************************
 502:Generated_Source\PSoC4/QuadDec.c **** *
 503:Generated_Source\PSoC4/QuadDec.c **** * Summary:
 504:Generated_Source\PSoC4/QuadDec.c **** *  Writes the register that controls whether the PWM kill signal (stop input)
 505:Generated_Source\PSoC4/QuadDec.c **** *  causes the PWM counter to stop.  By default the kill operation does not stop
 506:Generated_Source\PSoC4/QuadDec.c **** *  the counter.  This functionality is only applicable to the three PWM modes.
 507:Generated_Source\PSoC4/QuadDec.c **** *
 508:Generated_Source\PSoC4/QuadDec.c **** *
 509:Generated_Source\PSoC4/QuadDec.c **** * Parameters:
 510:Generated_Source\PSoC4/QuadDec.c **** *  stopOnKillEnable
 511:Generated_Source\PSoC4/QuadDec.c **** *   Values:
 512:Generated_Source\PSoC4/QuadDec.c **** *     - 0 - Don't stop
 513:Generated_Source\PSoC4/QuadDec.c **** *     - 1 - Stop
 514:Generated_Source\PSoC4/QuadDec.c **** *
 515:Generated_Source\PSoC4/QuadDec.c **** * Return:
 516:Generated_Source\PSoC4/QuadDec.c **** *  None
 517:Generated_Source\PSoC4/QuadDec.c **** *
ARM GAS  C:\Users\AFDHAL~1\AppData\Local\Temp\ccSYCZD3.s 			page 11


 518:Generated_Source\PSoC4/QuadDec.c **** *******************************************************************************/
 519:Generated_Source\PSoC4/QuadDec.c **** void QuadDec_SetPWMStopOnKill(uint32 stopOnKillEnable)
 520:Generated_Source\PSoC4/QuadDec.c **** {
 521:Generated_Source\PSoC4/QuadDec.c ****     uint8 enableInterrupts;
 522:Generated_Source\PSoC4/QuadDec.c **** 
 523:Generated_Source\PSoC4/QuadDec.c ****     enableInterrupts = CyEnterCriticalSection();
 524:Generated_Source\PSoC4/QuadDec.c **** 
 525:Generated_Source\PSoC4/QuadDec.c ****     QuadDec_CONTROL_REG &= (uint32)~QuadDec_PWM_STOP_KILL_MASK;
 526:Generated_Source\PSoC4/QuadDec.c ****     QuadDec_CONTROL_REG |= ((uint32)((stopOnKillEnable & QuadDec_1BIT_MASK)  <<
 527:Generated_Source\PSoC4/QuadDec.c ****                                                          QuadDec_PWM_STOP_KILL_SHIFT));
 528:Generated_Source\PSoC4/QuadDec.c **** 
 529:Generated_Source\PSoC4/QuadDec.c ****     CyExitCriticalSection(enableInterrupts);
 530:Generated_Source\PSoC4/QuadDec.c **** }
 531:Generated_Source\PSoC4/QuadDec.c **** 
 532:Generated_Source\PSoC4/QuadDec.c **** 
 533:Generated_Source\PSoC4/QuadDec.c **** /*******************************************************************************
 534:Generated_Source\PSoC4/QuadDec.c **** * Function Name: QuadDec_SetPWMDeadTime
 535:Generated_Source\PSoC4/QuadDec.c **** ********************************************************************************
 536:Generated_Source\PSoC4/QuadDec.c **** *
 537:Generated_Source\PSoC4/QuadDec.c **** * Summary:
 538:Generated_Source\PSoC4/QuadDec.c **** *  Writes the dead time control value.  This value delays the rising edge of
 539:Generated_Source\PSoC4/QuadDec.c **** *  both the line and line_n signals the designated number of cycles resulting
 540:Generated_Source\PSoC4/QuadDec.c **** *  in both signals being inactive for that many cycles.  This functionality is
 541:Generated_Source\PSoC4/QuadDec.c **** *  only applicable to the PWM in the dead time mode.
 542:Generated_Source\PSoC4/QuadDec.c **** 
 543:Generated_Source\PSoC4/QuadDec.c **** *
 544:Generated_Source\PSoC4/QuadDec.c **** * Parameters:
 545:Generated_Source\PSoC4/QuadDec.c **** *  Dead time to insert
 546:Generated_Source\PSoC4/QuadDec.c **** *   Values: 0 to 255
 547:Generated_Source\PSoC4/QuadDec.c **** *
 548:Generated_Source\PSoC4/QuadDec.c **** * Return:
 549:Generated_Source\PSoC4/QuadDec.c **** *  None
 550:Generated_Source\PSoC4/QuadDec.c **** *
 551:Generated_Source\PSoC4/QuadDec.c **** *******************************************************************************/
 552:Generated_Source\PSoC4/QuadDec.c **** void QuadDec_SetPWMDeadTime(uint32 deadTime)
 553:Generated_Source\PSoC4/QuadDec.c **** {
 554:Generated_Source\PSoC4/QuadDec.c ****     uint8 enableInterrupts;
 555:Generated_Source\PSoC4/QuadDec.c **** 
 556:Generated_Source\PSoC4/QuadDec.c ****     enableInterrupts = CyEnterCriticalSection();
 557:Generated_Source\PSoC4/QuadDec.c **** 
 558:Generated_Source\PSoC4/QuadDec.c ****     QuadDec_CONTROL_REG &= (uint32)~QuadDec_PRESCALER_MASK;
 559:Generated_Source\PSoC4/QuadDec.c ****     QuadDec_CONTROL_REG |= ((uint32)((deadTime & QuadDec_8BIT_MASK) <<
 560:Generated_Source\PSoC4/QuadDec.c ****                                                           QuadDec_PRESCALER_SHIFT));
 561:Generated_Source\PSoC4/QuadDec.c **** 
 562:Generated_Source\PSoC4/QuadDec.c ****     CyExitCriticalSection(enableInterrupts);
 563:Generated_Source\PSoC4/QuadDec.c **** }
 564:Generated_Source\PSoC4/QuadDec.c **** 
 565:Generated_Source\PSoC4/QuadDec.c **** 
 566:Generated_Source\PSoC4/QuadDec.c **** /*******************************************************************************
 567:Generated_Source\PSoC4/QuadDec.c **** * Function Name: QuadDec_SetPWMInvert
 568:Generated_Source\PSoC4/QuadDec.c **** ********************************************************************************
 569:Generated_Source\PSoC4/QuadDec.c **** *
 570:Generated_Source\PSoC4/QuadDec.c **** * Summary:
 571:Generated_Source\PSoC4/QuadDec.c **** *  Writes the bits that control whether the line and line_n outputs are
 572:Generated_Source\PSoC4/QuadDec.c **** *  inverted from their normal output values.  This functionality is only
 573:Generated_Source\PSoC4/QuadDec.c **** *  applicable to the three PWM modes.
 574:Generated_Source\PSoC4/QuadDec.c **** *
ARM GAS  C:\Users\AFDHAL~1\AppData\Local\Temp\ccSYCZD3.s 			page 12


 575:Generated_Source\PSoC4/QuadDec.c **** * Parameters:
 576:Generated_Source\PSoC4/QuadDec.c **** *  mask: Mask of outputs to invert.
 577:Generated_Source\PSoC4/QuadDec.c **** *   Values:
 578:Generated_Source\PSoC4/QuadDec.c **** *         - QuadDec_INVERT_LINE   - Inverts the line output
 579:Generated_Source\PSoC4/QuadDec.c **** *         - QuadDec_INVERT_LINE_N - Inverts the line_n output
 580:Generated_Source\PSoC4/QuadDec.c **** *
 581:Generated_Source\PSoC4/QuadDec.c **** * Return:
 582:Generated_Source\PSoC4/QuadDec.c **** *  None
 583:Generated_Source\PSoC4/QuadDec.c **** *
 584:Generated_Source\PSoC4/QuadDec.c **** *******************************************************************************/
 585:Generated_Source\PSoC4/QuadDec.c **** void QuadDec_SetPWMInvert(uint32 mask)
 586:Generated_Source\PSoC4/QuadDec.c **** {
 587:Generated_Source\PSoC4/QuadDec.c ****     uint8 enableInterrupts;
 588:Generated_Source\PSoC4/QuadDec.c **** 
 589:Generated_Source\PSoC4/QuadDec.c ****     enableInterrupts = CyEnterCriticalSection();
 590:Generated_Source\PSoC4/QuadDec.c **** 
 591:Generated_Source\PSoC4/QuadDec.c ****     QuadDec_CONTROL_REG &= (uint32)~QuadDec_INV_OUT_MASK;
 592:Generated_Source\PSoC4/QuadDec.c ****     QuadDec_CONTROL_REG |= mask;
 593:Generated_Source\PSoC4/QuadDec.c **** 
 594:Generated_Source\PSoC4/QuadDec.c ****     CyExitCriticalSection(enableInterrupts);
 595:Generated_Source\PSoC4/QuadDec.c **** }
 596:Generated_Source\PSoC4/QuadDec.c **** 
 597:Generated_Source\PSoC4/QuadDec.c **** 
 598:Generated_Source\PSoC4/QuadDec.c **** 
 599:Generated_Source\PSoC4/QuadDec.c **** /*******************************************************************************
 600:Generated_Source\PSoC4/QuadDec.c **** * Function Name: QuadDec_WriteCounter
 601:Generated_Source\PSoC4/QuadDec.c **** ********************************************************************************
 602:Generated_Source\PSoC4/QuadDec.c **** *
 603:Generated_Source\PSoC4/QuadDec.c **** * Summary:
 604:Generated_Source\PSoC4/QuadDec.c **** *  Writes a new 16bit counter value directly into the counter register, thus
 605:Generated_Source\PSoC4/QuadDec.c **** *  setting the counter (not the period) to the value written. It is not
 606:Generated_Source\PSoC4/QuadDec.c **** *  advised to write to this field when the counter is running.
 607:Generated_Source\PSoC4/QuadDec.c **** *
 608:Generated_Source\PSoC4/QuadDec.c **** * Parameters:
 609:Generated_Source\PSoC4/QuadDec.c **** *  count: value to write
 610:Generated_Source\PSoC4/QuadDec.c **** *
 611:Generated_Source\PSoC4/QuadDec.c **** * Return:
 612:Generated_Source\PSoC4/QuadDec.c **** *  None
 613:Generated_Source\PSoC4/QuadDec.c **** *
 614:Generated_Source\PSoC4/QuadDec.c **** *******************************************************************************/
 615:Generated_Source\PSoC4/QuadDec.c **** void QuadDec_WriteCounter(uint32 count)
 616:Generated_Source\PSoC4/QuadDec.c **** {
 617:Generated_Source\PSoC4/QuadDec.c ****     QuadDec_COUNTER_REG = (count & QuadDec_16BIT_MASK);
 618:Generated_Source\PSoC4/QuadDec.c **** }
 619:Generated_Source\PSoC4/QuadDec.c **** 
 620:Generated_Source\PSoC4/QuadDec.c **** 
 621:Generated_Source\PSoC4/QuadDec.c **** /*******************************************************************************
 622:Generated_Source\PSoC4/QuadDec.c **** * Function Name: QuadDec_ReadCounter
 623:Generated_Source\PSoC4/QuadDec.c **** ********************************************************************************
 624:Generated_Source\PSoC4/QuadDec.c **** *
 625:Generated_Source\PSoC4/QuadDec.c **** * Summary:
 626:Generated_Source\PSoC4/QuadDec.c **** *  Reads the current counter value.
 627:Generated_Source\PSoC4/QuadDec.c **** *
 628:Generated_Source\PSoC4/QuadDec.c **** * Parameters:
 629:Generated_Source\PSoC4/QuadDec.c **** *  None
 630:Generated_Source\PSoC4/QuadDec.c **** *
 631:Generated_Source\PSoC4/QuadDec.c **** * Return:
ARM GAS  C:\Users\AFDHAL~1\AppData\Local\Temp\ccSYCZD3.s 			page 13


 632:Generated_Source\PSoC4/QuadDec.c **** *  Current counter value
 633:Generated_Source\PSoC4/QuadDec.c **** *
 634:Generated_Source\PSoC4/QuadDec.c **** *******************************************************************************/
 635:Generated_Source\PSoC4/QuadDec.c **** uint32 QuadDec_ReadCounter(void)
 636:Generated_Source\PSoC4/QuadDec.c **** {
 637:Generated_Source\PSoC4/QuadDec.c ****     return (QuadDec_COUNTER_REG & QuadDec_16BIT_MASK);
 638:Generated_Source\PSoC4/QuadDec.c **** }
 639:Generated_Source\PSoC4/QuadDec.c **** 
 640:Generated_Source\PSoC4/QuadDec.c **** 
 641:Generated_Source\PSoC4/QuadDec.c **** /*******************************************************************************
 642:Generated_Source\PSoC4/QuadDec.c **** * Function Name: QuadDec_SetCounterMode
 643:Generated_Source\PSoC4/QuadDec.c **** ********************************************************************************
 644:Generated_Source\PSoC4/QuadDec.c **** *
 645:Generated_Source\PSoC4/QuadDec.c **** * Summary:
 646:Generated_Source\PSoC4/QuadDec.c **** *  Sets the counter mode.  Applicable to all modes except Quadrature Decoder
 647:Generated_Source\PSoC4/QuadDec.c **** *  and the PWM with a pseudo random output.
 648:Generated_Source\PSoC4/QuadDec.c **** *
 649:Generated_Source\PSoC4/QuadDec.c **** * Parameters:
 650:Generated_Source\PSoC4/QuadDec.c **** *  counterMode: Enumerated counter type values
 651:Generated_Source\PSoC4/QuadDec.c **** *   Values:
 652:Generated_Source\PSoC4/QuadDec.c **** *     - QuadDec_COUNT_UP       - Counts up
 653:Generated_Source\PSoC4/QuadDec.c **** *     - QuadDec_COUNT_DOWN     - Counts down
 654:Generated_Source\PSoC4/QuadDec.c **** *     - QuadDec_COUNT_UPDOWN0  - Counts up and down. Terminal count
 655:Generated_Source\PSoC4/QuadDec.c **** *                                         generated when counter reaches 0
 656:Generated_Source\PSoC4/QuadDec.c **** *     - QuadDec_COUNT_UPDOWN1  - Counts up and down. Terminal count
 657:Generated_Source\PSoC4/QuadDec.c **** *                                         generated both when counter reaches 0
 658:Generated_Source\PSoC4/QuadDec.c **** *                                         and period
 659:Generated_Source\PSoC4/QuadDec.c **** *
 660:Generated_Source\PSoC4/QuadDec.c **** * Return:
 661:Generated_Source\PSoC4/QuadDec.c **** *  None
 662:Generated_Source\PSoC4/QuadDec.c **** *
 663:Generated_Source\PSoC4/QuadDec.c **** *******************************************************************************/
 664:Generated_Source\PSoC4/QuadDec.c **** void QuadDec_SetCounterMode(uint32 counterMode)
 665:Generated_Source\PSoC4/QuadDec.c **** {
 666:Generated_Source\PSoC4/QuadDec.c ****     uint8 enableInterrupts;
 667:Generated_Source\PSoC4/QuadDec.c **** 
 668:Generated_Source\PSoC4/QuadDec.c ****     enableInterrupts = CyEnterCriticalSection();
 669:Generated_Source\PSoC4/QuadDec.c **** 
 670:Generated_Source\PSoC4/QuadDec.c ****     QuadDec_CONTROL_REG &= (uint32)~QuadDec_UPDOWN_MASK;
 671:Generated_Source\PSoC4/QuadDec.c ****     QuadDec_CONTROL_REG |= counterMode;
 672:Generated_Source\PSoC4/QuadDec.c **** 
 673:Generated_Source\PSoC4/QuadDec.c ****     CyExitCriticalSection(enableInterrupts);
 674:Generated_Source\PSoC4/QuadDec.c **** }
 675:Generated_Source\PSoC4/QuadDec.c **** 
 676:Generated_Source\PSoC4/QuadDec.c **** 
 677:Generated_Source\PSoC4/QuadDec.c **** /*******************************************************************************
 678:Generated_Source\PSoC4/QuadDec.c **** * Function Name: QuadDec_WritePeriod
 679:Generated_Source\PSoC4/QuadDec.c **** ********************************************************************************
 680:Generated_Source\PSoC4/QuadDec.c **** *
 681:Generated_Source\PSoC4/QuadDec.c **** * Summary:
 682:Generated_Source\PSoC4/QuadDec.c **** *  Writes the 16 bit period register with the new period value.
 683:Generated_Source\PSoC4/QuadDec.c **** *  To cause the counter to count for N cycles this register should be written
 684:Generated_Source\PSoC4/QuadDec.c **** *  with N-1 (counts from 0 to period inclusive).
 685:Generated_Source\PSoC4/QuadDec.c **** *
 686:Generated_Source\PSoC4/QuadDec.c **** * Parameters:
 687:Generated_Source\PSoC4/QuadDec.c **** *  period: Period value
 688:Generated_Source\PSoC4/QuadDec.c **** *
ARM GAS  C:\Users\AFDHAL~1\AppData\Local\Temp\ccSYCZD3.s 			page 14


 689:Generated_Source\PSoC4/QuadDec.c **** * Return:
 690:Generated_Source\PSoC4/QuadDec.c **** *  None
 691:Generated_Source\PSoC4/QuadDec.c **** *
 692:Generated_Source\PSoC4/QuadDec.c **** *******************************************************************************/
 693:Generated_Source\PSoC4/QuadDec.c **** void QuadDec_WritePeriod(uint32 period)
 694:Generated_Source\PSoC4/QuadDec.c **** {
 695:Generated_Source\PSoC4/QuadDec.c ****     QuadDec_PERIOD_REG = (period & QuadDec_16BIT_MASK);
 696:Generated_Source\PSoC4/QuadDec.c **** }
 697:Generated_Source\PSoC4/QuadDec.c **** 
 698:Generated_Source\PSoC4/QuadDec.c **** 
 699:Generated_Source\PSoC4/QuadDec.c **** /*******************************************************************************
 700:Generated_Source\PSoC4/QuadDec.c **** * Function Name: QuadDec_ReadPeriod
 701:Generated_Source\PSoC4/QuadDec.c **** ********************************************************************************
 702:Generated_Source\PSoC4/QuadDec.c **** *
 703:Generated_Source\PSoC4/QuadDec.c **** * Summary:
 704:Generated_Source\PSoC4/QuadDec.c **** *  Reads the 16 bit period register.
 705:Generated_Source\PSoC4/QuadDec.c **** *
 706:Generated_Source\PSoC4/QuadDec.c **** * Parameters:
 707:Generated_Source\PSoC4/QuadDec.c **** *  None
 708:Generated_Source\PSoC4/QuadDec.c **** *
 709:Generated_Source\PSoC4/QuadDec.c **** * Return:
 710:Generated_Source\PSoC4/QuadDec.c **** *  Period value
 711:Generated_Source\PSoC4/QuadDec.c **** *
 712:Generated_Source\PSoC4/QuadDec.c **** *******************************************************************************/
 713:Generated_Source\PSoC4/QuadDec.c **** uint32 QuadDec_ReadPeriod(void)
 714:Generated_Source\PSoC4/QuadDec.c **** {
 715:Generated_Source\PSoC4/QuadDec.c ****     return (QuadDec_PERIOD_REG & QuadDec_16BIT_MASK);
 716:Generated_Source\PSoC4/QuadDec.c **** }
 717:Generated_Source\PSoC4/QuadDec.c **** 
 718:Generated_Source\PSoC4/QuadDec.c **** 
 719:Generated_Source\PSoC4/QuadDec.c **** /*******************************************************************************
 720:Generated_Source\PSoC4/QuadDec.c **** * Function Name: QuadDec_SetCompareSwap
 721:Generated_Source\PSoC4/QuadDec.c **** ********************************************************************************
 722:Generated_Source\PSoC4/QuadDec.c **** *
 723:Generated_Source\PSoC4/QuadDec.c **** * Summary:
 724:Generated_Source\PSoC4/QuadDec.c **** *  Writes the register that controls whether the compare registers are
 725:Generated_Source\PSoC4/QuadDec.c **** *  swapped. When enabled in the Timer/Counter mode(without capture) the swap
 726:Generated_Source\PSoC4/QuadDec.c **** *  occurs at a TC event. In the PWM mode the swap occurs at the next TC event
 727:Generated_Source\PSoC4/QuadDec.c **** *  following a hardware switch event.
 728:Generated_Source\PSoC4/QuadDec.c **** *
 729:Generated_Source\PSoC4/QuadDec.c **** * Parameters:
 730:Generated_Source\PSoC4/QuadDec.c **** *  swapEnable
 731:Generated_Source\PSoC4/QuadDec.c **** *   Values:
 732:Generated_Source\PSoC4/QuadDec.c **** *     - 0 - Disable swap
 733:Generated_Source\PSoC4/QuadDec.c **** *     - 1 - Enable swap
 734:Generated_Source\PSoC4/QuadDec.c **** *
 735:Generated_Source\PSoC4/QuadDec.c **** * Return:
 736:Generated_Source\PSoC4/QuadDec.c **** *  None
 737:Generated_Source\PSoC4/QuadDec.c **** *
 738:Generated_Source\PSoC4/QuadDec.c **** *******************************************************************************/
 739:Generated_Source\PSoC4/QuadDec.c **** void QuadDec_SetCompareSwap(uint32 swapEnable)
 740:Generated_Source\PSoC4/QuadDec.c **** {
 741:Generated_Source\PSoC4/QuadDec.c ****     uint8 enableInterrupts;
 742:Generated_Source\PSoC4/QuadDec.c **** 
 743:Generated_Source\PSoC4/QuadDec.c ****     enableInterrupts = CyEnterCriticalSection();
 744:Generated_Source\PSoC4/QuadDec.c **** 
 745:Generated_Source\PSoC4/QuadDec.c ****     QuadDec_CONTROL_REG &= (uint32)~QuadDec_RELOAD_CC_MASK;
ARM GAS  C:\Users\AFDHAL~1\AppData\Local\Temp\ccSYCZD3.s 			page 15


 746:Generated_Source\PSoC4/QuadDec.c ****     QuadDec_CONTROL_REG |= (swapEnable & QuadDec_1BIT_MASK);
 747:Generated_Source\PSoC4/QuadDec.c **** 
 748:Generated_Source\PSoC4/QuadDec.c ****     CyExitCriticalSection(enableInterrupts);
 749:Generated_Source\PSoC4/QuadDec.c **** }
 750:Generated_Source\PSoC4/QuadDec.c **** 
 751:Generated_Source\PSoC4/QuadDec.c **** 
 752:Generated_Source\PSoC4/QuadDec.c **** /*******************************************************************************
 753:Generated_Source\PSoC4/QuadDec.c **** * Function Name: QuadDec_WritePeriodBuf
 754:Generated_Source\PSoC4/QuadDec.c **** ********************************************************************************
 755:Generated_Source\PSoC4/QuadDec.c **** *
 756:Generated_Source\PSoC4/QuadDec.c **** * Summary:
 757:Generated_Source\PSoC4/QuadDec.c **** *  Writes the 16 bit period buf register with the new period value.
 758:Generated_Source\PSoC4/QuadDec.c **** *
 759:Generated_Source\PSoC4/QuadDec.c **** * Parameters:
 760:Generated_Source\PSoC4/QuadDec.c **** *  periodBuf: Period value
 761:Generated_Source\PSoC4/QuadDec.c **** *
 762:Generated_Source\PSoC4/QuadDec.c **** * Return:
 763:Generated_Source\PSoC4/QuadDec.c **** *  None
 764:Generated_Source\PSoC4/QuadDec.c **** *
 765:Generated_Source\PSoC4/QuadDec.c **** *******************************************************************************/
 766:Generated_Source\PSoC4/QuadDec.c **** void QuadDec_WritePeriodBuf(uint32 periodBuf)
 767:Generated_Source\PSoC4/QuadDec.c **** {
 768:Generated_Source\PSoC4/QuadDec.c ****     QuadDec_PERIOD_BUF_REG = (periodBuf & QuadDec_16BIT_MASK);
 769:Generated_Source\PSoC4/QuadDec.c **** }
 770:Generated_Source\PSoC4/QuadDec.c **** 
 771:Generated_Source\PSoC4/QuadDec.c **** 
 772:Generated_Source\PSoC4/QuadDec.c **** /*******************************************************************************
 773:Generated_Source\PSoC4/QuadDec.c **** * Function Name: QuadDec_ReadPeriodBuf
 774:Generated_Source\PSoC4/QuadDec.c **** ********************************************************************************
 775:Generated_Source\PSoC4/QuadDec.c **** *
 776:Generated_Source\PSoC4/QuadDec.c **** * Summary:
 777:Generated_Source\PSoC4/QuadDec.c **** *  Reads the 16 bit period buf register.
 778:Generated_Source\PSoC4/QuadDec.c **** *
 779:Generated_Source\PSoC4/QuadDec.c **** * Parameters:
 780:Generated_Source\PSoC4/QuadDec.c **** *  None
 781:Generated_Source\PSoC4/QuadDec.c **** *
 782:Generated_Source\PSoC4/QuadDec.c **** * Return:
 783:Generated_Source\PSoC4/QuadDec.c **** *  Period value
 784:Generated_Source\PSoC4/QuadDec.c **** *
 785:Generated_Source\PSoC4/QuadDec.c **** *******************************************************************************/
 786:Generated_Source\PSoC4/QuadDec.c **** uint32 QuadDec_ReadPeriodBuf(void)
 787:Generated_Source\PSoC4/QuadDec.c **** {
 788:Generated_Source\PSoC4/QuadDec.c ****     return (QuadDec_PERIOD_BUF_REG & QuadDec_16BIT_MASK);
 789:Generated_Source\PSoC4/QuadDec.c **** }
 790:Generated_Source\PSoC4/QuadDec.c **** 
 791:Generated_Source\PSoC4/QuadDec.c **** 
 792:Generated_Source\PSoC4/QuadDec.c **** /*******************************************************************************
 793:Generated_Source\PSoC4/QuadDec.c **** * Function Name: QuadDec_SetPeriodSwap
 794:Generated_Source\PSoC4/QuadDec.c **** ********************************************************************************
 795:Generated_Source\PSoC4/QuadDec.c **** *
 796:Generated_Source\PSoC4/QuadDec.c **** * Summary:
 797:Generated_Source\PSoC4/QuadDec.c **** *  Writes the register that controls whether the period registers are
 798:Generated_Source\PSoC4/QuadDec.c **** *  swapped. When enabled in Timer/Counter mode the swap occurs at a TC event.
 799:Generated_Source\PSoC4/QuadDec.c **** *  In the PWM mode the swap occurs at the next TC event following a hardware
 800:Generated_Source\PSoC4/QuadDec.c **** *  switch event.
 801:Generated_Source\PSoC4/QuadDec.c **** *
 802:Generated_Source\PSoC4/QuadDec.c **** * Parameters:
ARM GAS  C:\Users\AFDHAL~1\AppData\Local\Temp\ccSYCZD3.s 			page 16


 803:Generated_Source\PSoC4/QuadDec.c **** *  swapEnable
 804:Generated_Source\PSoC4/QuadDec.c **** *   Values:
 805:Generated_Source\PSoC4/QuadDec.c **** *     - 0 - Disable swap
 806:Generated_Source\PSoC4/QuadDec.c **** *     - 1 - Enable swap
 807:Generated_Source\PSoC4/QuadDec.c **** *
 808:Generated_Source\PSoC4/QuadDec.c **** * Return:
 809:Generated_Source\PSoC4/QuadDec.c **** *  None
 810:Generated_Source\PSoC4/QuadDec.c **** *
 811:Generated_Source\PSoC4/QuadDec.c **** *******************************************************************************/
 812:Generated_Source\PSoC4/QuadDec.c **** void QuadDec_SetPeriodSwap(uint32 swapEnable)
 813:Generated_Source\PSoC4/QuadDec.c **** {
 814:Generated_Source\PSoC4/QuadDec.c ****     uint8 enableInterrupts;
 815:Generated_Source\PSoC4/QuadDec.c **** 
 816:Generated_Source\PSoC4/QuadDec.c ****     enableInterrupts = CyEnterCriticalSection();
 817:Generated_Source\PSoC4/QuadDec.c **** 
 818:Generated_Source\PSoC4/QuadDec.c ****     QuadDec_CONTROL_REG &= (uint32)~QuadDec_RELOAD_PERIOD_MASK;
 819:Generated_Source\PSoC4/QuadDec.c ****     QuadDec_CONTROL_REG |= ((uint32)((swapEnable & QuadDec_1BIT_MASK) <<
 820:Generated_Source\PSoC4/QuadDec.c ****                                                             QuadDec_RELOAD_PERIOD_SHIFT));
 821:Generated_Source\PSoC4/QuadDec.c **** 
 822:Generated_Source\PSoC4/QuadDec.c ****     CyExitCriticalSection(enableInterrupts);
 823:Generated_Source\PSoC4/QuadDec.c **** }
 824:Generated_Source\PSoC4/QuadDec.c **** 
 825:Generated_Source\PSoC4/QuadDec.c **** 
 826:Generated_Source\PSoC4/QuadDec.c **** /*******************************************************************************
 827:Generated_Source\PSoC4/QuadDec.c **** * Function Name: QuadDec_WriteCompare
 828:Generated_Source\PSoC4/QuadDec.c **** ********************************************************************************
 829:Generated_Source\PSoC4/QuadDec.c **** *
 830:Generated_Source\PSoC4/QuadDec.c **** * Summary:
 831:Generated_Source\PSoC4/QuadDec.c **** *  Writes the 16 bit compare register with the new compare value. Not
 832:Generated_Source\PSoC4/QuadDec.c **** *  applicable for Timer/Counter with Capture or in Quadrature Decoder modes.
 833:Generated_Source\PSoC4/QuadDec.c **** *
 834:Generated_Source\PSoC4/QuadDec.c **** * Parameters:
 835:Generated_Source\PSoC4/QuadDec.c **** *  compare: Compare value
 836:Generated_Source\PSoC4/QuadDec.c **** *
 837:Generated_Source\PSoC4/QuadDec.c **** * Return:
 838:Generated_Source\PSoC4/QuadDec.c **** *  None
 839:Generated_Source\PSoC4/QuadDec.c **** *
 840:Generated_Source\PSoC4/QuadDec.c **** * Note:
 841:Generated_Source\PSoC4/QuadDec.c **** *  It is not recommended to use the value equal to "0" or equal to 
 842:Generated_Source\PSoC4/QuadDec.c **** *  "period value" in Center or Asymmetric align PWM modes on the 
 843:Generated_Source\PSoC4/QuadDec.c **** *  PSoC 4100/PSoC 4200 devices.
 844:Generated_Source\PSoC4/QuadDec.c **** *  PSoC 4000 devices write the 16 bit compare register with the decremented 
 845:Generated_Source\PSoC4/QuadDec.c **** *  compare value in the Up counting mode (except 0x0u), and the incremented 
 846:Generated_Source\PSoC4/QuadDec.c **** *  compare value in the Down counting mode (except 0xFFFFu).
 847:Generated_Source\PSoC4/QuadDec.c **** *
 848:Generated_Source\PSoC4/QuadDec.c **** *******************************************************************************/
 849:Generated_Source\PSoC4/QuadDec.c **** void QuadDec_WriteCompare(uint32 compare)
 850:Generated_Source\PSoC4/QuadDec.c **** {
 851:Generated_Source\PSoC4/QuadDec.c ****     #if (QuadDec_CY_TCPWM_4000)
 852:Generated_Source\PSoC4/QuadDec.c ****         uint32 currentMode;
 853:Generated_Source\PSoC4/QuadDec.c ****     #endif /* (QuadDec_CY_TCPWM_4000) */
 854:Generated_Source\PSoC4/QuadDec.c **** 
 855:Generated_Source\PSoC4/QuadDec.c ****     #if (QuadDec_CY_TCPWM_4000)
 856:Generated_Source\PSoC4/QuadDec.c ****         currentMode = ((QuadDec_CONTROL_REG & QuadDec_UPDOWN_MASK) >> QuadDec_UPDOWN_SHIFT);
 857:Generated_Source\PSoC4/QuadDec.c **** 
 858:Generated_Source\PSoC4/QuadDec.c ****         if (((uint32)QuadDec__COUNT_DOWN == currentMode) && (0xFFFFu != compare))
 859:Generated_Source\PSoC4/QuadDec.c ****         {
ARM GAS  C:\Users\AFDHAL~1\AppData\Local\Temp\ccSYCZD3.s 			page 17


 860:Generated_Source\PSoC4/QuadDec.c ****             compare++;
 861:Generated_Source\PSoC4/QuadDec.c ****         }
 862:Generated_Source\PSoC4/QuadDec.c ****         else if (((uint32)QuadDec__COUNT_UP == currentMode) && (0u != compare))
 863:Generated_Source\PSoC4/QuadDec.c ****         {
 864:Generated_Source\PSoC4/QuadDec.c ****             compare--;
 865:Generated_Source\PSoC4/QuadDec.c ****         }
 866:Generated_Source\PSoC4/QuadDec.c ****         else
 867:Generated_Source\PSoC4/QuadDec.c ****         {
 868:Generated_Source\PSoC4/QuadDec.c ****         }
 869:Generated_Source\PSoC4/QuadDec.c ****         
 870:Generated_Source\PSoC4/QuadDec.c ****     
 871:Generated_Source\PSoC4/QuadDec.c ****     #endif /* (QuadDec_CY_TCPWM_4000) */
 872:Generated_Source\PSoC4/QuadDec.c ****     
 873:Generated_Source\PSoC4/QuadDec.c ****     QuadDec_COMP_CAP_REG = (compare & QuadDec_16BIT_MASK);
 874:Generated_Source\PSoC4/QuadDec.c **** }
 875:Generated_Source\PSoC4/QuadDec.c **** 
 876:Generated_Source\PSoC4/QuadDec.c **** 
 877:Generated_Source\PSoC4/QuadDec.c **** /*******************************************************************************
 878:Generated_Source\PSoC4/QuadDec.c **** * Function Name: QuadDec_ReadCompare
 879:Generated_Source\PSoC4/QuadDec.c **** ********************************************************************************
 880:Generated_Source\PSoC4/QuadDec.c **** *
 881:Generated_Source\PSoC4/QuadDec.c **** * Summary:
 882:Generated_Source\PSoC4/QuadDec.c **** *  Reads the compare register. Not applicable for Timer/Counter with Capture
 883:Generated_Source\PSoC4/QuadDec.c **** *  or in Quadrature Decoder modes.
 884:Generated_Source\PSoC4/QuadDec.c **** *  PSoC 4000 devices read the incremented compare register value in the 
 885:Generated_Source\PSoC4/QuadDec.c **** *  Up counting mode (except 0xFFFFu), and the decremented value in the 
 886:Generated_Source\PSoC4/QuadDec.c **** *  Down counting mode (except 0x0u).
 887:Generated_Source\PSoC4/QuadDec.c **** *
 888:Generated_Source\PSoC4/QuadDec.c **** * Parameters:
 889:Generated_Source\PSoC4/QuadDec.c **** *  None
 890:Generated_Source\PSoC4/QuadDec.c **** *
 891:Generated_Source\PSoC4/QuadDec.c **** * Return:
 892:Generated_Source\PSoC4/QuadDec.c **** *  Compare value
 893:Generated_Source\PSoC4/QuadDec.c **** *
 894:Generated_Source\PSoC4/QuadDec.c **** * Note:
 895:Generated_Source\PSoC4/QuadDec.c **** *  PSoC 4000 devices read the incremented compare register value in the 
 896:Generated_Source\PSoC4/QuadDec.c **** *  Up counting mode (except 0xFFFFu), and the decremented value in the 
 897:Generated_Source\PSoC4/QuadDec.c **** *  Down counting mode (except 0x0u).
 898:Generated_Source\PSoC4/QuadDec.c **** *
 899:Generated_Source\PSoC4/QuadDec.c **** *******************************************************************************/
 900:Generated_Source\PSoC4/QuadDec.c **** uint32 QuadDec_ReadCompare(void)
 901:Generated_Source\PSoC4/QuadDec.c **** {
 902:Generated_Source\PSoC4/QuadDec.c ****     #if (QuadDec_CY_TCPWM_4000)
 903:Generated_Source\PSoC4/QuadDec.c ****         uint32 currentMode;
 904:Generated_Source\PSoC4/QuadDec.c ****         uint32 regVal;
 905:Generated_Source\PSoC4/QuadDec.c ****     #endif /* (QuadDec_CY_TCPWM_4000) */
 906:Generated_Source\PSoC4/QuadDec.c **** 
 907:Generated_Source\PSoC4/QuadDec.c ****     #if (QuadDec_CY_TCPWM_4000)
 908:Generated_Source\PSoC4/QuadDec.c ****         currentMode = ((QuadDec_CONTROL_REG & QuadDec_UPDOWN_MASK) >> QuadDec_UPDOWN_SHIFT);
 909:Generated_Source\PSoC4/QuadDec.c ****         
 910:Generated_Source\PSoC4/QuadDec.c ****         regVal = QuadDec_COMP_CAP_REG;
 911:Generated_Source\PSoC4/QuadDec.c ****         
 912:Generated_Source\PSoC4/QuadDec.c ****         if (((uint32)QuadDec__COUNT_DOWN == currentMode) && (0u != regVal))
 913:Generated_Source\PSoC4/QuadDec.c ****         {
 914:Generated_Source\PSoC4/QuadDec.c ****             regVal--;
 915:Generated_Source\PSoC4/QuadDec.c ****         }
 916:Generated_Source\PSoC4/QuadDec.c ****         else if (((uint32)QuadDec__COUNT_UP == currentMode) && (0xFFFFu != regVal))
ARM GAS  C:\Users\AFDHAL~1\AppData\Local\Temp\ccSYCZD3.s 			page 18


 917:Generated_Source\PSoC4/QuadDec.c ****         {
 918:Generated_Source\PSoC4/QuadDec.c ****             regVal++;
 919:Generated_Source\PSoC4/QuadDec.c ****         }
 920:Generated_Source\PSoC4/QuadDec.c ****         else
 921:Generated_Source\PSoC4/QuadDec.c ****         {
 922:Generated_Source\PSoC4/QuadDec.c ****         }
 923:Generated_Source\PSoC4/QuadDec.c **** 
 924:Generated_Source\PSoC4/QuadDec.c ****         return (regVal & QuadDec_16BIT_MASK);
 925:Generated_Source\PSoC4/QuadDec.c ****     #else
 926:Generated_Source\PSoC4/QuadDec.c ****         return (QuadDec_COMP_CAP_REG & QuadDec_16BIT_MASK);
 927:Generated_Source\PSoC4/QuadDec.c ****     #endif /* (QuadDec_CY_TCPWM_4000) */
 928:Generated_Source\PSoC4/QuadDec.c **** }
 929:Generated_Source\PSoC4/QuadDec.c **** 
 930:Generated_Source\PSoC4/QuadDec.c **** 
 931:Generated_Source\PSoC4/QuadDec.c **** /*******************************************************************************
 932:Generated_Source\PSoC4/QuadDec.c **** * Function Name: QuadDec_WriteCompareBuf
 933:Generated_Source\PSoC4/QuadDec.c **** ********************************************************************************
 934:Generated_Source\PSoC4/QuadDec.c **** *
 935:Generated_Source\PSoC4/QuadDec.c **** * Summary:
 936:Generated_Source\PSoC4/QuadDec.c **** *  Writes the 16 bit compare buffer register with the new compare value. Not
 937:Generated_Source\PSoC4/QuadDec.c **** *  applicable for Timer/Counter with Capture or in Quadrature Decoder modes.
 938:Generated_Source\PSoC4/QuadDec.c **** *
 939:Generated_Source\PSoC4/QuadDec.c **** * Parameters:
 940:Generated_Source\PSoC4/QuadDec.c **** *  compareBuf: Compare value
 941:Generated_Source\PSoC4/QuadDec.c **** *
 942:Generated_Source\PSoC4/QuadDec.c **** * Return:
 943:Generated_Source\PSoC4/QuadDec.c **** *  None
 944:Generated_Source\PSoC4/QuadDec.c **** *
 945:Generated_Source\PSoC4/QuadDec.c **** * Note:
 946:Generated_Source\PSoC4/QuadDec.c **** *  It is not recommended to use the value equal to "0" or equal to 
 947:Generated_Source\PSoC4/QuadDec.c **** *  "period value" in Center or Asymmetric align PWM modes on the 
 948:Generated_Source\PSoC4/QuadDec.c **** *  PSoC 4100/PSoC 4200 devices.
 949:Generated_Source\PSoC4/QuadDec.c **** *  PSoC 4000 devices write the 16 bit compare register with the decremented 
 950:Generated_Source\PSoC4/QuadDec.c **** *  compare value in the Up counting mode (except 0x0u), and the incremented 
 951:Generated_Source\PSoC4/QuadDec.c **** *  compare value in the Down counting mode (except 0xFFFFu).
 952:Generated_Source\PSoC4/QuadDec.c **** *
 953:Generated_Source\PSoC4/QuadDec.c **** *******************************************************************************/
 954:Generated_Source\PSoC4/QuadDec.c **** void QuadDec_WriteCompareBuf(uint32 compareBuf)
 955:Generated_Source\PSoC4/QuadDec.c **** {
 956:Generated_Source\PSoC4/QuadDec.c ****     #if (QuadDec_CY_TCPWM_4000)
 957:Generated_Source\PSoC4/QuadDec.c ****         uint32 currentMode;
 958:Generated_Source\PSoC4/QuadDec.c ****     #endif /* (QuadDec_CY_TCPWM_4000) */
 959:Generated_Source\PSoC4/QuadDec.c **** 
 960:Generated_Source\PSoC4/QuadDec.c ****     #if (QuadDec_CY_TCPWM_4000)
 961:Generated_Source\PSoC4/QuadDec.c ****         currentMode = ((QuadDec_CONTROL_REG & QuadDec_UPDOWN_MASK) >> QuadDec_UPDOWN_SHIFT);
 962:Generated_Source\PSoC4/QuadDec.c **** 
 963:Generated_Source\PSoC4/QuadDec.c ****         if (((uint32)QuadDec__COUNT_DOWN == currentMode) && (0xFFFFu != compareBuf))
 964:Generated_Source\PSoC4/QuadDec.c ****         {
 965:Generated_Source\PSoC4/QuadDec.c ****             compareBuf++;
 966:Generated_Source\PSoC4/QuadDec.c ****         }
 967:Generated_Source\PSoC4/QuadDec.c ****         else if (((uint32)QuadDec__COUNT_UP == currentMode) && (0u != compareBuf))
 968:Generated_Source\PSoC4/QuadDec.c ****         {
 969:Generated_Source\PSoC4/QuadDec.c ****             compareBuf --;
 970:Generated_Source\PSoC4/QuadDec.c ****         }
 971:Generated_Source\PSoC4/QuadDec.c ****         else
 972:Generated_Source\PSoC4/QuadDec.c ****         {
 973:Generated_Source\PSoC4/QuadDec.c ****         }
ARM GAS  C:\Users\AFDHAL~1\AppData\Local\Temp\ccSYCZD3.s 			page 19


 974:Generated_Source\PSoC4/QuadDec.c ****     #endif /* (QuadDec_CY_TCPWM_4000) */
 975:Generated_Source\PSoC4/QuadDec.c ****     
 976:Generated_Source\PSoC4/QuadDec.c ****     QuadDec_COMP_CAP_BUF_REG = (compareBuf & QuadDec_16BIT_MASK);
 977:Generated_Source\PSoC4/QuadDec.c **** }
 978:Generated_Source\PSoC4/QuadDec.c **** 
 979:Generated_Source\PSoC4/QuadDec.c **** 
 980:Generated_Source\PSoC4/QuadDec.c **** /*******************************************************************************
 981:Generated_Source\PSoC4/QuadDec.c **** * Function Name: QuadDec_ReadCompareBuf
 982:Generated_Source\PSoC4/QuadDec.c **** ********************************************************************************
 983:Generated_Source\PSoC4/QuadDec.c **** *
 984:Generated_Source\PSoC4/QuadDec.c **** * Summary:
 985:Generated_Source\PSoC4/QuadDec.c **** *  Reads the compare buffer register. Not applicable for Timer/Counter with
 986:Generated_Source\PSoC4/QuadDec.c **** *  Capture or in Quadrature Decoder modes.
 987:Generated_Source\PSoC4/QuadDec.c **** *
 988:Generated_Source\PSoC4/QuadDec.c **** * Parameters:
 989:Generated_Source\PSoC4/QuadDec.c **** *  None
 990:Generated_Source\PSoC4/QuadDec.c **** *
 991:Generated_Source\PSoC4/QuadDec.c **** * Return:
 992:Generated_Source\PSoC4/QuadDec.c **** *  Compare buffer value
 993:Generated_Source\PSoC4/QuadDec.c **** *
 994:Generated_Source\PSoC4/QuadDec.c **** * Note:
 995:Generated_Source\PSoC4/QuadDec.c **** *  PSoC 4000 devices read the incremented compare register value in the 
 996:Generated_Source\PSoC4/QuadDec.c **** *  Up counting mode (except 0xFFFFu), and the decremented value in the 
 997:Generated_Source\PSoC4/QuadDec.c **** *  Down counting mode (except 0x0u).
 998:Generated_Source\PSoC4/QuadDec.c **** *
 999:Generated_Source\PSoC4/QuadDec.c **** *******************************************************************************/
1000:Generated_Source\PSoC4/QuadDec.c **** uint32 QuadDec_ReadCompareBuf(void)
1001:Generated_Source\PSoC4/QuadDec.c **** {
1002:Generated_Source\PSoC4/QuadDec.c ****     #if (QuadDec_CY_TCPWM_4000)
1003:Generated_Source\PSoC4/QuadDec.c ****         uint32 currentMode;
1004:Generated_Source\PSoC4/QuadDec.c ****         uint32 regVal;
1005:Generated_Source\PSoC4/QuadDec.c ****     #endif /* (QuadDec_CY_TCPWM_4000) */
1006:Generated_Source\PSoC4/QuadDec.c **** 
1007:Generated_Source\PSoC4/QuadDec.c ****     #if (QuadDec_CY_TCPWM_4000)
1008:Generated_Source\PSoC4/QuadDec.c ****         currentMode = ((QuadDec_CONTROL_REG & QuadDec_UPDOWN_MASK) >> QuadDec_UPDOWN_SHIFT);
1009:Generated_Source\PSoC4/QuadDec.c **** 
1010:Generated_Source\PSoC4/QuadDec.c ****         regVal = QuadDec_COMP_CAP_BUF_REG;
1011:Generated_Source\PSoC4/QuadDec.c ****         
1012:Generated_Source\PSoC4/QuadDec.c ****         if (((uint32)QuadDec__COUNT_DOWN == currentMode) && (0u != regVal))
1013:Generated_Source\PSoC4/QuadDec.c ****         {
1014:Generated_Source\PSoC4/QuadDec.c ****             regVal--;
1015:Generated_Source\PSoC4/QuadDec.c ****         }
1016:Generated_Source\PSoC4/QuadDec.c ****         else if (((uint32)QuadDec__COUNT_UP == currentMode) && (0xFFFFu != regVal))
1017:Generated_Source\PSoC4/QuadDec.c ****         {
1018:Generated_Source\PSoC4/QuadDec.c ****             regVal++;
1019:Generated_Source\PSoC4/QuadDec.c ****         }
1020:Generated_Source\PSoC4/QuadDec.c ****         else
1021:Generated_Source\PSoC4/QuadDec.c ****         {
1022:Generated_Source\PSoC4/QuadDec.c ****         }
1023:Generated_Source\PSoC4/QuadDec.c **** 
1024:Generated_Source\PSoC4/QuadDec.c ****         return (regVal & QuadDec_16BIT_MASK);
1025:Generated_Source\PSoC4/QuadDec.c ****     #else
1026:Generated_Source\PSoC4/QuadDec.c ****         return (QuadDec_COMP_CAP_BUF_REG & QuadDec_16BIT_MASK);
1027:Generated_Source\PSoC4/QuadDec.c ****     #endif /* (QuadDec_CY_TCPWM_4000) */
1028:Generated_Source\PSoC4/QuadDec.c **** }
1029:Generated_Source\PSoC4/QuadDec.c **** 
1030:Generated_Source\PSoC4/QuadDec.c **** 
ARM GAS  C:\Users\AFDHAL~1\AppData\Local\Temp\ccSYCZD3.s 			page 20


1031:Generated_Source\PSoC4/QuadDec.c **** /*******************************************************************************
1032:Generated_Source\PSoC4/QuadDec.c **** * Function Name: QuadDec_ReadCapture
1033:Generated_Source\PSoC4/QuadDec.c **** ********************************************************************************
1034:Generated_Source\PSoC4/QuadDec.c **** *
1035:Generated_Source\PSoC4/QuadDec.c **** * Summary:
1036:Generated_Source\PSoC4/QuadDec.c **** *  Reads the captured counter value. This API is applicable only for
1037:Generated_Source\PSoC4/QuadDec.c **** *  Timer/Counter with the capture mode and Quadrature Decoder modes.
1038:Generated_Source\PSoC4/QuadDec.c **** *
1039:Generated_Source\PSoC4/QuadDec.c **** * Parameters:
1040:Generated_Source\PSoC4/QuadDec.c **** *  None
1041:Generated_Source\PSoC4/QuadDec.c **** *
1042:Generated_Source\PSoC4/QuadDec.c **** * Return:
1043:Generated_Source\PSoC4/QuadDec.c **** *  Capture value
1044:Generated_Source\PSoC4/QuadDec.c **** *
1045:Generated_Source\PSoC4/QuadDec.c **** *******************************************************************************/
1046:Generated_Source\PSoC4/QuadDec.c **** uint32 QuadDec_ReadCapture(void)
1047:Generated_Source\PSoC4/QuadDec.c **** {
1048:Generated_Source\PSoC4/QuadDec.c ****     return (QuadDec_COMP_CAP_REG & QuadDec_16BIT_MASK);
1049:Generated_Source\PSoC4/QuadDec.c **** }
1050:Generated_Source\PSoC4/QuadDec.c **** 
1051:Generated_Source\PSoC4/QuadDec.c **** 
1052:Generated_Source\PSoC4/QuadDec.c **** /*******************************************************************************
1053:Generated_Source\PSoC4/QuadDec.c **** * Function Name: QuadDec_ReadCaptureBuf
1054:Generated_Source\PSoC4/QuadDec.c **** ********************************************************************************
1055:Generated_Source\PSoC4/QuadDec.c **** *
1056:Generated_Source\PSoC4/QuadDec.c **** * Summary:
1057:Generated_Source\PSoC4/QuadDec.c **** *  Reads the capture buffer register. This API is applicable only for
1058:Generated_Source\PSoC4/QuadDec.c **** *  Timer/Counter with the capture mode and Quadrature Decoder modes.
1059:Generated_Source\PSoC4/QuadDec.c **** *
1060:Generated_Source\PSoC4/QuadDec.c **** * Parameters:
1061:Generated_Source\PSoC4/QuadDec.c **** *  None
1062:Generated_Source\PSoC4/QuadDec.c **** *
1063:Generated_Source\PSoC4/QuadDec.c **** * Return:
1064:Generated_Source\PSoC4/QuadDec.c **** *  Capture buffer value
1065:Generated_Source\PSoC4/QuadDec.c **** *
1066:Generated_Source\PSoC4/QuadDec.c **** *******************************************************************************/
1067:Generated_Source\PSoC4/QuadDec.c **** uint32 QuadDec_ReadCaptureBuf(void)
1068:Generated_Source\PSoC4/QuadDec.c **** {
1069:Generated_Source\PSoC4/QuadDec.c ****     return (QuadDec_COMP_CAP_BUF_REG & QuadDec_16BIT_MASK);
1070:Generated_Source\PSoC4/QuadDec.c **** }
1071:Generated_Source\PSoC4/QuadDec.c **** 
1072:Generated_Source\PSoC4/QuadDec.c **** 
1073:Generated_Source\PSoC4/QuadDec.c **** /*******************************************************************************
1074:Generated_Source\PSoC4/QuadDec.c **** * Function Name: QuadDec_SetCaptureMode
1075:Generated_Source\PSoC4/QuadDec.c **** ********************************************************************************
1076:Generated_Source\PSoC4/QuadDec.c **** *
1077:Generated_Source\PSoC4/QuadDec.c **** * Summary:
1078:Generated_Source\PSoC4/QuadDec.c **** *  Sets the capture trigger mode. For PWM mode this is the switch input.
1079:Generated_Source\PSoC4/QuadDec.c **** *  This input is not applicable to the Timer/Counter without Capture and
1080:Generated_Source\PSoC4/QuadDec.c **** *  Quadrature Decoder modes.
1081:Generated_Source\PSoC4/QuadDec.c **** *
1082:Generated_Source\PSoC4/QuadDec.c **** * Parameters:
1083:Generated_Source\PSoC4/QuadDec.c **** *  triggerMode: Enumerated trigger mode value
1084:Generated_Source\PSoC4/QuadDec.c **** *   Values:
1085:Generated_Source\PSoC4/QuadDec.c **** *     - QuadDec_TRIG_LEVEL     - Level
1086:Generated_Source\PSoC4/QuadDec.c **** *     - QuadDec_TRIG_RISING    - Rising edge
1087:Generated_Source\PSoC4/QuadDec.c **** *     - QuadDec_TRIG_FALLING   - Falling edge
ARM GAS  C:\Users\AFDHAL~1\AppData\Local\Temp\ccSYCZD3.s 			page 21


1088:Generated_Source\PSoC4/QuadDec.c **** *     - QuadDec_TRIG_BOTH      - Both rising and falling edge
1089:Generated_Source\PSoC4/QuadDec.c **** *
1090:Generated_Source\PSoC4/QuadDec.c **** * Return:
1091:Generated_Source\PSoC4/QuadDec.c **** *  None
1092:Generated_Source\PSoC4/QuadDec.c **** *
1093:Generated_Source\PSoC4/QuadDec.c **** *******************************************************************************/
1094:Generated_Source\PSoC4/QuadDec.c **** void QuadDec_SetCaptureMode(uint32 triggerMode)
1095:Generated_Source\PSoC4/QuadDec.c **** {
1096:Generated_Source\PSoC4/QuadDec.c ****     uint8 enableInterrupts;
1097:Generated_Source\PSoC4/QuadDec.c **** 
1098:Generated_Source\PSoC4/QuadDec.c ****     enableInterrupts = CyEnterCriticalSection();
1099:Generated_Source\PSoC4/QuadDec.c **** 
1100:Generated_Source\PSoC4/QuadDec.c ****     QuadDec_TRIG_CONTROL1_REG &= (uint32)~QuadDec_CAPTURE_MASK;
1101:Generated_Source\PSoC4/QuadDec.c ****     QuadDec_TRIG_CONTROL1_REG |= triggerMode;
1102:Generated_Source\PSoC4/QuadDec.c **** 
1103:Generated_Source\PSoC4/QuadDec.c ****     CyExitCriticalSection(enableInterrupts);
1104:Generated_Source\PSoC4/QuadDec.c **** }
1105:Generated_Source\PSoC4/QuadDec.c **** 
1106:Generated_Source\PSoC4/QuadDec.c **** 
1107:Generated_Source\PSoC4/QuadDec.c **** /*******************************************************************************
1108:Generated_Source\PSoC4/QuadDec.c **** * Function Name: QuadDec_SetReloadMode
1109:Generated_Source\PSoC4/QuadDec.c **** ********************************************************************************
1110:Generated_Source\PSoC4/QuadDec.c **** *
1111:Generated_Source\PSoC4/QuadDec.c **** * Summary:
1112:Generated_Source\PSoC4/QuadDec.c **** *  Sets the reload trigger mode. For Quadrature Decoder mode this is the index
1113:Generated_Source\PSoC4/QuadDec.c **** *  input.
1114:Generated_Source\PSoC4/QuadDec.c **** *
1115:Generated_Source\PSoC4/QuadDec.c **** * Parameters:
1116:Generated_Source\PSoC4/QuadDec.c **** *  triggerMode: Enumerated trigger mode value
1117:Generated_Source\PSoC4/QuadDec.c **** *   Values:
1118:Generated_Source\PSoC4/QuadDec.c **** *     - QuadDec_TRIG_LEVEL     - Level
1119:Generated_Source\PSoC4/QuadDec.c **** *     - QuadDec_TRIG_RISING    - Rising edge
1120:Generated_Source\PSoC4/QuadDec.c **** *     - QuadDec_TRIG_FALLING   - Falling edge
1121:Generated_Source\PSoC4/QuadDec.c **** *     - QuadDec_TRIG_BOTH      - Both rising and falling edge
1122:Generated_Source\PSoC4/QuadDec.c **** *
1123:Generated_Source\PSoC4/QuadDec.c **** * Return:
1124:Generated_Source\PSoC4/QuadDec.c **** *  None
1125:Generated_Source\PSoC4/QuadDec.c **** *
1126:Generated_Source\PSoC4/QuadDec.c **** *******************************************************************************/
1127:Generated_Source\PSoC4/QuadDec.c **** void QuadDec_SetReloadMode(uint32 triggerMode)
1128:Generated_Source\PSoC4/QuadDec.c **** {
1129:Generated_Source\PSoC4/QuadDec.c ****     uint8 enableInterrupts;
1130:Generated_Source\PSoC4/QuadDec.c **** 
1131:Generated_Source\PSoC4/QuadDec.c ****     enableInterrupts = CyEnterCriticalSection();
1132:Generated_Source\PSoC4/QuadDec.c **** 
1133:Generated_Source\PSoC4/QuadDec.c ****     QuadDec_TRIG_CONTROL1_REG &= (uint32)~QuadDec_RELOAD_MASK;
1134:Generated_Source\PSoC4/QuadDec.c ****     QuadDec_TRIG_CONTROL1_REG |= ((uint32)(triggerMode << QuadDec_RELOAD_SHIFT));
1135:Generated_Source\PSoC4/QuadDec.c **** 
1136:Generated_Source\PSoC4/QuadDec.c ****     CyExitCriticalSection(enableInterrupts);
1137:Generated_Source\PSoC4/QuadDec.c **** }
1138:Generated_Source\PSoC4/QuadDec.c **** 
1139:Generated_Source\PSoC4/QuadDec.c **** 
1140:Generated_Source\PSoC4/QuadDec.c **** /*******************************************************************************
1141:Generated_Source\PSoC4/QuadDec.c **** * Function Name: QuadDec_SetStartMode
1142:Generated_Source\PSoC4/QuadDec.c **** ********************************************************************************
1143:Generated_Source\PSoC4/QuadDec.c **** *
1144:Generated_Source\PSoC4/QuadDec.c **** * Summary:
ARM GAS  C:\Users\AFDHAL~1\AppData\Local\Temp\ccSYCZD3.s 			page 22


1145:Generated_Source\PSoC4/QuadDec.c **** *  Sets the start trigger mode. For Quadrature Decoder mode this is the
1146:Generated_Source\PSoC4/QuadDec.c **** *  phiB input.
1147:Generated_Source\PSoC4/QuadDec.c **** *
1148:Generated_Source\PSoC4/QuadDec.c **** * Parameters:
1149:Generated_Source\PSoC4/QuadDec.c **** *  triggerMode: Enumerated trigger mode value
1150:Generated_Source\PSoC4/QuadDec.c **** *   Values:
1151:Generated_Source\PSoC4/QuadDec.c **** *     - QuadDec_TRIG_LEVEL     - Level
1152:Generated_Source\PSoC4/QuadDec.c **** *     - QuadDec_TRIG_RISING    - Rising edge
1153:Generated_Source\PSoC4/QuadDec.c **** *     - QuadDec_TRIG_FALLING   - Falling edge
1154:Generated_Source\PSoC4/QuadDec.c **** *     - QuadDec_TRIG_BOTH      - Both rising and falling edge
1155:Generated_Source\PSoC4/QuadDec.c **** *
1156:Generated_Source\PSoC4/QuadDec.c **** * Return:
1157:Generated_Source\PSoC4/QuadDec.c **** *  None
1158:Generated_Source\PSoC4/QuadDec.c **** *
1159:Generated_Source\PSoC4/QuadDec.c **** *******************************************************************************/
1160:Generated_Source\PSoC4/QuadDec.c **** void QuadDec_SetStartMode(uint32 triggerMode)
1161:Generated_Source\PSoC4/QuadDec.c **** {
1162:Generated_Source\PSoC4/QuadDec.c ****     uint8 enableInterrupts;
1163:Generated_Source\PSoC4/QuadDec.c **** 
1164:Generated_Source\PSoC4/QuadDec.c ****     enableInterrupts = CyEnterCriticalSection();
1165:Generated_Source\PSoC4/QuadDec.c **** 
1166:Generated_Source\PSoC4/QuadDec.c ****     QuadDec_TRIG_CONTROL1_REG &= (uint32)~QuadDec_START_MASK;
1167:Generated_Source\PSoC4/QuadDec.c ****     QuadDec_TRIG_CONTROL1_REG |= ((uint32)(triggerMode << QuadDec_START_SHIFT));
1168:Generated_Source\PSoC4/QuadDec.c **** 
1169:Generated_Source\PSoC4/QuadDec.c ****     CyExitCriticalSection(enableInterrupts);
1170:Generated_Source\PSoC4/QuadDec.c **** }
1171:Generated_Source\PSoC4/QuadDec.c **** 
1172:Generated_Source\PSoC4/QuadDec.c **** 
1173:Generated_Source\PSoC4/QuadDec.c **** /*******************************************************************************
1174:Generated_Source\PSoC4/QuadDec.c **** * Function Name: QuadDec_SetStopMode
1175:Generated_Source\PSoC4/QuadDec.c **** ********************************************************************************
1176:Generated_Source\PSoC4/QuadDec.c **** *
1177:Generated_Source\PSoC4/QuadDec.c **** * Summary:
1178:Generated_Source\PSoC4/QuadDec.c **** *  Sets the stop trigger mode. For PWM mode this is the kill input.
1179:Generated_Source\PSoC4/QuadDec.c **** *
1180:Generated_Source\PSoC4/QuadDec.c **** * Parameters:
1181:Generated_Source\PSoC4/QuadDec.c **** *  triggerMode: Enumerated trigger mode value
1182:Generated_Source\PSoC4/QuadDec.c **** *   Values:
1183:Generated_Source\PSoC4/QuadDec.c **** *     - QuadDec_TRIG_LEVEL     - Level
1184:Generated_Source\PSoC4/QuadDec.c **** *     - QuadDec_TRIG_RISING    - Rising edge
1185:Generated_Source\PSoC4/QuadDec.c **** *     - QuadDec_TRIG_FALLING   - Falling edge
1186:Generated_Source\PSoC4/QuadDec.c **** *     - QuadDec_TRIG_BOTH      - Both rising and falling edge
1187:Generated_Source\PSoC4/QuadDec.c **** *
1188:Generated_Source\PSoC4/QuadDec.c **** * Return:
1189:Generated_Source\PSoC4/QuadDec.c **** *  None
1190:Generated_Source\PSoC4/QuadDec.c **** *
1191:Generated_Source\PSoC4/QuadDec.c **** *******************************************************************************/
1192:Generated_Source\PSoC4/QuadDec.c **** void QuadDec_SetStopMode(uint32 triggerMode)
1193:Generated_Source\PSoC4/QuadDec.c **** {
1194:Generated_Source\PSoC4/QuadDec.c ****     uint8 enableInterrupts;
1195:Generated_Source\PSoC4/QuadDec.c **** 
1196:Generated_Source\PSoC4/QuadDec.c ****     enableInterrupts = CyEnterCriticalSection();
1197:Generated_Source\PSoC4/QuadDec.c **** 
1198:Generated_Source\PSoC4/QuadDec.c ****     QuadDec_TRIG_CONTROL1_REG &= (uint32)~QuadDec_STOP_MASK;
1199:Generated_Source\PSoC4/QuadDec.c ****     QuadDec_TRIG_CONTROL1_REG |= ((uint32)(triggerMode << QuadDec_STOP_SHIFT));
1200:Generated_Source\PSoC4/QuadDec.c **** 
1201:Generated_Source\PSoC4/QuadDec.c ****     CyExitCriticalSection(enableInterrupts);
ARM GAS  C:\Users\AFDHAL~1\AppData\Local\Temp\ccSYCZD3.s 			page 23


1202:Generated_Source\PSoC4/QuadDec.c **** }
1203:Generated_Source\PSoC4/QuadDec.c **** 
1204:Generated_Source\PSoC4/QuadDec.c **** 
1205:Generated_Source\PSoC4/QuadDec.c **** /*******************************************************************************
1206:Generated_Source\PSoC4/QuadDec.c **** * Function Name: QuadDec_SetCountMode
1207:Generated_Source\PSoC4/QuadDec.c **** ********************************************************************************
1208:Generated_Source\PSoC4/QuadDec.c **** *
1209:Generated_Source\PSoC4/QuadDec.c **** * Summary:
1210:Generated_Source\PSoC4/QuadDec.c **** *  Sets the count trigger mode. For Quadrature Decoder mode this is the phiA
1211:Generated_Source\PSoC4/QuadDec.c **** *  input.
1212:Generated_Source\PSoC4/QuadDec.c **** *
1213:Generated_Source\PSoC4/QuadDec.c **** * Parameters:
1214:Generated_Source\PSoC4/QuadDec.c **** *  triggerMode: Enumerated trigger mode value
1215:Generated_Source\PSoC4/QuadDec.c **** *   Values:
1216:Generated_Source\PSoC4/QuadDec.c **** *     - QuadDec_TRIG_LEVEL     - Level
1217:Generated_Source\PSoC4/QuadDec.c **** *     - QuadDec_TRIG_RISING    - Rising edge
1218:Generated_Source\PSoC4/QuadDec.c **** *     - QuadDec_TRIG_FALLING   - Falling edge
1219:Generated_Source\PSoC4/QuadDec.c **** *     - QuadDec_TRIG_BOTH      - Both rising and falling edge
1220:Generated_Source\PSoC4/QuadDec.c **** *
1221:Generated_Source\PSoC4/QuadDec.c **** * Return:
1222:Generated_Source\PSoC4/QuadDec.c **** *  None
1223:Generated_Source\PSoC4/QuadDec.c **** *
1224:Generated_Source\PSoC4/QuadDec.c **** *******************************************************************************/
1225:Generated_Source\PSoC4/QuadDec.c **** void QuadDec_SetCountMode(uint32 triggerMode)
1226:Generated_Source\PSoC4/QuadDec.c **** {
1227:Generated_Source\PSoC4/QuadDec.c ****     uint8 enableInterrupts;
1228:Generated_Source\PSoC4/QuadDec.c **** 
1229:Generated_Source\PSoC4/QuadDec.c ****     enableInterrupts = CyEnterCriticalSection();
1230:Generated_Source\PSoC4/QuadDec.c **** 
1231:Generated_Source\PSoC4/QuadDec.c ****     QuadDec_TRIG_CONTROL1_REG &= (uint32)~QuadDec_COUNT_MASK;
1232:Generated_Source\PSoC4/QuadDec.c ****     QuadDec_TRIG_CONTROL1_REG |= ((uint32)(triggerMode << QuadDec_COUNT_SHIFT));
1233:Generated_Source\PSoC4/QuadDec.c **** 
1234:Generated_Source\PSoC4/QuadDec.c ****     CyExitCriticalSection(enableInterrupts);
1235:Generated_Source\PSoC4/QuadDec.c **** }
1236:Generated_Source\PSoC4/QuadDec.c **** 
1237:Generated_Source\PSoC4/QuadDec.c **** 
1238:Generated_Source\PSoC4/QuadDec.c **** /*******************************************************************************
1239:Generated_Source\PSoC4/QuadDec.c **** * Function Name: QuadDec_TriggerCommand
1240:Generated_Source\PSoC4/QuadDec.c **** ********************************************************************************
1241:Generated_Source\PSoC4/QuadDec.c **** *
1242:Generated_Source\PSoC4/QuadDec.c **** * Summary:
1243:Generated_Source\PSoC4/QuadDec.c **** *  Triggers the designated command to occur on the designated TCPWM instances.
1244:Generated_Source\PSoC4/QuadDec.c **** *  The mask can be used to apply this command simultaneously to more than one
1245:Generated_Source\PSoC4/QuadDec.c **** *  instance.  This allows multiple TCPWM instances to be synchronized.
1246:Generated_Source\PSoC4/QuadDec.c **** *
1247:Generated_Source\PSoC4/QuadDec.c **** * Parameters:
1248:Generated_Source\PSoC4/QuadDec.c **** *  mask: A combination of mask bits for each instance of the TCPWM that the
1249:Generated_Source\PSoC4/QuadDec.c **** *        command should apply to.  This function from one instance can be used
1250:Generated_Source\PSoC4/QuadDec.c **** *        to apply the command to any of the instances in the design.
1251:Generated_Source\PSoC4/QuadDec.c **** *        The mask value for a specific instance is available with the MASK
1252:Generated_Source\PSoC4/QuadDec.c **** *        define.
1253:Generated_Source\PSoC4/QuadDec.c **** *  command: Enumerated command values. Capture command only applicable for
1254:Generated_Source\PSoC4/QuadDec.c **** *           Timer/Counter with Capture and PWM modes.
1255:Generated_Source\PSoC4/QuadDec.c **** *   Values:
1256:Generated_Source\PSoC4/QuadDec.c **** *     - QuadDec_CMD_CAPTURE    - Trigger Capture/Switch command
1257:Generated_Source\PSoC4/QuadDec.c **** *     - QuadDec_CMD_RELOAD     - Trigger Reload/Index command
1258:Generated_Source\PSoC4/QuadDec.c **** *     - QuadDec_CMD_STOP       - Trigger Stop/Kill command
ARM GAS  C:\Users\AFDHAL~1\AppData\Local\Temp\ccSYCZD3.s 			page 24


1259:Generated_Source\PSoC4/QuadDec.c **** *     - QuadDec_CMD_START      - Trigger Start/phiB command
1260:Generated_Source\PSoC4/QuadDec.c **** *
1261:Generated_Source\PSoC4/QuadDec.c **** * Return:
1262:Generated_Source\PSoC4/QuadDec.c **** *  None
1263:Generated_Source\PSoC4/QuadDec.c **** *
1264:Generated_Source\PSoC4/QuadDec.c **** *******************************************************************************/
1265:Generated_Source\PSoC4/QuadDec.c **** void QuadDec_TriggerCommand(uint32 mask, uint32 command)
1266:Generated_Source\PSoC4/QuadDec.c **** {
1267:Generated_Source\PSoC4/QuadDec.c ****     uint8 enableInterrupts;
1268:Generated_Source\PSoC4/QuadDec.c **** 
1269:Generated_Source\PSoC4/QuadDec.c ****     enableInterrupts = CyEnterCriticalSection();
1270:Generated_Source\PSoC4/QuadDec.c **** 
1271:Generated_Source\PSoC4/QuadDec.c ****     QuadDec_COMMAND_REG = ((uint32)(mask << command));
1272:Generated_Source\PSoC4/QuadDec.c **** 
1273:Generated_Source\PSoC4/QuadDec.c ****     CyExitCriticalSection(enableInterrupts);
1274:Generated_Source\PSoC4/QuadDec.c **** }
1275:Generated_Source\PSoC4/QuadDec.c **** 
1276:Generated_Source\PSoC4/QuadDec.c **** 
1277:Generated_Source\PSoC4/QuadDec.c **** /*******************************************************************************
1278:Generated_Source\PSoC4/QuadDec.c **** * Function Name: QuadDec_ReadStatus
1279:Generated_Source\PSoC4/QuadDec.c **** ********************************************************************************
1280:Generated_Source\PSoC4/QuadDec.c **** *
1281:Generated_Source\PSoC4/QuadDec.c **** * Summary:
1282:Generated_Source\PSoC4/QuadDec.c **** *  Reads the status of the QuadDec.
1283:Generated_Source\PSoC4/QuadDec.c **** *
1284:Generated_Source\PSoC4/QuadDec.c **** * Parameters:
1285:Generated_Source\PSoC4/QuadDec.c **** *  None
1286:Generated_Source\PSoC4/QuadDec.c **** *
1287:Generated_Source\PSoC4/QuadDec.c **** * Return:
1288:Generated_Source\PSoC4/QuadDec.c **** *  Status
1289:Generated_Source\PSoC4/QuadDec.c **** *   Values:
1290:Generated_Source\PSoC4/QuadDec.c **** *     - QuadDec_STATUS_DOWN    - Set if counting down
1291:Generated_Source\PSoC4/QuadDec.c **** *     - QuadDec_STATUS_RUNNING - Set if counter is running
1292:Generated_Source\PSoC4/QuadDec.c **** *
1293:Generated_Source\PSoC4/QuadDec.c **** *******************************************************************************/
1294:Generated_Source\PSoC4/QuadDec.c **** uint32 QuadDec_ReadStatus(void)
1295:Generated_Source\PSoC4/QuadDec.c **** {
1296:Generated_Source\PSoC4/QuadDec.c ****     return ((QuadDec_STATUS_REG >> QuadDec_RUNNING_STATUS_SHIFT) |
1297:Generated_Source\PSoC4/QuadDec.c ****             (QuadDec_STATUS_REG & QuadDec_STATUS_DOWN));
1298:Generated_Source\PSoC4/QuadDec.c **** }
1299:Generated_Source\PSoC4/QuadDec.c **** 
1300:Generated_Source\PSoC4/QuadDec.c **** 
1301:Generated_Source\PSoC4/QuadDec.c **** /*******************************************************************************
1302:Generated_Source\PSoC4/QuadDec.c **** * Function Name: QuadDec_SetInterruptMode
1303:Generated_Source\PSoC4/QuadDec.c **** ********************************************************************************
1304:Generated_Source\PSoC4/QuadDec.c **** *
1305:Generated_Source\PSoC4/QuadDec.c **** * Summary:
1306:Generated_Source\PSoC4/QuadDec.c **** *  Sets the interrupt mask to control which interrupt
1307:Generated_Source\PSoC4/QuadDec.c **** *  requests generate the interrupt signal.
1308:Generated_Source\PSoC4/QuadDec.c **** *
1309:Generated_Source\PSoC4/QuadDec.c **** * Parameters:
1310:Generated_Source\PSoC4/QuadDec.c **** *   interruptMask: Mask of bits to be enabled
1311:Generated_Source\PSoC4/QuadDec.c **** *   Values:
1312:Generated_Source\PSoC4/QuadDec.c **** *     - QuadDec_INTR_MASK_TC       - Terminal count mask
1313:Generated_Source\PSoC4/QuadDec.c **** *     - QuadDec_INTR_MASK_CC_MATCH - Compare count / capture mask
1314:Generated_Source\PSoC4/QuadDec.c **** *
1315:Generated_Source\PSoC4/QuadDec.c **** * Return:
ARM GAS  C:\Users\AFDHAL~1\AppData\Local\Temp\ccSYCZD3.s 			page 25


1316:Generated_Source\PSoC4/QuadDec.c **** *  None
1317:Generated_Source\PSoC4/QuadDec.c **** *
1318:Generated_Source\PSoC4/QuadDec.c **** *******************************************************************************/
1319:Generated_Source\PSoC4/QuadDec.c **** void QuadDec_SetInterruptMode(uint32 interruptMask)
1320:Generated_Source\PSoC4/QuadDec.c **** {
1321:Generated_Source\PSoC4/QuadDec.c ****     QuadDec_INTERRUPT_MASK_REG =  interruptMask;
  52              		.loc 1 1321 0
  53 0012 0022     		movs	r2, #0
  54 0014 0C4B     		ldr	r3, .L2+8
  55              	.LBE27:
  56              	.LBE26:
 160:Generated_Source\PSoC4/QuadDec.c **** 
  57              		.loc 1 160 0
  58              		@ sp needed
  59              	.LBB29:
  60              	.LBB28:
  61              		.loc 1 1321 0
  62 0016 1A60     		str	r2, [r3]
  63              	.LVL1:
  64              	.LBE28:
  65              	.LBE29:
  66              	.LBB30:
  67              	.LBB31:
 668:Generated_Source\PSoC4/QuadDec.c **** 
  68              		.loc 1 668 0
  69 0018 FFF7FEFF 		bl	CyEnterCriticalSection
  70              	.LVL2:
 670:Generated_Source\PSoC4/QuadDec.c ****     QuadDec_CONTROL_REG |= counterMode;
  71              		.loc 1 670 0
  72 001c 2268     		ldr	r2, [r4]
  73 001e 0B4B     		ldr	r3, .L2+12
  74 0020 1340     		ands	r3, r2
 671:Generated_Source\PSoC4/QuadDec.c **** 
  75              		.loc 1 671 0
  76 0022 8022     		movs	r2, #128
 670:Generated_Source\PSoC4/QuadDec.c ****     QuadDec_CONTROL_REG |= counterMode;
  77              		.loc 1 670 0
  78 0024 2360     		str	r3, [r4]
 671:Generated_Source\PSoC4/QuadDec.c **** 
  79              		.loc 1 671 0
  80 0026 2368     		ldr	r3, [r4]
  81 0028 5202     		lsls	r2, r2, #9
  82 002a 1343     		orrs	r3, r2
  83 002c 2360     		str	r3, [r4]
 673:Generated_Source\PSoC4/QuadDec.c **** }
  84              		.loc 1 673 0
  85 002e FFF7FEFF 		bl	CyExitCriticalSection
  86              	.LVL3:
  87              	.LBE31:
  88              	.LBE30:
  89              	.LBB32:
  90              	.LBB33:
 695:Generated_Source\PSoC4/QuadDec.c **** }
  91              		.loc 1 695 0
  92 0032 8023     		movs	r3, #128
  93 0034 064A     		ldr	r2, .L2+16
  94 0036 1B02     		lsls	r3, r3, #8
ARM GAS  C:\Users\AFDHAL~1\AppData\Local\Temp\ccSYCZD3.s 			page 26


  95 0038 1360     		str	r3, [r2]
  96              	.LVL4:
  97              	.LBE33:
  98              	.LBE32:
  99              	.LBB34:
 100              	.LBB35:
 617:Generated_Source\PSoC4/QuadDec.c **** }
 101              		.loc 1 617 0
 102 003a 064A     		ldr	r2, .L2+20
 103 003c 1360     		str	r3, [r2]
 104              	.LVL5:
 105              	.LBE35:
 106              	.LBE34:
 160:Generated_Source\PSoC4/QuadDec.c **** 
 107              		.loc 1 160 0
 108 003e 10BD     		pop	{r4, pc}
 109              	.L3:
 110              		.align	2
 111              	.L2:
 112 0040 40012040 		.word	1075839296
 113 0044 64012040 		.word	1075839332
 114 0048 78012040 		.word	1075839352
 115 004c FFFFFCFF 		.word	-196609
 116 0050 54012040 		.word	1075839316
 117 0054 48012040 		.word	1075839304
 118              		.cfi_endproc
 119              	.LFE1:
 120              		.size	QuadDec_Init, .-QuadDec_Init
 121              		.section	.text.QuadDec_Enable,"ax",%progbits
 122              		.align	2
 123              		.global	QuadDec_Enable
 124              		.code	16
 125              		.thumb_func
 126              		.type	QuadDec_Enable, %function
 127              	QuadDec_Enable:
 128              	.LFB2:
 178:Generated_Source\PSoC4/QuadDec.c ****     uint8 enableInterrupts;
 129              		.loc 1 178 0
 130              		.cfi_startproc
 131              		@ args = 0, pretend = 0, frame = 0
 132              		@ frame_needed = 0, uses_anonymous_args = 0
 133 0000 10B5     		push	{r4, lr}
 134              		.cfi_def_cfa_offset 8
 135              		.cfi_offset 4, -8
 136              		.cfi_offset 14, -4
 181:Generated_Source\PSoC4/QuadDec.c ****     QuadDec_BLOCK_CONTROL_REG |= QuadDec_MASK;
 137              		.loc 1 181 0
 138 0002 FFF7FEFF 		bl	CyEnterCriticalSection
 139              	.LVL6:
 182:Generated_Source\PSoC4/QuadDec.c ****     CyExitCriticalSection(enableInterrupts);
 140              		.loc 1 182 0
 141 0006 0223     		movs	r3, #2
 142 0008 074A     		ldr	r2, .L5
 203:Generated_Source\PSoC4/QuadDec.c **** 
 143              		.loc 1 203 0
 144              		@ sp needed
 182:Generated_Source\PSoC4/QuadDec.c ****     CyExitCriticalSection(enableInterrupts);
ARM GAS  C:\Users\AFDHAL~1\AppData\Local\Temp\ccSYCZD3.s 			page 27


 145              		.loc 1 182 0
 146 000a 1168     		ldr	r1, [r2]
 147 000c 0B43     		orrs	r3, r1
 148 000e 1360     		str	r3, [r2]
 183:Generated_Source\PSoC4/QuadDec.c **** 
 149              		.loc 1 183 0
 150 0010 FFF7FEFF 		bl	CyExitCriticalSection
 151              	.LVL7:
 152              	.LBB38:
 153              	.LBB39:
1269:Generated_Source\PSoC4/QuadDec.c **** 
 154              		.loc 1 1269 0
 155 0014 FFF7FEFF 		bl	CyEnterCriticalSection
 156              	.LVL8:
1271:Generated_Source\PSoC4/QuadDec.c **** 
 157              		.loc 1 1271 0
 158 0018 8022     		movs	r2, #128
 159 001a 044B     		ldr	r3, .L5+4
 160 001c 9200     		lsls	r2, r2, #2
 161 001e 1A60     		str	r2, [r3]
1273:Generated_Source\PSoC4/QuadDec.c **** }
 162              		.loc 1 1273 0
 163 0020 FFF7FEFF 		bl	CyExitCriticalSection
 164              	.LVL9:
 165              	.LBE39:
 166              	.LBE38:
 203:Generated_Source\PSoC4/QuadDec.c **** 
 167              		.loc 1 203 0
 168 0024 10BD     		pop	{r4, pc}
 169              	.L6:
 170 0026 C046     		.align	2
 171              	.L5:
 172 0028 00002040 		.word	1075838976
 173 002c 08002040 		.word	1075838984
 174              		.cfi_endproc
 175              	.LFE2:
 176              		.size	QuadDec_Enable, .-QuadDec_Enable
 177              		.section	.text.QuadDec_Start,"ax",%progbits
 178              		.align	2
 179              		.global	QuadDec_Start
 180              		.code	16
 181              		.thumb_func
 182              		.type	QuadDec_Start, %function
 183              	QuadDec_Start:
 184              	.LFB3:
 231:Generated_Source\PSoC4/QuadDec.c ****     if (0u == QuadDec_initVar)
 185              		.loc 1 231 0
 186              		.cfi_startproc
 187              		@ args = 0, pretend = 0, frame = 0
 188              		@ frame_needed = 0, uses_anonymous_args = 0
 189 0000 70B5     		push	{r4, r5, r6, lr}
 190              		.cfi_def_cfa_offset 16
 191              		.cfi_offset 4, -16
 192              		.cfi_offset 5, -12
 193              		.cfi_offset 6, -8
 194              		.cfi_offset 14, -4
 232:Generated_Source\PSoC4/QuadDec.c ****     {
ARM GAS  C:\Users\AFDHAL~1\AppData\Local\Temp\ccSYCZD3.s 			page 28


 195              		.loc 1 232 0
 196 0002 1A4C     		ldr	r4, .L10
 197 0004 2378     		ldrb	r3, [r4]
 198 0006 002B     		cmp	r3, #0
 199 0008 1ED1     		bne	.L8
 200              	.LBB54:
 201              	.LBB55:
  43:Generated_Source\PSoC4/QuadDec.c ****         
 202              		.loc 1 43 0
 203 000a C822     		movs	r2, #200
  46:Generated_Source\PSoC4/QuadDec.c **** 
 204              		.loc 1 46 0
 205 000c C321     		movs	r1, #195
  43:Generated_Source\PSoC4/QuadDec.c ****         
 206              		.loc 1 43 0
 207 000e 184D     		ldr	r5, .L10+4
 208 0010 9204     		lsls	r2, r2, #18
 209 0012 2A60     		str	r2, [r5]
  46:Generated_Source\PSoC4/QuadDec.c **** 
 210              		.loc 1 46 0
 211 0014 174A     		ldr	r2, .L10+8
 212 0016 8900     		lsls	r1, r1, #2
 213 0018 1160     		str	r1, [r2]
 214              	.LVL10:
 215              	.LBB56:
 216              	.LBB57:
 217              		.loc 1 1321 0
 218 001a 174A     		ldr	r2, .L10+12
 219 001c 1360     		str	r3, [r2]
 220              	.LVL11:
 221              	.LBE57:
 222              	.LBE56:
 223              	.LBB58:
 224              	.LBB59:
 668:Generated_Source\PSoC4/QuadDec.c **** 
 225              		.loc 1 668 0
 226 001e FFF7FEFF 		bl	CyEnterCriticalSection
 227              	.LVL12:
 670:Generated_Source\PSoC4/QuadDec.c ****     QuadDec_CONTROL_REG |= counterMode;
 228              		.loc 1 670 0
 229 0022 2A68     		ldr	r2, [r5]
 230 0024 154B     		ldr	r3, .L10+16
 231 0026 1340     		ands	r3, r2
 671:Generated_Source\PSoC4/QuadDec.c **** 
 232              		.loc 1 671 0
 233 0028 8022     		movs	r2, #128
 670:Generated_Source\PSoC4/QuadDec.c ****     QuadDec_CONTROL_REG |= counterMode;
 234              		.loc 1 670 0
 235 002a 2B60     		str	r3, [r5]
 671:Generated_Source\PSoC4/QuadDec.c **** 
 236              		.loc 1 671 0
 237 002c 2B68     		ldr	r3, [r5]
 238 002e 5202     		lsls	r2, r2, #9
 239 0030 1343     		orrs	r3, r2
 240 0032 2B60     		str	r3, [r5]
 673:Generated_Source\PSoC4/QuadDec.c **** }
 241              		.loc 1 673 0
ARM GAS  C:\Users\AFDHAL~1\AppData\Local\Temp\ccSYCZD3.s 			page 29


 242 0034 FFF7FEFF 		bl	CyExitCriticalSection
 243              	.LVL13:
 244              	.LBE59:
 245              	.LBE58:
 246              	.LBB60:
 247              	.LBB61:
 695:Generated_Source\PSoC4/QuadDec.c **** }
 248              		.loc 1 695 0
 249 0038 8023     		movs	r3, #128
 250 003a 114A     		ldr	r2, .L10+20
 251 003c 1B02     		lsls	r3, r3, #8
 252 003e 1360     		str	r3, [r2]
 253              	.LVL14:
 254              	.LBE61:
 255              	.LBE60:
 256              	.LBB62:
 257              	.LBB63:
 617:Generated_Source\PSoC4/QuadDec.c **** }
 258              		.loc 1 617 0
 259 0040 104A     		ldr	r2, .L10+24
 260 0042 1360     		str	r3, [r2]
 261              	.LVL15:
 262              	.LBE63:
 263              	.LBE62:
 264              	.LBE55:
 265              	.LBE54:
 235:Generated_Source\PSoC4/QuadDec.c ****     }
 266              		.loc 1 235 0
 267 0044 0123     		movs	r3, #1
 268 0046 2370     		strb	r3, [r4]
 269              	.L8:
 270              	.LBB64:
 271              	.LBB65:
 181:Generated_Source\PSoC4/QuadDec.c ****     QuadDec_BLOCK_CONTROL_REG |= QuadDec_MASK;
 272              		.loc 1 181 0
 273 0048 FFF7FEFF 		bl	CyEnterCriticalSection
 274              	.LVL16:
 182:Generated_Source\PSoC4/QuadDec.c ****     CyExitCriticalSection(enableInterrupts);
 275              		.loc 1 182 0
 276 004c 0223     		movs	r3, #2
 277 004e 0E4A     		ldr	r2, .L10+28
 278              	.LBE65:
 279              	.LBE64:
 239:Generated_Source\PSoC4/QuadDec.c **** 
 280              		.loc 1 239 0
 281              		@ sp needed
 282              	.LBB69:
 283              	.LBB68:
 182:Generated_Source\PSoC4/QuadDec.c ****     CyExitCriticalSection(enableInterrupts);
 284              		.loc 1 182 0
 285 0050 1168     		ldr	r1, [r2]
 286 0052 0B43     		orrs	r3, r1
 287 0054 1360     		str	r3, [r2]
 183:Generated_Source\PSoC4/QuadDec.c **** 
 288              		.loc 1 183 0
 289 0056 FFF7FEFF 		bl	CyExitCriticalSection
 290              	.LVL17:
ARM GAS  C:\Users\AFDHAL~1\AppData\Local\Temp\ccSYCZD3.s 			page 30


 291              	.LBB66:
 292              	.LBB67:
1269:Generated_Source\PSoC4/QuadDec.c **** 
 293              		.loc 1 1269 0
 294 005a FFF7FEFF 		bl	CyEnterCriticalSection
 295              	.LVL18:
1271:Generated_Source\PSoC4/QuadDec.c **** 
 296              		.loc 1 1271 0
 297 005e 8022     		movs	r2, #128
 298 0060 0A4B     		ldr	r3, .L10+32
 299 0062 9200     		lsls	r2, r2, #2
 300 0064 1A60     		str	r2, [r3]
1273:Generated_Source\PSoC4/QuadDec.c **** }
 301              		.loc 1 1273 0
 302 0066 FFF7FEFF 		bl	CyExitCriticalSection
 303              	.LVL19:
 304              	.LBE67:
 305              	.LBE66:
 306              	.LBE68:
 307              	.LBE69:
 239:Generated_Source\PSoC4/QuadDec.c **** 
 308              		.loc 1 239 0
 309 006a 70BD     		pop	{r4, r5, r6, pc}
 310              	.L11:
 311              		.align	2
 312              	.L10:
 313 006c 00000000 		.word	.LANCHOR0
 314 0070 40012040 		.word	1075839296
 315 0074 64012040 		.word	1075839332
 316 0078 78012040 		.word	1075839352
 317 007c FFFFFCFF 		.word	-196609
 318 0080 54012040 		.word	1075839316
 319 0084 48012040 		.word	1075839304
 320 0088 00002040 		.word	1075838976
 321 008c 08002040 		.word	1075838984
 322              		.cfi_endproc
 323              	.LFE3:
 324              		.size	QuadDec_Start, .-QuadDec_Start
 325              		.section	.text.QuadDec_Stop,"ax",%progbits
 326              		.align	2
 327              		.global	QuadDec_Stop
 328              		.code	16
 329              		.thumb_func
 330              		.type	QuadDec_Stop, %function
 331              	QuadDec_Stop:
 332              	.LFB4:
 257:Generated_Source\PSoC4/QuadDec.c ****     uint8 enableInterrupts;
 333              		.loc 1 257 0
 334              		.cfi_startproc
 335              		@ args = 0, pretend = 0, frame = 0
 336              		@ frame_needed = 0, uses_anonymous_args = 0
 337 0000 10B5     		push	{r4, lr}
 338              		.cfi_def_cfa_offset 8
 339              		.cfi_offset 4, -8
 340              		.cfi_offset 14, -4
 260:Generated_Source\PSoC4/QuadDec.c **** 
 341              		.loc 1 260 0
ARM GAS  C:\Users\AFDHAL~1\AppData\Local\Temp\ccSYCZD3.s 			page 31


 342 0002 FFF7FEFF 		bl	CyEnterCriticalSection
 343              	.LVL20:
 262:Generated_Source\PSoC4/QuadDec.c **** 
 344              		.loc 1 262 0
 345 0006 0221     		movs	r1, #2
 346 0008 034A     		ldr	r2, .L13
 265:Generated_Source\PSoC4/QuadDec.c **** 
 347              		.loc 1 265 0
 348              		@ sp needed
 262:Generated_Source\PSoC4/QuadDec.c **** 
 349              		.loc 1 262 0
 350 000a 1368     		ldr	r3, [r2]
 351 000c 8B43     		bics	r3, r1
 352 000e 1360     		str	r3, [r2]
 264:Generated_Source\PSoC4/QuadDec.c **** }
 353              		.loc 1 264 0
 354 0010 FFF7FEFF 		bl	CyExitCriticalSection
 355              	.LVL21:
 265:Generated_Source\PSoC4/QuadDec.c **** 
 356              		.loc 1 265 0
 357 0014 10BD     		pop	{r4, pc}
 358              	.L14:
 359 0016 C046     		.align	2
 360              	.L13:
 361 0018 00002040 		.word	1075838976
 362              		.cfi_endproc
 363              	.LFE4:
 364              		.size	QuadDec_Stop, .-QuadDec_Stop
 365              		.section	.text.QuadDec_SetMode,"ax",%progbits
 366              		.align	2
 367              		.global	QuadDec_SetMode
 368              		.code	16
 369              		.thumb_func
 370              		.type	QuadDec_SetMode, %function
 371              	QuadDec_SetMode:
 372              	.LFB5:
 294:Generated_Source\PSoC4/QuadDec.c ****     uint8 enableInterrupts;
 373              		.loc 1 294 0
 374              		.cfi_startproc
 375              		@ args = 0, pretend = 0, frame = 0
 376              		@ frame_needed = 0, uses_anonymous_args = 0
 377              	.LVL22:
 378 0000 10B5     		push	{r4, lr}
 379              		.cfi_def_cfa_offset 8
 380              		.cfi_offset 4, -8
 381              		.cfi_offset 14, -4
 294:Generated_Source\PSoC4/QuadDec.c ****     uint8 enableInterrupts;
 382              		.loc 1 294 0
 383 0002 0400     		movs	r4, r0
 297:Generated_Source\PSoC4/QuadDec.c **** 
 384              		.loc 1 297 0
 385 0004 FFF7FEFF 		bl	CyEnterCriticalSection
 386              	.LVL23:
 299:Generated_Source\PSoC4/QuadDec.c ****     QuadDec_CONTROL_REG |= mode;
 387              		.loc 1 299 0
 388 0008 054B     		ldr	r3, .L16
 389 000a 064A     		ldr	r2, .L16+4
ARM GAS  C:\Users\AFDHAL~1\AppData\Local\Temp\ccSYCZD3.s 			page 32


 390 000c 1968     		ldr	r1, [r3]
 303:Generated_Source\PSoC4/QuadDec.c **** 
 391              		.loc 1 303 0
 392              		@ sp needed
 299:Generated_Source\PSoC4/QuadDec.c ****     QuadDec_CONTROL_REG |= mode;
 393              		.loc 1 299 0
 394 000e 0A40     		ands	r2, r1
 395 0010 1A60     		str	r2, [r3]
 300:Generated_Source\PSoC4/QuadDec.c **** 
 396              		.loc 1 300 0
 397 0012 1A68     		ldr	r2, [r3]
 398 0014 1443     		orrs	r4, r2
 399              	.LVL24:
 400 0016 1C60     		str	r4, [r3]
 302:Generated_Source\PSoC4/QuadDec.c **** }
 401              		.loc 1 302 0
 402 0018 FFF7FEFF 		bl	CyExitCriticalSection
 403              	.LVL25:
 303:Generated_Source\PSoC4/QuadDec.c **** 
 404              		.loc 1 303 0
 405 001c 10BD     		pop	{r4, pc}
 406              	.L17:
 407 001e C046     		.align	2
 408              	.L16:
 409 0020 40012040 		.word	1075839296
 410 0024 FFFFFFF8 		.word	-117440513
 411              		.cfi_endproc
 412              	.LFE5:
 413              		.size	QuadDec_SetMode, .-QuadDec_SetMode
 414              		.section	.text.QuadDec_SetQDMode,"ax",%progbits
 415              		.align	2
 416              		.global	QuadDec_SetQDMode
 417              		.code	16
 418              		.thumb_func
 419              		.type	QuadDec_SetQDMode, %function
 420              	QuadDec_SetQDMode:
 421              	.LFB6:
 327:Generated_Source\PSoC4/QuadDec.c ****     uint8 enableInterrupts;
 422              		.loc 1 327 0
 423              		.cfi_startproc
 424              		@ args = 0, pretend = 0, frame = 0
 425              		@ frame_needed = 0, uses_anonymous_args = 0
 426              	.LVL26:
 427 0000 10B5     		push	{r4, lr}
 428              		.cfi_def_cfa_offset 8
 429              		.cfi_offset 4, -8
 430              		.cfi_offset 14, -4
 327:Generated_Source\PSoC4/QuadDec.c ****     uint8 enableInterrupts;
 431              		.loc 1 327 0
 432 0002 0400     		movs	r4, r0
 330:Generated_Source\PSoC4/QuadDec.c **** 
 433              		.loc 1 330 0
 434 0004 FFF7FEFF 		bl	CyEnterCriticalSection
 435              	.LVL27:
 332:Generated_Source\PSoC4/QuadDec.c ****     QuadDec_CONTROL_REG |= qdMode;
 436              		.loc 1 332 0
 437 0008 054B     		ldr	r3, .L19
ARM GAS  C:\Users\AFDHAL~1\AppData\Local\Temp\ccSYCZD3.s 			page 33


 438 000a 064A     		ldr	r2, .L19+4
 439 000c 1968     		ldr	r1, [r3]
 336:Generated_Source\PSoC4/QuadDec.c **** 
 440              		.loc 1 336 0
 441              		@ sp needed
 332:Generated_Source\PSoC4/QuadDec.c ****     QuadDec_CONTROL_REG |= qdMode;
 442              		.loc 1 332 0
 443 000e 0A40     		ands	r2, r1
 444 0010 1A60     		str	r2, [r3]
 333:Generated_Source\PSoC4/QuadDec.c **** 
 445              		.loc 1 333 0
 446 0012 1A68     		ldr	r2, [r3]
 447 0014 1443     		orrs	r4, r2
 448              	.LVL28:
 449 0016 1C60     		str	r4, [r3]
 335:Generated_Source\PSoC4/QuadDec.c **** }
 450              		.loc 1 335 0
 451 0018 FFF7FEFF 		bl	CyExitCriticalSection
 452              	.LVL29:
 336:Generated_Source\PSoC4/QuadDec.c **** 
 453              		.loc 1 336 0
 454 001c 10BD     		pop	{r4, pc}
 455              	.L20:
 456 001e C046     		.align	2
 457              	.L19:
 458 0020 40012040 		.word	1075839296
 459 0024 FFFF8FFF 		.word	-7340033
 460              		.cfi_endproc
 461              	.LFE6:
 462              		.size	QuadDec_SetQDMode, .-QuadDec_SetQDMode
 463              		.section	.text.QuadDec_SetPrescaler,"ax",%progbits
 464              		.align	2
 465              		.global	QuadDec_SetPrescaler
 466              		.code	16
 467              		.thumb_func
 468              		.type	QuadDec_SetPrescaler, %function
 469              	QuadDec_SetPrescaler:
 470              	.LFB7:
 364:Generated_Source\PSoC4/QuadDec.c ****     uint8 enableInterrupts;
 471              		.loc 1 364 0
 472              		.cfi_startproc
 473              		@ args = 0, pretend = 0, frame = 0
 474              		@ frame_needed = 0, uses_anonymous_args = 0
 475              	.LVL30:
 476 0000 10B5     		push	{r4, lr}
 477              		.cfi_def_cfa_offset 8
 478              		.cfi_offset 4, -8
 479              		.cfi_offset 14, -4
 364:Generated_Source\PSoC4/QuadDec.c ****     uint8 enableInterrupts;
 480              		.loc 1 364 0
 481 0002 0400     		movs	r4, r0
 367:Generated_Source\PSoC4/QuadDec.c **** 
 482              		.loc 1 367 0
 483 0004 FFF7FEFF 		bl	CyEnterCriticalSection
 484              	.LVL31:
 369:Generated_Source\PSoC4/QuadDec.c ****     QuadDec_CONTROL_REG |= prescaler;
 485              		.loc 1 369 0
ARM GAS  C:\Users\AFDHAL~1\AppData\Local\Temp\ccSYCZD3.s 			page 34


 486 0008 054B     		ldr	r3, .L22
 487 000a 064A     		ldr	r2, .L22+4
 488 000c 1968     		ldr	r1, [r3]
 373:Generated_Source\PSoC4/QuadDec.c **** 
 489              		.loc 1 373 0
 490              		@ sp needed
 369:Generated_Source\PSoC4/QuadDec.c ****     QuadDec_CONTROL_REG |= prescaler;
 491              		.loc 1 369 0
 492 000e 0A40     		ands	r2, r1
 493 0010 1A60     		str	r2, [r3]
 370:Generated_Source\PSoC4/QuadDec.c **** 
 494              		.loc 1 370 0
 495 0012 1A68     		ldr	r2, [r3]
 496 0014 1443     		orrs	r4, r2
 497              	.LVL32:
 498 0016 1C60     		str	r4, [r3]
 372:Generated_Source\PSoC4/QuadDec.c **** }
 499              		.loc 1 372 0
 500 0018 FFF7FEFF 		bl	CyExitCriticalSection
 501              	.LVL33:
 373:Generated_Source\PSoC4/QuadDec.c **** 
 502              		.loc 1 373 0
 503 001c 10BD     		pop	{r4, pc}
 504              	.L23:
 505 001e C046     		.align	2
 506              	.L22:
 507 0020 40012040 		.word	1075839296
 508 0024 FF00FFFF 		.word	-65281
 509              		.cfi_endproc
 510              	.LFE7:
 511              		.size	QuadDec_SetPrescaler, .-QuadDec_SetPrescaler
 512              		.section	.text.QuadDec_SetOneShot,"ax",%progbits
 513              		.align	2
 514              		.global	QuadDec_SetOneShot
 515              		.code	16
 516              		.thumb_func
 517              		.type	QuadDec_SetOneShot, %function
 518              	QuadDec_SetOneShot:
 519              	.LFB8:
 396:Generated_Source\PSoC4/QuadDec.c ****     uint8 enableInterrupts;
 520              		.loc 1 396 0
 521              		.cfi_startproc
 522              		@ args = 0, pretend = 0, frame = 0
 523              		@ frame_needed = 0, uses_anonymous_args = 0
 524              	.LVL34:
 525 0000 10B5     		push	{r4, lr}
 526              		.cfi_def_cfa_offset 8
 527              		.cfi_offset 4, -8
 528              		.cfi_offset 14, -4
 396:Generated_Source\PSoC4/QuadDec.c ****     uint8 enableInterrupts;
 529              		.loc 1 396 0
 530 0002 0400     		movs	r4, r0
 399:Generated_Source\PSoC4/QuadDec.c **** 
 531              		.loc 1 399 0
 532 0004 FFF7FEFF 		bl	CyEnterCriticalSection
 533              	.LVL35:
 401:Generated_Source\PSoC4/QuadDec.c ****     QuadDec_CONTROL_REG |= ((uint32)((oneShotEnable & QuadDec_1BIT_MASK) <<
ARM GAS  C:\Users\AFDHAL~1\AppData\Local\Temp\ccSYCZD3.s 			page 35


 534              		.loc 1 401 0
 535 0008 074B     		ldr	r3, .L25
 536 000a 084A     		ldr	r2, .L25+4
 537 000c 1968     		ldr	r1, [r3]
 406:Generated_Source\PSoC4/QuadDec.c **** 
 538              		.loc 1 406 0
 539              		@ sp needed
 401:Generated_Source\PSoC4/QuadDec.c ****     QuadDec_CONTROL_REG |= ((uint32)((oneShotEnable & QuadDec_1BIT_MASK) <<
 540              		.loc 1 401 0
 541 000e 0A40     		ands	r2, r1
 542 0010 1A60     		str	r2, [r3]
 402:Generated_Source\PSoC4/QuadDec.c ****                                                                QuadDec_ONESHOT_SHIFT));
 543              		.loc 1 402 0
 544 0012 A204     		lsls	r2, r4, #18
 545 0014 8024     		movs	r4, #128
 546              	.LVL36:
 547 0016 1968     		ldr	r1, [r3]
 548 0018 E402     		lsls	r4, r4, #11
 549 001a 2240     		ands	r2, r4
 550 001c 0A43     		orrs	r2, r1
 551 001e 1A60     		str	r2, [r3]
 405:Generated_Source\PSoC4/QuadDec.c **** }
 552              		.loc 1 405 0
 553 0020 FFF7FEFF 		bl	CyExitCriticalSection
 554              	.LVL37:
 406:Generated_Source\PSoC4/QuadDec.c **** 
 555              		.loc 1 406 0
 556 0024 10BD     		pop	{r4, pc}
 557              	.L26:
 558 0026 C046     		.align	2
 559              	.L25:
 560 0028 40012040 		.word	1075839296
 561 002c FFFFFBFF 		.word	-262145
 562              		.cfi_endproc
 563              	.LFE8:
 564              		.size	QuadDec_SetOneShot, .-QuadDec_SetOneShot
 565              		.section	.text.QuadDec_SetPWMMode,"ax",%progbits
 566              		.align	2
 567              		.global	QuadDec_SetPWMMode
 568              		.code	16
 569              		.thumb_func
 570              		.type	QuadDec_SetPWMMode, %function
 571              	QuadDec_SetPWMMode:
 572              	.LFB9:
 450:Generated_Source\PSoC4/QuadDec.c ****     QuadDec_TRIG_CONTROL2_REG = (modeMask & QuadDec_6BIT_MASK);
 573              		.loc 1 450 0
 574              		.cfi_startproc
 575              		@ args = 0, pretend = 0, frame = 0
 576              		@ frame_needed = 0, uses_anonymous_args = 0
 577              		@ link register save eliminated.
 578              	.LVL38:
 451:Generated_Source\PSoC4/QuadDec.c **** }
 579              		.loc 1 451 0
 580 0000 3F23     		movs	r3, #63
 581 0002 1840     		ands	r0, r3
 582              	.LVL39:
 583 0004 014B     		ldr	r3, .L28
ARM GAS  C:\Users\AFDHAL~1\AppData\Local\Temp\ccSYCZD3.s 			page 36


 452:Generated_Source\PSoC4/QuadDec.c **** 
 584              		.loc 1 452 0
 585              		@ sp needed
 451:Generated_Source\PSoC4/QuadDec.c **** }
 586              		.loc 1 451 0
 587 0006 1860     		str	r0, [r3]
 452:Generated_Source\PSoC4/QuadDec.c **** 
 588              		.loc 1 452 0
 589 0008 7047     		bx	lr
 590              	.L29:
 591 000a C046     		.align	2
 592              	.L28:
 593 000c 68012040 		.word	1075839336
 594              		.cfi_endproc
 595              	.LFE9:
 596              		.size	QuadDec_SetPWMMode, .-QuadDec_SetPWMMode
 597              		.section	.text.QuadDec_SetPWMSyncKill,"ax",%progbits
 598              		.align	2
 599              		.global	QuadDec_SetPWMSyncKill
 600              		.code	16
 601              		.thumb_func
 602              		.type	QuadDec_SetPWMSyncKill, %function
 603              	QuadDec_SetPWMSyncKill:
 604              	.LFB10:
 486:Generated_Source\PSoC4/QuadDec.c ****     uint8 enableInterrupts;
 605              		.loc 1 486 0
 606              		.cfi_startproc
 607              		@ args = 0, pretend = 0, frame = 0
 608              		@ frame_needed = 0, uses_anonymous_args = 0
 609              	.LVL40:
 610 0000 10B5     		push	{r4, lr}
 611              		.cfi_def_cfa_offset 8
 612              		.cfi_offset 4, -8
 613              		.cfi_offset 14, -4
 486:Generated_Source\PSoC4/QuadDec.c ****     uint8 enableInterrupts;
 614              		.loc 1 486 0
 615 0002 0400     		movs	r4, r0
 489:Generated_Source\PSoC4/QuadDec.c **** 
 616              		.loc 1 489 0
 617 0004 FFF7FEFF 		bl	CyEnterCriticalSection
 618              	.LVL41:
 491:Generated_Source\PSoC4/QuadDec.c ****     QuadDec_CONTROL_REG |= ((uint32)((syncKillEnable & QuadDec_1BIT_MASK)  <<
 619              		.loc 1 491 0
 620 0008 0421     		movs	r1, #4
 621 000a 064B     		ldr	r3, .L31
 492:Generated_Source\PSoC4/QuadDec.c ****                                                QuadDec_PWM_SYNC_KILL_SHIFT));
 622              		.loc 1 492 0
 623 000c A400     		lsls	r4, r4, #2
 624              	.LVL42:
 491:Generated_Source\PSoC4/QuadDec.c ****     QuadDec_CONTROL_REG |= ((uint32)((syncKillEnable & QuadDec_1BIT_MASK)  <<
 625              		.loc 1 491 0
 626 000e 1A68     		ldr	r2, [r3]
 492:Generated_Source\PSoC4/QuadDec.c ****                                                QuadDec_PWM_SYNC_KILL_SHIFT));
 627              		.loc 1 492 0
 628 0010 0C40     		ands	r4, r1
 491:Generated_Source\PSoC4/QuadDec.c ****     QuadDec_CONTROL_REG |= ((uint32)((syncKillEnable & QuadDec_1BIT_MASK)  <<
 629              		.loc 1 491 0
ARM GAS  C:\Users\AFDHAL~1\AppData\Local\Temp\ccSYCZD3.s 			page 37


 630 0012 8A43     		bics	r2, r1
 631 0014 1A60     		str	r2, [r3]
 492:Generated_Source\PSoC4/QuadDec.c ****                                                QuadDec_PWM_SYNC_KILL_SHIFT));
 632              		.loc 1 492 0
 633 0016 1A68     		ldr	r2, [r3]
 496:Generated_Source\PSoC4/QuadDec.c **** 
 634              		.loc 1 496 0
 635              		@ sp needed
 492:Generated_Source\PSoC4/QuadDec.c ****                                                QuadDec_PWM_SYNC_KILL_SHIFT));
 636              		.loc 1 492 0
 637 0018 1443     		orrs	r4, r2
 638 001a 1C60     		str	r4, [r3]
 495:Generated_Source\PSoC4/QuadDec.c **** }
 639              		.loc 1 495 0
 640 001c FFF7FEFF 		bl	CyExitCriticalSection
 641              	.LVL43:
 496:Generated_Source\PSoC4/QuadDec.c **** 
 642              		.loc 1 496 0
 643 0020 10BD     		pop	{r4, pc}
 644              	.L32:
 645 0022 C046     		.align	2
 646              	.L31:
 647 0024 40012040 		.word	1075839296
 648              		.cfi_endproc
 649              	.LFE10:
 650              		.size	QuadDec_SetPWMSyncKill, .-QuadDec_SetPWMSyncKill
 651              		.section	.text.QuadDec_SetPWMStopOnKill,"ax",%progbits
 652              		.align	2
 653              		.global	QuadDec_SetPWMStopOnKill
 654              		.code	16
 655              		.thumb_func
 656              		.type	QuadDec_SetPWMStopOnKill, %function
 657              	QuadDec_SetPWMStopOnKill:
 658              	.LFB11:
 520:Generated_Source\PSoC4/QuadDec.c ****     uint8 enableInterrupts;
 659              		.loc 1 520 0
 660              		.cfi_startproc
 661              		@ args = 0, pretend = 0, frame = 0
 662              		@ frame_needed = 0, uses_anonymous_args = 0
 663              	.LVL44:
 664 0000 10B5     		push	{r4, lr}
 665              		.cfi_def_cfa_offset 8
 666              		.cfi_offset 4, -8
 667              		.cfi_offset 14, -4
 520:Generated_Source\PSoC4/QuadDec.c ****     uint8 enableInterrupts;
 668              		.loc 1 520 0
 669 0002 0400     		movs	r4, r0
 523:Generated_Source\PSoC4/QuadDec.c **** 
 670              		.loc 1 523 0
 671 0004 FFF7FEFF 		bl	CyEnterCriticalSection
 672              	.LVL45:
 525:Generated_Source\PSoC4/QuadDec.c ****     QuadDec_CONTROL_REG |= ((uint32)((stopOnKillEnable & QuadDec_1BIT_MASK)  <<
 673              		.loc 1 525 0
 674 0008 0821     		movs	r1, #8
 675 000a 064B     		ldr	r3, .L34
 526:Generated_Source\PSoC4/QuadDec.c ****                                                          QuadDec_PWM_STOP_KILL_SHIFT));
 676              		.loc 1 526 0
ARM GAS  C:\Users\AFDHAL~1\AppData\Local\Temp\ccSYCZD3.s 			page 38


 677 000c E400     		lsls	r4, r4, #3
 678              	.LVL46:
 525:Generated_Source\PSoC4/QuadDec.c ****     QuadDec_CONTROL_REG |= ((uint32)((stopOnKillEnable & QuadDec_1BIT_MASK)  <<
 679              		.loc 1 525 0
 680 000e 1A68     		ldr	r2, [r3]
 526:Generated_Source\PSoC4/QuadDec.c ****                                                          QuadDec_PWM_STOP_KILL_SHIFT));
 681              		.loc 1 526 0
 682 0010 0C40     		ands	r4, r1
 525:Generated_Source\PSoC4/QuadDec.c ****     QuadDec_CONTROL_REG |= ((uint32)((stopOnKillEnable & QuadDec_1BIT_MASK)  <<
 683              		.loc 1 525 0
 684 0012 8A43     		bics	r2, r1
 685 0014 1A60     		str	r2, [r3]
 526:Generated_Source\PSoC4/QuadDec.c ****                                                          QuadDec_PWM_STOP_KILL_SHIFT));
 686              		.loc 1 526 0
 687 0016 1A68     		ldr	r2, [r3]
 530:Generated_Source\PSoC4/QuadDec.c **** 
 688              		.loc 1 530 0
 689              		@ sp needed
 526:Generated_Source\PSoC4/QuadDec.c ****                                                          QuadDec_PWM_STOP_KILL_SHIFT));
 690              		.loc 1 526 0
 691 0018 1443     		orrs	r4, r2
 692 001a 1C60     		str	r4, [r3]
 529:Generated_Source\PSoC4/QuadDec.c **** }
 693              		.loc 1 529 0
 694 001c FFF7FEFF 		bl	CyExitCriticalSection
 695              	.LVL47:
 530:Generated_Source\PSoC4/QuadDec.c **** 
 696              		.loc 1 530 0
 697 0020 10BD     		pop	{r4, pc}
 698              	.L35:
 699 0022 C046     		.align	2
 700              	.L34:
 701 0024 40012040 		.word	1075839296
 702              		.cfi_endproc
 703              	.LFE11:
 704              		.size	QuadDec_SetPWMStopOnKill, .-QuadDec_SetPWMStopOnKill
 705              		.section	.text.QuadDec_SetPWMDeadTime,"ax",%progbits
 706              		.align	2
 707              		.global	QuadDec_SetPWMDeadTime
 708              		.code	16
 709              		.thumb_func
 710              		.type	QuadDec_SetPWMDeadTime, %function
 711              	QuadDec_SetPWMDeadTime:
 712              	.LFB12:
 553:Generated_Source\PSoC4/QuadDec.c ****     uint8 enableInterrupts;
 713              		.loc 1 553 0
 714              		.cfi_startproc
 715              		@ args = 0, pretend = 0, frame = 0
 716              		@ frame_needed = 0, uses_anonymous_args = 0
 717              	.LVL48:
 718 0000 10B5     		push	{r4, lr}
 719              		.cfi_def_cfa_offset 8
 720              		.cfi_offset 4, -8
 721              		.cfi_offset 14, -4
 553:Generated_Source\PSoC4/QuadDec.c ****     uint8 enableInterrupts;
 722              		.loc 1 553 0
 723 0002 0400     		movs	r4, r0
ARM GAS  C:\Users\AFDHAL~1\AppData\Local\Temp\ccSYCZD3.s 			page 39


 556:Generated_Source\PSoC4/QuadDec.c **** 
 724              		.loc 1 556 0
 725 0004 FFF7FEFF 		bl	CyEnterCriticalSection
 726              	.LVL49:
 558:Generated_Source\PSoC4/QuadDec.c ****     QuadDec_CONTROL_REG |= ((uint32)((deadTime & QuadDec_8BIT_MASK) <<
 727              		.loc 1 558 0
 728 0008 064B     		ldr	r3, .L37
 729 000a 074A     		ldr	r2, .L37+4
 730 000c 1968     		ldr	r1, [r3]
 559:Generated_Source\PSoC4/QuadDec.c ****                                                           QuadDec_PRESCALER_SHIFT));
 731              		.loc 1 559 0
 732 000e 2406     		lsls	r4, r4, #24
 733              	.LVL50:
 558:Generated_Source\PSoC4/QuadDec.c ****     QuadDec_CONTROL_REG |= ((uint32)((deadTime & QuadDec_8BIT_MASK) <<
 734              		.loc 1 558 0
 735 0010 0A40     		ands	r2, r1
 736 0012 1A60     		str	r2, [r3]
 559:Generated_Source\PSoC4/QuadDec.c ****                                                           QuadDec_PRESCALER_SHIFT));
 737              		.loc 1 559 0
 738 0014 1A68     		ldr	r2, [r3]
 739 0016 240C     		lsrs	r4, r4, #16
 740 0018 1443     		orrs	r4, r2
 741 001a 1C60     		str	r4, [r3]
 562:Generated_Source\PSoC4/QuadDec.c **** }
 742              		.loc 1 562 0
 743 001c FFF7FEFF 		bl	CyExitCriticalSection
 744              	.LVL51:
 563:Generated_Source\PSoC4/QuadDec.c **** 
 745              		.loc 1 563 0
 746              		@ sp needed
 747 0020 10BD     		pop	{r4, pc}
 748              	.L38:
 749 0022 C046     		.align	2
 750              	.L37:
 751 0024 40012040 		.word	1075839296
 752 0028 FF00FFFF 		.word	-65281
 753              		.cfi_endproc
 754              	.LFE12:
 755              		.size	QuadDec_SetPWMDeadTime, .-QuadDec_SetPWMDeadTime
 756              		.section	.text.QuadDec_SetPWMInvert,"ax",%progbits
 757              		.align	2
 758              		.global	QuadDec_SetPWMInvert
 759              		.code	16
 760              		.thumb_func
 761              		.type	QuadDec_SetPWMInvert, %function
 762              	QuadDec_SetPWMInvert:
 763              	.LFB13:
 586:Generated_Source\PSoC4/QuadDec.c ****     uint8 enableInterrupts;
 764              		.loc 1 586 0
 765              		.cfi_startproc
 766              		@ args = 0, pretend = 0, frame = 0
 767              		@ frame_needed = 0, uses_anonymous_args = 0
 768              	.LVL52:
 769 0000 10B5     		push	{r4, lr}
 770              		.cfi_def_cfa_offset 8
 771              		.cfi_offset 4, -8
 772              		.cfi_offset 14, -4
ARM GAS  C:\Users\AFDHAL~1\AppData\Local\Temp\ccSYCZD3.s 			page 40


 586:Generated_Source\PSoC4/QuadDec.c ****     uint8 enableInterrupts;
 773              		.loc 1 586 0
 774 0002 0400     		movs	r4, r0
 589:Generated_Source\PSoC4/QuadDec.c **** 
 775              		.loc 1 589 0
 776 0004 FFF7FEFF 		bl	CyEnterCriticalSection
 777              	.LVL53:
 591:Generated_Source\PSoC4/QuadDec.c ****     QuadDec_CONTROL_REG |= mask;
 778              		.loc 1 591 0
 779 0008 054B     		ldr	r3, .L40
 780 000a 064A     		ldr	r2, .L40+4
 781 000c 1968     		ldr	r1, [r3]
 595:Generated_Source\PSoC4/QuadDec.c **** 
 782              		.loc 1 595 0
 783              		@ sp needed
 591:Generated_Source\PSoC4/QuadDec.c ****     QuadDec_CONTROL_REG |= mask;
 784              		.loc 1 591 0
 785 000e 0A40     		ands	r2, r1
 786 0010 1A60     		str	r2, [r3]
 592:Generated_Source\PSoC4/QuadDec.c **** 
 787              		.loc 1 592 0
 788 0012 1A68     		ldr	r2, [r3]
 789 0014 1443     		orrs	r4, r2
 790              	.LVL54:
 791 0016 1C60     		str	r4, [r3]
 594:Generated_Source\PSoC4/QuadDec.c **** }
 792              		.loc 1 594 0
 793 0018 FFF7FEFF 		bl	CyExitCriticalSection
 794              	.LVL55:
 595:Generated_Source\PSoC4/QuadDec.c **** 
 795              		.loc 1 595 0
 796 001c 10BD     		pop	{r4, pc}
 797              	.L41:
 798 001e C046     		.align	2
 799              	.L40:
 800 0020 40012040 		.word	1075839296
 801 0024 FFFFCFFF 		.word	-3145729
 802              		.cfi_endproc
 803              	.LFE13:
 804              		.size	QuadDec_SetPWMInvert, .-QuadDec_SetPWMInvert
 805              		.section	.text.QuadDec_WriteCounter,"ax",%progbits
 806              		.align	2
 807              		.global	QuadDec_WriteCounter
 808              		.code	16
 809              		.thumb_func
 810              		.type	QuadDec_WriteCounter, %function
 811              	QuadDec_WriteCounter:
 812              	.LFB14:
 616:Generated_Source\PSoC4/QuadDec.c ****     QuadDec_COUNTER_REG = (count & QuadDec_16BIT_MASK);
 813              		.loc 1 616 0
 814              		.cfi_startproc
 815              		@ args = 0, pretend = 0, frame = 0
 816              		@ frame_needed = 0, uses_anonymous_args = 0
 817              		@ link register save eliminated.
 818              	.LVL56:
 617:Generated_Source\PSoC4/QuadDec.c **** }
 819              		.loc 1 617 0
ARM GAS  C:\Users\AFDHAL~1\AppData\Local\Temp\ccSYCZD3.s 			page 41


 820 0000 024B     		ldr	r3, .L43
 821 0002 0004     		lsls	r0, r0, #16
 822              	.LVL57:
 823 0004 000C     		lsrs	r0, r0, #16
 824 0006 1860     		str	r0, [r3]
 618:Generated_Source\PSoC4/QuadDec.c **** 
 825              		.loc 1 618 0
 826              		@ sp needed
 827 0008 7047     		bx	lr
 828              	.L44:
 829 000a C046     		.align	2
 830              	.L43:
 831 000c 48012040 		.word	1075839304
 832              		.cfi_endproc
 833              	.LFE14:
 834              		.size	QuadDec_WriteCounter, .-QuadDec_WriteCounter
 835              		.section	.text.QuadDec_ReadCounter,"ax",%progbits
 836              		.align	2
 837              		.global	QuadDec_ReadCounter
 838              		.code	16
 839              		.thumb_func
 840              		.type	QuadDec_ReadCounter, %function
 841              	QuadDec_ReadCounter:
 842              	.LFB15:
 636:Generated_Source\PSoC4/QuadDec.c ****     return (QuadDec_COUNTER_REG & QuadDec_16BIT_MASK);
 843              		.loc 1 636 0
 844              		.cfi_startproc
 845              		@ args = 0, pretend = 0, frame = 0
 846              		@ frame_needed = 0, uses_anonymous_args = 0
 847              		@ link register save eliminated.
 637:Generated_Source\PSoC4/QuadDec.c **** }
 848              		.loc 1 637 0
 849 0000 024B     		ldr	r3, .L46
 638:Generated_Source\PSoC4/QuadDec.c **** 
 850              		.loc 1 638 0
 851              		@ sp needed
 637:Generated_Source\PSoC4/QuadDec.c **** }
 852              		.loc 1 637 0
 853 0002 1868     		ldr	r0, [r3]
 854 0004 0004     		lsls	r0, r0, #16
 855 0006 000C     		lsrs	r0, r0, #16
 638:Generated_Source\PSoC4/QuadDec.c **** 
 856              		.loc 1 638 0
 857 0008 7047     		bx	lr
 858              	.L47:
 859 000a C046     		.align	2
 860              	.L46:
 861 000c 48012040 		.word	1075839304
 862              		.cfi_endproc
 863              	.LFE15:
 864              		.size	QuadDec_ReadCounter, .-QuadDec_ReadCounter
 865              		.section	.text.QuadDec_SetCounterMode,"ax",%progbits
 866              		.align	2
 867              		.global	QuadDec_SetCounterMode
 868              		.code	16
 869              		.thumb_func
 870              		.type	QuadDec_SetCounterMode, %function
ARM GAS  C:\Users\AFDHAL~1\AppData\Local\Temp\ccSYCZD3.s 			page 42


 871              	QuadDec_SetCounterMode:
 872              	.LFB16:
 665:Generated_Source\PSoC4/QuadDec.c ****     uint8 enableInterrupts;
 873              		.loc 1 665 0
 874              		.cfi_startproc
 875              		@ args = 0, pretend = 0, frame = 0
 876              		@ frame_needed = 0, uses_anonymous_args = 0
 877              	.LVL58:
 878 0000 10B5     		push	{r4, lr}
 879              		.cfi_def_cfa_offset 8
 880              		.cfi_offset 4, -8
 881              		.cfi_offset 14, -4
 665:Generated_Source\PSoC4/QuadDec.c ****     uint8 enableInterrupts;
 882              		.loc 1 665 0
 883 0002 0400     		movs	r4, r0
 668:Generated_Source\PSoC4/QuadDec.c **** 
 884              		.loc 1 668 0
 885 0004 FFF7FEFF 		bl	CyEnterCriticalSection
 886              	.LVL59:
 670:Generated_Source\PSoC4/QuadDec.c ****     QuadDec_CONTROL_REG |= counterMode;
 887              		.loc 1 670 0
 888 0008 054B     		ldr	r3, .L49
 889 000a 064A     		ldr	r2, .L49+4
 890 000c 1968     		ldr	r1, [r3]
 674:Generated_Source\PSoC4/QuadDec.c **** 
 891              		.loc 1 674 0
 892              		@ sp needed
 670:Generated_Source\PSoC4/QuadDec.c ****     QuadDec_CONTROL_REG |= counterMode;
 893              		.loc 1 670 0
 894 000e 0A40     		ands	r2, r1
 895 0010 1A60     		str	r2, [r3]
 671:Generated_Source\PSoC4/QuadDec.c **** 
 896              		.loc 1 671 0
 897 0012 1A68     		ldr	r2, [r3]
 898 0014 1443     		orrs	r4, r2
 899              	.LVL60:
 900 0016 1C60     		str	r4, [r3]
 673:Generated_Source\PSoC4/QuadDec.c **** }
 901              		.loc 1 673 0
 902 0018 FFF7FEFF 		bl	CyExitCriticalSection
 903              	.LVL61:
 674:Generated_Source\PSoC4/QuadDec.c **** 
 904              		.loc 1 674 0
 905 001c 10BD     		pop	{r4, pc}
 906              	.L50:
 907 001e C046     		.align	2
 908              	.L49:
 909 0020 40012040 		.word	1075839296
 910 0024 FFFFFCFF 		.word	-196609
 911              		.cfi_endproc
 912              	.LFE16:
 913              		.size	QuadDec_SetCounterMode, .-QuadDec_SetCounterMode
 914              		.section	.text.QuadDec_WritePeriod,"ax",%progbits
 915              		.align	2
 916              		.global	QuadDec_WritePeriod
 917              		.code	16
 918              		.thumb_func
ARM GAS  C:\Users\AFDHAL~1\AppData\Local\Temp\ccSYCZD3.s 			page 43


 919              		.type	QuadDec_WritePeriod, %function
 920              	QuadDec_WritePeriod:
 921              	.LFB17:
 694:Generated_Source\PSoC4/QuadDec.c ****     QuadDec_PERIOD_REG = (period & QuadDec_16BIT_MASK);
 922              		.loc 1 694 0
 923              		.cfi_startproc
 924              		@ args = 0, pretend = 0, frame = 0
 925              		@ frame_needed = 0, uses_anonymous_args = 0
 926              		@ link register save eliminated.
 927              	.LVL62:
 695:Generated_Source\PSoC4/QuadDec.c **** }
 928              		.loc 1 695 0
 929 0000 024B     		ldr	r3, .L52
 930 0002 0004     		lsls	r0, r0, #16
 931              	.LVL63:
 932 0004 000C     		lsrs	r0, r0, #16
 933 0006 1860     		str	r0, [r3]
 696:Generated_Source\PSoC4/QuadDec.c **** 
 934              		.loc 1 696 0
 935              		@ sp needed
 936 0008 7047     		bx	lr
 937              	.L53:
 938 000a C046     		.align	2
 939              	.L52:
 940 000c 54012040 		.word	1075839316
 941              		.cfi_endproc
 942              	.LFE17:
 943              		.size	QuadDec_WritePeriod, .-QuadDec_WritePeriod
 944              		.section	.text.QuadDec_ReadPeriod,"ax",%progbits
 945              		.align	2
 946              		.global	QuadDec_ReadPeriod
 947              		.code	16
 948              		.thumb_func
 949              		.type	QuadDec_ReadPeriod, %function
 950              	QuadDec_ReadPeriod:
 951              	.LFB18:
 714:Generated_Source\PSoC4/QuadDec.c ****     return (QuadDec_PERIOD_REG & QuadDec_16BIT_MASK);
 952              		.loc 1 714 0
 953              		.cfi_startproc
 954              		@ args = 0, pretend = 0, frame = 0
 955              		@ frame_needed = 0, uses_anonymous_args = 0
 956              		@ link register save eliminated.
 715:Generated_Source\PSoC4/QuadDec.c **** }
 957              		.loc 1 715 0
 958 0000 024B     		ldr	r3, .L55
 716:Generated_Source\PSoC4/QuadDec.c **** 
 959              		.loc 1 716 0
 960              		@ sp needed
 715:Generated_Source\PSoC4/QuadDec.c **** }
 961              		.loc 1 715 0
 962 0002 1868     		ldr	r0, [r3]
 963 0004 0004     		lsls	r0, r0, #16
 964 0006 000C     		lsrs	r0, r0, #16
 716:Generated_Source\PSoC4/QuadDec.c **** 
 965              		.loc 1 716 0
 966 0008 7047     		bx	lr
 967              	.L56:
ARM GAS  C:\Users\AFDHAL~1\AppData\Local\Temp\ccSYCZD3.s 			page 44


 968 000a C046     		.align	2
 969              	.L55:
 970 000c 54012040 		.word	1075839316
 971              		.cfi_endproc
 972              	.LFE18:
 973              		.size	QuadDec_ReadPeriod, .-QuadDec_ReadPeriod
 974              		.section	.text.QuadDec_SetCompareSwap,"ax",%progbits
 975              		.align	2
 976              		.global	QuadDec_SetCompareSwap
 977              		.code	16
 978              		.thumb_func
 979              		.type	QuadDec_SetCompareSwap, %function
 980              	QuadDec_SetCompareSwap:
 981              	.LFB19:
 740:Generated_Source\PSoC4/QuadDec.c ****     uint8 enableInterrupts;
 982              		.loc 1 740 0
 983              		.cfi_startproc
 984              		@ args = 0, pretend = 0, frame = 0
 985              		@ frame_needed = 0, uses_anonymous_args = 0
 986              	.LVL64:
 987 0000 10B5     		push	{r4, lr}
 988              		.cfi_def_cfa_offset 8
 989              		.cfi_offset 4, -8
 990              		.cfi_offset 14, -4
 740:Generated_Source\PSoC4/QuadDec.c ****     uint8 enableInterrupts;
 991              		.loc 1 740 0
 992 0002 0400     		movs	r4, r0
 743:Generated_Source\PSoC4/QuadDec.c **** 
 993              		.loc 1 743 0
 994 0004 FFF7FEFF 		bl	CyEnterCriticalSection
 995              	.LVL65:
 745:Generated_Source\PSoC4/QuadDec.c ****     QuadDec_CONTROL_REG |= (swapEnable & QuadDec_1BIT_MASK);
 996              		.loc 1 745 0
 997 0008 0122     		movs	r2, #1
 998 000a 054B     		ldr	r3, .L58
 749:Generated_Source\PSoC4/QuadDec.c **** 
 999              		.loc 1 749 0
 1000              		@ sp needed
 745:Generated_Source\PSoC4/QuadDec.c ****     QuadDec_CONTROL_REG |= (swapEnable & QuadDec_1BIT_MASK);
 1001              		.loc 1 745 0
 1002 000c 1968     		ldr	r1, [r3]
 1003 000e 9143     		bics	r1, r2
 1004 0010 1960     		str	r1, [r3]
 746:Generated_Source\PSoC4/QuadDec.c **** 
 1005              		.loc 1 746 0
 1006 0012 1968     		ldr	r1, [r3]
 1007 0014 2240     		ands	r2, r4
 1008 0016 0A43     		orrs	r2, r1
 1009 0018 1A60     		str	r2, [r3]
 748:Generated_Source\PSoC4/QuadDec.c **** }
 1010              		.loc 1 748 0
 1011 001a FFF7FEFF 		bl	CyExitCriticalSection
 1012              	.LVL66:
 1013              	.LVL67:
 749:Generated_Source\PSoC4/QuadDec.c **** 
 1014              		.loc 1 749 0
 1015 001e 10BD     		pop	{r4, pc}
ARM GAS  C:\Users\AFDHAL~1\AppData\Local\Temp\ccSYCZD3.s 			page 45


 1016              	.L59:
 1017              		.align	2
 1018              	.L58:
 1019 0020 40012040 		.word	1075839296
 1020              		.cfi_endproc
 1021              	.LFE19:
 1022              		.size	QuadDec_SetCompareSwap, .-QuadDec_SetCompareSwap
 1023              		.section	.text.QuadDec_WritePeriodBuf,"ax",%progbits
 1024              		.align	2
 1025              		.global	QuadDec_WritePeriodBuf
 1026              		.code	16
 1027              		.thumb_func
 1028              		.type	QuadDec_WritePeriodBuf, %function
 1029              	QuadDec_WritePeriodBuf:
 1030              	.LFB20:
 767:Generated_Source\PSoC4/QuadDec.c ****     QuadDec_PERIOD_BUF_REG = (periodBuf & QuadDec_16BIT_MASK);
 1031              		.loc 1 767 0
 1032              		.cfi_startproc
 1033              		@ args = 0, pretend = 0, frame = 0
 1034              		@ frame_needed = 0, uses_anonymous_args = 0
 1035              		@ link register save eliminated.
 1036              	.LVL68:
 768:Generated_Source\PSoC4/QuadDec.c **** }
 1037              		.loc 1 768 0
 1038 0000 024B     		ldr	r3, .L61
 1039 0002 0004     		lsls	r0, r0, #16
 1040              	.LVL69:
 1041 0004 000C     		lsrs	r0, r0, #16
 1042 0006 1860     		str	r0, [r3]
 769:Generated_Source\PSoC4/QuadDec.c **** 
 1043              		.loc 1 769 0
 1044              		@ sp needed
 1045 0008 7047     		bx	lr
 1046              	.L62:
 1047 000a C046     		.align	2
 1048              	.L61:
 1049 000c 58012040 		.word	1075839320
 1050              		.cfi_endproc
 1051              	.LFE20:
 1052              		.size	QuadDec_WritePeriodBuf, .-QuadDec_WritePeriodBuf
 1053              		.section	.text.QuadDec_ReadPeriodBuf,"ax",%progbits
 1054              		.align	2
 1055              		.global	QuadDec_ReadPeriodBuf
 1056              		.code	16
 1057              		.thumb_func
 1058              		.type	QuadDec_ReadPeriodBuf, %function
 1059              	QuadDec_ReadPeriodBuf:
 1060              	.LFB21:
 787:Generated_Source\PSoC4/QuadDec.c ****     return (QuadDec_PERIOD_BUF_REG & QuadDec_16BIT_MASK);
 1061              		.loc 1 787 0
 1062              		.cfi_startproc
 1063              		@ args = 0, pretend = 0, frame = 0
 1064              		@ frame_needed = 0, uses_anonymous_args = 0
 1065              		@ link register save eliminated.
 788:Generated_Source\PSoC4/QuadDec.c **** }
 1066              		.loc 1 788 0
 1067 0000 024B     		ldr	r3, .L64
ARM GAS  C:\Users\AFDHAL~1\AppData\Local\Temp\ccSYCZD3.s 			page 46


 789:Generated_Source\PSoC4/QuadDec.c **** 
 1068              		.loc 1 789 0
 1069              		@ sp needed
 788:Generated_Source\PSoC4/QuadDec.c **** }
 1070              		.loc 1 788 0
 1071 0002 1868     		ldr	r0, [r3]
 1072 0004 0004     		lsls	r0, r0, #16
 1073 0006 000C     		lsrs	r0, r0, #16
 789:Generated_Source\PSoC4/QuadDec.c **** 
 1074              		.loc 1 789 0
 1075 0008 7047     		bx	lr
 1076              	.L65:
 1077 000a C046     		.align	2
 1078              	.L64:
 1079 000c 58012040 		.word	1075839320
 1080              		.cfi_endproc
 1081              	.LFE21:
 1082              		.size	QuadDec_ReadPeriodBuf, .-QuadDec_ReadPeriodBuf
 1083              		.section	.text.QuadDec_SetPeriodSwap,"ax",%progbits
 1084              		.align	2
 1085              		.global	QuadDec_SetPeriodSwap
 1086              		.code	16
 1087              		.thumb_func
 1088              		.type	QuadDec_SetPeriodSwap, %function
 1089              	QuadDec_SetPeriodSwap:
 1090              	.LFB22:
 813:Generated_Source\PSoC4/QuadDec.c ****     uint8 enableInterrupts;
 1091              		.loc 1 813 0
 1092              		.cfi_startproc
 1093              		@ args = 0, pretend = 0, frame = 0
 1094              		@ frame_needed = 0, uses_anonymous_args = 0
 1095              	.LVL70:
 1096 0000 10B5     		push	{r4, lr}
 1097              		.cfi_def_cfa_offset 8
 1098              		.cfi_offset 4, -8
 1099              		.cfi_offset 14, -4
 813:Generated_Source\PSoC4/QuadDec.c ****     uint8 enableInterrupts;
 1100              		.loc 1 813 0
 1101 0002 0400     		movs	r4, r0
 816:Generated_Source\PSoC4/QuadDec.c **** 
 1102              		.loc 1 816 0
 1103 0004 FFF7FEFF 		bl	CyEnterCriticalSection
 1104              	.LVL71:
 818:Generated_Source\PSoC4/QuadDec.c ****     QuadDec_CONTROL_REG |= ((uint32)((swapEnable & QuadDec_1BIT_MASK) <<
 1105              		.loc 1 818 0
 1106 0008 0221     		movs	r1, #2
 1107 000a 064B     		ldr	r3, .L67
 819:Generated_Source\PSoC4/QuadDec.c ****                                                             QuadDec_RELOAD_PERIOD_SHIFT));
 1108              		.loc 1 819 0
 1109 000c 6400     		lsls	r4, r4, #1
 1110              	.LVL72:
 818:Generated_Source\PSoC4/QuadDec.c ****     QuadDec_CONTROL_REG |= ((uint32)((swapEnable & QuadDec_1BIT_MASK) <<
 1111              		.loc 1 818 0
 1112 000e 1A68     		ldr	r2, [r3]
 819:Generated_Source\PSoC4/QuadDec.c ****                                                             QuadDec_RELOAD_PERIOD_SHIFT));
 1113              		.loc 1 819 0
 1114 0010 0C40     		ands	r4, r1
ARM GAS  C:\Users\AFDHAL~1\AppData\Local\Temp\ccSYCZD3.s 			page 47


 818:Generated_Source\PSoC4/QuadDec.c ****     QuadDec_CONTROL_REG |= ((uint32)((swapEnable & QuadDec_1BIT_MASK) <<
 1115              		.loc 1 818 0
 1116 0012 8A43     		bics	r2, r1
 1117 0014 1A60     		str	r2, [r3]
 819:Generated_Source\PSoC4/QuadDec.c ****                                                             QuadDec_RELOAD_PERIOD_SHIFT));
 1118              		.loc 1 819 0
 1119 0016 1A68     		ldr	r2, [r3]
 823:Generated_Source\PSoC4/QuadDec.c **** 
 1120              		.loc 1 823 0
 1121              		@ sp needed
 819:Generated_Source\PSoC4/QuadDec.c ****                                                             QuadDec_RELOAD_PERIOD_SHIFT));
 1122              		.loc 1 819 0
 1123 0018 1443     		orrs	r4, r2
 1124 001a 1C60     		str	r4, [r3]
 822:Generated_Source\PSoC4/QuadDec.c **** }
 1125              		.loc 1 822 0
 1126 001c FFF7FEFF 		bl	CyExitCriticalSection
 1127              	.LVL73:
 823:Generated_Source\PSoC4/QuadDec.c **** 
 1128              		.loc 1 823 0
 1129 0020 10BD     		pop	{r4, pc}
 1130              	.L68:
 1131 0022 C046     		.align	2
 1132              	.L67:
 1133 0024 40012040 		.word	1075839296
 1134              		.cfi_endproc
 1135              	.LFE22:
 1136              		.size	QuadDec_SetPeriodSwap, .-QuadDec_SetPeriodSwap
 1137              		.section	.text.QuadDec_WriteCompare,"ax",%progbits
 1138              		.align	2
 1139              		.global	QuadDec_WriteCompare
 1140              		.code	16
 1141              		.thumb_func
 1142              		.type	QuadDec_WriteCompare, %function
 1143              	QuadDec_WriteCompare:
 1144              	.LFB23:
 850:Generated_Source\PSoC4/QuadDec.c ****     #if (QuadDec_CY_TCPWM_4000)
 1145              		.loc 1 850 0
 1146              		.cfi_startproc
 1147              		@ args = 0, pretend = 0, frame = 0
 1148              		@ frame_needed = 0, uses_anonymous_args = 0
 1149              		@ link register save eliminated.
 1150              	.LVL74:
 873:Generated_Source\PSoC4/QuadDec.c **** }
 1151              		.loc 1 873 0
 1152 0000 024B     		ldr	r3, .L70
 1153 0002 0004     		lsls	r0, r0, #16
 1154              	.LVL75:
 1155 0004 000C     		lsrs	r0, r0, #16
 1156 0006 1860     		str	r0, [r3]
 874:Generated_Source\PSoC4/QuadDec.c **** 
 1157              		.loc 1 874 0
 1158              		@ sp needed
 1159 0008 7047     		bx	lr
 1160              	.L71:
 1161 000a C046     		.align	2
 1162              	.L70:
ARM GAS  C:\Users\AFDHAL~1\AppData\Local\Temp\ccSYCZD3.s 			page 48


 1163 000c 4C012040 		.word	1075839308
 1164              		.cfi_endproc
 1165              	.LFE23:
 1166              		.size	QuadDec_WriteCompare, .-QuadDec_WriteCompare
 1167              		.section	.text.QuadDec_ReadCompare,"ax",%progbits
 1168              		.align	2
 1169              		.global	QuadDec_ReadCompare
 1170              		.code	16
 1171              		.thumb_func
 1172              		.type	QuadDec_ReadCompare, %function
 1173              	QuadDec_ReadCompare:
 1174              	.LFB44:
 1175              		.cfi_startproc
 1176              		@ args = 0, pretend = 0, frame = 0
 1177              		@ frame_needed = 0, uses_anonymous_args = 0
 1178              		@ link register save eliminated.
 1179 0000 024B     		ldr	r3, .L73
 1180              		@ sp needed
 1181 0002 1868     		ldr	r0, [r3]
 1182 0004 0004     		lsls	r0, r0, #16
 1183 0006 000C     		lsrs	r0, r0, #16
 1184 0008 7047     		bx	lr
 1185              	.L74:
 1186 000a C046     		.align	2
 1187              	.L73:
 1188 000c 4C012040 		.word	1075839308
 1189              		.cfi_endproc
 1190              	.LFE44:
 1191              		.size	QuadDec_ReadCompare, .-QuadDec_ReadCompare
 1192              		.section	.text.QuadDec_WriteCompareBuf,"ax",%progbits
 1193              		.align	2
 1194              		.global	QuadDec_WriteCompareBuf
 1195              		.code	16
 1196              		.thumb_func
 1197              		.type	QuadDec_WriteCompareBuf, %function
 1198              	QuadDec_WriteCompareBuf:
 1199              	.LFB25:
 955:Generated_Source\PSoC4/QuadDec.c ****     #if (QuadDec_CY_TCPWM_4000)
 1200              		.loc 1 955 0
 1201              		.cfi_startproc
 1202              		@ args = 0, pretend = 0, frame = 0
 1203              		@ frame_needed = 0, uses_anonymous_args = 0
 1204              		@ link register save eliminated.
 1205              	.LVL76:
 976:Generated_Source\PSoC4/QuadDec.c **** }
 1206              		.loc 1 976 0
 1207 0000 024B     		ldr	r3, .L76
 1208 0002 0004     		lsls	r0, r0, #16
 1209              	.LVL77:
 1210 0004 000C     		lsrs	r0, r0, #16
 1211 0006 1860     		str	r0, [r3]
 977:Generated_Source\PSoC4/QuadDec.c **** 
 1212              		.loc 1 977 0
 1213              		@ sp needed
 1214 0008 7047     		bx	lr
 1215              	.L77:
 1216 000a C046     		.align	2
ARM GAS  C:\Users\AFDHAL~1\AppData\Local\Temp\ccSYCZD3.s 			page 49


 1217              	.L76:
 1218 000c 50012040 		.word	1075839312
 1219              		.cfi_endproc
 1220              	.LFE25:
 1221              		.size	QuadDec_WriteCompareBuf, .-QuadDec_WriteCompareBuf
 1222              		.section	.text.QuadDec_ReadCompareBuf,"ax",%progbits
 1223              		.align	2
 1224              		.global	QuadDec_ReadCompareBuf
 1225              		.code	16
 1226              		.thumb_func
 1227              		.type	QuadDec_ReadCompareBuf, %function
 1228              	QuadDec_ReadCompareBuf:
 1229              	.LFB42:
 1230              		.cfi_startproc
 1231              		@ args = 0, pretend = 0, frame = 0
 1232              		@ frame_needed = 0, uses_anonymous_args = 0
 1233              		@ link register save eliminated.
 1234 0000 024B     		ldr	r3, .L79
 1235              		@ sp needed
 1236 0002 1868     		ldr	r0, [r3]
 1237 0004 0004     		lsls	r0, r0, #16
 1238 0006 000C     		lsrs	r0, r0, #16
 1239 0008 7047     		bx	lr
 1240              	.L80:
 1241 000a C046     		.align	2
 1242              	.L79:
 1243 000c 50012040 		.word	1075839312
 1244              		.cfi_endproc
 1245              	.LFE42:
 1246              		.size	QuadDec_ReadCompareBuf, .-QuadDec_ReadCompareBuf
 1247              		.section	.text.QuadDec_ReadCapture,"ax",%progbits
 1248              		.align	2
 1249              		.global	QuadDec_ReadCapture
 1250              		.code	16
 1251              		.thumb_func
 1252              		.type	QuadDec_ReadCapture, %function
 1253              	QuadDec_ReadCapture:
 1254              	.LFB27:
1047:Generated_Source\PSoC4/QuadDec.c ****     return (QuadDec_COMP_CAP_REG & QuadDec_16BIT_MASK);
 1255              		.loc 1 1047 0
 1256              		.cfi_startproc
 1257              		@ args = 0, pretend = 0, frame = 0
 1258              		@ frame_needed = 0, uses_anonymous_args = 0
 1259              		@ link register save eliminated.
1048:Generated_Source\PSoC4/QuadDec.c **** }
 1260              		.loc 1 1048 0
 1261 0000 024B     		ldr	r3, .L82
1049:Generated_Source\PSoC4/QuadDec.c **** 
 1262              		.loc 1 1049 0
 1263              		@ sp needed
1048:Generated_Source\PSoC4/QuadDec.c **** }
 1264              		.loc 1 1048 0
 1265 0002 1868     		ldr	r0, [r3]
 1266 0004 0004     		lsls	r0, r0, #16
 1267 0006 000C     		lsrs	r0, r0, #16
1049:Generated_Source\PSoC4/QuadDec.c **** 
 1268              		.loc 1 1049 0
ARM GAS  C:\Users\AFDHAL~1\AppData\Local\Temp\ccSYCZD3.s 			page 50


 1269 0008 7047     		bx	lr
 1270              	.L83:
 1271 000a C046     		.align	2
 1272              	.L82:
 1273 000c 4C012040 		.word	1075839308
 1274              		.cfi_endproc
 1275              	.LFE27:
 1276              		.size	QuadDec_ReadCapture, .-QuadDec_ReadCapture
 1277              		.section	.text.QuadDec_ReadCaptureBuf,"ax",%progbits
 1278              		.align	2
 1279              		.global	QuadDec_ReadCaptureBuf
 1280              		.code	16
 1281              		.thumb_func
 1282              		.type	QuadDec_ReadCaptureBuf, %function
 1283              	QuadDec_ReadCaptureBuf:
 1284              	.LFB28:
1068:Generated_Source\PSoC4/QuadDec.c ****     return (QuadDec_COMP_CAP_BUF_REG & QuadDec_16BIT_MASK);
 1285              		.loc 1 1068 0
 1286              		.cfi_startproc
 1287              		@ args = 0, pretend = 0, frame = 0
 1288              		@ frame_needed = 0, uses_anonymous_args = 0
 1289              		@ link register save eliminated.
1069:Generated_Source\PSoC4/QuadDec.c **** }
 1290              		.loc 1 1069 0
 1291 0000 024B     		ldr	r3, .L85
1070:Generated_Source\PSoC4/QuadDec.c **** 
 1292              		.loc 1 1070 0
 1293              		@ sp needed
1069:Generated_Source\PSoC4/QuadDec.c **** }
 1294              		.loc 1 1069 0
 1295 0002 1868     		ldr	r0, [r3]
 1296 0004 0004     		lsls	r0, r0, #16
 1297 0006 000C     		lsrs	r0, r0, #16
1070:Generated_Source\PSoC4/QuadDec.c **** 
 1298              		.loc 1 1070 0
 1299 0008 7047     		bx	lr
 1300              	.L86:
 1301 000a C046     		.align	2
 1302              	.L85:
 1303 000c 50012040 		.word	1075839312
 1304              		.cfi_endproc
 1305              	.LFE28:
 1306              		.size	QuadDec_ReadCaptureBuf, .-QuadDec_ReadCaptureBuf
 1307              		.section	.text.QuadDec_SetCaptureMode,"ax",%progbits
 1308              		.align	2
 1309              		.global	QuadDec_SetCaptureMode
 1310              		.code	16
 1311              		.thumb_func
 1312              		.type	QuadDec_SetCaptureMode, %function
 1313              	QuadDec_SetCaptureMode:
 1314              	.LFB29:
1095:Generated_Source\PSoC4/QuadDec.c ****     uint8 enableInterrupts;
 1315              		.loc 1 1095 0
 1316              		.cfi_startproc
 1317              		@ args = 0, pretend = 0, frame = 0
 1318              		@ frame_needed = 0, uses_anonymous_args = 0
 1319              	.LVL78:
ARM GAS  C:\Users\AFDHAL~1\AppData\Local\Temp\ccSYCZD3.s 			page 51


 1320 0000 10B5     		push	{r4, lr}
 1321              		.cfi_def_cfa_offset 8
 1322              		.cfi_offset 4, -8
 1323              		.cfi_offset 14, -4
1095:Generated_Source\PSoC4/QuadDec.c ****     uint8 enableInterrupts;
 1324              		.loc 1 1095 0
 1325 0002 0400     		movs	r4, r0
1098:Generated_Source\PSoC4/QuadDec.c **** 
 1326              		.loc 1 1098 0
 1327 0004 FFF7FEFF 		bl	CyEnterCriticalSection
 1328              	.LVL79:
1100:Generated_Source\PSoC4/QuadDec.c ****     QuadDec_TRIG_CONTROL1_REG |= triggerMode;
 1329              		.loc 1 1100 0
 1330 0008 0321     		movs	r1, #3
 1331 000a 054B     		ldr	r3, .L88
1104:Generated_Source\PSoC4/QuadDec.c **** 
 1332              		.loc 1 1104 0
 1333              		@ sp needed
1100:Generated_Source\PSoC4/QuadDec.c ****     QuadDec_TRIG_CONTROL1_REG |= triggerMode;
 1334              		.loc 1 1100 0
 1335 000c 1A68     		ldr	r2, [r3]
 1336 000e 8A43     		bics	r2, r1
 1337 0010 1A60     		str	r2, [r3]
1101:Generated_Source\PSoC4/QuadDec.c **** 
 1338              		.loc 1 1101 0
 1339 0012 1A68     		ldr	r2, [r3]
 1340 0014 1443     		orrs	r4, r2
 1341              	.LVL80:
 1342 0016 1C60     		str	r4, [r3]
1103:Generated_Source\PSoC4/QuadDec.c **** }
 1343              		.loc 1 1103 0
 1344 0018 FFF7FEFF 		bl	CyExitCriticalSection
 1345              	.LVL81:
1104:Generated_Source\PSoC4/QuadDec.c **** 
 1346              		.loc 1 1104 0
 1347 001c 10BD     		pop	{r4, pc}
 1348              	.L89:
 1349 001e C046     		.align	2
 1350              	.L88:
 1351 0020 64012040 		.word	1075839332
 1352              		.cfi_endproc
 1353              	.LFE29:
 1354              		.size	QuadDec_SetCaptureMode, .-QuadDec_SetCaptureMode
 1355              		.section	.text.QuadDec_SetReloadMode,"ax",%progbits
 1356              		.align	2
 1357              		.global	QuadDec_SetReloadMode
 1358              		.code	16
 1359              		.thumb_func
 1360              		.type	QuadDec_SetReloadMode, %function
 1361              	QuadDec_SetReloadMode:
 1362              	.LFB30:
1128:Generated_Source\PSoC4/QuadDec.c ****     uint8 enableInterrupts;
 1363              		.loc 1 1128 0
 1364              		.cfi_startproc
 1365              		@ args = 0, pretend = 0, frame = 0
 1366              		@ frame_needed = 0, uses_anonymous_args = 0
 1367              	.LVL82:
ARM GAS  C:\Users\AFDHAL~1\AppData\Local\Temp\ccSYCZD3.s 			page 52


 1368 0000 10B5     		push	{r4, lr}
 1369              		.cfi_def_cfa_offset 8
 1370              		.cfi_offset 4, -8
 1371              		.cfi_offset 14, -4
1128:Generated_Source\PSoC4/QuadDec.c ****     uint8 enableInterrupts;
 1372              		.loc 1 1128 0
 1373 0002 0400     		movs	r4, r0
1131:Generated_Source\PSoC4/QuadDec.c **** 
 1374              		.loc 1 1131 0
 1375 0004 FFF7FEFF 		bl	CyEnterCriticalSection
 1376              	.LVL83:
1133:Generated_Source\PSoC4/QuadDec.c ****     QuadDec_TRIG_CONTROL1_REG |= ((uint32)(triggerMode << QuadDec_RELOAD_SHIFT));
 1377              		.loc 1 1133 0
 1378 0008 3021     		movs	r1, #48
 1379 000a 054B     		ldr	r3, .L91
1137:Generated_Source\PSoC4/QuadDec.c **** 
 1380              		.loc 1 1137 0
 1381              		@ sp needed
1133:Generated_Source\PSoC4/QuadDec.c ****     QuadDec_TRIG_CONTROL1_REG |= ((uint32)(triggerMode << QuadDec_RELOAD_SHIFT));
 1382              		.loc 1 1133 0
 1383 000c 1A68     		ldr	r2, [r3]
 1384 000e 8A43     		bics	r2, r1
 1385 0010 1A60     		str	r2, [r3]
1134:Generated_Source\PSoC4/QuadDec.c **** 
 1386              		.loc 1 1134 0
 1387 0012 1968     		ldr	r1, [r3]
 1388 0014 2201     		lsls	r2, r4, #4
 1389 0016 0A43     		orrs	r2, r1
 1390 0018 1A60     		str	r2, [r3]
1136:Generated_Source\PSoC4/QuadDec.c **** }
 1391              		.loc 1 1136 0
 1392 001a FFF7FEFF 		bl	CyExitCriticalSection
 1393              	.LVL84:
 1394              	.LVL85:
1137:Generated_Source\PSoC4/QuadDec.c **** 
 1395              		.loc 1 1137 0
 1396 001e 10BD     		pop	{r4, pc}
 1397              	.L92:
 1398              		.align	2
 1399              	.L91:
 1400 0020 64012040 		.word	1075839332
 1401              		.cfi_endproc
 1402              	.LFE30:
 1403              		.size	QuadDec_SetReloadMode, .-QuadDec_SetReloadMode
 1404              		.section	.text.QuadDec_SetStartMode,"ax",%progbits
 1405              		.align	2
 1406              		.global	QuadDec_SetStartMode
 1407              		.code	16
 1408              		.thumb_func
 1409              		.type	QuadDec_SetStartMode, %function
 1410              	QuadDec_SetStartMode:
 1411              	.LFB31:
1161:Generated_Source\PSoC4/QuadDec.c ****     uint8 enableInterrupts;
 1412              		.loc 1 1161 0
 1413              		.cfi_startproc
 1414              		@ args = 0, pretend = 0, frame = 0
 1415              		@ frame_needed = 0, uses_anonymous_args = 0
ARM GAS  C:\Users\AFDHAL~1\AppData\Local\Temp\ccSYCZD3.s 			page 53


 1416              	.LVL86:
 1417 0000 10B5     		push	{r4, lr}
 1418              		.cfi_def_cfa_offset 8
 1419              		.cfi_offset 4, -8
 1420              		.cfi_offset 14, -4
1161:Generated_Source\PSoC4/QuadDec.c ****     uint8 enableInterrupts;
 1421              		.loc 1 1161 0
 1422 0002 0400     		movs	r4, r0
1164:Generated_Source\PSoC4/QuadDec.c **** 
 1423              		.loc 1 1164 0
 1424 0004 FFF7FEFF 		bl	CyEnterCriticalSection
 1425              	.LVL87:
1166:Generated_Source\PSoC4/QuadDec.c ****     QuadDec_TRIG_CONTROL1_REG |= ((uint32)(triggerMode << QuadDec_START_SHIFT));
 1426              		.loc 1 1166 0
 1427 0008 054B     		ldr	r3, .L94
 1428 000a 064A     		ldr	r2, .L94+4
 1429 000c 1968     		ldr	r1, [r3]
1170:Generated_Source\PSoC4/QuadDec.c **** 
 1430              		.loc 1 1170 0
 1431              		@ sp needed
1166:Generated_Source\PSoC4/QuadDec.c ****     QuadDec_TRIG_CONTROL1_REG |= ((uint32)(triggerMode << QuadDec_START_SHIFT));
 1432              		.loc 1 1166 0
 1433 000e 0A40     		ands	r2, r1
 1434 0010 1A60     		str	r2, [r3]
1167:Generated_Source\PSoC4/QuadDec.c **** 
 1435              		.loc 1 1167 0
 1436 0012 1968     		ldr	r1, [r3]
 1437 0014 2202     		lsls	r2, r4, #8
 1438 0016 0A43     		orrs	r2, r1
 1439 0018 1A60     		str	r2, [r3]
1169:Generated_Source\PSoC4/QuadDec.c **** }
 1440              		.loc 1 1169 0
 1441 001a FFF7FEFF 		bl	CyExitCriticalSection
 1442              	.LVL88:
 1443              	.LVL89:
1170:Generated_Source\PSoC4/QuadDec.c **** 
 1444              		.loc 1 1170 0
 1445 001e 10BD     		pop	{r4, pc}
 1446              	.L95:
 1447              		.align	2
 1448              	.L94:
 1449 0020 64012040 		.word	1075839332
 1450 0024 FFFCFFFF 		.word	-769
 1451              		.cfi_endproc
 1452              	.LFE31:
 1453              		.size	QuadDec_SetStartMode, .-QuadDec_SetStartMode
 1454              		.section	.text.QuadDec_SetStopMode,"ax",%progbits
 1455              		.align	2
 1456              		.global	QuadDec_SetStopMode
 1457              		.code	16
 1458              		.thumb_func
 1459              		.type	QuadDec_SetStopMode, %function
 1460              	QuadDec_SetStopMode:
 1461              	.LFB32:
1193:Generated_Source\PSoC4/QuadDec.c ****     uint8 enableInterrupts;
 1462              		.loc 1 1193 0
 1463              		.cfi_startproc
ARM GAS  C:\Users\AFDHAL~1\AppData\Local\Temp\ccSYCZD3.s 			page 54


 1464              		@ args = 0, pretend = 0, frame = 0
 1465              		@ frame_needed = 0, uses_anonymous_args = 0
 1466              	.LVL90:
 1467 0000 10B5     		push	{r4, lr}
 1468              		.cfi_def_cfa_offset 8
 1469              		.cfi_offset 4, -8
 1470              		.cfi_offset 14, -4
1193:Generated_Source\PSoC4/QuadDec.c ****     uint8 enableInterrupts;
 1471              		.loc 1 1193 0
 1472 0002 0400     		movs	r4, r0
1196:Generated_Source\PSoC4/QuadDec.c **** 
 1473              		.loc 1 1196 0
 1474 0004 FFF7FEFF 		bl	CyEnterCriticalSection
 1475              	.LVL91:
1198:Generated_Source\PSoC4/QuadDec.c ****     QuadDec_TRIG_CONTROL1_REG |= ((uint32)(triggerMode << QuadDec_STOP_SHIFT));
 1476              		.loc 1 1198 0
 1477 0008 C021     		movs	r1, #192
 1478 000a 054B     		ldr	r3, .L97
1202:Generated_Source\PSoC4/QuadDec.c **** 
 1479              		.loc 1 1202 0
 1480              		@ sp needed
1198:Generated_Source\PSoC4/QuadDec.c ****     QuadDec_TRIG_CONTROL1_REG |= ((uint32)(triggerMode << QuadDec_STOP_SHIFT));
 1481              		.loc 1 1198 0
 1482 000c 1A68     		ldr	r2, [r3]
 1483 000e 8A43     		bics	r2, r1
 1484 0010 1A60     		str	r2, [r3]
1199:Generated_Source\PSoC4/QuadDec.c **** 
 1485              		.loc 1 1199 0
 1486 0012 1968     		ldr	r1, [r3]
 1487 0014 A201     		lsls	r2, r4, #6
 1488 0016 0A43     		orrs	r2, r1
 1489 0018 1A60     		str	r2, [r3]
1201:Generated_Source\PSoC4/QuadDec.c **** }
 1490              		.loc 1 1201 0
 1491 001a FFF7FEFF 		bl	CyExitCriticalSection
 1492              	.LVL92:
 1493              	.LVL93:
1202:Generated_Source\PSoC4/QuadDec.c **** 
 1494              		.loc 1 1202 0
 1495 001e 10BD     		pop	{r4, pc}
 1496              	.L98:
 1497              		.align	2
 1498              	.L97:
 1499 0020 64012040 		.word	1075839332
 1500              		.cfi_endproc
 1501              	.LFE32:
 1502              		.size	QuadDec_SetStopMode, .-QuadDec_SetStopMode
 1503              		.section	.text.QuadDec_SetCountMode,"ax",%progbits
 1504              		.align	2
 1505              		.global	QuadDec_SetCountMode
 1506              		.code	16
 1507              		.thumb_func
 1508              		.type	QuadDec_SetCountMode, %function
 1509              	QuadDec_SetCountMode:
 1510              	.LFB33:
1226:Generated_Source\PSoC4/QuadDec.c ****     uint8 enableInterrupts;
 1511              		.loc 1 1226 0
ARM GAS  C:\Users\AFDHAL~1\AppData\Local\Temp\ccSYCZD3.s 			page 55


 1512              		.cfi_startproc
 1513              		@ args = 0, pretend = 0, frame = 0
 1514              		@ frame_needed = 0, uses_anonymous_args = 0
 1515              	.LVL94:
 1516 0000 10B5     		push	{r4, lr}
 1517              		.cfi_def_cfa_offset 8
 1518              		.cfi_offset 4, -8
 1519              		.cfi_offset 14, -4
1226:Generated_Source\PSoC4/QuadDec.c ****     uint8 enableInterrupts;
 1520              		.loc 1 1226 0
 1521 0002 0400     		movs	r4, r0
1229:Generated_Source\PSoC4/QuadDec.c **** 
 1522              		.loc 1 1229 0
 1523 0004 FFF7FEFF 		bl	CyEnterCriticalSection
 1524              	.LVL95:
1231:Generated_Source\PSoC4/QuadDec.c ****     QuadDec_TRIG_CONTROL1_REG |= ((uint32)(triggerMode << QuadDec_COUNT_SHIFT));
 1525              		.loc 1 1231 0
 1526 0008 0C21     		movs	r1, #12
 1527 000a 054B     		ldr	r3, .L100
1235:Generated_Source\PSoC4/QuadDec.c **** 
 1528              		.loc 1 1235 0
 1529              		@ sp needed
1231:Generated_Source\PSoC4/QuadDec.c ****     QuadDec_TRIG_CONTROL1_REG |= ((uint32)(triggerMode << QuadDec_COUNT_SHIFT));
 1530              		.loc 1 1231 0
 1531 000c 1A68     		ldr	r2, [r3]
 1532 000e 8A43     		bics	r2, r1
 1533 0010 1A60     		str	r2, [r3]
1232:Generated_Source\PSoC4/QuadDec.c **** 
 1534              		.loc 1 1232 0
 1535 0012 1968     		ldr	r1, [r3]
 1536 0014 A200     		lsls	r2, r4, #2
 1537 0016 0A43     		orrs	r2, r1
 1538 0018 1A60     		str	r2, [r3]
1234:Generated_Source\PSoC4/QuadDec.c **** }
 1539              		.loc 1 1234 0
 1540 001a FFF7FEFF 		bl	CyExitCriticalSection
 1541              	.LVL96:
 1542              	.LVL97:
1235:Generated_Source\PSoC4/QuadDec.c **** 
 1543              		.loc 1 1235 0
 1544 001e 10BD     		pop	{r4, pc}
 1545              	.L101:
 1546              		.align	2
 1547              	.L100:
 1548 0020 64012040 		.word	1075839332
 1549              		.cfi_endproc
 1550              	.LFE33:
 1551              		.size	QuadDec_SetCountMode, .-QuadDec_SetCountMode
 1552              		.section	.text.QuadDec_TriggerCommand,"ax",%progbits
 1553              		.align	2
 1554              		.global	QuadDec_TriggerCommand
 1555              		.code	16
 1556              		.thumb_func
 1557              		.type	QuadDec_TriggerCommand, %function
 1558              	QuadDec_TriggerCommand:
 1559              	.LFB34:
1266:Generated_Source\PSoC4/QuadDec.c ****     uint8 enableInterrupts;
ARM GAS  C:\Users\AFDHAL~1\AppData\Local\Temp\ccSYCZD3.s 			page 56


 1560              		.loc 1 1266 0
 1561              		.cfi_startproc
 1562              		@ args = 0, pretend = 0, frame = 0
 1563              		@ frame_needed = 0, uses_anonymous_args = 0
 1564              	.LVL98:
 1565 0000 70B5     		push	{r4, r5, r6, lr}
 1566              		.cfi_def_cfa_offset 16
 1567              		.cfi_offset 4, -16
 1568              		.cfi_offset 5, -12
 1569              		.cfi_offset 6, -8
 1570              		.cfi_offset 14, -4
1266:Generated_Source\PSoC4/QuadDec.c ****     uint8 enableInterrupts;
 1571              		.loc 1 1266 0
 1572 0002 0D00     		movs	r5, r1
 1573 0004 0400     		movs	r4, r0
1271:Generated_Source\PSoC4/QuadDec.c **** 
 1574              		.loc 1 1271 0
 1575 0006 AC40     		lsls	r4, r4, r5
1269:Generated_Source\PSoC4/QuadDec.c **** 
 1576              		.loc 1 1269 0
 1577 0008 FFF7FEFF 		bl	CyEnterCriticalSection
 1578              	.LVL99:
1271:Generated_Source\PSoC4/QuadDec.c **** 
 1579              		.loc 1 1271 0
 1580 000c 024B     		ldr	r3, .L103
1274:Generated_Source\PSoC4/QuadDec.c **** 
 1581              		.loc 1 1274 0
 1582              		@ sp needed
1271:Generated_Source\PSoC4/QuadDec.c **** 
 1583              		.loc 1 1271 0
 1584 000e 1C60     		str	r4, [r3]
1273:Generated_Source\PSoC4/QuadDec.c **** }
 1585              		.loc 1 1273 0
 1586 0010 FFF7FEFF 		bl	CyExitCriticalSection
 1587              	.LVL100:
 1588              	.LVL101:
1274:Generated_Source\PSoC4/QuadDec.c **** 
 1589              		.loc 1 1274 0
 1590 0014 70BD     		pop	{r4, r5, r6, pc}
 1591              	.L104:
 1592 0016 C046     		.align	2
 1593              	.L103:
 1594 0018 08002040 		.word	1075838984
 1595              		.cfi_endproc
 1596              	.LFE34:
 1597              		.size	QuadDec_TriggerCommand, .-QuadDec_TriggerCommand
 1598              		.section	.text.QuadDec_ReadStatus,"ax",%progbits
 1599              		.align	2
 1600              		.global	QuadDec_ReadStatus
 1601              		.code	16
 1602              		.thumb_func
 1603              		.type	QuadDec_ReadStatus, %function
 1604              	QuadDec_ReadStatus:
 1605              	.LFB35:
1295:Generated_Source\PSoC4/QuadDec.c ****     return ((QuadDec_STATUS_REG >> QuadDec_RUNNING_STATUS_SHIFT) |
 1606              		.loc 1 1295 0
 1607              		.cfi_startproc
ARM GAS  C:\Users\AFDHAL~1\AppData\Local\Temp\ccSYCZD3.s 			page 57


 1608              		@ args = 0, pretend = 0, frame = 0
 1609              		@ frame_needed = 0, uses_anonymous_args = 0
 1610              		@ link register save eliminated.
1296:Generated_Source\PSoC4/QuadDec.c ****             (QuadDec_STATUS_REG & QuadDec_STATUS_DOWN));
 1611              		.loc 1 1296 0
 1612 0000 034B     		ldr	r3, .L106
1298:Generated_Source\PSoC4/QuadDec.c **** 
 1613              		.loc 1 1298 0
 1614              		@ sp needed
1296:Generated_Source\PSoC4/QuadDec.c ****             (QuadDec_STATUS_REG & QuadDec_STATUS_DOWN));
 1615              		.loc 1 1296 0
 1616 0002 1868     		ldr	r0, [r3]
1297:Generated_Source\PSoC4/QuadDec.c **** }
 1617              		.loc 1 1297 0
 1618 0004 1B68     		ldr	r3, [r3]
1296:Generated_Source\PSoC4/QuadDec.c ****             (QuadDec_STATUS_REG & QuadDec_STATUS_DOWN));
 1619              		.loc 1 1296 0
 1620 0006 820F     		lsrs	r2, r0, #30
 1621 0008 0120     		movs	r0, #1
 1622 000a 1840     		ands	r0, r3
 1623 000c 1043     		orrs	r0, r2
1298:Generated_Source\PSoC4/QuadDec.c **** 
 1624              		.loc 1 1298 0
 1625 000e 7047     		bx	lr
 1626              	.L107:
 1627              		.align	2
 1628              	.L106:
 1629 0010 44012040 		.word	1075839300
 1630              		.cfi_endproc
 1631              	.LFE35:
 1632              		.size	QuadDec_ReadStatus, .-QuadDec_ReadStatus
 1633              		.section	.text.QuadDec_SetInterruptMode,"ax",%progbits
 1634              		.align	2
 1635              		.global	QuadDec_SetInterruptMode
 1636              		.code	16
 1637              		.thumb_func
 1638              		.type	QuadDec_SetInterruptMode, %function
 1639              	QuadDec_SetInterruptMode:
 1640              	.LFB36:
1320:Generated_Source\PSoC4/QuadDec.c ****     QuadDec_INTERRUPT_MASK_REG =  interruptMask;
 1641              		.loc 1 1320 0
 1642              		.cfi_startproc
 1643              		@ args = 0, pretend = 0, frame = 0
 1644              		@ frame_needed = 0, uses_anonymous_args = 0
 1645              		@ link register save eliminated.
 1646              	.LVL102:
 1647              		.loc 1 1321 0
 1648 0000 014B     		ldr	r3, .L109
1322:Generated_Source\PSoC4/QuadDec.c **** }
 1649              		.loc 1 1322 0
 1650              		@ sp needed
1321:Generated_Source\PSoC4/QuadDec.c **** }
 1651              		.loc 1 1321 0
 1652 0002 1860     		str	r0, [r3]
 1653              		.loc 1 1322 0
 1654 0004 7047     		bx	lr
 1655              	.L110:
ARM GAS  C:\Users\AFDHAL~1\AppData\Local\Temp\ccSYCZD3.s 			page 58


 1656 0006 C046     		.align	2
 1657              	.L109:
 1658 0008 78012040 		.word	1075839352
 1659              		.cfi_endproc
 1660              	.LFE36:
 1661              		.size	QuadDec_SetInterruptMode, .-QuadDec_SetInterruptMode
 1662              		.section	.text.QuadDec_GetInterruptSourceMasked,"ax",%progbits
 1663              		.align	2
 1664              		.global	QuadDec_GetInterruptSourceMasked
 1665              		.code	16
 1666              		.thumb_func
 1667              		.type	QuadDec_GetInterruptSourceMasked, %function
 1668              	QuadDec_GetInterruptSourceMasked:
 1669              	.LFB37:
1323:Generated_Source\PSoC4/QuadDec.c **** 
1324:Generated_Source\PSoC4/QuadDec.c **** 
1325:Generated_Source\PSoC4/QuadDec.c **** /*******************************************************************************
1326:Generated_Source\PSoC4/QuadDec.c **** * Function Name: QuadDec_GetInterruptSourceMasked
1327:Generated_Source\PSoC4/QuadDec.c **** ********************************************************************************
1328:Generated_Source\PSoC4/QuadDec.c **** *
1329:Generated_Source\PSoC4/QuadDec.c **** * Summary:
1330:Generated_Source\PSoC4/QuadDec.c **** *  Gets the interrupt requests masked by the interrupt mask.
1331:Generated_Source\PSoC4/QuadDec.c **** *
1332:Generated_Source\PSoC4/QuadDec.c **** * Parameters:
1333:Generated_Source\PSoC4/QuadDec.c **** *   None
1334:Generated_Source\PSoC4/QuadDec.c **** *
1335:Generated_Source\PSoC4/QuadDec.c **** * Return:
1336:Generated_Source\PSoC4/QuadDec.c **** *  Masked interrupt source
1337:Generated_Source\PSoC4/QuadDec.c **** *   Values:
1338:Generated_Source\PSoC4/QuadDec.c **** *     - QuadDec_INTR_MASK_TC       - Terminal count mask
1339:Generated_Source\PSoC4/QuadDec.c **** *     - QuadDec_INTR_MASK_CC_MATCH - Compare count / capture mask
1340:Generated_Source\PSoC4/QuadDec.c **** *
1341:Generated_Source\PSoC4/QuadDec.c **** *******************************************************************************/
1342:Generated_Source\PSoC4/QuadDec.c **** uint32 QuadDec_GetInterruptSourceMasked(void)
1343:Generated_Source\PSoC4/QuadDec.c **** {
 1670              		.loc 1 1343 0
 1671              		.cfi_startproc
 1672              		@ args = 0, pretend = 0, frame = 0
 1673              		@ frame_needed = 0, uses_anonymous_args = 0
 1674              		@ link register save eliminated.
1344:Generated_Source\PSoC4/QuadDec.c ****     return (QuadDec_INTERRUPT_MASKED_REG);
 1675              		.loc 1 1344 0
 1676 0000 014B     		ldr	r3, .L112
1345:Generated_Source\PSoC4/QuadDec.c **** }
 1677              		.loc 1 1345 0
 1678              		@ sp needed
1344:Generated_Source\PSoC4/QuadDec.c ****     return (QuadDec_INTERRUPT_MASKED_REG);
 1679              		.loc 1 1344 0
 1680 0002 1868     		ldr	r0, [r3]
 1681              		.loc 1 1345 0
 1682 0004 7047     		bx	lr
 1683              	.L113:
 1684 0006 C046     		.align	2
 1685              	.L112:
 1686 0008 7C012040 		.word	1075839356
 1687              		.cfi_endproc
 1688              	.LFE37:
ARM GAS  C:\Users\AFDHAL~1\AppData\Local\Temp\ccSYCZD3.s 			page 59


 1689              		.size	QuadDec_GetInterruptSourceMasked, .-QuadDec_GetInterruptSourceMasked
 1690              		.section	.text.QuadDec_GetInterruptSource,"ax",%progbits
 1691              		.align	2
 1692              		.global	QuadDec_GetInterruptSource
 1693              		.code	16
 1694              		.thumb_func
 1695              		.type	QuadDec_GetInterruptSource, %function
 1696              	QuadDec_GetInterruptSource:
 1697              	.LFB38:
1346:Generated_Source\PSoC4/QuadDec.c **** 
1347:Generated_Source\PSoC4/QuadDec.c **** 
1348:Generated_Source\PSoC4/QuadDec.c **** /*******************************************************************************
1349:Generated_Source\PSoC4/QuadDec.c **** * Function Name: QuadDec_GetInterruptSource
1350:Generated_Source\PSoC4/QuadDec.c **** ********************************************************************************
1351:Generated_Source\PSoC4/QuadDec.c **** *
1352:Generated_Source\PSoC4/QuadDec.c **** * Summary:
1353:Generated_Source\PSoC4/QuadDec.c **** *  Gets the interrupt requests (without masking).
1354:Generated_Source\PSoC4/QuadDec.c **** *
1355:Generated_Source\PSoC4/QuadDec.c **** * Parameters:
1356:Generated_Source\PSoC4/QuadDec.c **** *  None
1357:Generated_Source\PSoC4/QuadDec.c **** *
1358:Generated_Source\PSoC4/QuadDec.c **** * Return:
1359:Generated_Source\PSoC4/QuadDec.c **** *  Interrupt request value
1360:Generated_Source\PSoC4/QuadDec.c **** *   Values:
1361:Generated_Source\PSoC4/QuadDec.c **** *     - QuadDec_INTR_MASK_TC       - Terminal count mask
1362:Generated_Source\PSoC4/QuadDec.c **** *     - QuadDec_INTR_MASK_CC_MATCH - Compare count / capture mask
1363:Generated_Source\PSoC4/QuadDec.c **** *
1364:Generated_Source\PSoC4/QuadDec.c **** *******************************************************************************/
1365:Generated_Source\PSoC4/QuadDec.c **** uint32 QuadDec_GetInterruptSource(void)
1366:Generated_Source\PSoC4/QuadDec.c **** {
 1698              		.loc 1 1366 0
 1699              		.cfi_startproc
 1700              		@ args = 0, pretend = 0, frame = 0
 1701              		@ frame_needed = 0, uses_anonymous_args = 0
 1702              		@ link register save eliminated.
1367:Generated_Source\PSoC4/QuadDec.c ****     return (QuadDec_INTERRUPT_REQ_REG);
 1703              		.loc 1 1367 0
 1704 0000 014B     		ldr	r3, .L115
1368:Generated_Source\PSoC4/QuadDec.c **** }
 1705              		.loc 1 1368 0
 1706              		@ sp needed
1367:Generated_Source\PSoC4/QuadDec.c ****     return (QuadDec_INTERRUPT_REQ_REG);
 1707              		.loc 1 1367 0
 1708 0002 1868     		ldr	r0, [r3]
 1709              		.loc 1 1368 0
 1710 0004 7047     		bx	lr
 1711              	.L116:
 1712 0006 C046     		.align	2
 1713              	.L115:
 1714 0008 70012040 		.word	1075839344
 1715              		.cfi_endproc
 1716              	.LFE38:
 1717              		.size	QuadDec_GetInterruptSource, .-QuadDec_GetInterruptSource
 1718              		.section	.text.QuadDec_ClearInterrupt,"ax",%progbits
 1719              		.align	2
 1720              		.global	QuadDec_ClearInterrupt
 1721              		.code	16
ARM GAS  C:\Users\AFDHAL~1\AppData\Local\Temp\ccSYCZD3.s 			page 60


 1722              		.thumb_func
 1723              		.type	QuadDec_ClearInterrupt, %function
 1724              	QuadDec_ClearInterrupt:
 1725              	.LFB39:
1369:Generated_Source\PSoC4/QuadDec.c **** 
1370:Generated_Source\PSoC4/QuadDec.c **** 
1371:Generated_Source\PSoC4/QuadDec.c **** /*******************************************************************************
1372:Generated_Source\PSoC4/QuadDec.c **** * Function Name: QuadDec_ClearInterrupt
1373:Generated_Source\PSoC4/QuadDec.c **** ********************************************************************************
1374:Generated_Source\PSoC4/QuadDec.c **** *
1375:Generated_Source\PSoC4/QuadDec.c **** * Summary:
1376:Generated_Source\PSoC4/QuadDec.c **** *  Clears the interrupt request.
1377:Generated_Source\PSoC4/QuadDec.c **** *
1378:Generated_Source\PSoC4/QuadDec.c **** * Parameters:
1379:Generated_Source\PSoC4/QuadDec.c **** *   interruptMask: Mask of interrupts to clear
1380:Generated_Source\PSoC4/QuadDec.c **** *   Values:
1381:Generated_Source\PSoC4/QuadDec.c **** *     - QuadDec_INTR_MASK_TC       - Terminal count mask
1382:Generated_Source\PSoC4/QuadDec.c **** *     - QuadDec_INTR_MASK_CC_MATCH - Compare count / capture mask
1383:Generated_Source\PSoC4/QuadDec.c **** *
1384:Generated_Source\PSoC4/QuadDec.c **** * Return:
1385:Generated_Source\PSoC4/QuadDec.c **** *  None
1386:Generated_Source\PSoC4/QuadDec.c **** *
1387:Generated_Source\PSoC4/QuadDec.c **** *******************************************************************************/
1388:Generated_Source\PSoC4/QuadDec.c **** void QuadDec_ClearInterrupt(uint32 interruptMask)
1389:Generated_Source\PSoC4/QuadDec.c **** {
 1726              		.loc 1 1389 0
 1727              		.cfi_startproc
 1728              		@ args = 0, pretend = 0, frame = 0
 1729              		@ frame_needed = 0, uses_anonymous_args = 0
 1730              		@ link register save eliminated.
 1731              	.LVL103:
1390:Generated_Source\PSoC4/QuadDec.c ****     QuadDec_INTERRUPT_REQ_REG = interruptMask;
 1732              		.loc 1 1390 0
 1733 0000 014B     		ldr	r3, .L118
1391:Generated_Source\PSoC4/QuadDec.c **** }
 1734              		.loc 1 1391 0
 1735              		@ sp needed
1390:Generated_Source\PSoC4/QuadDec.c ****     QuadDec_INTERRUPT_REQ_REG = interruptMask;
 1736              		.loc 1 1390 0
 1737 0002 1860     		str	r0, [r3]
 1738              		.loc 1 1391 0
 1739 0004 7047     		bx	lr
 1740              	.L119:
 1741 0006 C046     		.align	2
 1742              	.L118:
 1743 0008 70012040 		.word	1075839344
 1744              		.cfi_endproc
 1745              	.LFE39:
 1746              		.size	QuadDec_ClearInterrupt, .-QuadDec_ClearInterrupt
 1747              		.section	.text.QuadDec_SetInterrupt,"ax",%progbits
 1748              		.align	2
 1749              		.global	QuadDec_SetInterrupt
 1750              		.code	16
 1751              		.thumb_func
 1752              		.type	QuadDec_SetInterrupt, %function
 1753              	QuadDec_SetInterrupt:
 1754              	.LFB40:
ARM GAS  C:\Users\AFDHAL~1\AppData\Local\Temp\ccSYCZD3.s 			page 61


1392:Generated_Source\PSoC4/QuadDec.c **** 
1393:Generated_Source\PSoC4/QuadDec.c **** 
1394:Generated_Source\PSoC4/QuadDec.c **** /*******************************************************************************
1395:Generated_Source\PSoC4/QuadDec.c **** * Function Name: QuadDec_SetInterrupt
1396:Generated_Source\PSoC4/QuadDec.c **** ********************************************************************************
1397:Generated_Source\PSoC4/QuadDec.c **** *
1398:Generated_Source\PSoC4/QuadDec.c **** * Summary:
1399:Generated_Source\PSoC4/QuadDec.c **** *  Sets a software interrupt request.
1400:Generated_Source\PSoC4/QuadDec.c **** *
1401:Generated_Source\PSoC4/QuadDec.c **** * Parameters:
1402:Generated_Source\PSoC4/QuadDec.c **** *   interruptMask: Mask of interrupts to set
1403:Generated_Source\PSoC4/QuadDec.c **** *   Values:
1404:Generated_Source\PSoC4/QuadDec.c **** *     - QuadDec_INTR_MASK_TC       - Terminal count mask
1405:Generated_Source\PSoC4/QuadDec.c **** *     - QuadDec_INTR_MASK_CC_MATCH - Compare count / capture mask
1406:Generated_Source\PSoC4/QuadDec.c **** *
1407:Generated_Source\PSoC4/QuadDec.c **** * Return:
1408:Generated_Source\PSoC4/QuadDec.c **** *  None
1409:Generated_Source\PSoC4/QuadDec.c **** *
1410:Generated_Source\PSoC4/QuadDec.c **** *******************************************************************************/
1411:Generated_Source\PSoC4/QuadDec.c **** void QuadDec_SetInterrupt(uint32 interruptMask)
1412:Generated_Source\PSoC4/QuadDec.c **** {
 1755              		.loc 1 1412 0
 1756              		.cfi_startproc
 1757              		@ args = 0, pretend = 0, frame = 0
 1758              		@ frame_needed = 0, uses_anonymous_args = 0
 1759              		@ link register save eliminated.
 1760              	.LVL104:
1413:Generated_Source\PSoC4/QuadDec.c ****     QuadDec_INTERRUPT_SET_REG = interruptMask;
 1761              		.loc 1 1413 0
 1762 0000 014B     		ldr	r3, .L121
1414:Generated_Source\PSoC4/QuadDec.c **** }
 1763              		.loc 1 1414 0
 1764              		@ sp needed
1413:Generated_Source\PSoC4/QuadDec.c ****     QuadDec_INTERRUPT_SET_REG = interruptMask;
 1765              		.loc 1 1413 0
 1766 0002 1860     		str	r0, [r3]
 1767              		.loc 1 1414 0
 1768 0004 7047     		bx	lr
 1769              	.L122:
 1770 0006 C046     		.align	2
 1771              	.L121:
 1772 0008 74012040 		.word	1075839348
 1773              		.cfi_endproc
 1774              	.LFE40:
 1775              		.size	QuadDec_SetInterrupt, .-QuadDec_SetInterrupt
 1776              		.global	QuadDec_initVar
 1777              		.bss
 1778              		.set	.LANCHOR0,. + 0
 1779              		.type	QuadDec_initVar, %object
 1780              		.size	QuadDec_initVar, 1
 1781              	QuadDec_initVar:
 1782 0000 00       		.space	1
 1783              		.text
 1784              	.Letext0:
 1785              		.file 2 "Generated_Source\\PSoC4\\cytypes.h"
 1786              		.file 3 "Generated_Source\\PSoC4\\CyLib.h"
 1787              		.section	.debug_info,"",%progbits
ARM GAS  C:\Users\AFDHAL~1\AppData\Local\Temp\ccSYCZD3.s 			page 62


 1788              	.Ldebug_info0:
 1789 0000 EF0A0000 		.4byte	0xaef
 1790 0004 0400     		.2byte	0x4
 1791 0006 00000000 		.4byte	.Ldebug_abbrev0
 1792 000a 04       		.byte	0x4
 1793 000b 01       		.uleb128 0x1
 1794 000c 93000000 		.4byte	.LASF76
 1795 0010 0C       		.byte	0xc
 1796 0011 AD020000 		.4byte	.LASF77
 1797 0015 65040000 		.4byte	.LASF78
 1798 0019 30000000 		.4byte	.Ldebug_ranges0+0x30
 1799 001d 00000000 		.4byte	0
 1800 0021 00000000 		.4byte	.Ldebug_line0
 1801 0025 02       		.uleb128 0x2
 1802 0026 01       		.byte	0x1
 1803 0027 06       		.byte	0x6
 1804 0028 2F010000 		.4byte	.LASF0
 1805 002c 02       		.uleb128 0x2
 1806 002d 01       		.byte	0x1
 1807 002e 08       		.byte	0x8
 1808 002f 14040000 		.4byte	.LASF1
 1809 0033 02       		.uleb128 0x2
 1810 0034 02       		.byte	0x2
 1811 0035 05       		.byte	0x5
 1812 0036 45040000 		.4byte	.LASF2
 1813 003a 02       		.uleb128 0x2
 1814 003b 02       		.byte	0x2
 1815 003c 07       		.byte	0x7
 1816 003d 17030000 		.4byte	.LASF3
 1817 0041 02       		.uleb128 0x2
 1818 0042 04       		.byte	0x4
 1819 0043 05       		.byte	0x5
 1820 0044 93010000 		.4byte	.LASF4
 1821 0048 02       		.uleb128 0x2
 1822 0049 04       		.byte	0x4
 1823 004a 07       		.byte	0x7
 1824 004b CE020000 		.4byte	.LASF5
 1825 004f 02       		.uleb128 0x2
 1826 0050 08       		.byte	0x8
 1827 0051 05       		.byte	0x5
 1828 0052 21010000 		.4byte	.LASF6
 1829 0056 02       		.uleb128 0x2
 1830 0057 08       		.byte	0x8
 1831 0058 07       		.byte	0x7
 1832 0059 38000000 		.4byte	.LASF7
 1833 005d 03       		.uleb128 0x3
 1834 005e 04       		.byte	0x4
 1835 005f 05       		.byte	0x5
 1836 0060 696E7400 		.ascii	"int\000"
 1837 0064 02       		.uleb128 0x2
 1838 0065 04       		.byte	0x4
 1839 0066 07       		.byte	0x7
 1840 0067 7D020000 		.4byte	.LASF8
 1841 006b 04       		.uleb128 0x4
 1842 006c AF010000 		.4byte	.LASF9
 1843 0070 02       		.byte	0x2
 1844 0071 D201     		.2byte	0x1d2
ARM GAS  C:\Users\AFDHAL~1\AppData\Local\Temp\ccSYCZD3.s 			page 63


 1845 0073 2C000000 		.4byte	0x2c
 1846 0077 04       		.uleb128 0x4
 1847 0078 FC010000 		.4byte	.LASF10
 1848 007c 02       		.byte	0x2
 1849 007d D401     		.2byte	0x1d4
 1850 007f 48000000 		.4byte	0x48
 1851 0083 02       		.uleb128 0x2
 1852 0084 04       		.byte	0x4
 1853 0085 04       		.byte	0x4
 1854 0086 F0030000 		.4byte	.LASF11
 1855 008a 02       		.uleb128 0x2
 1856 008b 08       		.byte	0x8
 1857 008c 04       		.byte	0x4
 1858 008d B5010000 		.4byte	.LASF12
 1859 0091 02       		.uleb128 0x2
 1860 0092 01       		.byte	0x1
 1861 0093 08       		.byte	0x8
 1862 0094 18050000 		.4byte	.LASF13
 1863 0098 04       		.uleb128 0x4
 1864 0099 85030000 		.4byte	.LASF14
 1865 009d 02       		.byte	0x2
 1866 009e 7E02     		.2byte	0x27e
 1867 00a0 A4000000 		.4byte	0xa4
 1868 00a4 05       		.uleb128 0x5
 1869 00a5 77000000 		.4byte	0x77
 1870 00a9 02       		.uleb128 0x2
 1871 00aa 08       		.byte	0x8
 1872 00ab 04       		.byte	0x4
 1873 00ac A0030000 		.4byte	.LASF15
 1874 00b0 02       		.uleb128 0x2
 1875 00b1 04       		.byte	0x4
 1876 00b2 07       		.byte	0x7
 1877 00b3 97030000 		.4byte	.LASF16
 1878 00b7 06       		.uleb128 0x6
 1879 00b8 D9030000 		.4byte	.LASF19
 1880 00bc 01       		.byte	0x1
 1881 00bd F104     		.2byte	0x4f1
 1882 00bf 01       		.byte	0x1
 1883 00c0 E9000000 		.4byte	0xe9
 1884 00c4 07       		.uleb128 0x7
 1885 00c5 0F020000 		.4byte	.LASF17
 1886 00c9 01       		.byte	0x1
 1887 00ca F104     		.2byte	0x4f1
 1888 00cc 77000000 		.4byte	0x77
 1889 00d0 07       		.uleb128 0x7
 1890 00d1 A5020000 		.4byte	.LASF18
 1891 00d5 01       		.byte	0x1
 1892 00d6 F104     		.2byte	0x4f1
 1893 00d8 77000000 		.4byte	0x77
 1894 00dc 08       		.uleb128 0x8
 1895 00dd 4E050000 		.4byte	.LASF28
 1896 00e1 01       		.byte	0x1
 1897 00e2 F304     		.2byte	0x4f3
 1898 00e4 6B000000 		.4byte	0x6b
 1899 00e8 00       		.byte	0
 1900 00e9 06       		.uleb128 0x6
 1901 00ea 4B030000 		.4byte	.LASF20
ARM GAS  C:\Users\AFDHAL~1\AppData\Local\Temp\ccSYCZD3.s 			page 64


 1902 00ee 01       		.byte	0x1
 1903 00ef 6702     		.2byte	0x267
 1904 00f1 01       		.byte	0x1
 1905 00f2 03010000 		.4byte	0x103
 1906 00f6 07       		.uleb128 0x7
 1907 00f7 00000000 		.4byte	.LASF21
 1908 00fb 01       		.byte	0x1
 1909 00fc 6702     		.2byte	0x267
 1910 00fe 77000000 		.4byte	0x77
 1911 0102 00       		.byte	0
 1912 0103 06       		.uleb128 0x6
 1913 0104 BC010000 		.4byte	.LASF22
 1914 0108 01       		.byte	0x1
 1915 0109 B502     		.2byte	0x2b5
 1916 010b 01       		.byte	0x1
 1917 010c 1D010000 		.4byte	0x11d
 1918 0110 07       		.uleb128 0x7
 1919 0111 31000000 		.4byte	.LASF23
 1920 0115 01       		.byte	0x1
 1921 0116 B502     		.2byte	0x2b5
 1922 0118 77000000 		.4byte	0x77
 1923 011c 00       		.byte	0
 1924 011d 06       		.uleb128 0x6
 1925 011e E9040000 		.4byte	.LASF24
 1926 0122 01       		.byte	0x1
 1927 0123 2705     		.2byte	0x527
 1928 0125 01       		.byte	0x1
 1929 0126 37010000 		.4byte	0x137
 1930 012a 07       		.uleb128 0x7
 1931 012b C6040000 		.4byte	.LASF25
 1932 012f 01       		.byte	0x1
 1933 0130 2705     		.2byte	0x527
 1934 0132 77000000 		.4byte	0x77
 1935 0136 00       		.byte	0
 1936 0137 09       		.uleb128 0x9
 1937 0138 36050000 		.4byte	.LASF79
 1938 013c 01       		.byte	0x1
 1939 013d 26       		.byte	0x26
 1940 013e 01       		.byte	0x1
 1941 013f 06       		.uleb128 0x6
 1942 0140 7C000000 		.4byte	.LASF26
 1943 0144 01       		.byte	0x1
 1944 0145 9802     		.2byte	0x298
 1945 0147 01       		.byte	0x1
 1946 0148 65010000 		.4byte	0x165
 1947 014c 07       		.uleb128 0x7
 1948 014d 8B030000 		.4byte	.LASF27
 1949 0151 01       		.byte	0x1
 1950 0152 9802     		.2byte	0x298
 1951 0154 77000000 		.4byte	0x77
 1952 0158 08       		.uleb128 0x8
 1953 0159 4E050000 		.4byte	.LASF28
 1954 015d 01       		.byte	0x1
 1955 015e 9A02     		.2byte	0x29a
 1956 0160 6B000000 		.4byte	0x6b
 1957 0164 00       		.byte	0
 1958 0165 0A       		.uleb128 0xa
ARM GAS  C:\Users\AFDHAL~1\AppData\Local\Temp\ccSYCZD3.s 			page 65


 1959 0166 37010000 		.4byte	0x137
 1960 016a 00000000 		.4byte	.LFB1
 1961 016e 58000000 		.4byte	.LFE1-.LFB1
 1962 0172 01       		.uleb128 0x1
 1963 0173 9C       		.byte	0x9c
 1964 0174 0E020000 		.4byte	0x20e
 1965 0178 0B       		.uleb128 0xb
 1966 0179 1D010000 		.4byte	0x11d
 1967 017d 12000000 		.4byte	.LBB26
 1968 0181 00000000 		.4byte	.Ldebug_ranges0+0
 1969 0185 01       		.byte	0x1
 1970 0186 31       		.byte	0x31
 1971 0187 95010000 		.4byte	0x195
 1972 018b 0C       		.uleb128 0xc
 1973 018c 2A010000 		.4byte	0x12a
 1974 0190 00000000 		.4byte	.LLST0
 1975 0194 00       		.byte	0
 1976 0195 0D       		.uleb128 0xd
 1977 0196 3F010000 		.4byte	0x13f
 1978 019a 18000000 		.4byte	.LBB30
 1979 019e 1A000000 		.4byte	.LBE30-.LBB30
 1980 01a2 01       		.byte	0x1
 1981 01a3 34       		.byte	0x34
 1982 01a4 D7010000 		.4byte	0x1d7
 1983 01a8 0C       		.uleb128 0xc
 1984 01a9 4C010000 		.4byte	0x14c
 1985 01ad 14000000 		.4byte	.LLST1
 1986 01b1 0E       		.uleb128 0xe
 1987 01b2 18000000 		.4byte	.LBB31
 1988 01b6 1A000000 		.4byte	.LBE31-.LBB31
 1989 01ba 0F       		.uleb128 0xf
 1990 01bb 58010000 		.4byte	0x158
 1991 01bf 2A000000 		.4byte	.LLST2
 1992 01c3 10       		.uleb128 0x10
 1993 01c4 1C000000 		.4byte	.LVL2
 1994 01c8 DC0A0000 		.4byte	0xadc
 1995 01cc 10       		.uleb128 0x10
 1996 01cd 32000000 		.4byte	.LVL3
 1997 01d1 E70A0000 		.4byte	0xae7
 1998 01d5 00       		.byte	0
 1999 01d6 00       		.byte	0
 2000 01d7 0D       		.uleb128 0xd
 2001 01d8 03010000 		.4byte	0x103
 2002 01dc 32000000 		.4byte	.LBB32
 2003 01e0 08000000 		.4byte	.LBE32-.LBB32
 2004 01e4 01       		.byte	0x1
 2005 01e5 35       		.byte	0x35
 2006 01e6 F4010000 		.4byte	0x1f4
 2007 01ea 0C       		.uleb128 0xc
 2008 01eb 10010000 		.4byte	0x110
 2009 01ef 3D000000 		.4byte	.LLST3
 2010 01f3 00       		.byte	0
 2011 01f4 11       		.uleb128 0x11
 2012 01f5 E9000000 		.4byte	0xe9
 2013 01f9 3A000000 		.4byte	.LBB34
 2014 01fd 04000000 		.4byte	.LBE34-.LBB34
 2015 0201 01       		.byte	0x1
ARM GAS  C:\Users\AFDHAL~1\AppData\Local\Temp\ccSYCZD3.s 			page 66


 2016 0202 36       		.byte	0x36
 2017 0203 0C       		.uleb128 0xc
 2018 0204 F6000000 		.4byte	0xf6
 2019 0208 53000000 		.4byte	.LLST4
 2020 020c 00       		.byte	0
 2021 020d 00       		.byte	0
 2022 020e 12       		.uleb128 0x12
 2023 020f B9050000 		.4byte	.LASF29
 2024 0213 01       		.byte	0x1
 2025 0214 B1       		.byte	0xb1
 2026 0215 01       		.byte	0x1
 2027 0216 26020000 		.4byte	0x226
 2028 021a 13       		.uleb128 0x13
 2029 021b 4E050000 		.4byte	.LASF28
 2030 021f 01       		.byte	0x1
 2031 0220 B3       		.byte	0xb3
 2032 0221 6B000000 		.4byte	0x6b
 2033 0225 00       		.byte	0
 2034 0226 0A       		.uleb128 0xa
 2035 0227 0E020000 		.4byte	0x20e
 2036 022b 00000000 		.4byte	.LFB2
 2037 022f 30000000 		.4byte	.LFE2-.LFB2
 2038 0233 01       		.uleb128 0x1
 2039 0234 9C       		.byte	0x9c
 2040 0235 A0020000 		.4byte	0x2a0
 2041 0239 0F       		.uleb128 0xf
 2042 023a 1A020000 		.4byte	0x21a
 2043 023e 69000000 		.4byte	.LLST5
 2044 0242 0D       		.uleb128 0xd
 2045 0243 B7000000 		.4byte	0xb7
 2046 0247 14000000 		.4byte	.LBB38
 2047 024b 10000000 		.4byte	.LBE38-.LBB38
 2048 024f 01       		.byte	0x1
 2049 0250 C8       		.byte	0xc8
 2050 0251 8D020000 		.4byte	0x28d
 2051 0255 0C       		.uleb128 0xc
 2052 0256 D0000000 		.4byte	0xd0
 2053 025a 7C000000 		.4byte	.LLST6
 2054 025e 0C       		.uleb128 0xc
 2055 025f C4000000 		.4byte	0xc4
 2056 0263 90000000 		.4byte	.LLST7
 2057 0267 0E       		.uleb128 0xe
 2058 0268 14000000 		.4byte	.LBB39
 2059 026c 10000000 		.4byte	.LBE39-.LBB39
 2060 0270 0F       		.uleb128 0xf
 2061 0271 DC000000 		.4byte	0xdc
 2062 0275 A4000000 		.4byte	.LLST8
 2063 0279 10       		.uleb128 0x10
 2064 027a 18000000 		.4byte	.LVL8
 2065 027e DC0A0000 		.4byte	0xadc
 2066 0282 10       		.uleb128 0x10
 2067 0283 24000000 		.4byte	.LVL9
 2068 0287 E70A0000 		.4byte	0xae7
 2069 028b 00       		.byte	0
 2070 028c 00       		.byte	0
 2071 028d 10       		.uleb128 0x10
 2072 028e 06000000 		.4byte	.LVL6
ARM GAS  C:\Users\AFDHAL~1\AppData\Local\Temp\ccSYCZD3.s 			page 67


 2073 0292 DC0A0000 		.4byte	0xadc
 2074 0296 10       		.uleb128 0x10
 2075 0297 14000000 		.4byte	.LVL7
 2076 029b E70A0000 		.4byte	0xae7
 2077 029f 00       		.byte	0
 2078 02a0 14       		.uleb128 0x14
 2079 02a1 67000000 		.4byte	.LASF30
 2080 02a5 01       		.byte	0x1
 2081 02a6 E6       		.byte	0xe6
 2082 02a7 00000000 		.4byte	.LFB3
 2083 02ab 90000000 		.4byte	.LFE3-.LFB3
 2084 02af 01       		.uleb128 0x1
 2085 02b0 9C       		.byte	0x9c
 2086 02b1 DB030000 		.4byte	0x3db
 2087 02b5 0D       		.uleb128 0xd
 2088 02b6 37010000 		.4byte	0x137
 2089 02ba 0A000000 		.4byte	.LBB54
 2090 02be 3A000000 		.4byte	.LBE54-.LBB54
 2091 02c2 01       		.byte	0x1
 2092 02c3 EA       		.byte	0xea
 2093 02c4 5E030000 		.4byte	0x35e
 2094 02c8 0D       		.uleb128 0xd
 2095 02c9 1D010000 		.4byte	0x11d
 2096 02cd 1A000000 		.4byte	.LBB56
 2097 02d1 04000000 		.4byte	.LBE56-.LBB56
 2098 02d5 01       		.byte	0x1
 2099 02d6 31       		.byte	0x31
 2100 02d7 E5020000 		.4byte	0x2e5
 2101 02db 0C       		.uleb128 0xc
 2102 02dc 2A010000 		.4byte	0x12a
 2103 02e0 B7000000 		.4byte	.LLST9
 2104 02e4 00       		.byte	0
 2105 02e5 0D       		.uleb128 0xd
 2106 02e6 3F010000 		.4byte	0x13f
 2107 02ea 1E000000 		.4byte	.LBB58
 2108 02ee 1A000000 		.4byte	.LBE58-.LBB58
 2109 02f2 01       		.byte	0x1
 2110 02f3 34       		.byte	0x34
 2111 02f4 27030000 		.4byte	0x327
 2112 02f8 0C       		.uleb128 0xc
 2113 02f9 4C010000 		.4byte	0x14c
 2114 02fd CB000000 		.4byte	.LLST10
 2115 0301 0E       		.uleb128 0xe
 2116 0302 1E000000 		.4byte	.LBB59
 2117 0306 1A000000 		.4byte	.LBE59-.LBB59
 2118 030a 0F       		.uleb128 0xf
 2119 030b 58010000 		.4byte	0x158
 2120 030f E1000000 		.4byte	.LLST11
 2121 0313 10       		.uleb128 0x10
 2122 0314 22000000 		.4byte	.LVL12
 2123 0318 DC0A0000 		.4byte	0xadc
 2124 031c 10       		.uleb128 0x10
 2125 031d 38000000 		.4byte	.LVL13
 2126 0321 E70A0000 		.4byte	0xae7
 2127 0325 00       		.byte	0
 2128 0326 00       		.byte	0
 2129 0327 0D       		.uleb128 0xd
ARM GAS  C:\Users\AFDHAL~1\AppData\Local\Temp\ccSYCZD3.s 			page 68


 2130 0328 03010000 		.4byte	0x103
 2131 032c 38000000 		.4byte	.LBB60
 2132 0330 08000000 		.4byte	.LBE60-.LBB60
 2133 0334 01       		.byte	0x1
 2134 0335 35       		.byte	0x35
 2135 0336 44030000 		.4byte	0x344
 2136 033a 0C       		.uleb128 0xc
 2137 033b 10010000 		.4byte	0x110
 2138 033f F4000000 		.4byte	.LLST12
 2139 0343 00       		.byte	0
 2140 0344 11       		.uleb128 0x11
 2141 0345 E9000000 		.4byte	0xe9
 2142 0349 40000000 		.4byte	.LBB62
 2143 034d 04000000 		.4byte	.LBE62-.LBB62
 2144 0351 01       		.byte	0x1
 2145 0352 36       		.byte	0x36
 2146 0353 0C       		.uleb128 0xc
 2147 0354 F6000000 		.4byte	0xf6
 2148 0358 0A010000 		.4byte	.LLST13
 2149 035c 00       		.byte	0
 2150 035d 00       		.byte	0
 2151 035e 15       		.uleb128 0x15
 2152 035f 0E020000 		.4byte	0x20e
 2153 0363 48000000 		.4byte	.LBB64
 2154 0367 18000000 		.4byte	.Ldebug_ranges0+0x18
 2155 036b 01       		.byte	0x1
 2156 036c EE       		.byte	0xee
 2157 036d 16       		.uleb128 0x16
 2158 036e 18000000 		.4byte	.Ldebug_ranges0+0x18
 2159 0372 0F       		.uleb128 0xf
 2160 0373 1A020000 		.4byte	0x21a
 2161 0377 20010000 		.4byte	.LLST14
 2162 037b 0D       		.uleb128 0xd
 2163 037c B7000000 		.4byte	0xb7
 2164 0380 5A000000 		.4byte	.LBB66
 2165 0384 10000000 		.4byte	.LBE66-.LBB66
 2166 0388 01       		.byte	0x1
 2167 0389 C8       		.byte	0xc8
 2168 038a C6030000 		.4byte	0x3c6
 2169 038e 0C       		.uleb128 0xc
 2170 038f D0000000 		.4byte	0xd0
 2171 0393 33010000 		.4byte	.LLST15
 2172 0397 0C       		.uleb128 0xc
 2173 0398 C4000000 		.4byte	0xc4
 2174 039c 47010000 		.4byte	.LLST16
 2175 03a0 0E       		.uleb128 0xe
 2176 03a1 5A000000 		.4byte	.LBB67
 2177 03a5 10000000 		.4byte	.LBE67-.LBB67
 2178 03a9 0F       		.uleb128 0xf
 2179 03aa DC000000 		.4byte	0xdc
 2180 03ae 5B010000 		.4byte	.LLST17
 2181 03b2 10       		.uleb128 0x10
 2182 03b3 5E000000 		.4byte	.LVL18
 2183 03b7 DC0A0000 		.4byte	0xadc
 2184 03bb 10       		.uleb128 0x10
 2185 03bc 6A000000 		.4byte	.LVL19
 2186 03c0 E70A0000 		.4byte	0xae7
ARM GAS  C:\Users\AFDHAL~1\AppData\Local\Temp\ccSYCZD3.s 			page 69


 2187 03c4 00       		.byte	0
 2188 03c5 00       		.byte	0
 2189 03c6 10       		.uleb128 0x10
 2190 03c7 4C000000 		.4byte	.LVL16
 2191 03cb DC0A0000 		.4byte	0xadc
 2192 03cf 10       		.uleb128 0x10
 2193 03d0 5A000000 		.4byte	.LVL17
 2194 03d4 E70A0000 		.4byte	0xae7
 2195 03d8 00       		.byte	0
 2196 03d9 00       		.byte	0
 2197 03da 00       		.byte	0
 2198 03db 17       		.uleb128 0x17
 2199 03dc 3E030000 		.4byte	.LASF31
 2200 03e0 01       		.byte	0x1
 2201 03e1 0001     		.2byte	0x100
 2202 03e3 00000000 		.4byte	.LFB4
 2203 03e7 1C000000 		.4byte	.LFE4-.LFB4
 2204 03eb 01       		.uleb128 0x1
 2205 03ec 9C       		.byte	0x9c
 2206 03ed 14040000 		.4byte	0x414
 2207 03f1 18       		.uleb128 0x18
 2208 03f2 4E050000 		.4byte	.LASF28
 2209 03f6 01       		.byte	0x1
 2210 03f7 0201     		.2byte	0x102
 2211 03f9 6B000000 		.4byte	0x6b
 2212 03fd 6E010000 		.4byte	.LLST18
 2213 0401 10       		.uleb128 0x10
 2214 0402 06000000 		.4byte	.LVL20
 2215 0406 DC0A0000 		.4byte	0xadc
 2216 040a 10       		.uleb128 0x10
 2217 040b 14000000 		.4byte	.LVL21
 2218 040f E70A0000 		.4byte	0xae7
 2219 0413 00       		.byte	0
 2220 0414 17       		.uleb128 0x17
 2221 0415 E9050000 		.4byte	.LASF32
 2222 0419 01       		.byte	0x1
 2223 041a 2501     		.2byte	0x125
 2224 041c 00000000 		.4byte	.LFB5
 2225 0420 28000000 		.4byte	.LFE5-.LFB5
 2226 0424 01       		.uleb128 0x1
 2227 0425 9C       		.byte	0x9c
 2228 0426 5D040000 		.4byte	0x45d
 2229 042a 19       		.uleb128 0x19
 2230 042b 1D050000 		.4byte	.LASF34
 2231 042f 01       		.byte	0x1
 2232 0430 2501     		.2byte	0x125
 2233 0432 77000000 		.4byte	0x77
 2234 0436 81010000 		.4byte	.LLST19
 2235 043a 18       		.uleb128 0x18
 2236 043b 4E050000 		.4byte	.LASF28
 2237 043f 01       		.byte	0x1
 2238 0440 2701     		.2byte	0x127
 2239 0442 6B000000 		.4byte	0x6b
 2240 0446 AD010000 		.4byte	.LLST20
 2241 044a 10       		.uleb128 0x10
 2242 044b 08000000 		.4byte	.LVL23
 2243 044f DC0A0000 		.4byte	0xadc
ARM GAS  C:\Users\AFDHAL~1\AppData\Local\Temp\ccSYCZD3.s 			page 70


 2244 0453 10       		.uleb128 0x10
 2245 0454 1C000000 		.4byte	.LVL25
 2246 0458 E70A0000 		.4byte	0xae7
 2247 045c 00       		.byte	0
 2248 045d 17       		.uleb128 0x17
 2249 045e 22040000 		.4byte	.LASF33
 2250 0462 01       		.byte	0x1
 2251 0463 4601     		.2byte	0x146
 2252 0465 00000000 		.4byte	.LFB6
 2253 0469 28000000 		.4byte	.LFE6-.LFB6
 2254 046d 01       		.uleb128 0x1
 2255 046e 9C       		.byte	0x9c
 2256 046f A6040000 		.4byte	0x4a6
 2257 0473 19       		.uleb128 0x19
 2258 0474 75000000 		.4byte	.LASF35
 2259 0478 01       		.byte	0x1
 2260 0479 4601     		.2byte	0x146
 2261 047b 77000000 		.4byte	0x77
 2262 047f C0010000 		.4byte	.LLST21
 2263 0483 18       		.uleb128 0x18
 2264 0484 4E050000 		.4byte	.LASF28
 2265 0488 01       		.byte	0x1
 2266 0489 4801     		.2byte	0x148
 2267 048b 6B000000 		.4byte	0x6b
 2268 048f EC010000 		.4byte	.LLST22
 2269 0493 10       		.uleb128 0x10
 2270 0494 08000000 		.4byte	.LVL27
 2271 0498 DC0A0000 		.4byte	0xadc
 2272 049c 10       		.uleb128 0x10
 2273 049d 1C000000 		.4byte	.LVL29
 2274 04a1 E70A0000 		.4byte	0xae7
 2275 04a5 00       		.byte	0
 2276 04a6 17       		.uleb128 0x17
 2277 04a7 D4040000 		.4byte	.LASF36
 2278 04ab 01       		.byte	0x1
 2279 04ac 6B01     		.2byte	0x16b
 2280 04ae 00000000 		.4byte	.LFB7
 2281 04b2 28000000 		.4byte	.LFE7-.LFB7
 2282 04b6 01       		.uleb128 0x1
 2283 04b7 9C       		.byte	0x9c
 2284 04b8 EF040000 		.4byte	0x4ef
 2285 04bc 19       		.uleb128 0x19
 2286 04bd F6030000 		.4byte	.LASF37
 2287 04c1 01       		.byte	0x1
 2288 04c2 6B01     		.2byte	0x16b
 2289 04c4 77000000 		.4byte	0x77
 2290 04c8 FF010000 		.4byte	.LLST23
 2291 04cc 18       		.uleb128 0x18
 2292 04cd 4E050000 		.4byte	.LASF28
 2293 04d1 01       		.byte	0x1
 2294 04d2 6D01     		.2byte	0x16d
 2295 04d4 6B000000 		.4byte	0x6b
 2296 04d8 2B020000 		.4byte	.LLST24
 2297 04dc 10       		.uleb128 0x10
 2298 04dd 08000000 		.4byte	.LVL31
 2299 04e1 DC0A0000 		.4byte	0xadc
 2300 04e5 10       		.uleb128 0x10
ARM GAS  C:\Users\AFDHAL~1\AppData\Local\Temp\ccSYCZD3.s 			page 71


 2301 04e6 1C000000 		.4byte	.LVL33
 2302 04ea E70A0000 		.4byte	0xae7
 2303 04ee 00       		.byte	0
 2304 04ef 17       		.uleb128 0x17
 2305 04f0 9C010000 		.4byte	.LASF38
 2306 04f4 01       		.byte	0x1
 2307 04f5 8B01     		.2byte	0x18b
 2308 04f7 00000000 		.4byte	.LFB8
 2309 04fb 30000000 		.4byte	.LFE8-.LFB8
 2310 04ff 01       		.uleb128 0x1
 2311 0500 9C       		.byte	0x9c
 2312 0501 38050000 		.4byte	0x538
 2313 0505 19       		.uleb128 0x19
 2314 0506 60030000 		.4byte	.LASF39
 2315 050a 01       		.byte	0x1
 2316 050b 8B01     		.2byte	0x18b
 2317 050d 77000000 		.4byte	0x77
 2318 0511 3E020000 		.4byte	.LLST25
 2319 0515 18       		.uleb128 0x18
 2320 0516 4E050000 		.4byte	.LASF28
 2321 051a 01       		.byte	0x1
 2322 051b 8D01     		.2byte	0x18d
 2323 051d 6B000000 		.4byte	0x6b
 2324 0521 6A020000 		.4byte	.LLST26
 2325 0525 10       		.uleb128 0x10
 2326 0526 08000000 		.4byte	.LVL35
 2327 052a DC0A0000 		.4byte	0xadc
 2328 052e 10       		.uleb128 0x10
 2329 052f 24000000 		.4byte	.LVL37
 2330 0533 E70A0000 		.4byte	0xae7
 2331 0537 00       		.byte	0
 2332 0538 17       		.uleb128 0x17
 2333 0539 6A020000 		.4byte	.LASF40
 2334 053d 01       		.byte	0x1
 2335 053e C101     		.2byte	0x1c1
 2336 0540 00000000 		.4byte	.LFB9
 2337 0544 10000000 		.4byte	.LFE9-.LFB9
 2338 0548 01       		.uleb128 0x1
 2339 0549 9C       		.byte	0x9c
 2340 054a 5F050000 		.4byte	0x55f
 2341 054e 19       		.uleb128 0x19
 2342 054f E0020000 		.4byte	.LASF41
 2343 0553 01       		.byte	0x1
 2344 0554 C101     		.2byte	0x1c1
 2345 0556 77000000 		.4byte	0x77
 2346 055a 7D020000 		.4byte	.LLST27
 2347 055e 00       		.byte	0
 2348 055f 17       		.uleb128 0x17
 2349 0560 4E010000 		.4byte	.LASF42
 2350 0564 01       		.byte	0x1
 2351 0565 E501     		.2byte	0x1e5
 2352 0567 00000000 		.4byte	.LFB10
 2353 056b 28000000 		.4byte	.LFE10-.LFB10
 2354 056f 01       		.uleb128 0x1
 2355 0570 9C       		.byte	0x9c
 2356 0571 A8050000 		.4byte	0x5a8
 2357 0575 19       		.uleb128 0x19
ARM GAS  C:\Users\AFDHAL~1\AppData\Local\Temp\ccSYCZD3.s 			page 72


 2358 0576 8C050000 		.4byte	.LASF43
 2359 057a 01       		.byte	0x1
 2360 057b E501     		.2byte	0x1e5
 2361 057d 77000000 		.4byte	0x77
 2362 0581 9E020000 		.4byte	.LLST28
 2363 0585 18       		.uleb128 0x18
 2364 0586 4E050000 		.4byte	.LASF28
 2365 058a 01       		.byte	0x1
 2366 058b E701     		.2byte	0x1e7
 2367 058d 6B000000 		.4byte	0x6b
 2368 0591 CA020000 		.4byte	.LLST29
 2369 0595 10       		.uleb128 0x10
 2370 0596 08000000 		.4byte	.LVL41
 2371 059a DC0A0000 		.4byte	0xadc
 2372 059e 10       		.uleb128 0x10
 2373 059f 20000000 		.4byte	.LVL43
 2374 05a3 E70A0000 		.4byte	0xae7
 2375 05a7 00       		.byte	0
 2376 05a8 17       		.uleb128 0x17
 2377 05a9 65010000 		.4byte	.LASF44
 2378 05ad 01       		.byte	0x1
 2379 05ae 0702     		.2byte	0x207
 2380 05b0 00000000 		.4byte	.LFB11
 2381 05b4 28000000 		.4byte	.LFE11-.LFB11
 2382 05b8 01       		.uleb128 0x1
 2383 05b9 9C       		.byte	0x9c
 2384 05ba F1050000 		.4byte	0x5f1
 2385 05be 19       		.uleb128 0x19
 2386 05bf 34040000 		.4byte	.LASF45
 2387 05c3 01       		.byte	0x1
 2388 05c4 0702     		.2byte	0x207
 2389 05c6 77000000 		.4byte	0x77
 2390 05ca DD020000 		.4byte	.LLST30
 2391 05ce 18       		.uleb128 0x18
 2392 05cf 4E050000 		.4byte	.LASF28
 2393 05d3 01       		.byte	0x1
 2394 05d4 0902     		.2byte	0x209
 2395 05d6 6B000000 		.4byte	0x6b
 2396 05da 09030000 		.4byte	.LLST31
 2397 05de 10       		.uleb128 0x10
 2398 05df 08000000 		.4byte	.LVL45
 2399 05e3 DC0A0000 		.4byte	0xadc
 2400 05e7 10       		.uleb128 0x10
 2401 05e8 20000000 		.4byte	.LVL47
 2402 05ec E70A0000 		.4byte	0xae7
 2403 05f0 00       		.byte	0
 2404 05f1 17       		.uleb128 0x17
 2405 05f2 6E030000 		.4byte	.LASF46
 2406 05f6 01       		.byte	0x1
 2407 05f7 2802     		.2byte	0x228
 2408 05f9 00000000 		.4byte	.LFB12
 2409 05fd 2C000000 		.4byte	.LFE12-.LFB12
 2410 0601 01       		.uleb128 0x1
 2411 0602 9C       		.byte	0x9c
 2412 0603 3A060000 		.4byte	0x63a
 2413 0607 19       		.uleb128 0x19
 2414 0608 61020000 		.4byte	.LASF47
ARM GAS  C:\Users\AFDHAL~1\AppData\Local\Temp\ccSYCZD3.s 			page 73


 2415 060c 01       		.byte	0x1
 2416 060d 2802     		.2byte	0x228
 2417 060f 77000000 		.4byte	0x77
 2418 0613 1C030000 		.4byte	.LLST32
 2419 0617 18       		.uleb128 0x18
 2420 0618 4E050000 		.4byte	.LASF28
 2421 061c 01       		.byte	0x1
 2422 061d 2A02     		.2byte	0x22a
 2423 061f 6B000000 		.4byte	0x6b
 2424 0623 48030000 		.4byte	.LLST33
 2425 0627 10       		.uleb128 0x10
 2426 0628 08000000 		.4byte	.LVL49
 2427 062c DC0A0000 		.4byte	0xadc
 2428 0630 10       		.uleb128 0x10
 2429 0631 20000000 		.4byte	.LVL51
 2430 0635 E70A0000 		.4byte	0xae7
 2431 0639 00       		.byte	0
 2432 063a 17       		.uleb128 0x17
 2433 063b B4030000 		.4byte	.LASF48
 2434 063f 01       		.byte	0x1
 2435 0640 4902     		.2byte	0x249
 2436 0642 00000000 		.4byte	.LFB13
 2437 0646 28000000 		.4byte	.LFE13-.LFB13
 2438 064a 01       		.uleb128 0x1
 2439 064b 9C       		.byte	0x9c
 2440 064c 83060000 		.4byte	0x683
 2441 0650 19       		.uleb128 0x19
 2442 0651 0F020000 		.4byte	.LASF17
 2443 0655 01       		.byte	0x1
 2444 0656 4902     		.2byte	0x249
 2445 0658 77000000 		.4byte	0x77
 2446 065c 5B030000 		.4byte	.LLST34
 2447 0660 18       		.uleb128 0x18
 2448 0661 4E050000 		.4byte	.LASF28
 2449 0665 01       		.byte	0x1
 2450 0666 4B02     		.2byte	0x24b
 2451 0668 6B000000 		.4byte	0x6b
 2452 066c 87030000 		.4byte	.LLST35
 2453 0670 10       		.uleb128 0x10
 2454 0671 08000000 		.4byte	.LVL53
 2455 0675 DC0A0000 		.4byte	0xadc
 2456 0679 10       		.uleb128 0x10
 2457 067a 1C000000 		.4byte	.LVL55
 2458 067e E70A0000 		.4byte	0xae7
 2459 0682 00       		.byte	0
 2460 0683 0A       		.uleb128 0xa
 2461 0684 E9000000 		.4byte	0xe9
 2462 0688 00000000 		.4byte	.LFB14
 2463 068c 10000000 		.4byte	.LFE14-.LFB14
 2464 0690 01       		.uleb128 0x1
 2465 0691 9C       		.byte	0x9c
 2466 0692 A0060000 		.4byte	0x6a0
 2467 0696 0C       		.uleb128 0xc
 2468 0697 F6000000 		.4byte	0xf6
 2469 069b 9A030000 		.4byte	.LLST36
 2470 069f 00       		.byte	0
 2471 06a0 1A       		.uleb128 0x1a
ARM GAS  C:\Users\AFDHAL~1\AppData\Local\Temp\ccSYCZD3.s 			page 74


 2472 06a1 00040000 		.4byte	.LASF49
 2473 06a5 01       		.byte	0x1
 2474 06a6 7B02     		.2byte	0x27b
 2475 06a8 77000000 		.4byte	0x77
 2476 06ac 00000000 		.4byte	.LFB15
 2477 06b0 10000000 		.4byte	.LFE15-.LFB15
 2478 06b4 01       		.uleb128 0x1
 2479 06b5 9C       		.byte	0x9c
 2480 06b6 0A       		.uleb128 0xa
 2481 06b7 3F010000 		.4byte	0x13f
 2482 06bb 00000000 		.4byte	.LFB16
 2483 06bf 28000000 		.4byte	.LFE16-.LFB16
 2484 06c3 01       		.uleb128 0x1
 2485 06c4 9C       		.byte	0x9c
 2486 06c5 EE060000 		.4byte	0x6ee
 2487 06c9 0C       		.uleb128 0xc
 2488 06ca 4C010000 		.4byte	0x14c
 2489 06ce BB030000 		.4byte	.LLST37
 2490 06d2 0F       		.uleb128 0xf
 2491 06d3 58010000 		.4byte	0x158
 2492 06d7 E7030000 		.4byte	.LLST38
 2493 06db 10       		.uleb128 0x10
 2494 06dc 08000000 		.4byte	.LVL59
 2495 06e0 DC0A0000 		.4byte	0xadc
 2496 06e4 10       		.uleb128 0x10
 2497 06e5 1C000000 		.4byte	.LVL61
 2498 06e9 E70A0000 		.4byte	0xae7
 2499 06ed 00       		.byte	0
 2500 06ee 0A       		.uleb128 0xa
 2501 06ef 03010000 		.4byte	0x103
 2502 06f3 00000000 		.4byte	.LFB17
 2503 06f7 10000000 		.4byte	.LFE17-.LFB17
 2504 06fb 01       		.uleb128 0x1
 2505 06fc 9C       		.byte	0x9c
 2506 06fd 0B070000 		.4byte	0x70b
 2507 0701 0C       		.uleb128 0xc
 2508 0702 10010000 		.4byte	0x110
 2509 0706 FA030000 		.4byte	.LLST39
 2510 070a 00       		.byte	0
 2511 070b 1A       		.uleb128 0x1a
 2512 070c 3B010000 		.4byte	.LASF50
 2513 0710 01       		.byte	0x1
 2514 0711 C902     		.2byte	0x2c9
 2515 0713 77000000 		.4byte	0x77
 2516 0717 00000000 		.4byte	.LFB18
 2517 071b 10000000 		.4byte	.LFE18-.LFB18
 2518 071f 01       		.uleb128 0x1
 2519 0720 9C       		.byte	0x9c
 2520 0721 17       		.uleb128 0x17
 2521 0722 00030000 		.4byte	.LASF51
 2522 0726 01       		.byte	0x1
 2523 0727 E302     		.2byte	0x2e3
 2524 0729 00000000 		.4byte	.LFB19
 2525 072d 24000000 		.4byte	.LFE19-.LFB19
 2526 0731 01       		.uleb128 0x1
 2527 0732 9C       		.byte	0x9c
 2528 0733 6A070000 		.4byte	0x76a
ARM GAS  C:\Users\AFDHAL~1\AppData\Local\Temp\ccSYCZD3.s 			page 75


 2529 0737 19       		.uleb128 0x19
 2530 0738 9B050000 		.4byte	.LASF52
 2531 073c 01       		.byte	0x1
 2532 073d E302     		.2byte	0x2e3
 2533 073f 77000000 		.4byte	0x77
 2534 0743 1B040000 		.4byte	.LLST40
 2535 0747 18       		.uleb128 0x18
 2536 0748 4E050000 		.4byte	.LASF28
 2537 074c 01       		.byte	0x1
 2538 074d E502     		.2byte	0x2e5
 2539 074f 6B000000 		.4byte	0x6b
 2540 0753 47040000 		.4byte	.LLST41
 2541 0757 10       		.uleb128 0x10
 2542 0758 08000000 		.4byte	.LVL65
 2543 075c DC0A0000 		.4byte	0xadc
 2544 0760 10       		.uleb128 0x10
 2545 0761 1E000000 		.4byte	.LVL66
 2546 0765 E70A0000 		.4byte	0xae7
 2547 0769 00       		.byte	0
 2548 076a 17       		.uleb128 0x17
 2549 076b 75050000 		.4byte	.LASF53
 2550 076f 01       		.byte	0x1
 2551 0770 FE02     		.2byte	0x2fe
 2552 0772 00000000 		.4byte	.LFB20
 2553 0776 10000000 		.4byte	.LFE20-.LFB20
 2554 077a 01       		.uleb128 0x1
 2555 077b 9C       		.byte	0x9c
 2556 077c 91070000 		.4byte	0x791
 2557 0780 19       		.uleb128 0x19
 2558 0781 C8050000 		.4byte	.LASF54
 2559 0785 01       		.byte	0x1
 2560 0786 FE02     		.2byte	0x2fe
 2561 0788 77000000 		.4byte	0x77
 2562 078c 5A040000 		.4byte	.LLST42
 2563 0790 00       		.byte	0
 2564 0791 1A       		.uleb128 0x1a
 2565 0792 4F040000 		.4byte	.LASF55
 2566 0796 01       		.byte	0x1
 2567 0797 1203     		.2byte	0x312
 2568 0799 77000000 		.4byte	0x77
 2569 079d 00000000 		.4byte	.LFB21
 2570 07a1 10000000 		.4byte	.LFE21-.LFB21
 2571 07a5 01       		.uleb128 0x1
 2572 07a6 9C       		.byte	0x9c
 2573 07a7 17       		.uleb128 0x17
 2574 07a8 5F050000 		.4byte	.LASF56
 2575 07ac 01       		.byte	0x1
 2576 07ad 2C03     		.2byte	0x32c
 2577 07af 00000000 		.4byte	.LFB22
 2578 07b3 28000000 		.4byte	.LFE22-.LFB22
 2579 07b7 01       		.uleb128 0x1
 2580 07b8 9C       		.byte	0x9c
 2581 07b9 F0070000 		.4byte	0x7f0
 2582 07bd 19       		.uleb128 0x19
 2583 07be 9B050000 		.4byte	.LASF52
 2584 07c2 01       		.byte	0x1
 2585 07c3 2C03     		.2byte	0x32c
ARM GAS  C:\Users\AFDHAL~1\AppData\Local\Temp\ccSYCZD3.s 			page 76


 2586 07c5 77000000 		.4byte	0x77
 2587 07c9 7B040000 		.4byte	.LLST43
 2588 07cd 18       		.uleb128 0x18
 2589 07ce 4E050000 		.4byte	.LASF28
 2590 07d2 01       		.byte	0x1
 2591 07d3 2E03     		.2byte	0x32e
 2592 07d5 6B000000 		.4byte	0x6b
 2593 07d9 A7040000 		.4byte	.LLST44
 2594 07dd 10       		.uleb128 0x10
 2595 07de 08000000 		.4byte	.LVL71
 2596 07e2 DC0A0000 		.4byte	0xadc
 2597 07e6 10       		.uleb128 0x10
 2598 07e7 20000000 		.4byte	.LVL73
 2599 07eb E70A0000 		.4byte	0xae7
 2600 07ef 00       		.byte	0
 2601 07f0 17       		.uleb128 0x17
 2602 07f1 14020000 		.4byte	.LASF57
 2603 07f5 01       		.byte	0x1
 2604 07f6 5103     		.2byte	0x351
 2605 07f8 00000000 		.4byte	.LFB23
 2606 07fc 10000000 		.4byte	.LFE23-.LFB23
 2607 0800 01       		.uleb128 0x1
 2608 0801 9C       		.byte	0x9c
 2609 0802 17080000 		.4byte	0x817
 2610 0806 19       		.uleb128 0x19
 2611 0807 AC030000 		.4byte	.LASF58
 2612 080b 01       		.byte	0x1
 2613 080c 5103     		.2byte	0x351
 2614 080e 77000000 		.4byte	0x77
 2615 0812 BA040000 		.4byte	.LLST45
 2616 0816 00       		.byte	0
 2617 0817 17       		.uleb128 0x17
 2618 0818 4F000000 		.4byte	.LASF59
 2619 081c 01       		.byte	0x1
 2620 081d BA03     		.2byte	0x3ba
 2621 081f 00000000 		.4byte	.LFB25
 2622 0823 10000000 		.4byte	.LFE25-.LFB25
 2623 0827 01       		.uleb128 0x1
 2624 0828 9C       		.byte	0x9c
 2625 0829 3E080000 		.4byte	0x83e
 2626 082d 19       		.uleb128 0x19
 2627 082e 43050000 		.4byte	.LASF60
 2628 0832 01       		.byte	0x1
 2629 0833 BA03     		.2byte	0x3ba
 2630 0835 77000000 		.4byte	0x77
 2631 0839 DB040000 		.4byte	.LLST46
 2632 083d 00       		.byte	0
 2633 083e 1B       		.uleb128 0x1b
 2634 083f 2A030000 		.4byte	.LASF61
 2635 0843 01       		.byte	0x1
 2636 0844 1604     		.2byte	0x416
 2637 0846 77000000 		.4byte	0x77
 2638 084a 01       		.byte	0x1
 2639 084b 1C       		.uleb128 0x1c
 2640 084c 3E080000 		.4byte	0x83e
 2641 0850 00000000 		.4byte	.LFB27
 2642 0854 10000000 		.4byte	.LFE27-.LFB27
ARM GAS  C:\Users\AFDHAL~1\AppData\Local\Temp\ccSYCZD3.s 			page 77


 2643 0858 01       		.uleb128 0x1
 2644 0859 9C       		.byte	0x9c
 2645 085a 1B       		.uleb128 0x1b
 2646 085b D2050000 		.4byte	.LASF62
 2647 085f 01       		.byte	0x1
 2648 0860 2B04     		.2byte	0x42b
 2649 0862 77000000 		.4byte	0x77
 2650 0866 01       		.byte	0x1
 2651 0867 1C       		.uleb128 0x1c
 2652 0868 5A080000 		.4byte	0x85a
 2653 086c 00000000 		.4byte	.LFB28
 2654 0870 10000000 		.4byte	.LFE28-.LFB28
 2655 0874 01       		.uleb128 0x1
 2656 0875 9C       		.byte	0x9c
 2657 0876 17       		.uleb128 0x17
 2658 0877 D0010000 		.4byte	.LASF63
 2659 087b 01       		.byte	0x1
 2660 087c 4604     		.2byte	0x446
 2661 087e 00000000 		.4byte	.LFB29
 2662 0882 24000000 		.4byte	.LFE29-.LFB29
 2663 0886 01       		.uleb128 0x1
 2664 0887 9C       		.byte	0x9c
 2665 0888 BF080000 		.4byte	0x8bf
 2666 088c 19       		.uleb128 0x19
 2667 088d 03020000 		.4byte	.LASF64
 2668 0891 01       		.byte	0x1
 2669 0892 4604     		.2byte	0x446
 2670 0894 77000000 		.4byte	0x77
 2671 0898 FC040000 		.4byte	.LLST47
 2672 089c 18       		.uleb128 0x18
 2673 089d 4E050000 		.4byte	.LASF28
 2674 08a1 01       		.byte	0x1
 2675 08a2 4804     		.2byte	0x448
 2676 08a4 6B000000 		.4byte	0x6b
 2677 08a8 28050000 		.4byte	.LLST48
 2678 08ac 10       		.uleb128 0x10
 2679 08ad 08000000 		.4byte	.LVL79
 2680 08b1 DC0A0000 		.4byte	0xadc
 2681 08b5 10       		.uleb128 0x10
 2682 08b6 1C000000 		.4byte	.LVL81
 2683 08ba E70A0000 		.4byte	0xae7
 2684 08be 00       		.byte	0
 2685 08bf 17       		.uleb128 0x17
 2686 08c0 02050000 		.4byte	.LASF65
 2687 08c4 01       		.byte	0x1
 2688 08c5 6704     		.2byte	0x467
 2689 08c7 00000000 		.4byte	.LFB30
 2690 08cb 24000000 		.4byte	.LFE30-.LFB30
 2691 08cf 01       		.uleb128 0x1
 2692 08d0 9C       		.byte	0x9c
 2693 08d1 08090000 		.4byte	0x908
 2694 08d5 19       		.uleb128 0x19
 2695 08d6 03020000 		.4byte	.LASF64
 2696 08da 01       		.byte	0x1
 2697 08db 6704     		.2byte	0x467
 2698 08dd 77000000 		.4byte	0x77
 2699 08e1 3B050000 		.4byte	.LLST49
ARM GAS  C:\Users\AFDHAL~1\AppData\Local\Temp\ccSYCZD3.s 			page 78


 2700 08e5 18       		.uleb128 0x18
 2701 08e6 4E050000 		.4byte	.LASF28
 2702 08ea 01       		.byte	0x1
 2703 08eb 6904     		.2byte	0x469
 2704 08ed 6B000000 		.4byte	0x6b
 2705 08f1 67050000 		.4byte	.LLST50
 2706 08f5 10       		.uleb128 0x10
 2707 08f6 08000000 		.4byte	.LVL83
 2708 08fa DC0A0000 		.4byte	0xadc
 2709 08fe 10       		.uleb128 0x10
 2710 08ff 1E000000 		.4byte	.LVL84
 2711 0903 E70A0000 		.4byte	0xae7
 2712 0907 00       		.byte	0
 2713 0908 17       		.uleb128 0x17
 2714 0909 E7010000 		.4byte	.LASF66
 2715 090d 01       		.byte	0x1
 2716 090e 8804     		.2byte	0x488
 2717 0910 00000000 		.4byte	.LFB31
 2718 0914 28000000 		.4byte	.LFE31-.LFB31
 2719 0918 01       		.uleb128 0x1
 2720 0919 9C       		.byte	0x9c
 2721 091a 51090000 		.4byte	0x951
 2722 091e 19       		.uleb128 0x19
 2723 091f 03020000 		.4byte	.LASF64
 2724 0923 01       		.byte	0x1
 2725 0924 8804     		.2byte	0x488
 2726 0926 77000000 		.4byte	0x77
 2727 092a 7A050000 		.4byte	.LLST51
 2728 092e 18       		.uleb128 0x18
 2729 092f 4E050000 		.4byte	.LASF28
 2730 0933 01       		.byte	0x1
 2731 0934 8A04     		.2byte	0x48a
 2732 0936 6B000000 		.4byte	0x6b
 2733 093a A6050000 		.4byte	.LLST52
 2734 093e 10       		.uleb128 0x10
 2735 093f 08000000 		.4byte	.LVL87
 2736 0943 DC0A0000 		.4byte	0xadc
 2737 0947 10       		.uleb128 0x10
 2738 0948 1E000000 		.4byte	.LVL88
 2739 094c E70A0000 		.4byte	0xae7
 2740 0950 00       		.byte	0
 2741 0951 17       		.uleb128 0x17
 2742 0952 22050000 		.4byte	.LASF67
 2743 0956 01       		.byte	0x1
 2744 0957 A804     		.2byte	0x4a8
 2745 0959 00000000 		.4byte	.LFB32
 2746 095d 24000000 		.4byte	.LFE32-.LFB32
 2747 0961 01       		.uleb128 0x1
 2748 0962 9C       		.byte	0x9c
 2749 0963 9A090000 		.4byte	0x99a
 2750 0967 19       		.uleb128 0x19
 2751 0968 03020000 		.4byte	.LASF64
 2752 096c 01       		.byte	0x1
 2753 096d A804     		.2byte	0x4a8
 2754 096f 77000000 		.4byte	0x77
 2755 0973 B9050000 		.4byte	.LLST53
 2756 0977 18       		.uleb128 0x18
ARM GAS  C:\Users\AFDHAL~1\AppData\Local\Temp\ccSYCZD3.s 			page 79


 2757 0978 4E050000 		.4byte	.LASF28
 2758 097c 01       		.byte	0x1
 2759 097d AA04     		.2byte	0x4aa
 2760 097f 6B000000 		.4byte	0x6b
 2761 0983 E5050000 		.4byte	.LLST54
 2762 0987 10       		.uleb128 0x10
 2763 0988 08000000 		.4byte	.LVL91
 2764 098c DC0A0000 		.4byte	0xadc
 2765 0990 10       		.uleb128 0x10
 2766 0991 1E000000 		.4byte	.LVL92
 2767 0995 E70A0000 		.4byte	0xae7
 2768 0999 00       		.byte	0
 2769 099a 17       		.uleb128 0x17
 2770 099b 7E010000 		.4byte	.LASF68
 2771 099f 01       		.byte	0x1
 2772 09a0 C904     		.2byte	0x4c9
 2773 09a2 00000000 		.4byte	.LFB33
 2774 09a6 24000000 		.4byte	.LFE33-.LFB33
 2775 09aa 01       		.uleb128 0x1
 2776 09ab 9C       		.byte	0x9c
 2777 09ac E3090000 		.4byte	0x9e3
 2778 09b0 19       		.uleb128 0x19
 2779 09b1 03020000 		.4byte	.LASF64
 2780 09b5 01       		.byte	0x1
 2781 09b6 C904     		.2byte	0x4c9
 2782 09b8 77000000 		.4byte	0x77
 2783 09bc F8050000 		.4byte	.LLST55
 2784 09c0 18       		.uleb128 0x18
 2785 09c1 4E050000 		.4byte	.LASF28
 2786 09c5 01       		.byte	0x1
 2787 09c6 CB04     		.2byte	0x4cb
 2788 09c8 6B000000 		.4byte	0x6b
 2789 09cc 24060000 		.4byte	.LLST56
 2790 09d0 10       		.uleb128 0x10
 2791 09d1 08000000 		.4byte	.LVL95
 2792 09d5 DC0A0000 		.4byte	0xadc
 2793 09d9 10       		.uleb128 0x10
 2794 09da 1E000000 		.4byte	.LVL96
 2795 09de E70A0000 		.4byte	0xae7
 2796 09e2 00       		.byte	0
 2797 09e3 0A       		.uleb128 0xa
 2798 09e4 B7000000 		.4byte	0xb7
 2799 09e8 00000000 		.4byte	.LFB34
 2800 09ec 1C000000 		.4byte	.LFE34-.LFB34
 2801 09f0 01       		.uleb128 0x1
 2802 09f1 9C       		.byte	0x9c
 2803 09f2 240A0000 		.4byte	0xa24
 2804 09f6 0C       		.uleb128 0xc
 2805 09f7 C4000000 		.4byte	0xc4
 2806 09fb 37060000 		.4byte	.LLST57
 2807 09ff 0C       		.uleb128 0xc
 2808 0a00 D0000000 		.4byte	0xd0
 2809 0a04 58060000 		.4byte	.LLST58
 2810 0a08 0F       		.uleb128 0xf
 2811 0a09 DC000000 		.4byte	0xdc
 2812 0a0d 84060000 		.4byte	.LLST59
 2813 0a11 10       		.uleb128 0x10
ARM GAS  C:\Users\AFDHAL~1\AppData\Local\Temp\ccSYCZD3.s 			page 80


 2814 0a12 0C000000 		.4byte	.LVL99
 2815 0a16 DC0A0000 		.4byte	0xadc
 2816 0a1a 10       		.uleb128 0x10
 2817 0a1b 14000000 		.4byte	.LVL100
 2818 0a1f E70A0000 		.4byte	0xae7
 2819 0a23 00       		.byte	0
 2820 0a24 1A       		.uleb128 0x1a
 2821 0a25 A6050000 		.4byte	.LASF69
 2822 0a29 01       		.byte	0x1
 2823 0a2a 0E05     		.2byte	0x50e
 2824 0a2c 77000000 		.4byte	0x77
 2825 0a30 00000000 		.4byte	.LFB35
 2826 0a34 14000000 		.4byte	.LFE35-.LFB35
 2827 0a38 01       		.uleb128 0x1
 2828 0a39 9C       		.byte	0x9c
 2829 0a3a 0A       		.uleb128 0xa
 2830 0a3b 1D010000 		.4byte	0x11d
 2831 0a3f 00000000 		.4byte	.LFB36
 2832 0a43 0C000000 		.4byte	.LFE36-.LFB36
 2833 0a47 01       		.uleb128 0x1
 2834 0a48 9C       		.byte	0x9c
 2835 0a49 550A0000 		.4byte	0xa55
 2836 0a4d 1D       		.uleb128 0x1d
 2837 0a4e 2A010000 		.4byte	0x12a
 2838 0a52 01       		.uleb128 0x1
 2839 0a53 50       		.byte	0x50
 2840 0a54 00       		.byte	0
 2841 0a55 1A       		.uleb128 0x1a
 2842 0a56 29020000 		.4byte	.LASF70
 2843 0a5a 01       		.byte	0x1
 2844 0a5b 3E05     		.2byte	0x53e
 2845 0a5d 77000000 		.4byte	0x77
 2846 0a61 00000000 		.4byte	.LFB37
 2847 0a65 0C000000 		.4byte	.LFE37-.LFB37
 2848 0a69 01       		.uleb128 0x1
 2849 0a6a 9C       		.byte	0x9c
 2850 0a6b 1A       		.uleb128 0x1a
 2851 0a6c 8A020000 		.4byte	.LASF71
 2852 0a70 01       		.byte	0x1
 2853 0a71 5505     		.2byte	0x555
 2854 0a73 77000000 		.4byte	0x77
 2855 0a77 00000000 		.4byte	.LFB38
 2856 0a7b 0C000000 		.4byte	.LFE38-.LFB38
 2857 0a7f 01       		.uleb128 0x1
 2858 0a80 9C       		.byte	0x9c
 2859 0a81 17       		.uleb128 0x17
 2860 0a82 4A020000 		.4byte	.LASF72
 2861 0a86 01       		.byte	0x1
 2862 0a87 6C05     		.2byte	0x56c
 2863 0a89 00000000 		.4byte	.LFB39
 2864 0a8d 0C000000 		.4byte	.LFE39-.LFB39
 2865 0a91 01       		.uleb128 0x1
 2866 0a92 9C       		.byte	0x9c
 2867 0a93 A60A0000 		.4byte	0xaa6
 2868 0a97 1E       		.uleb128 0x1e
 2869 0a98 C6040000 		.4byte	.LASF25
 2870 0a9c 01       		.byte	0x1
ARM GAS  C:\Users\AFDHAL~1\AppData\Local\Temp\ccSYCZD3.s 			page 81


 2871 0a9d 6C05     		.2byte	0x56c
 2872 0a9f 77000000 		.4byte	0x77
 2873 0aa3 01       		.uleb128 0x1
 2874 0aa4 50       		.byte	0x50
 2875 0aa5 00       		.byte	0
 2876 0aa6 17       		.uleb128 0x17
 2877 0aa7 1C000000 		.4byte	.LASF73
 2878 0aab 01       		.byte	0x1
 2879 0aac 8305     		.2byte	0x583
 2880 0aae 00000000 		.4byte	.LFB40
 2881 0ab2 0C000000 		.4byte	.LFE40-.LFB40
 2882 0ab6 01       		.uleb128 0x1
 2883 0ab7 9C       		.byte	0x9c
 2884 0ab8 CB0A0000 		.4byte	0xacb
 2885 0abc 1E       		.uleb128 0x1e
 2886 0abd C6040000 		.4byte	.LASF25
 2887 0ac1 01       		.byte	0x1
 2888 0ac2 8305     		.2byte	0x583
 2889 0ac4 77000000 		.4byte	0x77
 2890 0ac8 01       		.uleb128 0x1
 2891 0ac9 50       		.byte	0x50
 2892 0aca 00       		.byte	0
 2893 0acb 1F       		.uleb128 0x1f
 2894 0acc C9030000 		.4byte	.LASF80
 2895 0ad0 01       		.byte	0x1
 2896 0ad1 15       		.byte	0x15
 2897 0ad2 6B000000 		.4byte	0x6b
 2898 0ad6 05       		.uleb128 0x5
 2899 0ad7 03       		.byte	0x3
 2900 0ad8 00000000 		.4byte	QuadDec_initVar
 2901 0adc 20       		.uleb128 0x20
 2902 0add E9020000 		.4byte	.LASF74
 2903 0ae1 E9020000 		.4byte	.LASF74
 2904 0ae5 03       		.byte	0x3
 2905 0ae6 E5       		.byte	0xe5
 2906 0ae7 20       		.uleb128 0x20
 2907 0ae8 06000000 		.4byte	.LASF75
 2908 0aec 06000000 		.4byte	.LASF75
 2909 0af0 03       		.byte	0x3
 2910 0af1 E6       		.byte	0xe6
 2911 0af2 00       		.byte	0
 2912              		.section	.debug_abbrev,"",%progbits
 2913              	.Ldebug_abbrev0:
 2914 0000 01       		.uleb128 0x1
 2915 0001 11       		.uleb128 0x11
 2916 0002 01       		.byte	0x1
 2917 0003 25       		.uleb128 0x25
 2918 0004 0E       		.uleb128 0xe
 2919 0005 13       		.uleb128 0x13
 2920 0006 0B       		.uleb128 0xb
 2921 0007 03       		.uleb128 0x3
 2922 0008 0E       		.uleb128 0xe
 2923 0009 1B       		.uleb128 0x1b
 2924 000a 0E       		.uleb128 0xe
 2925 000b 55       		.uleb128 0x55
 2926 000c 17       		.uleb128 0x17
 2927 000d 11       		.uleb128 0x11
ARM GAS  C:\Users\AFDHAL~1\AppData\Local\Temp\ccSYCZD3.s 			page 82


 2928 000e 01       		.uleb128 0x1
 2929 000f 10       		.uleb128 0x10
 2930 0010 17       		.uleb128 0x17
 2931 0011 00       		.byte	0
 2932 0012 00       		.byte	0
 2933 0013 02       		.uleb128 0x2
 2934 0014 24       		.uleb128 0x24
 2935 0015 00       		.byte	0
 2936 0016 0B       		.uleb128 0xb
 2937 0017 0B       		.uleb128 0xb
 2938 0018 3E       		.uleb128 0x3e
 2939 0019 0B       		.uleb128 0xb
 2940 001a 03       		.uleb128 0x3
 2941 001b 0E       		.uleb128 0xe
 2942 001c 00       		.byte	0
 2943 001d 00       		.byte	0
 2944 001e 03       		.uleb128 0x3
 2945 001f 24       		.uleb128 0x24
 2946 0020 00       		.byte	0
 2947 0021 0B       		.uleb128 0xb
 2948 0022 0B       		.uleb128 0xb
 2949 0023 3E       		.uleb128 0x3e
 2950 0024 0B       		.uleb128 0xb
 2951 0025 03       		.uleb128 0x3
 2952 0026 08       		.uleb128 0x8
 2953 0027 00       		.byte	0
 2954 0028 00       		.byte	0
 2955 0029 04       		.uleb128 0x4
 2956 002a 16       		.uleb128 0x16
 2957 002b 00       		.byte	0
 2958 002c 03       		.uleb128 0x3
 2959 002d 0E       		.uleb128 0xe
 2960 002e 3A       		.uleb128 0x3a
 2961 002f 0B       		.uleb128 0xb
 2962 0030 3B       		.uleb128 0x3b
 2963 0031 05       		.uleb128 0x5
 2964 0032 49       		.uleb128 0x49
 2965 0033 13       		.uleb128 0x13
 2966 0034 00       		.byte	0
 2967 0035 00       		.byte	0
 2968 0036 05       		.uleb128 0x5
 2969 0037 35       		.uleb128 0x35
 2970 0038 00       		.byte	0
 2971 0039 49       		.uleb128 0x49
 2972 003a 13       		.uleb128 0x13
 2973 003b 00       		.byte	0
 2974 003c 00       		.byte	0
 2975 003d 06       		.uleb128 0x6
 2976 003e 2E       		.uleb128 0x2e
 2977 003f 01       		.byte	0x1
 2978 0040 3F       		.uleb128 0x3f
 2979 0041 19       		.uleb128 0x19
 2980 0042 03       		.uleb128 0x3
 2981 0043 0E       		.uleb128 0xe
 2982 0044 3A       		.uleb128 0x3a
 2983 0045 0B       		.uleb128 0xb
 2984 0046 3B       		.uleb128 0x3b
ARM GAS  C:\Users\AFDHAL~1\AppData\Local\Temp\ccSYCZD3.s 			page 83


 2985 0047 05       		.uleb128 0x5
 2986 0048 27       		.uleb128 0x27
 2987 0049 19       		.uleb128 0x19
 2988 004a 20       		.uleb128 0x20
 2989 004b 0B       		.uleb128 0xb
 2990 004c 01       		.uleb128 0x1
 2991 004d 13       		.uleb128 0x13
 2992 004e 00       		.byte	0
 2993 004f 00       		.byte	0
 2994 0050 07       		.uleb128 0x7
 2995 0051 05       		.uleb128 0x5
 2996 0052 00       		.byte	0
 2997 0053 03       		.uleb128 0x3
 2998 0054 0E       		.uleb128 0xe
 2999 0055 3A       		.uleb128 0x3a
 3000 0056 0B       		.uleb128 0xb
 3001 0057 3B       		.uleb128 0x3b
 3002 0058 05       		.uleb128 0x5
 3003 0059 49       		.uleb128 0x49
 3004 005a 13       		.uleb128 0x13
 3005 005b 00       		.byte	0
 3006 005c 00       		.byte	0
 3007 005d 08       		.uleb128 0x8
 3008 005e 34       		.uleb128 0x34
 3009 005f 00       		.byte	0
 3010 0060 03       		.uleb128 0x3
 3011 0061 0E       		.uleb128 0xe
 3012 0062 3A       		.uleb128 0x3a
 3013 0063 0B       		.uleb128 0xb
 3014 0064 3B       		.uleb128 0x3b
 3015 0065 05       		.uleb128 0x5
 3016 0066 49       		.uleb128 0x49
 3017 0067 13       		.uleb128 0x13
 3018 0068 00       		.byte	0
 3019 0069 00       		.byte	0
 3020 006a 09       		.uleb128 0x9
 3021 006b 2E       		.uleb128 0x2e
 3022 006c 00       		.byte	0
 3023 006d 3F       		.uleb128 0x3f
 3024 006e 19       		.uleb128 0x19
 3025 006f 03       		.uleb128 0x3
 3026 0070 0E       		.uleb128 0xe
 3027 0071 3A       		.uleb128 0x3a
 3028 0072 0B       		.uleb128 0xb
 3029 0073 3B       		.uleb128 0x3b
 3030 0074 0B       		.uleb128 0xb
 3031 0075 27       		.uleb128 0x27
 3032 0076 19       		.uleb128 0x19
 3033 0077 20       		.uleb128 0x20
 3034 0078 0B       		.uleb128 0xb
 3035 0079 00       		.byte	0
 3036 007a 00       		.byte	0
 3037 007b 0A       		.uleb128 0xa
 3038 007c 2E       		.uleb128 0x2e
 3039 007d 01       		.byte	0x1
 3040 007e 31       		.uleb128 0x31
 3041 007f 13       		.uleb128 0x13
ARM GAS  C:\Users\AFDHAL~1\AppData\Local\Temp\ccSYCZD3.s 			page 84


 3042 0080 11       		.uleb128 0x11
 3043 0081 01       		.uleb128 0x1
 3044 0082 12       		.uleb128 0x12
 3045 0083 06       		.uleb128 0x6
 3046 0084 40       		.uleb128 0x40
 3047 0085 18       		.uleb128 0x18
 3048 0086 9742     		.uleb128 0x2117
 3049 0088 19       		.uleb128 0x19
 3050 0089 01       		.uleb128 0x1
 3051 008a 13       		.uleb128 0x13
 3052 008b 00       		.byte	0
 3053 008c 00       		.byte	0
 3054 008d 0B       		.uleb128 0xb
 3055 008e 1D       		.uleb128 0x1d
 3056 008f 01       		.byte	0x1
 3057 0090 31       		.uleb128 0x31
 3058 0091 13       		.uleb128 0x13
 3059 0092 52       		.uleb128 0x52
 3060 0093 01       		.uleb128 0x1
 3061 0094 55       		.uleb128 0x55
 3062 0095 17       		.uleb128 0x17
 3063 0096 58       		.uleb128 0x58
 3064 0097 0B       		.uleb128 0xb
 3065 0098 59       		.uleb128 0x59
 3066 0099 0B       		.uleb128 0xb
 3067 009a 01       		.uleb128 0x1
 3068 009b 13       		.uleb128 0x13
 3069 009c 00       		.byte	0
 3070 009d 00       		.byte	0
 3071 009e 0C       		.uleb128 0xc
 3072 009f 05       		.uleb128 0x5
 3073 00a0 00       		.byte	0
 3074 00a1 31       		.uleb128 0x31
 3075 00a2 13       		.uleb128 0x13
 3076 00a3 02       		.uleb128 0x2
 3077 00a4 17       		.uleb128 0x17
 3078 00a5 00       		.byte	0
 3079 00a6 00       		.byte	0
 3080 00a7 0D       		.uleb128 0xd
 3081 00a8 1D       		.uleb128 0x1d
 3082 00a9 01       		.byte	0x1
 3083 00aa 31       		.uleb128 0x31
 3084 00ab 13       		.uleb128 0x13
 3085 00ac 11       		.uleb128 0x11
 3086 00ad 01       		.uleb128 0x1
 3087 00ae 12       		.uleb128 0x12
 3088 00af 06       		.uleb128 0x6
 3089 00b0 58       		.uleb128 0x58
 3090 00b1 0B       		.uleb128 0xb
 3091 00b2 59       		.uleb128 0x59
 3092 00b3 0B       		.uleb128 0xb
 3093 00b4 01       		.uleb128 0x1
 3094 00b5 13       		.uleb128 0x13
 3095 00b6 00       		.byte	0
 3096 00b7 00       		.byte	0
 3097 00b8 0E       		.uleb128 0xe
 3098 00b9 0B       		.uleb128 0xb
ARM GAS  C:\Users\AFDHAL~1\AppData\Local\Temp\ccSYCZD3.s 			page 85


 3099 00ba 01       		.byte	0x1
 3100 00bb 11       		.uleb128 0x11
 3101 00bc 01       		.uleb128 0x1
 3102 00bd 12       		.uleb128 0x12
 3103 00be 06       		.uleb128 0x6
 3104 00bf 00       		.byte	0
 3105 00c0 00       		.byte	0
 3106 00c1 0F       		.uleb128 0xf
 3107 00c2 34       		.uleb128 0x34
 3108 00c3 00       		.byte	0
 3109 00c4 31       		.uleb128 0x31
 3110 00c5 13       		.uleb128 0x13
 3111 00c6 02       		.uleb128 0x2
 3112 00c7 17       		.uleb128 0x17
 3113 00c8 00       		.byte	0
 3114 00c9 00       		.byte	0
 3115 00ca 10       		.uleb128 0x10
 3116 00cb 898201   		.uleb128 0x4109
 3117 00ce 00       		.byte	0
 3118 00cf 11       		.uleb128 0x11
 3119 00d0 01       		.uleb128 0x1
 3120 00d1 31       		.uleb128 0x31
 3121 00d2 13       		.uleb128 0x13
 3122 00d3 00       		.byte	0
 3123 00d4 00       		.byte	0
 3124 00d5 11       		.uleb128 0x11
 3125 00d6 1D       		.uleb128 0x1d
 3126 00d7 01       		.byte	0x1
 3127 00d8 31       		.uleb128 0x31
 3128 00d9 13       		.uleb128 0x13
 3129 00da 11       		.uleb128 0x11
 3130 00db 01       		.uleb128 0x1
 3131 00dc 12       		.uleb128 0x12
 3132 00dd 06       		.uleb128 0x6
 3133 00de 58       		.uleb128 0x58
 3134 00df 0B       		.uleb128 0xb
 3135 00e0 59       		.uleb128 0x59
 3136 00e1 0B       		.uleb128 0xb
 3137 00e2 00       		.byte	0
 3138 00e3 00       		.byte	0
 3139 00e4 12       		.uleb128 0x12
 3140 00e5 2E       		.uleb128 0x2e
 3141 00e6 01       		.byte	0x1
 3142 00e7 3F       		.uleb128 0x3f
 3143 00e8 19       		.uleb128 0x19
 3144 00e9 03       		.uleb128 0x3
 3145 00ea 0E       		.uleb128 0xe
 3146 00eb 3A       		.uleb128 0x3a
 3147 00ec 0B       		.uleb128 0xb
 3148 00ed 3B       		.uleb128 0x3b
 3149 00ee 0B       		.uleb128 0xb
 3150 00ef 27       		.uleb128 0x27
 3151 00f0 19       		.uleb128 0x19
 3152 00f1 20       		.uleb128 0x20
 3153 00f2 0B       		.uleb128 0xb
 3154 00f3 01       		.uleb128 0x1
 3155 00f4 13       		.uleb128 0x13
ARM GAS  C:\Users\AFDHAL~1\AppData\Local\Temp\ccSYCZD3.s 			page 86


 3156 00f5 00       		.byte	0
 3157 00f6 00       		.byte	0
 3158 00f7 13       		.uleb128 0x13
 3159 00f8 34       		.uleb128 0x34
 3160 00f9 00       		.byte	0
 3161 00fa 03       		.uleb128 0x3
 3162 00fb 0E       		.uleb128 0xe
 3163 00fc 3A       		.uleb128 0x3a
 3164 00fd 0B       		.uleb128 0xb
 3165 00fe 3B       		.uleb128 0x3b
 3166 00ff 0B       		.uleb128 0xb
 3167 0100 49       		.uleb128 0x49
 3168 0101 13       		.uleb128 0x13
 3169 0102 00       		.byte	0
 3170 0103 00       		.byte	0
 3171 0104 14       		.uleb128 0x14
 3172 0105 2E       		.uleb128 0x2e
 3173 0106 01       		.byte	0x1
 3174 0107 3F       		.uleb128 0x3f
 3175 0108 19       		.uleb128 0x19
 3176 0109 03       		.uleb128 0x3
 3177 010a 0E       		.uleb128 0xe
 3178 010b 3A       		.uleb128 0x3a
 3179 010c 0B       		.uleb128 0xb
 3180 010d 3B       		.uleb128 0x3b
 3181 010e 0B       		.uleb128 0xb
 3182 010f 27       		.uleb128 0x27
 3183 0110 19       		.uleb128 0x19
 3184 0111 11       		.uleb128 0x11
 3185 0112 01       		.uleb128 0x1
 3186 0113 12       		.uleb128 0x12
 3187 0114 06       		.uleb128 0x6
 3188 0115 40       		.uleb128 0x40
 3189 0116 18       		.uleb128 0x18
 3190 0117 9742     		.uleb128 0x2117
 3191 0119 19       		.uleb128 0x19
 3192 011a 01       		.uleb128 0x1
 3193 011b 13       		.uleb128 0x13
 3194 011c 00       		.byte	0
 3195 011d 00       		.byte	0
 3196 011e 15       		.uleb128 0x15
 3197 011f 1D       		.uleb128 0x1d
 3198 0120 01       		.byte	0x1
 3199 0121 31       		.uleb128 0x31
 3200 0122 13       		.uleb128 0x13
 3201 0123 52       		.uleb128 0x52
 3202 0124 01       		.uleb128 0x1
 3203 0125 55       		.uleb128 0x55
 3204 0126 17       		.uleb128 0x17
 3205 0127 58       		.uleb128 0x58
 3206 0128 0B       		.uleb128 0xb
 3207 0129 59       		.uleb128 0x59
 3208 012a 0B       		.uleb128 0xb
 3209 012b 00       		.byte	0
 3210 012c 00       		.byte	0
 3211 012d 16       		.uleb128 0x16
 3212 012e 0B       		.uleb128 0xb
ARM GAS  C:\Users\AFDHAL~1\AppData\Local\Temp\ccSYCZD3.s 			page 87


 3213 012f 01       		.byte	0x1
 3214 0130 55       		.uleb128 0x55
 3215 0131 17       		.uleb128 0x17
 3216 0132 00       		.byte	0
 3217 0133 00       		.byte	0
 3218 0134 17       		.uleb128 0x17
 3219 0135 2E       		.uleb128 0x2e
 3220 0136 01       		.byte	0x1
 3221 0137 3F       		.uleb128 0x3f
 3222 0138 19       		.uleb128 0x19
 3223 0139 03       		.uleb128 0x3
 3224 013a 0E       		.uleb128 0xe
 3225 013b 3A       		.uleb128 0x3a
 3226 013c 0B       		.uleb128 0xb
 3227 013d 3B       		.uleb128 0x3b
 3228 013e 05       		.uleb128 0x5
 3229 013f 27       		.uleb128 0x27
 3230 0140 19       		.uleb128 0x19
 3231 0141 11       		.uleb128 0x11
 3232 0142 01       		.uleb128 0x1
 3233 0143 12       		.uleb128 0x12
 3234 0144 06       		.uleb128 0x6
 3235 0145 40       		.uleb128 0x40
 3236 0146 18       		.uleb128 0x18
 3237 0147 9742     		.uleb128 0x2117
 3238 0149 19       		.uleb128 0x19
 3239 014a 01       		.uleb128 0x1
 3240 014b 13       		.uleb128 0x13
 3241 014c 00       		.byte	0
 3242 014d 00       		.byte	0
 3243 014e 18       		.uleb128 0x18
 3244 014f 34       		.uleb128 0x34
 3245 0150 00       		.byte	0
 3246 0151 03       		.uleb128 0x3
 3247 0152 0E       		.uleb128 0xe
 3248 0153 3A       		.uleb128 0x3a
 3249 0154 0B       		.uleb128 0xb
 3250 0155 3B       		.uleb128 0x3b
 3251 0156 05       		.uleb128 0x5
 3252 0157 49       		.uleb128 0x49
 3253 0158 13       		.uleb128 0x13
 3254 0159 02       		.uleb128 0x2
 3255 015a 17       		.uleb128 0x17
 3256 015b 00       		.byte	0
 3257 015c 00       		.byte	0
 3258 015d 19       		.uleb128 0x19
 3259 015e 05       		.uleb128 0x5
 3260 015f 00       		.byte	0
 3261 0160 03       		.uleb128 0x3
 3262 0161 0E       		.uleb128 0xe
 3263 0162 3A       		.uleb128 0x3a
 3264 0163 0B       		.uleb128 0xb
 3265 0164 3B       		.uleb128 0x3b
 3266 0165 05       		.uleb128 0x5
 3267 0166 49       		.uleb128 0x49
 3268 0167 13       		.uleb128 0x13
 3269 0168 02       		.uleb128 0x2
ARM GAS  C:\Users\AFDHAL~1\AppData\Local\Temp\ccSYCZD3.s 			page 88


 3270 0169 17       		.uleb128 0x17
 3271 016a 00       		.byte	0
 3272 016b 00       		.byte	0
 3273 016c 1A       		.uleb128 0x1a
 3274 016d 2E       		.uleb128 0x2e
 3275 016e 00       		.byte	0
 3276 016f 3F       		.uleb128 0x3f
 3277 0170 19       		.uleb128 0x19
 3278 0171 03       		.uleb128 0x3
 3279 0172 0E       		.uleb128 0xe
 3280 0173 3A       		.uleb128 0x3a
 3281 0174 0B       		.uleb128 0xb
 3282 0175 3B       		.uleb128 0x3b
 3283 0176 05       		.uleb128 0x5
 3284 0177 27       		.uleb128 0x27
 3285 0178 19       		.uleb128 0x19
 3286 0179 49       		.uleb128 0x49
 3287 017a 13       		.uleb128 0x13
 3288 017b 11       		.uleb128 0x11
 3289 017c 01       		.uleb128 0x1
 3290 017d 12       		.uleb128 0x12
 3291 017e 06       		.uleb128 0x6
 3292 017f 40       		.uleb128 0x40
 3293 0180 18       		.uleb128 0x18
 3294 0181 9742     		.uleb128 0x2117
 3295 0183 19       		.uleb128 0x19
 3296 0184 00       		.byte	0
 3297 0185 00       		.byte	0
 3298 0186 1B       		.uleb128 0x1b
 3299 0187 2E       		.uleb128 0x2e
 3300 0188 00       		.byte	0
 3301 0189 3F       		.uleb128 0x3f
 3302 018a 19       		.uleb128 0x19
 3303 018b 03       		.uleb128 0x3
 3304 018c 0E       		.uleb128 0xe
 3305 018d 3A       		.uleb128 0x3a
 3306 018e 0B       		.uleb128 0xb
 3307 018f 3B       		.uleb128 0x3b
 3308 0190 05       		.uleb128 0x5
 3309 0191 27       		.uleb128 0x27
 3310 0192 19       		.uleb128 0x19
 3311 0193 49       		.uleb128 0x49
 3312 0194 13       		.uleb128 0x13
 3313 0195 20       		.uleb128 0x20
 3314 0196 0B       		.uleb128 0xb
 3315 0197 00       		.byte	0
 3316 0198 00       		.byte	0
 3317 0199 1C       		.uleb128 0x1c
 3318 019a 2E       		.uleb128 0x2e
 3319 019b 00       		.byte	0
 3320 019c 31       		.uleb128 0x31
 3321 019d 13       		.uleb128 0x13
 3322 019e 11       		.uleb128 0x11
 3323 019f 01       		.uleb128 0x1
 3324 01a0 12       		.uleb128 0x12
 3325 01a1 06       		.uleb128 0x6
 3326 01a2 40       		.uleb128 0x40
ARM GAS  C:\Users\AFDHAL~1\AppData\Local\Temp\ccSYCZD3.s 			page 89


 3327 01a3 18       		.uleb128 0x18
 3328 01a4 9742     		.uleb128 0x2117
 3329 01a6 19       		.uleb128 0x19
 3330 01a7 00       		.byte	0
 3331 01a8 00       		.byte	0
 3332 01a9 1D       		.uleb128 0x1d
 3333 01aa 05       		.uleb128 0x5
 3334 01ab 00       		.byte	0
 3335 01ac 31       		.uleb128 0x31
 3336 01ad 13       		.uleb128 0x13
 3337 01ae 02       		.uleb128 0x2
 3338 01af 18       		.uleb128 0x18
 3339 01b0 00       		.byte	0
 3340 01b1 00       		.byte	0
 3341 01b2 1E       		.uleb128 0x1e
 3342 01b3 05       		.uleb128 0x5
 3343 01b4 00       		.byte	0
 3344 01b5 03       		.uleb128 0x3
 3345 01b6 0E       		.uleb128 0xe
 3346 01b7 3A       		.uleb128 0x3a
 3347 01b8 0B       		.uleb128 0xb
 3348 01b9 3B       		.uleb128 0x3b
 3349 01ba 05       		.uleb128 0x5
 3350 01bb 49       		.uleb128 0x49
 3351 01bc 13       		.uleb128 0x13
 3352 01bd 02       		.uleb128 0x2
 3353 01be 18       		.uleb128 0x18
 3354 01bf 00       		.byte	0
 3355 01c0 00       		.byte	0
 3356 01c1 1F       		.uleb128 0x1f
 3357 01c2 34       		.uleb128 0x34
 3358 01c3 00       		.byte	0
 3359 01c4 03       		.uleb128 0x3
 3360 01c5 0E       		.uleb128 0xe
 3361 01c6 3A       		.uleb128 0x3a
 3362 01c7 0B       		.uleb128 0xb
 3363 01c8 3B       		.uleb128 0x3b
 3364 01c9 0B       		.uleb128 0xb
 3365 01ca 49       		.uleb128 0x49
 3366 01cb 13       		.uleb128 0x13
 3367 01cc 3F       		.uleb128 0x3f
 3368 01cd 19       		.uleb128 0x19
 3369 01ce 02       		.uleb128 0x2
 3370 01cf 18       		.uleb128 0x18
 3371 01d0 00       		.byte	0
 3372 01d1 00       		.byte	0
 3373 01d2 20       		.uleb128 0x20
 3374 01d3 2E       		.uleb128 0x2e
 3375 01d4 00       		.byte	0
 3376 01d5 3F       		.uleb128 0x3f
 3377 01d6 19       		.uleb128 0x19
 3378 01d7 3C       		.uleb128 0x3c
 3379 01d8 19       		.uleb128 0x19
 3380 01d9 6E       		.uleb128 0x6e
 3381 01da 0E       		.uleb128 0xe
 3382 01db 03       		.uleb128 0x3
 3383 01dc 0E       		.uleb128 0xe
ARM GAS  C:\Users\AFDHAL~1\AppData\Local\Temp\ccSYCZD3.s 			page 90


 3384 01dd 3A       		.uleb128 0x3a
 3385 01de 0B       		.uleb128 0xb
 3386 01df 3B       		.uleb128 0x3b
 3387 01e0 0B       		.uleb128 0xb
 3388 01e1 00       		.byte	0
 3389 01e2 00       		.byte	0
 3390 01e3 00       		.byte	0
 3391              		.section	.debug_loc,"",%progbits
 3392              	.Ldebug_loc0:
 3393              	.LLST0:
 3394 0000 12000000 		.4byte	.LVL0
 3395 0004 18000000 		.4byte	.LVL1
 3396 0008 0200     		.2byte	0x2
 3397 000a 30       		.byte	0x30
 3398 000b 9F       		.byte	0x9f
 3399 000c 00000000 		.4byte	0
 3400 0010 00000000 		.4byte	0
 3401              	.LLST1:
 3402 0014 18000000 		.4byte	.LVL1
 3403 0018 32000000 		.4byte	.LVL3
 3404 001c 0400     		.2byte	0x4
 3405 001e 40       		.byte	0x40
 3406 001f 3C       		.byte	0x3c
 3407 0020 24       		.byte	0x24
 3408 0021 9F       		.byte	0x9f
 3409 0022 00000000 		.4byte	0
 3410 0026 00000000 		.4byte	0
 3411              	.LLST2:
 3412 002a 1C000000 		.4byte	.LVL2
 3413 002e 31000000 		.4byte	.LVL3-1
 3414 0032 0100     		.2byte	0x1
 3415 0034 50       		.byte	0x50
 3416 0035 00000000 		.4byte	0
 3417 0039 00000000 		.4byte	0
 3418              	.LLST3:
 3419 003d 32000000 		.4byte	.LVL3
 3420 0041 3A000000 		.4byte	.LVL4
 3421 0045 0400     		.2byte	0x4
 3422 0047 0A       		.byte	0xa
 3423 0048 0080     		.2byte	0x8000
 3424 004a 9F       		.byte	0x9f
 3425 004b 00000000 		.4byte	0
 3426 004f 00000000 		.4byte	0
 3427              	.LLST4:
 3428 0053 3A000000 		.4byte	.LVL4
 3429 0057 3E000000 		.4byte	.LVL5
 3430 005b 0400     		.2byte	0x4
 3431 005d 0A       		.byte	0xa
 3432 005e 0080     		.2byte	0x8000
 3433 0060 9F       		.byte	0x9f
 3434 0061 00000000 		.4byte	0
 3435 0065 00000000 		.4byte	0
 3436              	.LLST5:
 3437 0069 06000000 		.4byte	.LVL6
 3438 006d 13000000 		.4byte	.LVL7-1
 3439 0071 0100     		.2byte	0x1
 3440 0073 50       		.byte	0x50
ARM GAS  C:\Users\AFDHAL~1\AppData\Local\Temp\ccSYCZD3.s 			page 91


 3441 0074 00000000 		.4byte	0
 3442 0078 00000000 		.4byte	0
 3443              	.LLST6:
 3444 007c 14000000 		.4byte	.LVL7
 3445 0080 24000000 		.4byte	.LVL9
 3446 0084 0200     		.2byte	0x2
 3447 0086 38       		.byte	0x38
 3448 0087 9F       		.byte	0x9f
 3449 0088 00000000 		.4byte	0
 3450 008c 00000000 		.4byte	0
 3451              	.LLST7:
 3452 0090 14000000 		.4byte	.LVL7
 3453 0094 24000000 		.4byte	.LVL9
 3454 0098 0200     		.2byte	0x2
 3455 009a 32       		.byte	0x32
 3456 009b 9F       		.byte	0x9f
 3457 009c 00000000 		.4byte	0
 3458 00a0 00000000 		.4byte	0
 3459              	.LLST8:
 3460 00a4 18000000 		.4byte	.LVL8
 3461 00a8 23000000 		.4byte	.LVL9-1
 3462 00ac 0100     		.2byte	0x1
 3463 00ae 50       		.byte	0x50
 3464 00af 00000000 		.4byte	0
 3465 00b3 00000000 		.4byte	0
 3466              	.LLST9:
 3467 00b7 1A000000 		.4byte	.LVL10
 3468 00bb 1E000000 		.4byte	.LVL11
 3469 00bf 0200     		.2byte	0x2
 3470 00c1 30       		.byte	0x30
 3471 00c2 9F       		.byte	0x9f
 3472 00c3 00000000 		.4byte	0
 3473 00c7 00000000 		.4byte	0
 3474              	.LLST10:
 3475 00cb 1E000000 		.4byte	.LVL11
 3476 00cf 38000000 		.4byte	.LVL13
 3477 00d3 0400     		.2byte	0x4
 3478 00d5 40       		.byte	0x40
 3479 00d6 3C       		.byte	0x3c
 3480 00d7 24       		.byte	0x24
 3481 00d8 9F       		.byte	0x9f
 3482 00d9 00000000 		.4byte	0
 3483 00dd 00000000 		.4byte	0
 3484              	.LLST11:
 3485 00e1 22000000 		.4byte	.LVL12
 3486 00e5 37000000 		.4byte	.LVL13-1
 3487 00e9 0100     		.2byte	0x1
 3488 00eb 50       		.byte	0x50
 3489 00ec 00000000 		.4byte	0
 3490 00f0 00000000 		.4byte	0
 3491              	.LLST12:
 3492 00f4 38000000 		.4byte	.LVL13
 3493 00f8 40000000 		.4byte	.LVL14
 3494 00fc 0400     		.2byte	0x4
 3495 00fe 0A       		.byte	0xa
 3496 00ff 0080     		.2byte	0x8000
 3497 0101 9F       		.byte	0x9f
ARM GAS  C:\Users\AFDHAL~1\AppData\Local\Temp\ccSYCZD3.s 			page 92


 3498 0102 00000000 		.4byte	0
 3499 0106 00000000 		.4byte	0
 3500              	.LLST13:
 3501 010a 40000000 		.4byte	.LVL14
 3502 010e 44000000 		.4byte	.LVL15
 3503 0112 0400     		.2byte	0x4
 3504 0114 0A       		.byte	0xa
 3505 0115 0080     		.2byte	0x8000
 3506 0117 9F       		.byte	0x9f
 3507 0118 00000000 		.4byte	0
 3508 011c 00000000 		.4byte	0
 3509              	.LLST14:
 3510 0120 4C000000 		.4byte	.LVL16
 3511 0124 59000000 		.4byte	.LVL17-1
 3512 0128 0100     		.2byte	0x1
 3513 012a 50       		.byte	0x50
 3514 012b 00000000 		.4byte	0
 3515 012f 00000000 		.4byte	0
 3516              	.LLST15:
 3517 0133 5A000000 		.4byte	.LVL17
 3518 0137 6A000000 		.4byte	.LVL19
 3519 013b 0200     		.2byte	0x2
 3520 013d 38       		.byte	0x38
 3521 013e 9F       		.byte	0x9f
 3522 013f 00000000 		.4byte	0
 3523 0143 00000000 		.4byte	0
 3524              	.LLST16:
 3525 0147 5A000000 		.4byte	.LVL17
 3526 014b 6A000000 		.4byte	.LVL19
 3527 014f 0200     		.2byte	0x2
 3528 0151 32       		.byte	0x32
 3529 0152 9F       		.byte	0x9f
 3530 0153 00000000 		.4byte	0
 3531 0157 00000000 		.4byte	0
 3532              	.LLST17:
 3533 015b 5E000000 		.4byte	.LVL18
 3534 015f 69000000 		.4byte	.LVL19-1
 3535 0163 0100     		.2byte	0x1
 3536 0165 50       		.byte	0x50
 3537 0166 00000000 		.4byte	0
 3538 016a 00000000 		.4byte	0
 3539              	.LLST18:
 3540 016e 06000000 		.4byte	.LVL20
 3541 0172 13000000 		.4byte	.LVL21-1
 3542 0176 0100     		.2byte	0x1
 3543 0178 50       		.byte	0x50
 3544 0179 00000000 		.4byte	0
 3545 017d 00000000 		.4byte	0
 3546              	.LLST19:
 3547 0181 00000000 		.4byte	.LVL22
 3548 0185 07000000 		.4byte	.LVL23-1
 3549 0189 0100     		.2byte	0x1
 3550 018b 50       		.byte	0x50
 3551 018c 07000000 		.4byte	.LVL23-1
 3552 0190 16000000 		.4byte	.LVL24
 3553 0194 0100     		.2byte	0x1
 3554 0196 54       		.byte	0x54
ARM GAS  C:\Users\AFDHAL~1\AppData\Local\Temp\ccSYCZD3.s 			page 93


 3555 0197 16000000 		.4byte	.LVL24
 3556 019b 28000000 		.4byte	.LFE5
 3557 019f 0400     		.2byte	0x4
 3558 01a1 F3       		.byte	0xf3
 3559 01a2 01       		.uleb128 0x1
 3560 01a3 50       		.byte	0x50
 3561 01a4 9F       		.byte	0x9f
 3562 01a5 00000000 		.4byte	0
 3563 01a9 00000000 		.4byte	0
 3564              	.LLST20:
 3565 01ad 08000000 		.4byte	.LVL23
 3566 01b1 1B000000 		.4byte	.LVL25-1
 3567 01b5 0100     		.2byte	0x1
 3568 01b7 50       		.byte	0x50
 3569 01b8 00000000 		.4byte	0
 3570 01bc 00000000 		.4byte	0
 3571              	.LLST21:
 3572 01c0 00000000 		.4byte	.LVL26
 3573 01c4 07000000 		.4byte	.LVL27-1
 3574 01c8 0100     		.2byte	0x1
 3575 01ca 50       		.byte	0x50
 3576 01cb 07000000 		.4byte	.LVL27-1
 3577 01cf 16000000 		.4byte	.LVL28
 3578 01d3 0100     		.2byte	0x1
 3579 01d5 54       		.byte	0x54
 3580 01d6 16000000 		.4byte	.LVL28
 3581 01da 28000000 		.4byte	.LFE6
 3582 01de 0400     		.2byte	0x4
 3583 01e0 F3       		.byte	0xf3
 3584 01e1 01       		.uleb128 0x1
 3585 01e2 50       		.byte	0x50
 3586 01e3 9F       		.byte	0x9f
 3587 01e4 00000000 		.4byte	0
 3588 01e8 00000000 		.4byte	0
 3589              	.LLST22:
 3590 01ec 08000000 		.4byte	.LVL27
 3591 01f0 1B000000 		.4byte	.LVL29-1
 3592 01f4 0100     		.2byte	0x1
 3593 01f6 50       		.byte	0x50
 3594 01f7 00000000 		.4byte	0
 3595 01fb 00000000 		.4byte	0
 3596              	.LLST23:
 3597 01ff 00000000 		.4byte	.LVL30
 3598 0203 07000000 		.4byte	.LVL31-1
 3599 0207 0100     		.2byte	0x1
 3600 0209 50       		.byte	0x50
 3601 020a 07000000 		.4byte	.LVL31-1
 3602 020e 16000000 		.4byte	.LVL32
 3603 0212 0100     		.2byte	0x1
 3604 0214 54       		.byte	0x54
 3605 0215 16000000 		.4byte	.LVL32
 3606 0219 28000000 		.4byte	.LFE7
 3607 021d 0400     		.2byte	0x4
 3608 021f F3       		.byte	0xf3
 3609 0220 01       		.uleb128 0x1
 3610 0221 50       		.byte	0x50
 3611 0222 9F       		.byte	0x9f
ARM GAS  C:\Users\AFDHAL~1\AppData\Local\Temp\ccSYCZD3.s 			page 94


 3612 0223 00000000 		.4byte	0
 3613 0227 00000000 		.4byte	0
 3614              	.LLST24:
 3615 022b 08000000 		.4byte	.LVL31
 3616 022f 1B000000 		.4byte	.LVL33-1
 3617 0233 0100     		.2byte	0x1
 3618 0235 50       		.byte	0x50
 3619 0236 00000000 		.4byte	0
 3620 023a 00000000 		.4byte	0
 3621              	.LLST25:
 3622 023e 00000000 		.4byte	.LVL34
 3623 0242 07000000 		.4byte	.LVL35-1
 3624 0246 0100     		.2byte	0x1
 3625 0248 50       		.byte	0x50
 3626 0249 07000000 		.4byte	.LVL35-1
 3627 024d 16000000 		.4byte	.LVL36
 3628 0251 0100     		.2byte	0x1
 3629 0253 54       		.byte	0x54
 3630 0254 16000000 		.4byte	.LVL36
 3631 0258 30000000 		.4byte	.LFE8
 3632 025c 0400     		.2byte	0x4
 3633 025e F3       		.byte	0xf3
 3634 025f 01       		.uleb128 0x1
 3635 0260 50       		.byte	0x50
 3636 0261 9F       		.byte	0x9f
 3637 0262 00000000 		.4byte	0
 3638 0266 00000000 		.4byte	0
 3639              	.LLST26:
 3640 026a 08000000 		.4byte	.LVL35
 3641 026e 23000000 		.4byte	.LVL37-1
 3642 0272 0100     		.2byte	0x1
 3643 0274 50       		.byte	0x50
 3644 0275 00000000 		.4byte	0
 3645 0279 00000000 		.4byte	0
 3646              	.LLST27:
 3647 027d 00000000 		.4byte	.LVL38
 3648 0281 04000000 		.4byte	.LVL39
 3649 0285 0100     		.2byte	0x1
 3650 0287 50       		.byte	0x50
 3651 0288 04000000 		.4byte	.LVL39
 3652 028c 10000000 		.4byte	.LFE9
 3653 0290 0400     		.2byte	0x4
 3654 0292 F3       		.byte	0xf3
 3655 0293 01       		.uleb128 0x1
 3656 0294 50       		.byte	0x50
 3657 0295 9F       		.byte	0x9f
 3658 0296 00000000 		.4byte	0
 3659 029a 00000000 		.4byte	0
 3660              	.LLST28:
 3661 029e 00000000 		.4byte	.LVL40
 3662 02a2 07000000 		.4byte	.LVL41-1
 3663 02a6 0100     		.2byte	0x1
 3664 02a8 50       		.byte	0x50
 3665 02a9 07000000 		.4byte	.LVL41-1
 3666 02ad 0E000000 		.4byte	.LVL42
 3667 02b1 0100     		.2byte	0x1
 3668 02b3 54       		.byte	0x54
ARM GAS  C:\Users\AFDHAL~1\AppData\Local\Temp\ccSYCZD3.s 			page 95


 3669 02b4 0E000000 		.4byte	.LVL42
 3670 02b8 28000000 		.4byte	.LFE10
 3671 02bc 0400     		.2byte	0x4
 3672 02be F3       		.byte	0xf3
 3673 02bf 01       		.uleb128 0x1
 3674 02c0 50       		.byte	0x50
 3675 02c1 9F       		.byte	0x9f
 3676 02c2 00000000 		.4byte	0
 3677 02c6 00000000 		.4byte	0
 3678              	.LLST29:
 3679 02ca 08000000 		.4byte	.LVL41
 3680 02ce 1F000000 		.4byte	.LVL43-1
 3681 02d2 0100     		.2byte	0x1
 3682 02d4 50       		.byte	0x50
 3683 02d5 00000000 		.4byte	0
 3684 02d9 00000000 		.4byte	0
 3685              	.LLST30:
 3686 02dd 00000000 		.4byte	.LVL44
 3687 02e1 07000000 		.4byte	.LVL45-1
 3688 02e5 0100     		.2byte	0x1
 3689 02e7 50       		.byte	0x50
 3690 02e8 07000000 		.4byte	.LVL45-1
 3691 02ec 0E000000 		.4byte	.LVL46
 3692 02f0 0100     		.2byte	0x1
 3693 02f2 54       		.byte	0x54
 3694 02f3 0E000000 		.4byte	.LVL46
 3695 02f7 28000000 		.4byte	.LFE11
 3696 02fb 0400     		.2byte	0x4
 3697 02fd F3       		.byte	0xf3
 3698 02fe 01       		.uleb128 0x1
 3699 02ff 50       		.byte	0x50
 3700 0300 9F       		.byte	0x9f
 3701 0301 00000000 		.4byte	0
 3702 0305 00000000 		.4byte	0
 3703              	.LLST31:
 3704 0309 08000000 		.4byte	.LVL45
 3705 030d 1F000000 		.4byte	.LVL47-1
 3706 0311 0100     		.2byte	0x1
 3707 0313 50       		.byte	0x50
 3708 0314 00000000 		.4byte	0
 3709 0318 00000000 		.4byte	0
 3710              	.LLST32:
 3711 031c 00000000 		.4byte	.LVL48
 3712 0320 07000000 		.4byte	.LVL49-1
 3713 0324 0100     		.2byte	0x1
 3714 0326 50       		.byte	0x50
 3715 0327 07000000 		.4byte	.LVL49-1
 3716 032b 10000000 		.4byte	.LVL50
 3717 032f 0100     		.2byte	0x1
 3718 0331 54       		.byte	0x54
 3719 0332 10000000 		.4byte	.LVL50
 3720 0336 2C000000 		.4byte	.LFE12
 3721 033a 0400     		.2byte	0x4
 3722 033c F3       		.byte	0xf3
 3723 033d 01       		.uleb128 0x1
 3724 033e 50       		.byte	0x50
 3725 033f 9F       		.byte	0x9f
ARM GAS  C:\Users\AFDHAL~1\AppData\Local\Temp\ccSYCZD3.s 			page 96


 3726 0340 00000000 		.4byte	0
 3727 0344 00000000 		.4byte	0
 3728              	.LLST33:
 3729 0348 08000000 		.4byte	.LVL49
 3730 034c 1F000000 		.4byte	.LVL51-1
 3731 0350 0100     		.2byte	0x1
 3732 0352 50       		.byte	0x50
 3733 0353 00000000 		.4byte	0
 3734 0357 00000000 		.4byte	0
 3735              	.LLST34:
 3736 035b 00000000 		.4byte	.LVL52
 3737 035f 07000000 		.4byte	.LVL53-1
 3738 0363 0100     		.2byte	0x1
 3739 0365 50       		.byte	0x50
 3740 0366 07000000 		.4byte	.LVL53-1
 3741 036a 16000000 		.4byte	.LVL54
 3742 036e 0100     		.2byte	0x1
 3743 0370 54       		.byte	0x54
 3744 0371 16000000 		.4byte	.LVL54
 3745 0375 28000000 		.4byte	.LFE13
 3746 0379 0400     		.2byte	0x4
 3747 037b F3       		.byte	0xf3
 3748 037c 01       		.uleb128 0x1
 3749 037d 50       		.byte	0x50
 3750 037e 9F       		.byte	0x9f
 3751 037f 00000000 		.4byte	0
 3752 0383 00000000 		.4byte	0
 3753              	.LLST35:
 3754 0387 08000000 		.4byte	.LVL53
 3755 038b 1B000000 		.4byte	.LVL55-1
 3756 038f 0100     		.2byte	0x1
 3757 0391 50       		.byte	0x50
 3758 0392 00000000 		.4byte	0
 3759 0396 00000000 		.4byte	0
 3760              	.LLST36:
 3761 039a 00000000 		.4byte	.LVL56
 3762 039e 04000000 		.4byte	.LVL57
 3763 03a2 0100     		.2byte	0x1
 3764 03a4 50       		.byte	0x50
 3765 03a5 04000000 		.4byte	.LVL57
 3766 03a9 10000000 		.4byte	.LFE14
 3767 03ad 0400     		.2byte	0x4
 3768 03af F3       		.byte	0xf3
 3769 03b0 01       		.uleb128 0x1
 3770 03b1 50       		.byte	0x50
 3771 03b2 9F       		.byte	0x9f
 3772 03b3 00000000 		.4byte	0
 3773 03b7 00000000 		.4byte	0
 3774              	.LLST37:
 3775 03bb 00000000 		.4byte	.LVL58
 3776 03bf 07000000 		.4byte	.LVL59-1
 3777 03c3 0100     		.2byte	0x1
 3778 03c5 50       		.byte	0x50
 3779 03c6 07000000 		.4byte	.LVL59-1
 3780 03ca 16000000 		.4byte	.LVL60
 3781 03ce 0100     		.2byte	0x1
 3782 03d0 54       		.byte	0x54
ARM GAS  C:\Users\AFDHAL~1\AppData\Local\Temp\ccSYCZD3.s 			page 97


 3783 03d1 16000000 		.4byte	.LVL60
 3784 03d5 28000000 		.4byte	.LFE16
 3785 03d9 0400     		.2byte	0x4
 3786 03db F3       		.byte	0xf3
 3787 03dc 01       		.uleb128 0x1
 3788 03dd 50       		.byte	0x50
 3789 03de 9F       		.byte	0x9f
 3790 03df 00000000 		.4byte	0
 3791 03e3 00000000 		.4byte	0
 3792              	.LLST38:
 3793 03e7 08000000 		.4byte	.LVL59
 3794 03eb 1B000000 		.4byte	.LVL61-1
 3795 03ef 0100     		.2byte	0x1
 3796 03f1 50       		.byte	0x50
 3797 03f2 00000000 		.4byte	0
 3798 03f6 00000000 		.4byte	0
 3799              	.LLST39:
 3800 03fa 00000000 		.4byte	.LVL62
 3801 03fe 04000000 		.4byte	.LVL63
 3802 0402 0100     		.2byte	0x1
 3803 0404 50       		.byte	0x50
 3804 0405 04000000 		.4byte	.LVL63
 3805 0409 10000000 		.4byte	.LFE17
 3806 040d 0400     		.2byte	0x4
 3807 040f F3       		.byte	0xf3
 3808 0410 01       		.uleb128 0x1
 3809 0411 50       		.byte	0x50
 3810 0412 9F       		.byte	0x9f
 3811 0413 00000000 		.4byte	0
 3812 0417 00000000 		.4byte	0
 3813              	.LLST40:
 3814 041b 00000000 		.4byte	.LVL64
 3815 041f 07000000 		.4byte	.LVL65-1
 3816 0423 0100     		.2byte	0x1
 3817 0425 50       		.byte	0x50
 3818 0426 07000000 		.4byte	.LVL65-1
 3819 042a 1E000000 		.4byte	.LVL67
 3820 042e 0100     		.2byte	0x1
 3821 0430 54       		.byte	0x54
 3822 0431 1E000000 		.4byte	.LVL67
 3823 0435 24000000 		.4byte	.LFE19
 3824 0439 0400     		.2byte	0x4
 3825 043b F3       		.byte	0xf3
 3826 043c 01       		.uleb128 0x1
 3827 043d 50       		.byte	0x50
 3828 043e 9F       		.byte	0x9f
 3829 043f 00000000 		.4byte	0
 3830 0443 00000000 		.4byte	0
 3831              	.LLST41:
 3832 0447 08000000 		.4byte	.LVL65
 3833 044b 1D000000 		.4byte	.LVL66-1
 3834 044f 0100     		.2byte	0x1
 3835 0451 50       		.byte	0x50
 3836 0452 00000000 		.4byte	0
 3837 0456 00000000 		.4byte	0
 3838              	.LLST42:
 3839 045a 00000000 		.4byte	.LVL68
ARM GAS  C:\Users\AFDHAL~1\AppData\Local\Temp\ccSYCZD3.s 			page 98


 3840 045e 04000000 		.4byte	.LVL69
 3841 0462 0100     		.2byte	0x1
 3842 0464 50       		.byte	0x50
 3843 0465 04000000 		.4byte	.LVL69
 3844 0469 10000000 		.4byte	.LFE20
 3845 046d 0400     		.2byte	0x4
 3846 046f F3       		.byte	0xf3
 3847 0470 01       		.uleb128 0x1
 3848 0471 50       		.byte	0x50
 3849 0472 9F       		.byte	0x9f
 3850 0473 00000000 		.4byte	0
 3851 0477 00000000 		.4byte	0
 3852              	.LLST43:
 3853 047b 00000000 		.4byte	.LVL70
 3854 047f 07000000 		.4byte	.LVL71-1
 3855 0483 0100     		.2byte	0x1
 3856 0485 50       		.byte	0x50
 3857 0486 07000000 		.4byte	.LVL71-1
 3858 048a 0E000000 		.4byte	.LVL72
 3859 048e 0100     		.2byte	0x1
 3860 0490 54       		.byte	0x54
 3861 0491 0E000000 		.4byte	.LVL72
 3862 0495 28000000 		.4byte	.LFE22
 3863 0499 0400     		.2byte	0x4
 3864 049b F3       		.byte	0xf3
 3865 049c 01       		.uleb128 0x1
 3866 049d 50       		.byte	0x50
 3867 049e 9F       		.byte	0x9f
 3868 049f 00000000 		.4byte	0
 3869 04a3 00000000 		.4byte	0
 3870              	.LLST44:
 3871 04a7 08000000 		.4byte	.LVL71
 3872 04ab 1F000000 		.4byte	.LVL73-1
 3873 04af 0100     		.2byte	0x1
 3874 04b1 50       		.byte	0x50
 3875 04b2 00000000 		.4byte	0
 3876 04b6 00000000 		.4byte	0
 3877              	.LLST45:
 3878 04ba 00000000 		.4byte	.LVL74
 3879 04be 04000000 		.4byte	.LVL75
 3880 04c2 0100     		.2byte	0x1
 3881 04c4 50       		.byte	0x50
 3882 04c5 04000000 		.4byte	.LVL75
 3883 04c9 10000000 		.4byte	.LFE23
 3884 04cd 0400     		.2byte	0x4
 3885 04cf F3       		.byte	0xf3
 3886 04d0 01       		.uleb128 0x1
 3887 04d1 50       		.byte	0x50
 3888 04d2 9F       		.byte	0x9f
 3889 04d3 00000000 		.4byte	0
 3890 04d7 00000000 		.4byte	0
 3891              	.LLST46:
 3892 04db 00000000 		.4byte	.LVL76
 3893 04df 04000000 		.4byte	.LVL77
 3894 04e3 0100     		.2byte	0x1
 3895 04e5 50       		.byte	0x50
 3896 04e6 04000000 		.4byte	.LVL77
ARM GAS  C:\Users\AFDHAL~1\AppData\Local\Temp\ccSYCZD3.s 			page 99


 3897 04ea 10000000 		.4byte	.LFE25
 3898 04ee 0400     		.2byte	0x4
 3899 04f0 F3       		.byte	0xf3
 3900 04f1 01       		.uleb128 0x1
 3901 04f2 50       		.byte	0x50
 3902 04f3 9F       		.byte	0x9f
 3903 04f4 00000000 		.4byte	0
 3904 04f8 00000000 		.4byte	0
 3905              	.LLST47:
 3906 04fc 00000000 		.4byte	.LVL78
 3907 0500 07000000 		.4byte	.LVL79-1
 3908 0504 0100     		.2byte	0x1
 3909 0506 50       		.byte	0x50
 3910 0507 07000000 		.4byte	.LVL79-1
 3911 050b 16000000 		.4byte	.LVL80
 3912 050f 0100     		.2byte	0x1
 3913 0511 54       		.byte	0x54
 3914 0512 16000000 		.4byte	.LVL80
 3915 0516 24000000 		.4byte	.LFE29
 3916 051a 0400     		.2byte	0x4
 3917 051c F3       		.byte	0xf3
 3918 051d 01       		.uleb128 0x1
 3919 051e 50       		.byte	0x50
 3920 051f 9F       		.byte	0x9f
 3921 0520 00000000 		.4byte	0
 3922 0524 00000000 		.4byte	0
 3923              	.LLST48:
 3924 0528 08000000 		.4byte	.LVL79
 3925 052c 1B000000 		.4byte	.LVL81-1
 3926 0530 0100     		.2byte	0x1
 3927 0532 50       		.byte	0x50
 3928 0533 00000000 		.4byte	0
 3929 0537 00000000 		.4byte	0
 3930              	.LLST49:
 3931 053b 00000000 		.4byte	.LVL82
 3932 053f 07000000 		.4byte	.LVL83-1
 3933 0543 0100     		.2byte	0x1
 3934 0545 50       		.byte	0x50
 3935 0546 07000000 		.4byte	.LVL83-1
 3936 054a 1E000000 		.4byte	.LVL85
 3937 054e 0100     		.2byte	0x1
 3938 0550 54       		.byte	0x54
 3939 0551 1E000000 		.4byte	.LVL85
 3940 0555 24000000 		.4byte	.LFE30
 3941 0559 0400     		.2byte	0x4
 3942 055b F3       		.byte	0xf3
 3943 055c 01       		.uleb128 0x1
 3944 055d 50       		.byte	0x50
 3945 055e 9F       		.byte	0x9f
 3946 055f 00000000 		.4byte	0
 3947 0563 00000000 		.4byte	0
 3948              	.LLST50:
 3949 0567 08000000 		.4byte	.LVL83
 3950 056b 1D000000 		.4byte	.LVL84-1
 3951 056f 0100     		.2byte	0x1
 3952 0571 50       		.byte	0x50
 3953 0572 00000000 		.4byte	0
ARM GAS  C:\Users\AFDHAL~1\AppData\Local\Temp\ccSYCZD3.s 			page 100


 3954 0576 00000000 		.4byte	0
 3955              	.LLST51:
 3956 057a 00000000 		.4byte	.LVL86
 3957 057e 07000000 		.4byte	.LVL87-1
 3958 0582 0100     		.2byte	0x1
 3959 0584 50       		.byte	0x50
 3960 0585 07000000 		.4byte	.LVL87-1
 3961 0589 1E000000 		.4byte	.LVL89
 3962 058d 0100     		.2byte	0x1
 3963 058f 54       		.byte	0x54
 3964 0590 1E000000 		.4byte	.LVL89
 3965 0594 28000000 		.4byte	.LFE31
 3966 0598 0400     		.2byte	0x4
 3967 059a F3       		.byte	0xf3
 3968 059b 01       		.uleb128 0x1
 3969 059c 50       		.byte	0x50
 3970 059d 9F       		.byte	0x9f
 3971 059e 00000000 		.4byte	0
 3972 05a2 00000000 		.4byte	0
 3973              	.LLST52:
 3974 05a6 08000000 		.4byte	.LVL87
 3975 05aa 1D000000 		.4byte	.LVL88-1
 3976 05ae 0100     		.2byte	0x1
 3977 05b0 50       		.byte	0x50
 3978 05b1 00000000 		.4byte	0
 3979 05b5 00000000 		.4byte	0
 3980              	.LLST53:
 3981 05b9 00000000 		.4byte	.LVL90
 3982 05bd 07000000 		.4byte	.LVL91-1
 3983 05c1 0100     		.2byte	0x1
 3984 05c3 50       		.byte	0x50
 3985 05c4 07000000 		.4byte	.LVL91-1
 3986 05c8 1E000000 		.4byte	.LVL93
 3987 05cc 0100     		.2byte	0x1
 3988 05ce 54       		.byte	0x54
 3989 05cf 1E000000 		.4byte	.LVL93
 3990 05d3 24000000 		.4byte	.LFE32
 3991 05d7 0400     		.2byte	0x4
 3992 05d9 F3       		.byte	0xf3
 3993 05da 01       		.uleb128 0x1
 3994 05db 50       		.byte	0x50
 3995 05dc 9F       		.byte	0x9f
 3996 05dd 00000000 		.4byte	0
 3997 05e1 00000000 		.4byte	0
 3998              	.LLST54:
 3999 05e5 08000000 		.4byte	.LVL91
 4000 05e9 1D000000 		.4byte	.LVL92-1
 4001 05ed 0100     		.2byte	0x1
 4002 05ef 50       		.byte	0x50
 4003 05f0 00000000 		.4byte	0
 4004 05f4 00000000 		.4byte	0
 4005              	.LLST55:
 4006 05f8 00000000 		.4byte	.LVL94
 4007 05fc 07000000 		.4byte	.LVL95-1
 4008 0600 0100     		.2byte	0x1
 4009 0602 50       		.byte	0x50
 4010 0603 07000000 		.4byte	.LVL95-1
ARM GAS  C:\Users\AFDHAL~1\AppData\Local\Temp\ccSYCZD3.s 			page 101


 4011 0607 1E000000 		.4byte	.LVL97
 4012 060b 0100     		.2byte	0x1
 4013 060d 54       		.byte	0x54
 4014 060e 1E000000 		.4byte	.LVL97
 4015 0612 24000000 		.4byte	.LFE33
 4016 0616 0400     		.2byte	0x4
 4017 0618 F3       		.byte	0xf3
 4018 0619 01       		.uleb128 0x1
 4019 061a 50       		.byte	0x50
 4020 061b 9F       		.byte	0x9f
 4021 061c 00000000 		.4byte	0
 4022 0620 00000000 		.4byte	0
 4023              	.LLST56:
 4024 0624 08000000 		.4byte	.LVL95
 4025 0628 1D000000 		.4byte	.LVL96-1
 4026 062c 0100     		.2byte	0x1
 4027 062e 50       		.byte	0x50
 4028 062f 00000000 		.4byte	0
 4029 0633 00000000 		.4byte	0
 4030              	.LLST57:
 4031 0637 00000000 		.4byte	.LVL98
 4032 063b 0B000000 		.4byte	.LVL99-1
 4033 063f 0100     		.2byte	0x1
 4034 0641 50       		.byte	0x50
 4035 0642 0B000000 		.4byte	.LVL99-1
 4036 0646 1C000000 		.4byte	.LFE34
 4037 064a 0400     		.2byte	0x4
 4038 064c F3       		.byte	0xf3
 4039 064d 01       		.uleb128 0x1
 4040 064e 50       		.byte	0x50
 4041 064f 9F       		.byte	0x9f
 4042 0650 00000000 		.4byte	0
 4043 0654 00000000 		.4byte	0
 4044              	.LLST58:
 4045 0658 00000000 		.4byte	.LVL98
 4046 065c 0B000000 		.4byte	.LVL99-1
 4047 0660 0100     		.2byte	0x1
 4048 0662 51       		.byte	0x51
 4049 0663 0B000000 		.4byte	.LVL99-1
 4050 0667 14000000 		.4byte	.LVL101
 4051 066b 0100     		.2byte	0x1
 4052 066d 55       		.byte	0x55
 4053 066e 14000000 		.4byte	.LVL101
 4054 0672 1C000000 		.4byte	.LFE34
 4055 0676 0400     		.2byte	0x4
 4056 0678 F3       		.byte	0xf3
 4057 0679 01       		.uleb128 0x1
 4058 067a 51       		.byte	0x51
 4059 067b 9F       		.byte	0x9f
 4060 067c 00000000 		.4byte	0
 4061 0680 00000000 		.4byte	0
 4062              	.LLST59:
 4063 0684 0C000000 		.4byte	.LVL99
 4064 0688 13000000 		.4byte	.LVL100-1
 4065 068c 0100     		.2byte	0x1
 4066 068e 50       		.byte	0x50
 4067 068f 00000000 		.4byte	0
ARM GAS  C:\Users\AFDHAL~1\AppData\Local\Temp\ccSYCZD3.s 			page 102


 4068 0693 00000000 		.4byte	0
 4069              		.section	.debug_aranges,"",%progbits
 4070 0000 44010000 		.4byte	0x144
 4071 0004 0200     		.2byte	0x2
 4072 0006 00000000 		.4byte	.Ldebug_info0
 4073 000a 04       		.byte	0x4
 4074 000b 00       		.byte	0
 4075 000c 0000     		.2byte	0
 4076 000e 0000     		.2byte	0
 4077 0010 00000000 		.4byte	.LFB1
 4078 0014 58000000 		.4byte	.LFE1-.LFB1
 4079 0018 00000000 		.4byte	.LFB2
 4080 001c 30000000 		.4byte	.LFE2-.LFB2
 4081 0020 00000000 		.4byte	.LFB3
 4082 0024 90000000 		.4byte	.LFE3-.LFB3
 4083 0028 00000000 		.4byte	.LFB4
 4084 002c 1C000000 		.4byte	.LFE4-.LFB4
 4085 0030 00000000 		.4byte	.LFB5
 4086 0034 28000000 		.4byte	.LFE5-.LFB5
 4087 0038 00000000 		.4byte	.LFB6
 4088 003c 28000000 		.4byte	.LFE6-.LFB6
 4089 0040 00000000 		.4byte	.LFB7
 4090 0044 28000000 		.4byte	.LFE7-.LFB7
 4091 0048 00000000 		.4byte	.LFB8
 4092 004c 30000000 		.4byte	.LFE8-.LFB8
 4093 0050 00000000 		.4byte	.LFB9
 4094 0054 10000000 		.4byte	.LFE9-.LFB9
 4095 0058 00000000 		.4byte	.LFB10
 4096 005c 28000000 		.4byte	.LFE10-.LFB10
 4097 0060 00000000 		.4byte	.LFB11
 4098 0064 28000000 		.4byte	.LFE11-.LFB11
 4099 0068 00000000 		.4byte	.LFB12
 4100 006c 2C000000 		.4byte	.LFE12-.LFB12
 4101 0070 00000000 		.4byte	.LFB13
 4102 0074 28000000 		.4byte	.LFE13-.LFB13
 4103 0078 00000000 		.4byte	.LFB14
 4104 007c 10000000 		.4byte	.LFE14-.LFB14
 4105 0080 00000000 		.4byte	.LFB15
 4106 0084 10000000 		.4byte	.LFE15-.LFB15
 4107 0088 00000000 		.4byte	.LFB16
 4108 008c 28000000 		.4byte	.LFE16-.LFB16
 4109 0090 00000000 		.4byte	.LFB17
 4110 0094 10000000 		.4byte	.LFE17-.LFB17
 4111 0098 00000000 		.4byte	.LFB18
 4112 009c 10000000 		.4byte	.LFE18-.LFB18
 4113 00a0 00000000 		.4byte	.LFB19
 4114 00a4 24000000 		.4byte	.LFE19-.LFB19
 4115 00a8 00000000 		.4byte	.LFB20
 4116 00ac 10000000 		.4byte	.LFE20-.LFB20
 4117 00b0 00000000 		.4byte	.LFB21
 4118 00b4 10000000 		.4byte	.LFE21-.LFB21
 4119 00b8 00000000 		.4byte	.LFB22
 4120 00bc 28000000 		.4byte	.LFE22-.LFB22
 4121 00c0 00000000 		.4byte	.LFB23
 4122 00c4 10000000 		.4byte	.LFE23-.LFB23
 4123 00c8 00000000 		.4byte	.LFB25
 4124 00cc 10000000 		.4byte	.LFE25-.LFB25
ARM GAS  C:\Users\AFDHAL~1\AppData\Local\Temp\ccSYCZD3.s 			page 103


 4125 00d0 00000000 		.4byte	.LFB27
 4126 00d4 10000000 		.4byte	.LFE27-.LFB27
 4127 00d8 00000000 		.4byte	.LFB28
 4128 00dc 10000000 		.4byte	.LFE28-.LFB28
 4129 00e0 00000000 		.4byte	.LFB29
 4130 00e4 24000000 		.4byte	.LFE29-.LFB29
 4131 00e8 00000000 		.4byte	.LFB30
 4132 00ec 24000000 		.4byte	.LFE30-.LFB30
 4133 00f0 00000000 		.4byte	.LFB31
 4134 00f4 28000000 		.4byte	.LFE31-.LFB31
 4135 00f8 00000000 		.4byte	.LFB32
 4136 00fc 24000000 		.4byte	.LFE32-.LFB32
 4137 0100 00000000 		.4byte	.LFB33
 4138 0104 24000000 		.4byte	.LFE33-.LFB33
 4139 0108 00000000 		.4byte	.LFB34
 4140 010c 1C000000 		.4byte	.LFE34-.LFB34
 4141 0110 00000000 		.4byte	.LFB35
 4142 0114 14000000 		.4byte	.LFE35-.LFB35
 4143 0118 00000000 		.4byte	.LFB36
 4144 011c 0C000000 		.4byte	.LFE36-.LFB36
 4145 0120 00000000 		.4byte	.LFB37
 4146 0124 0C000000 		.4byte	.LFE37-.LFB37
 4147 0128 00000000 		.4byte	.LFB38
 4148 012c 0C000000 		.4byte	.LFE38-.LFB38
 4149 0130 00000000 		.4byte	.LFB39
 4150 0134 0C000000 		.4byte	.LFE39-.LFB39
 4151 0138 00000000 		.4byte	.LFB40
 4152 013c 0C000000 		.4byte	.LFE40-.LFB40
 4153 0140 00000000 		.4byte	0
 4154 0144 00000000 		.4byte	0
 4155              		.section	.debug_ranges,"",%progbits
 4156              	.Ldebug_ranges0:
 4157 0000 12000000 		.4byte	.LBB26
 4158 0004 16000000 		.4byte	.LBE26
 4159 0008 16000000 		.4byte	.LBB29
 4160 000c 18000000 		.4byte	.LBE29
 4161 0010 00000000 		.4byte	0
 4162 0014 00000000 		.4byte	0
 4163 0018 48000000 		.4byte	.LBB64
 4164 001c 50000000 		.4byte	.LBE64
 4165 0020 50000000 		.4byte	.LBB69
 4166 0024 6A000000 		.4byte	.LBE69
 4167 0028 00000000 		.4byte	0
 4168 002c 00000000 		.4byte	0
 4169 0030 00000000 		.4byte	.LFB1
 4170 0034 58000000 		.4byte	.LFE1
 4171 0038 00000000 		.4byte	.LFB2
 4172 003c 30000000 		.4byte	.LFE2
 4173 0040 00000000 		.4byte	.LFB3
 4174 0044 90000000 		.4byte	.LFE3
 4175 0048 00000000 		.4byte	.LFB4
 4176 004c 1C000000 		.4byte	.LFE4
 4177 0050 00000000 		.4byte	.LFB5
 4178 0054 28000000 		.4byte	.LFE5
 4179 0058 00000000 		.4byte	.LFB6
 4180 005c 28000000 		.4byte	.LFE6
 4181 0060 00000000 		.4byte	.LFB7
ARM GAS  C:\Users\AFDHAL~1\AppData\Local\Temp\ccSYCZD3.s 			page 104


 4182 0064 28000000 		.4byte	.LFE7
 4183 0068 00000000 		.4byte	.LFB8
 4184 006c 30000000 		.4byte	.LFE8
 4185 0070 00000000 		.4byte	.LFB9
 4186 0074 10000000 		.4byte	.LFE9
 4187 0078 00000000 		.4byte	.LFB10
 4188 007c 28000000 		.4byte	.LFE10
 4189 0080 00000000 		.4byte	.LFB11
 4190 0084 28000000 		.4byte	.LFE11
 4191 0088 00000000 		.4byte	.LFB12
 4192 008c 2C000000 		.4byte	.LFE12
 4193 0090 00000000 		.4byte	.LFB13
 4194 0094 28000000 		.4byte	.LFE13
 4195 0098 00000000 		.4byte	.LFB14
 4196 009c 10000000 		.4byte	.LFE14
 4197 00a0 00000000 		.4byte	.LFB15
 4198 00a4 10000000 		.4byte	.LFE15
 4199 00a8 00000000 		.4byte	.LFB16
 4200 00ac 28000000 		.4byte	.LFE16
 4201 00b0 00000000 		.4byte	.LFB17
 4202 00b4 10000000 		.4byte	.LFE17
 4203 00b8 00000000 		.4byte	.LFB18
 4204 00bc 10000000 		.4byte	.LFE18
 4205 00c0 00000000 		.4byte	.LFB19
 4206 00c4 24000000 		.4byte	.LFE19
 4207 00c8 00000000 		.4byte	.LFB20
 4208 00cc 10000000 		.4byte	.LFE20
 4209 00d0 00000000 		.4byte	.LFB21
 4210 00d4 10000000 		.4byte	.LFE21
 4211 00d8 00000000 		.4byte	.LFB22
 4212 00dc 28000000 		.4byte	.LFE22
 4213 00e0 00000000 		.4byte	.LFB23
 4214 00e4 10000000 		.4byte	.LFE23
 4215 00e8 00000000 		.4byte	.LFB25
 4216 00ec 10000000 		.4byte	.LFE25
 4217 00f0 00000000 		.4byte	.LFB27
 4218 00f4 10000000 		.4byte	.LFE27
 4219 00f8 00000000 		.4byte	.LFB28
 4220 00fc 10000000 		.4byte	.LFE28
 4221 0100 00000000 		.4byte	.LFB29
 4222 0104 24000000 		.4byte	.LFE29
 4223 0108 00000000 		.4byte	.LFB30
 4224 010c 24000000 		.4byte	.LFE30
 4225 0110 00000000 		.4byte	.LFB31
 4226 0114 28000000 		.4byte	.LFE31
 4227 0118 00000000 		.4byte	.LFB32
 4228 011c 24000000 		.4byte	.LFE32
 4229 0120 00000000 		.4byte	.LFB33
 4230 0124 24000000 		.4byte	.LFE33
 4231 0128 00000000 		.4byte	.LFB34
 4232 012c 1C000000 		.4byte	.LFE34
 4233 0130 00000000 		.4byte	.LFB35
 4234 0134 14000000 		.4byte	.LFE35
 4235 0138 00000000 		.4byte	.LFB36
 4236 013c 0C000000 		.4byte	.LFE36
 4237 0140 00000000 		.4byte	.LFB37
 4238 0144 0C000000 		.4byte	.LFE37
ARM GAS  C:\Users\AFDHAL~1\AppData\Local\Temp\ccSYCZD3.s 			page 105


 4239 0148 00000000 		.4byte	.LFB38
 4240 014c 0C000000 		.4byte	.LFE38
 4241 0150 00000000 		.4byte	.LFB39
 4242 0154 0C000000 		.4byte	.LFE39
 4243 0158 00000000 		.4byte	.LFB40
 4244 015c 0C000000 		.4byte	.LFE40
 4245 0160 00000000 		.4byte	0
 4246 0164 00000000 		.4byte	0
 4247              		.section	.debug_line,"",%progbits
 4248              	.Ldebug_line0:
 4249 0000 FD030000 		.section	.debug_str,"MS",%progbits,1
 4249      02004F00 
 4249      00000201 
 4249      FB0E0D00 
 4249      01010101 
 4250              	.LASF21:
 4251 0000 636F756E 		.ascii	"count\000"
 4251      7400
 4252              	.LASF75:
 4253 0006 43794578 		.ascii	"CyExitCriticalSection\000"
 4253      69744372 
 4253      69746963 
 4253      616C5365 
 4253      6374696F 
 4254              	.LASF73:
 4255 001c 51756164 		.ascii	"QuadDec_SetInterrupt\000"
 4255      4465635F 
 4255      53657449 
 4255      6E746572 
 4255      72757074 
 4256              	.LASF23:
 4257 0031 70657269 		.ascii	"period\000"
 4257      6F6400
 4258              	.LASF7:
 4259 0038 6C6F6E67 		.ascii	"long long unsigned int\000"
 4259      206C6F6E 
 4259      6720756E 
 4259      7369676E 
 4259      65642069 
 4260              	.LASF59:
 4261 004f 51756164 		.ascii	"QuadDec_WriteCompareBuf\000"
 4261      4465635F 
 4261      57726974 
 4261      65436F6D 
 4261      70617265 
 4262              	.LASF30:
 4263 0067 51756164 		.ascii	"QuadDec_Start\000"
 4263      4465635F 
 4263      53746172 
 4263      7400
 4264              	.LASF35:
 4265 0075 71644D6F 		.ascii	"qdMode\000"
 4265      646500
 4266              	.LASF26:
 4267 007c 51756164 		.ascii	"QuadDec_SetCounterMode\000"
 4267      4465635F 
 4267      53657443 
ARM GAS  C:\Users\AFDHAL~1\AppData\Local\Temp\ccSYCZD3.s 			page 106


 4267      6F756E74 
 4267      65724D6F 
 4268              	.LASF76:
 4269 0093 474E5520 		.ascii	"GNU C11 5.4.1 20160609 (release) [ARM/embedded-5-br"
 4269      43313120 
 4269      352E342E 
 4269      31203230 
 4269      31363036 
 4270 00c6 616E6368 		.ascii	"anch revision 237715] -mcpu=cortex-m0 -mthumb -g -O"
 4270      20726576 
 4270      6973696F 
 4270      6E203233 
 4270      37373135 
 4271 00f9 33202D66 		.ascii	"3 -ffunction-sections -ffat-lto-objects\000"
 4271      66756E63 
 4271      74696F6E 
 4271      2D736563 
 4271      74696F6E 
 4272              	.LASF6:
 4273 0121 6C6F6E67 		.ascii	"long long int\000"
 4273      206C6F6E 
 4273      6720696E 
 4273      7400
 4274              	.LASF0:
 4275 012f 7369676E 		.ascii	"signed char\000"
 4275      65642063 
 4275      68617200 
 4276              	.LASF50:
 4277 013b 51756164 		.ascii	"QuadDec_ReadPeriod\000"
 4277      4465635F 
 4277      52656164 
 4277      50657269 
 4277      6F6400
 4278              	.LASF42:
 4279 014e 51756164 		.ascii	"QuadDec_SetPWMSyncKill\000"
 4279      4465635F 
 4279      53657450 
 4279      574D5379 
 4279      6E634B69 
 4280              	.LASF44:
 4281 0165 51756164 		.ascii	"QuadDec_SetPWMStopOnKill\000"
 4281      4465635F 
 4281      53657450 
 4281      574D5374 
 4281      6F704F6E 
 4282              	.LASF68:
 4283 017e 51756164 		.ascii	"QuadDec_SetCountMode\000"
 4283      4465635F 
 4283      53657443 
 4283      6F756E74 
 4283      4D6F6465 
 4284              	.LASF4:
 4285 0193 6C6F6E67 		.ascii	"long int\000"
 4285      20696E74 
 4285      00
 4286              	.LASF38:
 4287 019c 51756164 		.ascii	"QuadDec_SetOneShot\000"
ARM GAS  C:\Users\AFDHAL~1\AppData\Local\Temp\ccSYCZD3.s 			page 107


 4287      4465635F 
 4287      5365744F 
 4287      6E655368 
 4287      6F7400
 4288              	.LASF9:
 4289 01af 75696E74 		.ascii	"uint8\000"
 4289      3800
 4290              	.LASF12:
 4291 01b5 646F7562 		.ascii	"double\000"
 4291      6C6500
 4292              	.LASF22:
 4293 01bc 51756164 		.ascii	"QuadDec_WritePeriod\000"
 4293      4465635F 
 4293      57726974 
 4293      65506572 
 4293      696F6400 
 4294              	.LASF63:
 4295 01d0 51756164 		.ascii	"QuadDec_SetCaptureMode\000"
 4295      4465635F 
 4295      53657443 
 4295      61707475 
 4295      72654D6F 
 4296              	.LASF66:
 4297 01e7 51756164 		.ascii	"QuadDec_SetStartMode\000"
 4297      4465635F 
 4297      53657453 
 4297      74617274 
 4297      4D6F6465 
 4298              	.LASF10:
 4299 01fc 75696E74 		.ascii	"uint32\000"
 4299      333200
 4300              	.LASF64:
 4301 0203 74726967 		.ascii	"triggerMode\000"
 4301      6765724D 
 4301      6F646500 
 4302              	.LASF17:
 4303 020f 6D61736B 		.ascii	"mask\000"
 4303      00
 4304              	.LASF57:
 4305 0214 51756164 		.ascii	"QuadDec_WriteCompare\000"
 4305      4465635F 
 4305      57726974 
 4305      65436F6D 
 4305      70617265 
 4306              	.LASF70:
 4307 0229 51756164 		.ascii	"QuadDec_GetInterruptSourceMasked\000"
 4307      4465635F 
 4307      47657449 
 4307      6E746572 
 4307      72757074 
 4308              	.LASF72:
 4309 024a 51756164 		.ascii	"QuadDec_ClearInterrupt\000"
 4309      4465635F 
 4309      436C6561 
 4309      72496E74 
 4309      65727275 
 4310              	.LASF47:
ARM GAS  C:\Users\AFDHAL~1\AppData\Local\Temp\ccSYCZD3.s 			page 108


 4311 0261 64656164 		.ascii	"deadTime\000"
 4311      54696D65 
 4311      00
 4312              	.LASF40:
 4313 026a 51756164 		.ascii	"QuadDec_SetPWMMode\000"
 4313      4465635F 
 4313      53657450 
 4313      574D4D6F 
 4313      646500
 4314              	.LASF8:
 4315 027d 756E7369 		.ascii	"unsigned int\000"
 4315      676E6564 
 4315      20696E74 
 4315      00
 4316              	.LASF71:
 4317 028a 51756164 		.ascii	"QuadDec_GetInterruptSource\000"
 4317      4465635F 
 4317      47657449 
 4317      6E746572 
 4317      72757074 
 4318              	.LASF18:
 4319 02a5 636F6D6D 		.ascii	"command\000"
 4319      616E6400 
 4320              	.LASF77:
 4321 02ad 47656E65 		.ascii	"Generated_Source\\PSoC4\\QuadDec.c\000"
 4321      72617465 
 4321      645F536F 
 4321      75726365 
 4321      5C50536F 
 4322              	.LASF5:
 4323 02ce 6C6F6E67 		.ascii	"long unsigned int\000"
 4323      20756E73 
 4323      69676E65 
 4323      6420696E 
 4323      7400
 4324              	.LASF41:
 4325 02e0 6D6F6465 		.ascii	"modeMask\000"
 4325      4D61736B 
 4325      00
 4326              	.LASF74:
 4327 02e9 4379456E 		.ascii	"CyEnterCriticalSection\000"
 4327      74657243 
 4327      72697469 
 4327      63616C53 
 4327      65637469 
 4328              	.LASF51:
 4329 0300 51756164 		.ascii	"QuadDec_SetCompareSwap\000"
 4329      4465635F 
 4329      53657443 
 4329      6F6D7061 
 4329      72655377 
 4330              	.LASF3:
 4331 0317 73686F72 		.ascii	"short unsigned int\000"
 4331      7420756E 
 4331      7369676E 
 4331      65642069 
 4331      6E7400
ARM GAS  C:\Users\AFDHAL~1\AppData\Local\Temp\ccSYCZD3.s 			page 109


 4332              	.LASF61:
 4333 032a 51756164 		.ascii	"QuadDec_ReadCapture\000"
 4333      4465635F 
 4333      52656164 
 4333      43617074 
 4333      75726500 
 4334              	.LASF31:
 4335 033e 51756164 		.ascii	"QuadDec_Stop\000"
 4335      4465635F 
 4335      53746F70 
 4335      00
 4336              	.LASF20:
 4337 034b 51756164 		.ascii	"QuadDec_WriteCounter\000"
 4337      4465635F 
 4337      57726974 
 4337      65436F75 
 4337      6E746572 
 4338              	.LASF39:
 4339 0360 6F6E6553 		.ascii	"oneShotEnable\000"
 4339      686F7445 
 4339      6E61626C 
 4339      6500
 4340              	.LASF46:
 4341 036e 51756164 		.ascii	"QuadDec_SetPWMDeadTime\000"
 4341      4465635F 
 4341      53657450 
 4341      574D4465 
 4341      61645469 
 4342              	.LASF14:
 4343 0385 72656733 		.ascii	"reg32\000"
 4343      3200
 4344              	.LASF27:
 4345 038b 636F756E 		.ascii	"counterMode\000"
 4345      7465724D 
 4345      6F646500 
 4346              	.LASF16:
 4347 0397 73697A65 		.ascii	"sizetype\000"
 4347      74797065 
 4347      00
 4348              	.LASF15:
 4349 03a0 6C6F6E67 		.ascii	"long double\000"
 4349      20646F75 
 4349      626C6500 
 4350              	.LASF58:
 4351 03ac 636F6D70 		.ascii	"compare\000"
 4351      61726500 
 4352              	.LASF48:
 4353 03b4 51756164 		.ascii	"QuadDec_SetPWMInvert\000"
 4353      4465635F 
 4353      53657450 
 4353      574D496E 
 4353      76657274 
 4354              	.LASF80:
 4355 03c9 51756164 		.ascii	"QuadDec_initVar\000"
 4355      4465635F 
 4355      696E6974 
 4355      56617200 
ARM GAS  C:\Users\AFDHAL~1\AppData\Local\Temp\ccSYCZD3.s 			page 110


 4356              	.LASF19:
 4357 03d9 51756164 		.ascii	"QuadDec_TriggerCommand\000"
 4357      4465635F 
 4357      54726967 
 4357      67657243 
 4357      6F6D6D61 
 4358              	.LASF11:
 4359 03f0 666C6F61 		.ascii	"float\000"
 4359      7400
 4360              	.LASF37:
 4361 03f6 70726573 		.ascii	"prescaler\000"
 4361      63616C65 
 4361      7200
 4362              	.LASF49:
 4363 0400 51756164 		.ascii	"QuadDec_ReadCounter\000"
 4363      4465635F 
 4363      52656164 
 4363      436F756E 
 4363      74657200 
 4364              	.LASF1:
 4365 0414 756E7369 		.ascii	"unsigned char\000"
 4365      676E6564 
 4365      20636861 
 4365      7200
 4366              	.LASF33:
 4367 0422 51756164 		.ascii	"QuadDec_SetQDMode\000"
 4367      4465635F 
 4367      53657451 
 4367      444D6F64 
 4367      6500
 4368              	.LASF45:
 4369 0434 73746F70 		.ascii	"stopOnKillEnable\000"
 4369      4F6E4B69 
 4369      6C6C456E 
 4369      61626C65 
 4369      00
 4370              	.LASF2:
 4371 0445 73686F72 		.ascii	"short int\000"
 4371      7420696E 
 4371      7400
 4372              	.LASF55:
 4373 044f 51756164 		.ascii	"QuadDec_ReadPeriodBuf\000"
 4373      4465635F 
 4373      52656164 
 4373      50657269 
 4373      6F644275 
 4374              	.LASF78:
 4375 0465 433A5C55 		.ascii	"C:\\Users\\AfdhalAtiffTan\\Documents\\PSoC Creator\\"
 4375      73657273 
 4375      5C416664 
 4375      68616C41 
 4375      74696666 
 4376 0494 736D6172 		.ascii	"smart_winch_prototype\\Workspace01\\Prototype.cydsn"
 4376      745F7769 
 4376      6E63685F 
 4376      70726F74 
 4376      6F747970 
ARM GAS  C:\Users\AFDHAL~1\AppData\Local\Temp\ccSYCZD3.s 			page 111


 4377 04c5 00       		.ascii	"\000"
 4378              	.LASF25:
 4379 04c6 696E7465 		.ascii	"interruptMask\000"
 4379      72727570 
 4379      744D6173 
 4379      6B00
 4380              	.LASF36:
 4381 04d4 51756164 		.ascii	"QuadDec_SetPrescaler\000"
 4381      4465635F 
 4381      53657450 
 4381      72657363 
 4381      616C6572 
 4382              	.LASF24:
 4383 04e9 51756164 		.ascii	"QuadDec_SetInterruptMode\000"
 4383      4465635F 
 4383      53657449 
 4383      6E746572 
 4383      72757074 
 4384              	.LASF65:
 4385 0502 51756164 		.ascii	"QuadDec_SetReloadMode\000"
 4385      4465635F 
 4385      53657452 
 4385      656C6F61 
 4385      644D6F64 
 4386              	.LASF13:
 4387 0518 63686172 		.ascii	"char\000"
 4387      00
 4388              	.LASF34:
 4389 051d 6D6F6465 		.ascii	"mode\000"
 4389      00
 4390              	.LASF67:
 4391 0522 51756164 		.ascii	"QuadDec_SetStopMode\000"
 4391      4465635F 
 4391      53657453 
 4391      746F704D 
 4391      6F646500 
 4392              	.LASF79:
 4393 0536 51756164 		.ascii	"QuadDec_Init\000"
 4393      4465635F 
 4393      496E6974 
 4393      00
 4394              	.LASF60:
 4395 0543 636F6D70 		.ascii	"compareBuf\000"
 4395      61726542 
 4395      756600
 4396              	.LASF28:
 4397 054e 656E6162 		.ascii	"enableInterrupts\000"
 4397      6C65496E 
 4397      74657272 
 4397      75707473 
 4397      00
 4398              	.LASF56:
 4399 055f 51756164 		.ascii	"QuadDec_SetPeriodSwap\000"
 4399      4465635F 
 4399      53657450 
 4399      6572696F 
 4399      64537761 
ARM GAS  C:\Users\AFDHAL~1\AppData\Local\Temp\ccSYCZD3.s 			page 112


 4400              	.LASF53:
 4401 0575 51756164 		.ascii	"QuadDec_WritePeriodBuf\000"
 4401      4465635F 
 4401      57726974 
 4401      65506572 
 4401      696F6442 
 4402              	.LASF43:
 4403 058c 73796E63 		.ascii	"syncKillEnable\000"
 4403      4B696C6C 
 4403      456E6162 
 4403      6C6500
 4404              	.LASF52:
 4405 059b 73776170 		.ascii	"swapEnable\000"
 4405      456E6162 
 4405      6C6500
 4406              	.LASF69:
 4407 05a6 51756164 		.ascii	"QuadDec_ReadStatus\000"
 4407      4465635F 
 4407      52656164 
 4407      53746174 
 4407      757300
 4408              	.LASF29:
 4409 05b9 51756164 		.ascii	"QuadDec_Enable\000"
 4409      4465635F 
 4409      456E6162 
 4409      6C6500
 4410              	.LASF54:
 4411 05c8 70657269 		.ascii	"periodBuf\000"
 4411      6F644275 
 4411      6600
 4412              	.LASF62:
 4413 05d2 51756164 		.ascii	"QuadDec_ReadCaptureBuf\000"
 4413      4465635F 
 4413      52656164 
 4413      43617074 
 4413      75726542 
 4414              	.LASF32:
 4415 05e9 51756164 		.ascii	"QuadDec_SetMode\000"
 4415      4465635F 
 4415      5365744D 
 4415      6F646500 
 4416              		.ident	"GCC: (GNU Tools for ARM Embedded Processors) 5.4.1 20160609 (release) [ARM/embedded-5-bran
