ARM GAS  C:\Users\AFDHAL~1\AppData\Local\Temp\ccDxfmr2.s 			page 1


   1              		.syntax unified
   2              		.cpu cortex-m0
   3              		.fpu softvfp
   4              		.eabi_attribute 20, 1
   5              		.eabi_attribute 21, 1
   6              		.eabi_attribute 23, 3
   7              		.eabi_attribute 24, 1
   8              		.eabi_attribute 25, 1
   9              		.eabi_attribute 26, 1
  10              		.eabi_attribute 30, 2
  11              		.eabi_attribute 34, 0
  12              		.eabi_attribute 18, 4
  13              		.thumb
  14              		.syntax unified
  15              		.file	"USB_UART_SPI_UART.c"
  16              		.text
  17              	.Ltext0:
  18              		.cfi_sections	.debug_frame
  19              		.section	.text.USB_UART_SpiUartReadRxData,"ax",%progbits
  20              		.align	2
  21              		.global	USB_UART_SpiUartReadRxData
  22              		.code	16
  23              		.thumb_func
  24              		.type	USB_UART_SpiUartReadRxData, %function
  25              	USB_UART_SpiUartReadRxData:
  26              	.LFB1:
  27              		.file 1 "Generated_Source\\PSoC4\\USB_UART_SPI_UART.c"
   1:Generated_Source\PSoC4/USB_UART_SPI_UART.c **** /***************************************************************************//**
   2:Generated_Source\PSoC4/USB_UART_SPI_UART.c **** * \file USB_UART_SPI_UART.c
   3:Generated_Source\PSoC4/USB_UART_SPI_UART.c **** * \version 4.0
   4:Generated_Source\PSoC4/USB_UART_SPI_UART.c **** *
   5:Generated_Source\PSoC4/USB_UART_SPI_UART.c **** * \brief
   6:Generated_Source\PSoC4/USB_UART_SPI_UART.c **** *  This file provides the source code to the API for the SCB Component in
   7:Generated_Source\PSoC4/USB_UART_SPI_UART.c **** *  SPI and UART modes.
   8:Generated_Source\PSoC4/USB_UART_SPI_UART.c **** *
   9:Generated_Source\PSoC4/USB_UART_SPI_UART.c **** * Note:
  10:Generated_Source\PSoC4/USB_UART_SPI_UART.c **** *
  11:Generated_Source\PSoC4/USB_UART_SPI_UART.c **** *******************************************************************************
  12:Generated_Source\PSoC4/USB_UART_SPI_UART.c **** * \copyright
  13:Generated_Source\PSoC4/USB_UART_SPI_UART.c **** * Copyright 2013-2017, Cypress Semiconductor Corporation.  All rights reserved.
  14:Generated_Source\PSoC4/USB_UART_SPI_UART.c **** * You may use this file only in accordance with the license, terms, conditions,
  15:Generated_Source\PSoC4/USB_UART_SPI_UART.c **** * disclaimers, and limitations in the end user license agreement accompanying
  16:Generated_Source\PSoC4/USB_UART_SPI_UART.c **** * the software package with which this file was provided.
  17:Generated_Source\PSoC4/USB_UART_SPI_UART.c **** *******************************************************************************/
  18:Generated_Source\PSoC4/USB_UART_SPI_UART.c **** 
  19:Generated_Source\PSoC4/USB_UART_SPI_UART.c **** #include "USB_UART_PVT.h"
  20:Generated_Source\PSoC4/USB_UART_SPI_UART.c **** #include "USB_UART_SPI_UART_PVT.h"
  21:Generated_Source\PSoC4/USB_UART_SPI_UART.c **** 
  22:Generated_Source\PSoC4/USB_UART_SPI_UART.c **** /***************************************
  23:Generated_Source\PSoC4/USB_UART_SPI_UART.c **** *        SPI/UART Private Vars
  24:Generated_Source\PSoC4/USB_UART_SPI_UART.c **** ***************************************/
  25:Generated_Source\PSoC4/USB_UART_SPI_UART.c **** 
  26:Generated_Source\PSoC4/USB_UART_SPI_UART.c **** #if(USB_UART_INTERNAL_RX_SW_BUFFER_CONST)
  27:Generated_Source\PSoC4/USB_UART_SPI_UART.c ****     /* Start index to put data into the software receive buffer.*/
  28:Generated_Source\PSoC4/USB_UART_SPI_UART.c ****     volatile uint32 USB_UART_rxBufferHead;
  29:Generated_Source\PSoC4/USB_UART_SPI_UART.c ****     /* Start index to get data from the software receive buffer.*/
  30:Generated_Source\PSoC4/USB_UART_SPI_UART.c ****     volatile uint32 USB_UART_rxBufferTail;
ARM GAS  C:\Users\AFDHAL~1\AppData\Local\Temp\ccDxfmr2.s 			page 2


  31:Generated_Source\PSoC4/USB_UART_SPI_UART.c ****     /**
  32:Generated_Source\PSoC4/USB_UART_SPI_UART.c ****     * \addtogroup group_globals
  33:Generated_Source\PSoC4/USB_UART_SPI_UART.c ****     * \{
  34:Generated_Source\PSoC4/USB_UART_SPI_UART.c ****     */
  35:Generated_Source\PSoC4/USB_UART_SPI_UART.c ****     /** Sets when internal software receive buffer overflow
  36:Generated_Source\PSoC4/USB_UART_SPI_UART.c ****     *  was occurred.
  37:Generated_Source\PSoC4/USB_UART_SPI_UART.c ****     */
  38:Generated_Source\PSoC4/USB_UART_SPI_UART.c ****     volatile uint8  USB_UART_rxBufferOverflow;
  39:Generated_Source\PSoC4/USB_UART_SPI_UART.c ****     /** \} globals */
  40:Generated_Source\PSoC4/USB_UART_SPI_UART.c **** #endif /* (USB_UART_INTERNAL_RX_SW_BUFFER_CONST) */
  41:Generated_Source\PSoC4/USB_UART_SPI_UART.c **** 
  42:Generated_Source\PSoC4/USB_UART_SPI_UART.c **** #if(USB_UART_INTERNAL_TX_SW_BUFFER_CONST)
  43:Generated_Source\PSoC4/USB_UART_SPI_UART.c ****     /* Start index to put data into the software transmit buffer.*/
  44:Generated_Source\PSoC4/USB_UART_SPI_UART.c ****     volatile uint32 USB_UART_txBufferHead;
  45:Generated_Source\PSoC4/USB_UART_SPI_UART.c ****     /* Start index to get data from the software transmit buffer.*/
  46:Generated_Source\PSoC4/USB_UART_SPI_UART.c ****     volatile uint32 USB_UART_txBufferTail;
  47:Generated_Source\PSoC4/USB_UART_SPI_UART.c **** #endif /* (USB_UART_INTERNAL_TX_SW_BUFFER_CONST) */
  48:Generated_Source\PSoC4/USB_UART_SPI_UART.c **** 
  49:Generated_Source\PSoC4/USB_UART_SPI_UART.c **** #if(USB_UART_INTERNAL_RX_SW_BUFFER)
  50:Generated_Source\PSoC4/USB_UART_SPI_UART.c ****     /* Add one element to the buffer to receive full packet. One byte in receive buffer is always e
  51:Generated_Source\PSoC4/USB_UART_SPI_UART.c ****     volatile uint8 USB_UART_rxBufferInternal[USB_UART_INTERNAL_RX_BUFFER_SIZE];
  52:Generated_Source\PSoC4/USB_UART_SPI_UART.c **** #endif /* (USB_UART_INTERNAL_RX_SW_BUFFER) */
  53:Generated_Source\PSoC4/USB_UART_SPI_UART.c **** 
  54:Generated_Source\PSoC4/USB_UART_SPI_UART.c **** #if(USB_UART_INTERNAL_TX_SW_BUFFER)
  55:Generated_Source\PSoC4/USB_UART_SPI_UART.c ****     volatile uint8 USB_UART_txBufferInternal[USB_UART_TX_BUFFER_SIZE];
  56:Generated_Source\PSoC4/USB_UART_SPI_UART.c **** #endif /* (USB_UART_INTERNAL_TX_SW_BUFFER) */
  57:Generated_Source\PSoC4/USB_UART_SPI_UART.c **** 
  58:Generated_Source\PSoC4/USB_UART_SPI_UART.c **** 
  59:Generated_Source\PSoC4/USB_UART_SPI_UART.c **** #if(USB_UART_RX_DIRECTION)
  60:Generated_Source\PSoC4/USB_UART_SPI_UART.c ****     /*******************************************************************************
  61:Generated_Source\PSoC4/USB_UART_SPI_UART.c ****     * Function Name: USB_UART_SpiUartReadRxData
  62:Generated_Source\PSoC4/USB_UART_SPI_UART.c ****     ****************************************************************************//**
  63:Generated_Source\PSoC4/USB_UART_SPI_UART.c ****     *
  64:Generated_Source\PSoC4/USB_UART_SPI_UART.c ****     *  Retrieves the next data element from the receive buffer.
  65:Generated_Source\PSoC4/USB_UART_SPI_UART.c ****     *   - RX software buffer is disabled: Returns data element retrieved from
  66:Generated_Source\PSoC4/USB_UART_SPI_UART.c ****     *     RX FIFO. Undefined data will be returned if the RX FIFO is empty.
  67:Generated_Source\PSoC4/USB_UART_SPI_UART.c ****     *   - RX software buffer is enabled: Returns data element from the software
  68:Generated_Source\PSoC4/USB_UART_SPI_UART.c ****     *     receive buffer. Zero value is returned if the software receive buffer
  69:Generated_Source\PSoC4/USB_UART_SPI_UART.c ****     *     is empty.
  70:Generated_Source\PSoC4/USB_UART_SPI_UART.c ****     *
  71:Generated_Source\PSoC4/USB_UART_SPI_UART.c ****     * \return
  72:Generated_Source\PSoC4/USB_UART_SPI_UART.c ****     *  Next data element from the receive buffer. 
  73:Generated_Source\PSoC4/USB_UART_SPI_UART.c ****     *  The amount of data bits to be received depends on RX data bits selection 
  74:Generated_Source\PSoC4/USB_UART_SPI_UART.c ****     *  (the data bit counting starts from LSB of return value).
  75:Generated_Source\PSoC4/USB_UART_SPI_UART.c ****     *
  76:Generated_Source\PSoC4/USB_UART_SPI_UART.c ****     * \globalvars
  77:Generated_Source\PSoC4/USB_UART_SPI_UART.c ****     *  USB_UART_rxBufferHead - the start index to put data into the 
  78:Generated_Source\PSoC4/USB_UART_SPI_UART.c ****     *  software receive buffer.
  79:Generated_Source\PSoC4/USB_UART_SPI_UART.c ****     *  USB_UART_rxBufferTail - the start index to get data from the 
  80:Generated_Source\PSoC4/USB_UART_SPI_UART.c ****     *  software receive buffer.
  81:Generated_Source\PSoC4/USB_UART_SPI_UART.c ****     *
  82:Generated_Source\PSoC4/USB_UART_SPI_UART.c ****     *******************************************************************************/
  83:Generated_Source\PSoC4/USB_UART_SPI_UART.c ****     uint32 USB_UART_SpiUartReadRxData(void)
  84:Generated_Source\PSoC4/USB_UART_SPI_UART.c ****     {
  28              		.loc 1 84 0
  29              		.cfi_startproc
  30              		@ args = 0, pretend = 0, frame = 0
ARM GAS  C:\Users\AFDHAL~1\AppData\Local\Temp\ccDxfmr2.s 			page 3


  31              		@ frame_needed = 0, uses_anonymous_args = 0
  32              		@ link register save eliminated.
  33              	.LVL0:
  85:Generated_Source\PSoC4/USB_UART_SPI_UART.c ****         uint32 rxData = 0u;
  86:Generated_Source\PSoC4/USB_UART_SPI_UART.c **** 
  87:Generated_Source\PSoC4/USB_UART_SPI_UART.c ****     #if (USB_UART_INTERNAL_RX_SW_BUFFER_CONST)
  88:Generated_Source\PSoC4/USB_UART_SPI_UART.c ****         uint32 locTail;
  89:Generated_Source\PSoC4/USB_UART_SPI_UART.c ****     #endif /* (USB_UART_INTERNAL_RX_SW_BUFFER_CONST) */
  90:Generated_Source\PSoC4/USB_UART_SPI_UART.c **** 
  91:Generated_Source\PSoC4/USB_UART_SPI_UART.c ****         #if (USB_UART_CHECK_RX_SW_BUFFER)
  92:Generated_Source\PSoC4/USB_UART_SPI_UART.c ****         {
  93:Generated_Source\PSoC4/USB_UART_SPI_UART.c ****             if (USB_UART_rxBufferHead != USB_UART_rxBufferTail)
  34              		.loc 1 93 0
  35 0000 094B     		ldr	r3, .L7
  36 0002 0A4A     		ldr	r2, .L7+4
  37 0004 1968     		ldr	r1, [r3]
  38 0006 1368     		ldr	r3, [r2]
  39 0008 9942     		cmp	r1, r3
  40 000a 0AD0     		beq	.L4
  94:Generated_Source\PSoC4/USB_UART_SPI_UART.c ****             {
  95:Generated_Source\PSoC4/USB_UART_SPI_UART.c ****                 /* There is data in RX software buffer */
  96:Generated_Source\PSoC4/USB_UART_SPI_UART.c **** 
  97:Generated_Source\PSoC4/USB_UART_SPI_UART.c ****                 /* Calculate index to read from */
  98:Generated_Source\PSoC4/USB_UART_SPI_UART.c ****                 locTail = (USB_UART_rxBufferTail + 1u);
  41              		.loc 1 98 0
  42 000c 1368     		ldr	r3, [r2]
  43 000e 0133     		adds	r3, r3, #1
  44              	.LVL1:
  99:Generated_Source\PSoC4/USB_UART_SPI_UART.c **** 
 100:Generated_Source\PSoC4/USB_UART_SPI_UART.c ****                 if (USB_UART_INTERNAL_RX_BUFFER_SIZE == locTail)
  45              		.loc 1 100 0
  46 0010 212B     		cmp	r3, #33
  47 0012 04D0     		beq	.L6
  48              	.LVL2:
  49              	.L3:
 101:Generated_Source\PSoC4/USB_UART_SPI_UART.c ****                 {
 102:Generated_Source\PSoC4/USB_UART_SPI_UART.c ****                     locTail = 0u;
 103:Generated_Source\PSoC4/USB_UART_SPI_UART.c ****                 }
 104:Generated_Source\PSoC4/USB_UART_SPI_UART.c **** 
 105:Generated_Source\PSoC4/USB_UART_SPI_UART.c ****                 /* Get data from RX software buffer */
 106:Generated_Source\PSoC4/USB_UART_SPI_UART.c ****                 rxData = USB_UART_GetWordFromRxBuffer(locTail);
  50              		.loc 1 106 0
  51 0014 0649     		ldr	r1, .L7+8
  52 0016 C85C     		ldrb	r0, [r1, r3]
 107:Generated_Source\PSoC4/USB_UART_SPI_UART.c **** 
 108:Generated_Source\PSoC4/USB_UART_SPI_UART.c ****                 /* Change index in the buffer */
 109:Generated_Source\PSoC4/USB_UART_SPI_UART.c ****                 USB_UART_rxBufferTail = locTail;
  53              		.loc 1 109 0
  54 0018 1360     		str	r3, [r2]
 106:Generated_Source\PSoC4/USB_UART_SPI_UART.c **** 
  55              		.loc 1 106 0
  56 001a C0B2     		uxtb	r0, r0
  57              	.LVL3:
  58              	.L2:
 110:Generated_Source\PSoC4/USB_UART_SPI_UART.c **** 
 111:Generated_Source\PSoC4/USB_UART_SPI_UART.c ****                 #if (USB_UART_CHECK_UART_RTS_CONTROL_FLOW)
 112:Generated_Source\PSoC4/USB_UART_SPI_UART.c ****                 {
ARM GAS  C:\Users\AFDHAL~1\AppData\Local\Temp\ccDxfmr2.s 			page 4


 113:Generated_Source\PSoC4/USB_UART_SPI_UART.c ****                     /* Check if RX Not Empty is disabled in the interrupt */
 114:Generated_Source\PSoC4/USB_UART_SPI_UART.c ****                     if (0u == (USB_UART_INTR_RX_MASK_REG & USB_UART_INTR_RX_NOT_EMPTY))
 115:Generated_Source\PSoC4/USB_UART_SPI_UART.c ****                     {
 116:Generated_Source\PSoC4/USB_UART_SPI_UART.c ****                         /* Enable RX Not Empty interrupt source to continue
 117:Generated_Source\PSoC4/USB_UART_SPI_UART.c ****                         * receiving data into software buffer.
 118:Generated_Source\PSoC4/USB_UART_SPI_UART.c ****                         */
 119:Generated_Source\PSoC4/USB_UART_SPI_UART.c ****                         USB_UART_INTR_RX_MASK_REG |= USB_UART_INTR_RX_NOT_EMPTY;
 120:Generated_Source\PSoC4/USB_UART_SPI_UART.c ****                     }
 121:Generated_Source\PSoC4/USB_UART_SPI_UART.c ****                 }
 122:Generated_Source\PSoC4/USB_UART_SPI_UART.c ****                 #endif
 123:Generated_Source\PSoC4/USB_UART_SPI_UART.c **** 
 124:Generated_Source\PSoC4/USB_UART_SPI_UART.c ****             }
 125:Generated_Source\PSoC4/USB_UART_SPI_UART.c ****         }
 126:Generated_Source\PSoC4/USB_UART_SPI_UART.c ****         #else
 127:Generated_Source\PSoC4/USB_UART_SPI_UART.c ****         {
 128:Generated_Source\PSoC4/USB_UART_SPI_UART.c ****             /* Read data from RX FIFO */
 129:Generated_Source\PSoC4/USB_UART_SPI_UART.c ****             rxData = USB_UART_RX_FIFO_RD_REG;
 130:Generated_Source\PSoC4/USB_UART_SPI_UART.c ****         }
 131:Generated_Source\PSoC4/USB_UART_SPI_UART.c ****         #endif
 132:Generated_Source\PSoC4/USB_UART_SPI_UART.c **** 
 133:Generated_Source\PSoC4/USB_UART_SPI_UART.c ****         return (rxData);
 134:Generated_Source\PSoC4/USB_UART_SPI_UART.c ****     }
  59              		.loc 1 134 0
  60              		@ sp needed
  61 001c 7047     		bx	lr
  62              	.LVL4:
  63              	.L6:
 102:Generated_Source\PSoC4/USB_UART_SPI_UART.c ****                 }
  64              		.loc 1 102 0
  65 001e 0023     		movs	r3, #0
  66              	.LVL5:
  67 0020 F8E7     		b	.L3
  68              	.L4:
  85:Generated_Source\PSoC4/USB_UART_SPI_UART.c **** 
  69              		.loc 1 85 0
  70 0022 0020     		movs	r0, #0
  71 0024 FAE7     		b	.L2
  72              	.L8:
  73 0026 C046     		.align	2
  74              	.L7:
  75 0028 00000000 		.word	USB_UART_rxBufferHead
  76 002c 00000000 		.word	USB_UART_rxBufferTail
  77 0030 00000000 		.word	USB_UART_rxBufferInternal
  78              		.cfi_endproc
  79              	.LFE1:
  80              		.size	USB_UART_SpiUartReadRxData, .-USB_UART_SpiUartReadRxData
  81              		.section	.text.USB_UART_SpiUartGetRxBufferSize,"ax",%progbits
  82              		.align	2
  83              		.global	USB_UART_SpiUartGetRxBufferSize
  84              		.code	16
  85              		.thumb_func
  86              		.type	USB_UART_SpiUartGetRxBufferSize, %function
  87              	USB_UART_SpiUartGetRxBufferSize:
  88              	.LFB2:
 135:Generated_Source\PSoC4/USB_UART_SPI_UART.c **** 
 136:Generated_Source\PSoC4/USB_UART_SPI_UART.c **** 
 137:Generated_Source\PSoC4/USB_UART_SPI_UART.c ****     /*******************************************************************************
ARM GAS  C:\Users\AFDHAL~1\AppData\Local\Temp\ccDxfmr2.s 			page 5


 138:Generated_Source\PSoC4/USB_UART_SPI_UART.c ****     * Function Name: USB_UART_SpiUartGetRxBufferSize
 139:Generated_Source\PSoC4/USB_UART_SPI_UART.c ****     ****************************************************************************//**
 140:Generated_Source\PSoC4/USB_UART_SPI_UART.c ****     *
 141:Generated_Source\PSoC4/USB_UART_SPI_UART.c ****     *  Returns the number of received data elements in the receive buffer.
 142:Generated_Source\PSoC4/USB_UART_SPI_UART.c ****     *   - RX software buffer disabled: returns the number of used entries in
 143:Generated_Source\PSoC4/USB_UART_SPI_UART.c ****     *     RX FIFO.
 144:Generated_Source\PSoC4/USB_UART_SPI_UART.c ****     *   - RX software buffer enabled: returns the number of elements which were
 145:Generated_Source\PSoC4/USB_UART_SPI_UART.c ****     *     placed in the receive buffer. This does not include the hardware RX FIFO.
 146:Generated_Source\PSoC4/USB_UART_SPI_UART.c ****     *
 147:Generated_Source\PSoC4/USB_UART_SPI_UART.c ****     * \return
 148:Generated_Source\PSoC4/USB_UART_SPI_UART.c ****     *  Number of received data elements.
 149:Generated_Source\PSoC4/USB_UART_SPI_UART.c ****     *
 150:Generated_Source\PSoC4/USB_UART_SPI_UART.c ****     * \globalvars
 151:Generated_Source\PSoC4/USB_UART_SPI_UART.c ****     *  USB_UART_rxBufferHead - the start index to put data into the 
 152:Generated_Source\PSoC4/USB_UART_SPI_UART.c ****     *  software receive buffer.
 153:Generated_Source\PSoC4/USB_UART_SPI_UART.c ****     *  USB_UART_rxBufferTail - the start index to get data from the 
 154:Generated_Source\PSoC4/USB_UART_SPI_UART.c ****     *  software receive buffer.
 155:Generated_Source\PSoC4/USB_UART_SPI_UART.c ****     *
 156:Generated_Source\PSoC4/USB_UART_SPI_UART.c ****     *******************************************************************************/
 157:Generated_Source\PSoC4/USB_UART_SPI_UART.c ****     uint32 USB_UART_SpiUartGetRxBufferSize(void)
 158:Generated_Source\PSoC4/USB_UART_SPI_UART.c ****     {
  89              		.loc 1 158 0
  90              		.cfi_startproc
  91              		@ args = 0, pretend = 0, frame = 0
  92              		@ frame_needed = 0, uses_anonymous_args = 0
  93              		@ link register save eliminated.
 159:Generated_Source\PSoC4/USB_UART_SPI_UART.c ****         uint32 size;
 160:Generated_Source\PSoC4/USB_UART_SPI_UART.c ****     #if (USB_UART_INTERNAL_RX_SW_BUFFER_CONST)
 161:Generated_Source\PSoC4/USB_UART_SPI_UART.c ****         uint32 locHead;
 162:Generated_Source\PSoC4/USB_UART_SPI_UART.c ****     #endif /* (USB_UART_INTERNAL_RX_SW_BUFFER_CONST) */
 163:Generated_Source\PSoC4/USB_UART_SPI_UART.c **** 
 164:Generated_Source\PSoC4/USB_UART_SPI_UART.c ****         #if (USB_UART_CHECK_RX_SW_BUFFER)
 165:Generated_Source\PSoC4/USB_UART_SPI_UART.c ****         {
 166:Generated_Source\PSoC4/USB_UART_SPI_UART.c ****             locHead = USB_UART_rxBufferHead;
  94              		.loc 1 166 0
  95 0000 044B     		ldr	r3, .L13
  96 0002 1868     		ldr	r0, [r3]
  97              	.LVL6:
 167:Generated_Source\PSoC4/USB_UART_SPI_UART.c **** 
 168:Generated_Source\PSoC4/USB_UART_SPI_UART.c ****             if(locHead >= USB_UART_rxBufferTail)
  98              		.loc 1 168 0
  99 0004 044B     		ldr	r3, .L13+4
 100 0006 1A68     		ldr	r2, [r3]
 169:Generated_Source\PSoC4/USB_UART_SPI_UART.c ****             {
 170:Generated_Source\PSoC4/USB_UART_SPI_UART.c ****                 size = (locHead - USB_UART_rxBufferTail);
 101              		.loc 1 170 0
 102 0008 1B68     		ldr	r3, [r3]
 168:Generated_Source\PSoC4/USB_UART_SPI_UART.c ****             {
 103              		.loc 1 168 0
 104 000a 9042     		cmp	r0, r2
 105 000c 00D2     		bcs	.L12
 171:Generated_Source\PSoC4/USB_UART_SPI_UART.c ****             }
 172:Generated_Source\PSoC4/USB_UART_SPI_UART.c ****             else
 173:Generated_Source\PSoC4/USB_UART_SPI_UART.c ****             {
 174:Generated_Source\PSoC4/USB_UART_SPI_UART.c ****                 size = (locHead + (USB_UART_INTERNAL_RX_BUFFER_SIZE - USB_UART_rxBufferTail));
 106              		.loc 1 174 0
 107 000e 2130     		adds	r0, r0, #33
ARM GAS  C:\Users\AFDHAL~1\AppData\Local\Temp\ccDxfmr2.s 			page 6


 108              	.LVL7:
 109              	.L12:
 110 0010 C01A     		subs	r0, r0, r3
 111              	.LVL8:
 175:Generated_Source\PSoC4/USB_UART_SPI_UART.c ****             }
 176:Generated_Source\PSoC4/USB_UART_SPI_UART.c ****         }
 177:Generated_Source\PSoC4/USB_UART_SPI_UART.c ****         #else
 178:Generated_Source\PSoC4/USB_UART_SPI_UART.c ****         {
 179:Generated_Source\PSoC4/USB_UART_SPI_UART.c ****             size = USB_UART_GET_RX_FIFO_ENTRIES;
 180:Generated_Source\PSoC4/USB_UART_SPI_UART.c ****         }
 181:Generated_Source\PSoC4/USB_UART_SPI_UART.c ****         #endif
 182:Generated_Source\PSoC4/USB_UART_SPI_UART.c **** 
 183:Generated_Source\PSoC4/USB_UART_SPI_UART.c ****         return (size);
 184:Generated_Source\PSoC4/USB_UART_SPI_UART.c ****     }
 112              		.loc 1 184 0
 113              		@ sp needed
 114 0012 7047     		bx	lr
 115              	.L14:
 116              		.align	2
 117              	.L13:
 118 0014 00000000 		.word	USB_UART_rxBufferHead
 119 0018 00000000 		.word	USB_UART_rxBufferTail
 120              		.cfi_endproc
 121              	.LFE2:
 122              		.size	USB_UART_SpiUartGetRxBufferSize, .-USB_UART_SpiUartGetRxBufferSize
 123              		.section	.text.USB_UART_SpiUartClearRxBuffer,"ax",%progbits
 124              		.align	2
 125              		.global	USB_UART_SpiUartClearRxBuffer
 126              		.code	16
 127              		.thumb_func
 128              		.type	USB_UART_SpiUartClearRxBuffer, %function
 129              	USB_UART_SpiUartClearRxBuffer:
 130              	.LFB3:
 185:Generated_Source\PSoC4/USB_UART_SPI_UART.c **** 
 186:Generated_Source\PSoC4/USB_UART_SPI_UART.c **** 
 187:Generated_Source\PSoC4/USB_UART_SPI_UART.c ****     /*******************************************************************************
 188:Generated_Source\PSoC4/USB_UART_SPI_UART.c ****     * Function Name: USB_UART_SpiUartClearRxBuffer
 189:Generated_Source\PSoC4/USB_UART_SPI_UART.c ****     ****************************************************************************//**
 190:Generated_Source\PSoC4/USB_UART_SPI_UART.c ****     *
 191:Generated_Source\PSoC4/USB_UART_SPI_UART.c ****     *  Clears the receive buffer and RX FIFO.
 192:Generated_Source\PSoC4/USB_UART_SPI_UART.c ****     *
 193:Generated_Source\PSoC4/USB_UART_SPI_UART.c ****     * \globalvars
 194:Generated_Source\PSoC4/USB_UART_SPI_UART.c ****     *  USB_UART_rxBufferHead - the start index to put data into the 
 195:Generated_Source\PSoC4/USB_UART_SPI_UART.c ****     *  software receive buffer.
 196:Generated_Source\PSoC4/USB_UART_SPI_UART.c ****     *  USB_UART_rxBufferTail - the start index to get data from the 
 197:Generated_Source\PSoC4/USB_UART_SPI_UART.c ****     *  software receive buffer.
 198:Generated_Source\PSoC4/USB_UART_SPI_UART.c ****     *
 199:Generated_Source\PSoC4/USB_UART_SPI_UART.c ****     *******************************************************************************/
 200:Generated_Source\PSoC4/USB_UART_SPI_UART.c ****     void USB_UART_SpiUartClearRxBuffer(void)
 201:Generated_Source\PSoC4/USB_UART_SPI_UART.c ****     {
 131              		.loc 1 201 0
 132              		.cfi_startproc
 133              		@ args = 0, pretend = 0, frame = 0
 134              		@ frame_needed = 0, uses_anonymous_args = 0
 135 0000 10B5     		push	{r4, lr}
 136              		.cfi_def_cfa_offset 8
 137              		.cfi_offset 4, -8
ARM GAS  C:\Users\AFDHAL~1\AppData\Local\Temp\ccDxfmr2.s 			page 7


 138              		.cfi_offset 14, -4
 202:Generated_Source\PSoC4/USB_UART_SPI_UART.c ****         #if (USB_UART_CHECK_RX_SW_BUFFER)
 203:Generated_Source\PSoC4/USB_UART_SPI_UART.c ****         {
 204:Generated_Source\PSoC4/USB_UART_SPI_UART.c ****             /* Lock from component interruption */
 205:Generated_Source\PSoC4/USB_UART_SPI_UART.c ****             USB_UART_DisableInt();
 139              		.loc 1 205 0
 140 0002 0B20     		movs	r0, #11
 141 0004 FFF7FEFF 		bl	CyIntDisable
 142              	.LVL9:
 206:Generated_Source\PSoC4/USB_UART_SPI_UART.c **** 
 207:Generated_Source\PSoC4/USB_UART_SPI_UART.c ****             /* Flush RX software buffer */
 208:Generated_Source\PSoC4/USB_UART_SPI_UART.c ****             USB_UART_rxBufferHead = USB_UART_rxBufferTail;
 143              		.loc 1 208 0
 144 0008 0B4B     		ldr	r3, .L16
 209:Generated_Source\PSoC4/USB_UART_SPI_UART.c ****             USB_UART_rxBufferOverflow = 0u;
 210:Generated_Source\PSoC4/USB_UART_SPI_UART.c **** 
 211:Generated_Source\PSoC4/USB_UART_SPI_UART.c ****             USB_UART_CLEAR_RX_FIFO;
 145              		.loc 1 211 0
 146 000a 8021     		movs	r1, #128
 208:Generated_Source\PSoC4/USB_UART_SPI_UART.c ****             USB_UART_rxBufferOverflow = 0u;
 147              		.loc 1 208 0
 148 000c 1A68     		ldr	r2, [r3]
 149 000e 0B4B     		ldr	r3, .L16+4
 150              		.loc 1 211 0
 151 0010 4902     		lsls	r1, r1, #9
 208:Generated_Source\PSoC4/USB_UART_SPI_UART.c ****             USB_UART_rxBufferOverflow = 0u;
 152              		.loc 1 208 0
 153 0012 1A60     		str	r2, [r3]
 209:Generated_Source\PSoC4/USB_UART_SPI_UART.c ****             USB_UART_rxBufferOverflow = 0u;
 154              		.loc 1 209 0
 155 0014 0022     		movs	r2, #0
 156 0016 0A4B     		ldr	r3, .L16+8
 212:Generated_Source\PSoC4/USB_UART_SPI_UART.c ****             USB_UART_ClearRxInterruptSource(USB_UART_INTR_RX_ALL);
 213:Generated_Source\PSoC4/USB_UART_SPI_UART.c **** 
 214:Generated_Source\PSoC4/USB_UART_SPI_UART.c ****             #if (USB_UART_CHECK_UART_RTS_CONTROL_FLOW)
 215:Generated_Source\PSoC4/USB_UART_SPI_UART.c ****             {
 216:Generated_Source\PSoC4/USB_UART_SPI_UART.c ****                 /* Enable RX Not Empty interrupt source to continue receiving
 217:Generated_Source\PSoC4/USB_UART_SPI_UART.c ****                 * data into software buffer.
 218:Generated_Source\PSoC4/USB_UART_SPI_UART.c ****                 */
 219:Generated_Source\PSoC4/USB_UART_SPI_UART.c ****                 USB_UART_INTR_RX_MASK_REG |= USB_UART_INTR_RX_NOT_EMPTY;
 220:Generated_Source\PSoC4/USB_UART_SPI_UART.c ****             }
 221:Generated_Source\PSoC4/USB_UART_SPI_UART.c ****             #endif
 222:Generated_Source\PSoC4/USB_UART_SPI_UART.c ****             
 223:Generated_Source\PSoC4/USB_UART_SPI_UART.c ****             /* Release lock */
 224:Generated_Source\PSoC4/USB_UART_SPI_UART.c ****             USB_UART_EnableInt();
 157              		.loc 1 224 0
 158 0018 0B20     		movs	r0, #11
 209:Generated_Source\PSoC4/USB_UART_SPI_UART.c **** 
 159              		.loc 1 209 0
 160 001a 1A70     		strb	r2, [r3]
 211:Generated_Source\PSoC4/USB_UART_SPI_UART.c ****             USB_UART_ClearRxInterruptSource(USB_UART_INTR_RX_ALL);
 161              		.loc 1 211 0
 162 001c 094B     		ldr	r3, .L16+12
 225:Generated_Source\PSoC4/USB_UART_SPI_UART.c ****         }
 226:Generated_Source\PSoC4/USB_UART_SPI_UART.c ****         #else
 227:Generated_Source\PSoC4/USB_UART_SPI_UART.c ****         {
 228:Generated_Source\PSoC4/USB_UART_SPI_UART.c ****             USB_UART_CLEAR_RX_FIFO;
ARM GAS  C:\Users\AFDHAL~1\AppData\Local\Temp\ccDxfmr2.s 			page 8


 229:Generated_Source\PSoC4/USB_UART_SPI_UART.c ****         }
 230:Generated_Source\PSoC4/USB_UART_SPI_UART.c ****         #endif
 231:Generated_Source\PSoC4/USB_UART_SPI_UART.c ****     }
 163              		.loc 1 231 0
 164              		@ sp needed
 211:Generated_Source\PSoC4/USB_UART_SPI_UART.c ****             USB_UART_ClearRxInterruptSource(USB_UART_INTR_RX_ALL);
 165              		.loc 1 211 0
 166 001e 1A68     		ldr	r2, [r3]
 167 0020 0A43     		orrs	r2, r1
 168 0022 1A60     		str	r2, [r3]
 169 0024 1968     		ldr	r1, [r3]
 170 0026 084A     		ldr	r2, .L16+16
 171 0028 0A40     		ands	r2, r1
 172 002a 1A60     		str	r2, [r3]
 212:Generated_Source\PSoC4/USB_UART_SPI_UART.c **** 
 173              		.loc 1 212 0
 174 002c 074A     		ldr	r2, .L16+20
 175 002e 084B     		ldr	r3, .L16+24
 176 0030 1A60     		str	r2, [r3]
 224:Generated_Source\PSoC4/USB_UART_SPI_UART.c ****         }
 177              		.loc 1 224 0
 178 0032 FFF7FEFF 		bl	CyIntEnable
 179              	.LVL10:
 180              		.loc 1 231 0
 181 0036 10BD     		pop	{r4, pc}
 182              	.L17:
 183              		.align	2
 184              	.L16:
 185 0038 00000000 		.word	USB_UART_rxBufferTail
 186 003c 00000000 		.word	USB_UART_rxBufferHead
 187 0040 00000000 		.word	USB_UART_rxBufferOverflow
 188 0044 04032740 		.word	1076298500
 189 0048 FFFFFEFF 		.word	-65537
 190 004c ED0F0000 		.word	4077
 191 0050 C00F2740 		.word	1076301760
 192              		.cfi_endproc
 193              	.LFE3:
 194              		.size	USB_UART_SpiUartClearRxBuffer, .-USB_UART_SpiUartClearRxBuffer
 195              		.section	.text.USB_UART_SpiUartWriteTxData,"ax",%progbits
 196              		.align	2
 197              		.global	USB_UART_SpiUartWriteTxData
 198              		.code	16
 199              		.thumb_func
 200              		.type	USB_UART_SpiUartWriteTxData, %function
 201              	USB_UART_SpiUartWriteTxData:
 202              	.LFB4:
 232:Generated_Source\PSoC4/USB_UART_SPI_UART.c **** 
 233:Generated_Source\PSoC4/USB_UART_SPI_UART.c **** #endif /* (USB_UART_RX_DIRECTION) */
 234:Generated_Source\PSoC4/USB_UART_SPI_UART.c **** 
 235:Generated_Source\PSoC4/USB_UART_SPI_UART.c **** 
 236:Generated_Source\PSoC4/USB_UART_SPI_UART.c **** #if(USB_UART_TX_DIRECTION)
 237:Generated_Source\PSoC4/USB_UART_SPI_UART.c ****     /*******************************************************************************
 238:Generated_Source\PSoC4/USB_UART_SPI_UART.c ****     * Function Name: USB_UART_SpiUartWriteTxData
 239:Generated_Source\PSoC4/USB_UART_SPI_UART.c ****     ****************************************************************************//**
 240:Generated_Source\PSoC4/USB_UART_SPI_UART.c ****     *
 241:Generated_Source\PSoC4/USB_UART_SPI_UART.c ****     *  Places a data entry into the transmit buffer to be sent at the next available
 242:Generated_Source\PSoC4/USB_UART_SPI_UART.c ****     *  bus time.
ARM GAS  C:\Users\AFDHAL~1\AppData\Local\Temp\ccDxfmr2.s 			page 9


 243:Generated_Source\PSoC4/USB_UART_SPI_UART.c ****     *  This function is blocking and waits until there is space available to put the
 244:Generated_Source\PSoC4/USB_UART_SPI_UART.c ****     *  requested data in the transmit buffer.
 245:Generated_Source\PSoC4/USB_UART_SPI_UART.c ****     *
 246:Generated_Source\PSoC4/USB_UART_SPI_UART.c ****     *  \param txDataByte: the data to be transmitted.
 247:Generated_Source\PSoC4/USB_UART_SPI_UART.c ****     *   The amount of data bits to be transmitted depends on TX data bits selection 
 248:Generated_Source\PSoC4/USB_UART_SPI_UART.c ****     *   (the data bit counting starts from LSB of txDataByte).
 249:Generated_Source\PSoC4/USB_UART_SPI_UART.c ****     *
 250:Generated_Source\PSoC4/USB_UART_SPI_UART.c ****     * \globalvars
 251:Generated_Source\PSoC4/USB_UART_SPI_UART.c ****     *  USB_UART_txBufferHead - the start index to put data into the 
 252:Generated_Source\PSoC4/USB_UART_SPI_UART.c ****     *  software transmit buffer.
 253:Generated_Source\PSoC4/USB_UART_SPI_UART.c ****     *  USB_UART_txBufferTail - start index to get data from the software
 254:Generated_Source\PSoC4/USB_UART_SPI_UART.c ****     *  transmit buffer.
 255:Generated_Source\PSoC4/USB_UART_SPI_UART.c ****     *
 256:Generated_Source\PSoC4/USB_UART_SPI_UART.c ****     *******************************************************************************/
 257:Generated_Source\PSoC4/USB_UART_SPI_UART.c ****     void USB_UART_SpiUartWriteTxData(uint32 txData)
 258:Generated_Source\PSoC4/USB_UART_SPI_UART.c ****     {
 203              		.loc 1 258 0
 204              		.cfi_startproc
 205              		@ args = 0, pretend = 0, frame = 0
 206              		@ frame_needed = 0, uses_anonymous_args = 0
 207              	.LVL11:
 208 0000 10B5     		push	{r4, lr}
 209              		.cfi_def_cfa_offset 8
 210              		.cfi_offset 4, -8
 211              		.cfi_offset 14, -4
 259:Generated_Source\PSoC4/USB_UART_SPI_UART.c ****     #if (USB_UART_INTERNAL_TX_SW_BUFFER_CONST)
 260:Generated_Source\PSoC4/USB_UART_SPI_UART.c ****         uint32 locHead;
 261:Generated_Source\PSoC4/USB_UART_SPI_UART.c ****     #endif /* (USB_UART_INTERNAL_TX_SW_BUFFER_CONST) */
 262:Generated_Source\PSoC4/USB_UART_SPI_UART.c **** 
 263:Generated_Source\PSoC4/USB_UART_SPI_UART.c ****         #if (USB_UART_CHECK_TX_SW_BUFFER)
 264:Generated_Source\PSoC4/USB_UART_SPI_UART.c ****         {
 265:Generated_Source\PSoC4/USB_UART_SPI_UART.c ****             /* Put data directly into the TX FIFO */
 266:Generated_Source\PSoC4/USB_UART_SPI_UART.c ****             if ((USB_UART_txBufferHead == USB_UART_txBufferTail) &&
 212              		.loc 1 266 0
 213 0002 1349     		ldr	r1, .L29
 214 0004 134C     		ldr	r4, .L29+4
 215 0006 2268     		ldr	r2, [r4]
 216 0008 0B68     		ldr	r3, [r1]
 217 000a 9A42     		cmp	r2, r3
 218 000c 15D0     		beq	.L27
 219              	.L19:
 267:Generated_Source\PSoC4/USB_UART_SPI_UART.c ****                 (USB_UART_SPI_UART_FIFO_SIZE != USB_UART_GET_TX_FIFO_ENTRIES))
 268:Generated_Source\PSoC4/USB_UART_SPI_UART.c ****             {
 269:Generated_Source\PSoC4/USB_UART_SPI_UART.c ****                 /* TX software buffer is empty: put data directly in TX FIFO */
 270:Generated_Source\PSoC4/USB_UART_SPI_UART.c ****                 USB_UART_TX_FIFO_WR_REG = txData;
 271:Generated_Source\PSoC4/USB_UART_SPI_UART.c ****             }
 272:Generated_Source\PSoC4/USB_UART_SPI_UART.c ****             /* Put data into TX software buffer */
 273:Generated_Source\PSoC4/USB_UART_SPI_UART.c ****             else
 274:Generated_Source\PSoC4/USB_UART_SPI_UART.c ****             {
 275:Generated_Source\PSoC4/USB_UART_SPI_UART.c ****                 /* Head index to put data */
 276:Generated_Source\PSoC4/USB_UART_SPI_UART.c ****                 locHead = (USB_UART_txBufferHead + 1u);
 220              		.loc 1 276 0
 221 000e 2268     		ldr	r2, [r4]
 222 0010 0132     		adds	r2, r2, #1
 223              	.LVL12:
 277:Generated_Source\PSoC4/USB_UART_SPI_UART.c **** 
 278:Generated_Source\PSoC4/USB_UART_SPI_UART.c ****                 /* Adjust TX software buffer index */
ARM GAS  C:\Users\AFDHAL~1\AppData\Local\Temp\ccDxfmr2.s 			page 10


 279:Generated_Source\PSoC4/USB_UART_SPI_UART.c ****                 if (USB_UART_TX_BUFFER_SIZE == locHead)
 224              		.loc 1 279 0
 225 0012 202A     		cmp	r2, #32
 226 0014 1AD0     		beq	.L28
 227              	.LVL13:
 228              	.L22:
 280:Generated_Source\PSoC4/USB_UART_SPI_UART.c ****                 {
 281:Generated_Source\PSoC4/USB_UART_SPI_UART.c ****                     locHead = 0u;
 282:Generated_Source\PSoC4/USB_UART_SPI_UART.c ****                 }
 283:Generated_Source\PSoC4/USB_UART_SPI_UART.c **** 
 284:Generated_Source\PSoC4/USB_UART_SPI_UART.c ****                 /* Wait for space in TX software buffer */
 285:Generated_Source\PSoC4/USB_UART_SPI_UART.c ****                 while (locHead == USB_UART_txBufferTail)
 229              		.loc 1 285 0 discriminator 1
 230 0016 0B68     		ldr	r3, [r1]
 231 0018 9A42     		cmp	r2, r3
 232 001a FCD0     		beq	.L22
 286:Generated_Source\PSoC4/USB_UART_SPI_UART.c ****                 {
 287:Generated_Source\PSoC4/USB_UART_SPI_UART.c ****                 }
 288:Generated_Source\PSoC4/USB_UART_SPI_UART.c **** 
 289:Generated_Source\PSoC4/USB_UART_SPI_UART.c ****                 /* TX software buffer has at least one room */
 290:Generated_Source\PSoC4/USB_UART_SPI_UART.c **** 
 291:Generated_Source\PSoC4/USB_UART_SPI_UART.c ****                 /* Clear old status of INTR_TX_NOT_FULL. It sets at the end of transfer when TX FIF
 292:Generated_Source\PSoC4/USB_UART_SPI_UART.c ****                 USB_UART_ClearTxInterruptSource(USB_UART_INTR_TX_NOT_FULL);
 233              		.loc 1 292 0
 234 001c 0223     		movs	r3, #2
 235 001e 0E49     		ldr	r1, .L29+8
 293:Generated_Source\PSoC4/USB_UART_SPI_UART.c **** 
 294:Generated_Source\PSoC4/USB_UART_SPI_UART.c ****                 USB_UART_PutWordInTxBuffer(locHead, txData);
 236              		.loc 1 294 0
 237 0020 C0B2     		uxtb	r0, r0
 238              	.LVL14:
 292:Generated_Source\PSoC4/USB_UART_SPI_UART.c **** 
 239              		.loc 1 292 0
 240 0022 0B60     		str	r3, [r1]
 241              		.loc 1 294 0
 242 0024 0D49     		ldr	r1, .L29+12
 243 0026 8854     		strb	r0, [r1, r2]
 295:Generated_Source\PSoC4/USB_UART_SPI_UART.c **** 
 296:Generated_Source\PSoC4/USB_UART_SPI_UART.c ****                 USB_UART_txBufferHead = locHead;
 244              		.loc 1 296 0
 245 0028 2260     		str	r2, [r4]
 297:Generated_Source\PSoC4/USB_UART_SPI_UART.c **** 
 298:Generated_Source\PSoC4/USB_UART_SPI_UART.c ****                 /* Check if TX Not Full is disabled in interrupt */
 299:Generated_Source\PSoC4/USB_UART_SPI_UART.c ****                 if (0u == (USB_UART_INTR_TX_MASK_REG & USB_UART_INTR_TX_NOT_FULL))
 246              		.loc 1 299 0
 247 002a 0D4A     		ldr	r2, .L29+16
 248              	.LVL15:
 249 002c 1168     		ldr	r1, [r2]
 250 002e 0B42     		tst	r3, r1
 251 0030 02D1     		bne	.L18
 252              	.LVL16:
 253              	.LBB4:
 254              	.LBB5:
 300:Generated_Source\PSoC4/USB_UART_SPI_UART.c ****                 {
 301:Generated_Source\PSoC4/USB_UART_SPI_UART.c ****                     /* Enable TX Not Full interrupt source to transmit from software buffer */
 302:Generated_Source\PSoC4/USB_UART_SPI_UART.c ****                     USB_UART_INTR_TX_MASK_REG |= (uint32) USB_UART_INTR_TX_NOT_FULL;
 255              		.loc 1 302 0
ARM GAS  C:\Users\AFDHAL~1\AppData\Local\Temp\ccDxfmr2.s 			page 11


 256 0032 1168     		ldr	r1, [r2]
 257 0034 0B43     		orrs	r3, r1
 258 0036 1360     		str	r3, [r2]
 259              	.LVL17:
 260              	.L18:
 261              	.LBE5:
 262              	.LBE4:
 303:Generated_Source\PSoC4/USB_UART_SPI_UART.c ****                 }
 304:Generated_Source\PSoC4/USB_UART_SPI_UART.c ****             }
 305:Generated_Source\PSoC4/USB_UART_SPI_UART.c ****         }
 306:Generated_Source\PSoC4/USB_UART_SPI_UART.c ****         #else
 307:Generated_Source\PSoC4/USB_UART_SPI_UART.c ****         {
 308:Generated_Source\PSoC4/USB_UART_SPI_UART.c ****             /* Wait until TX FIFO has space to put data element */
 309:Generated_Source\PSoC4/USB_UART_SPI_UART.c ****             while (USB_UART_SPI_UART_FIFO_SIZE == USB_UART_GET_TX_FIFO_ENTRIES)
 310:Generated_Source\PSoC4/USB_UART_SPI_UART.c ****             {
 311:Generated_Source\PSoC4/USB_UART_SPI_UART.c ****             }
 312:Generated_Source\PSoC4/USB_UART_SPI_UART.c **** 
 313:Generated_Source\PSoC4/USB_UART_SPI_UART.c ****             USB_UART_TX_FIFO_WR_REG = txData;
 314:Generated_Source\PSoC4/USB_UART_SPI_UART.c ****         }
 315:Generated_Source\PSoC4/USB_UART_SPI_UART.c ****         #endif
 316:Generated_Source\PSoC4/USB_UART_SPI_UART.c ****     }
 263              		.loc 1 316 0
 264              		@ sp needed
 265 0038 10BD     		pop	{r4, pc}
 266              	.LVL18:
 267              	.L27:
 266:Generated_Source\PSoC4/USB_UART_SPI_UART.c ****                 (USB_UART_SPI_UART_FIFO_SIZE != USB_UART_GET_TX_FIFO_ENTRIES))
 268              		.loc 1 266 0 discriminator 1
 269 003a 1F22     		movs	r2, #31
 267:Generated_Source\PSoC4/USB_UART_SPI_UART.c ****             {
 270              		.loc 1 267 0 discriminator 1
 271 003c 094B     		ldr	r3, .L29+20
 272 003e 1B68     		ldr	r3, [r3]
 266:Generated_Source\PSoC4/USB_UART_SPI_UART.c ****                 (USB_UART_SPI_UART_FIFO_SIZE != USB_UART_GET_TX_FIFO_ENTRIES))
 273              		.loc 1 266 0 discriminator 1
 274 0040 1340     		ands	r3, r2
 275 0042 082B     		cmp	r3, #8
 276 0044 E3D0     		beq	.L19
 270:Generated_Source\PSoC4/USB_UART_SPI_UART.c ****             }
 277              		.loc 1 270 0
 278 0046 084B     		ldr	r3, .L29+24
 279 0048 1860     		str	r0, [r3]
 280 004a F5E7     		b	.L18
 281              	.LVL19:
 282              	.L28:
 281:Generated_Source\PSoC4/USB_UART_SPI_UART.c ****                 }
 283              		.loc 1 281 0
 284 004c 0022     		movs	r2, #0
 285              	.LVL20:
 286 004e E2E7     		b	.L22
 287              	.L30:
 288              		.align	2
 289              	.L29:
 290 0050 00000000 		.word	USB_UART_txBufferTail
 291 0054 00000000 		.word	USB_UART_txBufferHead
 292 0058 800F2740 		.word	1076301696
 293 005c 00000000 		.word	USB_UART_txBufferInternal
ARM GAS  C:\Users\AFDHAL~1\AppData\Local\Temp\ccDxfmr2.s 			page 12


 294 0060 880F2740 		.word	1076301704
 295 0064 08022740 		.word	1076298248
 296 0068 40022740 		.word	1076298304
 297              		.cfi_endproc
 298              	.LFE4:
 299              		.size	USB_UART_SpiUartWriteTxData, .-USB_UART_SpiUartWriteTxData
 300              		.section	.text.USB_UART_SpiUartPutArray,"ax",%progbits
 301              		.align	2
 302              		.global	USB_UART_SpiUartPutArray
 303              		.code	16
 304              		.thumb_func
 305              		.type	USB_UART_SpiUartPutArray, %function
 306              	USB_UART_SpiUartPutArray:
 307              	.LFB5:
 317:Generated_Source\PSoC4/USB_UART_SPI_UART.c **** 
 318:Generated_Source\PSoC4/USB_UART_SPI_UART.c **** 
 319:Generated_Source\PSoC4/USB_UART_SPI_UART.c ****     /*******************************************************************************
 320:Generated_Source\PSoC4/USB_UART_SPI_UART.c ****     * Function Name: USB_UART_SpiUartPutArray
 321:Generated_Source\PSoC4/USB_UART_SPI_UART.c ****     ****************************************************************************//**
 322:Generated_Source\PSoC4/USB_UART_SPI_UART.c ****     *
 323:Generated_Source\PSoC4/USB_UART_SPI_UART.c ****     *  Places an array of data into the transmit buffer to be sent.
 324:Generated_Source\PSoC4/USB_UART_SPI_UART.c ****     *  This function is blocking and waits until there is a space available to put
 325:Generated_Source\PSoC4/USB_UART_SPI_UART.c ****     *  all the requested data in the transmit buffer. The array size can be greater
 326:Generated_Source\PSoC4/USB_UART_SPI_UART.c ****     *  than transmit buffer size.
 327:Generated_Source\PSoC4/USB_UART_SPI_UART.c ****     *
 328:Generated_Source\PSoC4/USB_UART_SPI_UART.c ****     * \param wrBuf: pointer to an array of data to be placed in transmit buffer. 
 329:Generated_Source\PSoC4/USB_UART_SPI_UART.c ****     *  The width of the data to be transmitted depends on TX data width selection 
 330:Generated_Source\PSoC4/USB_UART_SPI_UART.c ****     *  (the data bit counting starts from LSB for each array element).
 331:Generated_Source\PSoC4/USB_UART_SPI_UART.c ****     * \param count: number of data elements to be placed in the transmit buffer.
 332:Generated_Source\PSoC4/USB_UART_SPI_UART.c ****     *
 333:Generated_Source\PSoC4/USB_UART_SPI_UART.c ****     * \globalvars
 334:Generated_Source\PSoC4/USB_UART_SPI_UART.c ****     *  USB_UART_txBufferHead - the start index to put data into the 
 335:Generated_Source\PSoC4/USB_UART_SPI_UART.c ****     *  software transmit buffer.
 336:Generated_Source\PSoC4/USB_UART_SPI_UART.c ****     *  USB_UART_txBufferTail - start index to get data from the software
 337:Generated_Source\PSoC4/USB_UART_SPI_UART.c ****     *  transmit buffer.
 338:Generated_Source\PSoC4/USB_UART_SPI_UART.c ****     *
 339:Generated_Source\PSoC4/USB_UART_SPI_UART.c ****     *******************************************************************************/
 340:Generated_Source\PSoC4/USB_UART_SPI_UART.c ****     void USB_UART_SpiUartPutArray(const uint8 wrBuf[], uint32 count)
 341:Generated_Source\PSoC4/USB_UART_SPI_UART.c ****     {
 308              		.loc 1 341 0
 309              		.cfi_startproc
 310              		@ args = 0, pretend = 0, frame = 0
 311              		@ frame_needed = 0, uses_anonymous_args = 0
 312              	.LVL21:
 313 0000 F0B5     		push	{r4, r5, r6, r7, lr}
 314              		.cfi_def_cfa_offset 20
 315              		.cfi_offset 4, -20
 316              		.cfi_offset 5, -16
 317              		.cfi_offset 6, -12
 318              		.cfi_offset 7, -8
 319              		.cfi_offset 14, -4
 320 0002 5F46     		mov	r7, fp
 321 0004 5646     		mov	r6, r10
 322 0006 4D46     		mov	r5, r9
 323 0008 4446     		mov	r4, r8
 324 000a F0B4     		push	{r4, r5, r6, r7}
 325              		.cfi_def_cfa_offset 36
ARM GAS  C:\Users\AFDHAL~1\AppData\Local\Temp\ccDxfmr2.s 			page 13


 326              		.cfi_offset 8, -36
 327              		.cfi_offset 9, -32
 328              		.cfi_offset 10, -28
 329              		.cfi_offset 11, -24
 342:Generated_Source\PSoC4/USB_UART_SPI_UART.c ****         uint32 i;
 343:Generated_Source\PSoC4/USB_UART_SPI_UART.c **** 
 344:Generated_Source\PSoC4/USB_UART_SPI_UART.c ****         for (i=0u; i < count; i++)
 330              		.loc 1 344 0
 331 000c 0029     		cmp	r1, #0
 332 000e 27D0     		beq	.L31
 333              	.LBB10:
 334              	.LBB11:
 292:Generated_Source\PSoC4/USB_UART_SPI_UART.c **** 
 335              		.loc 1 292 0
 336 0010 1C4B     		ldr	r3, .L47
 337 0012 8C46     		mov	ip, r1
 338 0014 9946     		mov	r9, r3
 294:Generated_Source\PSoC4/USB_UART_SPI_UART.c **** 
 339              		.loc 1 294 0
 340 0016 1C4B     		ldr	r3, .L47+4
 292:Generated_Source\PSoC4/USB_UART_SPI_UART.c **** 
 341              		.loc 1 292 0
 342 0018 0226     		movs	r6, #2
 294:Generated_Source\PSoC4/USB_UART_SPI_UART.c **** 
 343              		.loc 1 294 0
 344 001a 9846     		mov	r8, r3
 267:Generated_Source\PSoC4/USB_UART_SPI_UART.c ****             {
 345              		.loc 1 267 0
 346 001c 1B4B     		ldr	r3, .L47+8
 347 001e 1C4D     		ldr	r5, .L47+12
 348 0020 9A46     		mov	r10, r3
 270:Generated_Source\PSoC4/USB_UART_SPI_UART.c ****             }
 349              		.loc 1 270 0
 350 0022 1C4B     		ldr	r3, .L47+16
 351 0024 1C4C     		ldr	r4, .L47+20
 352 0026 9B46     		mov	fp, r3
 299:Generated_Source\PSoC4/USB_UART_SPI_UART.c ****                 {
 353              		.loc 1 299 0
 354 0028 1C49     		ldr	r1, .L47+24
 355              	.LVL22:
 356 002a 8444     		add	ip, ip, r0
 357              	.LVL23:
 358              	.L37:
 266:Generated_Source\PSoC4/USB_UART_SPI_UART.c ****                 (USB_UART_SPI_UART_FIFO_SIZE != USB_UART_GET_TX_FIFO_ENTRIES))
 359              		.loc 1 266 0 discriminator 3
 360 002c 2A68     		ldr	r2, [r5]
 361 002e 2368     		ldr	r3, [r4]
 362              	.LBE11:
 363              	.LBE10:
 345:Generated_Source\PSoC4/USB_UART_SPI_UART.c ****         {
 346:Generated_Source\PSoC4/USB_UART_SPI_UART.c ****             USB_UART_SpiUartWriteTxData((uint32) wrBuf[i]);
 364              		.loc 1 346 0 discriminator 3
 365 0030 0778     		ldrb	r7, [r0]
 366              	.LVL24:
 367              	.LBB16:
 368              	.LBB14:
 266:Generated_Source\PSoC4/USB_UART_SPI_UART.c ****                 (USB_UART_SPI_UART_FIFO_SIZE != USB_UART_GET_TX_FIFO_ENTRIES))
ARM GAS  C:\Users\AFDHAL~1\AppData\Local\Temp\ccDxfmr2.s 			page 14


 369              		.loc 1 266 0 discriminator 3
 370 0032 9A42     		cmp	r2, r3
 371 0034 1AD0     		beq	.L45
 372              	.L33:
 276:Generated_Source\PSoC4/USB_UART_SPI_UART.c **** 
 373              		.loc 1 276 0
 374 0036 2A68     		ldr	r2, [r5]
 375 0038 0132     		adds	r2, r2, #1
 376              	.LVL25:
 279:Generated_Source\PSoC4/USB_UART_SPI_UART.c ****                 {
 377              		.loc 1 279 0
 378 003a 202A     		cmp	r2, #32
 379 003c 1FD0     		beq	.L46
 380              	.LVL26:
 381              	.L36:
 285:Generated_Source\PSoC4/USB_UART_SPI_UART.c ****                 {
 382              		.loc 1 285 0
 383 003e 2368     		ldr	r3, [r4]
 384 0040 9342     		cmp	r3, r2
 385 0042 FCD0     		beq	.L36
 292:Generated_Source\PSoC4/USB_UART_SPI_UART.c **** 
 386              		.loc 1 292 0
 387 0044 4B46     		mov	r3, r9
 388 0046 1E60     		str	r6, [r3]
 294:Generated_Source\PSoC4/USB_UART_SPI_UART.c **** 
 389              		.loc 1 294 0
 390 0048 4346     		mov	r3, r8
 391 004a 9F54     		strb	r7, [r3, r2]
 296:Generated_Source\PSoC4/USB_UART_SPI_UART.c **** 
 392              		.loc 1 296 0
 393 004c 2A60     		str	r2, [r5]
 299:Generated_Source\PSoC4/USB_UART_SPI_UART.c ****                 {
 394              		.loc 1 299 0
 395 004e 0B68     		ldr	r3, [r1]
 396 0050 1E42     		tst	r6, r3
 397 0052 02D1     		bne	.L34
 398              	.LVL27:
 399              	.LBB12:
 400              	.LBB13:
 302:Generated_Source\PSoC4/USB_UART_SPI_UART.c ****                 }
 401              		.loc 1 302 0
 402 0054 0B68     		ldr	r3, [r1]
 403 0056 3343     		orrs	r3, r6
 404 0058 0B60     		str	r3, [r1]
 405              	.LVL28:
 406              	.L34:
 407 005a 0130     		adds	r0, r0, #1
 408              	.LVL29:
 409              	.LBE13:
 410              	.LBE12:
 411              	.LBE14:
 412              	.LBE16:
 344:Generated_Source\PSoC4/USB_UART_SPI_UART.c ****         {
 413              		.loc 1 344 0 discriminator 3
 414 005c 6045     		cmp	r0, ip
 415 005e E5D1     		bne	.L37
 416              	.LVL30:
ARM GAS  C:\Users\AFDHAL~1\AppData\Local\Temp\ccDxfmr2.s 			page 15


 417              	.L31:
 347:Generated_Source\PSoC4/USB_UART_SPI_UART.c ****         }
 348:Generated_Source\PSoC4/USB_UART_SPI_UART.c ****     }
 418              		.loc 1 348 0
 419              		@ sp needed
 420 0060 3CBC     		pop	{r2, r3, r4, r5}
 421 0062 9046     		mov	r8, r2
 422 0064 9946     		mov	r9, r3
 423 0066 A246     		mov	r10, r4
 424 0068 AB46     		mov	fp, r5
 425 006a F0BD     		pop	{r4, r5, r6, r7, pc}
 426              	.LVL31:
 427              	.L45:
 428              	.LBB17:
 429              	.LBB15:
 267:Generated_Source\PSoC4/USB_UART_SPI_UART.c ****             {
 430              		.loc 1 267 0
 431 006c 5346     		mov	r3, r10
 266:Generated_Source\PSoC4/USB_UART_SPI_UART.c ****                 (USB_UART_SPI_UART_FIFO_SIZE != USB_UART_GET_TX_FIFO_ENTRIES))
 432              		.loc 1 266 0
 433 006e 1F22     		movs	r2, #31
 267:Generated_Source\PSoC4/USB_UART_SPI_UART.c ****             {
 434              		.loc 1 267 0
 435 0070 1B68     		ldr	r3, [r3]
 266:Generated_Source\PSoC4/USB_UART_SPI_UART.c ****                 (USB_UART_SPI_UART_FIFO_SIZE != USB_UART_GET_TX_FIFO_ENTRIES))
 436              		.loc 1 266 0
 437 0072 1340     		ands	r3, r2
 438 0074 082B     		cmp	r3, #8
 439 0076 DED0     		beq	.L33
 270:Generated_Source\PSoC4/USB_UART_SPI_UART.c ****             }
 440              		.loc 1 270 0
 441 0078 5B46     		mov	r3, fp
 442 007a 1F60     		str	r7, [r3]
 443 007c EDE7     		b	.L34
 444              	.LVL32:
 445              	.L46:
 281:Generated_Source\PSoC4/USB_UART_SPI_UART.c ****                 }
 446              		.loc 1 281 0
 447 007e 0022     		movs	r2, #0
 448              	.LVL33:
 449 0080 DDE7     		b	.L36
 450              	.L48:
 451 0082 C046     		.align	2
 452              	.L47:
 453 0084 800F2740 		.word	1076301696
 454 0088 00000000 		.word	USB_UART_txBufferInternal
 455 008c 08022740 		.word	1076298248
 456 0090 00000000 		.word	USB_UART_txBufferHead
 457 0094 40022740 		.word	1076298304
 458 0098 00000000 		.word	USB_UART_txBufferTail
 459 009c 880F2740 		.word	1076301704
 460              	.LBE15:
 461              	.LBE17:
 462              		.cfi_endproc
 463              	.LFE5:
 464              		.size	USB_UART_SpiUartPutArray, .-USB_UART_SpiUartPutArray
 465              		.section	.text.USB_UART_SpiUartGetTxBufferSize,"ax",%progbits
ARM GAS  C:\Users\AFDHAL~1\AppData\Local\Temp\ccDxfmr2.s 			page 16


 466              		.align	2
 467              		.global	USB_UART_SpiUartGetTxBufferSize
 468              		.code	16
 469              		.thumb_func
 470              		.type	USB_UART_SpiUartGetTxBufferSize, %function
 471              	USB_UART_SpiUartGetTxBufferSize:
 472              	.LFB6:
 349:Generated_Source\PSoC4/USB_UART_SPI_UART.c **** 
 350:Generated_Source\PSoC4/USB_UART_SPI_UART.c **** 
 351:Generated_Source\PSoC4/USB_UART_SPI_UART.c ****     /*******************************************************************************
 352:Generated_Source\PSoC4/USB_UART_SPI_UART.c ****     * Function Name: USB_UART_SpiUartGetTxBufferSize
 353:Generated_Source\PSoC4/USB_UART_SPI_UART.c ****     ****************************************************************************//**
 354:Generated_Source\PSoC4/USB_UART_SPI_UART.c ****     *
 355:Generated_Source\PSoC4/USB_UART_SPI_UART.c ****     *  Returns the number of elements currently in the transmit buffer.
 356:Generated_Source\PSoC4/USB_UART_SPI_UART.c ****     *   - TX software buffer is disabled: returns the number of used entries in
 357:Generated_Source\PSoC4/USB_UART_SPI_UART.c ****     *     TX FIFO.
 358:Generated_Source\PSoC4/USB_UART_SPI_UART.c ****     *   - TX software buffer is enabled: returns the number of elements currently
 359:Generated_Source\PSoC4/USB_UART_SPI_UART.c ****     *     used in the transmit buffer. This number does not include used entries in
 360:Generated_Source\PSoC4/USB_UART_SPI_UART.c ****     *     the TX FIFO. The transmit buffer size is zero until the TX FIFO is
 361:Generated_Source\PSoC4/USB_UART_SPI_UART.c ****     *     not full.
 362:Generated_Source\PSoC4/USB_UART_SPI_UART.c ****     *
 363:Generated_Source\PSoC4/USB_UART_SPI_UART.c ****     * \return
 364:Generated_Source\PSoC4/USB_UART_SPI_UART.c ****     *  Number of data elements ready to transmit.
 365:Generated_Source\PSoC4/USB_UART_SPI_UART.c ****     *
 366:Generated_Source\PSoC4/USB_UART_SPI_UART.c ****     * \globalvars
 367:Generated_Source\PSoC4/USB_UART_SPI_UART.c ****     *  USB_UART_txBufferHead - the start index to put data into the 
 368:Generated_Source\PSoC4/USB_UART_SPI_UART.c ****     *  software transmit buffer.
 369:Generated_Source\PSoC4/USB_UART_SPI_UART.c ****     *  USB_UART_txBufferTail - start index to get data from the software
 370:Generated_Source\PSoC4/USB_UART_SPI_UART.c ****     *  transmit buffer.
 371:Generated_Source\PSoC4/USB_UART_SPI_UART.c ****     *
 372:Generated_Source\PSoC4/USB_UART_SPI_UART.c ****     *******************************************************************************/
 373:Generated_Source\PSoC4/USB_UART_SPI_UART.c ****     uint32 USB_UART_SpiUartGetTxBufferSize(void)
 374:Generated_Source\PSoC4/USB_UART_SPI_UART.c ****     {
 473              		.loc 1 374 0
 474              		.cfi_startproc
 475              		@ args = 0, pretend = 0, frame = 0
 476              		@ frame_needed = 0, uses_anonymous_args = 0
 477              		@ link register save eliminated.
 375:Generated_Source\PSoC4/USB_UART_SPI_UART.c ****         uint32 size;
 376:Generated_Source\PSoC4/USB_UART_SPI_UART.c ****     #if (USB_UART_INTERNAL_TX_SW_BUFFER_CONST)
 377:Generated_Source\PSoC4/USB_UART_SPI_UART.c ****         uint32 locTail;
 378:Generated_Source\PSoC4/USB_UART_SPI_UART.c ****     #endif /* (USB_UART_INTERNAL_TX_SW_BUFFER_CONST) */
 379:Generated_Source\PSoC4/USB_UART_SPI_UART.c **** 
 380:Generated_Source\PSoC4/USB_UART_SPI_UART.c ****         #if (USB_UART_CHECK_TX_SW_BUFFER)
 381:Generated_Source\PSoC4/USB_UART_SPI_UART.c ****         {
 382:Generated_Source\PSoC4/USB_UART_SPI_UART.c ****             /* Get current Tail index */
 383:Generated_Source\PSoC4/USB_UART_SPI_UART.c ****             locTail = USB_UART_txBufferTail;
 384:Generated_Source\PSoC4/USB_UART_SPI_UART.c **** 
 385:Generated_Source\PSoC4/USB_UART_SPI_UART.c ****             if (USB_UART_txBufferHead >= locTail)
 478              		.loc 1 385 0
 479 0000 044A     		ldr	r2, .L53
 383:Generated_Source\PSoC4/USB_UART_SPI_UART.c **** 
 480              		.loc 1 383 0
 481 0002 054B     		ldr	r3, .L53+4
 482 0004 1B68     		ldr	r3, [r3]
 483              	.LVL34:
 484              		.loc 1 385 0
ARM GAS  C:\Users\AFDHAL~1\AppData\Local\Temp\ccDxfmr2.s 			page 17


 485 0006 1168     		ldr	r1, [r2]
 386:Generated_Source\PSoC4/USB_UART_SPI_UART.c ****             {
 387:Generated_Source\PSoC4/USB_UART_SPI_UART.c ****                 size = (USB_UART_txBufferHead - locTail);
 486              		.loc 1 387 0
 487 0008 1068     		ldr	r0, [r2]
 385:Generated_Source\PSoC4/USB_UART_SPI_UART.c ****             {
 488              		.loc 1 385 0
 489 000a 8B42     		cmp	r3, r1
 490 000c 00D9     		bls	.L52
 388:Generated_Source\PSoC4/USB_UART_SPI_UART.c ****             }
 389:Generated_Source\PSoC4/USB_UART_SPI_UART.c ****             else
 390:Generated_Source\PSoC4/USB_UART_SPI_UART.c ****             {
 391:Generated_Source\PSoC4/USB_UART_SPI_UART.c ****                 size = (USB_UART_txBufferHead + (USB_UART_TX_BUFFER_SIZE - locTail));
 491              		.loc 1 391 0
 492 000e 2030     		adds	r0, r0, #32
 493              	.L52:
 494 0010 C01A     		subs	r0, r0, r3
 495              	.LVL35:
 392:Generated_Source\PSoC4/USB_UART_SPI_UART.c ****             }
 393:Generated_Source\PSoC4/USB_UART_SPI_UART.c ****         }
 394:Generated_Source\PSoC4/USB_UART_SPI_UART.c ****         #else
 395:Generated_Source\PSoC4/USB_UART_SPI_UART.c ****         {
 396:Generated_Source\PSoC4/USB_UART_SPI_UART.c ****             size = USB_UART_GET_TX_FIFO_ENTRIES;
 397:Generated_Source\PSoC4/USB_UART_SPI_UART.c ****         }
 398:Generated_Source\PSoC4/USB_UART_SPI_UART.c ****         #endif
 399:Generated_Source\PSoC4/USB_UART_SPI_UART.c **** 
 400:Generated_Source\PSoC4/USB_UART_SPI_UART.c ****         return (size);
 401:Generated_Source\PSoC4/USB_UART_SPI_UART.c ****     }
 496              		.loc 1 401 0
 497              		@ sp needed
 498 0012 7047     		bx	lr
 499              	.L54:
 500              		.align	2
 501              	.L53:
 502 0014 00000000 		.word	USB_UART_txBufferHead
 503 0018 00000000 		.word	USB_UART_txBufferTail
 504              		.cfi_endproc
 505              	.LFE6:
 506              		.size	USB_UART_SpiUartGetTxBufferSize, .-USB_UART_SpiUartGetTxBufferSize
 507              		.section	.text.USB_UART_SpiUartClearTxBuffer,"ax",%progbits
 508              		.align	2
 509              		.global	USB_UART_SpiUartClearTxBuffer
 510              		.code	16
 511              		.thumb_func
 512              		.type	USB_UART_SpiUartClearTxBuffer, %function
 513              	USB_UART_SpiUartClearTxBuffer:
 514              	.LFB7:
 402:Generated_Source\PSoC4/USB_UART_SPI_UART.c **** 
 403:Generated_Source\PSoC4/USB_UART_SPI_UART.c **** 
 404:Generated_Source\PSoC4/USB_UART_SPI_UART.c ****     /*******************************************************************************
 405:Generated_Source\PSoC4/USB_UART_SPI_UART.c ****     * Function Name: USB_UART_SpiUartClearTxBuffer
 406:Generated_Source\PSoC4/USB_UART_SPI_UART.c ****     ****************************************************************************//**
 407:Generated_Source\PSoC4/USB_UART_SPI_UART.c ****     *
 408:Generated_Source\PSoC4/USB_UART_SPI_UART.c ****     *  Clears the transmit buffer and TX FIFO.
 409:Generated_Source\PSoC4/USB_UART_SPI_UART.c ****     *
 410:Generated_Source\PSoC4/USB_UART_SPI_UART.c ****     * \globalvars
 411:Generated_Source\PSoC4/USB_UART_SPI_UART.c ****     *  USB_UART_txBufferHead - the start index to put data into the 
ARM GAS  C:\Users\AFDHAL~1\AppData\Local\Temp\ccDxfmr2.s 			page 18


 412:Generated_Source\PSoC4/USB_UART_SPI_UART.c ****     *  software transmit buffer.
 413:Generated_Source\PSoC4/USB_UART_SPI_UART.c ****     *  USB_UART_txBufferTail - start index to get data from the software
 414:Generated_Source\PSoC4/USB_UART_SPI_UART.c ****     *  transmit buffer.
 415:Generated_Source\PSoC4/USB_UART_SPI_UART.c ****     *
 416:Generated_Source\PSoC4/USB_UART_SPI_UART.c ****     *******************************************************************************/
 417:Generated_Source\PSoC4/USB_UART_SPI_UART.c ****     void USB_UART_SpiUartClearTxBuffer(void)
 418:Generated_Source\PSoC4/USB_UART_SPI_UART.c ****     {
 515              		.loc 1 418 0
 516              		.cfi_startproc
 517              		@ args = 0, pretend = 0, frame = 0
 518              		@ frame_needed = 0, uses_anonymous_args = 0
 519 0000 10B5     		push	{r4, lr}
 520              		.cfi_def_cfa_offset 8
 521              		.cfi_offset 4, -8
 522              		.cfi_offset 14, -4
 419:Generated_Source\PSoC4/USB_UART_SPI_UART.c ****         #if (USB_UART_CHECK_TX_SW_BUFFER)
 420:Generated_Source\PSoC4/USB_UART_SPI_UART.c ****         {
 421:Generated_Source\PSoC4/USB_UART_SPI_UART.c ****             /* Lock from component interruption */
 422:Generated_Source\PSoC4/USB_UART_SPI_UART.c ****             USB_UART_DisableInt();
 523              		.loc 1 422 0
 524 0002 0B20     		movs	r0, #11
 525 0004 FFF7FEFF 		bl	CyIntDisable
 526              	.LVL36:
 423:Generated_Source\PSoC4/USB_UART_SPI_UART.c **** 
 424:Generated_Source\PSoC4/USB_UART_SPI_UART.c ****             /* Flush TX software buffer */
 425:Generated_Source\PSoC4/USB_UART_SPI_UART.c ****             USB_UART_txBufferHead = USB_UART_txBufferTail;
 426:Generated_Source\PSoC4/USB_UART_SPI_UART.c **** 
 427:Generated_Source\PSoC4/USB_UART_SPI_UART.c ****             USB_UART_INTR_TX_MASK_REG &= (uint32) ~USB_UART_INTR_TX_NOT_FULL;
 527              		.loc 1 427 0
 528 0008 0221     		movs	r1, #2
 425:Generated_Source\PSoC4/USB_UART_SPI_UART.c **** 
 529              		.loc 1 425 0
 530 000a 0C4B     		ldr	r3, .L56
 428:Generated_Source\PSoC4/USB_UART_SPI_UART.c ****             USB_UART_CLEAR_TX_FIFO;
 429:Generated_Source\PSoC4/USB_UART_SPI_UART.c ****             USB_UART_ClearTxInterruptSource(USB_UART_INTR_TX_ALL);
 430:Generated_Source\PSoC4/USB_UART_SPI_UART.c **** 
 431:Generated_Source\PSoC4/USB_UART_SPI_UART.c ****             /* Release lock */
 432:Generated_Source\PSoC4/USB_UART_SPI_UART.c ****             USB_UART_EnableInt();
 531              		.loc 1 432 0
 532 000c 0B20     		movs	r0, #11
 425:Generated_Source\PSoC4/USB_UART_SPI_UART.c **** 
 533              		.loc 1 425 0
 534 000e 1A68     		ldr	r2, [r3]
 535 0010 0B4B     		ldr	r3, .L56+4
 433:Generated_Source\PSoC4/USB_UART_SPI_UART.c ****         }
 434:Generated_Source\PSoC4/USB_UART_SPI_UART.c ****         #else
 435:Generated_Source\PSoC4/USB_UART_SPI_UART.c ****         {
 436:Generated_Source\PSoC4/USB_UART_SPI_UART.c ****             USB_UART_CLEAR_TX_FIFO;
 437:Generated_Source\PSoC4/USB_UART_SPI_UART.c ****         }
 438:Generated_Source\PSoC4/USB_UART_SPI_UART.c ****         #endif
 439:Generated_Source\PSoC4/USB_UART_SPI_UART.c ****     }
 536              		.loc 1 439 0
 537              		@ sp needed
 425:Generated_Source\PSoC4/USB_UART_SPI_UART.c **** 
 538              		.loc 1 425 0
 539 0012 1A60     		str	r2, [r3]
 427:Generated_Source\PSoC4/USB_UART_SPI_UART.c ****             USB_UART_CLEAR_TX_FIFO;
ARM GAS  C:\Users\AFDHAL~1\AppData\Local\Temp\ccDxfmr2.s 			page 19


 540              		.loc 1 427 0
 541 0014 0B4A     		ldr	r2, .L56+8
 542 0016 1368     		ldr	r3, [r2]
 543 0018 8B43     		bics	r3, r1
 428:Generated_Source\PSoC4/USB_UART_SPI_UART.c ****             USB_UART_ClearTxInterruptSource(USB_UART_INTR_TX_ALL);
 544              		.loc 1 428 0
 545 001a 8021     		movs	r1, #128
 427:Generated_Source\PSoC4/USB_UART_SPI_UART.c ****             USB_UART_CLEAR_TX_FIFO;
 546              		.loc 1 427 0
 547 001c 1360     		str	r3, [r2]
 428:Generated_Source\PSoC4/USB_UART_SPI_UART.c ****             USB_UART_ClearTxInterruptSource(USB_UART_INTR_TX_ALL);
 548              		.loc 1 428 0
 549 001e 0A4B     		ldr	r3, .L56+12
 550 0020 4902     		lsls	r1, r1, #9
 551 0022 1A68     		ldr	r2, [r3]
 552 0024 0A43     		orrs	r2, r1
 553 0026 1A60     		str	r2, [r3]
 554 0028 1968     		ldr	r1, [r3]
 555 002a 084A     		ldr	r2, .L56+16
 556 002c 0A40     		ands	r2, r1
 557 002e 1A60     		str	r2, [r3]
 429:Generated_Source\PSoC4/USB_UART_SPI_UART.c **** 
 558              		.loc 1 429 0
 559 0030 074A     		ldr	r2, .L56+20
 560 0032 084B     		ldr	r3, .L56+24
 561 0034 1A60     		str	r2, [r3]
 432:Generated_Source\PSoC4/USB_UART_SPI_UART.c ****         }
 562              		.loc 1 432 0
 563 0036 FFF7FEFF 		bl	CyIntEnable
 564              	.LVL37:
 565              		.loc 1 439 0
 566 003a 10BD     		pop	{r4, pc}
 567              	.L57:
 568              		.align	2
 569              	.L56:
 570 003c 00000000 		.word	USB_UART_txBufferTail
 571 0040 00000000 		.word	USB_UART_txBufferHead
 572 0044 880F2740 		.word	1076301704
 573 0048 04022740 		.word	1076298244
 574 004c FFFFFEFF 		.word	-65537
 575 0050 F3070000 		.word	2035
 576 0054 800F2740 		.word	1076301696
 577              		.cfi_endproc
 578              	.LFE7:
 579              		.size	USB_UART_SpiUartClearTxBuffer, .-USB_UART_SpiUartClearTxBuffer
 580              		.section	.text.USB_UART_SpiUartDisableIntRx,"ax",%progbits
 581              		.align	2
 582              		.global	USB_UART_SpiUartDisableIntRx
 583              		.code	16
 584              		.thumb_func
 585              		.type	USB_UART_SpiUartDisableIntRx, %function
 586              	USB_UART_SpiUartDisableIntRx:
 587              	.LFB8:
 440:Generated_Source\PSoC4/USB_UART_SPI_UART.c **** 
 441:Generated_Source\PSoC4/USB_UART_SPI_UART.c **** #endif /* (USB_UART_TX_DIRECTION) */
 442:Generated_Source\PSoC4/USB_UART_SPI_UART.c **** 
 443:Generated_Source\PSoC4/USB_UART_SPI_UART.c **** 
ARM GAS  C:\Users\AFDHAL~1\AppData\Local\Temp\ccDxfmr2.s 			page 20


 444:Generated_Source\PSoC4/USB_UART_SPI_UART.c **** /*******************************************************************************
 445:Generated_Source\PSoC4/USB_UART_SPI_UART.c **** * Function Name: USB_UART_SpiUartDisableIntRx
 446:Generated_Source\PSoC4/USB_UART_SPI_UART.c **** ****************************************************************************//**
 447:Generated_Source\PSoC4/USB_UART_SPI_UART.c **** *
 448:Generated_Source\PSoC4/USB_UART_SPI_UART.c **** *  Disables the RX interrupt sources.
 449:Generated_Source\PSoC4/USB_UART_SPI_UART.c **** *
 450:Generated_Source\PSoC4/USB_UART_SPI_UART.c **** *  \return
 451:Generated_Source\PSoC4/USB_UART_SPI_UART.c **** *   Returns the RX interrupt sources enabled before the function call.
 452:Generated_Source\PSoC4/USB_UART_SPI_UART.c **** *
 453:Generated_Source\PSoC4/USB_UART_SPI_UART.c **** *******************************************************************************/
 454:Generated_Source\PSoC4/USB_UART_SPI_UART.c **** uint32 USB_UART_SpiUartDisableIntRx(void)
 455:Generated_Source\PSoC4/USB_UART_SPI_UART.c **** {
 588              		.loc 1 455 0
 589              		.cfi_startproc
 590              		@ args = 0, pretend = 0, frame = 0
 591              		@ frame_needed = 0, uses_anonymous_args = 0
 592              		@ link register save eliminated.
 456:Generated_Source\PSoC4/USB_UART_SPI_UART.c ****     uint32 intSource;
 457:Generated_Source\PSoC4/USB_UART_SPI_UART.c **** 
 458:Generated_Source\PSoC4/USB_UART_SPI_UART.c ****     intSource = USB_UART_GetRxInterruptMode();
 459:Generated_Source\PSoC4/USB_UART_SPI_UART.c **** 
 460:Generated_Source\PSoC4/USB_UART_SPI_UART.c ****     USB_UART_SetRxInterruptMode(USB_UART_NO_INTR_SOURCES);
 593              		.loc 1 460 0
 594 0000 0022     		movs	r2, #0
 458:Generated_Source\PSoC4/USB_UART_SPI_UART.c **** 
 595              		.loc 1 458 0
 596 0002 024B     		ldr	r3, .L59
 461:Generated_Source\PSoC4/USB_UART_SPI_UART.c **** 
 462:Generated_Source\PSoC4/USB_UART_SPI_UART.c ****     return (intSource);
 463:Generated_Source\PSoC4/USB_UART_SPI_UART.c **** }
 597              		.loc 1 463 0
 598              		@ sp needed
 458:Generated_Source\PSoC4/USB_UART_SPI_UART.c **** 
 599              		.loc 1 458 0
 600 0004 1868     		ldr	r0, [r3]
 601              	.LVL38:
 460:Generated_Source\PSoC4/USB_UART_SPI_UART.c **** 
 602              		.loc 1 460 0
 603 0006 1A60     		str	r2, [r3]
 604              		.loc 1 463 0
 605 0008 7047     		bx	lr
 606              	.L60:
 607 000a C046     		.align	2
 608              	.L59:
 609 000c C80F2740 		.word	1076301768
 610              		.cfi_endproc
 611              	.LFE8:
 612              		.size	USB_UART_SpiUartDisableIntRx, .-USB_UART_SpiUartDisableIntRx
 613              		.section	.text.USB_UART_SpiUartDisableIntTx,"ax",%progbits
 614              		.align	2
 615              		.global	USB_UART_SpiUartDisableIntTx
 616              		.code	16
 617              		.thumb_func
 618              		.type	USB_UART_SpiUartDisableIntTx, %function
 619              	USB_UART_SpiUartDisableIntTx:
 620              	.LFB9:
 464:Generated_Source\PSoC4/USB_UART_SPI_UART.c **** 
ARM GAS  C:\Users\AFDHAL~1\AppData\Local\Temp\ccDxfmr2.s 			page 21


 465:Generated_Source\PSoC4/USB_UART_SPI_UART.c **** 
 466:Generated_Source\PSoC4/USB_UART_SPI_UART.c **** /*******************************************************************************
 467:Generated_Source\PSoC4/USB_UART_SPI_UART.c **** * Function Name: USB_UART_SpiUartDisableIntTx
 468:Generated_Source\PSoC4/USB_UART_SPI_UART.c **** ****************************************************************************//**
 469:Generated_Source\PSoC4/USB_UART_SPI_UART.c **** *
 470:Generated_Source\PSoC4/USB_UART_SPI_UART.c **** *  Disables TX interrupt sources.
 471:Generated_Source\PSoC4/USB_UART_SPI_UART.c **** *
 472:Generated_Source\PSoC4/USB_UART_SPI_UART.c **** *  \return
 473:Generated_Source\PSoC4/USB_UART_SPI_UART.c **** *   Returns TX interrupt sources enabled before function call.
 474:Generated_Source\PSoC4/USB_UART_SPI_UART.c **** *
 475:Generated_Source\PSoC4/USB_UART_SPI_UART.c **** *******************************************************************************/
 476:Generated_Source\PSoC4/USB_UART_SPI_UART.c **** uint32 USB_UART_SpiUartDisableIntTx(void)
 477:Generated_Source\PSoC4/USB_UART_SPI_UART.c **** {
 621              		.loc 1 477 0
 622              		.cfi_startproc
 623              		@ args = 0, pretend = 0, frame = 0
 624              		@ frame_needed = 0, uses_anonymous_args = 0
 625              		@ link register save eliminated.
 478:Generated_Source\PSoC4/USB_UART_SPI_UART.c ****     uint32 intSourceMask;
 479:Generated_Source\PSoC4/USB_UART_SPI_UART.c **** 
 480:Generated_Source\PSoC4/USB_UART_SPI_UART.c ****     intSourceMask = USB_UART_GetTxInterruptMode();
 481:Generated_Source\PSoC4/USB_UART_SPI_UART.c **** 
 482:Generated_Source\PSoC4/USB_UART_SPI_UART.c ****     USB_UART_SetTxInterruptMode(USB_UART_NO_INTR_SOURCES);
 626              		.loc 1 482 0
 627 0000 0022     		movs	r2, #0
 480:Generated_Source\PSoC4/USB_UART_SPI_UART.c **** 
 628              		.loc 1 480 0
 629 0002 024B     		ldr	r3, .L62
 483:Generated_Source\PSoC4/USB_UART_SPI_UART.c **** 
 484:Generated_Source\PSoC4/USB_UART_SPI_UART.c ****     return (intSourceMask);
 485:Generated_Source\PSoC4/USB_UART_SPI_UART.c **** }
 630              		.loc 1 485 0
 631              		@ sp needed
 480:Generated_Source\PSoC4/USB_UART_SPI_UART.c **** 
 632              		.loc 1 480 0
 633 0004 1868     		ldr	r0, [r3]
 634              	.LVL39:
 482:Generated_Source\PSoC4/USB_UART_SPI_UART.c **** 
 635              		.loc 1 482 0
 636 0006 1A60     		str	r2, [r3]
 637              		.loc 1 485 0
 638 0008 7047     		bx	lr
 639              	.L63:
 640 000a C046     		.align	2
 641              	.L62:
 642 000c 880F2740 		.word	1076301704
 643              		.cfi_endproc
 644              	.LFE9:
 645              		.size	USB_UART_SpiUartDisableIntTx, .-USB_UART_SpiUartDisableIntTx
 646              		.comm	USB_UART_txBufferInternal,32,4
 647              		.comm	USB_UART_rxBufferInternal,33,4
 648              		.comm	USB_UART_txBufferTail,4,4
 649              		.comm	USB_UART_txBufferHead,4,4
 650              		.comm	USB_UART_rxBufferOverflow,1,1
 651              		.comm	USB_UART_rxBufferTail,4,4
 652              		.comm	USB_UART_rxBufferHead,4,4
 653              		.text
ARM GAS  C:\Users\AFDHAL~1\AppData\Local\Temp\ccDxfmr2.s 			page 22


 654              	.Letext0:
 655              		.file 2 "Generated_Source\\PSoC4/cytypes.h"
 656              		.file 3 "Generated_Source\\PSoC4/CyLib.h"