ARM GAS  C:\Users\AFDHAL~1\AppData\Local\Temp\ccsq6gt1.s 			page 1


   1              		.syntax unified
   2              		.cpu cortex-m0
   3              		.fpu softvfp
   4              		.eabi_attribute 20, 1
   5              		.eabi_attribute 21, 1
   6              		.eabi_attribute 23, 3
   7              		.eabi_attribute 24, 1
   8              		.eabi_attribute 25, 1
   9              		.eabi_attribute 26, 1
  10              		.eabi_attribute 30, 2
  11              		.eabi_attribute 34, 0
  12              		.eabi_attribute 18, 4
  13              		.thumb
  14              		.syntax unified
  15              		.file	"USB_UART_UART.c"
  16              		.text
  17              	.Ltext0:
  18              		.cfi_sections	.debug_frame
  19              		.section	.text.USB_UART_UartInit,"ax",%progbits
  20              		.align	2
  21              		.global	USB_UART_UartInit
  22              		.code	16
  23              		.thumb_func
  24              		.type	USB_UART_UartInit, %function
  25              	USB_UART_UartInit:
  26              	.LFB1:
  27              		.file 1 "Generated_Source\\PSoC4\\USB_UART_UART.c"
   1:Generated_Source\PSoC4/USB_UART_UART.c **** /***************************************************************************//**
   2:Generated_Source\PSoC4/USB_UART_UART.c **** * \file USB_UART_UART.c
   3:Generated_Source\PSoC4/USB_UART_UART.c **** * \version 4.0
   4:Generated_Source\PSoC4/USB_UART_UART.c **** *
   5:Generated_Source\PSoC4/USB_UART_UART.c **** * \brief
   6:Generated_Source\PSoC4/USB_UART_UART.c **** *  This file provides the source code to the API for the SCB Component in
   7:Generated_Source\PSoC4/USB_UART_UART.c **** *  UART mode.
   8:Generated_Source\PSoC4/USB_UART_UART.c **** *
   9:Generated_Source\PSoC4/USB_UART_UART.c **** * Note:
  10:Generated_Source\PSoC4/USB_UART_UART.c **** *
  11:Generated_Source\PSoC4/USB_UART_UART.c **** *******************************************************************************
  12:Generated_Source\PSoC4/USB_UART_UART.c **** * \copyright
  13:Generated_Source\PSoC4/USB_UART_UART.c **** * Copyright 2013-2017, Cypress Semiconductor Corporation.  All rights reserved.
  14:Generated_Source\PSoC4/USB_UART_UART.c **** * You may use this file only in accordance with the license, terms, conditions,
  15:Generated_Source\PSoC4/USB_UART_UART.c **** * disclaimers, and limitations in the end user license agreement accompanying
  16:Generated_Source\PSoC4/USB_UART_UART.c **** * the software package with which this file was provided.
  17:Generated_Source\PSoC4/USB_UART_UART.c **** *******************************************************************************/
  18:Generated_Source\PSoC4/USB_UART_UART.c **** 
  19:Generated_Source\PSoC4/USB_UART_UART.c **** #include "USB_UART_PVT.h"
  20:Generated_Source\PSoC4/USB_UART_UART.c **** #include "USB_UART_SPI_UART_PVT.h"
  21:Generated_Source\PSoC4/USB_UART_UART.c **** #include "cyapicallbacks.h"
  22:Generated_Source\PSoC4/USB_UART_UART.c **** 
  23:Generated_Source\PSoC4/USB_UART_UART.c **** #if (USB_UART_UART_WAKE_ENABLE_CONST && USB_UART_UART_RX_WAKEUP_IRQ)
  24:Generated_Source\PSoC4/USB_UART_UART.c ****     /**
  25:Generated_Source\PSoC4/USB_UART_UART.c ****     * \addtogroup group_globals
  26:Generated_Source\PSoC4/USB_UART_UART.c ****     * \{
  27:Generated_Source\PSoC4/USB_UART_UART.c ****     */
  28:Generated_Source\PSoC4/USB_UART_UART.c ****     /** This global variable determines whether to enable Skip Start
  29:Generated_Source\PSoC4/USB_UART_UART.c ****     * functionality when USB_UART_Sleep() function is called:
  30:Generated_Source\PSoC4/USB_UART_UART.c ****     * 0 – disable, other values – enable. Default value is 1.
ARM GAS  C:\Users\AFDHAL~1\AppData\Local\Temp\ccsq6gt1.s 			page 2


  31:Generated_Source\PSoC4/USB_UART_UART.c ****     * It is only available when Enable wakeup from Deep Sleep Mode is enabled.
  32:Generated_Source\PSoC4/USB_UART_UART.c ****     */
  33:Generated_Source\PSoC4/USB_UART_UART.c ****     uint8 USB_UART_skipStart = 1u;
  34:Generated_Source\PSoC4/USB_UART_UART.c ****     /** \} globals */
  35:Generated_Source\PSoC4/USB_UART_UART.c **** #endif /* (USB_UART_UART_WAKE_ENABLE_CONST && USB_UART_UART_RX_WAKEUP_IRQ) */
  36:Generated_Source\PSoC4/USB_UART_UART.c **** 
  37:Generated_Source\PSoC4/USB_UART_UART.c **** #if(USB_UART_SCB_MODE_UNCONFIG_CONST_CFG)
  38:Generated_Source\PSoC4/USB_UART_UART.c **** 
  39:Generated_Source\PSoC4/USB_UART_UART.c ****     /***************************************
  40:Generated_Source\PSoC4/USB_UART_UART.c ****     *  Configuration Structure Initialization
  41:Generated_Source\PSoC4/USB_UART_UART.c ****     ***************************************/
  42:Generated_Source\PSoC4/USB_UART_UART.c **** 
  43:Generated_Source\PSoC4/USB_UART_UART.c ****     const USB_UART_UART_INIT_STRUCT USB_UART_configUart =
  44:Generated_Source\PSoC4/USB_UART_UART.c ****     {
  45:Generated_Source\PSoC4/USB_UART_UART.c ****         USB_UART_UART_SUB_MODE,
  46:Generated_Source\PSoC4/USB_UART_UART.c ****         USB_UART_UART_DIRECTION,
  47:Generated_Source\PSoC4/USB_UART_UART.c ****         USB_UART_UART_DATA_BITS_NUM,
  48:Generated_Source\PSoC4/USB_UART_UART.c ****         USB_UART_UART_PARITY_TYPE,
  49:Generated_Source\PSoC4/USB_UART_UART.c ****         USB_UART_UART_STOP_BITS_NUM,
  50:Generated_Source\PSoC4/USB_UART_UART.c ****         USB_UART_UART_OVS_FACTOR,
  51:Generated_Source\PSoC4/USB_UART_UART.c ****         USB_UART_UART_IRDA_LOW_POWER,
  52:Generated_Source\PSoC4/USB_UART_UART.c ****         USB_UART_UART_MEDIAN_FILTER_ENABLE,
  53:Generated_Source\PSoC4/USB_UART_UART.c ****         USB_UART_UART_RETRY_ON_NACK,
  54:Generated_Source\PSoC4/USB_UART_UART.c ****         USB_UART_UART_IRDA_POLARITY,
  55:Generated_Source\PSoC4/USB_UART_UART.c ****         USB_UART_UART_DROP_ON_PARITY_ERR,
  56:Generated_Source\PSoC4/USB_UART_UART.c ****         USB_UART_UART_DROP_ON_FRAME_ERR,
  57:Generated_Source\PSoC4/USB_UART_UART.c ****         USB_UART_UART_WAKE_ENABLE,
  58:Generated_Source\PSoC4/USB_UART_UART.c ****         0u,
  59:Generated_Source\PSoC4/USB_UART_UART.c ****         NULL,
  60:Generated_Source\PSoC4/USB_UART_UART.c ****         0u,
  61:Generated_Source\PSoC4/USB_UART_UART.c ****         NULL,
  62:Generated_Source\PSoC4/USB_UART_UART.c ****         USB_UART_UART_MP_MODE_ENABLE,
  63:Generated_Source\PSoC4/USB_UART_UART.c ****         USB_UART_UART_MP_ACCEPT_ADDRESS,
  64:Generated_Source\PSoC4/USB_UART_UART.c ****         USB_UART_UART_MP_RX_ADDRESS,
  65:Generated_Source\PSoC4/USB_UART_UART.c ****         USB_UART_UART_MP_RX_ADDRESS_MASK,
  66:Generated_Source\PSoC4/USB_UART_UART.c ****         (uint32) USB_UART_SCB_IRQ_INTERNAL,
  67:Generated_Source\PSoC4/USB_UART_UART.c ****         USB_UART_UART_INTR_RX_MASK,
  68:Generated_Source\PSoC4/USB_UART_UART.c ****         USB_UART_UART_RX_TRIGGER_LEVEL,
  69:Generated_Source\PSoC4/USB_UART_UART.c ****         USB_UART_UART_INTR_TX_MASK,
  70:Generated_Source\PSoC4/USB_UART_UART.c ****         USB_UART_UART_TX_TRIGGER_LEVEL,
  71:Generated_Source\PSoC4/USB_UART_UART.c ****         (uint8) USB_UART_UART_BYTE_MODE_ENABLE,
  72:Generated_Source\PSoC4/USB_UART_UART.c ****         (uint8) USB_UART_UART_CTS_ENABLE,
  73:Generated_Source\PSoC4/USB_UART_UART.c ****         (uint8) USB_UART_UART_CTS_POLARITY,
  74:Generated_Source\PSoC4/USB_UART_UART.c ****         (uint8) USB_UART_UART_RTS_POLARITY,
  75:Generated_Source\PSoC4/USB_UART_UART.c ****         (uint8) USB_UART_UART_RTS_FIFO_LEVEL,
  76:Generated_Source\PSoC4/USB_UART_UART.c ****         (uint8) USB_UART_UART_RX_BREAK_WIDTH
  77:Generated_Source\PSoC4/USB_UART_UART.c ****     };
  78:Generated_Source\PSoC4/USB_UART_UART.c **** 
  79:Generated_Source\PSoC4/USB_UART_UART.c **** 
  80:Generated_Source\PSoC4/USB_UART_UART.c ****     /*******************************************************************************
  81:Generated_Source\PSoC4/USB_UART_UART.c ****     * Function Name: USB_UART_UartInit
  82:Generated_Source\PSoC4/USB_UART_UART.c ****     ****************************************************************************//**
  83:Generated_Source\PSoC4/USB_UART_UART.c ****     *
  84:Generated_Source\PSoC4/USB_UART_UART.c ****     *  Configures the USB_UART for UART operation.
  85:Generated_Source\PSoC4/USB_UART_UART.c ****     *
  86:Generated_Source\PSoC4/USB_UART_UART.c ****     *  This function is intended specifically to be used when the USB_UART
  87:Generated_Source\PSoC4/USB_UART_UART.c ****     *  configuration is set to “Unconfigured USB_UART” in the customizer.
ARM GAS  C:\Users\AFDHAL~1\AppData\Local\Temp\ccsq6gt1.s 			page 3


  88:Generated_Source\PSoC4/USB_UART_UART.c ****     *  After initializing the USB_UART in UART mode using this function,
  89:Generated_Source\PSoC4/USB_UART_UART.c ****     *  the component can be enabled using the USB_UART_Start() or
  90:Generated_Source\PSoC4/USB_UART_UART.c ****     * USB_UART_Enable() function.
  91:Generated_Source\PSoC4/USB_UART_UART.c ****     *  This function uses a pointer to a structure that provides the configuration
  92:Generated_Source\PSoC4/USB_UART_UART.c ****     *  settings. This structure contains the same information that would otherwise
  93:Generated_Source\PSoC4/USB_UART_UART.c ****     *  be provided by the customizer settings.
  94:Generated_Source\PSoC4/USB_UART_UART.c ****     *
  95:Generated_Source\PSoC4/USB_UART_UART.c ****     *  \param config: pointer to a structure that contains the following list of
  96:Generated_Source\PSoC4/USB_UART_UART.c ****     *   fields. These fields match the selections available in the customizer.
  97:Generated_Source\PSoC4/USB_UART_UART.c ****     *   Refer to the customizer for further description of the settings.
  98:Generated_Source\PSoC4/USB_UART_UART.c ****     *
  99:Generated_Source\PSoC4/USB_UART_UART.c ****     *******************************************************************************/
 100:Generated_Source\PSoC4/USB_UART_UART.c ****     void USB_UART_UartInit(const USB_UART_UART_INIT_STRUCT *config)
 101:Generated_Source\PSoC4/USB_UART_UART.c ****     {
 102:Generated_Source\PSoC4/USB_UART_UART.c ****         uint32 pinsConfig;
 103:Generated_Source\PSoC4/USB_UART_UART.c **** 
 104:Generated_Source\PSoC4/USB_UART_UART.c ****         if (NULL == config)
 105:Generated_Source\PSoC4/USB_UART_UART.c ****         {
 106:Generated_Source\PSoC4/USB_UART_UART.c ****             CYASSERT(0u != 0u); /* Halt execution due to bad function parameter */
 107:Generated_Source\PSoC4/USB_UART_UART.c ****         }
 108:Generated_Source\PSoC4/USB_UART_UART.c ****         else
 109:Generated_Source\PSoC4/USB_UART_UART.c ****         {
 110:Generated_Source\PSoC4/USB_UART_UART.c ****             /* Get direction to configure UART pins: TX, RX or TX+RX */
 111:Generated_Source\PSoC4/USB_UART_UART.c ****             pinsConfig  = config->direction;
 112:Generated_Source\PSoC4/USB_UART_UART.c **** 
 113:Generated_Source\PSoC4/USB_UART_UART.c ****         #if !(USB_UART_CY_SCBIP_V0 || USB_UART_CY_SCBIP_V1)
 114:Generated_Source\PSoC4/USB_UART_UART.c ****             /* Add RTS and CTS pins to configure */
 115:Generated_Source\PSoC4/USB_UART_UART.c ****             pinsConfig |= (0u != config->rtsRxFifoLevel) ? (USB_UART_UART_RTS_PIN_ENABLE) : (0u);
 116:Generated_Source\PSoC4/USB_UART_UART.c ****             pinsConfig |= (0u != config->enableCts)      ? (USB_UART_UART_CTS_PIN_ENABLE) : (0u);
 117:Generated_Source\PSoC4/USB_UART_UART.c ****         #endif /* !(USB_UART_CY_SCBIP_V0 || USB_UART_CY_SCBIP_V1) */
 118:Generated_Source\PSoC4/USB_UART_UART.c **** 
 119:Generated_Source\PSoC4/USB_UART_UART.c ****             /* Configure pins */
 120:Generated_Source\PSoC4/USB_UART_UART.c ****             USB_UART_SetPins(USB_UART_SCB_MODE_UART, config->mode, pinsConfig);
 121:Generated_Source\PSoC4/USB_UART_UART.c **** 
 122:Generated_Source\PSoC4/USB_UART_UART.c ****             /* Store internal configuration */
 123:Generated_Source\PSoC4/USB_UART_UART.c ****             USB_UART_scbMode       = (uint8) USB_UART_SCB_MODE_UART;
 124:Generated_Source\PSoC4/USB_UART_UART.c ****             USB_UART_scbEnableWake = (uint8) config->enableWake;
 125:Generated_Source\PSoC4/USB_UART_UART.c ****             USB_UART_scbEnableIntr = (uint8) config->enableInterrupt;
 126:Generated_Source\PSoC4/USB_UART_UART.c **** 
 127:Generated_Source\PSoC4/USB_UART_UART.c ****             /* Set RX direction internal variables */
 128:Generated_Source\PSoC4/USB_UART_UART.c ****             USB_UART_rxBuffer      =         config->rxBuffer;
 129:Generated_Source\PSoC4/USB_UART_UART.c ****             USB_UART_rxDataBits    = (uint8) config->dataBits;
 130:Generated_Source\PSoC4/USB_UART_UART.c ****             USB_UART_rxBufferSize  =         config->rxBufferSize;
 131:Generated_Source\PSoC4/USB_UART_UART.c **** 
 132:Generated_Source\PSoC4/USB_UART_UART.c ****             /* Set TX direction internal variables */
 133:Generated_Source\PSoC4/USB_UART_UART.c ****             USB_UART_txBuffer      =         config->txBuffer;
 134:Generated_Source\PSoC4/USB_UART_UART.c ****             USB_UART_txDataBits    = (uint8) config->dataBits;
 135:Generated_Source\PSoC4/USB_UART_UART.c ****             USB_UART_txBufferSize  =         config->txBufferSize;
 136:Generated_Source\PSoC4/USB_UART_UART.c **** 
 137:Generated_Source\PSoC4/USB_UART_UART.c ****             /* Configure UART interface */
 138:Generated_Source\PSoC4/USB_UART_UART.c ****             if(USB_UART_UART_MODE_IRDA == config->mode)
 139:Generated_Source\PSoC4/USB_UART_UART.c ****             {
 140:Generated_Source\PSoC4/USB_UART_UART.c ****                 /* OVS settings: IrDA */
 141:Generated_Source\PSoC4/USB_UART_UART.c ****                 USB_UART_CTRL_REG  = ((0u != config->enableIrdaLowPower) ?
 142:Generated_Source\PSoC4/USB_UART_UART.c ****                                                 (USB_UART_UART_GET_CTRL_OVS_IRDA_LP(config->oversam
 143:Generated_Source\PSoC4/USB_UART_UART.c ****                                                 (USB_UART_CTRL_OVS_IRDA_OVS16));
 144:Generated_Source\PSoC4/USB_UART_UART.c ****             }
ARM GAS  C:\Users\AFDHAL~1\AppData\Local\Temp\ccsq6gt1.s 			page 4


 145:Generated_Source\PSoC4/USB_UART_UART.c ****             else
 146:Generated_Source\PSoC4/USB_UART_UART.c ****             {
 147:Generated_Source\PSoC4/USB_UART_UART.c ****                 /* OVS settings: UART and SmartCard */
 148:Generated_Source\PSoC4/USB_UART_UART.c ****                 USB_UART_CTRL_REG  = USB_UART_GET_CTRL_OVS(config->oversample);
 149:Generated_Source\PSoC4/USB_UART_UART.c ****             }
 150:Generated_Source\PSoC4/USB_UART_UART.c **** 
 151:Generated_Source\PSoC4/USB_UART_UART.c ****             USB_UART_CTRL_REG     |= USB_UART_GET_CTRL_BYTE_MODE  (config->enableByteMode)      |
 152:Generated_Source\PSoC4/USB_UART_UART.c ****                                              USB_UART_GET_CTRL_ADDR_ACCEPT(config->multiprocAcceptA
 153:Generated_Source\PSoC4/USB_UART_UART.c ****                                              USB_UART_CTRL_UART;
 154:Generated_Source\PSoC4/USB_UART_UART.c **** 
 155:Generated_Source\PSoC4/USB_UART_UART.c ****             /* Configure sub-mode: UART, SmartCard or IrDA */
 156:Generated_Source\PSoC4/USB_UART_UART.c ****             USB_UART_UART_CTRL_REG = USB_UART_GET_UART_CTRL_MODE(config->mode);
 157:Generated_Source\PSoC4/USB_UART_UART.c **** 
 158:Generated_Source\PSoC4/USB_UART_UART.c ****             /* Configure RX direction */
 159:Generated_Source\PSoC4/USB_UART_UART.c ****             USB_UART_UART_RX_CTRL_REG = USB_UART_GET_UART_RX_CTRL_MODE(config->stopBits)           
 160:Generated_Source\PSoC4/USB_UART_UART.c ****                                         USB_UART_GET_UART_RX_CTRL_POLARITY(config->enableInvertedRx
 161:Generated_Source\PSoC4/USB_UART_UART.c ****                                         USB_UART_GET_UART_RX_CTRL_MP_MODE(config->enableMultiproc) 
 162:Generated_Source\PSoC4/USB_UART_UART.c ****                                         USB_UART_GET_UART_RX_CTRL_DROP_ON_PARITY_ERR(config->dropOn
 163:Generated_Source\PSoC4/USB_UART_UART.c ****                                         USB_UART_GET_UART_RX_CTRL_DROP_ON_FRAME_ERR(config->dropOnF
 164:Generated_Source\PSoC4/USB_UART_UART.c ****                                         USB_UART_GET_UART_RX_CTRL_BREAK_WIDTH(config->breakWidth);
 165:Generated_Source\PSoC4/USB_UART_UART.c **** 
 166:Generated_Source\PSoC4/USB_UART_UART.c ****             if(USB_UART_UART_PARITY_NONE != config->parity)
 167:Generated_Source\PSoC4/USB_UART_UART.c ****             {
 168:Generated_Source\PSoC4/USB_UART_UART.c ****                USB_UART_UART_RX_CTRL_REG |= USB_UART_GET_UART_RX_CTRL_PARITY(config->parity) |
 169:Generated_Source\PSoC4/USB_UART_UART.c ****                                                     USB_UART_UART_RX_CTRL_PARITY_ENABLED;
 170:Generated_Source\PSoC4/USB_UART_UART.c ****             }
 171:Generated_Source\PSoC4/USB_UART_UART.c **** 
 172:Generated_Source\PSoC4/USB_UART_UART.c ****             USB_UART_RX_CTRL_REG      = USB_UART_GET_RX_CTRL_DATA_WIDTH(config->dataBits)       |
 173:Generated_Source\PSoC4/USB_UART_UART.c ****                                                 USB_UART_GET_RX_CTRL_MEDIAN(config->enableMedianFil
 174:Generated_Source\PSoC4/USB_UART_UART.c ****                                                 USB_UART_GET_UART_RX_CTRL_ENABLED(config->direction
 175:Generated_Source\PSoC4/USB_UART_UART.c **** 
 176:Generated_Source\PSoC4/USB_UART_UART.c ****             USB_UART_RX_FIFO_CTRL_REG = USB_UART_GET_RX_FIFO_CTRL_TRIGGER_LEVEL(config->rxTriggerLe
 177:Generated_Source\PSoC4/USB_UART_UART.c **** 
 178:Generated_Source\PSoC4/USB_UART_UART.c ****             /* Configure MP address */
 179:Generated_Source\PSoC4/USB_UART_UART.c ****             USB_UART_RX_MATCH_REG     = USB_UART_GET_RX_MATCH_ADDR(config->multiprocAddr) |
 180:Generated_Source\PSoC4/USB_UART_UART.c ****                                                 USB_UART_GET_RX_MATCH_MASK(config->multiprocAddrMas
 181:Generated_Source\PSoC4/USB_UART_UART.c **** 
 182:Generated_Source\PSoC4/USB_UART_UART.c ****             /* Configure RX direction */
 183:Generated_Source\PSoC4/USB_UART_UART.c ****             USB_UART_UART_TX_CTRL_REG = USB_UART_GET_UART_TX_CTRL_MODE(config->stopBits) |
 184:Generated_Source\PSoC4/USB_UART_UART.c ****                                                 USB_UART_GET_UART_TX_CTRL_RETRY_NACK(config->enable
 185:Generated_Source\PSoC4/USB_UART_UART.c **** 
 186:Generated_Source\PSoC4/USB_UART_UART.c ****             if(USB_UART_UART_PARITY_NONE != config->parity)
 187:Generated_Source\PSoC4/USB_UART_UART.c ****             {
 188:Generated_Source\PSoC4/USB_UART_UART.c ****                USB_UART_UART_TX_CTRL_REG |= USB_UART_GET_UART_TX_CTRL_PARITY(config->parity) |
 189:Generated_Source\PSoC4/USB_UART_UART.c ****                                                     USB_UART_UART_TX_CTRL_PARITY_ENABLED;
 190:Generated_Source\PSoC4/USB_UART_UART.c ****             }
 191:Generated_Source\PSoC4/USB_UART_UART.c **** 
 192:Generated_Source\PSoC4/USB_UART_UART.c ****             USB_UART_TX_CTRL_REG      = USB_UART_GET_TX_CTRL_DATA_WIDTH(config->dataBits)    |
 193:Generated_Source\PSoC4/USB_UART_UART.c ****                                                 USB_UART_GET_UART_TX_CTRL_ENABLED(config->direction
 194:Generated_Source\PSoC4/USB_UART_UART.c **** 
 195:Generated_Source\PSoC4/USB_UART_UART.c ****             USB_UART_TX_FIFO_CTRL_REG = USB_UART_GET_TX_FIFO_CTRL_TRIGGER_LEVEL(config->txTriggerLe
 196:Generated_Source\PSoC4/USB_UART_UART.c **** 
 197:Generated_Source\PSoC4/USB_UART_UART.c ****         #if !(USB_UART_CY_SCBIP_V0 || USB_UART_CY_SCBIP_V1)
 198:Generated_Source\PSoC4/USB_UART_UART.c ****             USB_UART_UART_FLOW_CTRL_REG = USB_UART_GET_UART_FLOW_CTRL_CTS_ENABLE(config->enableCts)
 199:Generated_Source\PSoC4/USB_UART_UART.c ****                                             USB_UART_GET_UART_FLOW_CTRL_CTS_POLARITY (config->ctsPo
 200:Generated_Source\PSoC4/USB_UART_UART.c ****                                             USB_UART_GET_UART_FLOW_CTRL_RTS_POLARITY (config->rtsPo
 201:Generated_Source\PSoC4/USB_UART_UART.c ****                                             USB_UART_GET_UART_FLOW_CTRL_TRIGGER_LEVEL(config->rtsRx
ARM GAS  C:\Users\AFDHAL~1\AppData\Local\Temp\ccsq6gt1.s 			page 5


 202:Generated_Source\PSoC4/USB_UART_UART.c ****         #endif /* !(USB_UART_CY_SCBIP_V0 || USB_UART_CY_SCBIP_V1) */
 203:Generated_Source\PSoC4/USB_UART_UART.c **** 
 204:Generated_Source\PSoC4/USB_UART_UART.c ****             /* Configure interrupt with UART handler but do not enable it */
 205:Generated_Source\PSoC4/USB_UART_UART.c ****             CyIntDisable    (USB_UART_ISR_NUMBER);
 206:Generated_Source\PSoC4/USB_UART_UART.c ****             CyIntSetPriority(USB_UART_ISR_NUMBER, USB_UART_ISR_PRIORITY);
 207:Generated_Source\PSoC4/USB_UART_UART.c ****             (void) CyIntSetVector(USB_UART_ISR_NUMBER, &USB_UART_SPI_UART_ISR);
 208:Generated_Source\PSoC4/USB_UART_UART.c **** 
 209:Generated_Source\PSoC4/USB_UART_UART.c ****             /* Configure WAKE interrupt */
 210:Generated_Source\PSoC4/USB_UART_UART.c ****         #if(USB_UART_UART_RX_WAKEUP_IRQ)
 211:Generated_Source\PSoC4/USB_UART_UART.c ****             CyIntDisable    (USB_UART_RX_WAKE_ISR_NUMBER);
 212:Generated_Source\PSoC4/USB_UART_UART.c ****             CyIntSetPriority(USB_UART_RX_WAKE_ISR_NUMBER, USB_UART_RX_WAKE_ISR_PRIORITY);
 213:Generated_Source\PSoC4/USB_UART_UART.c ****             (void) CyIntSetVector(USB_UART_RX_WAKE_ISR_NUMBER, &USB_UART_UART_WAKEUP_ISR);
 214:Generated_Source\PSoC4/USB_UART_UART.c ****         #endif /* (USB_UART_UART_RX_WAKEUP_IRQ) */
 215:Generated_Source\PSoC4/USB_UART_UART.c **** 
 216:Generated_Source\PSoC4/USB_UART_UART.c ****             /* Configure interrupt sources */
 217:Generated_Source\PSoC4/USB_UART_UART.c ****             USB_UART_INTR_I2C_EC_MASK_REG = USB_UART_NO_INTR_SOURCES;
 218:Generated_Source\PSoC4/USB_UART_UART.c ****             USB_UART_INTR_SPI_EC_MASK_REG = USB_UART_NO_INTR_SOURCES;
 219:Generated_Source\PSoC4/USB_UART_UART.c ****             USB_UART_INTR_SLAVE_MASK_REG  = USB_UART_NO_INTR_SOURCES;
 220:Generated_Source\PSoC4/USB_UART_UART.c ****             USB_UART_INTR_MASTER_MASK_REG = USB_UART_NO_INTR_SOURCES;
 221:Generated_Source\PSoC4/USB_UART_UART.c ****             USB_UART_INTR_RX_MASK_REG     = config->rxInterruptMask;
 222:Generated_Source\PSoC4/USB_UART_UART.c ****             USB_UART_INTR_TX_MASK_REG     = config->txInterruptMask;
 223:Generated_Source\PSoC4/USB_UART_UART.c **** 
 224:Generated_Source\PSoC4/USB_UART_UART.c ****             /* Configure TX interrupt sources to restore. */
 225:Generated_Source\PSoC4/USB_UART_UART.c ****             USB_UART_IntrTxMask = LO16(USB_UART_INTR_TX_MASK_REG);
 226:Generated_Source\PSoC4/USB_UART_UART.c **** 
 227:Generated_Source\PSoC4/USB_UART_UART.c ****             /* Clear RX buffer indexes */
 228:Generated_Source\PSoC4/USB_UART_UART.c ****             USB_UART_rxBufferHead     = 0u;
 229:Generated_Source\PSoC4/USB_UART_UART.c ****             USB_UART_rxBufferTail     = 0u;
 230:Generated_Source\PSoC4/USB_UART_UART.c ****             USB_UART_rxBufferOverflow = 0u;
 231:Generated_Source\PSoC4/USB_UART_UART.c **** 
 232:Generated_Source\PSoC4/USB_UART_UART.c ****             /* Clear TX buffer indexes */
 233:Generated_Source\PSoC4/USB_UART_UART.c ****             USB_UART_txBufferHead = 0u;
 234:Generated_Source\PSoC4/USB_UART_UART.c ****             USB_UART_txBufferTail = 0u;
 235:Generated_Source\PSoC4/USB_UART_UART.c ****         }
 236:Generated_Source\PSoC4/USB_UART_UART.c ****     }
 237:Generated_Source\PSoC4/USB_UART_UART.c **** 
 238:Generated_Source\PSoC4/USB_UART_UART.c **** #else
 239:Generated_Source\PSoC4/USB_UART_UART.c **** 
 240:Generated_Source\PSoC4/USB_UART_UART.c ****     /*******************************************************************************
 241:Generated_Source\PSoC4/USB_UART_UART.c ****     * Function Name: USB_UART_UartInit
 242:Generated_Source\PSoC4/USB_UART_UART.c ****     ****************************************************************************//**
 243:Generated_Source\PSoC4/USB_UART_UART.c ****     *
 244:Generated_Source\PSoC4/USB_UART_UART.c ****     *  Configures the SCB for the UART operation.
 245:Generated_Source\PSoC4/USB_UART_UART.c ****     *
 246:Generated_Source\PSoC4/USB_UART_UART.c ****     *******************************************************************************/
 247:Generated_Source\PSoC4/USB_UART_UART.c ****     void USB_UART_UartInit(void)
 248:Generated_Source\PSoC4/USB_UART_UART.c ****     {
  28              		.loc 1 248 0
  29              		.cfi_startproc
  30              		@ args = 0, pretend = 0, frame = 0
  31              		@ frame_needed = 0, uses_anonymous_args = 0
  32 0000 70B5     		push	{r4, r5, r6, lr}
  33              		.cfi_def_cfa_offset 16
  34              		.cfi_offset 4, -16
  35              		.cfi_offset 5, -12
  36              		.cfi_offset 6, -8
  37              		.cfi_offset 14, -4
ARM GAS  C:\Users\AFDHAL~1\AppData\Local\Temp\ccsq6gt1.s 			page 6


 249:Generated_Source\PSoC4/USB_UART_UART.c ****         /* Configure UART interface */
 250:Generated_Source\PSoC4/USB_UART_UART.c ****         USB_UART_CTRL_REG = USB_UART_UART_DEFAULT_CTRL;
 251:Generated_Source\PSoC4/USB_UART_UART.c **** 
 252:Generated_Source\PSoC4/USB_UART_UART.c ****         /* Configure sub-mode: UART, SmartCard or IrDA */
 253:Generated_Source\PSoC4/USB_UART_UART.c ****         USB_UART_UART_CTRL_REG = USB_UART_UART_DEFAULT_UART_CTRL;
  38              		.loc 1 253 0
  39 0002 0024     		movs	r4, #0
 250:Generated_Source\PSoC4/USB_UART_UART.c **** 
  40              		.loc 1 250 0
  41 0004 1F4A     		ldr	r2, .L2
  42 0006 204B     		ldr	r3, .L2+4
 254:Generated_Source\PSoC4/USB_UART_UART.c **** 
 255:Generated_Source\PSoC4/USB_UART_UART.c ****         /* Configure RX direction */
 256:Generated_Source\PSoC4/USB_UART_UART.c ****         USB_UART_UART_RX_CTRL_REG = USB_UART_UART_DEFAULT_UART_RX_CTRL;
 257:Generated_Source\PSoC4/USB_UART_UART.c ****         USB_UART_RX_CTRL_REG      = USB_UART_UART_DEFAULT_RX_CTRL;
 258:Generated_Source\PSoC4/USB_UART_UART.c ****         USB_UART_RX_FIFO_CTRL_REG = USB_UART_UART_DEFAULT_RX_FIFO_CTRL;
 259:Generated_Source\PSoC4/USB_UART_UART.c ****         USB_UART_RX_MATCH_REG     = USB_UART_UART_DEFAULT_RX_MATCH_REG;
 260:Generated_Source\PSoC4/USB_UART_UART.c **** 
 261:Generated_Source\PSoC4/USB_UART_UART.c ****         /* Configure TX direction */
 262:Generated_Source\PSoC4/USB_UART_UART.c ****         USB_UART_UART_TX_CTRL_REG = USB_UART_UART_DEFAULT_UART_TX_CTRL;
 263:Generated_Source\PSoC4/USB_UART_UART.c ****         USB_UART_TX_CTRL_REG      = USB_UART_UART_DEFAULT_TX_CTRL;
 264:Generated_Source\PSoC4/USB_UART_UART.c ****         USB_UART_TX_FIFO_CTRL_REG = USB_UART_UART_DEFAULT_TX_FIFO_CTRL;
 265:Generated_Source\PSoC4/USB_UART_UART.c **** 
 266:Generated_Source\PSoC4/USB_UART_UART.c ****     #if !(USB_UART_CY_SCBIP_V0 || USB_UART_CY_SCBIP_V1)
 267:Generated_Source\PSoC4/USB_UART_UART.c ****         USB_UART_UART_FLOW_CTRL_REG = USB_UART_UART_DEFAULT_FLOW_CTRL;
  43              		.loc 1 267 0
  44 0008 0425     		movs	r5, #4
 250:Generated_Source\PSoC4/USB_UART_UART.c **** 
  45              		.loc 1 250 0
  46 000a 1A60     		str	r2, [r3]
 253:Generated_Source\PSoC4/USB_UART_UART.c **** 
  47              		.loc 1 253 0
  48 000c 1F4B     		ldr	r3, .L2+8
 256:Generated_Source\PSoC4/USB_UART_UART.c ****         USB_UART_RX_CTRL_REG      = USB_UART_UART_DEFAULT_RX_CTRL;
  49              		.loc 1 256 0
  50 000e 204A     		ldr	r2, .L2+12
 253:Generated_Source\PSoC4/USB_UART_UART.c **** 
  51              		.loc 1 253 0
  52 0010 1C60     		str	r4, [r3]
 256:Generated_Source\PSoC4/USB_UART_UART.c ****         USB_UART_RX_CTRL_REG      = USB_UART_UART_DEFAULT_RX_CTRL;
  53              		.loc 1 256 0
  54 0012 204B     		ldr	r3, .L2+16
 268:Generated_Source\PSoC4/USB_UART_UART.c ****     #endif /* !(USB_UART_CY_SCBIP_V0 || USB_UART_CY_SCBIP_V1) */
 269:Generated_Source\PSoC4/USB_UART_UART.c **** 
 270:Generated_Source\PSoC4/USB_UART_UART.c ****         /* Configure interrupt with UART handler but do not enable it */
 271:Generated_Source\PSoC4/USB_UART_UART.c ****     #if(USB_UART_SCB_IRQ_INTERNAL)
 272:Generated_Source\PSoC4/USB_UART_UART.c ****         CyIntDisable    (USB_UART_ISR_NUMBER);
  55              		.loc 1 272 0
  56 0014 0B20     		movs	r0, #11
 256:Generated_Source\PSoC4/USB_UART_UART.c ****         USB_UART_RX_CTRL_REG      = USB_UART_UART_DEFAULT_RX_CTRL;
  57              		.loc 1 256 0
  58 0016 1A60     		str	r2, [r3]
 257:Generated_Source\PSoC4/USB_UART_UART.c ****         USB_UART_RX_FIFO_CTRL_REG = USB_UART_UART_DEFAULT_RX_FIFO_CTRL;
  59              		.loc 1 257 0
  60 0018 1F4A     		ldr	r2, .L2+20
  61 001a 204B     		ldr	r3, .L2+24
 273:Generated_Source\PSoC4/USB_UART_UART.c ****         CyIntSetPriority(USB_UART_ISR_NUMBER, USB_UART_ISR_PRIORITY);
ARM GAS  C:\Users\AFDHAL~1\AppData\Local\Temp\ccsq6gt1.s 			page 7


 274:Generated_Source\PSoC4/USB_UART_UART.c ****         (void) CyIntSetVector(USB_UART_ISR_NUMBER, &USB_UART_SPI_UART_ISR);
 275:Generated_Source\PSoC4/USB_UART_UART.c ****     #endif /* (USB_UART_SCB_IRQ_INTERNAL) */
 276:Generated_Source\PSoC4/USB_UART_UART.c **** 
 277:Generated_Source\PSoC4/USB_UART_UART.c ****         /* Configure WAKE interrupt */
 278:Generated_Source\PSoC4/USB_UART_UART.c ****     #if(USB_UART_UART_RX_WAKEUP_IRQ)
 279:Generated_Source\PSoC4/USB_UART_UART.c ****         CyIntDisable    (USB_UART_RX_WAKE_ISR_NUMBER);
 280:Generated_Source\PSoC4/USB_UART_UART.c ****         CyIntSetPriority(USB_UART_RX_WAKE_ISR_NUMBER, USB_UART_RX_WAKE_ISR_PRIORITY);
 281:Generated_Source\PSoC4/USB_UART_UART.c ****         (void) CyIntSetVector(USB_UART_RX_WAKE_ISR_NUMBER, &USB_UART_UART_WAKEUP_ISR);
 282:Generated_Source\PSoC4/USB_UART_UART.c ****     #endif /* (USB_UART_UART_RX_WAKEUP_IRQ) */
 283:Generated_Source\PSoC4/USB_UART_UART.c **** 
 284:Generated_Source\PSoC4/USB_UART_UART.c ****         /* Configure interrupt sources */
 285:Generated_Source\PSoC4/USB_UART_UART.c ****         USB_UART_INTR_I2C_EC_MASK_REG = USB_UART_UART_DEFAULT_INTR_I2C_EC_MASK;
 286:Generated_Source\PSoC4/USB_UART_UART.c ****         USB_UART_INTR_SPI_EC_MASK_REG = USB_UART_UART_DEFAULT_INTR_SPI_EC_MASK;
 287:Generated_Source\PSoC4/USB_UART_UART.c ****         USB_UART_INTR_SLAVE_MASK_REG  = USB_UART_UART_DEFAULT_INTR_SLAVE_MASK;
 288:Generated_Source\PSoC4/USB_UART_UART.c ****         USB_UART_INTR_MASTER_MASK_REG = USB_UART_UART_DEFAULT_INTR_MASTER_MASK;
 289:Generated_Source\PSoC4/USB_UART_UART.c ****         USB_UART_INTR_RX_MASK_REG     = USB_UART_UART_DEFAULT_INTR_RX_MASK;
 290:Generated_Source\PSoC4/USB_UART_UART.c ****         USB_UART_INTR_TX_MASK_REG     = USB_UART_UART_DEFAULT_INTR_TX_MASK;
 291:Generated_Source\PSoC4/USB_UART_UART.c **** 
 292:Generated_Source\PSoC4/USB_UART_UART.c ****         /* Configure TX interrupt sources to restore. */
 293:Generated_Source\PSoC4/USB_UART_UART.c ****         USB_UART_IntrTxMask = LO16(USB_UART_INTR_TX_MASK_REG);
 294:Generated_Source\PSoC4/USB_UART_UART.c **** 
 295:Generated_Source\PSoC4/USB_UART_UART.c ****     #if(USB_UART_INTERNAL_RX_SW_BUFFER_CONST)
 296:Generated_Source\PSoC4/USB_UART_UART.c ****         USB_UART_rxBufferHead     = 0u;
 297:Generated_Source\PSoC4/USB_UART_UART.c ****         USB_UART_rxBufferTail     = 0u;
 298:Generated_Source\PSoC4/USB_UART_UART.c ****         USB_UART_rxBufferOverflow = 0u;
 299:Generated_Source\PSoC4/USB_UART_UART.c ****     #endif /* (USB_UART_INTERNAL_RX_SW_BUFFER_CONST) */
 300:Generated_Source\PSoC4/USB_UART_UART.c **** 
 301:Generated_Source\PSoC4/USB_UART_UART.c ****     #if(USB_UART_INTERNAL_TX_SW_BUFFER_CONST)
 302:Generated_Source\PSoC4/USB_UART_UART.c ****         USB_UART_txBufferHead = 0u;
 303:Generated_Source\PSoC4/USB_UART_UART.c ****         USB_UART_txBufferTail = 0u;
 304:Generated_Source\PSoC4/USB_UART_UART.c ****     #endif /* (USB_UART_INTERNAL_TX_SW_BUFFER_CONST) */
 305:Generated_Source\PSoC4/USB_UART_UART.c ****     }
  62              		.loc 1 305 0
  63              		@ sp needed
 257:Generated_Source\PSoC4/USB_UART_UART.c ****         USB_UART_RX_FIFO_CTRL_REG = USB_UART_UART_DEFAULT_RX_FIFO_CTRL;
  64              		.loc 1 257 0
  65 001c 1A60     		str	r2, [r3]
 258:Generated_Source\PSoC4/USB_UART_UART.c ****         USB_UART_RX_MATCH_REG     = USB_UART_UART_DEFAULT_RX_MATCH_REG;
  66              		.loc 1 258 0
  67 001e 0722     		movs	r2, #7
  68 0020 1F4B     		ldr	r3, .L2+28
  69 0022 1A60     		str	r2, [r3]
 259:Generated_Source\PSoC4/USB_UART_UART.c **** 
  70              		.loc 1 259 0
  71 0024 1F4B     		ldr	r3, .L2+32
 262:Generated_Source\PSoC4/USB_UART_UART.c ****         USB_UART_TX_CTRL_REG      = USB_UART_UART_DEFAULT_TX_CTRL;
  72              		.loc 1 262 0
  73 0026 063A     		subs	r2, r2, #6
 259:Generated_Source\PSoC4/USB_UART_UART.c **** 
  74              		.loc 1 259 0
  75 0028 1C60     		str	r4, [r3]
 262:Generated_Source\PSoC4/USB_UART_UART.c ****         USB_UART_TX_CTRL_REG      = USB_UART_UART_DEFAULT_TX_CTRL;
  76              		.loc 1 262 0
  77 002a 1F4B     		ldr	r3, .L2+36
  78 002c 1A60     		str	r2, [r3]
 263:Generated_Source\PSoC4/USB_UART_UART.c ****         USB_UART_TX_FIFO_CTRL_REG = USB_UART_UART_DEFAULT_TX_FIFO_CTRL;
  79              		.loc 1 263 0
ARM GAS  C:\Users\AFDHAL~1\AppData\Local\Temp\ccsq6gt1.s 			page 8


  80 002e 1F4A     		ldr	r2, .L2+40
  81 0030 1F4B     		ldr	r3, .L2+44
  82 0032 1A60     		str	r2, [r3]
 264:Generated_Source\PSoC4/USB_UART_UART.c **** 
  83              		.loc 1 264 0
  84 0034 1F4B     		ldr	r3, .L2+48
  85 0036 1C60     		str	r4, [r3]
 267:Generated_Source\PSoC4/USB_UART_UART.c ****     #endif /* !(USB_UART_CY_SCBIP_V0 || USB_UART_CY_SCBIP_V1) */
  86              		.loc 1 267 0
  87 0038 1F4B     		ldr	r3, .L2+52
  88 003a 1D60     		str	r5, [r3]
 272:Generated_Source\PSoC4/USB_UART_UART.c ****         CyIntSetPriority(USB_UART_ISR_NUMBER, USB_UART_ISR_PRIORITY);
  89              		.loc 1 272 0
  90 003c FFF7FEFF 		bl	CyIntDisable
  91              	.LVL0:
 273:Generated_Source\PSoC4/USB_UART_UART.c ****         (void) CyIntSetVector(USB_UART_ISR_NUMBER, &USB_UART_SPI_UART_ISR);
  92              		.loc 1 273 0
  93 0040 0321     		movs	r1, #3
  94 0042 0B20     		movs	r0, #11
  95 0044 FFF7FEFF 		bl	CyIntSetPriority
  96              	.LVL1:
 274:Generated_Source\PSoC4/USB_UART_UART.c ****     #endif /* (USB_UART_SCB_IRQ_INTERNAL) */
  97              		.loc 1 274 0
  98 0048 1C49     		ldr	r1, .L2+56
  99 004a 0B20     		movs	r0, #11
 100 004c FFF7FEFF 		bl	CyIntSetVector
 101              	.LVL2:
 285:Generated_Source\PSoC4/USB_UART_UART.c ****         USB_UART_INTR_SPI_EC_MASK_REG = USB_UART_UART_DEFAULT_INTR_SPI_EC_MASK;
 102              		.loc 1 285 0
 103 0050 1B4B     		ldr	r3, .L2+60
 104 0052 1C60     		str	r4, [r3]
 286:Generated_Source\PSoC4/USB_UART_UART.c ****         USB_UART_INTR_SLAVE_MASK_REG  = USB_UART_UART_DEFAULT_INTR_SLAVE_MASK;
 105              		.loc 1 286 0
 106 0054 1B4B     		ldr	r3, .L2+64
 107 0056 1C60     		str	r4, [r3]
 287:Generated_Source\PSoC4/USB_UART_UART.c ****         USB_UART_INTR_MASTER_MASK_REG = USB_UART_UART_DEFAULT_INTR_MASTER_MASK;
 108              		.loc 1 287 0
 109 0058 1B4B     		ldr	r3, .L2+68
 110 005a 1C60     		str	r4, [r3]
 288:Generated_Source\PSoC4/USB_UART_UART.c ****         USB_UART_INTR_RX_MASK_REG     = USB_UART_UART_DEFAULT_INTR_RX_MASK;
 111              		.loc 1 288 0
 112 005c 1B4B     		ldr	r3, .L2+72
 113 005e 1C60     		str	r4, [r3]
 289:Generated_Source\PSoC4/USB_UART_UART.c ****         USB_UART_INTR_TX_MASK_REG     = USB_UART_UART_DEFAULT_INTR_TX_MASK;
 114              		.loc 1 289 0
 115 0060 1B4B     		ldr	r3, .L2+76
 116 0062 1D60     		str	r5, [r3]
 290:Generated_Source\PSoC4/USB_UART_UART.c **** 
 117              		.loc 1 290 0
 118 0064 1B4B     		ldr	r3, .L2+80
 119 0066 1C60     		str	r4, [r3]
 293:Generated_Source\PSoC4/USB_UART_UART.c **** 
 120              		.loc 1 293 0
 121 0068 1A68     		ldr	r2, [r3]
 122 006a 1B4B     		ldr	r3, .L2+84
 123 006c 1A80     		strh	r2, [r3]
 296:Generated_Source\PSoC4/USB_UART_UART.c ****         USB_UART_rxBufferTail     = 0u;
ARM GAS  C:\Users\AFDHAL~1\AppData\Local\Temp\ccsq6gt1.s 			page 9


 124              		.loc 1 296 0
 125 006e 1B4B     		ldr	r3, .L2+88
 126 0070 1C60     		str	r4, [r3]
 297:Generated_Source\PSoC4/USB_UART_UART.c ****         USB_UART_rxBufferOverflow = 0u;
 127              		.loc 1 297 0
 128 0072 1B4B     		ldr	r3, .L2+92
 129 0074 1C60     		str	r4, [r3]
 298:Generated_Source\PSoC4/USB_UART_UART.c ****     #endif /* (USB_UART_INTERNAL_RX_SW_BUFFER_CONST) */
 130              		.loc 1 298 0
 131 0076 1B4B     		ldr	r3, .L2+96
 132 0078 1C70     		strb	r4, [r3]
 302:Generated_Source\PSoC4/USB_UART_UART.c ****         USB_UART_txBufferTail = 0u;
 133              		.loc 1 302 0
 134 007a 1B4B     		ldr	r3, .L2+100
 135 007c 1C60     		str	r4, [r3]
 303:Generated_Source\PSoC4/USB_UART_UART.c ****     #endif /* (USB_UART_INTERNAL_TX_SW_BUFFER_CONST) */
 136              		.loc 1 303 0
 137 007e 1B4B     		ldr	r3, .L2+104
 138 0080 1C60     		str	r4, [r3]
 139              		.loc 1 305 0
 140 0082 70BD     		pop	{r4, r5, r6, pc}
 141              	.L3:
 142              		.align	2
 143              	.L2:
 144 0084 0F000002 		.word	33554447
 145 0088 00002740 		.word	1076297728
 146 008c 40002740 		.word	1076297792
 147 0090 01000A00 		.word	655361
 148 0094 48002740 		.word	1076297800
 149 0098 07020080 		.word	-2147483129
 150 009c 00032740 		.word	1076298496
 151 00a0 04032740 		.word	1076298500
 152 00a4 10032740 		.word	1076298512
 153 00a8 44002740 		.word	1076297796
 154 00ac 07000080 		.word	-2147483641
 155 00b0 00022740 		.word	1076298240
 156 00b4 04022740 		.word	1076298244
 157 00b8 50002740 		.word	1076297808
 158 00bc 00000000 		.word	USB_UART_SPI_UART_ISR
 159 00c0 880E2740 		.word	1076301448
 160 00c4 C80E2740 		.word	1076301512
 161 00c8 480F2740 		.word	1076301640
 162 00cc 080F2740 		.word	1076301576
 163 00d0 C80F2740 		.word	1076301768
 164 00d4 880F2740 		.word	1076301704
 165 00d8 00000000 		.word	USB_UART_IntrTxMask
 166 00dc 00000000 		.word	USB_UART_rxBufferHead
 167 00e0 00000000 		.word	USB_UART_rxBufferTail
 168 00e4 00000000 		.word	USB_UART_rxBufferOverflow
 169 00e8 00000000 		.word	USB_UART_txBufferHead
 170 00ec 00000000 		.word	USB_UART_txBufferTail
 171              		.cfi_endproc
 172              	.LFE1:
 173              		.size	USB_UART_UartInit, .-USB_UART_UartInit
 174              		.section	.text.USB_UART_UartPostEnable,"ax",%progbits
 175              		.align	2
 176              		.global	USB_UART_UartPostEnable
ARM GAS  C:\Users\AFDHAL~1\AppData\Local\Temp\ccsq6gt1.s 			page 10


 177              		.code	16
 178              		.thumb_func
 179              		.type	USB_UART_UartPostEnable, %function
 180              	USB_UART_UartPostEnable:
 181              	.LFB2:
 306:Generated_Source\PSoC4/USB_UART_UART.c **** #endif /* (USB_UART_SCB_MODE_UNCONFIG_CONST_CFG) */
 307:Generated_Source\PSoC4/USB_UART_UART.c **** 
 308:Generated_Source\PSoC4/USB_UART_UART.c **** 
 309:Generated_Source\PSoC4/USB_UART_UART.c **** /*******************************************************************************
 310:Generated_Source\PSoC4/USB_UART_UART.c **** * Function Name: USB_UART_UartPostEnable
 311:Generated_Source\PSoC4/USB_UART_UART.c **** ****************************************************************************//**
 312:Generated_Source\PSoC4/USB_UART_UART.c **** *
 313:Generated_Source\PSoC4/USB_UART_UART.c **** *  Restores HSIOM settings for the UART output pins (TX and/or RTS) to be
 314:Generated_Source\PSoC4/USB_UART_UART.c **** *  controlled by the SCB UART.
 315:Generated_Source\PSoC4/USB_UART_UART.c **** *
 316:Generated_Source\PSoC4/USB_UART_UART.c **** *******************************************************************************/
 317:Generated_Source\PSoC4/USB_UART_UART.c **** void USB_UART_UartPostEnable(void)
 318:Generated_Source\PSoC4/USB_UART_UART.c **** {
 182              		.loc 1 318 0
 183              		.cfi_startproc
 184              		@ args = 0, pretend = 0, frame = 0
 185              		@ frame_needed = 0, uses_anonymous_args = 0
 186              		@ link register save eliminated.
 319:Generated_Source\PSoC4/USB_UART_UART.c **** #if (USB_UART_SCB_MODE_UNCONFIG_CONST_CFG)
 320:Generated_Source\PSoC4/USB_UART_UART.c ****     #if (USB_UART_TX_SDA_MISO_PIN)
 321:Generated_Source\PSoC4/USB_UART_UART.c ****         if (USB_UART_CHECK_TX_SDA_MISO_PIN_USED)
 322:Generated_Source\PSoC4/USB_UART_UART.c ****         {
 323:Generated_Source\PSoC4/USB_UART_UART.c ****             /* Set SCB UART to drive the output pin */
 324:Generated_Source\PSoC4/USB_UART_UART.c ****             USB_UART_SET_HSIOM_SEL(USB_UART_TX_SDA_MISO_HSIOM_REG, USB_UART_TX_SDA_MISO_HSIOM_MASK,
 325:Generated_Source\PSoC4/USB_UART_UART.c ****                                            USB_UART_TX_SDA_MISO_HSIOM_POS, USB_UART_TX_SDA_MISO_HSI
 326:Generated_Source\PSoC4/USB_UART_UART.c ****         }
 327:Generated_Source\PSoC4/USB_UART_UART.c ****     #endif /* (USB_UART_TX_SDA_MISO_PIN_PIN) */
 328:Generated_Source\PSoC4/USB_UART_UART.c **** 
 329:Generated_Source\PSoC4/USB_UART_UART.c ****     #if !(USB_UART_CY_SCBIP_V0 || USB_UART_CY_SCBIP_V1)
 330:Generated_Source\PSoC4/USB_UART_UART.c ****         #if (USB_UART_RTS_SS0_PIN)
 331:Generated_Source\PSoC4/USB_UART_UART.c ****             if (USB_UART_CHECK_RTS_SS0_PIN_USED)
 332:Generated_Source\PSoC4/USB_UART_UART.c ****             {
 333:Generated_Source\PSoC4/USB_UART_UART.c ****                 /* Set SCB UART to drive the output pin */
 334:Generated_Source\PSoC4/USB_UART_UART.c ****                 USB_UART_SET_HSIOM_SEL(USB_UART_RTS_SS0_HSIOM_REG, USB_UART_RTS_SS0_HSIOM_MASK,
 335:Generated_Source\PSoC4/USB_UART_UART.c ****                                                USB_UART_RTS_SS0_HSIOM_POS, USB_UART_RTS_SS0_HSIOM_S
 336:Generated_Source\PSoC4/USB_UART_UART.c ****             }
 337:Generated_Source\PSoC4/USB_UART_UART.c ****         #endif /* (USB_UART_RTS_SS0_PIN) */
 338:Generated_Source\PSoC4/USB_UART_UART.c ****     #endif /* !(USB_UART_CY_SCBIP_V0 || USB_UART_CY_SCBIP_V1) */
 339:Generated_Source\PSoC4/USB_UART_UART.c **** 
 340:Generated_Source\PSoC4/USB_UART_UART.c **** #else
 341:Generated_Source\PSoC4/USB_UART_UART.c ****     #if (USB_UART_UART_TX_PIN)
 342:Generated_Source\PSoC4/USB_UART_UART.c ****          /* Set SCB UART to drive the output pin */
 343:Generated_Source\PSoC4/USB_UART_UART.c ****         USB_UART_SET_HSIOM_SEL(USB_UART_TX_HSIOM_REG, USB_UART_TX_HSIOM_MASK,
 187              		.loc 1 343 0
 188 0000 F022     		movs	r2, #240
 189 0002 0549     		ldr	r1, .L5
 344:Generated_Source\PSoC4/USB_UART_UART.c ****                                        USB_UART_TX_HSIOM_POS, USB_UART_TX_HSIOM_SEL_UART);
 345:Generated_Source\PSoC4/USB_UART_UART.c ****     #endif /* (USB_UART_UART_TX_PIN) */
 346:Generated_Source\PSoC4/USB_UART_UART.c **** 
 347:Generated_Source\PSoC4/USB_UART_UART.c ****     #if (USB_UART_UART_RTS_PIN)
 348:Generated_Source\PSoC4/USB_UART_UART.c ****         /* Set SCB UART to drive the output pin */
 349:Generated_Source\PSoC4/USB_UART_UART.c ****         USB_UART_SET_HSIOM_SEL(USB_UART_RTS_HSIOM_REG, USB_UART_RTS_HSIOM_MASK,
ARM GAS  C:\Users\AFDHAL~1\AppData\Local\Temp\ccsq6gt1.s 			page 11


 350:Generated_Source\PSoC4/USB_UART_UART.c ****                                        USB_UART_RTS_HSIOM_POS, USB_UART_RTS_HSIOM_SEL_UART);
 351:Generated_Source\PSoC4/USB_UART_UART.c ****     #endif /* (USB_UART_UART_RTS_PIN) */
 352:Generated_Source\PSoC4/USB_UART_UART.c **** #endif /* (USB_UART_SCB_MODE_UNCONFIG_CONST_CFG) */
 353:Generated_Source\PSoC4/USB_UART_UART.c **** 
 354:Generated_Source\PSoC4/USB_UART_UART.c ****     /* Restore TX interrupt sources. */
 355:Generated_Source\PSoC4/USB_UART_UART.c ****     USB_UART_SetTxInterruptMode(USB_UART_IntrTxMask);
 356:Generated_Source\PSoC4/USB_UART_UART.c **** }
 190              		.loc 1 356 0
 191              		@ sp needed
 343:Generated_Source\PSoC4/USB_UART_UART.c ****                                        USB_UART_TX_HSIOM_POS, USB_UART_TX_HSIOM_SEL_UART);
 192              		.loc 1 343 0
 193 0004 0B68     		ldr	r3, [r1]
 194 0006 9343     		bics	r3, r2
 195 0008 603A     		subs	r2, r2, #96
 196 000a 1343     		orrs	r3, r2
 197 000c 0B60     		str	r3, [r1]
 355:Generated_Source\PSoC4/USB_UART_UART.c **** }
 198              		.loc 1 355 0
 199 000e 034B     		ldr	r3, .L5+4
 200 0010 1A88     		ldrh	r2, [r3]
 201 0012 034B     		ldr	r3, .L5+8
 202 0014 1A60     		str	r2, [r3]
 203              		.loc 1 356 0
 204 0016 7047     		bx	lr
 205              	.L6:
 206              		.align	2
 207              	.L5:
 208 0018 00070240 		.word	1073874688
 209 001c 00000000 		.word	USB_UART_IntrTxMask
 210 0020 880F2740 		.word	1076301704
 211              		.cfi_endproc
 212              	.LFE2:
 213              		.size	USB_UART_UartPostEnable, .-USB_UART_UartPostEnable
 214              		.section	.text.USB_UART_UartStop,"ax",%progbits
 215              		.align	2
 216              		.global	USB_UART_UartStop
 217              		.code	16
 218              		.thumb_func
 219              		.type	USB_UART_UartStop, %function
 220              	USB_UART_UartStop:
 221              	.LFB3:
 357:Generated_Source\PSoC4/USB_UART_UART.c **** 
 358:Generated_Source\PSoC4/USB_UART_UART.c **** 
 359:Generated_Source\PSoC4/USB_UART_UART.c **** /*******************************************************************************
 360:Generated_Source\PSoC4/USB_UART_UART.c **** * Function Name: USB_UART_UartStop
 361:Generated_Source\PSoC4/USB_UART_UART.c **** ****************************************************************************//**
 362:Generated_Source\PSoC4/USB_UART_UART.c **** *
 363:Generated_Source\PSoC4/USB_UART_UART.c **** *  Changes the HSIOM settings for the UART output pins (TX and/or RTS) to keep
 364:Generated_Source\PSoC4/USB_UART_UART.c **** *  them inactive after the block is disabled. The output pins are controlled by
 365:Generated_Source\PSoC4/USB_UART_UART.c **** *  the GPIO data register. Also, the function disables the skip start feature
 366:Generated_Source\PSoC4/USB_UART_UART.c **** *  to not cause it to trigger after the component is enabled.
 367:Generated_Source\PSoC4/USB_UART_UART.c **** *
 368:Generated_Source\PSoC4/USB_UART_UART.c **** *******************************************************************************/
 369:Generated_Source\PSoC4/USB_UART_UART.c **** void USB_UART_UartStop(void)
 370:Generated_Source\PSoC4/USB_UART_UART.c **** {
 222              		.loc 1 370 0
 223              		.cfi_startproc
ARM GAS  C:\Users\AFDHAL~1\AppData\Local\Temp\ccsq6gt1.s 			page 12


 224              		@ args = 0, pretend = 0, frame = 0
 225              		@ frame_needed = 0, uses_anonymous_args = 0
 226              		@ link register save eliminated.
 371:Generated_Source\PSoC4/USB_UART_UART.c **** #if(USB_UART_SCB_MODE_UNCONFIG_CONST_CFG)
 372:Generated_Source\PSoC4/USB_UART_UART.c ****     #if (USB_UART_TX_SDA_MISO_PIN)
 373:Generated_Source\PSoC4/USB_UART_UART.c ****         if (USB_UART_CHECK_TX_SDA_MISO_PIN_USED)
 374:Generated_Source\PSoC4/USB_UART_UART.c ****         {
 375:Generated_Source\PSoC4/USB_UART_UART.c ****             /* Set GPIO to drive output pin */
 376:Generated_Source\PSoC4/USB_UART_UART.c ****             USB_UART_SET_HSIOM_SEL(USB_UART_TX_SDA_MISO_HSIOM_REG, USB_UART_TX_SDA_MISO_HSIOM_MASK,
 377:Generated_Source\PSoC4/USB_UART_UART.c ****                                            USB_UART_TX_SDA_MISO_HSIOM_POS, USB_UART_TX_SDA_MISO_HSI
 378:Generated_Source\PSoC4/USB_UART_UART.c ****         }
 379:Generated_Source\PSoC4/USB_UART_UART.c ****     #endif /* (USB_UART_TX_SDA_MISO_PIN_PIN) */
 380:Generated_Source\PSoC4/USB_UART_UART.c **** 
 381:Generated_Source\PSoC4/USB_UART_UART.c ****     #if !(USB_UART_CY_SCBIP_V0 || USB_UART_CY_SCBIP_V1)
 382:Generated_Source\PSoC4/USB_UART_UART.c ****         #if (USB_UART_RTS_SS0_PIN)
 383:Generated_Source\PSoC4/USB_UART_UART.c ****             if (USB_UART_CHECK_RTS_SS0_PIN_USED)
 384:Generated_Source\PSoC4/USB_UART_UART.c ****             {
 385:Generated_Source\PSoC4/USB_UART_UART.c ****                 /* Set output pin state after block is disabled */
 386:Generated_Source\PSoC4/USB_UART_UART.c ****                 USB_UART_uart_rts_spi_ss0_Write(USB_UART_GET_UART_RTS_INACTIVE);
 387:Generated_Source\PSoC4/USB_UART_UART.c **** 
 388:Generated_Source\PSoC4/USB_UART_UART.c ****                 /* Set GPIO to drive output pin */
 389:Generated_Source\PSoC4/USB_UART_UART.c ****                 USB_UART_SET_HSIOM_SEL(USB_UART_RTS_SS0_HSIOM_REG, USB_UART_RTS_SS0_HSIOM_MASK,
 390:Generated_Source\PSoC4/USB_UART_UART.c ****                                                USB_UART_RTS_SS0_HSIOM_POS, USB_UART_RTS_SS0_HSIOM_S
 391:Generated_Source\PSoC4/USB_UART_UART.c ****             }
 392:Generated_Source\PSoC4/USB_UART_UART.c ****         #endif /* (USB_UART_RTS_SS0_PIN) */
 393:Generated_Source\PSoC4/USB_UART_UART.c ****     #endif /* !(USB_UART_CY_SCBIP_V0 || USB_UART_CY_SCBIP_V1) */
 394:Generated_Source\PSoC4/USB_UART_UART.c **** 
 395:Generated_Source\PSoC4/USB_UART_UART.c **** #else
 396:Generated_Source\PSoC4/USB_UART_UART.c ****     #if (USB_UART_UART_TX_PIN)
 397:Generated_Source\PSoC4/USB_UART_UART.c ****         /* Set GPIO to drive output pin */
 398:Generated_Source\PSoC4/USB_UART_UART.c ****         USB_UART_SET_HSIOM_SEL(USB_UART_TX_HSIOM_REG, USB_UART_TX_HSIOM_MASK,
 227              		.loc 1 398 0
 228 0000 F021     		movs	r1, #240
 229 0002 064A     		ldr	r2, .L8
 399:Generated_Source\PSoC4/USB_UART_UART.c ****                                        USB_UART_TX_HSIOM_POS, USB_UART_TX_HSIOM_SEL_GPIO);
 400:Generated_Source\PSoC4/USB_UART_UART.c ****     #endif /* (USB_UART_UART_TX_PIN) */
 401:Generated_Source\PSoC4/USB_UART_UART.c **** 
 402:Generated_Source\PSoC4/USB_UART_UART.c ****     #if (USB_UART_UART_RTS_PIN)
 403:Generated_Source\PSoC4/USB_UART_UART.c ****         /* Set output pin state after block is disabled */
 404:Generated_Source\PSoC4/USB_UART_UART.c ****         USB_UART_rts_Write(USB_UART_GET_UART_RTS_INACTIVE);
 405:Generated_Source\PSoC4/USB_UART_UART.c **** 
 406:Generated_Source\PSoC4/USB_UART_UART.c ****         /* Set GPIO to drive output pin */
 407:Generated_Source\PSoC4/USB_UART_UART.c ****         USB_UART_SET_HSIOM_SEL(USB_UART_RTS_HSIOM_REG, USB_UART_RTS_HSIOM_MASK,
 408:Generated_Source\PSoC4/USB_UART_UART.c ****                                        USB_UART_RTS_HSIOM_POS, USB_UART_RTS_HSIOM_SEL_GPIO);
 409:Generated_Source\PSoC4/USB_UART_UART.c ****     #endif /* (USB_UART_UART_RTS_PIN) */
 410:Generated_Source\PSoC4/USB_UART_UART.c **** 
 411:Generated_Source\PSoC4/USB_UART_UART.c **** #endif /* (USB_UART_SCB_MODE_UNCONFIG_CONST_CFG) */
 412:Generated_Source\PSoC4/USB_UART_UART.c **** 
 413:Generated_Source\PSoC4/USB_UART_UART.c **** #if (USB_UART_UART_WAKE_ENABLE_CONST)
 414:Generated_Source\PSoC4/USB_UART_UART.c ****     /* Disable skip start feature used for wakeup */
 415:Generated_Source\PSoC4/USB_UART_UART.c ****     USB_UART_UART_RX_CTRL_REG &= (uint32) ~USB_UART_UART_RX_CTRL_SKIP_START;
 416:Generated_Source\PSoC4/USB_UART_UART.c **** #endif /* (USB_UART_UART_WAKE_ENABLE_CONST) */
 417:Generated_Source\PSoC4/USB_UART_UART.c **** 
 418:Generated_Source\PSoC4/USB_UART_UART.c ****     /* Store TX interrupt sources (exclude level triggered). */
 419:Generated_Source\PSoC4/USB_UART_UART.c ****     USB_UART_IntrTxMask = LO16(USB_UART_GetTxInterruptMode() & USB_UART_INTR_UART_TX_RESTORE);
 420:Generated_Source\PSoC4/USB_UART_UART.c **** }
 230              		.loc 1 420 0
ARM GAS  C:\Users\AFDHAL~1\AppData\Local\Temp\ccsq6gt1.s 			page 13


 231              		@ sp needed
 398:Generated_Source\PSoC4/USB_UART_UART.c ****                                        USB_UART_TX_HSIOM_POS, USB_UART_TX_HSIOM_SEL_GPIO);
 232              		.loc 1 398 0
 233 0004 1368     		ldr	r3, [r2]
 234 0006 8B43     		bics	r3, r1
 235 0008 1360     		str	r3, [r2]
 419:Generated_Source\PSoC4/USB_UART_UART.c **** }
 236              		.loc 1 419 0
 237 000a 054B     		ldr	r3, .L8+4
 238 000c 1A68     		ldr	r2, [r3]
 239 000e E423     		movs	r3, #228
 240 0010 DB00     		lsls	r3, r3, #3
 241 0012 1340     		ands	r3, r2
 242 0014 034A     		ldr	r2, .L8+8
 243 0016 1380     		strh	r3, [r2]
 244              		.loc 1 420 0
 245 0018 7047     		bx	lr
 246              	.L9:
 247 001a C046     		.align	2
 248              	.L8:
 249 001c 00070240 		.word	1073874688
 250 0020 880F2740 		.word	1076301704
 251 0024 00000000 		.word	USB_UART_IntrTxMask
 252              		.cfi_endproc
 253              	.LFE3:
 254              		.size	USB_UART_UartStop, .-USB_UART_UartStop
 255              		.section	.text.USB_UART_UartSetRxAddress,"ax",%progbits
 256              		.align	2
 257              		.global	USB_UART_UartSetRxAddress
 258              		.code	16
 259              		.thumb_func
 260              		.type	USB_UART_UartSetRxAddress, %function
 261              	USB_UART_UartSetRxAddress:
 262              	.LFB4:
 421:Generated_Source\PSoC4/USB_UART_UART.c **** 
 422:Generated_Source\PSoC4/USB_UART_UART.c **** 
 423:Generated_Source\PSoC4/USB_UART_UART.c **** /*******************************************************************************
 424:Generated_Source\PSoC4/USB_UART_UART.c **** * Function Name: USB_UART_UartSetRxAddress
 425:Generated_Source\PSoC4/USB_UART_UART.c **** ****************************************************************************//**
 426:Generated_Source\PSoC4/USB_UART_UART.c **** *
 427:Generated_Source\PSoC4/USB_UART_UART.c **** *  Sets the hardware detectable receiver address for the UART in the
 428:Generated_Source\PSoC4/USB_UART_UART.c **** *  Multiprocessor mode.
 429:Generated_Source\PSoC4/USB_UART_UART.c **** *
 430:Generated_Source\PSoC4/USB_UART_UART.c **** *  \param address: Address for hardware address detection.
 431:Generated_Source\PSoC4/USB_UART_UART.c **** *
 432:Generated_Source\PSoC4/USB_UART_UART.c **** *******************************************************************************/
 433:Generated_Source\PSoC4/USB_UART_UART.c **** void USB_UART_UartSetRxAddress(uint32 address)
 434:Generated_Source\PSoC4/USB_UART_UART.c **** {
 263              		.loc 1 434 0
 264              		.cfi_startproc
 265              		@ args = 0, pretend = 0, frame = 0
 266              		@ frame_needed = 0, uses_anonymous_args = 0
 267              		@ link register save eliminated.
 268              	.LVL3:
 435:Generated_Source\PSoC4/USB_UART_UART.c ****      uint32 matchReg;
 436:Generated_Source\PSoC4/USB_UART_UART.c **** 
 437:Generated_Source\PSoC4/USB_UART_UART.c ****     matchReg = USB_UART_RX_MATCH_REG;
ARM GAS  C:\Users\AFDHAL~1\AppData\Local\Temp\ccsq6gt1.s 			page 14


 438:Generated_Source\PSoC4/USB_UART_UART.c **** 
 439:Generated_Source\PSoC4/USB_UART_UART.c ****     matchReg &= ((uint32) ~USB_UART_RX_MATCH_ADDR_MASK); /* Clear address bits */
 269              		.loc 1 439 0
 270 0000 FF21     		movs	r1, #255
 437:Generated_Source\PSoC4/USB_UART_UART.c **** 
 271              		.loc 1 437 0
 272 0002 034A     		ldr	r2, .L11
 440:Generated_Source\PSoC4/USB_UART_UART.c ****     matchReg |= ((uint32)  (address & USB_UART_RX_MATCH_ADDR_MASK)); /* Set address  */
 273              		.loc 1 440 0
 274 0004 0840     		ands	r0, r1
 275              	.LVL4:
 437:Generated_Source\PSoC4/USB_UART_UART.c **** 
 276              		.loc 1 437 0
 277 0006 1368     		ldr	r3, [r2]
 278              	.LVL5:
 441:Generated_Source\PSoC4/USB_UART_UART.c **** 
 442:Generated_Source\PSoC4/USB_UART_UART.c ****     USB_UART_RX_MATCH_REG = matchReg;
 443:Generated_Source\PSoC4/USB_UART_UART.c **** }
 279              		.loc 1 443 0
 280              		@ sp needed
 439:Generated_Source\PSoC4/USB_UART_UART.c ****     matchReg |= ((uint32)  (address & USB_UART_RX_MATCH_ADDR_MASK)); /* Set address  */
 281              		.loc 1 439 0
 282 0008 8B43     		bics	r3, r1
 283              	.LVL6:
 440:Generated_Source\PSoC4/USB_UART_UART.c ****     matchReg |= ((uint32)  (address & USB_UART_RX_MATCH_ADDR_MASK)); /* Set address  */
 284              		.loc 1 440 0
 285 000a 1843     		orrs	r0, r3
 286              	.LVL7:
 442:Generated_Source\PSoC4/USB_UART_UART.c **** }
 287              		.loc 1 442 0
 288 000c 1060     		str	r0, [r2]
 289              		.loc 1 443 0
 290 000e 7047     		bx	lr
 291              	.L12:
 292              		.align	2
 293              	.L11:
 294 0010 10032740 		.word	1076298512
 295              		.cfi_endproc
 296              	.LFE4:
 297              		.size	USB_UART_UartSetRxAddress, .-USB_UART_UartSetRxAddress
 298              		.section	.text.USB_UART_UartSetRxAddressMask,"ax",%progbits
 299              		.align	2
 300              		.global	USB_UART_UartSetRxAddressMask
 301              		.code	16
 302              		.thumb_func
 303              		.type	USB_UART_UartSetRxAddressMask, %function
 304              	USB_UART_UartSetRxAddressMask:
 305              	.LFB5:
 444:Generated_Source\PSoC4/USB_UART_UART.c **** 
 445:Generated_Source\PSoC4/USB_UART_UART.c **** 
 446:Generated_Source\PSoC4/USB_UART_UART.c **** /*******************************************************************************
 447:Generated_Source\PSoC4/USB_UART_UART.c **** * Function Name: USB_UART_UartSetRxAddressMask
 448:Generated_Source\PSoC4/USB_UART_UART.c **** ****************************************************************************//**
 449:Generated_Source\PSoC4/USB_UART_UART.c **** *
 450:Generated_Source\PSoC4/USB_UART_UART.c **** *  Sets the hardware address mask for the UART in the Multiprocessor mode.
 451:Generated_Source\PSoC4/USB_UART_UART.c **** *
 452:Generated_Source\PSoC4/USB_UART_UART.c **** *  \param addressMask: Address mask.
ARM GAS  C:\Users\AFDHAL~1\AppData\Local\Temp\ccsq6gt1.s 			page 15


 453:Generated_Source\PSoC4/USB_UART_UART.c **** *   - Bit value 0 – excludes bit from address comparison.
 454:Generated_Source\PSoC4/USB_UART_UART.c **** *   - Bit value 1 – the bit needs to match with the corresponding bit
 455:Generated_Source\PSoC4/USB_UART_UART.c **** *     of the address.
 456:Generated_Source\PSoC4/USB_UART_UART.c **** *
 457:Generated_Source\PSoC4/USB_UART_UART.c **** *******************************************************************************/
 458:Generated_Source\PSoC4/USB_UART_UART.c **** void USB_UART_UartSetRxAddressMask(uint32 addressMask)
 459:Generated_Source\PSoC4/USB_UART_UART.c **** {
 306              		.loc 1 459 0
 307              		.cfi_startproc
 308              		@ args = 0, pretend = 0, frame = 0
 309              		@ frame_needed = 0, uses_anonymous_args = 0
 310              		@ link register save eliminated.
 311              	.LVL8:
 460:Generated_Source\PSoC4/USB_UART_UART.c ****     uint32 matchReg;
 461:Generated_Source\PSoC4/USB_UART_UART.c **** 
 462:Generated_Source\PSoC4/USB_UART_UART.c ****     matchReg = USB_UART_RX_MATCH_REG;
 312              		.loc 1 462 0
 313 0000 034A     		ldr	r2, .L14
 463:Generated_Source\PSoC4/USB_UART_UART.c **** 
 464:Generated_Source\PSoC4/USB_UART_UART.c ****     matchReg &= ((uint32) ~USB_UART_RX_MATCH_MASK_MASK); /* Clear address mask bits */
 314              		.loc 1 464 0
 315 0002 044B     		ldr	r3, .L14+4
 462:Generated_Source\PSoC4/USB_UART_UART.c **** 
 316              		.loc 1 462 0
 317 0004 1168     		ldr	r1, [r2]
 318              	.LVL9:
 465:Generated_Source\PSoC4/USB_UART_UART.c ****     matchReg |= ((uint32) (addressMask << USB_UART_RX_MATCH_MASK_POS));
 319              		.loc 1 465 0
 320 0006 0004     		lsls	r0, r0, #16
 321              	.LVL10:
 464:Generated_Source\PSoC4/USB_UART_UART.c ****     matchReg |= ((uint32) (addressMask << USB_UART_RX_MATCH_MASK_POS));
 322              		.loc 1 464 0
 323 0008 0B40     		ands	r3, r1
 324              	.LVL11:
 325              		.loc 1 465 0
 326 000a 1843     		orrs	r0, r3
 327              	.LVL12:
 466:Generated_Source\PSoC4/USB_UART_UART.c **** 
 467:Generated_Source\PSoC4/USB_UART_UART.c ****     USB_UART_RX_MATCH_REG = matchReg;
 328              		.loc 1 467 0
 329 000c 1060     		str	r0, [r2]
 468:Generated_Source\PSoC4/USB_UART_UART.c **** }
 330              		.loc 1 468 0
 331              		@ sp needed
 332 000e 7047     		bx	lr
 333              	.L15:
 334              		.align	2
 335              	.L14:
 336 0010 10032740 		.word	1076298512
 337 0014 FFFF00FF 		.word	-16711681
 338              		.cfi_endproc
 339              	.LFE5:
 340              		.size	USB_UART_UartSetRxAddressMask, .-USB_UART_UartSetRxAddressMask
 341              		.section	.text.USB_UART_UartGetChar,"ax",%progbits
 342              		.align	2
 343              		.global	USB_UART_UartGetChar
 344              		.code	16
ARM GAS  C:\Users\AFDHAL~1\AppData\Local\Temp\ccsq6gt1.s 			page 16


 345              		.thumb_func
 346              		.type	USB_UART_UartGetChar, %function
 347              	USB_UART_UartGetChar:
 348              	.LFB6:
 469:Generated_Source\PSoC4/USB_UART_UART.c **** 
 470:Generated_Source\PSoC4/USB_UART_UART.c **** 
 471:Generated_Source\PSoC4/USB_UART_UART.c **** #if(USB_UART_UART_RX_DIRECTION)
 472:Generated_Source\PSoC4/USB_UART_UART.c ****     /*******************************************************************************
 473:Generated_Source\PSoC4/USB_UART_UART.c ****     * Function Name: USB_UART_UartGetChar
 474:Generated_Source\PSoC4/USB_UART_UART.c ****     ****************************************************************************//**
 475:Generated_Source\PSoC4/USB_UART_UART.c ****     *
 476:Generated_Source\PSoC4/USB_UART_UART.c ****     *  Retrieves next data element from receive buffer.
 477:Generated_Source\PSoC4/USB_UART_UART.c ****     *  This function is designed for ASCII characters and returns a char where
 478:Generated_Source\PSoC4/USB_UART_UART.c ****     *  1 to 255 are valid characters and 0 indicates an error occurred or no data
 479:Generated_Source\PSoC4/USB_UART_UART.c ****     *  is present.
 480:Generated_Source\PSoC4/USB_UART_UART.c ****     *  - RX software buffer is disabled: Returns data element retrieved from RX
 481:Generated_Source\PSoC4/USB_UART_UART.c ****     *    FIFO.
 482:Generated_Source\PSoC4/USB_UART_UART.c ****     *  - RX software buffer is enabled: Returns data element from the software
 483:Generated_Source\PSoC4/USB_UART_UART.c ****     *    receive buffer.
 484:Generated_Source\PSoC4/USB_UART_UART.c ****     *
 485:Generated_Source\PSoC4/USB_UART_UART.c ****     *  \return
 486:Generated_Source\PSoC4/USB_UART_UART.c ****     *   Next data element from the receive buffer. ASCII character values from
 487:Generated_Source\PSoC4/USB_UART_UART.c ****     *   1 to 255 are valid. A returned zero signifies an error condition or no
 488:Generated_Source\PSoC4/USB_UART_UART.c ****     *   data available.
 489:Generated_Source\PSoC4/USB_UART_UART.c ****     *
 490:Generated_Source\PSoC4/USB_UART_UART.c ****     *  \sideeffect
 491:Generated_Source\PSoC4/USB_UART_UART.c ****     *   The errors bits may not correspond with reading characters due to
 492:Generated_Source\PSoC4/USB_UART_UART.c ****     *   RX FIFO and software buffer usage.
 493:Generated_Source\PSoC4/USB_UART_UART.c ****     *   RX software buffer is enabled: The internal software buffer overflow
 494:Generated_Source\PSoC4/USB_UART_UART.c ****     *   is not treated as an error condition.
 495:Generated_Source\PSoC4/USB_UART_UART.c ****     *   Check USB_UART_rxBufferOverflow to capture that error condition.
 496:Generated_Source\PSoC4/USB_UART_UART.c ****     *
 497:Generated_Source\PSoC4/USB_UART_UART.c ****     *******************************************************************************/
 498:Generated_Source\PSoC4/USB_UART_UART.c ****     uint32 USB_UART_UartGetChar(void)
 499:Generated_Source\PSoC4/USB_UART_UART.c ****     {
 349              		.loc 1 499 0
 350              		.cfi_startproc
 351              		@ args = 0, pretend = 0, frame = 0
 352              		@ frame_needed = 0, uses_anonymous_args = 0
 353              	.LVL13:
 354 0000 10B5     		push	{r4, lr}
 355              		.cfi_def_cfa_offset 8
 356              		.cfi_offset 4, -8
 357              		.cfi_offset 14, -4
 500:Generated_Source\PSoC4/USB_UART_UART.c ****         uint32 rxData = 0u;
 501:Generated_Source\PSoC4/USB_UART_UART.c **** 
 502:Generated_Source\PSoC4/USB_UART_UART.c ****         /* Reads data only if there is data to read */
 503:Generated_Source\PSoC4/USB_UART_UART.c ****         if (0u != USB_UART_SpiUartGetRxBufferSize())
 358              		.loc 1 503 0
 359 0002 FFF7FEFF 		bl	USB_UART_SpiUartGetRxBufferSize
 360              	.LVL14:
 361 0006 0300     		movs	r3, r0
 500:Generated_Source\PSoC4/USB_UART_UART.c ****         uint32 rxData = 0u;
 362              		.loc 1 500 0
 363 0008 0020     		movs	r0, #0
 364              		.loc 1 503 0
 365 000a 002B     		cmp	r3, #0
ARM GAS  C:\Users\AFDHAL~1\AppData\Local\Temp\ccsq6gt1.s 			page 17


 366 000c 08D1     		bne	.L25
 367              	.LVL15:
 368              	.L17:
 504:Generated_Source\PSoC4/USB_UART_UART.c ****         {
 505:Generated_Source\PSoC4/USB_UART_UART.c ****             rxData = USB_UART_SpiUartReadRxData();
 506:Generated_Source\PSoC4/USB_UART_UART.c ****         }
 507:Generated_Source\PSoC4/USB_UART_UART.c **** 
 508:Generated_Source\PSoC4/USB_UART_UART.c ****         if (USB_UART_CHECK_INTR_RX(USB_UART_INTR_RX_ERR))
 369              		.loc 1 508 0
 370 000e D822     		movs	r2, #216
 371 0010 054B     		ldr	r3, .L26
 372 0012 9200     		lsls	r2, r2, #2
 373 0014 1968     		ldr	r1, [r3]
 374 0016 1142     		tst	r1, r2
 375 0018 01D0     		beq	.L18
 376              	.LVL16:
 509:Generated_Source\PSoC4/USB_UART_UART.c ****         {
 510:Generated_Source\PSoC4/USB_UART_UART.c ****             rxData = 0u; /* Error occurred: returns zero */
 377              		.loc 1 510 0
 378 001a 0020     		movs	r0, #0
 511:Generated_Source\PSoC4/USB_UART_UART.c ****             USB_UART_ClearRxInterruptSource(USB_UART_INTR_RX_ERR);
 379              		.loc 1 511 0
 380 001c 1A60     		str	r2, [r3]
 381              	.LVL17:
 382              	.L18:
 512:Generated_Source\PSoC4/USB_UART_UART.c ****         }
 513:Generated_Source\PSoC4/USB_UART_UART.c **** 
 514:Generated_Source\PSoC4/USB_UART_UART.c ****         return (rxData);
 515:Generated_Source\PSoC4/USB_UART_UART.c ****     }
 383              		.loc 1 515 0
 384              		@ sp needed
 385 001e 10BD     		pop	{r4, pc}
 386              	.LVL18:
 387              	.L25:
 505:Generated_Source\PSoC4/USB_UART_UART.c ****         }
 388              		.loc 1 505 0
 389 0020 FFF7FEFF 		bl	USB_UART_SpiUartReadRxData
 390              	.LVL19:
 391 0024 F3E7     		b	.L17
 392              	.L27:
 393 0026 C046     		.align	2
 394              	.L26:
 395 0028 C00F2740 		.word	1076301760
 396              		.cfi_endproc
 397              	.LFE6:
 398              		.size	USB_UART_UartGetChar, .-USB_UART_UartGetChar
 399              		.section	.text.USB_UART_UartGetByte,"ax",%progbits
 400              		.align	2
 401              		.global	USB_UART_UartGetByte
 402              		.code	16
 403              		.thumb_func
 404              		.type	USB_UART_UartGetByte, %function
 405              	USB_UART_UartGetByte:
 406              	.LFB7:
 516:Generated_Source\PSoC4/USB_UART_UART.c **** 
 517:Generated_Source\PSoC4/USB_UART_UART.c **** 
 518:Generated_Source\PSoC4/USB_UART_UART.c ****     /*******************************************************************************
ARM GAS  C:\Users\AFDHAL~1\AppData\Local\Temp\ccsq6gt1.s 			page 18


 519:Generated_Source\PSoC4/USB_UART_UART.c ****     * Function Name: USB_UART_UartGetByte
 520:Generated_Source\PSoC4/USB_UART_UART.c ****     ****************************************************************************//**
 521:Generated_Source\PSoC4/USB_UART_UART.c ****     *
 522:Generated_Source\PSoC4/USB_UART_UART.c ****     *  Retrieves the next data element from the receive buffer, returns the
 523:Generated_Source\PSoC4/USB_UART_UART.c ****     *  received byte and error condition.
 524:Generated_Source\PSoC4/USB_UART_UART.c ****     *   - The RX software buffer is disabled: returns the data element retrieved
 525:Generated_Source\PSoC4/USB_UART_UART.c ****     *     from the RX FIFO. Undefined data will be returned if the RX FIFO is
 526:Generated_Source\PSoC4/USB_UART_UART.c ****     *     empty.
 527:Generated_Source\PSoC4/USB_UART_UART.c ****     *   - The RX software buffer is enabled: returns data element from the
 528:Generated_Source\PSoC4/USB_UART_UART.c ****     *     software receive buffer.
 529:Generated_Source\PSoC4/USB_UART_UART.c ****     *
 530:Generated_Source\PSoC4/USB_UART_UART.c ****     *  \return
 531:Generated_Source\PSoC4/USB_UART_UART.c ****     *   Bits 7-0 contain the next data element from the receive buffer and
 532:Generated_Source\PSoC4/USB_UART_UART.c ****     *   other bits contain the error condition.
 533:Generated_Source\PSoC4/USB_UART_UART.c ****     *   - USB_UART_UART_RX_OVERFLOW - Attempt to write to a full
 534:Generated_Source\PSoC4/USB_UART_UART.c ****     *     receiver FIFO.
 535:Generated_Source\PSoC4/USB_UART_UART.c ****     *   - USB_UART_UART_RX_UNDERFLOW    Attempt to read from an empty
 536:Generated_Source\PSoC4/USB_UART_UART.c ****     *     receiver FIFO.
 537:Generated_Source\PSoC4/USB_UART_UART.c ****     *   - USB_UART_UART_RX_FRAME_ERROR - UART framing error detected.
 538:Generated_Source\PSoC4/USB_UART_UART.c ****     *   - USB_UART_UART_RX_PARITY_ERROR - UART parity error detected.
 539:Generated_Source\PSoC4/USB_UART_UART.c ****     *
 540:Generated_Source\PSoC4/USB_UART_UART.c ****     *  \sideeffect
 541:Generated_Source\PSoC4/USB_UART_UART.c ****     *   The errors bits may not correspond with reading characters due to
 542:Generated_Source\PSoC4/USB_UART_UART.c ****     *   RX FIFO and software buffer usage.
 543:Generated_Source\PSoC4/USB_UART_UART.c ****     *   RX software buffer is enabled: The internal software buffer overflow
 544:Generated_Source\PSoC4/USB_UART_UART.c ****     *   is not treated as an error condition.
 545:Generated_Source\PSoC4/USB_UART_UART.c ****     *   Check USB_UART_rxBufferOverflow to capture that error condition.
 546:Generated_Source\PSoC4/USB_UART_UART.c ****     *
 547:Generated_Source\PSoC4/USB_UART_UART.c ****     *******************************************************************************/
 548:Generated_Source\PSoC4/USB_UART_UART.c ****     uint32 USB_UART_UartGetByte(void)
 549:Generated_Source\PSoC4/USB_UART_UART.c ****     {
 407              		.loc 1 549 0
 408              		.cfi_startproc
 409              		@ args = 0, pretend = 0, frame = 0
 410              		@ frame_needed = 0, uses_anonymous_args = 0
 411 0000 10B5     		push	{r4, lr}
 412              		.cfi_def_cfa_offset 8
 413              		.cfi_offset 4, -8
 414              		.cfi_offset 14, -4
 550:Generated_Source\PSoC4/USB_UART_UART.c ****         uint32 rxData;
 551:Generated_Source\PSoC4/USB_UART_UART.c ****         uint32 tmpStatus;
 552:Generated_Source\PSoC4/USB_UART_UART.c **** 
 553:Generated_Source\PSoC4/USB_UART_UART.c ****         #if (USB_UART_CHECK_RX_SW_BUFFER)
 554:Generated_Source\PSoC4/USB_UART_UART.c ****         {
 555:Generated_Source\PSoC4/USB_UART_UART.c ****             USB_UART_DisableInt();
 415              		.loc 1 555 0
 416 0002 0B20     		movs	r0, #11
 417 0004 FFF7FEFF 		bl	CyIntDisable
 418              	.LVL20:
 556:Generated_Source\PSoC4/USB_UART_UART.c ****         }
 557:Generated_Source\PSoC4/USB_UART_UART.c ****         #endif
 558:Generated_Source\PSoC4/USB_UART_UART.c **** 
 559:Generated_Source\PSoC4/USB_UART_UART.c ****         if (0u != USB_UART_SpiUartGetRxBufferSize())
 419              		.loc 1 559 0
 420 0008 FFF7FEFF 		bl	USB_UART_SpiUartGetRxBufferSize
 421              	.LVL21:
 422 000c 0028     		cmp	r0, #0
ARM GAS  C:\Users\AFDHAL~1\AppData\Local\Temp\ccsq6gt1.s 			page 19


 423 000e 12D1     		bne	.L31
 560:Generated_Source\PSoC4/USB_UART_UART.c ****         {
 561:Generated_Source\PSoC4/USB_UART_UART.c ****             /* Enables interrupt to receive more bytes: at least one byte is in
 562:Generated_Source\PSoC4/USB_UART_UART.c ****             * buffer.
 563:Generated_Source\PSoC4/USB_UART_UART.c ****             */
 564:Generated_Source\PSoC4/USB_UART_UART.c ****             #if (USB_UART_CHECK_RX_SW_BUFFER)
 565:Generated_Source\PSoC4/USB_UART_UART.c ****             {
 566:Generated_Source\PSoC4/USB_UART_UART.c ****                 USB_UART_EnableInt();
 567:Generated_Source\PSoC4/USB_UART_UART.c ****             }
 568:Generated_Source\PSoC4/USB_UART_UART.c ****             #endif
 569:Generated_Source\PSoC4/USB_UART_UART.c **** 
 570:Generated_Source\PSoC4/USB_UART_UART.c ****             /* Get received byte */
 571:Generated_Source\PSoC4/USB_UART_UART.c ****             rxData = USB_UART_SpiUartReadRxData();
 572:Generated_Source\PSoC4/USB_UART_UART.c ****         }
 573:Generated_Source\PSoC4/USB_UART_UART.c ****         else
 574:Generated_Source\PSoC4/USB_UART_UART.c ****         {
 575:Generated_Source\PSoC4/USB_UART_UART.c ****             /* Reads a byte directly from RX FIFO: underflow is raised in the
 576:Generated_Source\PSoC4/USB_UART_UART.c ****             * case of empty. Otherwise the first received byte will be read.
 577:Generated_Source\PSoC4/USB_UART_UART.c ****             */
 578:Generated_Source\PSoC4/USB_UART_UART.c ****             rxData = USB_UART_RX_FIFO_RD_REG;
 579:Generated_Source\PSoC4/USB_UART_UART.c **** 
 580:Generated_Source\PSoC4/USB_UART_UART.c **** 
 581:Generated_Source\PSoC4/USB_UART_UART.c ****             /* Enables interrupt to receive more bytes. */
 582:Generated_Source\PSoC4/USB_UART_UART.c ****             #if (USB_UART_CHECK_RX_SW_BUFFER)
 583:Generated_Source\PSoC4/USB_UART_UART.c ****             {
 584:Generated_Source\PSoC4/USB_UART_UART.c **** 
 585:Generated_Source\PSoC4/USB_UART_UART.c ****                 /* The byte has been read from RX FIFO. Clear RX interrupt to
 586:Generated_Source\PSoC4/USB_UART_UART.c ****                 * not involve interrupt handler when RX FIFO is empty.
 587:Generated_Source\PSoC4/USB_UART_UART.c ****                 */
 588:Generated_Source\PSoC4/USB_UART_UART.c ****                 USB_UART_ClearRxInterruptSource(USB_UART_INTR_RX_NOT_EMPTY);
 424              		.loc 1 588 0
 425 0010 0422     		movs	r2, #4
 578:Generated_Source\PSoC4/USB_UART_UART.c **** 
 426              		.loc 1 578 0
 427 0012 0C4B     		ldr	r3, .L32
 589:Generated_Source\PSoC4/USB_UART_UART.c **** 
 590:Generated_Source\PSoC4/USB_UART_UART.c ****                 USB_UART_EnableInt();
 428              		.loc 1 590 0
 429 0014 0B20     		movs	r0, #11
 578:Generated_Source\PSoC4/USB_UART_UART.c **** 
 430              		.loc 1 578 0
 431 0016 1C68     		ldr	r4, [r3]
 432              	.LVL22:
 588:Generated_Source\PSoC4/USB_UART_UART.c **** 
 433              		.loc 1 588 0
 434 0018 0B4B     		ldr	r3, .L32+4
 435 001a 1A60     		str	r2, [r3]
 436              		.loc 1 590 0
 437 001c FFF7FEFF 		bl	CyIntEnable
 438              	.LVL23:
 439              	.L30:
 591:Generated_Source\PSoC4/USB_UART_UART.c ****             }
 592:Generated_Source\PSoC4/USB_UART_UART.c ****             #endif
 593:Generated_Source\PSoC4/USB_UART_UART.c ****         }
 594:Generated_Source\PSoC4/USB_UART_UART.c **** 
 595:Generated_Source\PSoC4/USB_UART_UART.c ****         /* Get and clear RX error mask */
 596:Generated_Source\PSoC4/USB_UART_UART.c ****         tmpStatus = (USB_UART_GetRxInterruptSource() & USB_UART_INTR_RX_ERR);
ARM GAS  C:\Users\AFDHAL~1\AppData\Local\Temp\ccsq6gt1.s 			page 20


 597:Generated_Source\PSoC4/USB_UART_UART.c ****         USB_UART_ClearRxInterruptSource(USB_UART_INTR_RX_ERR);
 440              		.loc 1 597 0
 441 0020 D822     		movs	r2, #216
 596:Generated_Source\PSoC4/USB_UART_UART.c ****         USB_UART_ClearRxInterruptSource(USB_UART_INTR_RX_ERR);
 442              		.loc 1 596 0
 443 0022 094B     		ldr	r3, .L32+4
 444              		.loc 1 597 0
 445 0024 9200     		lsls	r2, r2, #2
 596:Generated_Source\PSoC4/USB_UART_UART.c ****         USB_UART_ClearRxInterruptSource(USB_UART_INTR_RX_ERR);
 446              		.loc 1 596 0
 447 0026 1868     		ldr	r0, [r3]
 448              	.LVL24:
 449              		.loc 1 597 0
 450 0028 1A60     		str	r2, [r3]
 451              	.LVL25:
 598:Generated_Source\PSoC4/USB_UART_UART.c **** 
 599:Generated_Source\PSoC4/USB_UART_UART.c ****         /* Puts together data and error status:
 600:Generated_Source\PSoC4/USB_UART_UART.c ****         * MP mode and accept address: 9th bit is set to notify mark.
 601:Generated_Source\PSoC4/USB_UART_UART.c ****         */
 602:Generated_Source\PSoC4/USB_UART_UART.c ****         rxData |= ((uint32) (tmpStatus << 8u));
 603:Generated_Source\PSoC4/USB_UART_UART.c **** 
 604:Generated_Source\PSoC4/USB_UART_UART.c ****         return (rxData);
 452              		.loc 1 604 0
 453 002a D823     		movs	r3, #216
 454 002c 0002     		lsls	r0, r0, #8
 455              	.LVL26:
 456 002e 9B02     		lsls	r3, r3, #10
 457 0030 1840     		ands	r0, r3
 458 0032 2043     		orrs	r0, r4
 605:Generated_Source\PSoC4/USB_UART_UART.c ****     }
 459              		.loc 1 605 0
 460              		@ sp needed
 461 0034 10BD     		pop	{r4, pc}
 462              	.L31:
 566:Generated_Source\PSoC4/USB_UART_UART.c ****             }
 463              		.loc 1 566 0
 464 0036 0B20     		movs	r0, #11
 465 0038 FFF7FEFF 		bl	CyIntEnable
 466              	.LVL27:
 571:Generated_Source\PSoC4/USB_UART_UART.c ****         }
 467              		.loc 1 571 0
 468 003c FFF7FEFF 		bl	USB_UART_SpiUartReadRxData
 469              	.LVL28:
 470 0040 0400     		movs	r4, r0
 471              	.LVL29:
 472 0042 EDE7     		b	.L30
 473              	.L33:
 474              		.align	2
 475              	.L32:
 476 0044 40032740 		.word	1076298560
 477 0048 C00F2740 		.word	1076301760
 478              		.cfi_endproc
 479              	.LFE7:
 480              		.size	USB_UART_UartGetByte, .-USB_UART_UartGetByte
 481              		.section	.text.USB_UART_UartSetRtsPolarity,"ax",%progbits
 482              		.align	2
 483              		.global	USB_UART_UartSetRtsPolarity
ARM GAS  C:\Users\AFDHAL~1\AppData\Local\Temp\ccsq6gt1.s 			page 21


 484              		.code	16
 485              		.thumb_func
 486              		.type	USB_UART_UartSetRtsPolarity, %function
 487              	USB_UART_UartSetRtsPolarity:
 488              	.LFB8:
 606:Generated_Source\PSoC4/USB_UART_UART.c **** 
 607:Generated_Source\PSoC4/USB_UART_UART.c **** 
 608:Generated_Source\PSoC4/USB_UART_UART.c ****     #if !(USB_UART_CY_SCBIP_V0 || USB_UART_CY_SCBIP_V1)
 609:Generated_Source\PSoC4/USB_UART_UART.c ****         /*******************************************************************************
 610:Generated_Source\PSoC4/USB_UART_UART.c ****         * Function Name: USB_UART_UartSetRtsPolarity
 611:Generated_Source\PSoC4/USB_UART_UART.c ****         ****************************************************************************//**
 612:Generated_Source\PSoC4/USB_UART_UART.c ****         *
 613:Generated_Source\PSoC4/USB_UART_UART.c ****         *  Sets active polarity of RTS output signal.
 614:Generated_Source\PSoC4/USB_UART_UART.c ****         *  Only available for PSoC 4100 BLE / PSoC 4200 BLE / PSoC 4100M / PSoC 4200M /
 615:Generated_Source\PSoC4/USB_UART_UART.c ****         *  PSoC 4200L / PSoC 4000S / PSoC 4100S / PSoC Analog Coprocessor devices.
 616:Generated_Source\PSoC4/USB_UART_UART.c ****         *
 617:Generated_Source\PSoC4/USB_UART_UART.c ****         *  \param polarity: Active polarity of RTS output signal.
 618:Generated_Source\PSoC4/USB_UART_UART.c ****         *   - USB_UART_UART_RTS_ACTIVE_LOW  - RTS signal is active low.
 619:Generated_Source\PSoC4/USB_UART_UART.c ****         *   - USB_UART_UART_RTS_ACTIVE_HIGH - RTS signal is active high.
 620:Generated_Source\PSoC4/USB_UART_UART.c ****         *
 621:Generated_Source\PSoC4/USB_UART_UART.c ****         *******************************************************************************/
 622:Generated_Source\PSoC4/USB_UART_UART.c ****         void USB_UART_UartSetRtsPolarity(uint32 polarity)
 623:Generated_Source\PSoC4/USB_UART_UART.c ****         {
 489              		.loc 1 623 0
 490              		.cfi_startproc
 491              		@ args = 0, pretend = 0, frame = 0
 492              		@ frame_needed = 0, uses_anonymous_args = 0
 493              		@ link register save eliminated.
 494              	.LVL30:
 624:Generated_Source\PSoC4/USB_UART_UART.c ****             if(0u != polarity)
 625:Generated_Source\PSoC4/USB_UART_UART.c ****             {
 626:Generated_Source\PSoC4/USB_UART_UART.c ****                 USB_UART_UART_FLOW_CTRL_REG |= (uint32)  USB_UART_UART_FLOW_CTRL_RTS_POLARITY;
 495              		.loc 1 626 0
 496 0000 064A     		ldr	r2, .L38
 624:Generated_Source\PSoC4/USB_UART_UART.c ****             if(0u != polarity)
 497              		.loc 1 624 0
 498 0002 0028     		cmp	r0, #0
 499 0004 04D1     		bne	.L37
 627:Generated_Source\PSoC4/USB_UART_UART.c ****             }
 628:Generated_Source\PSoC4/USB_UART_UART.c ****             else
 629:Generated_Source\PSoC4/USB_UART_UART.c ****             {
 630:Generated_Source\PSoC4/USB_UART_UART.c ****                 USB_UART_UART_FLOW_CTRL_REG &= (uint32) ~USB_UART_UART_FLOW_CTRL_RTS_POLARITY;
 500              		.loc 1 630 0
 501 0006 1168     		ldr	r1, [r2]
 502 0008 054B     		ldr	r3, .L38+4
 503 000a 0B40     		ands	r3, r1
 504 000c 1360     		str	r3, [r2]
 505              	.L34:
 631:Generated_Source\PSoC4/USB_UART_UART.c ****             }
 632:Generated_Source\PSoC4/USB_UART_UART.c ****         }
 506              		.loc 1 632 0
 507              		@ sp needed
 508 000e 7047     		bx	lr
 509              	.L37:
 626:Generated_Source\PSoC4/USB_UART_UART.c ****             }
 510              		.loc 1 626 0
 511 0010 8021     		movs	r1, #128
ARM GAS  C:\Users\AFDHAL~1\AppData\Local\Temp\ccsq6gt1.s 			page 22


 512 0012 1368     		ldr	r3, [r2]
 513 0014 4902     		lsls	r1, r1, #9
 514 0016 0B43     		orrs	r3, r1
 515 0018 1360     		str	r3, [r2]
 516 001a F8E7     		b	.L34
 517              	.L39:
 518              		.align	2
 519              	.L38:
 520 001c 50002740 		.word	1076297808
 521 0020 FFFFFEFF 		.word	-65537
 522              		.cfi_endproc
 523              	.LFE8:
 524              		.size	USB_UART_UartSetRtsPolarity, .-USB_UART_UartSetRtsPolarity
 525              		.section	.text.USB_UART_UartSetRtsFifoLevel,"ax",%progbits
 526              		.align	2
 527              		.global	USB_UART_UartSetRtsFifoLevel
 528              		.code	16
 529              		.thumb_func
 530              		.type	USB_UART_UartSetRtsFifoLevel, %function
 531              	USB_UART_UartSetRtsFifoLevel:
 532              	.LFB9:
 633:Generated_Source\PSoC4/USB_UART_UART.c **** 
 634:Generated_Source\PSoC4/USB_UART_UART.c **** 
 635:Generated_Source\PSoC4/USB_UART_UART.c ****         /*******************************************************************************
 636:Generated_Source\PSoC4/USB_UART_UART.c ****         * Function Name: USB_UART_UartSetRtsFifoLevel
 637:Generated_Source\PSoC4/USB_UART_UART.c ****         ****************************************************************************//**
 638:Generated_Source\PSoC4/USB_UART_UART.c ****         *
 639:Generated_Source\PSoC4/USB_UART_UART.c ****         *  Sets level in the RX FIFO for RTS signal activation.
 640:Generated_Source\PSoC4/USB_UART_UART.c ****         *  While the RX FIFO has fewer entries than the RX FIFO level the RTS signal
 641:Generated_Source\PSoC4/USB_UART_UART.c ****         *  remains active, otherwise the RTS signal becomes inactive.
 642:Generated_Source\PSoC4/USB_UART_UART.c ****         *  Only available for PSoC 4100 BLE / PSoC 4200 BLE / PSoC 4100M / PSoC 4200M /
 643:Generated_Source\PSoC4/USB_UART_UART.c ****         *  PSoC 4200L / PSoC 4000S / PSoC 4100S / PSoC Analog Coprocessor devices.
 644:Generated_Source\PSoC4/USB_UART_UART.c ****         *
 645:Generated_Source\PSoC4/USB_UART_UART.c ****         *  \param level: Level in the RX FIFO for RTS signal activation.
 646:Generated_Source\PSoC4/USB_UART_UART.c ****         *   The range of valid level values is between 0 and RX FIFO depth - 1.
 647:Generated_Source\PSoC4/USB_UART_UART.c ****         *   Setting level value to 0 disables RTS signal activation.
 648:Generated_Source\PSoC4/USB_UART_UART.c ****         *
 649:Generated_Source\PSoC4/USB_UART_UART.c ****         *******************************************************************************/
 650:Generated_Source\PSoC4/USB_UART_UART.c ****         void USB_UART_UartSetRtsFifoLevel(uint32 level)
 651:Generated_Source\PSoC4/USB_UART_UART.c ****         {
 533              		.loc 1 651 0
 534              		.cfi_startproc
 535              		@ args = 0, pretend = 0, frame = 0
 536              		@ frame_needed = 0, uses_anonymous_args = 0
 537              		@ link register save eliminated.
 538              	.LVL31:
 652:Generated_Source\PSoC4/USB_UART_UART.c ****             uint32 uartFlowCtrl;
 653:Generated_Source\PSoC4/USB_UART_UART.c **** 
 654:Generated_Source\PSoC4/USB_UART_UART.c ****             uartFlowCtrl = USB_UART_UART_FLOW_CTRL_REG;
 655:Generated_Source\PSoC4/USB_UART_UART.c **** 
 656:Generated_Source\PSoC4/USB_UART_UART.c ****             uartFlowCtrl &= ((uint32) ~USB_UART_UART_FLOW_CTRL_TRIGGER_LEVEL_MASK); /* Clear level 
 539              		.loc 1 656 0
 540 0000 0F21     		movs	r1, #15
 654:Generated_Source\PSoC4/USB_UART_UART.c **** 
 541              		.loc 1 654 0
 542 0002 034A     		ldr	r2, .L41
 657:Generated_Source\PSoC4/USB_UART_UART.c ****             uartFlowCtrl |= ((uint32) (USB_UART_UART_FLOW_CTRL_TRIGGER_LEVEL_MASK & level));
ARM GAS  C:\Users\AFDHAL~1\AppData\Local\Temp\ccsq6gt1.s 			page 23


 543              		.loc 1 657 0
 544 0004 0840     		ands	r0, r1
 545              	.LVL32:
 654:Generated_Source\PSoC4/USB_UART_UART.c **** 
 546              		.loc 1 654 0
 547 0006 1368     		ldr	r3, [r2]
 548              	.LVL33:
 658:Generated_Source\PSoC4/USB_UART_UART.c **** 
 659:Generated_Source\PSoC4/USB_UART_UART.c ****             USB_UART_UART_FLOW_CTRL_REG = uartFlowCtrl;
 660:Generated_Source\PSoC4/USB_UART_UART.c ****         }
 549              		.loc 1 660 0
 550              		@ sp needed
 656:Generated_Source\PSoC4/USB_UART_UART.c ****             uartFlowCtrl |= ((uint32) (USB_UART_UART_FLOW_CTRL_TRIGGER_LEVEL_MASK & level));
 551              		.loc 1 656 0
 552 0008 8B43     		bics	r3, r1
 553              	.LVL34:
 657:Generated_Source\PSoC4/USB_UART_UART.c ****             uartFlowCtrl |= ((uint32) (USB_UART_UART_FLOW_CTRL_TRIGGER_LEVEL_MASK & level));
 554              		.loc 1 657 0
 555 000a 1843     		orrs	r0, r3
 556              	.LVL35:
 659:Generated_Source\PSoC4/USB_UART_UART.c ****         }
 557              		.loc 1 659 0
 558 000c 1060     		str	r0, [r2]
 559              		.loc 1 660 0
 560 000e 7047     		bx	lr
 561              	.L42:
 562              		.align	2
 563              	.L41:
 564 0010 50002740 		.word	1076297808
 565              		.cfi_endproc
 566              	.LFE9:
 567              		.size	USB_UART_UartSetRtsFifoLevel, .-USB_UART_UartSetRtsFifoLevel
 568              		.section	.text.USB_UART_UartPutString,"ax",%progbits
 569              		.align	2
 570              		.global	USB_UART_UartPutString
 571              		.code	16
 572              		.thumb_func
 573              		.type	USB_UART_UartPutString, %function
 574              	USB_UART_UartPutString:
 575              	.LFB10:
 661:Generated_Source\PSoC4/USB_UART_UART.c ****     #endif /* !(USB_UART_CY_SCBIP_V0 || USB_UART_CY_SCBIP_V1) */
 662:Generated_Source\PSoC4/USB_UART_UART.c **** 
 663:Generated_Source\PSoC4/USB_UART_UART.c **** #endif /* (USB_UART_UART_RX_DIRECTION) */
 664:Generated_Source\PSoC4/USB_UART_UART.c **** 
 665:Generated_Source\PSoC4/USB_UART_UART.c **** 
 666:Generated_Source\PSoC4/USB_UART_UART.c **** #if(USB_UART_UART_TX_DIRECTION)
 667:Generated_Source\PSoC4/USB_UART_UART.c ****     /*******************************************************************************
 668:Generated_Source\PSoC4/USB_UART_UART.c ****     * Function Name: USB_UART_UartPutString
 669:Generated_Source\PSoC4/USB_UART_UART.c ****     ****************************************************************************//**
 670:Generated_Source\PSoC4/USB_UART_UART.c ****     *
 671:Generated_Source\PSoC4/USB_UART_UART.c ****     *  Places a NULL terminated string in the transmit buffer to be sent at the
 672:Generated_Source\PSoC4/USB_UART_UART.c ****     *  next available bus time.
 673:Generated_Source\PSoC4/USB_UART_UART.c ****     *  This function is blocking and waits until there is a space available to put
 674:Generated_Source\PSoC4/USB_UART_UART.c ****     *  requested data in transmit buffer.
 675:Generated_Source\PSoC4/USB_UART_UART.c ****     *
 676:Generated_Source\PSoC4/USB_UART_UART.c ****     *  \param string: pointer to the null terminated string array to be placed in the
 677:Generated_Source\PSoC4/USB_UART_UART.c ****     *   transmit buffer.
ARM GAS  C:\Users\AFDHAL~1\AppData\Local\Temp\ccsq6gt1.s 			page 24


 678:Generated_Source\PSoC4/USB_UART_UART.c ****     *
 679:Generated_Source\PSoC4/USB_UART_UART.c ****     *******************************************************************************/
 680:Generated_Source\PSoC4/USB_UART_UART.c ****     void USB_UART_UartPutString(const char8 string[])
 681:Generated_Source\PSoC4/USB_UART_UART.c ****     {
 576              		.loc 1 681 0
 577              		.cfi_startproc
 578              		@ args = 0, pretend = 0, frame = 0
 579              		@ frame_needed = 0, uses_anonymous_args = 0
 580              	.LVL36:
 581 0000 10B5     		push	{r4, lr}
 582              		.cfi_def_cfa_offset 8
 583              		.cfi_offset 4, -8
 584              		.cfi_offset 14, -4
 585              		.loc 1 681 0
 586 0002 0400     		movs	r4, r0
 682:Generated_Source\PSoC4/USB_UART_UART.c ****         uint32 bufIndex;
 683:Generated_Source\PSoC4/USB_UART_UART.c **** 
 684:Generated_Source\PSoC4/USB_UART_UART.c ****         bufIndex = 0u;
 685:Generated_Source\PSoC4/USB_UART_UART.c **** 
 686:Generated_Source\PSoC4/USB_UART_UART.c ****         /* Blocks the control flow until all data has been sent */
 687:Generated_Source\PSoC4/USB_UART_UART.c ****         while(string[bufIndex] != ((char8) 0))
 587              		.loc 1 687 0
 588 0004 0078     		ldrb	r0, [r0]
 589              	.LVL37:
 590 0006 0134     		adds	r4, r4, #1
 591              	.LVL38:
 592 0008 0028     		cmp	r0, #0
 593 000a 06D0     		beq	.L43
 594              	.LVL39:
 595              	.L47:
 596 000c 0134     		adds	r4, r4, #1
 597              	.LVL40:
 688:Generated_Source\PSoC4/USB_UART_UART.c ****         {
 689:Generated_Source\PSoC4/USB_UART_UART.c ****             USB_UART_UartPutChar((uint32) string[bufIndex]);
 598              		.loc 1 689 0
 599 000e FFF7FEFF 		bl	USB_UART_SpiUartWriteTxData
 600              	.LVL41:
 687:Generated_Source\PSoC4/USB_UART_UART.c ****         {
 601              		.loc 1 687 0
 602 0012 631E     		subs	r3, r4, #1
 603 0014 1878     		ldrb	r0, [r3]
 604 0016 0028     		cmp	r0, #0
 605 0018 F8D1     		bne	.L47
 606              	.L43:
 690:Generated_Source\PSoC4/USB_UART_UART.c ****             bufIndex++;
 691:Generated_Source\PSoC4/USB_UART_UART.c ****         }
 692:Generated_Source\PSoC4/USB_UART_UART.c ****     }
 607              		.loc 1 692 0
 608              		@ sp needed
 609 001a 10BD     		pop	{r4, pc}
 610              		.cfi_endproc
 611              	.LFE10:
 612              		.size	USB_UART_UartPutString, .-USB_UART_UartPutString
 613              		.section	.text.USB_UART_UartPutCRLF,"ax",%progbits
 614              		.align	2
 615              		.global	USB_UART_UartPutCRLF
 616              		.code	16
ARM GAS  C:\Users\AFDHAL~1\AppData\Local\Temp\ccsq6gt1.s 			page 25


 617              		.thumb_func
 618              		.type	USB_UART_UartPutCRLF, %function
 619              	USB_UART_UartPutCRLF:
 620              	.LFB11:
 693:Generated_Source\PSoC4/USB_UART_UART.c **** 
 694:Generated_Source\PSoC4/USB_UART_UART.c **** 
 695:Generated_Source\PSoC4/USB_UART_UART.c ****     /*******************************************************************************
 696:Generated_Source\PSoC4/USB_UART_UART.c ****     * Function Name: USB_UART_UartPutCRLF
 697:Generated_Source\PSoC4/USB_UART_UART.c ****     ****************************************************************************//**
 698:Generated_Source\PSoC4/USB_UART_UART.c ****     *
 699:Generated_Source\PSoC4/USB_UART_UART.c ****     *  Places byte of data followed by a carriage return (0x0D) and line feed
 700:Generated_Source\PSoC4/USB_UART_UART.c ****     *  (0x0A) in the transmit buffer.
 701:Generated_Source\PSoC4/USB_UART_UART.c ****     *  This function is blocking and waits until there is a space available to put
 702:Generated_Source\PSoC4/USB_UART_UART.c ****     *  all requested data in transmit buffer.
 703:Generated_Source\PSoC4/USB_UART_UART.c ****     *
 704:Generated_Source\PSoC4/USB_UART_UART.c ****     *  \param txDataByte: the data to be transmitted.
 705:Generated_Source\PSoC4/USB_UART_UART.c ****     *
 706:Generated_Source\PSoC4/USB_UART_UART.c ****     *******************************************************************************/
 707:Generated_Source\PSoC4/USB_UART_UART.c ****     void USB_UART_UartPutCRLF(uint32 txDataByte)
 708:Generated_Source\PSoC4/USB_UART_UART.c ****     {
 621              		.loc 1 708 0
 622              		.cfi_startproc
 623              		@ args = 0, pretend = 0, frame = 0
 624              		@ frame_needed = 0, uses_anonymous_args = 0
 625              	.LVL42:
 626 0000 10B5     		push	{r4, lr}
 627              		.cfi_def_cfa_offset 8
 628              		.cfi_offset 4, -8
 629              		.cfi_offset 14, -4
 709:Generated_Source\PSoC4/USB_UART_UART.c ****         USB_UART_UartPutChar(txDataByte);  /* Blocks control flow until all data has been sent */
 630              		.loc 1 709 0
 631 0002 FFF7FEFF 		bl	USB_UART_SpiUartWriteTxData
 632              	.LVL43:
 710:Generated_Source\PSoC4/USB_UART_UART.c ****         USB_UART_UartPutChar(0x0Du);       /* Blocks control flow until all data has been sent */
 633              		.loc 1 710 0
 634 0006 0D20     		movs	r0, #13
 635 0008 FFF7FEFF 		bl	USB_UART_SpiUartWriteTxData
 636              	.LVL44:
 711:Generated_Source\PSoC4/USB_UART_UART.c ****         USB_UART_UartPutChar(0x0Au);       /* Blocks control flow until all data has been sent */
 637              		.loc 1 711 0
 638 000c 0A20     		movs	r0, #10
 639 000e FFF7FEFF 		bl	USB_UART_SpiUartWriteTxData
 640              	.LVL45:
 712:Generated_Source\PSoC4/USB_UART_UART.c ****     }
 641              		.loc 1 712 0
 642              		@ sp needed
 643 0012 10BD     		pop	{r4, pc}
 644              		.cfi_endproc
 645              	.LFE11:
 646              		.size	USB_UART_UartPutCRLF, .-USB_UART_UartPutCRLF
 647              		.section	.text.USB_UART_UartEnableCts,"ax",%progbits
 648              		.align	2
 649              		.global	USB_UART_UartEnableCts
 650              		.code	16
 651              		.thumb_func
 652              		.type	USB_UART_UartEnableCts, %function
 653              	USB_UART_UartEnableCts:
ARM GAS  C:\Users\AFDHAL~1\AppData\Local\Temp\ccsq6gt1.s 			page 26


 654              	.LFB12:
 713:Generated_Source\PSoC4/USB_UART_UART.c **** 
 714:Generated_Source\PSoC4/USB_UART_UART.c **** 
 715:Generated_Source\PSoC4/USB_UART_UART.c ****     #if !(USB_UART_CY_SCBIP_V0 || USB_UART_CY_SCBIP_V1)
 716:Generated_Source\PSoC4/USB_UART_UART.c ****         /*******************************************************************************
 717:Generated_Source\PSoC4/USB_UART_UART.c ****         * Function Name: USB_UARTSCB_UartEnableCts
 718:Generated_Source\PSoC4/USB_UART_UART.c ****         ****************************************************************************//**
 719:Generated_Source\PSoC4/USB_UART_UART.c ****         *
 720:Generated_Source\PSoC4/USB_UART_UART.c ****         *  Enables usage of CTS input signal by the UART transmitter.
 721:Generated_Source\PSoC4/USB_UART_UART.c ****         *  Only available for PSoC 4100 BLE / PSoC 4200 BLE / PSoC 4100M / PSoC 4200M /
 722:Generated_Source\PSoC4/USB_UART_UART.c ****         *  PSoC 4200L / PSoC 4000S / PSoC 4100S / PSoC Analog Coprocessor devices.
 723:Generated_Source\PSoC4/USB_UART_UART.c ****         *
 724:Generated_Source\PSoC4/USB_UART_UART.c ****         *******************************************************************************/
 725:Generated_Source\PSoC4/USB_UART_UART.c ****         void USB_UART_UartEnableCts(void)
 726:Generated_Source\PSoC4/USB_UART_UART.c ****         {
 655              		.loc 1 726 0
 656              		.cfi_startproc
 657              		@ args = 0, pretend = 0, frame = 0
 658              		@ frame_needed = 0, uses_anonymous_args = 0
 659              		@ link register save eliminated.
 727:Generated_Source\PSoC4/USB_UART_UART.c ****             USB_UART_UART_FLOW_CTRL_REG |= (uint32)  USB_UART_UART_FLOW_CTRL_CTS_ENABLE;
 660              		.loc 1 727 0
 661 0000 8021     		movs	r1, #128
 662 0002 034A     		ldr	r2, .L51
 663 0004 8904     		lsls	r1, r1, #18
 664 0006 1368     		ldr	r3, [r2]
 728:Generated_Source\PSoC4/USB_UART_UART.c ****         }
 665              		.loc 1 728 0
 666              		@ sp needed
 727:Generated_Source\PSoC4/USB_UART_UART.c ****             USB_UART_UART_FLOW_CTRL_REG |= (uint32)  USB_UART_UART_FLOW_CTRL_CTS_ENABLE;
 667              		.loc 1 727 0
 668 0008 0B43     		orrs	r3, r1
 669 000a 1360     		str	r3, [r2]
 670              		.loc 1 728 0
 671 000c 7047     		bx	lr
 672              	.L52:
 673 000e C046     		.align	2
 674              	.L51:
 675 0010 50002740 		.word	1076297808
 676              		.cfi_endproc
 677              	.LFE12:
 678              		.size	USB_UART_UartEnableCts, .-USB_UART_UartEnableCts
 679              		.section	.text.USB_UART_UartDisableCts,"ax",%progbits
 680              		.align	2
 681              		.global	USB_UART_UartDisableCts
 682              		.code	16
 683              		.thumb_func
 684              		.type	USB_UART_UartDisableCts, %function
 685              	USB_UART_UartDisableCts:
 686              	.LFB13:
 729:Generated_Source\PSoC4/USB_UART_UART.c **** 
 730:Generated_Source\PSoC4/USB_UART_UART.c **** 
 731:Generated_Source\PSoC4/USB_UART_UART.c ****         /*******************************************************************************
 732:Generated_Source\PSoC4/USB_UART_UART.c ****         * Function Name: USB_UART_UartDisableCts
 733:Generated_Source\PSoC4/USB_UART_UART.c ****         ****************************************************************************//**
 734:Generated_Source\PSoC4/USB_UART_UART.c ****         *
 735:Generated_Source\PSoC4/USB_UART_UART.c ****         *  Disables usage of CTS input signal by the UART transmitter.
ARM GAS  C:\Users\AFDHAL~1\AppData\Local\Temp\ccsq6gt1.s 			page 27


 736:Generated_Source\PSoC4/USB_UART_UART.c ****         *  Only available for PSoC 4100 BLE / PSoC 4200 BLE / PSoC 4100M / PSoC 4200M /
 737:Generated_Source\PSoC4/USB_UART_UART.c ****         *  PSoC 4200L / PSoC 4000S / PSoC 4100S / PSoC Analog Coprocessor devices.
 738:Generated_Source\PSoC4/USB_UART_UART.c ****         *
 739:Generated_Source\PSoC4/USB_UART_UART.c ****         *******************************************************************************/
 740:Generated_Source\PSoC4/USB_UART_UART.c ****         void USB_UART_UartDisableCts(void)
 741:Generated_Source\PSoC4/USB_UART_UART.c ****         {
 687              		.loc 1 741 0
 688              		.cfi_startproc
 689              		@ args = 0, pretend = 0, frame = 0
 690              		@ frame_needed = 0, uses_anonymous_args = 0
 691              		@ link register save eliminated.
 742:Generated_Source\PSoC4/USB_UART_UART.c ****             USB_UART_UART_FLOW_CTRL_REG &= (uint32) ~USB_UART_UART_FLOW_CTRL_CTS_ENABLE;
 692              		.loc 1 742 0
 693 0000 024A     		ldr	r2, .L54
 694 0002 034B     		ldr	r3, .L54+4
 695 0004 1168     		ldr	r1, [r2]
 743:Generated_Source\PSoC4/USB_UART_UART.c ****         }
 696              		.loc 1 743 0
 697              		@ sp needed
 742:Generated_Source\PSoC4/USB_UART_UART.c ****             USB_UART_UART_FLOW_CTRL_REG &= (uint32) ~USB_UART_UART_FLOW_CTRL_CTS_ENABLE;
 698              		.loc 1 742 0
 699 0006 0B40     		ands	r3, r1
 700 0008 1360     		str	r3, [r2]
 701              		.loc 1 743 0
 702 000a 7047     		bx	lr
 703              	.L55:
 704              		.align	2
 705              	.L54:
 706 000c 50002740 		.word	1076297808
 707 0010 FFFFFFFD 		.word	-33554433
 708              		.cfi_endproc
 709              	.LFE13:
 710              		.size	USB_UART_UartDisableCts, .-USB_UART_UartDisableCts
 711              		.section	.text.USB_UART_UartSetCtsPolarity,"ax",%progbits
 712              		.align	2
 713              		.global	USB_UART_UartSetCtsPolarity
 714              		.code	16
 715              		.thumb_func
 716              		.type	USB_UART_UartSetCtsPolarity, %function
 717              	USB_UART_UartSetCtsPolarity:
 718              	.LFB14:
 744:Generated_Source\PSoC4/USB_UART_UART.c **** 
 745:Generated_Source\PSoC4/USB_UART_UART.c **** 
 746:Generated_Source\PSoC4/USB_UART_UART.c ****         /*******************************************************************************
 747:Generated_Source\PSoC4/USB_UART_UART.c ****         * Function Name: USB_UART_UartSetCtsPolarity
 748:Generated_Source\PSoC4/USB_UART_UART.c ****         ****************************************************************************//**
 749:Generated_Source\PSoC4/USB_UART_UART.c ****         *
 750:Generated_Source\PSoC4/USB_UART_UART.c ****         *  Sets active polarity of CTS input signal.
 751:Generated_Source\PSoC4/USB_UART_UART.c ****         *  Only available for PSoC 4100 BLE / PSoC 4200 BLE / PSoC 4100M / PSoC 4200M /
 752:Generated_Source\PSoC4/USB_UART_UART.c ****         *  PSoC 4200L / PSoC 4000S / PSoC 4100S / PSoC Analog Coprocessor devices.
 753:Generated_Source\PSoC4/USB_UART_UART.c ****         *
 754:Generated_Source\PSoC4/USB_UART_UART.c ****         * \param
 755:Generated_Source\PSoC4/USB_UART_UART.c ****         * polarity: Active polarity of CTS output signal.
 756:Generated_Source\PSoC4/USB_UART_UART.c ****         *   - USB_UART_UART_CTS_ACTIVE_LOW  - CTS signal is active low.
 757:Generated_Source\PSoC4/USB_UART_UART.c ****         *   - USB_UART_UART_CTS_ACTIVE_HIGH - CTS signal is active high.
 758:Generated_Source\PSoC4/USB_UART_UART.c ****         *
 759:Generated_Source\PSoC4/USB_UART_UART.c ****         *******************************************************************************/
ARM GAS  C:\Users\AFDHAL~1\AppData\Local\Temp\ccsq6gt1.s 			page 28


 760:Generated_Source\PSoC4/USB_UART_UART.c ****         void USB_UART_UartSetCtsPolarity(uint32 polarity)
 761:Generated_Source\PSoC4/USB_UART_UART.c ****         {
 719              		.loc 1 761 0
 720              		.cfi_startproc
 721              		@ args = 0, pretend = 0, frame = 0
 722              		@ frame_needed = 0, uses_anonymous_args = 0
 723              		@ link register save eliminated.
 724              	.LVL46:
 762:Generated_Source\PSoC4/USB_UART_UART.c ****             if (0u != polarity)
 763:Generated_Source\PSoC4/USB_UART_UART.c ****             {
 764:Generated_Source\PSoC4/USB_UART_UART.c ****                 USB_UART_UART_FLOW_CTRL_REG |= (uint32)  USB_UART_UART_FLOW_CTRL_CTS_POLARITY;
 725              		.loc 1 764 0
 726 0000 064A     		ldr	r2, .L60
 762:Generated_Source\PSoC4/USB_UART_UART.c ****             if (0u != polarity)
 727              		.loc 1 762 0
 728 0002 0028     		cmp	r0, #0
 729 0004 04D1     		bne	.L59
 765:Generated_Source\PSoC4/USB_UART_UART.c ****             }
 766:Generated_Source\PSoC4/USB_UART_UART.c ****             else
 767:Generated_Source\PSoC4/USB_UART_UART.c ****             {
 768:Generated_Source\PSoC4/USB_UART_UART.c ****                 USB_UART_UART_FLOW_CTRL_REG &= (uint32) ~USB_UART_UART_FLOW_CTRL_CTS_POLARITY;
 730              		.loc 1 768 0
 731 0006 1168     		ldr	r1, [r2]
 732 0008 054B     		ldr	r3, .L60+4
 733 000a 0B40     		ands	r3, r1
 734 000c 1360     		str	r3, [r2]
 735              	.L56:
 769:Generated_Source\PSoC4/USB_UART_UART.c ****             }
 770:Generated_Source\PSoC4/USB_UART_UART.c ****         }
 736              		.loc 1 770 0
 737              		@ sp needed
 738 000e 7047     		bx	lr
 739              	.L59:
 764:Generated_Source\PSoC4/USB_UART_UART.c ****             }
 740              		.loc 1 764 0
 741 0010 8021     		movs	r1, #128
 742 0012 1368     		ldr	r3, [r2]
 743 0014 4904     		lsls	r1, r1, #17
 744 0016 0B43     		orrs	r3, r1
 745 0018 1360     		str	r3, [r2]
 746 001a F8E7     		b	.L56
 747              	.L61:
 748              		.align	2
 749              	.L60:
 750 001c 50002740 		.word	1076297808
 751 0020 FFFFFFFE 		.word	-16777217
 752              		.cfi_endproc
 753              	.LFE14:
 754              		.size	USB_UART_UartSetCtsPolarity, .-USB_UART_UartSetCtsPolarity
 755              		.section	.text.USB_UART_UartSendBreakBlocking,"ax",%progbits
 756              		.align	2
 757              		.global	USB_UART_UartSendBreakBlocking
 758              		.code	16
 759              		.thumb_func
 760              		.type	USB_UART_UartSendBreakBlocking, %function
 761              	USB_UART_UartSendBreakBlocking:
 762              	.LFB15:
ARM GAS  C:\Users\AFDHAL~1\AppData\Local\Temp\ccsq6gt1.s 			page 29


 771:Generated_Source\PSoC4/USB_UART_UART.c ****     #endif /* !(USB_UART_CY_SCBIP_V0 || USB_UART_CY_SCBIP_V1) */
 772:Generated_Source\PSoC4/USB_UART_UART.c **** 
 773:Generated_Source\PSoC4/USB_UART_UART.c **** 
 774:Generated_Source\PSoC4/USB_UART_UART.c ****     /*******************************************************************************
 775:Generated_Source\PSoC4/USB_UART_UART.c ****     * Function Name: USB_UART_UartSendBreakBlocking
 776:Generated_Source\PSoC4/USB_UART_UART.c ****     ****************************************************************************//**
 777:Generated_Source\PSoC4/USB_UART_UART.c ****     *
 778:Generated_Source\PSoC4/USB_UART_UART.c ****     * Sends a break condition (logic low) of specified width on UART TX line.
 779:Generated_Source\PSoC4/USB_UART_UART.c ****     * Blocks until break is completed. Only call this function when UART TX FIFO
 780:Generated_Source\PSoC4/USB_UART_UART.c ****     * and shifter are empty.
 781:Generated_Source\PSoC4/USB_UART_UART.c ****     *
 782:Generated_Source\PSoC4/USB_UART_UART.c ****     * \param breakWidth
 783:Generated_Source\PSoC4/USB_UART_UART.c ****     * Width of break condition. Valid range is 4 to 16 bits.
 784:Generated_Source\PSoC4/USB_UART_UART.c ****     *
 785:Generated_Source\PSoC4/USB_UART_UART.c ****     * \note
 786:Generated_Source\PSoC4/USB_UART_UART.c ****     * Before sending break all UART TX interrupt sources are disabled. The state
 787:Generated_Source\PSoC4/USB_UART_UART.c ****     * of UART TX interrupt sources is restored before function returns.
 788:Generated_Source\PSoC4/USB_UART_UART.c ****     *
 789:Generated_Source\PSoC4/USB_UART_UART.c ****     * \sideeffect
 790:Generated_Source\PSoC4/USB_UART_UART.c ****     * If this function is called while there is data in the TX FIFO or shifter that
 791:Generated_Source\PSoC4/USB_UART_UART.c ****     * data will be shifted out in packets the size of breakWidth.
 792:Generated_Source\PSoC4/USB_UART_UART.c ****     *
 793:Generated_Source\PSoC4/USB_UART_UART.c ****     *******************************************************************************/
 794:Generated_Source\PSoC4/USB_UART_UART.c ****     void USB_UART_UartSendBreakBlocking(uint32 breakWidth)
 795:Generated_Source\PSoC4/USB_UART_UART.c ****     {
 763              		.loc 1 795 0
 764              		.cfi_startproc
 765              		@ args = 0, pretend = 0, frame = 0
 766              		@ frame_needed = 0, uses_anonymous_args = 0
 767              	.LVL47:
 768 0000 F0B5     		push	{r4, r5, r6, r7, lr}
 769              		.cfi_def_cfa_offset 20
 770              		.cfi_offset 4, -20
 771              		.cfi_offset 5, -16
 772              		.cfi_offset 6, -12
 773              		.cfi_offset 7, -8
 774              		.cfi_offset 14, -4
 775 0002 4F46     		mov	r7, r9
 776 0004 4646     		mov	r6, r8
 777 0006 C0B4     		push	{r6, r7}
 778              		.cfi_def_cfa_offset 28
 779              		.cfi_offset 8, -28
 780              		.cfi_offset 9, -24
 796:Generated_Source\PSoC4/USB_UART_UART.c ****         uint32 txCtrlReg;
 797:Generated_Source\PSoC4/USB_UART_UART.c ****         uint32 txIntrReg;
 798:Generated_Source\PSoC4/USB_UART_UART.c **** 
 799:Generated_Source\PSoC4/USB_UART_UART.c ****         /* Disable all UART TX interrupt source and clear UART TX Done history */
 800:Generated_Source\PSoC4/USB_UART_UART.c ****         txIntrReg = USB_UART_GetTxInterruptMode();
 801:Generated_Source\PSoC4/USB_UART_UART.c ****         USB_UART_SetTxInterruptMode(0u);
 781              		.loc 1 801 0
 782 0008 0027     		movs	r7, #0
 800:Generated_Source\PSoC4/USB_UART_UART.c ****         USB_UART_SetTxInterruptMode(0u);
 783              		.loc 1 800 0
 784 000a 124B     		ldr	r3, .L66
 802:Generated_Source\PSoC4/USB_UART_UART.c ****         USB_UART_ClearTxInterruptSource(USB_UART_INTR_TX_UART_DONE);
 785              		.loc 1 802 0
 786 000c 1249     		ldr	r1, .L66+4
ARM GAS  C:\Users\AFDHAL~1\AppData\Local\Temp\ccsq6gt1.s 			page 30


 800:Generated_Source\PSoC4/USB_UART_UART.c ****         USB_UART_SetTxInterruptMode(0u);
 787              		.loc 1 800 0
 788 000e 1C68     		ldr	r4, [r3]
 789              	.LVL48:
 801:Generated_Source\PSoC4/USB_UART_UART.c ****         USB_UART_ClearTxInterruptSource(USB_UART_INTR_TX_UART_DONE);
 790              		.loc 1 801 0
 791 0010 1F60     		str	r7, [r3]
 792              		.loc 1 802 0
 793 0012 8023     		movs	r3, #128
 803:Generated_Source\PSoC4/USB_UART_UART.c **** 
 804:Generated_Source\PSoC4/USB_UART_UART.c ****         /* Store TX CTRL configuration */
 805:Generated_Source\PSoC4/USB_UART_UART.c ****         txCtrlReg = USB_UART_TX_CTRL_REG;
 794              		.loc 1 805 0
 795 0014 114E     		ldr	r6, .L66+8
 802:Generated_Source\PSoC4/USB_UART_UART.c **** 
 796              		.loc 1 802 0
 797 0016 9B00     		lsls	r3, r3, #2
 798 0018 0B60     		str	r3, [r1]
 799              		.loc 1 805 0
 800 001a 3568     		ldr	r5, [r6]
 801              	.LVL49:
 802:Generated_Source\PSoC4/USB_UART_UART.c **** 
 802              		.loc 1 802 0
 803 001c 9946     		mov	r9, r3
 806:Generated_Source\PSoC4/USB_UART_UART.c **** 
 807:Generated_Source\PSoC4/USB_UART_UART.c ****         /* Set break width */
 808:Generated_Source\PSoC4/USB_UART_UART.c ****         USB_UART_TX_CTRL_REG = (USB_UART_TX_CTRL_REG & (uint32) ~USB_UART_TX_CTRL_DATA_WIDTH_MASK) 
 804              		.loc 1 808 0
 805 001e 3368     		ldr	r3, [r6]
 806 0020 0138     		subs	r0, r0, #1
 807              	.LVL50:
 808 0022 9846     		mov	r8, r3
 809 0024 0F23     		movs	r3, #15
 810 0026 4246     		mov	r2, r8
 811 0028 1840     		ands	r0, r3
 812              	.LVL51:
 813 002a 9A43     		bics	r2, r3
 814 002c 1043     		orrs	r0, r2
 809:Generated_Source\PSoC4/USB_UART_UART.c ****                                         USB_UART_GET_TX_CTRL_DATA_WIDTH(breakWidth);
 810:Generated_Source\PSoC4/USB_UART_UART.c **** 
 811:Generated_Source\PSoC4/USB_UART_UART.c ****         /* Generate break */
 812:Generated_Source\PSoC4/USB_UART_UART.c ****         USB_UART_TX_FIFO_WR_REG = 0u;
 813:Generated_Source\PSoC4/USB_UART_UART.c **** 
 814:Generated_Source\PSoC4/USB_UART_UART.c ****         /* Wait for break completion */
 815:Generated_Source\PSoC4/USB_UART_UART.c ****         while (0u == (USB_UART_GetTxInterruptSource() & USB_UART_INTR_TX_UART_DONE))
 815              		.loc 1 815 0
 816 002e 4A46     		mov	r2, r9
 812:Generated_Source\PSoC4/USB_UART_UART.c **** 
 817              		.loc 1 812 0
 818 0030 0B4B     		ldr	r3, .L66+12
 808:Generated_Source\PSoC4/USB_UART_UART.c ****                                         USB_UART_GET_TX_CTRL_DATA_WIDTH(breakWidth);
 819              		.loc 1 808 0
 820 0032 3060     		str	r0, [r6]
 812:Generated_Source\PSoC4/USB_UART_UART.c **** 
 821              		.loc 1 812 0
 822 0034 1F60     		str	r7, [r3]
 823              	.L63:
ARM GAS  C:\Users\AFDHAL~1\AppData\Local\Temp\ccsq6gt1.s 			page 31


 824              		.loc 1 815 0 discriminator 1
 825 0036 0B68     		ldr	r3, [r1]
 826 0038 1342     		tst	r3, r2
 827 003a FCD0     		beq	.L63
 816:Generated_Source\PSoC4/USB_UART_UART.c ****         {
 817:Generated_Source\PSoC4/USB_UART_UART.c ****         }
 818:Generated_Source\PSoC4/USB_UART_UART.c **** 
 819:Generated_Source\PSoC4/USB_UART_UART.c ****         /* Clear all UART TX interrupt sources to  */
 820:Generated_Source\PSoC4/USB_UART_UART.c ****         USB_UART_ClearTxInterruptSource(USB_UART_INTR_TX_ALL);
 828              		.loc 1 820 0
 829 003c 094A     		ldr	r2, .L66+16
 830 003e 064B     		ldr	r3, .L66+4
 821:Generated_Source\PSoC4/USB_UART_UART.c **** 
 822:Generated_Source\PSoC4/USB_UART_UART.c ****         /* Restore TX interrupt sources and data width */
 823:Generated_Source\PSoC4/USB_UART_UART.c ****         USB_UART_TX_CTRL_REG = txCtrlReg;
 824:Generated_Source\PSoC4/USB_UART_UART.c ****         USB_UART_SetTxInterruptMode(txIntrReg);
 825:Generated_Source\PSoC4/USB_UART_UART.c ****     }
 831              		.loc 1 825 0
 832              		@ sp needed
 820:Generated_Source\PSoC4/USB_UART_UART.c **** 
 833              		.loc 1 820 0
 834 0040 1A60     		str	r2, [r3]
 823:Generated_Source\PSoC4/USB_UART_UART.c ****         USB_UART_SetTxInterruptMode(txIntrReg);
 835              		.loc 1 823 0
 836 0042 064B     		ldr	r3, .L66+8
 837 0044 1D60     		str	r5, [r3]
 824:Generated_Source\PSoC4/USB_UART_UART.c ****     }
 838              		.loc 1 824 0
 839 0046 034B     		ldr	r3, .L66
 840 0048 1C60     		str	r4, [r3]
 841              	.LVL52:
 842              	.LVL53:
 843              		.loc 1 825 0
 844 004a 0CBC     		pop	{r2, r3}
 845 004c 9046     		mov	r8, r2
 846 004e 9946     		mov	r9, r3
 847 0050 F0BD     		pop	{r4, r5, r6, r7, pc}
 848              	.L67:
 849 0052 C046     		.align	2
 850              	.L66:
 851 0054 880F2740 		.word	1076301704
 852 0058 800F2740 		.word	1076301696
 853 005c 00022740 		.word	1076298240
 854 0060 40022740 		.word	1076298304
 855 0064 F3070000 		.word	2035
 856              		.cfi_endproc
 857              	.LFE15:
 858              		.size	USB_UART_UartSendBreakBlocking, .-USB_UART_UartSendBreakBlocking
 859              		.text
 860              	.Letext0:
 861              		.file 2 "Generated_Source\\PSoC4/cytypes.h"
 862              		.file 3 "Generated_Source\\PSoC4\\USB_UART_PVT.h"
 863              		.file 4 "Generated_Source\\PSoC4\\USB_UART_SPI_UART_PVT.h"
 864              		.file 5 "Generated_Source\\PSoC4/CyLib.h"
 865              		.file 6 "Generated_Source\\PSoC4\\USB_UART_SPI_UART.h"