ARM GAS  C:\Users\AFDHAL~1\AppData\Local\Temp\cciqa2zN.s 			page 1


   1              		.syntax unified
   2              		.cpu cortex-m0
   3              		.fpu softvfp
   4              		.eabi_attribute 20, 1
   5              		.eabi_attribute 21, 1
   6              		.eabi_attribute 23, 3
   7              		.eabi_attribute 24, 1
   8              		.eabi_attribute 25, 1
   9              		.eabi_attribute 26, 1
  10              		.eabi_attribute 30, 2
  11              		.eabi_attribute 34, 0
  12              		.eabi_attribute 18, 4
  13              		.thumb
  14              		.syntax unified
  15              		.file	"USB_UART_SPI_UART_INT.c"
  16              		.text
  17              	.Ltext0:
  18              		.cfi_sections	.debug_frame
  19              		.section	.text.USB_UART_SPI_UART_ISR,"ax",%progbits
  20              		.align	2
  21              		.global	USB_UART_SPI_UART_ISR
  22              		.code	16
  23              		.thumb_func
  24              		.type	USB_UART_SPI_UART_ISR, %function
  25              	USB_UART_SPI_UART_ISR:
  26              	.LFB1:
  27              		.file 1 "Generated_Source\\PSoC4\\USB_UART_SPI_UART_INT.c"
   1:Generated_Source\PSoC4/USB_UART_SPI_UART_INT.c **** /***************************************************************************//**
   2:Generated_Source\PSoC4/USB_UART_SPI_UART_INT.c **** * \file USB_UART_SPI_UART_INT.c
   3:Generated_Source\PSoC4/USB_UART_SPI_UART_INT.c **** * \version 4.0
   4:Generated_Source\PSoC4/USB_UART_SPI_UART_INT.c **** *
   5:Generated_Source\PSoC4/USB_UART_SPI_UART_INT.c **** * \brief
   6:Generated_Source\PSoC4/USB_UART_SPI_UART_INT.c **** *  This file provides the source code to the Interrupt Service Routine for
   7:Generated_Source\PSoC4/USB_UART_SPI_UART_INT.c **** *  the SCB Component in SPI and UART modes.
   8:Generated_Source\PSoC4/USB_UART_SPI_UART_INT.c **** *
   9:Generated_Source\PSoC4/USB_UART_SPI_UART_INT.c **** * Note:
  10:Generated_Source\PSoC4/USB_UART_SPI_UART_INT.c **** *
  11:Generated_Source\PSoC4/USB_UART_SPI_UART_INT.c **** ********************************************************************************
  12:Generated_Source\PSoC4/USB_UART_SPI_UART_INT.c **** * \copyright
  13:Generated_Source\PSoC4/USB_UART_SPI_UART_INT.c **** * Copyright 2013-2017, Cypress Semiconductor Corporation.  All rights reserved.
  14:Generated_Source\PSoC4/USB_UART_SPI_UART_INT.c **** * You may use this file only in accordance with the license, terms, conditions,
  15:Generated_Source\PSoC4/USB_UART_SPI_UART_INT.c **** * disclaimers, and limitations in the end user license agreement accompanying
  16:Generated_Source\PSoC4/USB_UART_SPI_UART_INT.c **** * the software package with which this file was provided.
  17:Generated_Source\PSoC4/USB_UART_SPI_UART_INT.c **** *******************************************************************************/
  18:Generated_Source\PSoC4/USB_UART_SPI_UART_INT.c **** 
  19:Generated_Source\PSoC4/USB_UART_SPI_UART_INT.c **** #include "USB_UART_PVT.h"
  20:Generated_Source\PSoC4/USB_UART_SPI_UART_INT.c **** #include "USB_UART_SPI_UART_PVT.h"
  21:Generated_Source\PSoC4/USB_UART_SPI_UART_INT.c **** #include "cyapicallbacks.h"
  22:Generated_Source\PSoC4/USB_UART_SPI_UART_INT.c **** 
  23:Generated_Source\PSoC4/USB_UART_SPI_UART_INT.c **** #if (USB_UART_SCB_IRQ_INTERNAL)
  24:Generated_Source\PSoC4/USB_UART_SPI_UART_INT.c **** /*******************************************************************************
  25:Generated_Source\PSoC4/USB_UART_SPI_UART_INT.c **** * Function Name: USB_UART_SPI_UART_ISR
  26:Generated_Source\PSoC4/USB_UART_SPI_UART_INT.c **** ****************************************************************************//**
  27:Generated_Source\PSoC4/USB_UART_SPI_UART_INT.c **** *
  28:Generated_Source\PSoC4/USB_UART_SPI_UART_INT.c **** *  Handles the Interrupt Service Routine for the SCB SPI or UART modes.
  29:Generated_Source\PSoC4/USB_UART_SPI_UART_INT.c **** *
  30:Generated_Source\PSoC4/USB_UART_SPI_UART_INT.c **** *******************************************************************************/
ARM GAS  C:\Users\AFDHAL~1\AppData\Local\Temp\cciqa2zN.s 			page 2


  31:Generated_Source\PSoC4/USB_UART_SPI_UART_INT.c **** CY_ISR(USB_UART_SPI_UART_ISR)
  32:Generated_Source\PSoC4/USB_UART_SPI_UART_INT.c **** {
  28              		.loc 1 32 0
  29              		.cfi_startproc
  30              		@ args = 0, pretend = 0, frame = 0
  31              		@ frame_needed = 0, uses_anonymous_args = 0
  32 0000 F0B5     		push	{r4, r5, r6, r7, lr}
  33              		.cfi_def_cfa_offset 20
  34              		.cfi_offset 4, -20
  35              		.cfi_offset 5, -16
  36              		.cfi_offset 6, -12
  37              		.cfi_offset 7, -8
  38              		.cfi_offset 14, -4
  39 0002 4746     		mov	r7, r8
  33:Generated_Source\PSoC4/USB_UART_SPI_UART_INT.c **** #if (USB_UART_INTERNAL_RX_SW_BUFFER_CONST)
  34:Generated_Source\PSoC4/USB_UART_SPI_UART_INT.c ****     uint32 locHead;
  35:Generated_Source\PSoC4/USB_UART_SPI_UART_INT.c **** #endif /* (USB_UART_INTERNAL_RX_SW_BUFFER_CONST) */
  36:Generated_Source\PSoC4/USB_UART_SPI_UART_INT.c **** 
  37:Generated_Source\PSoC4/USB_UART_SPI_UART_INT.c **** #if (USB_UART_INTERNAL_TX_SW_BUFFER_CONST)
  38:Generated_Source\PSoC4/USB_UART_SPI_UART_INT.c ****     uint32 locTail;
  39:Generated_Source\PSoC4/USB_UART_SPI_UART_INT.c **** #endif /* (USB_UART_INTERNAL_TX_SW_BUFFER_CONST) */
  40:Generated_Source\PSoC4/USB_UART_SPI_UART_INT.c **** 
  41:Generated_Source\PSoC4/USB_UART_SPI_UART_INT.c **** #ifdef USB_UART_SPI_UART_ISR_ENTRY_CALLBACK
  42:Generated_Source\PSoC4/USB_UART_SPI_UART_INT.c ****     USB_UART_SPI_UART_ISR_EntryCallback();
  43:Generated_Source\PSoC4/USB_UART_SPI_UART_INT.c **** #endif /* USB_UART_SPI_UART_ISR_ENTRY_CALLBACK */
  44:Generated_Source\PSoC4/USB_UART_SPI_UART_INT.c **** 
  45:Generated_Source\PSoC4/USB_UART_SPI_UART_INT.c ****     if (NULL != USB_UART_customIntrHandler)
  40              		.loc 1 45 0
  41 0004 314B     		ldr	r3, .L27
  32:Generated_Source\PSoC4/USB_UART_SPI_UART_INT.c **** #if (USB_UART_INTERNAL_RX_SW_BUFFER_CONST)
  42              		.loc 1 32 0
  43 0006 80B4     		push	{r7}
  44              		.cfi_def_cfa_offset 24
  45              		.cfi_offset 8, -24
  46              		.loc 1 45 0
  47 0008 1B68     		ldr	r3, [r3]
  48 000a 002B     		cmp	r3, #0
  49 000c 00D0     		beq	.L2
  46:Generated_Source\PSoC4/USB_UART_SPI_UART_INT.c ****     {
  47:Generated_Source\PSoC4/USB_UART_SPI_UART_INT.c ****         USB_UART_customIntrHandler();
  50              		.loc 1 47 0
  51 000e 9847     		blx	r3
  52              	.LVL0:
  53              	.L2:
  48:Generated_Source\PSoC4/USB_UART_SPI_UART_INT.c ****     }
  49:Generated_Source\PSoC4/USB_UART_SPI_UART_INT.c **** 
  50:Generated_Source\PSoC4/USB_UART_SPI_UART_INT.c ****     #if(USB_UART_CHECK_SPI_WAKE_ENABLE)
  51:Generated_Source\PSoC4/USB_UART_SPI_UART_INT.c ****     {
  52:Generated_Source\PSoC4/USB_UART_SPI_UART_INT.c ****         /* Clear SPI wakeup source */
  53:Generated_Source\PSoC4/USB_UART_SPI_UART_INT.c ****         USB_UART_ClearSpiExtClkInterruptSource(USB_UART_INTR_SPI_EC_WAKE_UP);
  54:Generated_Source\PSoC4/USB_UART_SPI_UART_INT.c ****     }
  55:Generated_Source\PSoC4/USB_UART_SPI_UART_INT.c ****     #endif
  56:Generated_Source\PSoC4/USB_UART_SPI_UART_INT.c **** 
  57:Generated_Source\PSoC4/USB_UART_SPI_UART_INT.c ****     #if (USB_UART_CHECK_RX_SW_BUFFER)
  58:Generated_Source\PSoC4/USB_UART_SPI_UART_INT.c ****     {
  59:Generated_Source\PSoC4/USB_UART_SPI_UART_INT.c ****         if (USB_UART_CHECK_INTR_RX_MASKED(USB_UART_INTR_RX_NOT_EMPTY))
  54              		.loc 1 59 0
ARM GAS  C:\Users\AFDHAL~1\AppData\Local\Temp\cciqa2zN.s 			page 3


  55 0010 2F4B     		ldr	r3, .L27+4
  56 0012 1B68     		ldr	r3, [r3]
  57 0014 5B07     		lsls	r3, r3, #29
  58 0016 26D5     		bpl	.L3
  60:Generated_Source\PSoC4/USB_UART_SPI_UART_INT.c ****         {
  61:Generated_Source\PSoC4/USB_UART_SPI_UART_INT.c ****             do
  62:Generated_Source\PSoC4/USB_UART_SPI_UART_INT.c ****             {
  63:Generated_Source\PSoC4/USB_UART_SPI_UART_INT.c ****                 /* Move local head index */
  64:Generated_Source\PSoC4/USB_UART_SPI_UART_INT.c ****                 locHead = (USB_UART_rxBufferHead + 1u);
  65:Generated_Source\PSoC4/USB_UART_SPI_UART_INT.c **** 
  66:Generated_Source\PSoC4/USB_UART_SPI_UART_INT.c ****                 /* Adjust local head index */
  67:Generated_Source\PSoC4/USB_UART_SPI_UART_INT.c ****                 if (USB_UART_INTERNAL_RX_BUFFER_SIZE == locHead)
  68:Generated_Source\PSoC4/USB_UART_SPI_UART_INT.c ****                 {
  69:Generated_Source\PSoC4/USB_UART_SPI_UART_INT.c ****                     locHead = 0u;
  70:Generated_Source\PSoC4/USB_UART_SPI_UART_INT.c ****                 }
  71:Generated_Source\PSoC4/USB_UART_SPI_UART_INT.c **** 
  72:Generated_Source\PSoC4/USB_UART_SPI_UART_INT.c ****                 if (locHead == USB_UART_rxBufferTail)
  73:Generated_Source\PSoC4/USB_UART_SPI_UART_INT.c ****                 {
  74:Generated_Source\PSoC4/USB_UART_SPI_UART_INT.c ****                     #if (USB_UART_CHECK_UART_RTS_CONTROL_FLOW)
  75:Generated_Source\PSoC4/USB_UART_SPI_UART_INT.c ****                     {
  76:Generated_Source\PSoC4/USB_UART_SPI_UART_INT.c ****                         /* There is no space in the software buffer - disable the
  77:Generated_Source\PSoC4/USB_UART_SPI_UART_INT.c ****                         * RX Not Empty interrupt source. The data elements are
  78:Generated_Source\PSoC4/USB_UART_SPI_UART_INT.c ****                         * still being received into the RX FIFO until the RTS signal
  79:Generated_Source\PSoC4/USB_UART_SPI_UART_INT.c ****                         * stops the transmitter. After the data element is read from the
  80:Generated_Source\PSoC4/USB_UART_SPI_UART_INT.c ****                         * buffer, the RX Not Empty interrupt source is enabled to
  81:Generated_Source\PSoC4/USB_UART_SPI_UART_INT.c ****                         * move the next data element in the software buffer.
  82:Generated_Source\PSoC4/USB_UART_SPI_UART_INT.c ****                         */
  83:Generated_Source\PSoC4/USB_UART_SPI_UART_INT.c ****                         USB_UART_INTR_RX_MASK_REG &= ~USB_UART_INTR_RX_NOT_EMPTY;
  84:Generated_Source\PSoC4/USB_UART_SPI_UART_INT.c ****                         break;
  85:Generated_Source\PSoC4/USB_UART_SPI_UART_INT.c ****                     }
  86:Generated_Source\PSoC4/USB_UART_SPI_UART_INT.c ****                     #else
  87:Generated_Source\PSoC4/USB_UART_SPI_UART_INT.c ****                     {
  88:Generated_Source\PSoC4/USB_UART_SPI_UART_INT.c ****                         /* Overflow: through away received data element */
  89:Generated_Source\PSoC4/USB_UART_SPI_UART_INT.c ****                         (void) USB_UART_RX_FIFO_RD_REG;
  90:Generated_Source\PSoC4/USB_UART_SPI_UART_INT.c ****                         USB_UART_rxBufferOverflow = (uint8) USB_UART_INTR_RX_OVERFLOW;
  59              		.loc 1 90 0
  60 0018 2E4B     		ldr	r3, .L27+8
  61 001a 2F49     		ldr	r1, .L27+12
  62 001c 9846     		mov	r8, r3
  63 001e 2023     		movs	r3, #32
  64 0020 2E4D     		ldr	r5, .L27+16
  91:Generated_Source\PSoC4/USB_UART_SPI_UART_INT.c ****                     }
  92:Generated_Source\PSoC4/USB_UART_SPI_UART_INT.c ****                     #endif
  93:Generated_Source\PSoC4/USB_UART_SPI_UART_INT.c ****                 }
  94:Generated_Source\PSoC4/USB_UART_SPI_UART_INT.c ****                 else
  95:Generated_Source\PSoC4/USB_UART_SPI_UART_INT.c ****                 {
  96:Generated_Source\PSoC4/USB_UART_SPI_UART_INT.c ****                     /* Store received data */
  97:Generated_Source\PSoC4/USB_UART_SPI_UART_INT.c ****                     USB_UART_PutWordInRxBuffer(locHead, USB_UART_RX_FIFO_RD_REG);
  65              		.loc 1 97 0
  66 0022 2F4E     		ldr	r6, .L27+20
  67 0024 2F4F     		ldr	r7, .L27+24
  90:Generated_Source\PSoC4/USB_UART_SPI_UART_INT.c ****                     }
  68              		.loc 1 90 0
  69 0026 9C46     		mov	ip, r3
  98:Generated_Source\PSoC4/USB_UART_SPI_UART_INT.c **** 
  99:Generated_Source\PSoC4/USB_UART_SPI_UART_INT.c ****                     /* Move head index */
 100:Generated_Source\PSoC4/USB_UART_SPI_UART_INT.c ****                     USB_UART_rxBufferHead = locHead;
ARM GAS  C:\Users\AFDHAL~1\AppData\Local\Temp\cciqa2zN.s 			page 4


 101:Generated_Source\PSoC4/USB_UART_SPI_UART_INT.c ****                 }
 102:Generated_Source\PSoC4/USB_UART_SPI_UART_INT.c ****             }
 103:Generated_Source\PSoC4/USB_UART_SPI_UART_INT.c ****             while(0u != USB_UART_GET_RX_FIFO_ENTRIES);
  70              		.loc 1 103 0
  71 0028 2F4C     		ldr	r4, .L27+28
  72 002a 1F20     		movs	r0, #31
  73 002c 09E0     		b	.L7
  74              	.LVL1:
  75              	.L4:
  72:Generated_Source\PSoC4/USB_UART_SPI_UART_INT.c ****                 {
  76              		.loc 1 72 0
  77 002e 2A68     		ldr	r2, [r5]
  78 0030 9342     		cmp	r3, r2
  79 0032 0ED0     		beq	.L25
  80              	.L5:
  97:Generated_Source\PSoC4/USB_UART_SPI_UART_INT.c **** 
  81              		.loc 1 97 0
  82 0034 3268     		ldr	r2, [r6]
  83 0036 D2B2     		uxtb	r2, r2
  84 0038 FA54     		strb	r2, [r7, r3]
 100:Generated_Source\PSoC4/USB_UART_SPI_UART_INT.c ****                 }
  85              		.loc 1 100 0
  86 003a 0B60     		str	r3, [r1]
  87              		.loc 1 103 0
  88 003c 2368     		ldr	r3, [r4]
  89              	.LVL2:
  90 003e 1842     		tst	r0, r3
  91 0040 0ED0     		beq	.L26
  92              	.LVL3:
  93              	.L7:
  64:Generated_Source\PSoC4/USB_UART_SPI_UART_INT.c **** 
  94              		.loc 1 64 0
  95 0042 0B68     		ldr	r3, [r1]
  96 0044 0133     		adds	r3, r3, #1
  97              	.LVL4:
  67:Generated_Source\PSoC4/USB_UART_SPI_UART_INT.c ****                 {
  98              		.loc 1 67 0
  99 0046 212B     		cmp	r3, #33
 100 0048 F1D1     		bne	.L4
  69:Generated_Source\PSoC4/USB_UART_SPI_UART_INT.c ****                 }
 101              		.loc 1 69 0
 102 004a 0023     		movs	r3, #0
 103              	.LVL5:
  72:Generated_Source\PSoC4/USB_UART_SPI_UART_INT.c ****                 {
 104              		.loc 1 72 0
 105 004c 2A68     		ldr	r2, [r5]
 106 004e 9342     		cmp	r3, r2
 107 0050 F0D1     		bne	.L5
 108              	.L25:
  89:Generated_Source\PSoC4/USB_UART_SPI_UART_INT.c ****                         USB_UART_rxBufferOverflow = (uint8) USB_UART_INTR_RX_OVERFLOW;
 109              		.loc 1 89 0
 110 0052 3368     		ldr	r3, [r6]
 111              	.LVL6:
  90:Generated_Source\PSoC4/USB_UART_SPI_UART_INT.c ****                     }
 112              		.loc 1 90 0
 113 0054 6246     		mov	r2, ip
 114 0056 4346     		mov	r3, r8
ARM GAS  C:\Users\AFDHAL~1\AppData\Local\Temp\cciqa2zN.s 			page 5


 115 0058 1A70     		strb	r2, [r3]
 116              		.loc 1 103 0
 117 005a 2368     		ldr	r3, [r4]
 118 005c 1842     		tst	r0, r3
 119 005e F0D1     		bne	.L7
 120              	.L26:
 104:Generated_Source\PSoC4/USB_UART_SPI_UART_INT.c **** 
 105:Generated_Source\PSoC4/USB_UART_SPI_UART_INT.c ****             USB_UART_ClearRxInterruptSource(USB_UART_INTR_RX_NOT_EMPTY);
 121              		.loc 1 105 0
 122 0060 0422     		movs	r2, #4
 123 0062 224B     		ldr	r3, .L27+32
 124 0064 1A60     		str	r2, [r3]
 125              	.L3:
 106:Generated_Source\PSoC4/USB_UART_SPI_UART_INT.c ****         }
 107:Generated_Source\PSoC4/USB_UART_SPI_UART_INT.c ****     }
 108:Generated_Source\PSoC4/USB_UART_SPI_UART_INT.c ****     #endif
 109:Generated_Source\PSoC4/USB_UART_SPI_UART_INT.c **** 
 110:Generated_Source\PSoC4/USB_UART_SPI_UART_INT.c **** 
 111:Generated_Source\PSoC4/USB_UART_SPI_UART_INT.c ****     #if (USB_UART_CHECK_TX_SW_BUFFER)
 112:Generated_Source\PSoC4/USB_UART_SPI_UART_INT.c ****     {
 113:Generated_Source\PSoC4/USB_UART_SPI_UART_INT.c ****         if (USB_UART_CHECK_INTR_TX_MASKED(USB_UART_INTR_TX_NOT_FULL))
 126              		.loc 1 113 0
 127 0066 224B     		ldr	r3, .L27+36
 128 0068 1B68     		ldr	r3, [r3]
 129 006a 9B07     		lsls	r3, r3, #30
 130 006c 22D5     		bpl	.L1
 131 006e 2148     		ldr	r0, .L27+40
 132 0070 2149     		ldr	r1, .L27+44
 114:Generated_Source\PSoC4/USB_UART_SPI_UART_INT.c ****         {
 115:Generated_Source\PSoC4/USB_UART_SPI_UART_INT.c ****             do
 116:Generated_Source\PSoC4/USB_UART_SPI_UART_INT.c ****             {
 117:Generated_Source\PSoC4/USB_UART_SPI_UART_INT.c ****                 /* Check for room in TX software buffer */
 118:Generated_Source\PSoC4/USB_UART_SPI_UART_INT.c ****                 if (USB_UART_txBufferHead != USB_UART_txBufferTail)
 119:Generated_Source\PSoC4/USB_UART_SPI_UART_INT.c ****                 {
 120:Generated_Source\PSoC4/USB_UART_SPI_UART_INT.c ****                     /* Move local tail index */
 121:Generated_Source\PSoC4/USB_UART_SPI_UART_INT.c ****                     locTail = (USB_UART_txBufferTail + 1u);
 122:Generated_Source\PSoC4/USB_UART_SPI_UART_INT.c **** 
 123:Generated_Source\PSoC4/USB_UART_SPI_UART_INT.c ****                     /* Adjust local tail index */
 124:Generated_Source\PSoC4/USB_UART_SPI_UART_INT.c ****                     if (USB_UART_TX_BUFFER_SIZE == locTail)
 125:Generated_Source\PSoC4/USB_UART_SPI_UART_INT.c ****                     {
 126:Generated_Source\PSoC4/USB_UART_SPI_UART_INT.c ****                         locTail = 0u;
 127:Generated_Source\PSoC4/USB_UART_SPI_UART_INT.c ****                     }
 128:Generated_Source\PSoC4/USB_UART_SPI_UART_INT.c **** 
 129:Generated_Source\PSoC4/USB_UART_SPI_UART_INT.c ****                     /* Put data into TX FIFO */
 130:Generated_Source\PSoC4/USB_UART_SPI_UART_INT.c ****                     USB_UART_TX_FIFO_WR_REG = USB_UART_GetWordFromTxBuffer(locTail);
 133              		.loc 1 130 0
 134 0072 224F     		ldr	r7, .L27+48
 135 0074 224E     		ldr	r6, .L27+52
 131:Generated_Source\PSoC4/USB_UART_SPI_UART_INT.c **** 
 132:Generated_Source\PSoC4/USB_UART_SPI_UART_INT.c ****                     /* Move tail index */
 133:Generated_Source\PSoC4/USB_UART_SPI_UART_INT.c ****                     USB_UART_txBufferTail = locTail;
 134:Generated_Source\PSoC4/USB_UART_SPI_UART_INT.c ****                 }
 135:Generated_Source\PSoC4/USB_UART_SPI_UART_INT.c ****                 else
 136:Generated_Source\PSoC4/USB_UART_SPI_UART_INT.c ****                 {
 137:Generated_Source\PSoC4/USB_UART_SPI_UART_INT.c ****                     /* TX software buffer is empty: complete transfer */
 138:Generated_Source\PSoC4/USB_UART_SPI_UART_INT.c ****                     USB_UART_DISABLE_INTR_TX(USB_UART_INTR_TX_NOT_FULL);
 139:Generated_Source\PSoC4/USB_UART_SPI_UART_INT.c ****                     break;
ARM GAS  C:\Users\AFDHAL~1\AppData\Local\Temp\cciqa2zN.s 			page 6


 140:Generated_Source\PSoC4/USB_UART_SPI_UART_INT.c ****                 }
 141:Generated_Source\PSoC4/USB_UART_SPI_UART_INT.c ****             }
 142:Generated_Source\PSoC4/USB_UART_SPI_UART_INT.c ****             while (USB_UART_SPI_UART_FIFO_SIZE != USB_UART_GET_TX_FIFO_ENTRIES);
 136              		.loc 1 142 0
 137 0076 234D     		ldr	r5, .L27+56
 138 0078 1F24     		movs	r4, #31
 139 007a 07E0     		b	.L11
 140              	.LVL7:
 141              	.L10:
 130:Generated_Source\PSoC4/USB_UART_SPI_UART_INT.c **** 
 142              		.loc 1 130 0
 143 007c FA5C     		ldrb	r2, [r7, r3]
 144 007e D2B2     		uxtb	r2, r2
 145 0080 3260     		str	r2, [r6]
 133:Generated_Source\PSoC4/USB_UART_SPI_UART_INT.c ****                 }
 146              		.loc 1 133 0
 147 0082 0B60     		str	r3, [r1]
 148              		.loc 1 142 0
 149 0084 2B68     		ldr	r3, [r5]
 150              	.LVL8:
 151 0086 2340     		ands	r3, r4
 152 0088 082B     		cmp	r3, #8
 153 008a 10D0     		beq	.L12
 154              	.LVL9:
 155              	.L11:
 118:Generated_Source\PSoC4/USB_UART_SPI_UART_INT.c ****                 {
 156              		.loc 1 118 0
 157 008c 0268     		ldr	r2, [r0]
 158 008e 0B68     		ldr	r3, [r1]
 159 0090 9A42     		cmp	r2, r3
 160 0092 12D0     		beq	.L9
 121:Generated_Source\PSoC4/USB_UART_SPI_UART_INT.c **** 
 161              		.loc 1 121 0
 162 0094 0B68     		ldr	r3, [r1]
 163 0096 0133     		adds	r3, r3, #1
 164              	.LVL10:
 124:Generated_Source\PSoC4/USB_UART_SPI_UART_INT.c ****                     {
 165              		.loc 1 124 0
 166 0098 202B     		cmp	r3, #32
 167 009a EFD1     		bne	.L10
 126:Generated_Source\PSoC4/USB_UART_SPI_UART_INT.c ****                     }
 168              		.loc 1 126 0
 169 009c 0023     		movs	r3, #0
 170              	.LVL11:
 130:Generated_Source\PSoC4/USB_UART_SPI_UART_INT.c **** 
 171              		.loc 1 130 0
 172 009e FA5C     		ldrb	r2, [r7, r3]
 173 00a0 D2B2     		uxtb	r2, r2
 174 00a2 3260     		str	r2, [r6]
 133:Generated_Source\PSoC4/USB_UART_SPI_UART_INT.c ****                 }
 175              		.loc 1 133 0
 176 00a4 0B60     		str	r3, [r1]
 177              		.loc 1 142 0
 178 00a6 2B68     		ldr	r3, [r5]
 179              	.LVL12:
 180 00a8 2340     		ands	r3, r4
 181 00aa 082B     		cmp	r3, #8
ARM GAS  C:\Users\AFDHAL~1\AppData\Local\Temp\cciqa2zN.s 			page 7


 182 00ac EED1     		bne	.L11
 183              	.LVL13:
 184              	.L12:
 143:Generated_Source\PSoC4/USB_UART_SPI_UART_INT.c **** 
 144:Generated_Source\PSoC4/USB_UART_SPI_UART_INT.c ****             USB_UART_ClearTxInterruptSource(USB_UART_INTR_TX_NOT_FULL);
 185              		.loc 1 144 0
 186 00ae 0222     		movs	r2, #2
 187 00b0 154B     		ldr	r3, .L27+60
 188 00b2 1A60     		str	r2, [r3]
 189              	.L1:
 145:Generated_Source\PSoC4/USB_UART_SPI_UART_INT.c ****         }
 146:Generated_Source\PSoC4/USB_UART_SPI_UART_INT.c ****     }
 147:Generated_Source\PSoC4/USB_UART_SPI_UART_INT.c ****     #endif
 148:Generated_Source\PSoC4/USB_UART_SPI_UART_INT.c **** 
 149:Generated_Source\PSoC4/USB_UART_SPI_UART_INT.c **** #ifdef USB_UART_SPI_UART_ISR_EXIT_CALLBACK
 150:Generated_Source\PSoC4/USB_UART_SPI_UART_INT.c ****     USB_UART_SPI_UART_ISR_ExitCallback();
 151:Generated_Source\PSoC4/USB_UART_SPI_UART_INT.c **** #endif /* USB_UART_SPI_UART_ISR_EXIT_CALLBACK */
 152:Generated_Source\PSoC4/USB_UART_SPI_UART_INT.c **** 
 153:Generated_Source\PSoC4/USB_UART_SPI_UART_INT.c **** }
 190              		.loc 1 153 0
 191              		@ sp needed
 192 00b4 04BC     		pop	{r2}
 193 00b6 9046     		mov	r8, r2
 194 00b8 F0BD     		pop	{r4, r5, r6, r7, pc}
 195              	.L9:
 138:Generated_Source\PSoC4/USB_UART_SPI_UART_INT.c ****                     break;
 196              		.loc 1 138 0
 197 00ba 0221     		movs	r1, #2
 198 00bc 134A     		ldr	r2, .L27+64
 199 00be 1368     		ldr	r3, [r2]
 200 00c0 8B43     		bics	r3, r1
 201 00c2 1360     		str	r3, [r2]
 144:Generated_Source\PSoC4/USB_UART_SPI_UART_INT.c ****         }
 202              		.loc 1 144 0
 203 00c4 0222     		movs	r2, #2
 204 00c6 104B     		ldr	r3, .L27+60
 205 00c8 1A60     		str	r2, [r3]
 206 00ca F3E7     		b	.L1
 207              	.L28:
 208              		.align	2
 209              	.L27:
 210 00cc 00000000 		.word	USB_UART_customIntrHandler
 211 00d0 CC0F2740 		.word	1076301772
 212 00d4 00000000 		.word	USB_UART_rxBufferOverflow
 213 00d8 00000000 		.word	USB_UART_rxBufferHead
 214 00dc 00000000 		.word	USB_UART_rxBufferTail
 215 00e0 40032740 		.word	1076298560
 216 00e4 00000000 		.word	USB_UART_rxBufferInternal
 217 00e8 08032740 		.word	1076298504
 218 00ec C00F2740 		.word	1076301760
 219 00f0 8C0F2740 		.word	1076301708
 220 00f4 00000000 		.word	USB_UART_txBufferHead
 221 00f8 00000000 		.word	USB_UART_txBufferTail
 222 00fc 00000000 		.word	USB_UART_txBufferInternal
 223 0100 40022740 		.word	1076298304
 224 0104 08022740 		.word	1076298248
 225 0108 800F2740 		.word	1076301696
ARM GAS  C:\Users\AFDHAL~1\AppData\Local\Temp\cciqa2zN.s 			page 8


 226 010c 880F2740 		.word	1076301704
 227              		.cfi_endproc
 228              	.LFE1:
 229              		.size	USB_UART_SPI_UART_ISR, .-USB_UART_SPI_UART_ISR
 230              		.text
 231              	.Letext0:
 232              		.file 2 "Generated_Source\\PSoC4/cytypes.h"
 233              		.file 3 "Generated_Source\\PSoC4\\USB_UART_PVT.h"
 234              		.file 4 "Generated_Source\\PSoC4\\USB_UART_SPI_UART_PVT.h"