ARM GAS  C:\Users\AFDHAL~1\AppData\Local\Temp\cc3OtZUa.s 			page 1


   1              		.syntax unified
   2              		.cpu cortex-m0
   3              		.fpu softvfp
   4              		.eabi_attribute 20, 1
   5              		.eabi_attribute 21, 1
   6              		.eabi_attribute 23, 3
   7              		.eabi_attribute 24, 1
   8              		.eabi_attribute 25, 1
   9              		.eabi_attribute 26, 1
  10              		.eabi_attribute 30, 2
  11              		.eabi_attribute 34, 0
  12              		.eabi_attribute 18, 4
  13              		.thumb
  14              		.syntax unified
  15              		.file	"USB_UART.c"
  16              		.text
  17              	.Ltext0:
  18              		.cfi_sections	.debug_frame
  19              		.section	.text.USB_UART_Init,"ax",%progbits
  20              		.align	2
  21              		.global	USB_UART_Init
  22              		.code	16
  23              		.thumb_func
  24              		.type	USB_UART_Init, %function
  25              	USB_UART_Init:
  26              	.LFB1:
  27              		.file 1 "Generated_Source\\PSoC4\\USB_UART.c"
   1:Generated_Source\PSoC4/USB_UART.c **** /***************************************************************************//**
   2:Generated_Source\PSoC4/USB_UART.c **** * \file USB_UART.c
   3:Generated_Source\PSoC4/USB_UART.c **** * \version 4.0
   4:Generated_Source\PSoC4/USB_UART.c **** *
   5:Generated_Source\PSoC4/USB_UART.c **** * \brief
   6:Generated_Source\PSoC4/USB_UART.c **** *  This file provides the source code to the API for the SCB Component.
   7:Generated_Source\PSoC4/USB_UART.c **** *
   8:Generated_Source\PSoC4/USB_UART.c **** * Note:
   9:Generated_Source\PSoC4/USB_UART.c **** *
  10:Generated_Source\PSoC4/USB_UART.c **** *******************************************************************************
  11:Generated_Source\PSoC4/USB_UART.c **** * \copyright
  12:Generated_Source\PSoC4/USB_UART.c **** * Copyright 2013-2017, Cypress Semiconductor Corporation.  All rights reserved.
  13:Generated_Source\PSoC4/USB_UART.c **** * You may use this file only in accordance with the license, terms, conditions,
  14:Generated_Source\PSoC4/USB_UART.c **** * disclaimers, and limitations in the end user license agreement accompanying
  15:Generated_Source\PSoC4/USB_UART.c **** * the software package with which this file was provided.
  16:Generated_Source\PSoC4/USB_UART.c **** *******************************************************************************/
  17:Generated_Source\PSoC4/USB_UART.c **** 
  18:Generated_Source\PSoC4/USB_UART.c **** #include "USB_UART_PVT.h"
  19:Generated_Source\PSoC4/USB_UART.c **** 
  20:Generated_Source\PSoC4/USB_UART.c **** #if (USB_UART_SCB_MODE_I2C_INC)
  21:Generated_Source\PSoC4/USB_UART.c ****     #include "USB_UART_I2C_PVT.h"
  22:Generated_Source\PSoC4/USB_UART.c **** #endif /* (USB_UART_SCB_MODE_I2C_INC) */
  23:Generated_Source\PSoC4/USB_UART.c **** 
  24:Generated_Source\PSoC4/USB_UART.c **** #if (USB_UART_SCB_MODE_EZI2C_INC)
  25:Generated_Source\PSoC4/USB_UART.c ****     #include "USB_UART_EZI2C_PVT.h"
  26:Generated_Source\PSoC4/USB_UART.c **** #endif /* (USB_UART_SCB_MODE_EZI2C_INC) */
  27:Generated_Source\PSoC4/USB_UART.c **** 
  28:Generated_Source\PSoC4/USB_UART.c **** #if (USB_UART_SCB_MODE_SPI_INC || USB_UART_SCB_MODE_UART_INC)
  29:Generated_Source\PSoC4/USB_UART.c ****     #include "USB_UART_SPI_UART_PVT.h"
  30:Generated_Source\PSoC4/USB_UART.c **** #endif /* (USB_UART_SCB_MODE_SPI_INC || USB_UART_SCB_MODE_UART_INC) */
ARM GAS  C:\Users\AFDHAL~1\AppData\Local\Temp\cc3OtZUa.s 			page 2


  31:Generated_Source\PSoC4/USB_UART.c **** 
  32:Generated_Source\PSoC4/USB_UART.c **** 
  33:Generated_Source\PSoC4/USB_UART.c **** /***************************************
  34:Generated_Source\PSoC4/USB_UART.c **** *    Run Time Configuration Vars
  35:Generated_Source\PSoC4/USB_UART.c **** ***************************************/
  36:Generated_Source\PSoC4/USB_UART.c **** 
  37:Generated_Source\PSoC4/USB_UART.c **** /* Stores internal component configuration for Unconfigured mode */
  38:Generated_Source\PSoC4/USB_UART.c **** #if (USB_UART_SCB_MODE_UNCONFIG_CONST_CFG)
  39:Generated_Source\PSoC4/USB_UART.c ****     /* Common configuration variables */
  40:Generated_Source\PSoC4/USB_UART.c ****     uint8 USB_UART_scbMode = USB_UART_SCB_MODE_UNCONFIG;
  41:Generated_Source\PSoC4/USB_UART.c ****     uint8 USB_UART_scbEnableWake;
  42:Generated_Source\PSoC4/USB_UART.c ****     uint8 USB_UART_scbEnableIntr;
  43:Generated_Source\PSoC4/USB_UART.c **** 
  44:Generated_Source\PSoC4/USB_UART.c ****     /* I2C configuration variables */
  45:Generated_Source\PSoC4/USB_UART.c ****     uint8 USB_UART_mode;
  46:Generated_Source\PSoC4/USB_UART.c ****     uint8 USB_UART_acceptAddr;
  47:Generated_Source\PSoC4/USB_UART.c **** 
  48:Generated_Source\PSoC4/USB_UART.c ****     /* SPI/UART configuration variables */
  49:Generated_Source\PSoC4/USB_UART.c ****     volatile uint8 * USB_UART_rxBuffer;
  50:Generated_Source\PSoC4/USB_UART.c ****     uint8  USB_UART_rxDataBits;
  51:Generated_Source\PSoC4/USB_UART.c ****     uint32 USB_UART_rxBufferSize;
  52:Generated_Source\PSoC4/USB_UART.c **** 
  53:Generated_Source\PSoC4/USB_UART.c ****     volatile uint8 * USB_UART_txBuffer;
  54:Generated_Source\PSoC4/USB_UART.c ****     uint8  USB_UART_txDataBits;
  55:Generated_Source\PSoC4/USB_UART.c ****     uint32 USB_UART_txBufferSize;
  56:Generated_Source\PSoC4/USB_UART.c **** 
  57:Generated_Source\PSoC4/USB_UART.c ****     /* EZI2C configuration variables */
  58:Generated_Source\PSoC4/USB_UART.c ****     uint8 USB_UART_numberOfAddr;
  59:Generated_Source\PSoC4/USB_UART.c ****     uint8 USB_UART_subAddrSize;
  60:Generated_Source\PSoC4/USB_UART.c **** #endif /* (USB_UART_SCB_MODE_UNCONFIG_CONST_CFG) */
  61:Generated_Source\PSoC4/USB_UART.c **** 
  62:Generated_Source\PSoC4/USB_UART.c **** 
  63:Generated_Source\PSoC4/USB_UART.c **** /***************************************
  64:Generated_Source\PSoC4/USB_UART.c **** *     Common SCB Vars
  65:Generated_Source\PSoC4/USB_UART.c **** ***************************************/
  66:Generated_Source\PSoC4/USB_UART.c **** /**
  67:Generated_Source\PSoC4/USB_UART.c **** * \addtogroup group_general
  68:Generated_Source\PSoC4/USB_UART.c **** * \{
  69:Generated_Source\PSoC4/USB_UART.c **** */
  70:Generated_Source\PSoC4/USB_UART.c **** 
  71:Generated_Source\PSoC4/USB_UART.c **** /** USB_UART_initVar indicates whether the USB_UART 
  72:Generated_Source\PSoC4/USB_UART.c **** *  component has been initialized. The variable is initialized to 0 
  73:Generated_Source\PSoC4/USB_UART.c **** *  and set to 1 the first time SCB_Start() is called. This allows 
  74:Generated_Source\PSoC4/USB_UART.c **** *  the component to restart without reinitialization after the first 
  75:Generated_Source\PSoC4/USB_UART.c **** *  call to the USB_UART_Start() routine.
  76:Generated_Source\PSoC4/USB_UART.c **** *
  77:Generated_Source\PSoC4/USB_UART.c **** *  If re-initialization of the component is required, then the 
  78:Generated_Source\PSoC4/USB_UART.c **** *  USB_UART_Init() function can be called before the 
  79:Generated_Source\PSoC4/USB_UART.c **** *  USB_UART_Start() or USB_UART_Enable() function.
  80:Generated_Source\PSoC4/USB_UART.c **** */
  81:Generated_Source\PSoC4/USB_UART.c **** uint8 USB_UART_initVar = 0u;
  82:Generated_Source\PSoC4/USB_UART.c **** 
  83:Generated_Source\PSoC4/USB_UART.c **** 
  84:Generated_Source\PSoC4/USB_UART.c **** #if (! (USB_UART_SCB_MODE_I2C_CONST_CFG || \
  85:Generated_Source\PSoC4/USB_UART.c ****         USB_UART_SCB_MODE_EZI2C_CONST_CFG))
  86:Generated_Source\PSoC4/USB_UART.c ****     /** This global variable stores TX interrupt sources after 
  87:Generated_Source\PSoC4/USB_UART.c ****     * USB_UART_Stop() is called. Only these TX interrupt sources 
ARM GAS  C:\Users\AFDHAL~1\AppData\Local\Temp\cc3OtZUa.s 			page 3


  88:Generated_Source\PSoC4/USB_UART.c ****     * will be restored on a subsequent USB_UART_Enable() call.
  89:Generated_Source\PSoC4/USB_UART.c ****     */
  90:Generated_Source\PSoC4/USB_UART.c ****     uint16 USB_UART_IntrTxMask = 0u;
  91:Generated_Source\PSoC4/USB_UART.c **** #endif /* (! (USB_UART_SCB_MODE_I2C_CONST_CFG || \
  92:Generated_Source\PSoC4/USB_UART.c ****               USB_UART_SCB_MODE_EZI2C_CONST_CFG)) */
  93:Generated_Source\PSoC4/USB_UART.c **** /** \} globals */
  94:Generated_Source\PSoC4/USB_UART.c **** 
  95:Generated_Source\PSoC4/USB_UART.c **** #if (USB_UART_SCB_IRQ_INTERNAL)
  96:Generated_Source\PSoC4/USB_UART.c **** #if !defined (CY_REMOVE_USB_UART_CUSTOM_INTR_HANDLER)
  97:Generated_Source\PSoC4/USB_UART.c ****     void (*USB_UART_customIntrHandler)(void) = NULL;
  98:Generated_Source\PSoC4/USB_UART.c **** #endif /* !defined (CY_REMOVE_USB_UART_CUSTOM_INTR_HANDLER) */
  99:Generated_Source\PSoC4/USB_UART.c **** #endif /* (USB_UART_SCB_IRQ_INTERNAL) */
 100:Generated_Source\PSoC4/USB_UART.c **** 
 101:Generated_Source\PSoC4/USB_UART.c **** 
 102:Generated_Source\PSoC4/USB_UART.c **** /***************************************
 103:Generated_Source\PSoC4/USB_UART.c **** *    Private Function Prototypes
 104:Generated_Source\PSoC4/USB_UART.c **** ***************************************/
 105:Generated_Source\PSoC4/USB_UART.c **** 
 106:Generated_Source\PSoC4/USB_UART.c **** static void USB_UART_ScbEnableIntr(void);
 107:Generated_Source\PSoC4/USB_UART.c **** static void USB_UART_ScbModeStop(void);
 108:Generated_Source\PSoC4/USB_UART.c **** static void USB_UART_ScbModePostEnable(void);
 109:Generated_Source\PSoC4/USB_UART.c **** 
 110:Generated_Source\PSoC4/USB_UART.c **** 
 111:Generated_Source\PSoC4/USB_UART.c **** /*******************************************************************************
 112:Generated_Source\PSoC4/USB_UART.c **** * Function Name: USB_UART_Init
 113:Generated_Source\PSoC4/USB_UART.c **** ****************************************************************************//**
 114:Generated_Source\PSoC4/USB_UART.c **** *
 115:Generated_Source\PSoC4/USB_UART.c **** *  Initializes the USB_UART component to operate in one of the selected
 116:Generated_Source\PSoC4/USB_UART.c **** *  configurations: I2C, SPI, UART or EZI2C.
 117:Generated_Source\PSoC4/USB_UART.c **** *  When the configuration is set to "Unconfigured SCB", this function does
 118:Generated_Source\PSoC4/USB_UART.c **** *  not do any initialization. Use mode-specific initialization APIs instead:
 119:Generated_Source\PSoC4/USB_UART.c **** *  USB_UART_I2CInit, USB_UART_SpiInit, 
 120:Generated_Source\PSoC4/USB_UART.c **** *  USB_UART_UartInit or USB_UART_EzI2CInit.
 121:Generated_Source\PSoC4/USB_UART.c **** *
 122:Generated_Source\PSoC4/USB_UART.c **** *******************************************************************************/
 123:Generated_Source\PSoC4/USB_UART.c **** void USB_UART_Init(void)
 124:Generated_Source\PSoC4/USB_UART.c **** {
  28              		.loc 1 124 0
  29              		.cfi_startproc
  30              		@ args = 0, pretend = 0, frame = 0
  31              		@ frame_needed = 0, uses_anonymous_args = 0
  32 0000 10B5     		push	{r4, lr}
  33              		.cfi_def_cfa_offset 8
  34              		.cfi_offset 4, -8
  35              		.cfi_offset 14, -4
 125:Generated_Source\PSoC4/USB_UART.c **** #if (USB_UART_SCB_MODE_UNCONFIG_CONST_CFG)
 126:Generated_Source\PSoC4/USB_UART.c ****     if (USB_UART_SCB_MODE_UNCONFIG_RUNTM_CFG)
 127:Generated_Source\PSoC4/USB_UART.c ****     {
 128:Generated_Source\PSoC4/USB_UART.c ****         USB_UART_initVar = 0u;
 129:Generated_Source\PSoC4/USB_UART.c ****     }
 130:Generated_Source\PSoC4/USB_UART.c ****     else
 131:Generated_Source\PSoC4/USB_UART.c ****     {
 132:Generated_Source\PSoC4/USB_UART.c ****         /* Initialization was done before this function call */
 133:Generated_Source\PSoC4/USB_UART.c ****     }
 134:Generated_Source\PSoC4/USB_UART.c **** 
 135:Generated_Source\PSoC4/USB_UART.c **** #elif (USB_UART_SCB_MODE_I2C_CONST_CFG)
 136:Generated_Source\PSoC4/USB_UART.c ****     USB_UART_I2CInit();
ARM GAS  C:\Users\AFDHAL~1\AppData\Local\Temp\cc3OtZUa.s 			page 4


 137:Generated_Source\PSoC4/USB_UART.c **** 
 138:Generated_Source\PSoC4/USB_UART.c **** #elif (USB_UART_SCB_MODE_SPI_CONST_CFG)
 139:Generated_Source\PSoC4/USB_UART.c ****     USB_UART_SpiInit();
 140:Generated_Source\PSoC4/USB_UART.c **** 
 141:Generated_Source\PSoC4/USB_UART.c **** #elif (USB_UART_SCB_MODE_UART_CONST_CFG)
 142:Generated_Source\PSoC4/USB_UART.c ****     USB_UART_UartInit();
  36              		.loc 1 142 0
  37 0002 FFF7FEFF 		bl	USB_UART_UartInit
  38              	.LVL0:
 143:Generated_Source\PSoC4/USB_UART.c **** 
 144:Generated_Source\PSoC4/USB_UART.c **** #elif (USB_UART_SCB_MODE_EZI2C_CONST_CFG)
 145:Generated_Source\PSoC4/USB_UART.c ****     USB_UART_EzI2CInit();
 146:Generated_Source\PSoC4/USB_UART.c **** 
 147:Generated_Source\PSoC4/USB_UART.c **** #endif /* (USB_UART_SCB_MODE_UNCONFIG_CONST_CFG) */
 148:Generated_Source\PSoC4/USB_UART.c **** }
  39              		.loc 1 148 0
  40              		@ sp needed
  41 0006 10BD     		pop	{r4, pc}
  42              		.cfi_endproc
  43              	.LFE1:
  44              		.size	USB_UART_Init, .-USB_UART_Init
  45              		.section	.text.USB_UART_Enable,"ax",%progbits
  46              		.align	2
  47              		.global	USB_UART_Enable
  48              		.code	16
  49              		.thumb_func
  50              		.type	USB_UART_Enable, %function
  51              	USB_UART_Enable:
  52              	.LFB2:
 149:Generated_Source\PSoC4/USB_UART.c **** 
 150:Generated_Source\PSoC4/USB_UART.c **** 
 151:Generated_Source\PSoC4/USB_UART.c **** /*******************************************************************************
 152:Generated_Source\PSoC4/USB_UART.c **** * Function Name: USB_UART_Enable
 153:Generated_Source\PSoC4/USB_UART.c **** ****************************************************************************//**
 154:Generated_Source\PSoC4/USB_UART.c **** *
 155:Generated_Source\PSoC4/USB_UART.c **** *  Enables USB_UART component operation: activates the hardware and 
 156:Generated_Source\PSoC4/USB_UART.c **** *  internal interrupt. It also restores TX interrupt sources disabled after the 
 157:Generated_Source\PSoC4/USB_UART.c **** *  USB_UART_Stop() function was called (note that level-triggered TX 
 158:Generated_Source\PSoC4/USB_UART.c **** *  interrupt sources remain disabled to not cause code lock-up).
 159:Generated_Source\PSoC4/USB_UART.c **** *  For I2C and EZI2C modes the interrupt is internal and mandatory for 
 160:Generated_Source\PSoC4/USB_UART.c **** *  operation. For SPI and UART modes the interrupt can be configured as none, 
 161:Generated_Source\PSoC4/USB_UART.c **** *  internal or external.
 162:Generated_Source\PSoC4/USB_UART.c **** *  The USB_UART configuration should be not changed when the component
 163:Generated_Source\PSoC4/USB_UART.c **** *  is enabled. Any configuration changes should be made after disabling the 
 164:Generated_Source\PSoC4/USB_UART.c **** *  component.
 165:Generated_Source\PSoC4/USB_UART.c **** *  When configuration is set to “Unconfigured USB_UART”, the component 
 166:Generated_Source\PSoC4/USB_UART.c **** *  must first be initialized to operate in one of the following configurations: 
 167:Generated_Source\PSoC4/USB_UART.c **** *  I2C, SPI, UART or EZ I2C, using the mode-specific initialization API. 
 168:Generated_Source\PSoC4/USB_UART.c **** *  Otherwise this function does not enable the component.
 169:Generated_Source\PSoC4/USB_UART.c **** *
 170:Generated_Source\PSoC4/USB_UART.c **** *******************************************************************************/
 171:Generated_Source\PSoC4/USB_UART.c **** void USB_UART_Enable(void)
 172:Generated_Source\PSoC4/USB_UART.c **** {
  53              		.loc 1 172 0
  54              		.cfi_startproc
  55              		@ args = 0, pretend = 0, frame = 0
  56              		@ frame_needed = 0, uses_anonymous_args = 0
ARM GAS  C:\Users\AFDHAL~1\AppData\Local\Temp\cc3OtZUa.s 			page 5


 173:Generated_Source\PSoC4/USB_UART.c **** #if (USB_UART_SCB_MODE_UNCONFIG_CONST_CFG)
 174:Generated_Source\PSoC4/USB_UART.c ****     /* Enable SCB block, only if it is already configured */
 175:Generated_Source\PSoC4/USB_UART.c ****     if (!USB_UART_SCB_MODE_UNCONFIG_RUNTM_CFG)
 176:Generated_Source\PSoC4/USB_UART.c ****     {
 177:Generated_Source\PSoC4/USB_UART.c ****         USB_UART_CTRL_REG |= USB_UART_CTRL_ENABLED;
 178:Generated_Source\PSoC4/USB_UART.c **** 
 179:Generated_Source\PSoC4/USB_UART.c ****         USB_UART_ScbEnableIntr();
 180:Generated_Source\PSoC4/USB_UART.c **** 
 181:Generated_Source\PSoC4/USB_UART.c ****         /* Call PostEnable function specific to current operation mode */
 182:Generated_Source\PSoC4/USB_UART.c ****         USB_UART_ScbModePostEnable();
 183:Generated_Source\PSoC4/USB_UART.c ****     }
 184:Generated_Source\PSoC4/USB_UART.c **** #else
 185:Generated_Source\PSoC4/USB_UART.c ****     USB_UART_CTRL_REG |= USB_UART_CTRL_ENABLED;
  57              		.loc 1 185 0
  58 0000 8021     		movs	r1, #128
  59 0002 064A     		ldr	r2, .L3
 172:Generated_Source\PSoC4/USB_UART.c **** #if (USB_UART_SCB_MODE_UNCONFIG_CONST_CFG)
  60              		.loc 1 172 0
  61 0004 10B5     		push	{r4, lr}
  62              		.cfi_def_cfa_offset 8
  63              		.cfi_offset 4, -8
  64              		.cfi_offset 14, -4
  65              		.loc 1 185 0
  66 0006 1368     		ldr	r3, [r2]
  67 0008 0906     		lsls	r1, r1, #24
  68 000a 0B43     		orrs	r3, r1
  69 000c 1360     		str	r3, [r2]
  70              	.LBB14:
  71              	.LBB15:
 186:Generated_Source\PSoC4/USB_UART.c **** 
 187:Generated_Source\PSoC4/USB_UART.c ****     USB_UART_ScbEnableIntr();
 188:Generated_Source\PSoC4/USB_UART.c **** 
 189:Generated_Source\PSoC4/USB_UART.c ****     /* Call PostEnable function specific to current operation mode */
 190:Generated_Source\PSoC4/USB_UART.c ****     USB_UART_ScbModePostEnable();
 191:Generated_Source\PSoC4/USB_UART.c **** #endif /* (USB_UART_SCB_MODE_UNCONFIG_CONST_CFG) */
 192:Generated_Source\PSoC4/USB_UART.c **** }
 193:Generated_Source\PSoC4/USB_UART.c **** 
 194:Generated_Source\PSoC4/USB_UART.c **** 
 195:Generated_Source\PSoC4/USB_UART.c **** /*******************************************************************************
 196:Generated_Source\PSoC4/USB_UART.c **** * Function Name: USB_UART_Start
 197:Generated_Source\PSoC4/USB_UART.c **** ****************************************************************************//**
 198:Generated_Source\PSoC4/USB_UART.c **** *
 199:Generated_Source\PSoC4/USB_UART.c **** *  Invokes USB_UART_Init() and USB_UART_Enable().
 200:Generated_Source\PSoC4/USB_UART.c **** *  After this function call, the component is enabled and ready for operation.
 201:Generated_Source\PSoC4/USB_UART.c **** *  When configuration is set to "Unconfigured SCB", the component must first be
 202:Generated_Source\PSoC4/USB_UART.c **** *  initialized to operate in one of the following configurations: I2C, SPI, UART
 203:Generated_Source\PSoC4/USB_UART.c **** *  or EZI2C. Otherwise this function does not enable the component.
 204:Generated_Source\PSoC4/USB_UART.c **** *
 205:Generated_Source\PSoC4/USB_UART.c **** * \globalvars
 206:Generated_Source\PSoC4/USB_UART.c **** *  USB_UART_initVar - used to check initial configuration, modified
 207:Generated_Source\PSoC4/USB_UART.c **** *  on first function call.
 208:Generated_Source\PSoC4/USB_UART.c **** *
 209:Generated_Source\PSoC4/USB_UART.c **** *******************************************************************************/
 210:Generated_Source\PSoC4/USB_UART.c **** void USB_UART_Start(void)
 211:Generated_Source\PSoC4/USB_UART.c **** {
 212:Generated_Source\PSoC4/USB_UART.c ****     if (0u == USB_UART_initVar)
 213:Generated_Source\PSoC4/USB_UART.c ****     {
ARM GAS  C:\Users\AFDHAL~1\AppData\Local\Temp\cc3OtZUa.s 			page 6


 214:Generated_Source\PSoC4/USB_UART.c ****         USB_UART_Init();
 215:Generated_Source\PSoC4/USB_UART.c ****         USB_UART_initVar = 1u; /* Component was initialized */
 216:Generated_Source\PSoC4/USB_UART.c ****     }
 217:Generated_Source\PSoC4/USB_UART.c **** 
 218:Generated_Source\PSoC4/USB_UART.c ****     USB_UART_Enable();
 219:Generated_Source\PSoC4/USB_UART.c **** }
 220:Generated_Source\PSoC4/USB_UART.c **** 
 221:Generated_Source\PSoC4/USB_UART.c **** 
 222:Generated_Source\PSoC4/USB_UART.c **** /*******************************************************************************
 223:Generated_Source\PSoC4/USB_UART.c **** * Function Name: USB_UART_Stop
 224:Generated_Source\PSoC4/USB_UART.c **** ****************************************************************************//**
 225:Generated_Source\PSoC4/USB_UART.c **** *
 226:Generated_Source\PSoC4/USB_UART.c **** *  Disables the USB_UART component: disable the hardware and internal 
 227:Generated_Source\PSoC4/USB_UART.c **** *  interrupt. It also disables all TX interrupt sources so as not to cause an 
 228:Generated_Source\PSoC4/USB_UART.c **** *  unexpected interrupt trigger because after the component is enabled, the 
 229:Generated_Source\PSoC4/USB_UART.c **** *  TX FIFO is empty.
 230:Generated_Source\PSoC4/USB_UART.c **** *  Refer to the function USB_UART_Enable() for the interrupt 
 231:Generated_Source\PSoC4/USB_UART.c **** *  configuration details.
 232:Generated_Source\PSoC4/USB_UART.c **** *  This function disables the SCB component without checking to see if 
 233:Generated_Source\PSoC4/USB_UART.c **** *  communication is in progress. Before calling this function it may be 
 234:Generated_Source\PSoC4/USB_UART.c **** *  necessary to check the status of communication to make sure communication 
 235:Generated_Source\PSoC4/USB_UART.c **** *  is complete. If this is not done then communication could be stopped mid 
 236:Generated_Source\PSoC4/USB_UART.c **** *  byte and corrupted data could result.
 237:Generated_Source\PSoC4/USB_UART.c **** *
 238:Generated_Source\PSoC4/USB_UART.c **** *******************************************************************************/
 239:Generated_Source\PSoC4/USB_UART.c **** void USB_UART_Stop(void)
 240:Generated_Source\PSoC4/USB_UART.c **** {
 241:Generated_Source\PSoC4/USB_UART.c **** #if (USB_UART_SCB_IRQ_INTERNAL)
 242:Generated_Source\PSoC4/USB_UART.c ****     USB_UART_DisableInt();
 243:Generated_Source\PSoC4/USB_UART.c **** #endif /* (USB_UART_SCB_IRQ_INTERNAL) */
 244:Generated_Source\PSoC4/USB_UART.c **** 
 245:Generated_Source\PSoC4/USB_UART.c ****     /* Call Stop function specific to current operation mode */
 246:Generated_Source\PSoC4/USB_UART.c ****     USB_UART_ScbModeStop();
 247:Generated_Source\PSoC4/USB_UART.c **** 
 248:Generated_Source\PSoC4/USB_UART.c ****     /* Disable SCB IP */
 249:Generated_Source\PSoC4/USB_UART.c ****     USB_UART_CTRL_REG &= (uint32) ~USB_UART_CTRL_ENABLED;
 250:Generated_Source\PSoC4/USB_UART.c **** 
 251:Generated_Source\PSoC4/USB_UART.c ****     /* Disable all TX interrupt sources so as not to cause an unexpected
 252:Generated_Source\PSoC4/USB_UART.c ****     * interrupt trigger after the component will be enabled because the 
 253:Generated_Source\PSoC4/USB_UART.c ****     * TX FIFO is empty.
 254:Generated_Source\PSoC4/USB_UART.c ****     * For SCB IP v0, it is critical as it does not mask-out interrupt
 255:Generated_Source\PSoC4/USB_UART.c ****     * sources when it is disabled. This can cause a code lock-up in the
 256:Generated_Source\PSoC4/USB_UART.c ****     * interrupt handler because TX FIFO cannot be loaded after the block
 257:Generated_Source\PSoC4/USB_UART.c ****     * is disabled.
 258:Generated_Source\PSoC4/USB_UART.c ****     */
 259:Generated_Source\PSoC4/USB_UART.c ****     USB_UART_SetTxInterruptMode(USB_UART_NO_INTR_SOURCES);
 260:Generated_Source\PSoC4/USB_UART.c **** 
 261:Generated_Source\PSoC4/USB_UART.c **** #if (USB_UART_SCB_IRQ_INTERNAL)
 262:Generated_Source\PSoC4/USB_UART.c ****     USB_UART_ClearPendingInt();
 263:Generated_Source\PSoC4/USB_UART.c **** #endif /* (USB_UART_SCB_IRQ_INTERNAL) */
 264:Generated_Source\PSoC4/USB_UART.c **** }
 265:Generated_Source\PSoC4/USB_UART.c **** 
 266:Generated_Source\PSoC4/USB_UART.c **** 
 267:Generated_Source\PSoC4/USB_UART.c **** /*******************************************************************************
 268:Generated_Source\PSoC4/USB_UART.c **** * Function Name: USB_UART_SetRxFifoLevel
 269:Generated_Source\PSoC4/USB_UART.c **** ****************************************************************************//**
 270:Generated_Source\PSoC4/USB_UART.c **** *
ARM GAS  C:\Users\AFDHAL~1\AppData\Local\Temp\cc3OtZUa.s 			page 7


 271:Generated_Source\PSoC4/USB_UART.c **** *  Sets level in the RX FIFO to generate a RX level interrupt.
 272:Generated_Source\PSoC4/USB_UART.c **** *  When the RX FIFO has more entries than the RX FIFO level an RX level
 273:Generated_Source\PSoC4/USB_UART.c **** *  interrupt request is generated.
 274:Generated_Source\PSoC4/USB_UART.c **** *
 275:Generated_Source\PSoC4/USB_UART.c **** *  \param level: Level in the RX FIFO to generate RX level interrupt.
 276:Generated_Source\PSoC4/USB_UART.c **** *   The range of valid level values is between 0 and RX FIFO depth - 1.
 277:Generated_Source\PSoC4/USB_UART.c **** *
 278:Generated_Source\PSoC4/USB_UART.c **** *******************************************************************************/
 279:Generated_Source\PSoC4/USB_UART.c **** void USB_UART_SetRxFifoLevel(uint32 level)
 280:Generated_Source\PSoC4/USB_UART.c **** {
 281:Generated_Source\PSoC4/USB_UART.c ****     uint32 rxFifoCtrl;
 282:Generated_Source\PSoC4/USB_UART.c **** 
 283:Generated_Source\PSoC4/USB_UART.c ****     rxFifoCtrl = USB_UART_RX_FIFO_CTRL_REG;
 284:Generated_Source\PSoC4/USB_UART.c **** 
 285:Generated_Source\PSoC4/USB_UART.c ****     rxFifoCtrl &= ((uint32) ~USB_UART_RX_FIFO_CTRL_TRIGGER_LEVEL_MASK); /* Clear level mask bits */
 286:Generated_Source\PSoC4/USB_UART.c ****     rxFifoCtrl |= ((uint32) (USB_UART_RX_FIFO_CTRL_TRIGGER_LEVEL_MASK & level));
 287:Generated_Source\PSoC4/USB_UART.c **** 
 288:Generated_Source\PSoC4/USB_UART.c ****     USB_UART_RX_FIFO_CTRL_REG = rxFifoCtrl;
 289:Generated_Source\PSoC4/USB_UART.c **** }
 290:Generated_Source\PSoC4/USB_UART.c **** 
 291:Generated_Source\PSoC4/USB_UART.c **** 
 292:Generated_Source\PSoC4/USB_UART.c **** /*******************************************************************************
 293:Generated_Source\PSoC4/USB_UART.c **** * Function Name: USB_UART_SetTxFifoLevel
 294:Generated_Source\PSoC4/USB_UART.c **** ****************************************************************************//**
 295:Generated_Source\PSoC4/USB_UART.c **** *
 296:Generated_Source\PSoC4/USB_UART.c **** *  Sets level in the TX FIFO to generate a TX level interrupt.
 297:Generated_Source\PSoC4/USB_UART.c **** *  When the TX FIFO has less entries than the TX FIFO level an TX level
 298:Generated_Source\PSoC4/USB_UART.c **** *  interrupt request is generated.
 299:Generated_Source\PSoC4/USB_UART.c **** *
 300:Generated_Source\PSoC4/USB_UART.c **** *  \param level: Level in the TX FIFO to generate TX level interrupt.
 301:Generated_Source\PSoC4/USB_UART.c **** *   The range of valid level values is between 0 and TX FIFO depth - 1.
 302:Generated_Source\PSoC4/USB_UART.c **** *
 303:Generated_Source\PSoC4/USB_UART.c **** *******************************************************************************/
 304:Generated_Source\PSoC4/USB_UART.c **** void USB_UART_SetTxFifoLevel(uint32 level)
 305:Generated_Source\PSoC4/USB_UART.c **** {
 306:Generated_Source\PSoC4/USB_UART.c ****     uint32 txFifoCtrl;
 307:Generated_Source\PSoC4/USB_UART.c **** 
 308:Generated_Source\PSoC4/USB_UART.c ****     txFifoCtrl = USB_UART_TX_FIFO_CTRL_REG;
 309:Generated_Source\PSoC4/USB_UART.c **** 
 310:Generated_Source\PSoC4/USB_UART.c ****     txFifoCtrl &= ((uint32) ~USB_UART_TX_FIFO_CTRL_TRIGGER_LEVEL_MASK); /* Clear level mask bits */
 311:Generated_Source\PSoC4/USB_UART.c ****     txFifoCtrl |= ((uint32) (USB_UART_TX_FIFO_CTRL_TRIGGER_LEVEL_MASK & level));
 312:Generated_Source\PSoC4/USB_UART.c **** 
 313:Generated_Source\PSoC4/USB_UART.c ****     USB_UART_TX_FIFO_CTRL_REG = txFifoCtrl;
 314:Generated_Source\PSoC4/USB_UART.c **** }
 315:Generated_Source\PSoC4/USB_UART.c **** 
 316:Generated_Source\PSoC4/USB_UART.c **** 
 317:Generated_Source\PSoC4/USB_UART.c **** #if (USB_UART_SCB_IRQ_INTERNAL)
 318:Generated_Source\PSoC4/USB_UART.c ****     /*******************************************************************************
 319:Generated_Source\PSoC4/USB_UART.c ****     * Function Name: USB_UART_SetCustomInterruptHandler
 320:Generated_Source\PSoC4/USB_UART.c ****     ****************************************************************************//**
 321:Generated_Source\PSoC4/USB_UART.c ****     *
 322:Generated_Source\PSoC4/USB_UART.c ****     *  Registers a function to be called by the internal interrupt handler.
 323:Generated_Source\PSoC4/USB_UART.c ****     *  First the function that is registered is called, then the internal interrupt
 324:Generated_Source\PSoC4/USB_UART.c ****     *  handler performs any operation such as software buffer management functions
 325:Generated_Source\PSoC4/USB_UART.c ****     *  before the interrupt returns.  It is the user's responsibility not to break
 326:Generated_Source\PSoC4/USB_UART.c ****     *  the software buffer operations. Only one custom handler is supported, which
 327:Generated_Source\PSoC4/USB_UART.c ****     *  is the function provided by the most recent call.
ARM GAS  C:\Users\AFDHAL~1\AppData\Local\Temp\cc3OtZUa.s 			page 8


 328:Generated_Source\PSoC4/USB_UART.c ****     *  At the initialization time no custom handler is registered.
 329:Generated_Source\PSoC4/USB_UART.c ****     *
 330:Generated_Source\PSoC4/USB_UART.c ****     *  \param func: Pointer to the function to register.
 331:Generated_Source\PSoC4/USB_UART.c ****     *        The value NULL indicates to remove the current custom interrupt
 332:Generated_Source\PSoC4/USB_UART.c ****     *        handler.
 333:Generated_Source\PSoC4/USB_UART.c ****     *
 334:Generated_Source\PSoC4/USB_UART.c ****     *******************************************************************************/
 335:Generated_Source\PSoC4/USB_UART.c ****     void USB_UART_SetCustomInterruptHandler(void (*func)(void))
 336:Generated_Source\PSoC4/USB_UART.c ****     {
 337:Generated_Source\PSoC4/USB_UART.c ****     #if !defined (CY_REMOVE_USB_UART_CUSTOM_INTR_HANDLER)
 338:Generated_Source\PSoC4/USB_UART.c ****         USB_UART_customIntrHandler = func; /* Register interrupt handler */
 339:Generated_Source\PSoC4/USB_UART.c ****     #else
 340:Generated_Source\PSoC4/USB_UART.c ****         if (NULL != func)
 341:Generated_Source\PSoC4/USB_UART.c ****         {
 342:Generated_Source\PSoC4/USB_UART.c ****             /* Suppress compiler warning */
 343:Generated_Source\PSoC4/USB_UART.c ****         }
 344:Generated_Source\PSoC4/USB_UART.c ****     #endif /* !defined (CY_REMOVE_USB_UART_CUSTOM_INTR_HANDLER) */
 345:Generated_Source\PSoC4/USB_UART.c ****     }
 346:Generated_Source\PSoC4/USB_UART.c **** #endif /* (USB_UART_SCB_IRQ_INTERNAL) */
 347:Generated_Source\PSoC4/USB_UART.c **** 
 348:Generated_Source\PSoC4/USB_UART.c **** 
 349:Generated_Source\PSoC4/USB_UART.c **** /*******************************************************************************
 350:Generated_Source\PSoC4/USB_UART.c **** * Function Name: USB_UART_ScbModeEnableIntr
 351:Generated_Source\PSoC4/USB_UART.c **** ****************************************************************************//**
 352:Generated_Source\PSoC4/USB_UART.c **** *
 353:Generated_Source\PSoC4/USB_UART.c **** *  Enables an interrupt for a specific mode.
 354:Generated_Source\PSoC4/USB_UART.c **** *
 355:Generated_Source\PSoC4/USB_UART.c **** *******************************************************************************/
 356:Generated_Source\PSoC4/USB_UART.c **** static void USB_UART_ScbEnableIntr(void)
 357:Generated_Source\PSoC4/USB_UART.c **** {
 358:Generated_Source\PSoC4/USB_UART.c **** #if (USB_UART_SCB_IRQ_INTERNAL)
 359:Generated_Source\PSoC4/USB_UART.c ****     /* Enable interrupt in NVIC */
 360:Generated_Source\PSoC4/USB_UART.c ****     #if (USB_UART_SCB_MODE_UNCONFIG_CONST_CFG)
 361:Generated_Source\PSoC4/USB_UART.c ****         if (0u != USB_UART_scbEnableIntr)
 362:Generated_Source\PSoC4/USB_UART.c ****         {
 363:Generated_Source\PSoC4/USB_UART.c ****             USB_UART_EnableInt();
 364:Generated_Source\PSoC4/USB_UART.c ****         }
 365:Generated_Source\PSoC4/USB_UART.c **** 
 366:Generated_Source\PSoC4/USB_UART.c ****     #else
 367:Generated_Source\PSoC4/USB_UART.c ****         USB_UART_EnableInt();
  72              		.loc 1 367 0
  73 000e 0B20     		movs	r0, #11
  74 0010 FFF7FEFF 		bl	CyIntEnable
  75              	.LVL1:
  76              	.LBE15:
  77              	.LBE14:
 192:Generated_Source\PSoC4/USB_UART.c **** 
  78              		.loc 1 192 0
  79              		@ sp needed
  80              	.LBB16:
  81              	.LBB17:
 368:Generated_Source\PSoC4/USB_UART.c **** 
 369:Generated_Source\PSoC4/USB_UART.c ****     #endif /* (USB_UART_SCB_MODE_UNCONFIG_CONST_CFG) */
 370:Generated_Source\PSoC4/USB_UART.c **** #endif /* (USB_UART_SCB_IRQ_INTERNAL) */
 371:Generated_Source\PSoC4/USB_UART.c **** }
 372:Generated_Source\PSoC4/USB_UART.c **** 
 373:Generated_Source\PSoC4/USB_UART.c **** 
ARM GAS  C:\Users\AFDHAL~1\AppData\Local\Temp\cc3OtZUa.s 			page 9


 374:Generated_Source\PSoC4/USB_UART.c **** /*******************************************************************************
 375:Generated_Source\PSoC4/USB_UART.c **** * Function Name: USB_UART_ScbModePostEnable
 376:Generated_Source\PSoC4/USB_UART.c **** ****************************************************************************//**
 377:Generated_Source\PSoC4/USB_UART.c **** *
 378:Generated_Source\PSoC4/USB_UART.c **** *  Calls the PostEnable function for a specific operation mode.
 379:Generated_Source\PSoC4/USB_UART.c **** *
 380:Generated_Source\PSoC4/USB_UART.c **** *******************************************************************************/
 381:Generated_Source\PSoC4/USB_UART.c **** static void USB_UART_ScbModePostEnable(void)
 382:Generated_Source\PSoC4/USB_UART.c **** {
 383:Generated_Source\PSoC4/USB_UART.c **** #if (USB_UART_SCB_MODE_UNCONFIG_CONST_CFG)
 384:Generated_Source\PSoC4/USB_UART.c **** #if (!USB_UART_CY_SCBIP_V1)
 385:Generated_Source\PSoC4/USB_UART.c ****     if (USB_UART_SCB_MODE_SPI_RUNTM_CFG)
 386:Generated_Source\PSoC4/USB_UART.c ****     {
 387:Generated_Source\PSoC4/USB_UART.c ****         USB_UART_SpiPostEnable();
 388:Generated_Source\PSoC4/USB_UART.c ****     }
 389:Generated_Source\PSoC4/USB_UART.c ****     else if (USB_UART_SCB_MODE_UART_RUNTM_CFG)
 390:Generated_Source\PSoC4/USB_UART.c ****     {
 391:Generated_Source\PSoC4/USB_UART.c ****         USB_UART_UartPostEnable();
 392:Generated_Source\PSoC4/USB_UART.c ****     }
 393:Generated_Source\PSoC4/USB_UART.c ****     else
 394:Generated_Source\PSoC4/USB_UART.c ****     {
 395:Generated_Source\PSoC4/USB_UART.c ****         /* Unknown mode: do nothing */
 396:Generated_Source\PSoC4/USB_UART.c ****     }
 397:Generated_Source\PSoC4/USB_UART.c **** #endif /* (!USB_UART_CY_SCBIP_V1) */
 398:Generated_Source\PSoC4/USB_UART.c **** 
 399:Generated_Source\PSoC4/USB_UART.c **** #elif (USB_UART_SCB_MODE_SPI_CONST_CFG)
 400:Generated_Source\PSoC4/USB_UART.c ****     USB_UART_SpiPostEnable();
 401:Generated_Source\PSoC4/USB_UART.c **** 
 402:Generated_Source\PSoC4/USB_UART.c **** #elif (USB_UART_SCB_MODE_UART_CONST_CFG)
 403:Generated_Source\PSoC4/USB_UART.c ****     USB_UART_UartPostEnable();
  82              		.loc 1 403 0
  83 0014 FFF7FEFF 		bl	USB_UART_UartPostEnable
  84              	.LVL2:
  85              	.LBE17:
  86              	.LBE16:
 192:Generated_Source\PSoC4/USB_UART.c **** 
  87              		.loc 1 192 0
  88 0018 10BD     		pop	{r4, pc}
  89              	.L4:
  90 001a C046     		.align	2
  91              	.L3:
  92 001c 00002740 		.word	1076297728
  93              		.cfi_endproc
  94              	.LFE2:
  95              		.size	USB_UART_Enable, .-USB_UART_Enable
  96              		.section	.text.USB_UART_Start,"ax",%progbits
  97              		.align	2
  98              		.global	USB_UART_Start
  99              		.code	16
 100              		.thumb_func
 101              		.type	USB_UART_Start, %function
 102              	USB_UART_Start:
 103              	.LFB3:
 211:Generated_Source\PSoC4/USB_UART.c ****     if (0u == USB_UART_initVar)
 104              		.loc 1 211 0
 105              		.cfi_startproc
 106              		@ args = 0, pretend = 0, frame = 0
ARM GAS  C:\Users\AFDHAL~1\AppData\Local\Temp\cc3OtZUa.s 			page 10


 107              		@ frame_needed = 0, uses_anonymous_args = 0
 108 0000 10B5     		push	{r4, lr}
 109              		.cfi_def_cfa_offset 8
 110              		.cfi_offset 4, -8
 111              		.cfi_offset 14, -4
 212:Generated_Source\PSoC4/USB_UART.c ****     {
 112              		.loc 1 212 0
 113 0002 0A4C     		ldr	r4, .L8
 114 0004 2378     		ldrb	r3, [r4]
 115 0006 002B     		cmp	r3, #0
 116 0008 03D1     		bne	.L6
 117              	.LBB26:
 118              	.LBB27:
 142:Generated_Source\PSoC4/USB_UART.c **** 
 119              		.loc 1 142 0
 120 000a FFF7FEFF 		bl	USB_UART_UartInit
 121              	.LVL3:
 122              	.LBE27:
 123              	.LBE26:
 215:Generated_Source\PSoC4/USB_UART.c ****     }
 124              		.loc 1 215 0
 125 000e 0123     		movs	r3, #1
 126 0010 2370     		strb	r3, [r4]
 127              	.L6:
 128              	.LBB28:
 129              	.LBB29:
 185:Generated_Source\PSoC4/USB_UART.c **** 
 130              		.loc 1 185 0
 131 0012 8021     		movs	r1, #128
 132 0014 064A     		ldr	r2, .L8+4
 133 0016 0906     		lsls	r1, r1, #24
 134 0018 1368     		ldr	r3, [r2]
 135              	.LBB30:
 136              	.LBB31:
 367:Generated_Source\PSoC4/USB_UART.c **** 
 137              		.loc 1 367 0
 138 001a 0B20     		movs	r0, #11
 139              	.LBE31:
 140              	.LBE30:
 185:Generated_Source\PSoC4/USB_UART.c **** 
 141              		.loc 1 185 0
 142 001c 0B43     		orrs	r3, r1
 143 001e 1360     		str	r3, [r2]
 144              	.LBB33:
 145              	.LBB32:
 367:Generated_Source\PSoC4/USB_UART.c **** 
 146              		.loc 1 367 0
 147 0020 FFF7FEFF 		bl	CyIntEnable
 148              	.LVL4:
 149              	.LBE32:
 150              	.LBE33:
 151              	.LBE29:
 152              	.LBE28:
 219:Generated_Source\PSoC4/USB_UART.c **** 
 153              		.loc 1 219 0
 154              		@ sp needed
 155              	.LBB37:
ARM GAS  C:\Users\AFDHAL~1\AppData\Local\Temp\cc3OtZUa.s 			page 11


 156              	.LBB36:
 157              	.LBB34:
 158              	.LBB35:
 159              		.loc 1 403 0
 160 0024 FFF7FEFF 		bl	USB_UART_UartPostEnable
 161              	.LVL5:
 162              	.LBE35:
 163              	.LBE34:
 164              	.LBE36:
 165              	.LBE37:
 219:Generated_Source\PSoC4/USB_UART.c **** 
 166              		.loc 1 219 0
 167 0028 10BD     		pop	{r4, pc}
 168              	.L9:
 169 002a C046     		.align	2
 170              	.L8:
 171 002c 00000000 		.word	.LANCHOR0
 172 0030 00002740 		.word	1076297728
 173              		.cfi_endproc
 174              	.LFE3:
 175              		.size	USB_UART_Start, .-USB_UART_Start
 176              		.section	.text.USB_UART_Stop,"ax",%progbits
 177              		.align	2
 178              		.global	USB_UART_Stop
 179              		.code	16
 180              		.thumb_func
 181              		.type	USB_UART_Stop, %function
 182              	USB_UART_Stop:
 183              	.LFB4:
 240:Generated_Source\PSoC4/USB_UART.c **** #if (USB_UART_SCB_IRQ_INTERNAL)
 184              		.loc 1 240 0
 185              		.cfi_startproc
 186              		@ args = 0, pretend = 0, frame = 0
 187              		@ frame_needed = 0, uses_anonymous_args = 0
 188 0000 10B5     		push	{r4, lr}
 189              		.cfi_def_cfa_offset 8
 190              		.cfi_offset 4, -8
 191              		.cfi_offset 14, -4
 242:Generated_Source\PSoC4/USB_UART.c **** #endif /* (USB_UART_SCB_IRQ_INTERNAL) */
 192              		.loc 1 242 0
 193 0002 0B20     		movs	r0, #11
 194 0004 FFF7FEFF 		bl	CyIntDisable
 195              	.LVL6:
 196              	.LBB38:
 197              	.LBB39:
 404:Generated_Source\PSoC4/USB_UART.c **** 
 405:Generated_Source\PSoC4/USB_UART.c **** #else
 406:Generated_Source\PSoC4/USB_UART.c ****     /* Unknown mode: do nothing */
 407:Generated_Source\PSoC4/USB_UART.c **** #endif /* (USB_UART_SCB_MODE_UNCONFIG_CONST_CFG) */
 408:Generated_Source\PSoC4/USB_UART.c **** }
 409:Generated_Source\PSoC4/USB_UART.c **** 
 410:Generated_Source\PSoC4/USB_UART.c **** 
 411:Generated_Source\PSoC4/USB_UART.c **** /*******************************************************************************
 412:Generated_Source\PSoC4/USB_UART.c **** * Function Name: USB_UART_ScbModeStop
 413:Generated_Source\PSoC4/USB_UART.c **** ****************************************************************************//**
 414:Generated_Source\PSoC4/USB_UART.c **** *
 415:Generated_Source\PSoC4/USB_UART.c **** *  Calls the Stop function for a specific operation mode.
ARM GAS  C:\Users\AFDHAL~1\AppData\Local\Temp\cc3OtZUa.s 			page 12


 416:Generated_Source\PSoC4/USB_UART.c **** *
 417:Generated_Source\PSoC4/USB_UART.c **** *******************************************************************************/
 418:Generated_Source\PSoC4/USB_UART.c **** static void USB_UART_ScbModeStop(void)
 419:Generated_Source\PSoC4/USB_UART.c **** {
 420:Generated_Source\PSoC4/USB_UART.c **** #if (USB_UART_SCB_MODE_UNCONFIG_CONST_CFG)
 421:Generated_Source\PSoC4/USB_UART.c ****     if (USB_UART_SCB_MODE_I2C_RUNTM_CFG)
 422:Generated_Source\PSoC4/USB_UART.c ****     {
 423:Generated_Source\PSoC4/USB_UART.c ****         USB_UART_I2CStop();
 424:Generated_Source\PSoC4/USB_UART.c ****     }
 425:Generated_Source\PSoC4/USB_UART.c ****     else if (USB_UART_SCB_MODE_EZI2C_RUNTM_CFG)
 426:Generated_Source\PSoC4/USB_UART.c ****     {
 427:Generated_Source\PSoC4/USB_UART.c ****         USB_UART_EzI2CStop();
 428:Generated_Source\PSoC4/USB_UART.c ****     }
 429:Generated_Source\PSoC4/USB_UART.c **** #if (!USB_UART_CY_SCBIP_V1)
 430:Generated_Source\PSoC4/USB_UART.c ****     else if (USB_UART_SCB_MODE_SPI_RUNTM_CFG)
 431:Generated_Source\PSoC4/USB_UART.c ****     {
 432:Generated_Source\PSoC4/USB_UART.c ****         USB_UART_SpiStop();
 433:Generated_Source\PSoC4/USB_UART.c ****     }
 434:Generated_Source\PSoC4/USB_UART.c ****     else if (USB_UART_SCB_MODE_UART_RUNTM_CFG)
 435:Generated_Source\PSoC4/USB_UART.c ****     {
 436:Generated_Source\PSoC4/USB_UART.c ****         USB_UART_UartStop();
 437:Generated_Source\PSoC4/USB_UART.c ****     }
 438:Generated_Source\PSoC4/USB_UART.c **** #endif /* (!USB_UART_CY_SCBIP_V1) */
 439:Generated_Source\PSoC4/USB_UART.c ****     else
 440:Generated_Source\PSoC4/USB_UART.c ****     {
 441:Generated_Source\PSoC4/USB_UART.c ****         /* Unknown mode: do nothing */
 442:Generated_Source\PSoC4/USB_UART.c ****     }
 443:Generated_Source\PSoC4/USB_UART.c **** #elif (USB_UART_SCB_MODE_I2C_CONST_CFG)
 444:Generated_Source\PSoC4/USB_UART.c ****     USB_UART_I2CStop();
 445:Generated_Source\PSoC4/USB_UART.c **** 
 446:Generated_Source\PSoC4/USB_UART.c **** #elif (USB_UART_SCB_MODE_EZI2C_CONST_CFG)
 447:Generated_Source\PSoC4/USB_UART.c ****     USB_UART_EzI2CStop();
 448:Generated_Source\PSoC4/USB_UART.c **** 
 449:Generated_Source\PSoC4/USB_UART.c **** #elif (USB_UART_SCB_MODE_SPI_CONST_CFG)
 450:Generated_Source\PSoC4/USB_UART.c ****     USB_UART_SpiStop();
 451:Generated_Source\PSoC4/USB_UART.c **** 
 452:Generated_Source\PSoC4/USB_UART.c **** #elif (USB_UART_SCB_MODE_UART_CONST_CFG)
 453:Generated_Source\PSoC4/USB_UART.c ****     USB_UART_UartStop();
 198              		.loc 1 453 0
 199 0008 FFF7FEFF 		bl	USB_UART_UartStop
 200              	.LVL7:
 201              	.LBE39:
 202              	.LBE38:
 249:Generated_Source\PSoC4/USB_UART.c **** 
 203              		.loc 1 249 0
 204 000c 054A     		ldr	r2, .L11
 262:Generated_Source\PSoC4/USB_UART.c **** #endif /* (USB_UART_SCB_IRQ_INTERNAL) */
 205              		.loc 1 262 0
 206 000e 0B20     		movs	r0, #11
 249:Generated_Source\PSoC4/USB_UART.c **** 
 207              		.loc 1 249 0
 208 0010 1368     		ldr	r3, [r2]
 264:Generated_Source\PSoC4/USB_UART.c **** 
 209              		.loc 1 264 0
 210              		@ sp needed
 249:Generated_Source\PSoC4/USB_UART.c **** 
 211              		.loc 1 249 0
ARM GAS  C:\Users\AFDHAL~1\AppData\Local\Temp\cc3OtZUa.s 			page 13


 212 0012 5B00     		lsls	r3, r3, #1
 213 0014 5B08     		lsrs	r3, r3, #1
 214 0016 1360     		str	r3, [r2]
 259:Generated_Source\PSoC4/USB_UART.c **** 
 215              		.loc 1 259 0
 216 0018 0022     		movs	r2, #0
 217 001a 034B     		ldr	r3, .L11+4
 218 001c 1A60     		str	r2, [r3]
 262:Generated_Source\PSoC4/USB_UART.c **** #endif /* (USB_UART_SCB_IRQ_INTERNAL) */
 219              		.loc 1 262 0
 220 001e FFF7FEFF 		bl	CyIntClearPending
 221              	.LVL8:
 264:Generated_Source\PSoC4/USB_UART.c **** 
 222              		.loc 1 264 0
 223 0022 10BD     		pop	{r4, pc}
 224              	.L12:
 225              		.align	2
 226              	.L11:
 227 0024 00002740 		.word	1076297728
 228 0028 880F2740 		.word	1076301704
 229              		.cfi_endproc
 230              	.LFE4:
 231              		.size	USB_UART_Stop, .-USB_UART_Stop
 232              		.section	.text.USB_UART_SetRxFifoLevel,"ax",%progbits
 233              		.align	2
 234              		.global	USB_UART_SetRxFifoLevel
 235              		.code	16
 236              		.thumb_func
 237              		.type	USB_UART_SetRxFifoLevel, %function
 238              	USB_UART_SetRxFifoLevel:
 239              	.LFB5:
 280:Generated_Source\PSoC4/USB_UART.c ****     uint32 rxFifoCtrl;
 240              		.loc 1 280 0
 241              		.cfi_startproc
 242              		@ args = 0, pretend = 0, frame = 0
 243              		@ frame_needed = 0, uses_anonymous_args = 0
 244              		@ link register save eliminated.
 245              	.LVL9:
 285:Generated_Source\PSoC4/USB_UART.c ****     rxFifoCtrl |= ((uint32) (USB_UART_RX_FIFO_CTRL_TRIGGER_LEVEL_MASK & level));
 246              		.loc 1 285 0
 247 0000 0F21     		movs	r1, #15
 283:Generated_Source\PSoC4/USB_UART.c **** 
 248              		.loc 1 283 0
 249 0002 034A     		ldr	r2, .L14
 286:Generated_Source\PSoC4/USB_UART.c **** 
 250              		.loc 1 286 0
 251 0004 0840     		ands	r0, r1
 252              	.LVL10:
 283:Generated_Source\PSoC4/USB_UART.c **** 
 253              		.loc 1 283 0
 254 0006 1368     		ldr	r3, [r2]
 255              	.LVL11:
 289:Generated_Source\PSoC4/USB_UART.c **** 
 256              		.loc 1 289 0
 257              		@ sp needed
 285:Generated_Source\PSoC4/USB_UART.c ****     rxFifoCtrl |= ((uint32) (USB_UART_RX_FIFO_CTRL_TRIGGER_LEVEL_MASK & level));
 258              		.loc 1 285 0
ARM GAS  C:\Users\AFDHAL~1\AppData\Local\Temp\cc3OtZUa.s 			page 14


 259 0008 8B43     		bics	r3, r1
 260              	.LVL12:
 286:Generated_Source\PSoC4/USB_UART.c **** 
 261              		.loc 1 286 0
 262 000a 1843     		orrs	r0, r3
 263              	.LVL13:
 288:Generated_Source\PSoC4/USB_UART.c **** }
 264              		.loc 1 288 0
 265 000c 1060     		str	r0, [r2]
 289:Generated_Source\PSoC4/USB_UART.c **** 
 266              		.loc 1 289 0
 267 000e 7047     		bx	lr
 268              	.L15:
 269              		.align	2
 270              	.L14:
 271 0010 04032740 		.word	1076298500
 272              		.cfi_endproc
 273              	.LFE5:
 274              		.size	USB_UART_SetRxFifoLevel, .-USB_UART_SetRxFifoLevel
 275              		.section	.text.USB_UART_SetTxFifoLevel,"ax",%progbits
 276              		.align	2
 277              		.global	USB_UART_SetTxFifoLevel
 278              		.code	16
 279              		.thumb_func
 280              		.type	USB_UART_SetTxFifoLevel, %function
 281              	USB_UART_SetTxFifoLevel:
 282              	.LFB6:
 305:Generated_Source\PSoC4/USB_UART.c ****     uint32 txFifoCtrl;
 283              		.loc 1 305 0
 284              		.cfi_startproc
 285              		@ args = 0, pretend = 0, frame = 0
 286              		@ frame_needed = 0, uses_anonymous_args = 0
 287              		@ link register save eliminated.
 288              	.LVL14:
 310:Generated_Source\PSoC4/USB_UART.c ****     txFifoCtrl |= ((uint32) (USB_UART_TX_FIFO_CTRL_TRIGGER_LEVEL_MASK & level));
 289              		.loc 1 310 0
 290 0000 0F21     		movs	r1, #15
 308:Generated_Source\PSoC4/USB_UART.c **** 
 291              		.loc 1 308 0
 292 0002 034A     		ldr	r2, .L17
 311:Generated_Source\PSoC4/USB_UART.c **** 
 293              		.loc 1 311 0
 294 0004 0840     		ands	r0, r1
 295              	.LVL15:
 308:Generated_Source\PSoC4/USB_UART.c **** 
 296              		.loc 1 308 0
 297 0006 1368     		ldr	r3, [r2]
 298              	.LVL16:
 314:Generated_Source\PSoC4/USB_UART.c **** 
 299              		.loc 1 314 0
 300              		@ sp needed
 310:Generated_Source\PSoC4/USB_UART.c ****     txFifoCtrl |= ((uint32) (USB_UART_TX_FIFO_CTRL_TRIGGER_LEVEL_MASK & level));
 301              		.loc 1 310 0
 302 0008 8B43     		bics	r3, r1
 303              	.LVL17:
 311:Generated_Source\PSoC4/USB_UART.c **** 
 304              		.loc 1 311 0
ARM GAS  C:\Users\AFDHAL~1\AppData\Local\Temp\cc3OtZUa.s 			page 15


 305 000a 1843     		orrs	r0, r3
 306              	.LVL18:
 313:Generated_Source\PSoC4/USB_UART.c **** }
 307              		.loc 1 313 0
 308 000c 1060     		str	r0, [r2]
 314:Generated_Source\PSoC4/USB_UART.c **** 
 309              		.loc 1 314 0
 310 000e 7047     		bx	lr
 311              	.L18:
 312              		.align	2
 313              	.L17:
 314 0010 04022740 		.word	1076298244
 315              		.cfi_endproc
 316              	.LFE6:
 317              		.size	USB_UART_SetTxFifoLevel, .-USB_UART_SetTxFifoLevel
 318              		.section	.text.USB_UART_SetCustomInterruptHandler,"ax",%progbits
 319              		.align	2
 320              		.global	USB_UART_SetCustomInterruptHandler
 321              		.code	16
 322              		.thumb_func
 323              		.type	USB_UART_SetCustomInterruptHandler, %function
 324              	USB_UART_SetCustomInterruptHandler:
 325              	.LFB7:
 336:Generated_Source\PSoC4/USB_UART.c ****     #if !defined (CY_REMOVE_USB_UART_CUSTOM_INTR_HANDLER)
 326              		.loc 1 336 0
 327              		.cfi_startproc
 328              		@ args = 0, pretend = 0, frame = 0
 329              		@ frame_needed = 0, uses_anonymous_args = 0
 330              		@ link register save eliminated.
 331              	.LVL19:
 338:Generated_Source\PSoC4/USB_UART.c ****     #else
 332              		.loc 1 338 0
 333 0000 014B     		ldr	r3, .L20
 345:Generated_Source\PSoC4/USB_UART.c **** #endif /* (USB_UART_SCB_IRQ_INTERNAL) */
 334              		.loc 1 345 0
 335              		@ sp needed
 338:Generated_Source\PSoC4/USB_UART.c ****     #else
 336              		.loc 1 338 0
 337 0002 5860     		str	r0, [r3, #4]
 345:Generated_Source\PSoC4/USB_UART.c **** #endif /* (USB_UART_SCB_IRQ_INTERNAL) */
 338              		.loc 1 345 0
 339 0004 7047     		bx	lr
 340              	.L21:
 341 0006 C046     		.align	2
 342              	.L20:
 343 0008 00000000 		.word	.LANCHOR0
 344              		.cfi_endproc
 345              	.LFE7:
 346              		.size	USB_UART_SetCustomInterruptHandler, .-USB_UART_SetCustomInterruptHandler
 347              		.global	USB_UART_customIntrHandler
 348              		.global	USB_UART_IntrTxMask
 349              		.global	USB_UART_initVar
 350              		.bss
 351              		.align	2
 352              		.set	.LANCHOR0,. + 0
 353              		.type	USB_UART_initVar, %object
 354              		.size	USB_UART_initVar, 1
ARM GAS  C:\Users\AFDHAL~1\AppData\Local\Temp\cc3OtZUa.s 			page 16


 355              	USB_UART_initVar:
 356 0000 00       		.space	1
 357 0001 000000   		.space	3
 358              		.type	USB_UART_customIntrHandler, %object
 359              		.size	USB_UART_customIntrHandler, 4
 360              	USB_UART_customIntrHandler:
 361 0004 00000000 		.space	4
 362              		.type	USB_UART_IntrTxMask, %object
 363              		.size	USB_UART_IntrTxMask, 2
 364              	USB_UART_IntrTxMask:
 365 0008 0000     		.space	2
 366              		.text
 367              	.Letext0:
 368              		.file 2 "Generated_Source\\PSoC4/cytypes.h"
 369              		.file 3 "Generated_Source\\PSoC4\\USB_UART_SPI_UART_PVT.h"
 370              		.file 4 "Generated_Source\\PSoC4/CyLib.h"