ARM GAS  C:\Users\AFDHAL~1\AppData\Local\Temp\cctqV8uQ.s 			page 1


   1              		.syntax unified
   2              		.cpu cortex-m0
   3              		.fpu softvfp
   4              		.eabi_attribute 20, 1
   5              		.eabi_attribute 21, 1
   6              		.eabi_attribute 23, 3
   7              		.eabi_attribute 24, 1
   8              		.eabi_attribute 25, 1
   9              		.eabi_attribute 26, 1
  10              		.eabi_attribute 30, 1
  11              		.eabi_attribute 34, 0
  12              		.eabi_attribute 18, 4
  13              		.thumb
  14              		.syntax unified
  15              		.file	"ring_buffer.c"
  16              		.text
  17              	.Ltext0:
  18              		.cfi_sections	.debug_frame
  19              		.section	.text.circular_buf_reset,"ax",%progbits
  20              		.align	2
  21              		.global	circular_buf_reset
  22              		.code	16
  23              		.thumb_func
  24              		.type	circular_buf_reset, %function
  25              	circular_buf_reset:
  26              	.LFB34:
  27              		.file 1 "ring_buffer.c"
   1:ring_buffer.c **** /*
   2:ring_buffer.c ****  * ring_buffer.c
   3:ring_buffer.c ****  *
   4:ring_buffer.c ****  *  Created on: 16 Mar 2018
   5:ring_buffer.c ****  *      Author: AfdhalAtiffTan
   6:ring_buffer.c ****  * 
   7:ring_buffer.c ****  * Circular buffer implementation was taken from: https://github.com/embeddedartistry/embedded-reso
   8:ring_buffer.c ****  * Lightly modified to accept uint16_t
   9:ring_buffer.c ****  */
  10:ring_buffer.c **** 
  11:ring_buffer.c **** #include "ring_buffer.h"
  12:ring_buffer.c **** 
  13:ring_buffer.c **** #define BUF_SIZE 256 //set the buffer size
  14:ring_buffer.c **** 
  15:ring_buffer.c **** //<embeddedartistry> 
  16:ring_buffer.c **** /* https://embeddedartistry.com/blog/2017/4/6/circular-buffers-in-cc */
  17:ring_buffer.c **** 
  18:ring_buffer.c **** typedef struct {
  19:ring_buffer.c **** 	uint16_t *  buffer;
  20:ring_buffer.c **** 	size_t      head;
  21:ring_buffer.c **** 	size_t      tail;
  22:ring_buffer.c **** 	size_t      size; //of the buffer
  23:ring_buffer.c **** }   circular_buf_t;
  24:ring_buffer.c **** 
  25:ring_buffer.c **** /**
  26:ring_buffer.c **** * Important Usage Note: This library reserves one spare byte for queue-full detection
  27:ring_buffer.c **** * Otherwise, corner cases and detecting difference between full/empty is hard.
  28:ring_buffer.c **** * You are not seeing an accidental off-by-one.
  29:ring_buffer.c **** */
  30:ring_buffer.c **** 
ARM GAS  C:\Users\AFDHAL~1\AppData\Local\Temp\cctqV8uQ.s 			page 2


  31:ring_buffer.c **** int circular_buf_reset(circular_buf_t * cbuf);
  32:ring_buffer.c **** int circular_buf_put(circular_buf_t * cbuf, uint16_t data);
  33:ring_buffer.c **** //TODO: int circular_buf_put_range(circular_buf_t cbuf, uint8_t * data, size_t len);
  34:ring_buffer.c **** int circular_buf_get(circular_buf_t * cbuf, uint16_t * data);
  35:ring_buffer.c **** //TODO: int circular_buf_get_range(circular_buf_t cbuf, uint8_t *data, size_t len);
  36:ring_buffer.c **** bool circular_buf_empty(circular_buf_t cbuf);
  37:ring_buffer.c **** bool circular_buf_full(circular_buf_t cbuf);
  38:ring_buffer.c **** 
  39:ring_buffer.c **** int circular_buf_reset(circular_buf_t * cbuf)
  40:ring_buffer.c **** {
  28              		.loc 1 40 0
  29              		.cfi_startproc
  30              		@ args = 0, pretend = 0, frame = 0
  31              		@ frame_needed = 0, uses_anonymous_args = 0
  32              		@ link register save eliminated.
  33              	.LVL0:
  41:ring_buffer.c ****     int r = -1;
  42:ring_buffer.c **** 
  43:ring_buffer.c ****     if(cbuf)
  34              		.loc 1 43 0
  35 0000 0028     		cmp	r0, #0
  36 0002 04D0     		beq	.L3
  44:ring_buffer.c ****     {
  45:ring_buffer.c ****         cbuf->head = 0;
  37              		.loc 1 45 0
  38 0004 0023     		movs	r3, #0
  39 0006 4360     		str	r3, [r0, #4]
  46:ring_buffer.c ****         cbuf->tail = 0;
  40              		.loc 1 46 0
  41 0008 8360     		str	r3, [r0, #8]
  42              	.LVL1:
  47:ring_buffer.c ****         r = 0;
  43              		.loc 1 47 0
  44 000a 0020     		movs	r0, #0
  45              	.LVL2:
  46 000c 01E0     		b	.L2
  47              	.LVL3:
  48              	.L3:
  41:ring_buffer.c **** 
  49              		.loc 1 41 0
  50 000e 0120     		movs	r0, #1
  51              	.LVL4:
  52 0010 4042     		rsbs	r0, r0, #0
  53              	.LVL5:
  54              	.L2:
  48:ring_buffer.c ****     }
  49:ring_buffer.c **** 
  50:ring_buffer.c ****     return r;
  51:ring_buffer.c **** }
  55              		.loc 1 51 0
  56              		@ sp needed
  57 0012 7047     		bx	lr
  58              		.cfi_endproc
  59              	.LFE34:
  60              		.size	circular_buf_reset, .-circular_buf_reset
  61              		.global	__aeabi_uidivmod
  62              		.section	.text.circular_buf_put,"ax",%progbits
ARM GAS  C:\Users\AFDHAL~1\AppData\Local\Temp\cctqV8uQ.s 			page 3


  63              		.align	2
  64              		.global	circular_buf_put
  65              		.code	16
  66              		.thumb_func
  67              		.type	circular_buf_put, %function
  68              	circular_buf_put:
  69              	.LFB35:
  52:ring_buffer.c **** 
  53:ring_buffer.c **** int circular_buf_put(circular_buf_t * cbuf, uint16_t data)
  54:ring_buffer.c **** {
  70              		.loc 1 54 0
  71              		.cfi_startproc
  72              		@ args = 0, pretend = 0, frame = 0
  73              		@ frame_needed = 0, uses_anonymous_args = 0
  74              	.LVL6:
  75 0000 70B5     		push	{r4, r5, r6, lr}
  76              		.cfi_def_cfa_offset 16
  77              		.cfi_offset 4, -16
  78              		.cfi_offset 5, -12
  79              		.cfi_offset 6, -8
  80              		.cfi_offset 14, -4
  81 0002 041E     		subs	r4, r0, #0
  82              	.LVL7:
  55:ring_buffer.c ****     int r = -1;
  56:ring_buffer.c **** 
  57:ring_buffer.c ****     if(cbuf)
  83              		.loc 1 57 0
  84 0004 14D0     		beq	.L6
  58:ring_buffer.c ****     {
  59:ring_buffer.c ****         cbuf->buffer[cbuf->head] = data;
  85              		.loc 1 59 0
  86 0006 4368     		ldr	r3, [r0, #4]
  87 0008 5B00     		lsls	r3, r3, #1
  88 000a 0268     		ldr	r2, [r0]
  89 000c D152     		strh	r1, [r2, r3]
  60:ring_buffer.c ****         cbuf->head = (cbuf->head + 1) % cbuf->size;
  90              		.loc 1 60 0
  91 000e 4368     		ldr	r3, [r0, #4]
  92 0010 581C     		adds	r0, r3, #1
  93              	.LVL8:
  94 0012 E568     		ldr	r5, [r4, #12]
  95 0014 2900     		movs	r1, r5
  96              	.LVL9:
  97 0016 FFF7FEFF 		bl	__aeabi_uidivmod
  98              	.LVL10:
  99 001a 6160     		str	r1, [r4, #4]
  61:ring_buffer.c **** 
  62:ring_buffer.c ****         if(cbuf->head == cbuf->tail)
 100              		.loc 1 62 0
 101 001c A068     		ldr	r0, [r4, #8]
 102 001e 8142     		cmp	r1, r0
 103 0020 09D1     		bne	.L7
  63:ring_buffer.c ****         {
  64:ring_buffer.c ****             cbuf->tail = (cbuf->tail + 1) % cbuf->size;
 104              		.loc 1 64 0
 105 0022 0130     		adds	r0, r0, #1
 106 0024 2900     		movs	r1, r5
ARM GAS  C:\Users\AFDHAL~1\AppData\Local\Temp\cctqV8uQ.s 			page 4


 107 0026 FFF7FEFF 		bl	__aeabi_uidivmod
 108              	.LVL11:
 109 002a A160     		str	r1, [r4, #8]
  65:ring_buffer.c ****         }
  66:ring_buffer.c **** 
  67:ring_buffer.c ****         r = 0;
 110              		.loc 1 67 0
 111 002c 0020     		movs	r0, #0
 112 002e 03E0     		b	.L5
 113              	.LVL12:
 114              	.L6:
  55:ring_buffer.c **** 
 115              		.loc 1 55 0
 116 0030 0120     		movs	r0, #1
 117              	.LVL13:
 118 0032 4042     		rsbs	r0, r0, #0
 119 0034 00E0     		b	.L5
 120              	.LVL14:
 121              	.L7:
 122              		.loc 1 67 0
 123 0036 0020     		movs	r0, #0
 124              	.L5:
 125              	.LVL15:
  68:ring_buffer.c ****     }
  69:ring_buffer.c **** 
  70:ring_buffer.c ****     return r;
  71:ring_buffer.c **** }
 126              		.loc 1 71 0
 127              		@ sp needed
 128              	.LVL16:
 129 0038 70BD     		pop	{r4, r5, r6, pc}
 130              		.cfi_endproc
 131              	.LFE35:
 132              		.size	circular_buf_put, .-circular_buf_put
 133 003a C046     		.section	.text.circular_buf_empty,"ax",%progbits
 134              		.align	2
 135              		.global	circular_buf_empty
 136              		.code	16
 137              		.thumb_func
 138              		.type	circular_buf_empty, %function
 139              	circular_buf_empty:
 140              	.LFB37:
  72:ring_buffer.c **** 
  73:ring_buffer.c **** int circular_buf_get(circular_buf_t * cbuf, uint16_t * data)
  74:ring_buffer.c **** {
  75:ring_buffer.c ****     int r = -1;
  76:ring_buffer.c **** 
  77:ring_buffer.c ****     if(cbuf && data && !circular_buf_empty(*cbuf))
  78:ring_buffer.c ****     {
  79:ring_buffer.c ****         *data = cbuf->buffer[cbuf->tail];
  80:ring_buffer.c ****         cbuf->tail = (cbuf->tail + 1) % cbuf->size;
  81:ring_buffer.c **** 
  82:ring_buffer.c ****         r = 0;
  83:ring_buffer.c ****     }
  84:ring_buffer.c **** 
  85:ring_buffer.c ****     return r;
  86:ring_buffer.c **** }
ARM GAS  C:\Users\AFDHAL~1\AppData\Local\Temp\cctqV8uQ.s 			page 5


  87:ring_buffer.c **** 
  88:ring_buffer.c **** bool circular_buf_empty(circular_buf_t cbuf)
  89:ring_buffer.c **** {
 141              		.loc 1 89 0
 142              		.cfi_startproc
 143              		@ args = 0, pretend = 0, frame = 16
 144              		@ frame_needed = 0, uses_anonymous_args = 0
 145              		@ link register save eliminated.
 146 0000 84B0     		sub	sp, sp, #16
 147              		.cfi_def_cfa_offset 16
  90:ring_buffer.c **** 	// We define empty as head == tail
  91:ring_buffer.c ****     return (cbuf.head == cbuf.tail);
 148              		.loc 1 91 0
 149 0002 881A     		subs	r0, r1, r2
 150 0004 4142     		rsbs	r1, r0, #0
 151 0006 4841     		adcs	r0, r0, r1
 152 0008 C0B2     		uxtb	r0, r0
  92:ring_buffer.c **** }
 153              		.loc 1 92 0
 154 000a 04B0     		add	sp, sp, #16
 155              		@ sp needed
 156 000c 7047     		bx	lr
 157              		.cfi_endproc
 158              	.LFE37:
 159              		.size	circular_buf_empty, .-circular_buf_empty
 160 000e C046     		.section	.text.circular_buf_get,"ax",%progbits
 161              		.align	2
 162              		.global	circular_buf_get
 163              		.code	16
 164              		.thumb_func
 165              		.type	circular_buf_get, %function
 166              	circular_buf_get:
 167              	.LFB36:
  74:ring_buffer.c ****     int r = -1;
 168              		.loc 1 74 0
 169              		.cfi_startproc
 170              		@ args = 0, pretend = 0, frame = 0
 171              		@ frame_needed = 0, uses_anonymous_args = 0
 172              	.LVL17:
 173 0000 70B5     		push	{r4, r5, r6, lr}
 174              		.cfi_def_cfa_offset 16
 175              		.cfi_offset 4, -16
 176              		.cfi_offset 5, -12
 177              		.cfi_offset 6, -8
 178              		.cfi_offset 14, -4
 179 0002 0400     		movs	r4, r0
 180 0004 0D00     		movs	r5, r1
 181              	.LVL18:
  77:ring_buffer.c ****     {
 182              		.loc 1 77 0
 183 0006 0028     		cmp	r0, #0
 184 0008 16D0     		beq	.L11
  77:ring_buffer.c ****     {
 185              		.loc 1 77 0 is_stmt 0 discriminator 1
 186 000a 0029     		cmp	r1, #0
 187 000c 17D0     		beq	.L12
  77:ring_buffer.c ****     {
ARM GAS  C:\Users\AFDHAL~1\AppData\Local\Temp\cctqV8uQ.s 			page 6


 188              		.loc 1 77 0 discriminator 2
 189 000e 0068     		ldr	r0, [r0]
 190              	.LVL19:
 191 0010 6168     		ldr	r1, [r4, #4]
 192              	.LVL20:
 193 0012 A268     		ldr	r2, [r4, #8]
 194 0014 E368     		ldr	r3, [r4, #12]
 195 0016 FFF7FEFF 		bl	circular_buf_empty
 196              	.LVL21:
 197 001a 0028     		cmp	r0, #0
 198 001c 12D1     		bne	.L13
  79:ring_buffer.c ****         cbuf->tail = (cbuf->tail + 1) % cbuf->size;
 199              		.loc 1 79 0 is_stmt 1
 200 001e A368     		ldr	r3, [r4, #8]
 201 0020 5B00     		lsls	r3, r3, #1
 202 0022 2268     		ldr	r2, [r4]
 203 0024 9B5A     		ldrh	r3, [r3, r2]
 204 0026 2B80     		strh	r3, [r5]
  80:ring_buffer.c **** 
 205              		.loc 1 80 0
 206 0028 A368     		ldr	r3, [r4, #8]
 207 002a 581C     		adds	r0, r3, #1
 208 002c E168     		ldr	r1, [r4, #12]
 209 002e FFF7FEFF 		bl	__aeabi_uidivmod
 210              	.LVL22:
 211 0032 A160     		str	r1, [r4, #8]
 212              	.LVL23:
  82:ring_buffer.c ****     }
 213              		.loc 1 82 0
 214 0034 0020     		movs	r0, #0
 215 0036 07E0     		b	.L10
 216              	.LVL24:
 217              	.L11:
  75:ring_buffer.c **** 
 218              		.loc 1 75 0
 219 0038 0120     		movs	r0, #1
 220              	.LVL25:
 221 003a 4042     		rsbs	r0, r0, #0
 222 003c 04E0     		b	.L10
 223              	.LVL26:
 224              	.L12:
 225 003e 0120     		movs	r0, #1
 226              	.LVL27:
 227 0040 4042     		rsbs	r0, r0, #0
 228 0042 01E0     		b	.L10
 229              	.LVL28:
 230              	.L13:
 231 0044 0120     		movs	r0, #1
 232 0046 4042     		rsbs	r0, r0, #0
 233              	.LVL29:
 234              	.L10:
  86:ring_buffer.c **** 
 235              		.loc 1 86 0
 236              		@ sp needed
 237              	.LVL30:
 238              	.LVL31:
 239 0048 70BD     		pop	{r4, r5, r6, pc}
ARM GAS  C:\Users\AFDHAL~1\AppData\Local\Temp\cctqV8uQ.s 			page 7


 240              		.cfi_endproc
 241              	.LFE36:
 242              		.size	circular_buf_get, .-circular_buf_get
 243 004a C046     		.section	.text.circular_buf_full,"ax",%progbits
 244              		.align	2
 245              		.global	circular_buf_full
 246              		.code	16
 247              		.thumb_func
 248              		.type	circular_buf_full, %function
 249              	circular_buf_full:
 250              	.LFB38:
  93:ring_buffer.c **** 
  94:ring_buffer.c **** bool circular_buf_full(circular_buf_t cbuf)
  95:ring_buffer.c **** {
 251              		.loc 1 95 0
 252              		.cfi_startproc
 253              		@ args = 0, pretend = 0, frame = 16
 254              		@ frame_needed = 0, uses_anonymous_args = 0
 255 0000 10B5     		push	{r4, lr}
 256              		.cfi_def_cfa_offset 8
 257              		.cfi_offset 4, -8
 258              		.cfi_offset 14, -4
 259 0002 84B0     		sub	sp, sp, #16
 260              		.cfi_def_cfa_offset 24
 261 0004 1400     		movs	r4, r2
  96:ring_buffer.c **** 	// We determine "full" case by head being one position behind the tail
  97:ring_buffer.c **** 	// Note that this means we are wasting one space in the buffer!
  98:ring_buffer.c **** 	// Instead, you could have an "empty" flag and determine buffer full that way
  99:ring_buffer.c ****     return ((cbuf.head + 1) % cbuf.size) == cbuf.tail;
 262              		.loc 1 99 0
 263 0006 481C     		adds	r0, r1, #1
 264 0008 1900     		movs	r1, r3
 265 000a FFF7FEFF 		bl	__aeabi_uidivmod
 266              	.LVL32:
 267 000e 081B     		subs	r0, r1, r4
 268 0010 4142     		rsbs	r1, r0, #0
 269 0012 4841     		adcs	r0, r0, r1
 270 0014 C0B2     		uxtb	r0, r0
 100:ring_buffer.c **** }
 271              		.loc 1 100 0
 272 0016 04B0     		add	sp, sp, #16
 273              		@ sp needed
 274 0018 10BD     		pop	{r4, pc}
 275              		.cfi_endproc
 276              	.LFE38:
 277              		.size	circular_buf_full, .-circular_buf_full
 278 001a C046     		.section	.text.circular_buf_available,"ax",%progbits
 279              		.align	2
 280              		.global	circular_buf_available
 281              		.code	16
 282              		.thumb_func
 283              		.type	circular_buf_available, %function
 284              	circular_buf_available:
 285              	.LFB39:
 101:ring_buffer.c **** 
 102:ring_buffer.c **** uint16_t circular_buf_available(circular_buf_t cbuf)
 103:ring_buffer.c **** {
ARM GAS  C:\Users\AFDHAL~1\AppData\Local\Temp\cctqV8uQ.s 			page 8


 286              		.loc 1 103 0
 287              		.cfi_startproc
 288              		@ args = 0, pretend = 0, frame = 16
 289              		@ frame_needed = 0, uses_anonymous_args = 0
 290              		@ link register save eliminated.
 291 0000 84B0     		sub	sp, sp, #16
 292              		.cfi_def_cfa_offset 16
 293 0002 0393     		str	r3, [sp, #12]
 104:ring_buffer.c ****     uint16_t free;
 105:ring_buffer.c ****     
 106:ring_buffer.c ****     if(cbuf.head >= cbuf.tail)
 294              		.loc 1 106 0
 295 0004 9142     		cmp	r1, r2
 296 0006 04D3     		bcc	.L16
 107:ring_buffer.c ****         free = cbuf.size - (cbuf.head - cbuf.tail);
 297              		.loc 1 107 0
 298 0008 521A     		subs	r2, r2, r1
 299 000a 9C46     		mov	ip, r3
 300 000c 6244     		add	r2, r2, ip
 301 000e 92B2     		uxth	r2, r2
 302              	.LVL33:
 303 0010 02E0     		b	.L17
 304              	.LVL34:
 305              	.L16:
 108:ring_buffer.c ****     else
 109:ring_buffer.c ****         free = cbuf.tail - cbuf.head - 1;
 306              		.loc 1 109 0
 307 0012 521A     		subs	r2, r2, r1
 308 0014 013A     		subs	r2, r2, #1
 309 0016 92B2     		uxth	r2, r2
 310              	.LVL35:
 311              	.L17:
 110:ring_buffer.c ****     
 111:ring_buffer.c ****     return  (cbuf.size - free);
 312              		.loc 1 111 0
 313 0018 039B     		ldr	r3, [sp, #12]
 314 001a 9A1A     		subs	r2, r3, r2
 315              	.LVL36:
 316 001c 90B2     		uxth	r0, r2
 112:ring_buffer.c **** }
 317              		.loc 1 112 0
 318 001e 04B0     		add	sp, sp, #16
 319              		@ sp needed
 320 0020 7047     		bx	lr
 321              		.cfi_endproc
 322              	.LFE39:
 323              		.size	circular_buf_available, .-circular_buf_available
 324 0022 C046     		.section	.text.ring_buffer_init,"ax",%progbits
 325              		.align	2
 326              		.global	ring_buffer_init
 327              		.code	16
 328              		.thumb_func
 329              		.type	ring_buffer_init, %function
 330              	ring_buffer_init:
 331              	.LFB40:
 113:ring_buffer.c **** 
 114:ring_buffer.c **** //</embeddedartistry>
ARM GAS  C:\Users\AFDHAL~1\AppData\Local\Temp\cctqV8uQ.s 			page 9


 115:ring_buffer.c **** 
 116:ring_buffer.c **** 
 117:ring_buffer.c **** //<Adapters>
 118:ring_buffer.c **** circular_buf_t cbuf; //global 
 119:ring_buffer.c **** 
 120:ring_buffer.c **** void ring_buffer_init()
 121:ring_buffer.c **** {    
 332              		.loc 1 121 0
 333              		.cfi_startproc
 334              		@ args = 0, pretend = 0, frame = 0
 335              		@ frame_needed = 0, uses_anonymous_args = 0
 336 0000 10B5     		push	{r4, lr}
 337              		.cfi_def_cfa_offset 8
 338              		.cfi_offset 4, -8
 339              		.cfi_offset 14, -4
 122:ring_buffer.c **** 	cbuf.size = BUF_SIZE;
 340              		.loc 1 122 0
 341 0002 064C     		ldr	r4, .L19
 342 0004 8023     		movs	r3, #128
 343 0006 5B00     		lsls	r3, r3, #1
 344 0008 E360     		str	r3, [r4, #12]
 123:ring_buffer.c ****     circular_buf_reset(&cbuf); //set head/tail to 0
 345              		.loc 1 123 0
 346 000a 2000     		movs	r0, r4
 347 000c FFF7FEFF 		bl	circular_buf_reset
 348              	.LVL37:
 124:ring_buffer.c ****     cbuf.buffer = (uint16_t*) malloc(cbuf.size * sizeof(uint16_t));
 349              		.loc 1 124 0
 350 0010 E368     		ldr	r3, [r4, #12]
 351 0012 5800     		lsls	r0, r3, #1
 352 0014 FFF7FEFF 		bl	malloc
 353              	.LVL38:
 354 0018 2060     		str	r0, [r4]
 125:ring_buffer.c **** }
 355              		.loc 1 125 0
 356              		@ sp needed
 357 001a 10BD     		pop	{r4, pc}
 358              	.L20:
 359              		.align	2
 360              	.L19:
 361 001c 00000000 		.word	cbuf
 362              		.cfi_endproc
 363              	.LFE40:
 364              		.size	ring_buffer_init, .-ring_buffer_init
 365              		.section	.text.ring_buffer_push,"ax",%progbits
 366              		.align	2
 367              		.global	ring_buffer_push
 368              		.code	16
 369              		.thumb_func
 370              		.type	ring_buffer_push, %function
 371              	ring_buffer_push:
 372              	.LFB41:
 126:ring_buffer.c **** 
 127:ring_buffer.c **** void ring_buffer_push(uint16_t i)
 128:ring_buffer.c **** {
 373              		.loc 1 128 0
 374              		.cfi_startproc
ARM GAS  C:\Users\AFDHAL~1\AppData\Local\Temp\cctqV8uQ.s 			page 10


 375              		@ args = 0, pretend = 0, frame = 0
 376              		@ frame_needed = 0, uses_anonymous_args = 0
 377              	.LVL39:
 378 0000 10B5     		push	{r4, lr}
 379              		.cfi_def_cfa_offset 8
 380              		.cfi_offset 4, -8
 381              		.cfi_offset 14, -4
 382 0002 0100     		movs	r1, r0
 129:ring_buffer.c ****     circular_buf_put(&cbuf, i);
 383              		.loc 1 129 0
 384 0004 0148     		ldr	r0, .L22
 385              	.LVL40:
 386 0006 FFF7FEFF 		bl	circular_buf_put
 387              	.LVL41:
 130:ring_buffer.c **** }
 388              		.loc 1 130 0
 389              		@ sp needed
 390 000a 10BD     		pop	{r4, pc}
 391              	.L23:
 392              		.align	2
 393              	.L22:
 394 000c 00000000 		.word	cbuf
 395              		.cfi_endproc
 396              	.LFE41:
 397              		.size	ring_buffer_push, .-ring_buffer_push
 398              		.section	.text.ring_buffer_pop,"ax",%progbits
 399              		.align	2
 400              		.global	ring_buffer_pop
 401              		.code	16
 402              		.thumb_func
 403              		.type	ring_buffer_pop, %function
 404              	ring_buffer_pop:
 405              	.LFB42:
 131:ring_buffer.c **** 
 132:ring_buffer.c **** uint16_t ring_buffer_pop()
 133:ring_buffer.c **** {
 406              		.loc 1 133 0
 407              		.cfi_startproc
 408              		@ args = 0, pretend = 0, frame = 8
 409              		@ frame_needed = 0, uses_anonymous_args = 0
 410 0000 10B5     		push	{r4, lr}
 411              		.cfi_def_cfa_offset 8
 412              		.cfi_offset 4, -8
 413              		.cfi_offset 14, -4
 414 0002 82B0     		sub	sp, sp, #8
 415              		.cfi_def_cfa_offset 16
 134:ring_buffer.c ****     uint16_t data;
 135:ring_buffer.c **** 	circular_buf_get(&cbuf, &data);
 416              		.loc 1 135 0
 417 0004 6B46     		mov	r3, sp
 418 0006 9C1D     		adds	r4, r3, #6
 419 0008 2100     		movs	r1, r4
 420 000a 0348     		ldr	r0, .L25
 421 000c FFF7FEFF 		bl	circular_buf_get
 422              	.LVL42:
 136:ring_buffer.c ****     return data;
 423              		.loc 1 136 0
ARM GAS  C:\Users\AFDHAL~1\AppData\Local\Temp\cctqV8uQ.s 			page 11


 424 0010 2088     		ldrh	r0, [r4]
 137:ring_buffer.c **** }
 425              		.loc 1 137 0
 426 0012 02B0     		add	sp, sp, #8
 427              		@ sp needed
 428 0014 10BD     		pop	{r4, pc}
 429              	.L26:
 430 0016 C046     		.align	2
 431              	.L25:
 432 0018 00000000 		.word	cbuf
 433              		.cfi_endproc
 434              	.LFE42:
 435              		.size	ring_buffer_pop, .-ring_buffer_pop
 436              		.section	.text.ring_buffer_isEmpty,"ax",%progbits
 437              		.align	2
 438              		.global	ring_buffer_isEmpty
 439              		.code	16
 440              		.thumb_func
 441              		.type	ring_buffer_isEmpty, %function
 442              	ring_buffer_isEmpty:
 443              	.LFB43:
 138:ring_buffer.c **** 
 139:ring_buffer.c **** bool ring_buffer_isEmpty()
 140:ring_buffer.c **** {
 444              		.loc 1 140 0
 445              		.cfi_startproc
 446              		@ args = 0, pretend = 0, frame = 0
 447              		@ frame_needed = 0, uses_anonymous_args = 0
 448 0000 10B5     		push	{r4, lr}
 449              		.cfi_def_cfa_offset 8
 450              		.cfi_offset 4, -8
 451              		.cfi_offset 14, -4
 141:ring_buffer.c ****     return circular_buf_empty(cbuf);
 452              		.loc 1 141 0
 453 0002 044B     		ldr	r3, .L28
 454 0004 1868     		ldr	r0, [r3]
 455 0006 5968     		ldr	r1, [r3, #4]
 456 0008 9A68     		ldr	r2, [r3, #8]
 457 000a DB68     		ldr	r3, [r3, #12]
 458 000c FFF7FEFF 		bl	circular_buf_empty
 459              	.LVL43:
 142:ring_buffer.c **** }
 460              		.loc 1 142 0
 461              		@ sp needed
 462 0010 10BD     		pop	{r4, pc}
 463              	.L29:
 464 0012 C046     		.align	2
 465              	.L28:
 466 0014 00000000 		.word	cbuf
 467              		.cfi_endproc
 468              	.LFE43:
 469              		.size	ring_buffer_isEmpty, .-ring_buffer_isEmpty
 470              		.section	.text.ring_buffer_isFull,"ax",%progbits
 471              		.align	2
 472              		.global	ring_buffer_isFull
 473              		.code	16
 474              		.thumb_func
ARM GAS  C:\Users\AFDHAL~1\AppData\Local\Temp\cctqV8uQ.s 			page 12


 475              		.type	ring_buffer_isFull, %function
 476              	ring_buffer_isFull:
 477              	.LFB44:
 143:ring_buffer.c **** 
 144:ring_buffer.c **** bool ring_buffer_isFull()
 145:ring_buffer.c **** {
 478              		.loc 1 145 0
 479              		.cfi_startproc
 480              		@ args = 0, pretend = 0, frame = 0
 481              		@ frame_needed = 0, uses_anonymous_args = 0
 482 0000 10B5     		push	{r4, lr}
 483              		.cfi_def_cfa_offset 8
 484              		.cfi_offset 4, -8
 485              		.cfi_offset 14, -4
 146:ring_buffer.c ****     return circular_buf_full(cbuf);
 486              		.loc 1 146 0
 487 0002 044B     		ldr	r3, .L31
 488 0004 1868     		ldr	r0, [r3]
 489 0006 5968     		ldr	r1, [r3, #4]
 490 0008 9A68     		ldr	r2, [r3, #8]
 491 000a DB68     		ldr	r3, [r3, #12]
 492 000c FFF7FEFF 		bl	circular_buf_full
 493              	.LVL44:
 147:ring_buffer.c **** }
 494              		.loc 1 147 0
 495              		@ sp needed
 496 0010 10BD     		pop	{r4, pc}
 497              	.L32:
 498 0012 C046     		.align	2
 499              	.L31:
 500 0014 00000000 		.word	cbuf
 501              		.cfi_endproc
 502              	.LFE44:
 503              		.size	ring_buffer_isFull, .-ring_buffer_isFull
 504              		.section	.text.ring_buffer_available,"ax",%progbits
 505              		.align	2
 506              		.global	ring_buffer_available
 507              		.code	16
 508              		.thumb_func
 509              		.type	ring_buffer_available, %function
 510              	ring_buffer_available:
 511              	.LFB45:
 148:ring_buffer.c **** 
 149:ring_buffer.c **** uint16_t ring_buffer_available()
 150:ring_buffer.c **** {
 512              		.loc 1 150 0
 513              		.cfi_startproc
 514              		@ args = 0, pretend = 0, frame = 0
 515              		@ frame_needed = 0, uses_anonymous_args = 0
 516 0000 10B5     		push	{r4, lr}
 517              		.cfi_def_cfa_offset 8
 518              		.cfi_offset 4, -8
 519              		.cfi_offset 14, -4
 151:ring_buffer.c ****     return circular_buf_available(cbuf);
 520              		.loc 1 151 0
 521 0002 044B     		ldr	r3, .L34
 522 0004 1868     		ldr	r0, [r3]
ARM GAS  C:\Users\AFDHAL~1\AppData\Local\Temp\cctqV8uQ.s 			page 13


 523 0006 5968     		ldr	r1, [r3, #4]
 524 0008 9A68     		ldr	r2, [r3, #8]
 525 000a DB68     		ldr	r3, [r3, #12]
 526 000c FFF7FEFF 		bl	circular_buf_available
 527              	.LVL45:
 152:ring_buffer.c **** }
 528              		.loc 1 152 0
 529              		@ sp needed
 530 0010 10BD     		pop	{r4, pc}
 531              	.L35:
 532 0012 C046     		.align	2
 533              	.L34:
 534 0014 00000000 		.word	cbuf
 535              		.cfi_endproc
 536              	.LFE45:
 537              		.size	ring_buffer_available, .-ring_buffer_available
 538              		.section	.text.ring_buffer_flush,"ax",%progbits
 539              		.align	2
 540              		.global	ring_buffer_flush
 541              		.code	16
 542              		.thumb_func
 543              		.type	ring_buffer_flush, %function
 544              	ring_buffer_flush:
 545              	.LFB46:
 153:ring_buffer.c **** 
 154:ring_buffer.c **** void ring_buffer_flush()
 155:ring_buffer.c **** {
 546              		.loc 1 155 0
 547              		.cfi_startproc
 548              		@ args = 0, pretend = 0, frame = 0
 549              		@ frame_needed = 0, uses_anonymous_args = 0
 550 0000 10B5     		push	{r4, lr}
 551              		.cfi_def_cfa_offset 8
 552              		.cfi_offset 4, -8
 553              		.cfi_offset 14, -4
 156:ring_buffer.c ****     circular_buf_reset(&cbuf);
 554              		.loc 1 156 0
 555 0002 0248     		ldr	r0, .L37
 556 0004 FFF7FEFF 		bl	circular_buf_reset
 557              	.LVL46:
 157:ring_buffer.c **** }
 558              		.loc 1 157 0
 559              		@ sp needed
 560 0008 10BD     		pop	{r4, pc}
 561              	.L38:
 562 000a C046     		.align	2
 563              	.L37:
 564 000c 00000000 		.word	cbuf
 565              		.cfi_endproc
 566              	.LFE46:
 567              		.size	ring_buffer_flush, .-ring_buffer_flush
 568              		.comm	cbuf,16,4
 569              		.text
 570              	.Letext0:
 571              		.file 2 "c:\\program files (x86)\\cypress\\psoc creator\\4.1\\psoc creator\\import\\gnu\\arm\\5.4.
 572              		.file 3 "c:\\program files (x86)\\cypress\\psoc creator\\4.1\\psoc creator\\import\\gnu\\arm\\5.4.
 573              		.file 4 "c:\\program files (x86)\\cypress\\psoc creator\\4.1\\psoc creator\\import\\gnu\\arm\\5.4.
ARM GAS  C:\Users\AFDHAL~1\AppData\Local\Temp\cctqV8uQ.s 			page 14


 574              		.file 5 "Generated_Source\\PSoC4/nRF24_DEFS.h"
 575              		.file 6 "c:\\program files (x86)\\cypress\\psoc creator\\4.1\\psoc creator\\import\\gnu\\arm\\5.4.