ARM GAS  C:\Users\AFDHAL~1\AppData\Local\Temp\ccIw0Hah.s 			page 1


   1              		.syntax unified
   2              		.cpu cortex-m0
   3              		.fpu softvfp
   4              		.eabi_attribute 20, 1
   5              		.eabi_attribute 21, 1
   6              		.eabi_attribute 23, 3
   7              		.eabi_attribute 24, 1
   8              		.eabi_attribute 25, 1
   9              		.eabi_attribute 26, 1
  10              		.eabi_attribute 30, 1
  11              		.eabi_attribute 34, 0
  12              		.eabi_attribute 18, 4
  13              		.thumb
  14              		.syntax unified
  15              		.file	"UART_SPI_UART.c"
  16              		.text
  17              	.Ltext0:
  18              		.cfi_sections	.debug_frame
  19              		.section	.text.UART_SpiUartReadRxData,"ax",%progbits
  20              		.align	2
  21              		.global	UART_SpiUartReadRxData
  22              		.code	16
  23              		.thumb_func
  24              		.type	UART_SpiUartReadRxData, %function
  25              	UART_SpiUartReadRxData:
  26              	.LFB1:
  27              		.file 1 "Generated_Source\\PSoC4\\UART_SPI_UART.c"
   1:Generated_Source\PSoC4/UART_SPI_UART.c **** /***************************************************************************//**
   2:Generated_Source\PSoC4/UART_SPI_UART.c **** * \file UART_SPI_UART.c
   3:Generated_Source\PSoC4/UART_SPI_UART.c **** * \version 4.0
   4:Generated_Source\PSoC4/UART_SPI_UART.c **** *
   5:Generated_Source\PSoC4/UART_SPI_UART.c **** * \brief
   6:Generated_Source\PSoC4/UART_SPI_UART.c **** *  This file provides the source code to the API for the SCB Component in
   7:Generated_Source\PSoC4/UART_SPI_UART.c **** *  SPI and UART modes.
   8:Generated_Source\PSoC4/UART_SPI_UART.c **** *
   9:Generated_Source\PSoC4/UART_SPI_UART.c **** * Note:
  10:Generated_Source\PSoC4/UART_SPI_UART.c **** *
  11:Generated_Source\PSoC4/UART_SPI_UART.c **** *******************************************************************************
  12:Generated_Source\PSoC4/UART_SPI_UART.c **** * \copyright
  13:Generated_Source\PSoC4/UART_SPI_UART.c **** * Copyright 2013-2017, Cypress Semiconductor Corporation.  All rights reserved.
  14:Generated_Source\PSoC4/UART_SPI_UART.c **** * You may use this file only in accordance with the license, terms, conditions,
  15:Generated_Source\PSoC4/UART_SPI_UART.c **** * disclaimers, and limitations in the end user license agreement accompanying
  16:Generated_Source\PSoC4/UART_SPI_UART.c **** * the software package with which this file was provided.
  17:Generated_Source\PSoC4/UART_SPI_UART.c **** *******************************************************************************/
  18:Generated_Source\PSoC4/UART_SPI_UART.c **** 
  19:Generated_Source\PSoC4/UART_SPI_UART.c **** #include "UART_PVT.h"
  20:Generated_Source\PSoC4/UART_SPI_UART.c **** #include "UART_SPI_UART_PVT.h"
  21:Generated_Source\PSoC4/UART_SPI_UART.c **** 
  22:Generated_Source\PSoC4/UART_SPI_UART.c **** /***************************************
  23:Generated_Source\PSoC4/UART_SPI_UART.c **** *        SPI/UART Private Vars
  24:Generated_Source\PSoC4/UART_SPI_UART.c **** ***************************************/
  25:Generated_Source\PSoC4/UART_SPI_UART.c **** 
  26:Generated_Source\PSoC4/UART_SPI_UART.c **** #if(UART_INTERNAL_RX_SW_BUFFER_CONST)
  27:Generated_Source\PSoC4/UART_SPI_UART.c ****     /* Start index to put data into the software receive buffer.*/
  28:Generated_Source\PSoC4/UART_SPI_UART.c ****     volatile uint32 UART_rxBufferHead;
  29:Generated_Source\PSoC4/UART_SPI_UART.c ****     /* Start index to get data from the software receive buffer.*/
  30:Generated_Source\PSoC4/UART_SPI_UART.c ****     volatile uint32 UART_rxBufferTail;
ARM GAS  C:\Users\AFDHAL~1\AppData\Local\Temp\ccIw0Hah.s 			page 2


  31:Generated_Source\PSoC4/UART_SPI_UART.c ****     /**
  32:Generated_Source\PSoC4/UART_SPI_UART.c ****     * \addtogroup group_globals
  33:Generated_Source\PSoC4/UART_SPI_UART.c ****     * \{
  34:Generated_Source\PSoC4/UART_SPI_UART.c ****     */
  35:Generated_Source\PSoC4/UART_SPI_UART.c ****     /** Sets when internal software receive buffer overflow
  36:Generated_Source\PSoC4/UART_SPI_UART.c ****     *  was occurred.
  37:Generated_Source\PSoC4/UART_SPI_UART.c ****     */
  38:Generated_Source\PSoC4/UART_SPI_UART.c ****     volatile uint8  UART_rxBufferOverflow;
  39:Generated_Source\PSoC4/UART_SPI_UART.c ****     /** \} globals */
  40:Generated_Source\PSoC4/UART_SPI_UART.c **** #endif /* (UART_INTERNAL_RX_SW_BUFFER_CONST) */
  41:Generated_Source\PSoC4/UART_SPI_UART.c **** 
  42:Generated_Source\PSoC4/UART_SPI_UART.c **** #if(UART_INTERNAL_TX_SW_BUFFER_CONST)
  43:Generated_Source\PSoC4/UART_SPI_UART.c ****     /* Start index to put data into the software transmit buffer.*/
  44:Generated_Source\PSoC4/UART_SPI_UART.c ****     volatile uint32 UART_txBufferHead;
  45:Generated_Source\PSoC4/UART_SPI_UART.c ****     /* Start index to get data from the software transmit buffer.*/
  46:Generated_Source\PSoC4/UART_SPI_UART.c ****     volatile uint32 UART_txBufferTail;
  47:Generated_Source\PSoC4/UART_SPI_UART.c **** #endif /* (UART_INTERNAL_TX_SW_BUFFER_CONST) */
  48:Generated_Source\PSoC4/UART_SPI_UART.c **** 
  49:Generated_Source\PSoC4/UART_SPI_UART.c **** #if(UART_INTERNAL_RX_SW_BUFFER)
  50:Generated_Source\PSoC4/UART_SPI_UART.c ****     /* Add one element to the buffer to receive full packet. One byte in receive buffer is always e
  51:Generated_Source\PSoC4/UART_SPI_UART.c ****     volatile uint8 UART_rxBufferInternal[UART_INTERNAL_RX_BUFFER_SIZE];
  52:Generated_Source\PSoC4/UART_SPI_UART.c **** #endif /* (UART_INTERNAL_RX_SW_BUFFER) */
  53:Generated_Source\PSoC4/UART_SPI_UART.c **** 
  54:Generated_Source\PSoC4/UART_SPI_UART.c **** #if(UART_INTERNAL_TX_SW_BUFFER)
  55:Generated_Source\PSoC4/UART_SPI_UART.c ****     volatile uint8 UART_txBufferInternal[UART_TX_BUFFER_SIZE];
  56:Generated_Source\PSoC4/UART_SPI_UART.c **** #endif /* (UART_INTERNAL_TX_SW_BUFFER) */
  57:Generated_Source\PSoC4/UART_SPI_UART.c **** 
  58:Generated_Source\PSoC4/UART_SPI_UART.c **** 
  59:Generated_Source\PSoC4/UART_SPI_UART.c **** #if(UART_RX_DIRECTION)
  60:Generated_Source\PSoC4/UART_SPI_UART.c ****     /*******************************************************************************
  61:Generated_Source\PSoC4/UART_SPI_UART.c ****     * Function Name: UART_SpiUartReadRxData
  62:Generated_Source\PSoC4/UART_SPI_UART.c ****     ****************************************************************************//**
  63:Generated_Source\PSoC4/UART_SPI_UART.c ****     *
  64:Generated_Source\PSoC4/UART_SPI_UART.c ****     *  Retrieves the next data element from the receive buffer.
  65:Generated_Source\PSoC4/UART_SPI_UART.c ****     *   - RX software buffer is disabled: Returns data element retrieved from
  66:Generated_Source\PSoC4/UART_SPI_UART.c ****     *     RX FIFO. Undefined data will be returned if the RX FIFO is empty.
  67:Generated_Source\PSoC4/UART_SPI_UART.c ****     *   - RX software buffer is enabled: Returns data element from the software
  68:Generated_Source\PSoC4/UART_SPI_UART.c ****     *     receive buffer. Zero value is returned if the software receive buffer
  69:Generated_Source\PSoC4/UART_SPI_UART.c ****     *     is empty.
  70:Generated_Source\PSoC4/UART_SPI_UART.c ****     *
  71:Generated_Source\PSoC4/UART_SPI_UART.c ****     * \return
  72:Generated_Source\PSoC4/UART_SPI_UART.c ****     *  Next data element from the receive buffer. 
  73:Generated_Source\PSoC4/UART_SPI_UART.c ****     *  The amount of data bits to be received depends on RX data bits selection 
  74:Generated_Source\PSoC4/UART_SPI_UART.c ****     *  (the data bit counting starts from LSB of return value).
  75:Generated_Source\PSoC4/UART_SPI_UART.c ****     *
  76:Generated_Source\PSoC4/UART_SPI_UART.c ****     * \globalvars
  77:Generated_Source\PSoC4/UART_SPI_UART.c ****     *  UART_rxBufferHead - the start index to put data into the 
  78:Generated_Source\PSoC4/UART_SPI_UART.c ****     *  software receive buffer.
  79:Generated_Source\PSoC4/UART_SPI_UART.c ****     *  UART_rxBufferTail - the start index to get data from the 
  80:Generated_Source\PSoC4/UART_SPI_UART.c ****     *  software receive buffer.
  81:Generated_Source\PSoC4/UART_SPI_UART.c ****     *
  82:Generated_Source\PSoC4/UART_SPI_UART.c ****     *******************************************************************************/
  83:Generated_Source\PSoC4/UART_SPI_UART.c ****     uint32 UART_SpiUartReadRxData(void)
  84:Generated_Source\PSoC4/UART_SPI_UART.c ****     {
  28              		.loc 1 84 0
  29              		.cfi_startproc
  30              		@ args = 0, pretend = 0, frame = 0
ARM GAS  C:\Users\AFDHAL~1\AppData\Local\Temp\ccIw0Hah.s 			page 3


  31              		@ frame_needed = 0, uses_anonymous_args = 0
  32              		@ link register save eliminated.
  33              	.LVL0:
  85:Generated_Source\PSoC4/UART_SPI_UART.c ****         uint32 rxData = 0u;
  86:Generated_Source\PSoC4/UART_SPI_UART.c **** 
  87:Generated_Source\PSoC4/UART_SPI_UART.c ****     #if (UART_INTERNAL_RX_SW_BUFFER_CONST)
  88:Generated_Source\PSoC4/UART_SPI_UART.c ****         uint32 locTail;
  89:Generated_Source\PSoC4/UART_SPI_UART.c ****     #endif /* (UART_INTERNAL_RX_SW_BUFFER_CONST) */
  90:Generated_Source\PSoC4/UART_SPI_UART.c **** 
  91:Generated_Source\PSoC4/UART_SPI_UART.c ****         #if (UART_CHECK_RX_SW_BUFFER)
  92:Generated_Source\PSoC4/UART_SPI_UART.c ****         {
  93:Generated_Source\PSoC4/UART_SPI_UART.c ****             if (UART_rxBufferHead != UART_rxBufferTail)
  34              		.loc 1 93 0
  35 0000 0A4B     		ldr	r3, .L6
  36 0002 1A68     		ldr	r2, [r3]
  37 0004 0A4B     		ldr	r3, .L6+4
  38 0006 1B68     		ldr	r3, [r3]
  39 0008 9A42     		cmp	r2, r3
  40 000a 0DD0     		beq	.L4
  94:Generated_Source\PSoC4/UART_SPI_UART.c ****             {
  95:Generated_Source\PSoC4/UART_SPI_UART.c ****                 /* There is data in RX software buffer */
  96:Generated_Source\PSoC4/UART_SPI_UART.c **** 
  97:Generated_Source\PSoC4/UART_SPI_UART.c ****                 /* Calculate index to read from */
  98:Generated_Source\PSoC4/UART_SPI_UART.c ****                 locTail = (UART_rxBufferTail + 1u);
  41              		.loc 1 98 0
  42 000c 084B     		ldr	r3, .L6+4
  43 000e 1B68     		ldr	r3, [r3]
  44 0010 0133     		adds	r3, r3, #1
  45              	.LVL1:
  99:Generated_Source\PSoC4/UART_SPI_UART.c **** 
 100:Generated_Source\PSoC4/UART_SPI_UART.c ****                 if (UART_INTERNAL_RX_BUFFER_SIZE == locTail)
  46              		.loc 1 100 0
  47 0012 0222     		movs	r2, #2
  48 0014 FF32     		adds	r2, r2, #255
  49 0016 9342     		cmp	r3, r2
  50 0018 00D1     		bne	.L3
 101:Generated_Source\PSoC4/UART_SPI_UART.c ****                 {
 102:Generated_Source\PSoC4/UART_SPI_UART.c ****                     locTail = 0u;
  51              		.loc 1 102 0
  52 001a 0023     		movs	r3, #0
  53              	.LVL2:
  54              	.L3:
 103:Generated_Source\PSoC4/UART_SPI_UART.c ****                 }
 104:Generated_Source\PSoC4/UART_SPI_UART.c **** 
 105:Generated_Source\PSoC4/UART_SPI_UART.c ****                 /* Get data from RX software buffer */
 106:Generated_Source\PSoC4/UART_SPI_UART.c ****                 rxData = UART_GetWordFromRxBuffer(locTail);
  55              		.loc 1 106 0
  56 001c 054A     		ldr	r2, .L6+8
  57 001e D05C     		ldrb	r0, [r2, r3]
  58 0020 C0B2     		uxtb	r0, r0
  59              	.LVL3:
 107:Generated_Source\PSoC4/UART_SPI_UART.c **** 
 108:Generated_Source\PSoC4/UART_SPI_UART.c ****                 /* Change index in the buffer */
 109:Generated_Source\PSoC4/UART_SPI_UART.c ****                 UART_rxBufferTail = locTail;
  60              		.loc 1 109 0
  61 0022 034A     		ldr	r2, .L6+4
  62 0024 1360     		str	r3, [r2]
ARM GAS  C:\Users\AFDHAL~1\AppData\Local\Temp\ccIw0Hah.s 			page 4


  63 0026 00E0     		b	.L2
  64              	.LVL4:
  65              	.L4:
  85:Generated_Source\PSoC4/UART_SPI_UART.c **** 
  66              		.loc 1 85 0
  67 0028 0020     		movs	r0, #0
  68              	.LVL5:
  69              	.L2:
 110:Generated_Source\PSoC4/UART_SPI_UART.c **** 
 111:Generated_Source\PSoC4/UART_SPI_UART.c ****                 #if (UART_CHECK_UART_RTS_CONTROL_FLOW)
 112:Generated_Source\PSoC4/UART_SPI_UART.c ****                 {
 113:Generated_Source\PSoC4/UART_SPI_UART.c ****                     /* Check if RX Not Empty is disabled in the interrupt */
 114:Generated_Source\PSoC4/UART_SPI_UART.c ****                     if (0u == (UART_INTR_RX_MASK_REG & UART_INTR_RX_NOT_EMPTY))
 115:Generated_Source\PSoC4/UART_SPI_UART.c ****                     {
 116:Generated_Source\PSoC4/UART_SPI_UART.c ****                         /* Enable RX Not Empty interrupt source to continue
 117:Generated_Source\PSoC4/UART_SPI_UART.c ****                         * receiving data into software buffer.
 118:Generated_Source\PSoC4/UART_SPI_UART.c ****                         */
 119:Generated_Source\PSoC4/UART_SPI_UART.c ****                         UART_INTR_RX_MASK_REG |= UART_INTR_RX_NOT_EMPTY;
 120:Generated_Source\PSoC4/UART_SPI_UART.c ****                     }
 121:Generated_Source\PSoC4/UART_SPI_UART.c ****                 }
 122:Generated_Source\PSoC4/UART_SPI_UART.c ****                 #endif
 123:Generated_Source\PSoC4/UART_SPI_UART.c **** 
 124:Generated_Source\PSoC4/UART_SPI_UART.c ****             }
 125:Generated_Source\PSoC4/UART_SPI_UART.c ****         }
 126:Generated_Source\PSoC4/UART_SPI_UART.c ****         #else
 127:Generated_Source\PSoC4/UART_SPI_UART.c ****         {
 128:Generated_Source\PSoC4/UART_SPI_UART.c ****             /* Read data from RX FIFO */
 129:Generated_Source\PSoC4/UART_SPI_UART.c ****             rxData = UART_RX_FIFO_RD_REG;
 130:Generated_Source\PSoC4/UART_SPI_UART.c ****         }
 131:Generated_Source\PSoC4/UART_SPI_UART.c ****         #endif
 132:Generated_Source\PSoC4/UART_SPI_UART.c **** 
 133:Generated_Source\PSoC4/UART_SPI_UART.c ****         return (rxData);
 134:Generated_Source\PSoC4/UART_SPI_UART.c ****     }
  70              		.loc 1 134 0
  71              		@ sp needed
  72 002a 7047     		bx	lr
  73              	.L7:
  74              		.align	2
  75              	.L6:
  76 002c 00000000 		.word	UART_rxBufferHead
  77 0030 00000000 		.word	UART_rxBufferTail
  78 0034 00000000 		.word	UART_rxBufferInternal
  79              		.cfi_endproc
  80              	.LFE1:
  81              		.size	UART_SpiUartReadRxData, .-UART_SpiUartReadRxData
  82              		.section	.text.UART_SpiUartGetRxBufferSize,"ax",%progbits
  83              		.align	2
  84              		.global	UART_SpiUartGetRxBufferSize
  85              		.code	16
  86              		.thumb_func
  87              		.type	UART_SpiUartGetRxBufferSize, %function
  88              	UART_SpiUartGetRxBufferSize:
  89              	.LFB2:
 135:Generated_Source\PSoC4/UART_SPI_UART.c **** 
 136:Generated_Source\PSoC4/UART_SPI_UART.c **** 
 137:Generated_Source\PSoC4/UART_SPI_UART.c ****     /*******************************************************************************
 138:Generated_Source\PSoC4/UART_SPI_UART.c ****     * Function Name: UART_SpiUartGetRxBufferSize
ARM GAS  C:\Users\AFDHAL~1\AppData\Local\Temp\ccIw0Hah.s 			page 5


 139:Generated_Source\PSoC4/UART_SPI_UART.c ****     ****************************************************************************//**
 140:Generated_Source\PSoC4/UART_SPI_UART.c ****     *
 141:Generated_Source\PSoC4/UART_SPI_UART.c ****     *  Returns the number of received data elements in the receive buffer.
 142:Generated_Source\PSoC4/UART_SPI_UART.c ****     *   - RX software buffer disabled: returns the number of used entries in
 143:Generated_Source\PSoC4/UART_SPI_UART.c ****     *     RX FIFO.
 144:Generated_Source\PSoC4/UART_SPI_UART.c ****     *   - RX software buffer enabled: returns the number of elements which were
 145:Generated_Source\PSoC4/UART_SPI_UART.c ****     *     placed in the receive buffer. This does not include the hardware RX FIFO.
 146:Generated_Source\PSoC4/UART_SPI_UART.c ****     *
 147:Generated_Source\PSoC4/UART_SPI_UART.c ****     * \return
 148:Generated_Source\PSoC4/UART_SPI_UART.c ****     *  Number of received data elements.
 149:Generated_Source\PSoC4/UART_SPI_UART.c ****     *
 150:Generated_Source\PSoC4/UART_SPI_UART.c ****     * \globalvars
 151:Generated_Source\PSoC4/UART_SPI_UART.c ****     *  UART_rxBufferHead - the start index to put data into the 
 152:Generated_Source\PSoC4/UART_SPI_UART.c ****     *  software receive buffer.
 153:Generated_Source\PSoC4/UART_SPI_UART.c ****     *  UART_rxBufferTail - the start index to get data from the 
 154:Generated_Source\PSoC4/UART_SPI_UART.c ****     *  software receive buffer.
 155:Generated_Source\PSoC4/UART_SPI_UART.c ****     *
 156:Generated_Source\PSoC4/UART_SPI_UART.c ****     *******************************************************************************/
 157:Generated_Source\PSoC4/UART_SPI_UART.c ****     uint32 UART_SpiUartGetRxBufferSize(void)
 158:Generated_Source\PSoC4/UART_SPI_UART.c ****     {
  90              		.loc 1 158 0
  91              		.cfi_startproc
  92              		@ args = 0, pretend = 0, frame = 0
  93              		@ frame_needed = 0, uses_anonymous_args = 0
  94              		@ link register save eliminated.
 159:Generated_Source\PSoC4/UART_SPI_UART.c ****         uint32 size;
 160:Generated_Source\PSoC4/UART_SPI_UART.c ****     #if (UART_INTERNAL_RX_SW_BUFFER_CONST)
 161:Generated_Source\PSoC4/UART_SPI_UART.c ****         uint32 locHead;
 162:Generated_Source\PSoC4/UART_SPI_UART.c ****     #endif /* (UART_INTERNAL_RX_SW_BUFFER_CONST) */
 163:Generated_Source\PSoC4/UART_SPI_UART.c **** 
 164:Generated_Source\PSoC4/UART_SPI_UART.c ****         #if (UART_CHECK_RX_SW_BUFFER)
 165:Generated_Source\PSoC4/UART_SPI_UART.c ****         {
 166:Generated_Source\PSoC4/UART_SPI_UART.c ****             locHead = UART_rxBufferHead;
  95              		.loc 1 166 0
  96 0000 074B     		ldr	r3, .L11
  97 0002 1B68     		ldr	r3, [r3]
  98              	.LVL6:
 167:Generated_Source\PSoC4/UART_SPI_UART.c **** 
 168:Generated_Source\PSoC4/UART_SPI_UART.c ****             if(locHead >= UART_rxBufferTail)
  99              		.loc 1 168 0
 100 0004 074A     		ldr	r2, .L11+4
 101 0006 1268     		ldr	r2, [r2]
 102 0008 9342     		cmp	r3, r2
 103 000a 03D3     		bcc	.L9
 169:Generated_Source\PSoC4/UART_SPI_UART.c ****             {
 170:Generated_Source\PSoC4/UART_SPI_UART.c ****                 size = (locHead - UART_rxBufferTail);
 104              		.loc 1 170 0
 105 000c 054A     		ldr	r2, .L11+4
 106 000e 1068     		ldr	r0, [r2]
 107 0010 181A     		subs	r0, r3, r0
 108              	.LVL7:
 109 0012 04E0     		b	.L10
 110              	.LVL8:
 111              	.L9:
 171:Generated_Source\PSoC4/UART_SPI_UART.c ****             }
 172:Generated_Source\PSoC4/UART_SPI_UART.c ****             else
 173:Generated_Source\PSoC4/UART_SPI_UART.c ****             {
ARM GAS  C:\Users\AFDHAL~1\AppData\Local\Temp\ccIw0Hah.s 			page 6


 174:Generated_Source\PSoC4/UART_SPI_UART.c ****                 size = (locHead + (UART_INTERNAL_RX_BUFFER_SIZE - UART_rxBufferTail));
 112              		.loc 1 174 0
 113 0014 034A     		ldr	r2, .L11+4
 114 0016 1068     		ldr	r0, [r2]
 115 0018 1B1A     		subs	r3, r3, r0
 116              	.LVL9:
 117 001a 981C     		adds	r0, r3, #2
 118 001c FF30     		adds	r0, r0, #255
 119              	.LVL10:
 120              	.L10:
 175:Generated_Source\PSoC4/UART_SPI_UART.c ****             }
 176:Generated_Source\PSoC4/UART_SPI_UART.c ****         }
 177:Generated_Source\PSoC4/UART_SPI_UART.c ****         #else
 178:Generated_Source\PSoC4/UART_SPI_UART.c ****         {
 179:Generated_Source\PSoC4/UART_SPI_UART.c ****             size = UART_GET_RX_FIFO_ENTRIES;
 180:Generated_Source\PSoC4/UART_SPI_UART.c ****         }
 181:Generated_Source\PSoC4/UART_SPI_UART.c ****         #endif
 182:Generated_Source\PSoC4/UART_SPI_UART.c **** 
 183:Generated_Source\PSoC4/UART_SPI_UART.c ****         return (size);
 184:Generated_Source\PSoC4/UART_SPI_UART.c ****     }
 121              		.loc 1 184 0
 122              		@ sp needed
 123 001e 7047     		bx	lr
 124              	.L12:
 125              		.align	2
 126              	.L11:
 127 0020 00000000 		.word	UART_rxBufferHead
 128 0024 00000000 		.word	UART_rxBufferTail
 129              		.cfi_endproc
 130              	.LFE2:
 131              		.size	UART_SpiUartGetRxBufferSize, .-UART_SpiUartGetRxBufferSize
 132              		.section	.text.UART_SpiUartClearRxBuffer,"ax",%progbits
 133              		.align	2
 134              		.global	UART_SpiUartClearRxBuffer
 135              		.code	16
 136              		.thumb_func
 137              		.type	UART_SpiUartClearRxBuffer, %function
 138              	UART_SpiUartClearRxBuffer:
 139              	.LFB3:
 185:Generated_Source\PSoC4/UART_SPI_UART.c **** 
 186:Generated_Source\PSoC4/UART_SPI_UART.c **** 
 187:Generated_Source\PSoC4/UART_SPI_UART.c ****     /*******************************************************************************
 188:Generated_Source\PSoC4/UART_SPI_UART.c ****     * Function Name: UART_SpiUartClearRxBuffer
 189:Generated_Source\PSoC4/UART_SPI_UART.c ****     ****************************************************************************//**
 190:Generated_Source\PSoC4/UART_SPI_UART.c ****     *
 191:Generated_Source\PSoC4/UART_SPI_UART.c ****     *  Clears the receive buffer and RX FIFO.
 192:Generated_Source\PSoC4/UART_SPI_UART.c ****     *
 193:Generated_Source\PSoC4/UART_SPI_UART.c ****     * \globalvars
 194:Generated_Source\PSoC4/UART_SPI_UART.c ****     *  UART_rxBufferHead - the start index to put data into the 
 195:Generated_Source\PSoC4/UART_SPI_UART.c ****     *  software receive buffer.
 196:Generated_Source\PSoC4/UART_SPI_UART.c ****     *  UART_rxBufferTail - the start index to get data from the 
 197:Generated_Source\PSoC4/UART_SPI_UART.c ****     *  software receive buffer.
 198:Generated_Source\PSoC4/UART_SPI_UART.c ****     *
 199:Generated_Source\PSoC4/UART_SPI_UART.c ****     *******************************************************************************/
 200:Generated_Source\PSoC4/UART_SPI_UART.c ****     void UART_SpiUartClearRxBuffer(void)
 201:Generated_Source\PSoC4/UART_SPI_UART.c ****     {
 140              		.loc 1 201 0
ARM GAS  C:\Users\AFDHAL~1\AppData\Local\Temp\ccIw0Hah.s 			page 7


 141              		.cfi_startproc
 142              		@ args = 0, pretend = 0, frame = 0
 143              		@ frame_needed = 0, uses_anonymous_args = 0
 144 0000 10B5     		push	{r4, lr}
 145              		.cfi_def_cfa_offset 8
 146              		.cfi_offset 4, -8
 147              		.cfi_offset 14, -4
 202:Generated_Source\PSoC4/UART_SPI_UART.c ****         #if (UART_CHECK_RX_SW_BUFFER)
 203:Generated_Source\PSoC4/UART_SPI_UART.c ****         {
 204:Generated_Source\PSoC4/UART_SPI_UART.c ****             /* Lock from component interruption */
 205:Generated_Source\PSoC4/UART_SPI_UART.c ****             UART_DisableInt();
 148              		.loc 1 205 0
 149 0002 0920     		movs	r0, #9
 150 0004 FFF7FEFF 		bl	CyIntDisable
 151              	.LVL11:
 206:Generated_Source\PSoC4/UART_SPI_UART.c **** 
 207:Generated_Source\PSoC4/UART_SPI_UART.c ****             /* Flush RX software buffer */
 208:Generated_Source\PSoC4/UART_SPI_UART.c ****             UART_rxBufferHead = UART_rxBufferTail;
 152              		.loc 1 208 0
 153 0008 0B4B     		ldr	r3, .L14
 154 000a 1A68     		ldr	r2, [r3]
 155 000c 0B4B     		ldr	r3, .L14+4
 156 000e 1A60     		str	r2, [r3]
 209:Generated_Source\PSoC4/UART_SPI_UART.c ****             UART_rxBufferOverflow = 0u;
 157              		.loc 1 209 0
 158 0010 0022     		movs	r2, #0
 159 0012 0B4B     		ldr	r3, .L14+8
 160 0014 1A70     		strb	r2, [r3]
 210:Generated_Source\PSoC4/UART_SPI_UART.c **** 
 211:Generated_Source\PSoC4/UART_SPI_UART.c ****             UART_CLEAR_RX_FIFO;
 161              		.loc 1 211 0
 162 0016 0B4B     		ldr	r3, .L14+12
 163 0018 1A68     		ldr	r2, [r3]
 164 001a 8021     		movs	r1, #128
 165 001c 4902     		lsls	r1, r1, #9
 166 001e 0A43     		orrs	r2, r1
 167 0020 1A60     		str	r2, [r3]
 168 0022 1968     		ldr	r1, [r3]
 169 0024 084A     		ldr	r2, .L14+16
 170 0026 0A40     		ands	r2, r1
 171 0028 1A60     		str	r2, [r3]
 212:Generated_Source\PSoC4/UART_SPI_UART.c ****             UART_ClearRxInterruptSource(UART_INTR_RX_ALL);
 172              		.loc 1 212 0
 173 002a 084A     		ldr	r2, .L14+20
 174 002c 084B     		ldr	r3, .L14+24
 175 002e 1A60     		str	r2, [r3]
 213:Generated_Source\PSoC4/UART_SPI_UART.c **** 
 214:Generated_Source\PSoC4/UART_SPI_UART.c ****             #if (UART_CHECK_UART_RTS_CONTROL_FLOW)
 215:Generated_Source\PSoC4/UART_SPI_UART.c ****             {
 216:Generated_Source\PSoC4/UART_SPI_UART.c ****                 /* Enable RX Not Empty interrupt source to continue receiving
 217:Generated_Source\PSoC4/UART_SPI_UART.c ****                 * data into software buffer.
 218:Generated_Source\PSoC4/UART_SPI_UART.c ****                 */
 219:Generated_Source\PSoC4/UART_SPI_UART.c ****                 UART_INTR_RX_MASK_REG |= UART_INTR_RX_NOT_EMPTY;
 220:Generated_Source\PSoC4/UART_SPI_UART.c ****             }
 221:Generated_Source\PSoC4/UART_SPI_UART.c ****             #endif
 222:Generated_Source\PSoC4/UART_SPI_UART.c ****             
 223:Generated_Source\PSoC4/UART_SPI_UART.c ****             /* Release lock */
ARM GAS  C:\Users\AFDHAL~1\AppData\Local\Temp\ccIw0Hah.s 			page 8


 224:Generated_Source\PSoC4/UART_SPI_UART.c ****             UART_EnableInt();
 176              		.loc 1 224 0
 177 0030 0920     		movs	r0, #9
 178 0032 FFF7FEFF 		bl	CyIntEnable
 179              	.LVL12:
 225:Generated_Source\PSoC4/UART_SPI_UART.c ****         }
 226:Generated_Source\PSoC4/UART_SPI_UART.c ****         #else
 227:Generated_Source\PSoC4/UART_SPI_UART.c ****         {
 228:Generated_Source\PSoC4/UART_SPI_UART.c ****             UART_CLEAR_RX_FIFO;
 229:Generated_Source\PSoC4/UART_SPI_UART.c ****         }
 230:Generated_Source\PSoC4/UART_SPI_UART.c ****         #endif
 231:Generated_Source\PSoC4/UART_SPI_UART.c ****     }
 180              		.loc 1 231 0
 181              		@ sp needed
 182 0036 10BD     		pop	{r4, pc}
 183              	.L15:
 184              		.align	2
 185              	.L14:
 186 0038 00000000 		.word	UART_rxBufferTail
 187 003c 00000000 		.word	UART_rxBufferHead
 188 0040 00000000 		.word	UART_rxBufferOverflow
 189 0044 04032540 		.word	1076167428
 190 0048 FFFFFEFF 		.word	-65537
 191 004c ED0F0000 		.word	4077
 192 0050 C00F2540 		.word	1076170688
 193              		.cfi_endproc
 194              	.LFE3:
 195              		.size	UART_SpiUartClearRxBuffer, .-UART_SpiUartClearRxBuffer
 196              		.section	.text.UART_SpiUartWriteTxData,"ax",%progbits
 197              		.align	2
 198              		.global	UART_SpiUartWriteTxData
 199              		.code	16
 200              		.thumb_func
 201              		.type	UART_SpiUartWriteTxData, %function
 202              	UART_SpiUartWriteTxData:
 203              	.LFB4:
 232:Generated_Source\PSoC4/UART_SPI_UART.c **** 
 233:Generated_Source\PSoC4/UART_SPI_UART.c **** #endif /* (UART_RX_DIRECTION) */
 234:Generated_Source\PSoC4/UART_SPI_UART.c **** 
 235:Generated_Source\PSoC4/UART_SPI_UART.c **** 
 236:Generated_Source\PSoC4/UART_SPI_UART.c **** #if(UART_TX_DIRECTION)
 237:Generated_Source\PSoC4/UART_SPI_UART.c ****     /*******************************************************************************
 238:Generated_Source\PSoC4/UART_SPI_UART.c ****     * Function Name: UART_SpiUartWriteTxData
 239:Generated_Source\PSoC4/UART_SPI_UART.c ****     ****************************************************************************//**
 240:Generated_Source\PSoC4/UART_SPI_UART.c ****     *
 241:Generated_Source\PSoC4/UART_SPI_UART.c ****     *  Places a data entry into the transmit buffer to be sent at the next available
 242:Generated_Source\PSoC4/UART_SPI_UART.c ****     *  bus time.
 243:Generated_Source\PSoC4/UART_SPI_UART.c ****     *  This function is blocking and waits until there is space available to put the
 244:Generated_Source\PSoC4/UART_SPI_UART.c ****     *  requested data in the transmit buffer.
 245:Generated_Source\PSoC4/UART_SPI_UART.c ****     *
 246:Generated_Source\PSoC4/UART_SPI_UART.c ****     *  \param txDataByte: the data to be transmitted.
 247:Generated_Source\PSoC4/UART_SPI_UART.c ****     *   The amount of data bits to be transmitted depends on TX data bits selection 
 248:Generated_Source\PSoC4/UART_SPI_UART.c ****     *   (the data bit counting starts from LSB of txDataByte).
 249:Generated_Source\PSoC4/UART_SPI_UART.c ****     *
 250:Generated_Source\PSoC4/UART_SPI_UART.c ****     * \globalvars
 251:Generated_Source\PSoC4/UART_SPI_UART.c ****     *  UART_txBufferHead - the start index to put data into the 
 252:Generated_Source\PSoC4/UART_SPI_UART.c ****     *  software transmit buffer.
ARM GAS  C:\Users\AFDHAL~1\AppData\Local\Temp\ccIw0Hah.s 			page 9


 253:Generated_Source\PSoC4/UART_SPI_UART.c ****     *  UART_txBufferTail - start index to get data from the software
 254:Generated_Source\PSoC4/UART_SPI_UART.c ****     *  transmit buffer.
 255:Generated_Source\PSoC4/UART_SPI_UART.c ****     *
 256:Generated_Source\PSoC4/UART_SPI_UART.c ****     *******************************************************************************/
 257:Generated_Source\PSoC4/UART_SPI_UART.c ****     void UART_SpiUartWriteTxData(uint32 txData)
 258:Generated_Source\PSoC4/UART_SPI_UART.c ****     {
 204              		.loc 1 258 0
 205              		.cfi_startproc
 206              		@ args = 0, pretend = 0, frame = 0
 207              		@ frame_needed = 0, uses_anonymous_args = 0
 208              		@ link register save eliminated.
 209              	.LVL13:
 259:Generated_Source\PSoC4/UART_SPI_UART.c ****     #if (UART_INTERNAL_TX_SW_BUFFER_CONST)
 260:Generated_Source\PSoC4/UART_SPI_UART.c ****         uint32 locHead;
 261:Generated_Source\PSoC4/UART_SPI_UART.c ****     #endif /* (UART_INTERNAL_TX_SW_BUFFER_CONST) */
 262:Generated_Source\PSoC4/UART_SPI_UART.c **** 
 263:Generated_Source\PSoC4/UART_SPI_UART.c ****         #if (UART_CHECK_TX_SW_BUFFER)
 264:Generated_Source\PSoC4/UART_SPI_UART.c ****         {
 265:Generated_Source\PSoC4/UART_SPI_UART.c ****             /* Put data directly into the TX FIFO */
 266:Generated_Source\PSoC4/UART_SPI_UART.c ****             if ((UART_txBufferHead == UART_txBufferTail) &&
 210              		.loc 1 266 0
 211 0000 154B     		ldr	r3, .L22
 212 0002 1A68     		ldr	r2, [r3]
 213 0004 154B     		ldr	r3, .L22+4
 214 0006 1B68     		ldr	r3, [r3]
 215 0008 9A42     		cmp	r2, r3
 216 000a 08D1     		bne	.L17
 267:Generated_Source\PSoC4/UART_SPI_UART.c ****                 (UART_SPI_UART_FIFO_SIZE != UART_GET_TX_FIFO_ENTRIES))
 217              		.loc 1 267 0 discriminator 1
 218 000c 144B     		ldr	r3, .L22+8
 219 000e 1B68     		ldr	r3, [r3]
 220 0010 1F22     		movs	r2, #31
 221 0012 1340     		ands	r3, r2
 266:Generated_Source\PSoC4/UART_SPI_UART.c ****                 (UART_SPI_UART_FIFO_SIZE != UART_GET_TX_FIFO_ENTRIES))
 222              		.loc 1 266 0 discriminator 1
 223 0014 082B     		cmp	r3, #8
 224 0016 02D0     		beq	.L17
 268:Generated_Source\PSoC4/UART_SPI_UART.c ****             {
 269:Generated_Source\PSoC4/UART_SPI_UART.c ****                 /* TX software buffer is empty: put data directly in TX FIFO */
 270:Generated_Source\PSoC4/UART_SPI_UART.c ****                 UART_TX_FIFO_WR_REG = txData;
 225              		.loc 1 270 0
 226 0018 124B     		ldr	r3, .L22+12
 227 001a 1860     		str	r0, [r3]
 228 001c 1BE0     		b	.L16
 229              	.L17:
 271:Generated_Source\PSoC4/UART_SPI_UART.c ****             }
 272:Generated_Source\PSoC4/UART_SPI_UART.c ****             /* Put data into TX software buffer */
 273:Generated_Source\PSoC4/UART_SPI_UART.c ****             else
 274:Generated_Source\PSoC4/UART_SPI_UART.c ****             {
 275:Generated_Source\PSoC4/UART_SPI_UART.c ****                 /* Head index to put data */
 276:Generated_Source\PSoC4/UART_SPI_UART.c ****                 locHead = (UART_txBufferHead + 1u);
 230              		.loc 1 276 0
 231 001e 0E4B     		ldr	r3, .L22
 232 0020 1A68     		ldr	r2, [r3]
 233 0022 0132     		adds	r2, r2, #1
 234              	.LVL14:
 277:Generated_Source\PSoC4/UART_SPI_UART.c **** 
ARM GAS  C:\Users\AFDHAL~1\AppData\Local\Temp\ccIw0Hah.s 			page 10


 278:Generated_Source\PSoC4/UART_SPI_UART.c ****                 /* Adjust TX software buffer index */
 279:Generated_Source\PSoC4/UART_SPI_UART.c ****                 if (UART_TX_BUFFER_SIZE == locHead)
 235              		.loc 1 279 0
 236 0024 8023     		movs	r3, #128
 237 0026 5B00     		lsls	r3, r3, #1
 238 0028 9A42     		cmp	r2, r3
 239 002a 00D1     		bne	.L20
 280:Generated_Source\PSoC4/UART_SPI_UART.c ****                 {
 281:Generated_Source\PSoC4/UART_SPI_UART.c ****                     locHead = 0u;
 240              		.loc 1 281 0
 241 002c 0022     		movs	r2, #0
 242              	.LVL15:
 243              	.L20:
 282:Generated_Source\PSoC4/UART_SPI_UART.c ****                 }
 283:Generated_Source\PSoC4/UART_SPI_UART.c **** 
 284:Generated_Source\PSoC4/UART_SPI_UART.c ****                 /* Wait for space in TX software buffer */
 285:Generated_Source\PSoC4/UART_SPI_UART.c ****                 while (locHead == UART_txBufferTail)
 244              		.loc 1 285 0 discriminator 1
 245 002e 0B4B     		ldr	r3, .L22+4
 246 0030 1B68     		ldr	r3, [r3]
 247 0032 9A42     		cmp	r2, r3
 248 0034 FBD0     		beq	.L20
 286:Generated_Source\PSoC4/UART_SPI_UART.c ****                 {
 287:Generated_Source\PSoC4/UART_SPI_UART.c ****                 }
 288:Generated_Source\PSoC4/UART_SPI_UART.c **** 
 289:Generated_Source\PSoC4/UART_SPI_UART.c ****                 /* TX software buffer has at least one room */
 290:Generated_Source\PSoC4/UART_SPI_UART.c **** 
 291:Generated_Source\PSoC4/UART_SPI_UART.c ****                 /* Clear old status of INTR_TX_NOT_FULL. It sets at the end of transfer when TX FIF
 292:Generated_Source\PSoC4/UART_SPI_UART.c ****                 UART_ClearTxInterruptSource(UART_INTR_TX_NOT_FULL);
 249              		.loc 1 292 0
 250 0036 0223     		movs	r3, #2
 251 0038 0B49     		ldr	r1, .L22+16
 252 003a 0B60     		str	r3, [r1]
 293:Generated_Source\PSoC4/UART_SPI_UART.c **** 
 294:Generated_Source\PSoC4/UART_SPI_UART.c ****                 UART_PutWordInTxBuffer(locHead, txData);
 253              		.loc 1 294 0
 254 003c C0B2     		uxtb	r0, r0
 255              	.LVL16:
 256 003e 0B49     		ldr	r1, .L22+20
 257 0040 8854     		strb	r0, [r1, r2]
 295:Generated_Source\PSoC4/UART_SPI_UART.c **** 
 296:Generated_Source\PSoC4/UART_SPI_UART.c ****                 UART_txBufferHead = locHead;
 258              		.loc 1 296 0
 259 0042 0549     		ldr	r1, .L22
 260 0044 0A60     		str	r2, [r1]
 297:Generated_Source\PSoC4/UART_SPI_UART.c **** 
 298:Generated_Source\PSoC4/UART_SPI_UART.c ****                 /* Check if TX Not Full is disabled in interrupt */
 299:Generated_Source\PSoC4/UART_SPI_UART.c ****                 if (0u == (UART_INTR_TX_MASK_REG & UART_INTR_TX_NOT_FULL))
 261              		.loc 1 299 0
 262 0046 0A4A     		ldr	r2, .L22+24
 263              	.LVL17:
 264 0048 1268     		ldr	r2, [r2]
 265 004a 1342     		tst	r3, r2
 266 004c 03D1     		bne	.L16
 300:Generated_Source\PSoC4/UART_SPI_UART.c ****                 {
 301:Generated_Source\PSoC4/UART_SPI_UART.c ****                     /* Enable TX Not Full interrupt source to transmit from software buffer */
 302:Generated_Source\PSoC4/UART_SPI_UART.c ****                     UART_INTR_TX_MASK_REG |= (uint32) UART_INTR_TX_NOT_FULL;
ARM GAS  C:\Users\AFDHAL~1\AppData\Local\Temp\ccIw0Hah.s 			page 11


 267              		.loc 1 302 0
 268 004e 084A     		ldr	r2, .L22+24
 269 0050 1168     		ldr	r1, [r2]
 270 0052 0B43     		orrs	r3, r1
 271 0054 1360     		str	r3, [r2]
 272              	.LVL18:
 273              	.L16:
 303:Generated_Source\PSoC4/UART_SPI_UART.c ****                 }
 304:Generated_Source\PSoC4/UART_SPI_UART.c ****             }
 305:Generated_Source\PSoC4/UART_SPI_UART.c ****         }
 306:Generated_Source\PSoC4/UART_SPI_UART.c ****         #else
 307:Generated_Source\PSoC4/UART_SPI_UART.c ****         {
 308:Generated_Source\PSoC4/UART_SPI_UART.c ****             /* Wait until TX FIFO has space to put data element */
 309:Generated_Source\PSoC4/UART_SPI_UART.c ****             while (UART_SPI_UART_FIFO_SIZE == UART_GET_TX_FIFO_ENTRIES)
 310:Generated_Source\PSoC4/UART_SPI_UART.c ****             {
 311:Generated_Source\PSoC4/UART_SPI_UART.c ****             }
 312:Generated_Source\PSoC4/UART_SPI_UART.c **** 
 313:Generated_Source\PSoC4/UART_SPI_UART.c ****             UART_TX_FIFO_WR_REG = txData;
 314:Generated_Source\PSoC4/UART_SPI_UART.c ****         }
 315:Generated_Source\PSoC4/UART_SPI_UART.c ****         #endif
 316:Generated_Source\PSoC4/UART_SPI_UART.c ****     }
 274              		.loc 1 316 0
 275              		@ sp needed
 276 0056 7047     		bx	lr
 277              	.L23:
 278              		.align	2
 279              	.L22:
 280 0058 00000000 		.word	UART_txBufferHead
 281 005c 00000000 		.word	UART_txBufferTail
 282 0060 08022540 		.word	1076167176
 283 0064 40022540 		.word	1076167232
 284 0068 800F2540 		.word	1076170624
 285 006c 00000000 		.word	UART_txBufferInternal
 286 0070 880F2540 		.word	1076170632
 287              		.cfi_endproc
 288              	.LFE4:
 289              		.size	UART_SpiUartWriteTxData, .-UART_SpiUartWriteTxData
 290              		.section	.text.UART_SpiUartPutArray,"ax",%progbits
 291              		.align	2
 292              		.global	UART_SpiUartPutArray
 293              		.code	16
 294              		.thumb_func
 295              		.type	UART_SpiUartPutArray, %function
 296              	UART_SpiUartPutArray:
 297              	.LFB5:
 317:Generated_Source\PSoC4/UART_SPI_UART.c **** 
 318:Generated_Source\PSoC4/UART_SPI_UART.c **** 
 319:Generated_Source\PSoC4/UART_SPI_UART.c ****     /*******************************************************************************
 320:Generated_Source\PSoC4/UART_SPI_UART.c ****     * Function Name: UART_SpiUartPutArray
 321:Generated_Source\PSoC4/UART_SPI_UART.c ****     ****************************************************************************//**
 322:Generated_Source\PSoC4/UART_SPI_UART.c ****     *
 323:Generated_Source\PSoC4/UART_SPI_UART.c ****     *  Places an array of data into the transmit buffer to be sent.
 324:Generated_Source\PSoC4/UART_SPI_UART.c ****     *  This function is blocking and waits until there is a space available to put
 325:Generated_Source\PSoC4/UART_SPI_UART.c ****     *  all the requested data in the transmit buffer. The array size can be greater
 326:Generated_Source\PSoC4/UART_SPI_UART.c ****     *  than transmit buffer size.
 327:Generated_Source\PSoC4/UART_SPI_UART.c ****     *
 328:Generated_Source\PSoC4/UART_SPI_UART.c ****     * \param wrBuf: pointer to an array of data to be placed in transmit buffer. 
ARM GAS  C:\Users\AFDHAL~1\AppData\Local\Temp\ccIw0Hah.s 			page 12


 329:Generated_Source\PSoC4/UART_SPI_UART.c ****     *  The width of the data to be transmitted depends on TX data width selection 
 330:Generated_Source\PSoC4/UART_SPI_UART.c ****     *  (the data bit counting starts from LSB for each array element).
 331:Generated_Source\PSoC4/UART_SPI_UART.c ****     * \param count: number of data elements to be placed in the transmit buffer.
 332:Generated_Source\PSoC4/UART_SPI_UART.c ****     *
 333:Generated_Source\PSoC4/UART_SPI_UART.c ****     * \globalvars
 334:Generated_Source\PSoC4/UART_SPI_UART.c ****     *  UART_txBufferHead - the start index to put data into the 
 335:Generated_Source\PSoC4/UART_SPI_UART.c ****     *  software transmit buffer.
 336:Generated_Source\PSoC4/UART_SPI_UART.c ****     *  UART_txBufferTail - start index to get data from the software
 337:Generated_Source\PSoC4/UART_SPI_UART.c ****     *  transmit buffer.
 338:Generated_Source\PSoC4/UART_SPI_UART.c ****     *
 339:Generated_Source\PSoC4/UART_SPI_UART.c ****     *******************************************************************************/
 340:Generated_Source\PSoC4/UART_SPI_UART.c ****     void UART_SpiUartPutArray(const uint8 wrBuf[], uint32 count)
 341:Generated_Source\PSoC4/UART_SPI_UART.c ****     {
 298              		.loc 1 341 0
 299              		.cfi_startproc
 300              		@ args = 0, pretend = 0, frame = 0
 301              		@ frame_needed = 0, uses_anonymous_args = 0
 302              	.LVL19:
 303 0000 70B5     		push	{r4, r5, r6, lr}
 304              		.cfi_def_cfa_offset 16
 305              		.cfi_offset 4, -16
 306              		.cfi_offset 5, -12
 307              		.cfi_offset 6, -8
 308              		.cfi_offset 14, -4
 309 0002 0600     		movs	r6, r0
 310 0004 0D00     		movs	r5, r1
 311              	.LVL20:
 342:Generated_Source\PSoC4/UART_SPI_UART.c ****         uint32 i;
 343:Generated_Source\PSoC4/UART_SPI_UART.c **** 
 344:Generated_Source\PSoC4/UART_SPI_UART.c ****         for (i=0u; i < count; i++)
 312              		.loc 1 344 0
 313 0006 0024     		movs	r4, #0
 314 0008 03E0     		b	.L25
 315              	.LVL21:
 316              	.L26:
 345:Generated_Source\PSoC4/UART_SPI_UART.c ****         {
 346:Generated_Source\PSoC4/UART_SPI_UART.c ****             UART_SpiUartWriteTxData((uint32) wrBuf[i]);
 317              		.loc 1 346 0 discriminator 3
 318 000a 305D     		ldrb	r0, [r6, r4]
 319 000c FFF7FEFF 		bl	UART_SpiUartWriteTxData
 320              	.LVL22:
 344:Generated_Source\PSoC4/UART_SPI_UART.c ****         {
 321              		.loc 1 344 0 discriminator 3
 322 0010 0134     		adds	r4, r4, #1
 323              	.LVL23:
 324              	.L25:
 344:Generated_Source\PSoC4/UART_SPI_UART.c ****         {
 325              		.loc 1 344 0 is_stmt 0 discriminator 1
 326 0012 AC42     		cmp	r4, r5
 327 0014 F9D3     		bcc	.L26
 347:Generated_Source\PSoC4/UART_SPI_UART.c ****         }
 348:Generated_Source\PSoC4/UART_SPI_UART.c ****     }
 328              		.loc 1 348 0 is_stmt 1
 329              		@ sp needed
 330              	.LVL24:
 331              	.LVL25:
 332              	.LVL26:
ARM GAS  C:\Users\AFDHAL~1\AppData\Local\Temp\ccIw0Hah.s 			page 13


 333 0016 70BD     		pop	{r4, r5, r6, pc}
 334              		.cfi_endproc
 335              	.LFE5:
 336              		.size	UART_SpiUartPutArray, .-UART_SpiUartPutArray
 337              		.section	.text.UART_SpiUartGetTxBufferSize,"ax",%progbits
 338              		.align	2
 339              		.global	UART_SpiUartGetTxBufferSize
 340              		.code	16
 341              		.thumb_func
 342              		.type	UART_SpiUartGetTxBufferSize, %function
 343              	UART_SpiUartGetTxBufferSize:
 344              	.LFB6:
 349:Generated_Source\PSoC4/UART_SPI_UART.c **** 
 350:Generated_Source\PSoC4/UART_SPI_UART.c **** 
 351:Generated_Source\PSoC4/UART_SPI_UART.c ****     /*******************************************************************************
 352:Generated_Source\PSoC4/UART_SPI_UART.c ****     * Function Name: UART_SpiUartGetTxBufferSize
 353:Generated_Source\PSoC4/UART_SPI_UART.c ****     ****************************************************************************//**
 354:Generated_Source\PSoC4/UART_SPI_UART.c ****     *
 355:Generated_Source\PSoC4/UART_SPI_UART.c ****     *  Returns the number of elements currently in the transmit buffer.
 356:Generated_Source\PSoC4/UART_SPI_UART.c ****     *   - TX software buffer is disabled: returns the number of used entries in
 357:Generated_Source\PSoC4/UART_SPI_UART.c ****     *     TX FIFO.
 358:Generated_Source\PSoC4/UART_SPI_UART.c ****     *   - TX software buffer is enabled: returns the number of elements currently
 359:Generated_Source\PSoC4/UART_SPI_UART.c ****     *     used in the transmit buffer. This number does not include used entries in
 360:Generated_Source\PSoC4/UART_SPI_UART.c ****     *     the TX FIFO. The transmit buffer size is zero until the TX FIFO is
 361:Generated_Source\PSoC4/UART_SPI_UART.c ****     *     not full.
 362:Generated_Source\PSoC4/UART_SPI_UART.c ****     *
 363:Generated_Source\PSoC4/UART_SPI_UART.c ****     * \return
 364:Generated_Source\PSoC4/UART_SPI_UART.c ****     *  Number of data elements ready to transmit.
 365:Generated_Source\PSoC4/UART_SPI_UART.c ****     *
 366:Generated_Source\PSoC4/UART_SPI_UART.c ****     * \globalvars
 367:Generated_Source\PSoC4/UART_SPI_UART.c ****     *  UART_txBufferHead - the start index to put data into the 
 368:Generated_Source\PSoC4/UART_SPI_UART.c ****     *  software transmit buffer.
 369:Generated_Source\PSoC4/UART_SPI_UART.c ****     *  UART_txBufferTail - start index to get data from the software
 370:Generated_Source\PSoC4/UART_SPI_UART.c ****     *  transmit buffer.
 371:Generated_Source\PSoC4/UART_SPI_UART.c ****     *
 372:Generated_Source\PSoC4/UART_SPI_UART.c ****     *******************************************************************************/
 373:Generated_Source\PSoC4/UART_SPI_UART.c ****     uint32 UART_SpiUartGetTxBufferSize(void)
 374:Generated_Source\PSoC4/UART_SPI_UART.c ****     {
 345              		.loc 1 374 0
 346              		.cfi_startproc
 347              		@ args = 0, pretend = 0, frame = 0
 348              		@ frame_needed = 0, uses_anonymous_args = 0
 349              		@ link register save eliminated.
 375:Generated_Source\PSoC4/UART_SPI_UART.c ****         uint32 size;
 376:Generated_Source\PSoC4/UART_SPI_UART.c ****     #if (UART_INTERNAL_TX_SW_BUFFER_CONST)
 377:Generated_Source\PSoC4/UART_SPI_UART.c ****         uint32 locTail;
 378:Generated_Source\PSoC4/UART_SPI_UART.c ****     #endif /* (UART_INTERNAL_TX_SW_BUFFER_CONST) */
 379:Generated_Source\PSoC4/UART_SPI_UART.c **** 
 380:Generated_Source\PSoC4/UART_SPI_UART.c ****         #if (UART_CHECK_TX_SW_BUFFER)
 381:Generated_Source\PSoC4/UART_SPI_UART.c ****         {
 382:Generated_Source\PSoC4/UART_SPI_UART.c ****             /* Get current Tail index */
 383:Generated_Source\PSoC4/UART_SPI_UART.c ****             locTail = UART_txBufferTail;
 350              		.loc 1 383 0
 351 0000 074B     		ldr	r3, .L30
 352 0002 1868     		ldr	r0, [r3]
 353              	.LVL27:
 384:Generated_Source\PSoC4/UART_SPI_UART.c **** 
ARM GAS  C:\Users\AFDHAL~1\AppData\Local\Temp\ccIw0Hah.s 			page 14


 385:Generated_Source\PSoC4/UART_SPI_UART.c ****             if (UART_txBufferHead >= locTail)
 354              		.loc 1 385 0
 355 0004 074B     		ldr	r3, .L30+4
 356 0006 1B68     		ldr	r3, [r3]
 357 0008 9842     		cmp	r0, r3
 358 000a 03D8     		bhi	.L28
 386:Generated_Source\PSoC4/UART_SPI_UART.c ****             {
 387:Generated_Source\PSoC4/UART_SPI_UART.c ****                 size = (UART_txBufferHead - locTail);
 359              		.loc 1 387 0
 360 000c 054B     		ldr	r3, .L30+4
 361 000e 1B68     		ldr	r3, [r3]
 362 0010 181A     		subs	r0, r3, r0
 363              	.LVL28:
 364 0012 04E0     		b	.L29
 365              	.LVL29:
 366              	.L28:
 388:Generated_Source\PSoC4/UART_SPI_UART.c ****             }
 389:Generated_Source\PSoC4/UART_SPI_UART.c ****             else
 390:Generated_Source\PSoC4/UART_SPI_UART.c ****             {
 391:Generated_Source\PSoC4/UART_SPI_UART.c ****                 size = (UART_txBufferHead + (UART_TX_BUFFER_SIZE - locTail));
 367              		.loc 1 391 0
 368 0014 034B     		ldr	r3, .L30+4
 369 0016 1B68     		ldr	r3, [r3]
 370 0018 181A     		subs	r0, r3, r0
 371              	.LVL30:
 372 001a 0130     		adds	r0, r0, #1
 373 001c FF30     		adds	r0, r0, #255
 374              	.LVL31:
 375              	.L29:
 392:Generated_Source\PSoC4/UART_SPI_UART.c ****             }
 393:Generated_Source\PSoC4/UART_SPI_UART.c ****         }
 394:Generated_Source\PSoC4/UART_SPI_UART.c ****         #else
 395:Generated_Source\PSoC4/UART_SPI_UART.c ****         {
 396:Generated_Source\PSoC4/UART_SPI_UART.c ****             size = UART_GET_TX_FIFO_ENTRIES;
 397:Generated_Source\PSoC4/UART_SPI_UART.c ****         }
 398:Generated_Source\PSoC4/UART_SPI_UART.c ****         #endif
 399:Generated_Source\PSoC4/UART_SPI_UART.c **** 
 400:Generated_Source\PSoC4/UART_SPI_UART.c ****         return (size);
 401:Generated_Source\PSoC4/UART_SPI_UART.c ****     }
 376              		.loc 1 401 0
 377              		@ sp needed
 378 001e 7047     		bx	lr
 379              	.L31:
 380              		.align	2
 381              	.L30:
 382 0020 00000000 		.word	UART_txBufferTail
 383 0024 00000000 		.word	UART_txBufferHead
 384              		.cfi_endproc
 385              	.LFE6:
 386              		.size	UART_SpiUartGetTxBufferSize, .-UART_SpiUartGetTxBufferSize
 387              		.section	.text.UART_SpiUartClearTxBuffer,"ax",%progbits
 388              		.align	2
 389              		.global	UART_SpiUartClearTxBuffer
 390              		.code	16
 391              		.thumb_func
 392              		.type	UART_SpiUartClearTxBuffer, %function
 393              	UART_SpiUartClearTxBuffer:
ARM GAS  C:\Users\AFDHAL~1\AppData\Local\Temp\ccIw0Hah.s 			page 15


 394              	.LFB7:
 402:Generated_Source\PSoC4/UART_SPI_UART.c **** 
 403:Generated_Source\PSoC4/UART_SPI_UART.c **** 
 404:Generated_Source\PSoC4/UART_SPI_UART.c ****     /*******************************************************************************
 405:Generated_Source\PSoC4/UART_SPI_UART.c ****     * Function Name: UART_SpiUartClearTxBuffer
 406:Generated_Source\PSoC4/UART_SPI_UART.c ****     ****************************************************************************//**
 407:Generated_Source\PSoC4/UART_SPI_UART.c ****     *
 408:Generated_Source\PSoC4/UART_SPI_UART.c ****     *  Clears the transmit buffer and TX FIFO.
 409:Generated_Source\PSoC4/UART_SPI_UART.c ****     *
 410:Generated_Source\PSoC4/UART_SPI_UART.c ****     * \globalvars
 411:Generated_Source\PSoC4/UART_SPI_UART.c ****     *  UART_txBufferHead - the start index to put data into the 
 412:Generated_Source\PSoC4/UART_SPI_UART.c ****     *  software transmit buffer.
 413:Generated_Source\PSoC4/UART_SPI_UART.c ****     *  UART_txBufferTail - start index to get data from the software
 414:Generated_Source\PSoC4/UART_SPI_UART.c ****     *  transmit buffer.
 415:Generated_Source\PSoC4/UART_SPI_UART.c ****     *
 416:Generated_Source\PSoC4/UART_SPI_UART.c ****     *******************************************************************************/
 417:Generated_Source\PSoC4/UART_SPI_UART.c ****     void UART_SpiUartClearTxBuffer(void)
 418:Generated_Source\PSoC4/UART_SPI_UART.c ****     {
 395              		.loc 1 418 0
 396              		.cfi_startproc
 397              		@ args = 0, pretend = 0, frame = 0
 398              		@ frame_needed = 0, uses_anonymous_args = 0
 399 0000 10B5     		push	{r4, lr}
 400              		.cfi_def_cfa_offset 8
 401              		.cfi_offset 4, -8
 402              		.cfi_offset 14, -4
 419:Generated_Source\PSoC4/UART_SPI_UART.c ****         #if (UART_CHECK_TX_SW_BUFFER)
 420:Generated_Source\PSoC4/UART_SPI_UART.c ****         {
 421:Generated_Source\PSoC4/UART_SPI_UART.c ****             /* Lock from component interruption */
 422:Generated_Source\PSoC4/UART_SPI_UART.c ****             UART_DisableInt();
 403              		.loc 1 422 0
 404 0002 0920     		movs	r0, #9
 405 0004 FFF7FEFF 		bl	CyIntDisable
 406              	.LVL32:
 423:Generated_Source\PSoC4/UART_SPI_UART.c **** 
 424:Generated_Source\PSoC4/UART_SPI_UART.c ****             /* Flush TX software buffer */
 425:Generated_Source\PSoC4/UART_SPI_UART.c ****             UART_txBufferHead = UART_txBufferTail;
 407              		.loc 1 425 0
 408 0008 0C4B     		ldr	r3, .L33
 409 000a 1A68     		ldr	r2, [r3]
 410 000c 0C4B     		ldr	r3, .L33+4
 411 000e 1A60     		str	r2, [r3]
 426:Generated_Source\PSoC4/UART_SPI_UART.c **** 
 427:Generated_Source\PSoC4/UART_SPI_UART.c ****             UART_INTR_TX_MASK_REG &= (uint32) ~UART_INTR_TX_NOT_FULL;
 412              		.loc 1 427 0
 413 0010 0C4A     		ldr	r2, .L33+8
 414 0012 1368     		ldr	r3, [r2]
 415 0014 0221     		movs	r1, #2
 416 0016 8B43     		bics	r3, r1
 417 0018 1360     		str	r3, [r2]
 428:Generated_Source\PSoC4/UART_SPI_UART.c ****             UART_CLEAR_TX_FIFO;
 418              		.loc 1 428 0
 419 001a 0B4B     		ldr	r3, .L33+12
 420 001c 1A68     		ldr	r2, [r3]
 421 001e 8021     		movs	r1, #128
 422 0020 4902     		lsls	r1, r1, #9
 423 0022 0A43     		orrs	r2, r1
ARM GAS  C:\Users\AFDHAL~1\AppData\Local\Temp\ccIw0Hah.s 			page 16


 424 0024 1A60     		str	r2, [r3]
 425 0026 1968     		ldr	r1, [r3]
 426 0028 084A     		ldr	r2, .L33+16
 427 002a 0A40     		ands	r2, r1
 428 002c 1A60     		str	r2, [r3]
 429:Generated_Source\PSoC4/UART_SPI_UART.c ****             UART_ClearTxInterruptSource(UART_INTR_TX_ALL);
 429              		.loc 1 429 0
 430 002e 084A     		ldr	r2, .L33+20
 431 0030 084B     		ldr	r3, .L33+24
 432 0032 1A60     		str	r2, [r3]
 430:Generated_Source\PSoC4/UART_SPI_UART.c **** 
 431:Generated_Source\PSoC4/UART_SPI_UART.c ****             /* Release lock */
 432:Generated_Source\PSoC4/UART_SPI_UART.c ****             UART_EnableInt();
 433              		.loc 1 432 0
 434 0034 0920     		movs	r0, #9
 435 0036 FFF7FEFF 		bl	CyIntEnable
 436              	.LVL33:
 433:Generated_Source\PSoC4/UART_SPI_UART.c ****         }
 434:Generated_Source\PSoC4/UART_SPI_UART.c ****         #else
 435:Generated_Source\PSoC4/UART_SPI_UART.c ****         {
 436:Generated_Source\PSoC4/UART_SPI_UART.c ****             UART_CLEAR_TX_FIFO;
 437:Generated_Source\PSoC4/UART_SPI_UART.c ****         }
 438:Generated_Source\PSoC4/UART_SPI_UART.c ****         #endif
 439:Generated_Source\PSoC4/UART_SPI_UART.c ****     }
 437              		.loc 1 439 0
 438              		@ sp needed
 439 003a 10BD     		pop	{r4, pc}
 440              	.L34:
 441              		.align	2
 442              	.L33:
 443 003c 00000000 		.word	UART_txBufferTail
 444 0040 00000000 		.word	UART_txBufferHead
 445 0044 880F2540 		.word	1076170632
 446 0048 04022540 		.word	1076167172
 447 004c FFFFFEFF 		.word	-65537
 448 0050 F3070000 		.word	2035
 449 0054 800F2540 		.word	1076170624
 450              		.cfi_endproc
 451              	.LFE7:
 452              		.size	UART_SpiUartClearTxBuffer, .-UART_SpiUartClearTxBuffer
 453              		.section	.text.UART_SpiUartDisableIntRx,"ax",%progbits
 454              		.align	2
 455              		.global	UART_SpiUartDisableIntRx
 456              		.code	16
 457              		.thumb_func
 458              		.type	UART_SpiUartDisableIntRx, %function
 459              	UART_SpiUartDisableIntRx:
 460              	.LFB8:
 440:Generated_Source\PSoC4/UART_SPI_UART.c **** 
 441:Generated_Source\PSoC4/UART_SPI_UART.c **** #endif /* (UART_TX_DIRECTION) */
 442:Generated_Source\PSoC4/UART_SPI_UART.c **** 
 443:Generated_Source\PSoC4/UART_SPI_UART.c **** 
 444:Generated_Source\PSoC4/UART_SPI_UART.c **** /*******************************************************************************
 445:Generated_Source\PSoC4/UART_SPI_UART.c **** * Function Name: UART_SpiUartDisableIntRx
 446:Generated_Source\PSoC4/UART_SPI_UART.c **** ****************************************************************************//**
 447:Generated_Source\PSoC4/UART_SPI_UART.c **** *
 448:Generated_Source\PSoC4/UART_SPI_UART.c **** *  Disables the RX interrupt sources.
ARM GAS  C:\Users\AFDHAL~1\AppData\Local\Temp\ccIw0Hah.s 			page 17


 449:Generated_Source\PSoC4/UART_SPI_UART.c **** *
 450:Generated_Source\PSoC4/UART_SPI_UART.c **** *  \return
 451:Generated_Source\PSoC4/UART_SPI_UART.c **** *   Returns the RX interrupt sources enabled before the function call.
 452:Generated_Source\PSoC4/UART_SPI_UART.c **** *
 453:Generated_Source\PSoC4/UART_SPI_UART.c **** *******************************************************************************/
 454:Generated_Source\PSoC4/UART_SPI_UART.c **** uint32 UART_SpiUartDisableIntRx(void)
 455:Generated_Source\PSoC4/UART_SPI_UART.c **** {
 461              		.loc 1 455 0
 462              		.cfi_startproc
 463              		@ args = 0, pretend = 0, frame = 0
 464              		@ frame_needed = 0, uses_anonymous_args = 0
 465              		@ link register save eliminated.
 456:Generated_Source\PSoC4/UART_SPI_UART.c ****     uint32 intSource;
 457:Generated_Source\PSoC4/UART_SPI_UART.c **** 
 458:Generated_Source\PSoC4/UART_SPI_UART.c ****     intSource = UART_GetRxInterruptMode();
 466              		.loc 1 458 0
 467 0000 024B     		ldr	r3, .L36
 468 0002 1868     		ldr	r0, [r3]
 469              	.LVL34:
 459:Generated_Source\PSoC4/UART_SPI_UART.c **** 
 460:Generated_Source\PSoC4/UART_SPI_UART.c ****     UART_SetRxInterruptMode(UART_NO_INTR_SOURCES);
 470              		.loc 1 460 0
 471 0004 0022     		movs	r2, #0
 472 0006 1A60     		str	r2, [r3]
 461:Generated_Source\PSoC4/UART_SPI_UART.c **** 
 462:Generated_Source\PSoC4/UART_SPI_UART.c ****     return (intSource);
 463:Generated_Source\PSoC4/UART_SPI_UART.c **** }
 473              		.loc 1 463 0
 474              		@ sp needed
 475 0008 7047     		bx	lr
 476              	.L37:
 477 000a C046     		.align	2
 478              	.L36:
 479 000c C80F2540 		.word	1076170696
 480              		.cfi_endproc
 481              	.LFE8:
 482              		.size	UART_SpiUartDisableIntRx, .-UART_SpiUartDisableIntRx
 483              		.section	.text.UART_SpiUartDisableIntTx,"ax",%progbits
 484              		.align	2
 485              		.global	UART_SpiUartDisableIntTx
 486              		.code	16
 487              		.thumb_func
 488              		.type	UART_SpiUartDisableIntTx, %function
 489              	UART_SpiUartDisableIntTx:
 490              	.LFB9:
 464:Generated_Source\PSoC4/UART_SPI_UART.c **** 
 465:Generated_Source\PSoC4/UART_SPI_UART.c **** 
 466:Generated_Source\PSoC4/UART_SPI_UART.c **** /*******************************************************************************
 467:Generated_Source\PSoC4/UART_SPI_UART.c **** * Function Name: UART_SpiUartDisableIntTx
 468:Generated_Source\PSoC4/UART_SPI_UART.c **** ****************************************************************************//**
 469:Generated_Source\PSoC4/UART_SPI_UART.c **** *
 470:Generated_Source\PSoC4/UART_SPI_UART.c **** *  Disables TX interrupt sources.
 471:Generated_Source\PSoC4/UART_SPI_UART.c **** *
 472:Generated_Source\PSoC4/UART_SPI_UART.c **** *  \return
 473:Generated_Source\PSoC4/UART_SPI_UART.c **** *   Returns TX interrupt sources enabled before function call.
 474:Generated_Source\PSoC4/UART_SPI_UART.c **** *
 475:Generated_Source\PSoC4/UART_SPI_UART.c **** *******************************************************************************/
ARM GAS  C:\Users\AFDHAL~1\AppData\Local\Temp\ccIw0Hah.s 			page 18


 476:Generated_Source\PSoC4/UART_SPI_UART.c **** uint32 UART_SpiUartDisableIntTx(void)
 477:Generated_Source\PSoC4/UART_SPI_UART.c **** {
 491              		.loc 1 477 0
 492              		.cfi_startproc
 493              		@ args = 0, pretend = 0, frame = 0
 494              		@ frame_needed = 0, uses_anonymous_args = 0
 495              		@ link register save eliminated.
 478:Generated_Source\PSoC4/UART_SPI_UART.c ****     uint32 intSourceMask;
 479:Generated_Source\PSoC4/UART_SPI_UART.c **** 
 480:Generated_Source\PSoC4/UART_SPI_UART.c ****     intSourceMask = UART_GetTxInterruptMode();
 496              		.loc 1 480 0
 497 0000 024B     		ldr	r3, .L39
 498 0002 1868     		ldr	r0, [r3]
 499              	.LVL35:
 481:Generated_Source\PSoC4/UART_SPI_UART.c **** 
 482:Generated_Source\PSoC4/UART_SPI_UART.c ****     UART_SetTxInterruptMode(UART_NO_INTR_SOURCES);
 500              		.loc 1 482 0
 501 0004 0022     		movs	r2, #0
 502 0006 1A60     		str	r2, [r3]
 483:Generated_Source\PSoC4/UART_SPI_UART.c **** 
 484:Generated_Source\PSoC4/UART_SPI_UART.c ****     return (intSourceMask);
 485:Generated_Source\PSoC4/UART_SPI_UART.c **** }
 503              		.loc 1 485 0
 504              		@ sp needed
 505 0008 7047     		bx	lr
 506              	.L40:
 507 000a C046     		.align	2
 508              	.L39:
 509 000c 880F2540 		.word	1076170632
 510              		.cfi_endproc
 511              	.LFE9:
 512              		.size	UART_SpiUartDisableIntTx, .-UART_SpiUartDisableIntTx
 513              		.comm	UART_txBufferInternal,256,4
 514              		.comm	UART_rxBufferInternal,257,4
 515              		.comm	UART_txBufferTail,4,4
 516              		.comm	UART_txBufferHead,4,4
 517              		.comm	UART_rxBufferOverflow,1,1
 518              		.comm	UART_rxBufferTail,4,4
 519              		.comm	UART_rxBufferHead,4,4
 520              		.text
 521              	.Letext0:
 522              		.file 2 "Generated_Source\\PSoC4/cytypes.h"
 523              		.file 3 "Generated_Source\\PSoC4/CyLib.h"